_ZN12TemporaryDir4initERKNSt3__112basic_stringIcNS0_11char_traitsIcEENS0_9allocatorIcEEEE
_ZN12TemporaryDirC1Ev
_ZN12TemporaryDirC2Ev
_ZN12TemporaryDirD1Ev
_ZN12TemporaryDirD2Ev
_ZN13TemporaryFile4initERKNSt3__112basic_stringIcNS0_11char_traitsIcEENS0_9allocatorIcEEEE
_ZN13TemporaryFile7releaseEv
_ZN13TemporaryFileC1ERKNSt3__112basic_stringIcNS0_11char_traitsIcEENS0_9allocatorIcEEEE
_ZN13TemporaryFileC1Ev
_ZN13TemporaryFileC2ERKNSt3__112basic_stringIcNS0_11char_traitsIcEENS0_9allocatorIcEEEE
_ZN13TemporaryFileC2Ev
_ZN13TemporaryFileD1Ev
_ZN13TemporaryFileD2Ev
_ZN14CapturedStderr4initEv
_ZN14CapturedStderr5resetEv
_ZN14CapturedStderrC1Ev
_ZN14CapturedStderrC2Ev
_ZN14CapturedStderrD1Ev
_ZN14CapturedStderrD2Ev
_ZN7android4base10LogMessage6streamEv
_ZN7android4base10LogMessage7LogLineEPKcjNS0_5LogIdENS0_11LogSeverityES3_
_ZN7android4base10LogMessage7LogLineEPKcjNS0_5LogIdENS0_11LogSeverityES3_S3_
_ZN7android4base10LogMessageC1EPKcjNS0_5LogIdENS0_11LogSeverityES3_i
_ZN7android4base10LogMessageC1EPKcjNS0_5LogIdENS0_11LogSeverityEi
_ZN7android4base10LogMessageC2EPKcjNS0_5LogIdENS0_11LogSeverityES3_i
_ZN7android4base10LogMessageC2EPKcjNS0_5LogIdENS0_11LogSeverityEi
_ZN7android4base10LogMessageD1Ev
_ZN7android4base10LogMessageD2Ev
_ZN7android4base10LogdLoggerC1ENS0_5LogIdE
_ZN7android4base10LogdLoggerC2ENS0_5LogIdE
_ZN7android4base10LogdLoggerclENS0_5LogIdENS0_11LogSeverityEPKcS5_jS5_
_ZN7android4base10SetAborterEONSt3__18functionIFvPKcEEE
_ZN7android4base10StartsWithERKNSt3__112basic_stringIcNS1_11char_traitsIcEENS1_9allocatorIcEEEEPKc
_ZN7android4base10StartsWithERKNSt3__112basic_stringIcNS1_11char_traitsIcEENS1_9allocatorIcEEEES9_
_ZN7android4base10WriteFullyEiPKvm
_ZN7android4base10boot_clock3nowEv
_ZN7android4base11GetPropertyERKNSt3__112basic_stringIcNS1_11char_traitsIcEENS1_9allocatorIcEEEES9_
_ZN7android4base11InitLoggingEPPcONSt3__18functionIFvNS0_5LogIdENS0_11LogSeverityEPKcS8_jS8_EEEONS4_IFvS8_EEE
_ZN7android4base11SetPropertyERKNSt3__112basic_stringIcNS1_11char_traitsIcEENS1_9allocatorIcEEEES9_
_ZN7android4base12KernelLoggerENS0_5LogIdENS0_11LogSeverityEPKcS4_jS4_
_ZN7android4base12StderrLoggerENS0_5LogIdENS0_11LogSeverityEPKcS4_jS4_
_ZN7android4base12StringPrintfEPKcz
_ZN7android4base13GetDefaultTagEv
_ZN7android4base13SetDefaultTagERKNSt3__112basic_stringIcNS1_11char_traitsIcEENS1_9allocatorIcEEEE
_ZN7android4base13StringAppendFEPNSt3__112basic_stringIcNS1_11char_traitsIcEENS1_9allocatorIcEEEEPKcz
_ZN7android4base13StringAppendVEPNSt3__112basic_stringIcNS1_11char_traitsIcEENS1_9allocatorIcEEEEPKcP13__va_list_tag
_ZN7android4base14DefaultAborterEPKc
_ZN7android4base14ReadFdToStringEiPNSt3__112basic_stringIcNS1_11char_traitsIcEENS1_9allocatorIcEEEE
_ZN7android4base15GetBoolPropertyERKNSt3__112basic_stringIcNS1_11char_traitsIcEENS1_9allocatorIcEEEEb
_ZN7android4base15ParseNetAddressERKNSt3__112basic_stringIcNS1_11char_traitsIcEENS1_9allocatorIcEEEEPS7_PiSA_SA_
_ZN7android4base15WaitForPropertyERKNSt3__112basic_stringIcNS1_11char_traitsIcEENS1_9allocatorIcEEEES9_NS1_6chrono8durationIxNS1_5ratioILl1ELl1000EEEEE
_ZN7android4base15WriteStringToFdERKNSt3__112basic_stringIcNS1_11char_traitsIcEENS1_9allocatorIcEEEEi
_ZN7android4base16EqualsIgnoreCaseERKNSt3__112basic_stringIcNS1_11char_traitsIcEENS1_9allocatorIcEEEES9_
_ZN7android4base16ReadFileToStringERKNSt3__112basic_stringIcNS1_11char_traitsIcEENS1_9allocatorIcEEEEPS7_b
_ZN7android4base17GetExecutablePathEv
_ZN7android4base17ReadFullyAtOffsetEiPvml
_ZN7android4base17ScopedLogSeverityC1ENS0_11LogSeverityE
_ZN7android4base17ScopedLogSeverityC2ENS0_11LogSeverityE
_ZN7android4base17ScopedLogSeverityD1Ev
_ZN7android4base17ScopedLogSeverityD2Ev
_ZN7android4base17WriteStringToFileERKNSt3__112basic_stringIcNS1_11char_traitsIcEENS1_9allocatorIcEEEES9_b
_ZN7android4base17WriteStringToFileERKNSt3__112basic_stringIcNS1_11char_traitsIcEENS1_9allocatorIcEEEES9_jjjb
_ZN7android4base18EndsWithIgnoreCaseERKNSt3__112basic_stringIcNS1_11char_traitsIcEENS1_9allocatorIcEEEEPKc
_ZN7android4base18EndsWithIgnoreCaseERKNSt3__112basic_stringIcNS1_11char_traitsIcEENS1_9allocatorIcEEEES9_
_ZN7android4base18RemoveFileIfExistsERKNSt3__112basic_stringIcNS1_11char_traitsIcEENS1_9allocatorIcEEEEPS7_
_ZN7android4base20StartsWithIgnoreCaseERKNSt3__112basic_stringIcNS1_11char_traitsIcEENS1_9allocatorIcEEEEPKc
_ZN7android4base20StartsWithIgnoreCaseERKNSt3__112basic_stringIcNS1_11char_traitsIcEENS1_9allocatorIcEEEES9_
_ZN7android4base21GetMinimumLogSeverityEv
_ZN7android4base21SetMinimumLogSeverityENS0_11LogSeverityE
_ZN7android4base22GetExecutableDirectoryEv
_ZN7android4base23SystemErrorCodeToStringEi
_ZN7android4base23WaitForPropertyCreationERKNSt3__112basic_stringIcNS1_11char_traitsIcEENS1_9allocatorIcEEEENS1_6chrono8durationIxNS1_5ratioILl1ELl1000EEEEE
_ZN7android4base4TrimERKNSt3__112basic_stringIcNS1_11char_traitsIcEENS1_9allocatorIcEEEE
_ZN7android4base5SplitERKNSt3__112basic_stringIcNS1_11char_traitsIcEENS1_9allocatorIcEEEES9_
_ZN7android4base7DirnameERKNSt3__112basic_stringIcNS1_11char_traitsIcEENS1_9allocatorIcEEEE
_ZN7android4base8BasenameERKNSt3__112basic_stringIcNS1_11char_traitsIcEENS1_9allocatorIcEEEE
_ZN7android4base8EndsWithERKNSt3__112basic_stringIcNS1_11char_traitsIcEENS1_9allocatorIcEEEEPKc
_ZN7android4base8EndsWithERKNSt3__112basic_stringIcNS1_11char_traitsIcEENS1_9allocatorIcEEEES9_
_ZN7android4base8ReadlinkERKNSt3__112basic_stringIcNS1_11char_traitsIcEENS1_9allocatorIcEEEEPS7_
_ZN7android4base8RealpathERKNSt3__112basic_stringIcNS1_11char_traitsIcEENS1_9allocatorIcEEEEPS7_
_ZN7android4base9ReadFullyEiPvm
_ZN7android4base9SetLoggerEONSt3__18functionIFvNS0_5LogIdENS0_11LogSeverityEPKcS6_jS6_EEE
_ZN7android4baselsERNSt3__113basic_ostreamIcNS1_11char_traitsIcEEEERKNS0_5TimerE
_ZNK14CapturedStderr2fdEv
