_Z10SC_abs_i32i
_Z10SC_lgammaff
_Z10SC_remquofffPi
_Z10SC_tgammaff
_Z12SC_copysignfff
_Z12SC_lgammaf_rfPi
_Z12selectKernelN7android12renderscript5Key_tE
_Z13SC_nextafterfff
_Z13SC_remainderfff
_Z13rsMatrixScaleP12rs_matrix4x4fff
_Z14rsMatrixRotateP12rs_matrix4x4ffff
_Z15rsMatrixInverseP12rs_matrix4x4
_Z17rsMatrixLoadOrthoP12rs_matrix4x4ffffff
_Z17rsMatrixLoadScaleP12rs_matrix4x4fff
_Z17rsMatrixTranslateP12rs_matrix4x4fff
_Z17rsMatrixTransposeP12rs_matrix2x2
_Z17rsMatrixTransposeP12rs_matrix3x3
_Z17rsMatrixTransposeP12rs_matrix4x4
_Z17rsdIntrinsicYuv_KPvPKhS1_jPKs
_Z18rsMatrixLoadRotateP12rs_matrix4x4ffff
_Z18rsdIntrinsicYuv2_KPvPKhS1_S1_jPKs
_Z18rsdIntrinsicYuvR_KPvPKhS1_jPKs
_Z19rsMatrixLoadFrustumP12rs_matrix4x4ffffff
_Z21rsMatrixLoadTranslateP12rs_matrix4x4fff
_Z22rsdIntrinsicBlendAdd_KPvPKvj
_Z22rsdIntrinsicBlendSub_KPvPKvj
_Z22rsdIntrinsicBlendXor_KPvPKvj
_Z22rsdIntrinsicBlurHFU1_KPvPKvS1_iii
_Z22rsdIntrinsicBlurHFU4_KPvPKvS1_iii
_Z22rsdIntrinsicBlurVFU4_KPvPKviS1_iii
_Z23rsMatrixLoadPerspectiveP12rs_matrix4x4ffff
_Z24rsMatrixInverseTransposeP12rs_matrix4x4
_Z24rsdIntrinsicBlendDstIn_KPvPKvj
_Z24rsdIntrinsicBlendSrcIn_KPvPKvj
_Z25rsdIntrinsicBlendDstOut_KPvPKvj
_Z25rsdIntrinsicBlendSrcOut_KPvPKvj
_Z26rsdIntrinsicBlendDstAtop_KPvPKvj
_Z26rsdIntrinsicBlendDstOver_KPvPKvj
_Z26rsdIntrinsicBlendSrcAtop_KPvPKvj
_Z26rsdIntrinsicBlendSrcOver_KPvPKvj
_Z27rsdIntrinsicBlendMultiply_KPvPKvj
_Z28rsdIntrinsicColorMatrix3x3_KPvPKvPKsj
_Z28rsdIntrinsicColorMatrix4x4_KPvPKvPKsj
_Z28rsdIntrinsicColorMatrixDot_KPvPKvPKsj
_Z7SC_cosff
_Z7SC_erfff
_Z7SC_expff
_Z7SC_fmaffff
_Z7SC_logff
_Z7SC_powfff
_Z7SC_sinff
_Z7SC_tanff
_Z8SC_acosff
_Z8SC_asinff
_Z8SC_atanff
_Z8SC_cbrtff
_Z8SC_ceilff
_Z8SC_coshff
_Z8SC_erfcff
_Z8SC_exp2ff
_Z8SC_fdimfff
_Z8SC_fmaxfff
_Z8SC_fminfff
_Z8SC_fmodfff
_Z8SC_logbff
_Z8SC_modfffPf
_Z8SC_rintff
_Z8SC_sinhff
_Z8SC_sqrtff
_Z8SC_tanhff
_Z9SC_acoshff
_Z9SC_asinhff
_Z9SC_atan2fff
_Z9SC_atanhff
_Z9SC_expm1ff
_Z9SC_floorff
_Z9SC_frexpffPi
_Z9SC_hypotfff
_Z9SC_ilogbff
_Z9SC_ldexpffi
_Z9SC_log10ff
_Z9SC_log1pff
_Z9SC_randf2ff
_Z9SC_roundff
_Z9SC_truncff
_ZN7android12renderscript12gArchUseSIMDE
_ZN7android12renderscript15RsdCpuReference12getTlsScriptEv
_ZN7android12renderscript15RsdCpuReference13getTlsContextEv
_ZN7android12renderscript15RsdCpuReference15getThreadTLSKeyEv
_ZN7android12renderscript15RsdCpuReference6createEPNS0_7ContextEjjPFPKNS1_9CpuSymbolES3_PKcEPFPNS1_9CpuScriptES3_PKNS0_6ScriptEEPFS8_S8_mES8_
_ZN7android12renderscript15RsdCpuReferenceD0Ev
_ZN7android12renderscript15RsdCpuReferenceD1Ev
_ZN7android12renderscript15RsdCpuReferenceD2Ev
_ZN7android12renderscript16RsdCpuScriptImpl10invokeInitEv
_ZN7android12renderscript16RsdCpuScriptImpl10invokeRootEv
_ZN7android12renderscript16RsdCpuScriptImpl10postLaunchEjPPKNS0_10AllocationEjPS2_PKvjPK12RsScriptCall
_ZN7android12renderscript16RsdCpuScriptImpl11findCoreLibERKN6bcinfo17MetadataExtractorEPKcm
_ZN7android12renderscript16RsdCpuScriptImpl12BCC_EXE_PATHE
_ZN7android12renderscript16RsdCpuScriptImpl12getGlobalVarEjPvm
_ZN7android12renderscript16RsdCpuScriptImpl12invokeReduceEjPPKNS0_10AllocationEjPS2_PK12RsScriptCall
_ZN7android12renderscript16RsdCpuScriptImpl12setGlobalObjEjPNS0_10ObjectBaseE
_ZN7android12renderscript16RsdCpuScriptImpl12setGlobalVarEjPKvm
_ZN7android12renderscript16RsdCpuScriptImpl13invokeForEachEjPPKNS0_10AllocationEjPS2_PKvjPK12RsScriptCall
_ZN7android12renderscript16RsdCpuScriptImpl13setGlobalBindEjPNS0_10AllocationE
_ZN7android12renderscript16RsdCpuScriptImpl14invokeFunctionEjPKvm
_ZN7android12renderscript16RsdCpuScriptImpl14populateScriptEPNS0_6ScriptE
_ZN7android12renderscript16RsdCpuScriptImpl15reduceMtlsSetupEPPKNS0_10AllocationEjS4_PK12RsScriptCallPNS0_20MTLaunchStructReduceE
_ZN7android12renderscript16RsdCpuScriptImpl16forEachMtlsSetupEPPKNS0_10AllocationEjPS2_PKvjPK12RsScriptCallPNS0_21MTLaunchStructForEachE
_ZN7android12renderscript16RsdCpuScriptImpl17reduceKernelSetupEjPNS0_20MTLaunchStructReduceE
_ZN7android12renderscript16RsdCpuScriptImpl17storeRSInfoFromSOEv
_ZN7android12renderscript16RsdCpuScriptImpl18forEachKernelSetupEjPNS0_21MTLaunchStructForEachE
_ZN7android12renderscript16RsdCpuScriptImpl18invokeFreeChildrenEv
_ZN7android12renderscript16RsdCpuScriptImpl19setUpMtlsDimensionsEPNS0_20MTLaunchStructCommonERK18RsLaunchDimensionsPK12RsScriptCall
_ZN7android12renderscript16RsdCpuScriptImpl24setGlobalVarWithElemDimsEjPKvmPKNS0_7ElementEPKjm
_ZN7android12renderscript16RsdCpuScriptImpl4initEPKcS3_PKhmjS3_
_ZN7android12renderscript16RsdCpuScriptImpl9preLaunchEjPPKNS0_10AllocationEjPS2_PKvjPK12RsScriptCall
_ZN7android12renderscript16RsdCpuScriptImplC1EPNS0_19RsdCpuReferenceImplEPKNS0_6ScriptE
_ZN7android12renderscript16RsdCpuScriptImplC2EPNS0_19RsdCpuReferenceImplEPKNS0_6ScriptE
_ZN7android12renderscript16RsdCpuScriptImplD0Ev
_ZN7android12renderscript16RsdCpuScriptImplD1Ev
_ZN7android12renderscript16RsdCpuScriptImplD2Ev
_ZN7android12renderscript16ScriptExecutable22createFromSharedObjectEPvj
_ZN7android12renderscript16rsdIntrinsic_LUTEPNS0_19RsdCpuReferenceImplEPKNS0_6ScriptEPKNS0_7ElementE
_ZN7android12renderscript17rsdIntrinsic_BLASEPNS0_19RsdCpuReferenceImplEPKNS0_6ScriptEPKNS0_7ElementE
_ZN7android12renderscript17rsdIntrinsic_BlurEPNS0_19RsdCpuReferenceImplEPKNS0_6ScriptEPKNS0_7ElementE
_ZN7android12renderscript18CpuScriptGroupImpl15scriptGroupRootEPK24RsExpandKernelDriverInfojjj
_ZN7android12renderscript18CpuScriptGroupImpl4initEv
_ZN7android12renderscript18CpuScriptGroupImpl7executeEv
_ZN7android12renderscript18CpuScriptGroupImpl8setInputEPKNS0_14ScriptKernelIDEPNS0_10AllocationE
_ZN7android12renderscript18CpuScriptGroupImpl9setOutputEPKNS0_14ScriptKernelIDEPNS0_10AllocationE
_ZN7android12renderscript18CpuScriptGroupImplC1EPNS0_19RsdCpuReferenceImplEPKNS0_15ScriptGroupBaseE
_ZN7android12renderscript18CpuScriptGroupImplC2EPNS0_19RsdCpuReferenceImplEPKNS0_15ScriptGroupBaseE
_ZN7android12renderscript18CpuScriptGroupImplD0Ev
_ZN7android12renderscript18CpuScriptGroupImplD1Ev
_ZN7android12renderscript18CpuScriptGroupImplD2Ev
_ZN7android12renderscript18SharedLibraryUtils11LD_EXE_PATHE
_ZN7android12renderscript18SharedLibraryUtils12RS_CACHE_DIRE
_ZN7android12renderscript18SharedLibraryUtils12loadSOHelperEPKcS3_S3_Pb
_ZN7android12renderscript18SharedLibraryUtils15getRandomStringEm
_ZN7android12renderscript18SharedLibraryUtils17loadSharedLibraryEPKcS3_S3_Pb
_ZN7android12renderscript18SharedLibraryUtils19createSharedLibraryEPKcS3_S3_bPNSt3__112basic_stringIcNS4_11char_traitsIcEENS4_9allocatorIcEEEE
_ZN7android12renderscript18SharedLibraryUtils26loadAndDeleteSharedLibraryEPKc
_ZN7android12renderscript18rsdIntrinsic_3DLUTEPNS0_19RsdCpuReferenceImplEPKNS0_6ScriptEPKNS0_7ElementE
_ZN7android12renderscript18rsdIntrinsic_BlendEPNS0_19RsdCpuReferenceImplEPKNS0_6ScriptEPKNS0_7ElementE
_ZN7android12renderscript19CpuScriptGroup2Impl7compileEPKc
_ZN7android12renderscript19CpuScriptGroup2Impl7executeEv
_ZN7android12renderscript19CpuScriptGroup2ImplC1EPNS0_19RsdCpuReferenceImplEPKNS0_15ScriptGroupBaseE
_ZN7android12renderscript19CpuScriptGroup2ImplC2EPNS0_19RsdCpuReferenceImplEPKNS0_15ScriptGroupBaseE
_ZN7android12renderscript19CpuScriptGroup2ImplD0Ev
_ZN7android12renderscript19CpuScriptGroup2ImplD1Ev
_ZN7android12renderscript19CpuScriptGroup2ImplD2Ev
_ZN7android12renderscript19RsdCpuReferenceImpl11setPriorityEi
_ZN7android12renderscript19RsdCpuReferenceImpl11unlockMutexEv
_ZN7android12renderscript19RsdCpuReferenceImpl12createScriptEPKNS0_7ScriptCEPKcS6_PKhmj
_ZN7android12renderscript19RsdCpuReferenceImpl12launchReduceEPPKNS0_10AllocationEjPS2_PNS0_20MTLaunchStructReduceE
_ZN7android12renderscript19RsdCpuReferenceImpl13launchForEachEPPKNS0_10AllocationEjPS2_PK12RsScriptCallPNS0_21MTLaunchStructForEachE
_ZN7android12renderscript19RsdCpuReferenceImpl13launchThreadsEPFvPvjES2_
_ZN7android12renderscript19RsdCpuReferenceImpl15createIntrinsicEPKNS0_6ScriptE19RsScriptIntrinsicIDPNS0_7ElementE
_ZN7android12renderscript19RsdCpuReferenceImpl16helperThreadProcEPv
_ZN7android12renderscript19RsdCpuReferenceImpl17createScriptGroupEPKNS0_15ScriptGroupBaseE
_ZN7android12renderscript19RsdCpuReferenceImpl18launchReduceSerialEPPKNS0_10AllocationEjPS2_PNS0_20MTLaunchStructReduceE
_ZN7android12renderscript19RsdCpuReferenceImpl20launchReduceParallelEPPKNS0_10AllocationEjPS2_PNS0_20MTLaunchStructReduceE
_ZN7android12renderscript19RsdCpuReferenceImpl4initEjjPFPKNS0_15RsdCpuReference9CpuSymbolEPNS0_7ContextEPKcEPFPNS2_9CpuScriptES7_PKNS0_6ScriptEE
_ZN7android12renderscript19RsdCpuReferenceImpl6setTLSEPNS0_16RsdCpuScriptImplE
_ZN7android12renderscript19RsdCpuReferenceImpl9lockMutexEv
_ZN7android12renderscript19RsdCpuReferenceImpl9symLookupEPKc
_ZN7android12renderscript19RsdCpuReferenceImplC1EPNS0_7ContextE
_ZN7android12renderscript19RsdCpuReferenceImplC2EPNS0_7ContextE
_ZN7android12renderscript19RsdCpuReferenceImplD0Ev
_ZN7android12renderscript19RsdCpuReferenceImplD1Ev
_ZN7android12renderscript19RsdCpuReferenceImplD2Ev
_ZN7android12renderscript19rsdIntrinsic_ResizeEPNS0_19RsdCpuReferenceImplEPKNS0_6ScriptEPKNS0_7ElementE
_ZN7android12renderscript21RsdCpuScriptIntrinsic10invokeInitEv
_ZN7android12renderscript21RsdCpuScriptIntrinsic10invokeRootEv
_ZN7android12renderscript21RsdCpuScriptIntrinsic10postLaunchEjPPKNS0_10AllocationEjPS2_PKvjPK12RsScriptCall
_ZN7android12renderscript21RsdCpuScriptIntrinsic12setGlobalObjEjPNS0_10ObjectBaseE
_ZN7android12renderscript21RsdCpuScriptIntrinsic12setGlobalVarEjPKvm
_ZN7android12renderscript21RsdCpuScriptIntrinsic13invokeForEachEjPPKNS0_10AllocationEjPS2_PKvjPK12RsScriptCall
_ZN7android12renderscript21RsdCpuScriptIntrinsic13setGlobalBindEjPNS0_10AllocationE
_ZN7android12renderscript21RsdCpuScriptIntrinsic14invokeFunctionEjPKvm
_ZN7android12renderscript21RsdCpuScriptIntrinsic18forEachKernelSetupEjPNS0_21MTLaunchStructForEachE
_ZN7android12renderscript21RsdCpuScriptIntrinsic18invokeFreeChildrenEv
_ZN7android12renderscript21RsdCpuScriptIntrinsic24setGlobalVarWithElemDimsEjPKvmPKNS0_7ElementEPKjm
_ZN7android12renderscript21RsdCpuScriptIntrinsic9preLaunchEjPPKNS0_10AllocationEjPS2_PKvjPK12RsScriptCall
_ZN7android12renderscript21RsdCpuScriptIntrinsicC2EPNS0_19RsdCpuReferenceImplEPKNS0_6ScriptEPKNS0_7ElementE19RsScriptIntrinsicID
_ZN7android12renderscript21RsdCpuScriptIntrinsicD0Ev
_ZN7android12renderscript21RsdCpuScriptIntrinsicD1Ev
_ZN7android12renderscript21RsdCpuScriptIntrinsicD2Ev
_ZN7android12renderscript21rsdIntrinsic_YuvToRGBEPNS0_19RsdCpuReferenceImplEPKNS0_6ScriptEPKNS0_7ElementE
_ZN7android12renderscript22constructBuildChecksumEPKhmPKcPS4_m
_ZN7android12renderscript22rsdIntrinsic_HistogramEPNS0_19RsdCpuReferenceImplEPKNS0_6ScriptEPKNS0_7ElementE
_ZN7android12renderscript24RsdCpuScriptIntrinsicLUT12setGlobalObjEjPNS0_10ObjectBaseE
_ZN7android12renderscript24RsdCpuScriptIntrinsicLUT14populateScriptEPNS0_6ScriptE
_ZN7android12renderscript24RsdCpuScriptIntrinsicLUT18invokeFreeChildrenEv
_ZN7android12renderscript24RsdCpuScriptIntrinsicLUT6kernelEPK24RsExpandKernelDriverInfojjj
_ZN7android12renderscript24RsdCpuScriptIntrinsicLUTC1EPNS0_19RsdCpuReferenceImplEPKNS0_6ScriptEPKNS0_7ElementE
_ZN7android12renderscript24RsdCpuScriptIntrinsicLUTC2EPNS0_19RsdCpuReferenceImplEPKNS0_6ScriptEPKNS0_7ElementE
_ZN7android12renderscript24RsdCpuScriptIntrinsicLUTD0Ev
_ZN7android12renderscript24RsdCpuScriptIntrinsicLUTD1Ev
_ZN7android12renderscript24RsdCpuScriptIntrinsicLUTD2Ev
_ZN7android12renderscript24rsdIntrinsic_ColorMatrixEPNS0_19RsdCpuReferenceImplEPKNS0_6ScriptEPKNS0_7ElementE
_ZN7android12renderscript24rsdIntrinsic_Convolve3x3EPNS0_19RsdCpuReferenceImplEPKNS0_6ScriptEPKNS0_7ElementE
_ZN7android12renderscript24rsdIntrinsic_Convolve5x5EPNS0_19RsdCpuReferenceImplEPKNS0_6ScriptEPKNS0_7ElementE
_ZN7android12renderscript25RsdCpuScriptIntrinsicBLAS10kernelBNNMEmmmPKhhmS3_hmPhimi
_ZN7android12renderscript25RsdCpuScriptIntrinsicBLAS13invokeForEachEjPPKNS0_10AllocationEjPS2_PKvjPK12RsScriptCall
_ZN7android12renderscript25RsdCpuScriptIntrinsicBLAS14populateScriptEPNS0_6ScriptE
_ZN7android12renderscript25RsdCpuScriptIntrinsicBLASC1EPNS0_19RsdCpuReferenceImplEPKNS0_6ScriptE
_ZN7android12renderscript25RsdCpuScriptIntrinsicBLASC2EPNS0_19RsdCpuReferenceImplEPKNS0_6ScriptE
_ZN7android12renderscript25RsdCpuScriptIntrinsicBLASD0Ev
_ZN7android12renderscript25RsdCpuScriptIntrinsicBLASD1Ev
_ZN7android12renderscript25RsdCpuScriptIntrinsicBLASD2Ev
_ZN7android12renderscript25RsdCpuScriptIntrinsicBlur12setGlobalObjEjPNS0_10ObjectBaseE
_ZN7android12renderscript25RsdCpuScriptIntrinsicBlur12setGlobalVarEjPKvm
_ZN7android12renderscript25RsdCpuScriptIntrinsicBlur14populateScriptEPNS0_6ScriptE
_ZN7android12renderscript25RsdCpuScriptIntrinsicBlur18invokeFreeChildrenEv
_ZN7android12renderscript25RsdCpuScriptIntrinsicBlur22ComputeGaussianWeightsEv
_ZN7android12renderscript25RsdCpuScriptIntrinsicBlur8kernelU1EPK24RsExpandKernelDriverInfojjj
_ZN7android12renderscript25RsdCpuScriptIntrinsicBlur8kernelU4EPK24RsExpandKernelDriverInfojjj
_ZN7android12renderscript25RsdCpuScriptIntrinsicBlurC1EPNS0_19RsdCpuReferenceImplEPKNS0_6ScriptEPKNS0_7ElementE
_ZN7android12renderscript25RsdCpuScriptIntrinsicBlurC2EPNS0_19RsdCpuReferenceImplEPKNS0_6ScriptEPKNS0_7ElementE
_ZN7android12renderscript25RsdCpuScriptIntrinsicBlurD0Ev
_ZN7android12renderscript25RsdCpuScriptIntrinsicBlurD1Ev
_ZN7android12renderscript25RsdCpuScriptIntrinsicBlurD2Ev
_ZN7android12renderscript26RsdCpuScriptIntrinsic3DLUT12setGlobalObjEjPNS0_10ObjectBaseE
_ZN7android12renderscript26RsdCpuScriptIntrinsic3DLUT14populateScriptEPNS0_6ScriptE
_ZN7android12renderscript26RsdCpuScriptIntrinsic3DLUT18invokeFreeChildrenEv
_ZN7android12renderscript26RsdCpuScriptIntrinsic3DLUT6kernelEPK24RsExpandKernelDriverInfojjj
_ZN7android12renderscript26RsdCpuScriptIntrinsic3DLUTC1EPNS0_19RsdCpuReferenceImplEPKNS0_6ScriptEPKNS0_7ElementE
_ZN7android12renderscript26RsdCpuScriptIntrinsic3DLUTC2EPNS0_19RsdCpuReferenceImplEPKNS0_6ScriptEPKNS0_7ElementE
_ZN7android12renderscript26RsdCpuScriptIntrinsic3DLUTD0Ev
_ZN7android12renderscript26RsdCpuScriptIntrinsic3DLUTD1Ev
_ZN7android12renderscript26RsdCpuScriptIntrinsic3DLUTD2Ev
_ZN7android12renderscript26RsdCpuScriptIntrinsicBlend14populateScriptEPNS0_6ScriptE
_ZN7android12renderscript26RsdCpuScriptIntrinsicBlend6kernelEPK24RsExpandKernelDriverInfojjj
_ZN7android12renderscript26RsdCpuScriptIntrinsicBlendC1EPNS0_19RsdCpuReferenceImplEPKNS0_6ScriptEPKNS0_7ElementE
_ZN7android12renderscript26RsdCpuScriptIntrinsicBlendC2EPNS0_19RsdCpuReferenceImplEPKNS0_6ScriptEPKNS0_7ElementE
_ZN7android12renderscript26RsdCpuScriptIntrinsicBlendD0Ev
_ZN7android12renderscript26RsdCpuScriptIntrinsicBlendD1Ev
_ZN7android12renderscript26RsdCpuScriptIntrinsicBlendD2Ev
_ZN7android12renderscript27RsdCpuScriptIntrinsicResize12setGlobalObjEjPNS0_10ObjectBaseE
_ZN7android12renderscript27RsdCpuScriptIntrinsicResize14populateScriptEPNS0_6ScriptE
_ZN7android12renderscript27RsdCpuScriptIntrinsicResize18invokeFreeChildrenEv
_ZN7android12renderscript27RsdCpuScriptIntrinsicResize8kernelF1EPK24RsExpandKernelDriverInfojjj
_ZN7android12renderscript27RsdCpuScriptIntrinsicResize8kernelF2EPK24RsExpandKernelDriverInfojjj
_ZN7android12renderscript27RsdCpuScriptIntrinsicResize8kernelF4EPK24RsExpandKernelDriverInfojjj
_ZN7android12renderscript27RsdCpuScriptIntrinsicResize8kernelU1EPK24RsExpandKernelDriverInfojjj
_ZN7android12renderscript27RsdCpuScriptIntrinsicResize8kernelU2EPK24RsExpandKernelDriverInfojjj
_ZN7android12renderscript27RsdCpuScriptIntrinsicResize8kernelU4EPK24RsExpandKernelDriverInfojjj
_ZN7android12renderscript27RsdCpuScriptIntrinsicResize9preLaunchEjPPKNS0_10AllocationEjPS2_PKvjPK12RsScriptCall
_ZN7android12renderscript27RsdCpuScriptIntrinsicResizeC1EPNS0_19RsdCpuReferenceImplEPKNS0_6ScriptEPKNS0_7ElementE
_ZN7android12renderscript27RsdCpuScriptIntrinsicResizeC2EPNS0_19RsdCpuReferenceImplEPKNS0_6ScriptEPKNS0_7ElementE
_ZN7android12renderscript27RsdCpuScriptIntrinsicResizeD0Ev
_ZN7android12renderscript27RsdCpuScriptIntrinsicResizeD1Ev
_ZN7android12renderscript27RsdCpuScriptIntrinsicResizeD2Ev
_ZN7android12renderscript29RsdCpuScriptIntrinsicYuvToRGB12setGlobalObjEjPNS0_10ObjectBaseE
_ZN7android12renderscript29RsdCpuScriptIntrinsicYuvToRGB14populateScriptEPNS0_6ScriptE
_ZN7android12renderscript29RsdCpuScriptIntrinsicYuvToRGB18invokeFreeChildrenEv
_ZN7android12renderscript29RsdCpuScriptIntrinsicYuvToRGB6kernelEPK24RsExpandKernelDriverInfojjj
_ZN7android12renderscript29RsdCpuScriptIntrinsicYuvToRGBC1EPNS0_19RsdCpuReferenceImplEPKNS0_6ScriptEPKNS0_7ElementE
_ZN7android12renderscript29RsdCpuScriptIntrinsicYuvToRGBC2EPNS0_19RsdCpuReferenceImplEPKNS0_6ScriptEPKNS0_7ElementE
_ZN7android12renderscript29RsdCpuScriptIntrinsicYuvToRGBD0Ev
_ZN7android12renderscript29RsdCpuScriptIntrinsicYuvToRGBD1Ev
_ZN7android12renderscript29RsdCpuScriptIntrinsicYuvToRGBD2Ev
_ZN7android12renderscript30RsdCpuScriptIntrinsicHistogram10kernelP1L1EPK24RsExpandKernelDriverInfojjj
_ZN7android12renderscript30RsdCpuScriptIntrinsicHistogram10kernelP1L2EPK24RsExpandKernelDriverInfojjj
_ZN7android12renderscript30RsdCpuScriptIntrinsicHistogram10kernelP1L3EPK24RsExpandKernelDriverInfojjj
_ZN7android12renderscript30RsdCpuScriptIntrinsicHistogram10kernelP1L4EPK24RsExpandKernelDriverInfojjj
_ZN7android12renderscript30RsdCpuScriptIntrinsicHistogram10kernelP1U1EPK24RsExpandKernelDriverInfojjj
_ZN7android12renderscript30RsdCpuScriptIntrinsicHistogram10kernelP1U2EPK24RsExpandKernelDriverInfojjj
_ZN7android12renderscript30RsdCpuScriptIntrinsicHistogram10kernelP1U3EPK24RsExpandKernelDriverInfojjj
_ZN7android12renderscript30RsdCpuScriptIntrinsicHistogram10kernelP1U4EPK24RsExpandKernelDriverInfojjj
_ZN7android12renderscript30RsdCpuScriptIntrinsicHistogram10postLaunchEjPPKNS0_10AllocationEjPS2_PKvjPK12RsScriptCall
_ZN7android12renderscript30RsdCpuScriptIntrinsicHistogram12setGlobalObjEjPNS0_10ObjectBaseE
_ZN7android12renderscript30RsdCpuScriptIntrinsicHistogram12setGlobalVarEjPKvm
_ZN7android12renderscript30RsdCpuScriptIntrinsicHistogram14populateScriptEPNS0_6ScriptE
_ZN7android12renderscript30RsdCpuScriptIntrinsicHistogram18invokeFreeChildrenEv
_ZN7android12renderscript30RsdCpuScriptIntrinsicHistogram9preLaunchEjPPKNS0_10AllocationEjPS2_PKvjPK12RsScriptCall
_ZN7android12renderscript30RsdCpuScriptIntrinsicHistogramC1EPNS0_19RsdCpuReferenceImplEPKNS0_6ScriptEPKNS0_7ElementE
_ZN7android12renderscript30RsdCpuScriptIntrinsicHistogramC2EPNS0_19RsdCpuReferenceImplEPKNS0_6ScriptEPKNS0_7ElementE
_ZN7android12renderscript30RsdCpuScriptIntrinsicHistogramD0Ev
_ZN7android12renderscript30RsdCpuScriptIntrinsicHistogramD1Ev
_ZN7android12renderscript30RsdCpuScriptIntrinsicHistogramD2Ev
_ZN7android12renderscript32RsdCpuScriptIntrinsicColorMatrix10computeKeyEPKNS0_7ElementES4_
_ZN7android12renderscript32RsdCpuScriptIntrinsicColorMatrix12setGlobalVarEjPKvm
_ZN7android12renderscript32RsdCpuScriptIntrinsicColorMatrix14populateScriptEPNS0_6ScriptE
_ZN7android12renderscript32RsdCpuScriptIntrinsicColorMatrix16updateCoeffCacheEff
_ZN7android12renderscript32RsdCpuScriptIntrinsicColorMatrix5buildENS0_5Key_tE
_ZN7android12renderscript32RsdCpuScriptIntrinsicColorMatrix6kernelEPK24RsExpandKernelDriverInfojjj
_ZN7android12renderscript32RsdCpuScriptIntrinsicColorMatrix9preLaunchEjPPKNS0_10AllocationEjPS2_PKvjPK12RsScriptCall
_ZN7android12renderscript32RsdCpuScriptIntrinsicColorMatrixC1EPNS0_19RsdCpuReferenceImplEPKNS0_6ScriptEPKNS0_7ElementE
_ZN7android12renderscript32RsdCpuScriptIntrinsicColorMatrixC2EPNS0_19RsdCpuReferenceImplEPKNS0_6ScriptEPKNS0_7ElementE
_ZN7android12renderscript32RsdCpuScriptIntrinsicColorMatrixD0Ev
_ZN7android12renderscript32RsdCpuScriptIntrinsicColorMatrixD1Ev
_ZN7android12renderscript32RsdCpuScriptIntrinsicColorMatrixD2Ev
_ZN7android12renderscript32RsdCpuScriptIntrinsicConvolve3x312setGlobalObjEjPNS0_10ObjectBaseE
_ZN7android12renderscript32RsdCpuScriptIntrinsicConvolve3x312setGlobalVarEjPKvm
_ZN7android12renderscript32RsdCpuScriptIntrinsicConvolve3x314populateScriptEPNS0_6ScriptE
_ZN7android12renderscript32RsdCpuScriptIntrinsicConvolve3x318invokeFreeChildrenEv
_ZN7android12renderscript32RsdCpuScriptIntrinsicConvolve3x38kernelF1EPK24RsExpandKernelDriverInfojjj
_ZN7android12renderscript32RsdCpuScriptIntrinsicConvolve3x38kernelF2EPK24RsExpandKernelDriverInfojjj
_ZN7android12renderscript32RsdCpuScriptIntrinsicConvolve3x38kernelF4EPK24RsExpandKernelDriverInfojjj
_ZN7android12renderscript32RsdCpuScriptIntrinsicConvolve3x38kernelU1EPK24RsExpandKernelDriverInfojjj
_ZN7android12renderscript32RsdCpuScriptIntrinsicConvolve3x38kernelU2EPK24RsExpandKernelDriverInfojjj
_ZN7android12renderscript32RsdCpuScriptIntrinsicConvolve3x38kernelU4EPK24RsExpandKernelDriverInfojjj
_ZN7android12renderscript32RsdCpuScriptIntrinsicConvolve3x3C1EPNS0_19RsdCpuReferenceImplEPKNS0_6ScriptEPKNS0_7ElementE
_ZN7android12renderscript32RsdCpuScriptIntrinsicConvolve3x3C2EPNS0_19RsdCpuReferenceImplEPKNS0_6ScriptEPKNS0_7ElementE
_ZN7android12renderscript32RsdCpuScriptIntrinsicConvolve3x3D0Ev
_ZN7android12renderscript32RsdCpuScriptIntrinsicConvolve3x3D1Ev
_ZN7android12renderscript32RsdCpuScriptIntrinsicConvolve3x3D2Ev
_ZN7android12renderscript32RsdCpuScriptIntrinsicConvolve5x512setGlobalObjEjPNS0_10ObjectBaseE
_ZN7android12renderscript32RsdCpuScriptIntrinsicConvolve5x512setGlobalVarEjPKvm
_ZN7android12renderscript32RsdCpuScriptIntrinsicConvolve5x514populateScriptEPNS0_6ScriptE
_ZN7android12renderscript32RsdCpuScriptIntrinsicConvolve5x518invokeFreeChildrenEv
_ZN7android12renderscript32RsdCpuScriptIntrinsicConvolve5x58kernelF1EPK24RsExpandKernelDriverInfojjj
_ZN7android12renderscript32RsdCpuScriptIntrinsicConvolve5x58kernelF2EPK24RsExpandKernelDriverInfojjj
_ZN7android12renderscript32RsdCpuScriptIntrinsicConvolve5x58kernelF4EPK24RsExpandKernelDriverInfojjj
_ZN7android12renderscript32RsdCpuScriptIntrinsicConvolve5x58kernelU1EPK24RsExpandKernelDriverInfojjj
_ZN7android12renderscript32RsdCpuScriptIntrinsicConvolve5x58kernelU2EPK24RsExpandKernelDriverInfojjj
_ZN7android12renderscript32RsdCpuScriptIntrinsicConvolve5x58kernelU4EPK24RsExpandKernelDriverInfojjj
_ZN7android12renderscript32RsdCpuScriptIntrinsicConvolve5x5C1EPNS0_19RsdCpuReferenceImplEPKNS0_6ScriptEPKNS0_7ElementE
_ZN7android12renderscript32RsdCpuScriptIntrinsicConvolve5x5C2EPNS0_19RsdCpuReferenceImplEPKNS0_6ScriptEPKNS0_7ElementE
_ZN7android12renderscript32RsdCpuScriptIntrinsicConvolve5x5D0Ev
_ZN7android12renderscript32RsdCpuScriptIntrinsicConvolve5x5D1Ev
_ZN7android12renderscript32RsdCpuScriptIntrinsicConvolve5x5D2Ev
_ZN7android12renderscript5Batch14resolveFuncPtrEPv
_ZN7android12renderscript5Batch18setGlobalsForBatchEv
_ZN7android12renderscript5Batch3runEv
_ZN7android12renderscript5BatchC1EPNS0_19CpuScriptGroup2ImplEPKc
_ZN7android12renderscript5BatchC2EPNS0_19CpuScriptGroup2ImplEPKc
_ZN7android12renderscript5BatchD1Ev
_ZN7android12renderscript5BatchD2Ev
_ZN8gemmlowp18eight_bit_int_gemm15EightBitIntGemmEbbbiiiPKhiiS2_iiPffiNS0_15BitDepthSettingE
_ZN8gemmlowp18eight_bit_int_gemm15EightBitIntGemmEbbbiiiPKhiiS2_iiPhiiiiNS0_15BitDepthSettingE
_ZN8gemmlowp18eight_bit_int_gemm16SetMaxNumThreadsEi
_ZN8gemmlowp18eight_bit_int_gemm23FreePersistentResourcesEv
_ZNK7android12renderscript16RsdCpuScriptImpl12getFieldNameEj
_ZNK7android12renderscript16RsdCpuScriptImpl13getGlobalNameEi
_ZNK7android12renderscript16RsdCpuScriptImpl13getGlobalSizeEi
_ZNK7android12renderscript16RsdCpuScriptImpl16getGlobalAddressEi
_ZNK7android12renderscript16RsdCpuScriptImpl16getGlobalEntriesEv
_ZNK7android12renderscript16RsdCpuScriptImpl19getGlobalPropertiesEi
_ZNK7android12renderscript16RsdCpuScriptImpl23getAllocationForPointerEPKv
_ZNK7android12renderscript16ScriptExecutable14dumpGlobalInfoEv
_ZNK7android12renderscript16ScriptExecutable15getFieldAddressEPKc
_ZNK7android12renderscript5Batch8conflictEPNS0_10CPUClosureE
_ZTVN7android12renderscript15RsdCpuReferenceE
_ZTVN7android12renderscript16RsdCpuScriptImplE
_ZTVN7android12renderscript18CpuScriptGroupImplE
_ZTVN7android12renderscript19CpuScriptGroup2ImplE
_ZTVN7android12renderscript19RsdCpuReferenceImplE
_ZTVN7android12renderscript21RsdCpuScriptIntrinsicE
_ZTVN7android12renderscript24RsdCpuScriptIntrinsicLUTE
_ZTVN7android12renderscript25RsdCpuScriptIntrinsicBLASE
_ZTVN7android12renderscript25RsdCpuScriptIntrinsicBlurE
_ZTVN7android12renderscript26RsdCpuScriptIntrinsic3DLUTE
_ZTVN7android12renderscript26RsdCpuScriptIntrinsicBlendE
_ZTVN7android12renderscript27RsdCpuScriptIntrinsicResizeE
_ZTVN7android12renderscript29RsdCpuScriptIntrinsicYuvToRGBE
_ZTVN7android12renderscript30RsdCpuScriptIntrinsicHistogramE
_ZTVN7android12renderscript32RsdCpuScriptIntrinsicColorMatrixE
_ZTVN7android12renderscript32RsdCpuScriptIntrinsicConvolve3x3E
_ZTVN7android12renderscript32RsdCpuScriptIntrinsicConvolve5x5E
rsdIntrinsicConvolve3x3_K
rsdIntrinsicConvolve5x5_K
