
Discarded input sections

 .data          0x0000000000000000        0x0 arch/arm/cpu/armv8/start.o
 .bss           0x0000000000000000        0x0 arch/arm/cpu/armv8/start.o
 .text.set_pgtable_section
                0x0000000000000000       0x14 arch/arm/cpu/armv8/built-in.o
 .text.get_board_id
                0x0000000000000000       0x14 arch/arm/cpu/armv8/built-in.o
 .text.clk_util_ring_msr
                0x0000000000000000      0x100 arch/arm/cpu/armv8/built-in.o
 .text.ring_powerinit
                0x0000000000000000       0x2c arch/arm/cpu/armv8/built-in.o
 .text.board_usb_stop
                0x0000000000000000       0x24 arch/arm/cpu/armv8/built-in.o
 .text.meson_trustzone_efuse_writepattern
                0x0000000000000000       0x48 arch/arm/cpu/armv8/built-in.o
 .text.meson_trustzone_efuse_check
                0x0000000000000000       0x3c arch/arm/cpu/armv8/built-in.o
 .text.debug_efuse_cmd
                0x0000000000000000        0x8 arch/arm/cpu/armv8/built-in.o
 .text.bl31_debug_efuse_write_pattern
                0x0000000000000000       0x60 arch/arm/cpu/armv8/built-in.o
 .text.bl31_debug_efuse_read_pattern
                0x0000000000000000       0x64 arch/arm/cpu/armv8/built-in.o
 .text.aml_get_reboot_reason
                0x0000000000000000       0x10 arch/arm/cpu/armv8/built-in.o
 .text.aml_set_reboot_reason
                0x0000000000000000        0x8 arch/arm/cpu/armv8/built-in.o
 .text.watchdog_init
                0x0000000000000000       0x4c arch/arm/cpu/armv8/built-in.o
 .text.watchdog_reset
                0x0000000000000000       0x10 arch/arm/cpu/armv8/built-in.o
 .text.watchdog_disable
                0x0000000000000000       0x24 arch/arm/cpu/armv8/built-in.o
 .text.hdmitx_poll_reg
                0x0000000000000000       0x5c arch/arm/cpu/armv8/built-in.o
 .text.hdmitx_set_hdr10plus_pkt
                0x0000000000000000      0x174 arch/arm/cpu/armv8/built-in.o
 .text.send_usr_data
                0x0000000000000000       0x94 arch/arm/cpu/armv8/built-in.o
 .text.thermal_get_value
                0x0000000000000000       0x80 arch/arm/cpu/armv8/built-in.o
 .text.send_pwm_delt
                0x0000000000000000       0x68 arch/arm/cpu/armv8/built-in.o
 .text._get_time
                0x0000000000000000       0x10 arch/arm/cpu/armv8/built-in.o
 .text._udelay_
                0x0000000000000000       0x28 arch/arm/cpu/armv8/built-in.o
 .text.aml_delt_get
                0x0000000000000000       0x70 arch/arm/cpu/armv8/built-in.o
 .text.aml_set_voltage
                0x0000000000000000       0xe0 arch/arm/cpu/armv8/built-in.o
 .text.aml_cal_pwm
                0x0000000000000000       0x8c arch/arm/cpu/armv8/built-in.o
 .text.aml_pwm_cal_init
                0x0000000000000000       0x2c arch/arm/cpu/armv8/built-in.o
 .data          0x0000000000000000        0x0 arch/arm/cpu/armv8/built-in.o
 .bss           0x0000000000000000        0x0 arch/arm/cpu/armv8/built-in.o
 .text.setup_board_tags
                0x0000000000000000        0x4 arch/arm/lib/built-in.o
 .text.flush_cache
                0x0000000000000000        0x4 arch/arm/lib/built-in.o
 .text.flush_dcache_all
                0x0000000000000000        0xc arch/arm/lib/built-in.o
 .text.enable_caches
                0x0000000000000000        0xc arch/arm/lib/built-in.o
 .data          0x0000000000000000        0x0 arch/arm/lib/built-in.o
 .__secure_start
                0x0000000000000000        0x0 arch/arm/lib/built-in.o
 .__end         0x0000000000000000        0x0 arch/arm/lib/built-in.o
 .__secure_end  0x0000000000000000        0x0 arch/arm/lib/built-in.o
 .bss           0x0000000000000000        0x0 arch/arm/lib/built-in.o
 .text          0x0000000000000000        0x0 board/amlogic/sm1_ac214_v1/built-in.o
 .text.internalPhyConfig
                0x0000000000000000        0x4 board/amlogic/sm1_ac214_v1/built-in.o
 .text.eth_board_setup
                0x0000000000000000       0x84 board/amlogic/sm1_ac214_v1/built-in.o
 .data          0x0000000000000000        0x0 board/amlogic/sm1_ac214_v1/built-in.o
 .bss           0x0000000000000000        0x0 board/amlogic/sm1_ac214_v1/built-in.o
 .bss.eth_board_skt
                0x0000000000000000        0x8 board/amlogic/sm1_ac214_v1/built-in.o
 .text          0x0000000000000000        0x0 common/built-in.o
 .text.hash_block
                0x0000000000000000       0x78 common/built-in.o
 .text.unset_local_var
                0x0000000000000000       0xc0 common/built-in.o
 .text.coloured_LED_init
                0x0000000000000000        0x4 common/built-in.o
 .text.red_led_on
                0x0000000000000000        0x4 common/built-in.o
 .text.red_led_off
                0x0000000000000000        0x4 common/built-in.o
 .text.green_led_on
                0x0000000000000000        0x4 common/built-in.o
 .text.green_led_off
                0x0000000000000000        0x4 common/built-in.o
 .text.yellow_led_on
                0x0000000000000000        0x4 common/built-in.o
 .text.yellow_led_off
                0x0000000000000000        0x4 common/built-in.o
 .text.blue_led_on
                0x0000000000000000        0x4 common/built-in.o
 .text.blue_led_off
                0x0000000000000000        0x4 common/built-in.o
 .text.board_flash_wp_on
                0x0000000000000000        0x8 common/built-in.o
 .text.fixup_cpu
                0x0000000000000000        0x8 common/built-in.o
 .text.get_partitions_table
                0x0000000000000000       0x34 common/built-in.o
 .text.env_flags_parse_varaccess_from_binflags
                0x0000000000000000       0x2c common/built-in.o
 .text.mmc_env_init
                0x0000000000000000       0x1c common/built-in.o
 .text.amlnand_env_int
                0x0000000000000000       0x1c common/built-in.o
 .text.gunzip_bmp
                0x0000000000000000        0x8 common/built-in.o
 .text.invalidate_icache_all
                0x0000000000000000        0xc common/built-in.o
 .text.flush_dcache_all
                0x0000000000000000        0xc common/built-in.o
 .text.get_source_key
                0x0000000000000000        0x4 common/built-in.o
 .text.of_bus_default_map
                0x0000000000000000       0x94 common/built-in.o
 .text.fdt_read_prop
                0x0000000000000000       0x48 common/built-in.o
 .text.of_bus_default_count_cells
                0x0000000000000000       0x74 common/built-in.o
 .text.of_bus_default_translate
                0x0000000000000000       0xb0 common/built-in.o
 .text.fdt_getprop_u32_default_node
                0x0000000000000000       0x50 common/built-in.o
 .text.fdt_getprop_u32_default
                0x0000000000000000       0x6c common/built-in.o
 .text.do_fixup_by_path_u32
                0x0000000000000000       0x28 common/built-in.o
 .text.do_fixup_by_prop
                0x0000000000000000       0xbc common/built-in.o
 .text.do_fixup_by_prop_u32
                0x0000000000000000       0x28 common/built-in.o
 .text.do_fixup_by_compat
                0x0000000000000000       0xa4 common/built-in.o
 .text.do_fixup_by_compat_u32
                0x0000000000000000       0x28 common/built-in.o
 .text.fdt_increase_size
                0x0000000000000000       0x14 common/built-in.o
 .text.fdt_del_node_and_alias
                0x0000000000000000       0x84 common/built-in.o
 .text.fdt_translate_address
                0x0000000000000000      0x270 common/built-in.o
 .text.fdt_node_offset_by_compat_reg
                0x0000000000000000       0xa0 common/built-in.o
 .text.fdt_alloc_phandle
                0x0000000000000000       0x6c common/built-in.o
 .text.fdt_set_phandle
                0x0000000000000000       0x68 common/built-in.o
 .text.fdt_create_phandle
                0x0000000000000000       0x78 common/built-in.o
 .text.fdt_set_node_status
                0x0000000000000000       0xe8 common/built-in.o
 .text.fdt_set_status_by_alias
                0x0000000000000000       0x50 common/built-in.o
 .text.fdt_verify_alias_address
                0x0000000000000000       0xe8 common/built-in.o
 .text.fdt_get_base_address
                0x0000000000000000       0x64 common/built-in.o
 .text.fdt_read_range
                0x0000000000000000      0x154 common/built-in.o
 .text.fdt_setup_simplefb_node
                0x0000000000000000      0x1f0 common/built-in.o
 .text.name_to_gpio
                0x0000000000000000       0x1c common/built-in.o
 .text.i2c_init_board
                0x0000000000000000        0x4 common/built-in.o
 .text.i2c_get_bus_speed
                0x0000000000000000        0xc common/built-in.o
 .text.i2c_set_bus_speed
                0x0000000000000000       0x14 common/built-in.o
 .text.printlist
                0x0000000000000000       0x7c common/built-in.o
 .text.GetPrimaryGeometryOffset
                0x0000000000000000        0x8 common/built-in.o
 .text.GetBackupGeometryOffset
                0x0000000000000000        0x8 common/built-in.o
 .text.GetBackupMetadataOffset
                0x0000000000000000       0x98 common/built-in.o
 .text.GetTotalMetadataSize
                0x0000000000000000       0x10 common/built-in.o
 .text.get_active_slot
                0x0000000000000000       0x14 common/built-in.o
 .text.legacy_miiphy_read
                0x0000000000000000       0x38 common/built-in.o
 .text.legacy_miiphy_write
                0x0000000000000000       0x28 common/built-in.o
 .text.miiphy_register
                0x0000000000000000      0x130 common/built-in.o
 .text.mdio_list_devices
                0x0000000000000000       0xcc common/built-in.o
 .text.miiphy_set_current_dev
                0x0000000000000000       0x44 common/built-in.o
 .text.miiphy_get_active_dev
                0x0000000000000000       0x6c common/built-in.o
 .text.mdio_get_current_dev
                0x0000000000000000       0x10 common/built-in.o
 .text.mdio_phydev_for_ethname
                0x0000000000000000       0xa0 common/built-in.o
 .text.miiphy_get_current_dev
                0x0000000000000000       0x1c common/built-in.o
 .text.miiphy_read
                0x0000000000000000       0x58 common/built-in.o
 .text.miiphy_write
                0x0000000000000000       0x50 common/built-in.o
 .text.miiphy_listdev
                0x0000000000000000       0x98 common/built-in.o
 .text.miiphy_info
                0x0000000000000000       0xa0 common/built-in.o
 .text.miiphy_speed
                0x0000000000000000       0xac common/built-in.o
 .text.miiphy_duplex
                0x0000000000000000       0xb0 common/built-in.o
 .text.miiphy_is_1000base_x
                0x0000000000000000        0x8 common/built-in.o
 .text.is_write_protect_valid
                0x0000000000000000       0x10 common/built-in.o
 .text.do_amlmmc_dtb_key
                0x0000000000000000      0x2f4 common/built-in.o
 .text.emmc_update_ept
                0x0000000000000000       0x24 common/built-in.o
 .text.device_find
                0x0000000000000000       0x4c common/built-in.o
 .text.mtd_id_parse
                0x0000000000000000      0x11c common/built-in.o
 .text.set_mtd_dev
                0x0000000000000000        0x4 common/built-in.o
 .text.get_mtd_dev
                0x0000000000000000        0xc common/built-in.o
 .text.usb_submit_int_msg
                0x0000000000000000        0x4 common/built-in.o
 .text.usb_set_protocol
                0x0000000000000000       0x50 common/built-in.o
 .text.usb_set_idle
                0x0000000000000000       0x50 common/built-in.o
 .text.usb_get_report
                0x0000000000000000       0x60 common/built-in.o
 .text.usb_get_class_descriptor
                0x0000000000000000       0x60 common/built-in.o
 .text.usb_alloc_device
                0x0000000000000000        0x8 common/built-in.o
 .text.ddr_wr_8_16bit_on_32reg.constprop.11
                0x0000000000000000       0x2c common/built-in.o
 .text.ddr_read_full.isra.1.constprop.12
                0x0000000000000000       0x70 common/built-in.o
 .text.itoa_ddr_test
                0x0000000000000000      0x184 common/built-in.o
 .text.isdigit  0x0000000000000000       0x10 common/built-in.o
 .text.a_num_to_env
                0x0000000000000000       0xa8 common/built-in.o
 .text.env_to_num
                0x0000000000000000      0x108 common/built-in.o
 .text.num_to_env
                0x0000000000000000       0xf8 common/built-in.o
 .text.read_write_window_test_parameter
                0x0000000000000000      0x14c common/built-in.o
 .text.read_write_window_test_flag
                0x0000000000000000      0x14c common/built-in.o
 .text.ddr_test_watchdog_init
                0x0000000000000000       0x48 common/built-in.o
 .text.ddr_test_watchdog_clear
                0x0000000000000000       0x1c common/built-in.o
 .text.ddr_test_watchdog_disable
                0x0000000000000000       0x24 common/built-in.o
 .text.ddr_test_watchdog_enable
                0x0000000000000000       0x6c common/built-in.o
 .text.ddr_test_s_cross_talk_pattern
                0x0000000000000000      0x418 common/built-in.o
 .text.ddr_test_s_cross_talk_pattern_quick_retrun
                0x0000000000000000      0x3e8 common/built-in.o
 .text.do_ddr2pll_cmd
                0x0000000000000000       0x18 common/built-in.o
 .text.do_test_address_bus
                0x0000000000000000      0x31c common/built-in.o
 .text.ddr_test_s_add_cross_talk_pattern
                0x0000000000000000      0x154 common/built-in.o
 .text.ddr_clk_convert_to_pll_g12a
                0x0000000000000000      0x104 common/built-in.o
 .text.pll_convert_to_ddr_clk
                0x0000000000000000        0x8 common/built-in.o
 .text.ddr_clk_convert_to_pll
                0x0000000000000000        0x8 common/built-in.o
 .text.set_ee_voltage
                0x0000000000000000       0x8c common/built-in.o
 .text.do_ddr_set_watchdog_value
                0x0000000000000000       0xd8 common/built-in.o
 .text.do_ddr_test_dqs_window_sticky
                0x0000000000000000     0x1d4c common/built-in.o
 .text.do_ddr_g12_read_write_ddr_add_window_lcdlr
                0x0000000000000000       0x90 common/built-in.o
 .text.splash_screen_prepare
                0x0000000000000000        0x8 common/built-in.o
 .text.serial_printf
                0x0000000000000000       0xd4 common/built-in.o
 .text.fputs    0x0000000000000000       0x2c common/built-in.o
 .text.fprintf  0x0000000000000000       0xd4 common/built-in.o
 .text.disable_ctrlc
                0x0000000000000000       0x18 common/built-in.o
 .text.valloc   0x0000000000000000        0xc common/built-in.o
 .text.pvalloc  0x0000000000000000       0x10 common/built-in.o
 .text.cfree    0x0000000000000000        0x4 common/built-in.o
 .text.malloc_usable_size
                0x0000000000000000       0x3c common/built-in.o
 .text.mallopt  0x0000000000000000       0x78 common/built-in.o
 .text.arch_fixup_fdt
                0x0000000000000000        0x8 common/built-in.o
 .text.fit_get_timestamp
                0x0000000000000000       0x5c common/built-in.o
 .text.fit_set_timestamp
                0x0000000000000000       0x98 common/built-in.o
 .text.fit_all_image_verify
                0x0000000000000000      0x124 common/built-in.o
 .text.fit_conf_find_compat
                0x0000000000000000      0x1cc common/built-in.o
 .text.get_ram_size
                0x0000000000000000       0xe8 common/built-in.o
 .text.get_effective_memsize
                0x0000000000000000        0x8 common/built-in.o
 .text.stdio_init
                0x0000000000000000       0x1c common/built-in.o
 .text.cli_simple_process_macros
                0x0000000000000000      0x218 common/built-in.o
 .text.cli_simple_run_command
                0x0000000000000000      0x148 common/built-in.o
 .text.cli_simple_loop
                0x0000000000000000       0x90 common/built-in.o
 .text.cli_simple_run_command_list
                0x0000000000000000       0x74 common/built-in.o
 .text.run_command_repeatable
                0x0000000000000000       0x20 common/built-in.o
 .text.hex1_bin
                0x0000000000000000       0x54 common/built-in.o
 .text.hex2_bin
                0x0000000000000000       0x48 common/built-in.o
 .text.srec_decode
                0x0000000000000000      0x244 common/built-in.o
 .text.do_get_reboot_reason
                0x0000000000000000       0x14 common/built-in.o
 .rodata.fdt_set_node_status
                0x0000000000000000        0x4 common/built-in.o
 .rodata.__FUNCTION__.6123
                0x0000000000000000       0x18 common/built-in.o
 .rodata.__FUNCTION__.6231
                0x0000000000000000       0x10 common/built-in.o
 .rodata.sha256_der_prefix_ddr
                0x0000000000000000       0x18 common/built-in.o
 .rodata.temp_for_compile
                0x0000000000000000       0x20 common/built-in.o
 .rodata.mallopt
                0x0000000000000000        0x4 common/built-in.o
 .rodata.srec_decode
                0x0000000000000000        0xc common/built-in.o
 .data          0x0000000000000000        0x0 common/built-in.o
 .data.of_busses
                0x0000000000000000       0x28 common/built-in.o
 .data.test_start_addr
                0x0000000000000000        0x4 common/built-in.o
 .data.watchdog_time_s
                0x0000000000000000        0x4 common/built-in.o
 .data.mmap_threshold
                0x0000000000000000        0x8 common/built-in.o
 .bss           0x0000000000000000        0x0 common/built-in.o
 .bss.env_ptr   0x0000000000000000        0x8 common/built-in.o
 .bss.dq_lcd_bdl_value_wdq_org_a
                0x0000000000000000       0x10 common/built-in.o
 .bss.bdlr0_9_reg_hold_time
                0x0000000000000000      0x180 common/built-in.o
 .bss.dq_lcd_bdl_value_aclcdlr_max_a
                0x0000000000000000        0x4 common/built-in.o
 .bss.dq_lcd_bdl_value_wdq_status_b
                0x0000000000000000       0x10 common/built-in.o
 .bss.dq_lcd_bdl_value_aclcdlr_max_b
                0x0000000000000000        0x4 common/built-in.o
 .bss.acbdlr0_9_reg_org
                0x0000000000000000       0x28 common/built-in.o
 .bss.g_ddr_test_struct
                0x0000000000000000        0x8 common/built-in.o
 .bss.acbdlr0_9_reg_hold_time
                0x0000000000000000       0xa0 common/built-in.o
 .bss.dq_lcd_bdl_value_rdqs_org_b
                0x0000000000000000       0x10 common/built-in.o
 .bss.dq_lcd_bdl_value_rdqs_org_a
                0x0000000000000000       0x10 common/built-in.o
 .bss.dq_lcd_bdl_value_wdq_org_b
                0x0000000000000000       0x10 common/built-in.o
 .bss.dq_lcd_bdl_value_rdqs_min_a
                0x0000000000000000       0x10 common/built-in.o
 .bss.dq_lcd_bdl_value_rdqs_min_b
                0x0000000000000000       0x10 common/built-in.o
 .bss.dq_lcd_bdl_value_bdlr0_org_a
                0x0000000000000000        0x4 common/built-in.o
 .bss.dq_lcd_bdl_value_bdlr0_max_a
                0x0000000000000000        0x4 common/built-in.o
 .bss.sticky_reg_base_add
                0x0000000000000000        0x4 common/built-in.o
 .bss.acbdlr0_9_reg_setup_time
                0x0000000000000000       0xa0 common/built-in.o
 .bss.dq_lcd_bdl_value_wdq_min_a
                0x0000000000000000       0x10 common/built-in.o
 .bss.dq_lcd_bdl_value_wdq_min_b
                0x0000000000000000       0x10 common/built-in.o
 .bss.dq_lcd_bdl_value_bdlr0_org_b
                0x0000000000000000        0x4 common/built-in.o
 .bss.dq_lcd_bdl_value_wdq_status_a
                0x0000000000000000       0x10 common/built-in.o
 .bss.acbdlr0_9_reg_setup_max
                0x0000000000000000       0xa0 common/built-in.o
 .bss.dq_lcd_bdl_value_wdq_max_a
                0x0000000000000000       0x10 common/built-in.o
 .bss.dq_lcd_bdl_value_aclcdlr_org_a
                0x0000000000000000        0x4 common/built-in.o
 .bss.dq_lcd_bdl_value_rdqs_max_b
                0x0000000000000000       0x10 common/built-in.o
 .bss.acbdlr0_9_reg_hold_max
                0x0000000000000000       0xa0 common/built-in.o
 .bss.training_pattern_flag
                0x0000000000000000        0x4 common/built-in.o
 .bss.dq_lcd_bdl_value_rdqs_status_a
                0x0000000000000000       0x10 common/built-in.o
 .bss.training_delay_t_p
                0x0000000000000000      0x208 common/built-in.o
 .bss.dq_lcd_bdl_value_rdqs_status_b
                0x0000000000000000       0x10 common/built-in.o
 .bss.bdlr0_9_reg_hold_max
                0x0000000000000000      0x180 common/built-in.o
 .bss.bdlr0_9_reg_setup_time
                0x0000000000000000      0x180 common/built-in.o
 .bss.dq_lcd_bdl_value_aclcdlr_min_a
                0x0000000000000000        0x4 common/built-in.o
 .bss.dq_lcd_bdl_value_bdlr0_max_b
                0x0000000000000000        0x4 common/built-in.o
 .bss.dq_lcd_bdl_value_aclcdlr_status_a
                0x0000000000000000        0x4 common/built-in.o
 .bss.dmc_sticky
                0x0000000000000000      0x100 common/built-in.o
 .bss.dq_lcd_bdl_value_rdqs_max_a
                0x0000000000000000       0x10 common/built-in.o
 .bss.bdlr0_9_reg_setup_max
                0x0000000000000000      0x180 common/built-in.o
 .bss.p_ddr_set_t
                0x0000000000000000      0x498 common/built-in.o
 .bss.dq_lcd_bdl_value_wdq_max_b
                0x0000000000000000       0x10 common/built-in.o
 .bss.dq_lcd_bdl_value_bdlr0_min_a
                0x0000000000000000        0x4 common/built-in.o
 .bss.dq_lcd_bdl_value_bdlr0_min_b
                0x0000000000000000        0x4 common/built-in.o
 .bss.lcd_bdl_value
                0x0000000000000000      0x240 common/built-in.o
 .bss.dq_lcd_bdl_value_aclcdlr_org_b
                0x0000000000000000        0x4 common/built-in.o
 .bss.dq_lcd_bdl_value_bdlr0_status_a
                0x0000000000000000        0x4 common/built-in.o
 .bss.data_bdlr0_5_reg_org
                0x0000000000000000       0x70 common/built-in.o
 .bss.dq_lcd_bdl_value_aclcdlr_min_b
                0x0000000000000000        0x4 common/built-in.o
 .bss.n_mmaps_max
                0x0000000000000000        0x4 common/built-in.o
 .bss.save_addr
                0x0000000000000000        0x8 common/built-in.o
 .bss.save_size
                0x0000000000000000        0x8 common/built-in.o
 .bss.lastcommand.5791
                0x0000000000000000      0x200 common/built-in.o
 .text          0x0000000000000000        0x0 disk/built-in.o
 .data          0x0000000000000000        0x0 disk/built-in.o
 .bss           0x0000000000000000        0x0 disk/built-in.o
 .text          0x0000000000000000        0x0 drivers/built-in.o
 .text.device_get_child
                0x0000000000000000       0x60 drivers/built-in.o
 .text.device_find_child_by_seq
                0x0000000000000000       0x58 drivers/built-in.o
 .text.device_get_child_by_seq
                0x0000000000000000       0x70 drivers/built-in.o
 .text.device_find_child_by_of_offset
                0x0000000000000000       0x40 drivers/built-in.o
 .text.device_get_child_by_of_offset
                0x0000000000000000       0x40 drivers/built-in.o
 .text.dev_get_parent
                0x0000000000000000        0x8 drivers/built-in.o
 .text.dev_get_of_data
                0x0000000000000000        0xc drivers/built-in.o
 .text.dm_root  0x0000000000000000       0x38 drivers/built-in.o
 .text.dm_uninit
                0x0000000000000000       0x24 drivers/built-in.o
 .text.uclass_destroy
                0x0000000000000000       0xb0 drivers/built-in.o
 .text.uclass_find_device
                0x0000000000000000       0x70 drivers/built-in.o
 .text.uclass_get_device
                0x0000000000000000       0x40 drivers/built-in.o
 .text.uclass_get_device_by_of_offset
                0x0000000000000000       0x80 drivers/built-in.o
 .text.dm_dbg   0x0000000000000000       0x88 drivers/built-in.o
 .text.list_count_items
                0x0000000000000000       0x24 drivers/built-in.o
 .text.vpp_set_lcd_gamma_table
                0x0000000000000000      0x110 drivers/built-in.o
 .text.vpp_pq_load
                0x0000000000000000       0xf0 drivers/built-in.o
 .text.vpp_load_gamma_table
                0x0000000000000000       0x7c drivers/built-in.o
 .text.vpp_enable_lcd_gamma_table
                0x0000000000000000       0x20 drivers/built-in.o
 .text.vpp_disable_lcd_gamma_table
                0x0000000000000000       0x20 drivers/built-in.o
 .text.vpp_init_lcd_gamma_table
                0x0000000000000000       0x50 drivers/built-in.o
 .text.pwm_set_invert
                0x0000000000000000       0x30 drivers/built-in.o
 .text.pwm_set_config
                0x0000000000000000       0x2c drivers/built-in.o
 .text.pwm_set_enable
                0x0000000000000000       0x30 drivers/built-in.o
 .text.pwm_set_times
                0x0000000000000000       0x30 drivers/built-in.o
 .text.pwm_set_blink_times
                0x0000000000000000       0x30 drivers/built-in.o
 .text.pwm_set_blink_enable
                0x0000000000000000       0x34 drivers/built-in.o
 .text.input_tstc
                0x0000000000000000       0x50 drivers/built-in.o
 .text.input_getc
                0x0000000000000000       0x5c drivers/built-in.o
 .text.input_send_keycodes
                0x0000000000000000      0x398 drivers/built-in.o
 .text.input_add_table
                0x0000000000000000       0x44 drivers/built-in.o
 .text.input_set_delays
                0x0000000000000000        0xc drivers/built-in.o
 .text.input_init
                0x0000000000000000       0x9c drivers/built-in.o
 .text.input_stdio_register
                0x0000000000000000       0x58 drivers/built-in.o
 .text.IS_FEAT_BOOT_ENCRYPT
                0x0000000000000000       0x14 drivers/built-in.o
 .text.keymanage_dts_get_key_fmt
                0x0000000000000000       0xc0 drivers/built-in.o
 .text.aml_burn_check_is_ready_for_burn
                0x0000000000000000       0x34 drivers/built-in.o
 .text.aml_burn_factory_producing
                0x0000000000000000       0x88 drivers/built-in.o
 .text.usb_set_reply_cmd_id
                0x0000000000000000       0x1c drivers/built-in.o
 .text.set_low_power_for_usb_burn
                0x0000000000000000       0x18 drivers/built-in.o
 .text.optimus_download_exit
                0x0000000000000000        0x8 drivers/built-in.o
 .text.optimus_save_loaded_dtb_to_flash
                0x0000000000000000       0x58 drivers/built-in.o
 .text.is_optimus_on_burn
                0x0000000000000000       0x14 drivers/built-in.o
 .text.is_optimus_pre_burn
                0x0000000000000000       0x14 drivers/built-in.o
 .text.is_optimus_to_burn_ready
                0x0000000000000000       0x14 drivers/built-in.o
 .text.optimus_key_burn_init
                0x0000000000000000       0x78 drivers/built-in.o
 .text.is_the_flash_first_burned
                0x0000000000000000       0x5c drivers/built-in.o
 .text.optimus_buf_manager_exit
                0x0000000000000000        0x8 drivers/built-in.o
 .text.is_largest_data_transferring
                0x0000000000000000       0x34 drivers/built-in.o
 .text.set_largest_data_transfer_sta_end
                0x0000000000000000       0x18 drivers/built-in.o
 .text.optimus_progress_exit
                0x0000000000000000        0x8 drivers/built-in.o
 .text.get_item
                0x0000000000000000      0x118 drivers/built-in.o
 .text.optimus_sdc_burn_switch_to_extmmc
                0x0000000000000000        0x8 drivers/built-in.o
 .text.opt_file_open
                0x0000000000000000       0x14 drivers/built-in.o
 .text.opt_file_close
                0x0000000000000000       0x18 drivers/built-in.o
 .text.show_logo_to_report_burn_success
                0x0000000000000000       0x50 drivers/built-in.o
 .text.canvas_read
                0x0000000000000000       0x3c drivers/built-in.o
 .text.canvas_copy
                0x0000000000000000       0xcc drivers/built-in.o
 .text.canvas_update_addr
                0x0000000000000000       0xb8 drivers/built-in.o
 .text.canvas_get_addr
                0x0000000000000000       0x1c drivers/built-in.o
 .text.osd_set_gbl_alpha_hw
                0x0000000000000000       0x40 drivers/built-in.o
 .text.osd_get_gbl_alpha_hw
                0x0000000000000000       0x14 drivers/built-in.o
 .text.osd_set_color_key_hw
                0x0000000000000000      0x13c drivers/built-in.o
 .text.osd_srckey_enable_hw
                0x0000000000000000       0x44 drivers/built-in.o
 .text.osd_set_color_mode
                0x0000000000000000       0x38 drivers/built-in.o
 .text.osd_update_disp_axis_hw
                0x0000000000000000      0x10c drivers/built-in.o
 .text.osd_setpal_hw
                0x0000000000000000       0x48 drivers/built-in.o
 .text.osd_get_order_hw
                0x0000000000000000       0x14 drivers/built-in.o
 .text.osd_set_order_hw
                0x0000000000000000       0x38 drivers/built-in.o
 .text.osd_get_free_scale_enable_hw
                0x0000000000000000       0x18 drivers/built-in.o
 .text.osd_get_free_scale_mode_hw
                0x0000000000000000       0x18 drivers/built-in.o
 .text.osd_set_4k2k_fb_mode_hw
                0x0000000000000000        0xc drivers/built-in.o
 .text.osd_set_free_scale_width_hw
                0x0000000000000000       0x34 drivers/built-in.o
 .text.osd_get_free_scale_width_hw
                0x0000000000000000       0x18 drivers/built-in.o
 .text.osd_set_free_scale_height_hw
                0x0000000000000000       0x34 drivers/built-in.o
 .text.osd_get_free_scale_height_hw
                0x0000000000000000       0x18 drivers/built-in.o
 .text.osd_get_free_scale_axis_hw
                0x0000000000000000       0x3c drivers/built-in.o
 .text.osd_get_scale_axis_hw
                0x0000000000000000       0x3c drivers/built-in.o
 .text.osd_set_scale_axis_hw
                0x0000000000000000       0x2c drivers/built-in.o
 .text.osd_get_window_axis_hw
                0x0000000000000000       0xc8 drivers/built-in.o
 .text.osd_get_block_windows_hw
                0x0000000000000000       0x20 drivers/built-in.o
 .text.osd_set_block_windows_hw
                0x0000000000000000       0x48 drivers/built-in.o
 .text.osd_get_block_mode_hw
                0x0000000000000000       0x18 drivers/built-in.o
 .text.osd_set_block_mode_hw
                0x0000000000000000       0x2c drivers/built-in.o
 .text.osd_set_2x_scale_hw
                0x0000000000000000       0xfc drivers/built-in.o
 .text.osd_enable_3d_mode_hw
                0x0000000000000000       0x80 drivers/built-in.o
 .text.osd_set_rotate_angle_hw
                0x0000000000000000       0x2c drivers/built-in.o
 .text.osd_get_rotate_angle_hw
                0x0000000000000000       0x18 drivers/built-in.o
 .text.osd_set_rotate_on_hw
                0x0000000000000000      0x1c0 drivers/built-in.o
 .text.osd_get_rotate_on_hw
                0x0000000000000000       0x18 drivers/built-in.o
 .text.osd_get_update_state_hw
                0x0000000000000000       0x18 drivers/built-in.o
 .text.osd_set_update_state_hw
                0x0000000000000000       0x14 drivers/built-in.o
 .text.osd_set_reverse_hw
                0x0000000000000000       0x2c drivers/built-in.o
 .text.osd_get_reverse_hw
                0x0000000000000000       0x18 drivers/built-in.o
 .text.osd_set_prot_canvas_hw
                0x0000000000000000       0xb4 drivers/built-in.o
 .text.osd_get_prot_canvas_hw
                0x0000000000000000       0x3c drivers/built-in.o
 .text.img_bmp_display
                0x0000000000000000        0x4 drivers/built-in.o
 .text.img_raw_display
                0x0000000000000000        0x4 drivers/built-in.o
 .text.get_dm_kernel_buf
                0x0000000000000000        0x8 drivers/built-in.o
 .text.set_graphics_offset
                0x0000000000000000        0xc drivers/built-in.o
 .text.get_output_format
                0x0000000000000000      0x124 drivers/built-in.o
 .text.get_dm_ctx_buf
                0x0000000000000000        0xc drivers/built-in.o
 .text.ReadU16  0x0000000000000000       0x40 drivers/built-in.o
 .text.ReadU8   0x0000000000000000       0x34 drivers/built-in.o
 .text.ReadU32  0x0000000000000000       0x58 drivers/built-in.o
 .text.GetGrcSigEnv
                0x0000000000000000       0x54 drivers/built-in.o
 .text.GetSrcSigEnv
                0x0000000000000000       0x54 drivers/built-in.o
 .text.GetTgtSigEnv
                0x0000000000000000       0x54 drivers/built-in.o
 .text.GetTmCtrl
                0x0000000000000000       0x54 drivers/built-in.o
 .text.GetDmCtrl
                0x0000000000000000       0x54 drivers/built-in.o
 .text.ParseMds
                0x0000000000000000      0x574 drivers/built-in.o
 .text.GetCompactFrmMemLayout
                0x0000000000000000       0xdc drivers/built-in.o
 .text.GetMinFrmMemSize
                0x0000000000000000       0xb8 drivers/built-in.o
 .text.SyncSigEnvWithMds
                0x0000000000000000      0x104 drivers/built-in.o
 .text.UpdateSrcEnvFrameMemLayout
                0x0000000000000000       0x50 drivers/built-in.o
 .text.GetGrcSigEnvPtr
                0x0000000000000000       0x3c drivers/built-in.o
 .text.GetStbGmm
                0x0000000000000000       0x8c drivers/built-in.o
 .text.GetSrcSigEnvPtr
                0x0000000000000000       0x3c drivers/built-in.o
 .text.GetTgtSigEnvPtr
                0x0000000000000000       0x3c drivers/built-in.o
 .text.GetHDmCfg
                0x0000000000000000       0x30 drivers/built-in.o
 .text.LToPQ15  0x0000000000000000       0x80 drivers/built-in.o
 .text.GetHDmKs
                0x0000000000000000        0x8 drivers/built-in.o
 .text.UpdateKsInFrameMemLayout
                0x0000000000000000       0x24 drivers/built-in.o
 .text.CommitSecIn
                0x0000000000000000       0x28 drivers/built-in.o
 .text.GetTcLutDir
                0x0000000000000000       0x18 drivers/built-in.o
 .text.GetTcLutGDir
                0x0000000000000000       0x54 drivers/built-in.o
 .text.SetHardwareInterface
                0x0000000000000000      0x138 drivers/built-in.o
 .text.M33TimesM33
                0x0000000000000000       0x74 drivers/built-in.o
 .text.abs_int32
                0x0000000000000000       0x18 drivers/built-in.o
 .text.AssignM33I322I
                0x0000000000000000       0x34 drivers/built-in.o
 .text.GetRgb2LmsWpV3
                0x0000000000000000       0x30 drivers/built-in.o
 .text.GetRgb2LmsWpByDefV3Fxp
                0x0000000000000000       0x38 drivers/built-in.o
 .text.GetRgb2WpLmsM33Fxp
                0x0000000000000000       0x80 drivers/built-in.o
 .text.GetRgb2LmsWpCtM33Fxp
                0x0000000000000000      0x118 drivers/built-in.o
 .text.GetLms2RgbCtWpM33Fxp32
                0x0000000000000000      0x188 drivers/built-in.o
 .text.GetLms2RgbWpCtM33
                0x0000000000000000       0xe0 drivers/built-in.o
 .text.expNTaylor
                0x0000000000000000       0x1c drivers/built-in.o
 .text.GenerateL2GLut
                0x0000000000000000      0x2bc drivers/built-in.o
 .text.DumpKsBinBuf
                0x0000000000000000      0x15c drivers/built-in.o
 .text.LoadKsBinBuf
                0x0000000000000000      0x324 drivers/built-in.o
 .text.unorm_u_lut
                0x0000000000000000       0x68 drivers/built-in.o
 .text.LfxPOW2Taylor
                0x0000000000000000       0xf4 drivers/built-in.o
 .text.CreateToneCurve2pxx
                0x0000000000000000      0x320 drivers/built-in.o
 .text.CalcMappedParams2pxx
                0x0000000000000000      0x5ac drivers/built-in.o
 .text.applyGamma
                0x0000000000000000       0x54 drivers/built-in.o
 .text.L2PQ_loglut
                0x0000000000000000       0x80 drivers/built-in.o
 .text.l2eotf_lerp
                0x0000000000000000       0x90 drivers/built-in.o
 .text.computeTgtEotfLut
                0x0000000000000000      0x1c8 drivers/built-in.o
 .text.rpu_crc32
                0x0000000000000000       0x38 drivers/built-in.o
 .text.dv_md_parser_get_api_ver
                0x0000000000000000        0x4 drivers/built-in.o
 .text.dv_md_parser_get_algo_ver
                0x0000000000000000        0x4 drivers/built-in.o
 .text.dv_md_parser_get_build_info
                0x0000000000000000        0x4 drivers/built-in.o
 .text.dv_md_parser_destroy
                0x0000000000000000       0x40 drivers/built-in.o
 .text.dv_md_parser_process_vui
                0x0000000000000000       0x40 drivers/built-in.o
 .text.dv_md_parser_process_mastering_display_colour_volume
                0x0000000000000000       0x40 drivers/built-in.o
 .text.dv_md_parser_process_user_data_registered_itu_t_t35
                0x0000000000000000      0x16c drivers/built-in.o
 .text.dv_md_parser_get_rpu_dcd_ctx
                0x0000000000000000       0x1c drivers/built-in.o
 .text.vdr_rpu_get_api_ver
                0x0000000000000000        0xc drivers/built-in.o
 .text.vdr_rpu_get_algo_ver
                0x0000000000000000       0x10 drivers/built-in.o
 .text.vdr_rpu_get_build_info
                0x0000000000000000        0xc drivers/built-in.o
 .text.dm_rpu_payload_2_struct
                0x0000000000000000      0x8e8 drivers/built-in.o
 .text.dm_struct_2_rpu_payload
                0x0000000000000000      0x9a0 drivers/built-in.o
 .text.register_dec_event_callback
                0x0000000000000000        0xc drivers/built-in.o
 .text.rpu_decoder_cleanup
                0x0000000000000000        0x8 drivers/built-in.o
 .text.rpu_decoder_flush
                0x0000000000000000       0x10 drivers/built-in.o
 .text.rpu_decoder_push_2094_payload
                0x0000000000000000       0x5c drivers/built-in.o
 .text.rpu_decoder_push_2086_payload
                0x0000000000000000       0x60 drivers/built-in.o
 .text.rpu_decoder_push_VUI
                0x0000000000000000       0xec drivers/built-in.o
 .text.mastering_display_colour_volume_read
                0x0000000000000000       0xb0 drivers/built-in.o
 .text.st2094_10_data_read
                0x0000000000000000      0x444 drivers/built-in.o
 .text.vout_set_current_vmode
                0x0000000000000000       0x10 drivers/built-in.o
 .text.ui_set_log_level
                0x0000000000000000       0x10 drivers/built-in.o
 .text.gr_measure
                0x0000000000000000       0x28 drivers/built-in.o
 .text.gr_font_size
                0x0000000000000000       0x14 drivers/built-in.o
 .text.gr_texticon
                0x0000000000000000       0xf4 drivers/built-in.o
 .text.gr_clear
                0x0000000000000000       0xac drivers/built-in.o
 .text.gr_get_width
                0x0000000000000000        0xc drivers/built-in.o
 .text.gr_get_height
                0x0000000000000000        0xc drivers/built-in.o
 .text.gr_fb_width
                0x0000000000000000       0x20 drivers/built-in.o
 .text.gr_fb_height
                0x0000000000000000       0x20 drivers/built-in.o
 .text.gr_fb_blank
                0x0000000000000000       0x24 drivers/built-in.o
 .text.osd_render_test
                0x0000000000000000      0x3b0 drivers/built-in.o
 .text.res_free_surface
                0x0000000000000000        0xc drivers/built-in.o
 .text.secure_storage_notifier
                0x0000000000000000        0xc drivers/built-in.o
 .text.secure_storage_list
                0x0000000000000000       0xa4 drivers/built-in.o
 .text.secure_storage_remove
                0x0000000000000000       0x80 drivers/built-in.o
 .text.secure_storage_get_enctype
                0x0000000000000000       0x1c drivers/built-in.o
 .text.secure_storage_version
                0x0000000000000000       0x1c drivers/built-in.o
 .text.amlkey_isencrypt
                0x0000000000000000       0x18 drivers/built-in.o
 .text.amlkey_del
                0x0000000000000000       0x7c drivers/built-in.o
 .text.saradc_dev_get
                0x0000000000000000        0xc drivers/built-in.o
 .rodata.__func__.6681
                0x0000000000000000       0x10 drivers/built-in.o
 .rodata.CSWTCH.38
                0x0000000000000000       0x18 drivers/built-in.o
 .rodata.__func__.6700
                0x0000000000000000       0x18 drivers/built-in.o
 .rodata.__func__.6731
                0x0000000000000000       0x20 drivers/built-in.o
 .rodata.lut_name
                0x0000000000000000       0x40 drivers/built-in.o
 .rodata.kbd_to_ansi364
                0x0000000000000000       0x40 drivers/built-in.o
 .rodata.kbd_plain_xlate
                0x0000000000000000       0x68 drivers/built-in.o
 .rodata.CSWTCH.16
                0x0000000000000000       0x10 drivers/built-in.o
 .rodata._UsrMacKeyLen
                0x0000000000000000        0x4 drivers/built-in.o
 .rodata.__func__.5928
                0x0000000000000000       0x20 drivers/built-in.o
 .rodata.UpgradeLogoAddr
                0x0000000000000000        0x8 drivers/built-in.o
 .rodata.l2gLutB
                0x0000000000000000      0x200 drivers/built-in.o
 .rodata.l2gLutX
                0x0000000000000000      0x200 drivers/built-in.o
 .rodata.depqLut
                0x0000000000000000     0x4000 drivers/built-in.o
 .rodata.l2gLutA
                0x0000000000000000      0x200 drivers/built-in.o
 .rodata.L2PQ_Offset2
                0x0000000000000000      0x200 drivers/built-in.o
 .rodata.xdiffinv_frac4_fxd
                0x0000000000000000      0x180 drivers/built-in.o
 .rodata.log2_frac4_fxd
                0x0000000000000000      0x188 drivers/built-in.o
 .rodata.l2pq_8space_8b_normlut
                0x0000000000000000      0x100 drivers/built-in.o
 .rodata.L2PQ_Scale
                0x0000000000000000      0x200 drivers/built-in.o
 .rodata.l2pq_slope_frac8
                0x0000000000000000      0x300 drivers/built-in.o
 .rodata.lin_rng_frac4
                0x0000000000000000      0x188 drivers/built-in.o
 .rodata.l2g_4space_8b_normlut
                0x0000000000000000      0x100 drivers/built-in.o
 .rodata.log2_frac8_fxd
                0x0000000000000000      0x308 drivers/built-in.o
 .rodata.l2pq_lut_frac8
                0x0000000000000000      0x308 drivers/built-in.o
 .rodata.L2PQ_Offset1
                0x0000000000000000      0x200 drivers/built-in.o
 .rodata.crc32_lut
                0x0000000000000000      0x400 drivers/built-in.o
 .rodata.__func__.5893
                0x0000000000000000       0x10 drivers/built-in.o
 .data          0x0000000000000000        0x0 drivers/built-in.o
 .data.gamma_table_g
                0x0000000000000000      0x200 drivers/built-in.o
 .data.gamma_table_r
                0x0000000000000000      0x200 drivers/built-in.o
 .data.gamma_table_b
                0x0000000000000000      0x200 drivers/built-in.o
 .data.cgain_lut2
                0x0000000000000000      0x108 drivers/built-in.o
 .data.rgb2ycbcr
                0x0000000000000000       0x40 drivers/built-in.o
 .data.oo_y_lut_1
                0x0000000000000000      0x258 drivers/built-in.o
 .data.yuv2rgbmat
                0x0000000000000000       0x40 drivers/built-in.o
 .data.oo_y_lut_hdr_hlg
                0x0000000000000000      0x258 drivers/built-in.o
 .data.cgain_lut0
                0x0000000000000000      0x108 drivers/built-in.o
 .data.kbd_ctrl_xlate
                0x0000000000000000       0x68 drivers/built-in.o
 .data.kbd_shift_xlate
                0x0000000000000000       0x68 drivers/built-in.o
 .data.normLut4bits
                0x0000000000000000       0x40 drivers/built-in.o
 .bss           0x0000000000000000        0x0 drivers/built-in.o
 .bss.do_fat_read_block
                0x0000000000000000    0x10000 drivers/built-in.o
 .text          0x0000000000000000        0x0 drivers/gpio/built-in.o
 .text.gpio_requestf
                0x0000000000000000       0xac drivers/gpio/built-in.o
 .text.gpio_set_value
                0x0000000000000000       0x60 drivers/gpio/built-in.o
 .text.gpio_get_values_as_int
                0x0000000000000000       0x60 drivers/gpio/built-in.o
 .data          0x0000000000000000        0x0 drivers/gpio/built-in.o
 .bss           0x0000000000000000        0x0 drivers/gpio/built-in.o
 .text          0x0000000000000000        0x0 drivers/i2c/built-in.o
 .text.aml_i2c_xfer_slow
                0x0000000000000000      0x1e0 drivers/i2c/built-in.o
 .text.aml_i2c_transfer
                0x0000000000000000      0x220 drivers/i2c/built-in.o
 .text.i2c_get_bus_num
                0x0000000000000000       0x28 drivers/i2c/built-in.o
 .text.i2c_set_bus_num
                0x0000000000000000       0xa0 drivers/i2c/built-in.o
 .text.aml_i2c_set_ports
                0x0000000000000000       0x10 drivers/i2c/built-in.o
 .rodata.__func__.6647
                0x0000000000000000       0x18 drivers/i2c/built-in.o
 .rodata.__func__.6739
                0x0000000000000000       0x18 drivers/i2c/built-in.o
 .rodata.__func__.6760
                0x0000000000000000       0x10 drivers/i2c/built-in.o
 .data          0x0000000000000000        0x0 drivers/i2c/built-in.o
 .bss           0x0000000000000000        0x0 drivers/i2c/built-in.o
 .text          0x0000000000000000        0x0 drivers/mmc/built-in.o
 .text.amlmmc_is_inited
                0x0000000000000000        0xc drivers/mmc/built-in.o
 .text.mmc_switch_by_bit
                0x0000000000000000       0x5c drivers/mmc/built-in.o
 .text.mmc_set_bus_width
                0x0000000000000000        0x8 drivers/mmc/built-in.o
 .text.mmc_disable_usr_wp
                0x0000000000000000       0xc8 drivers/mmc/built-in.o
 .text.mmc_register
                0x0000000000000000       0x28 drivers/mmc/built-in.o
 .text.mmc_destroy
                0x0000000000000000        0x4 drivers/mmc/built-in.o
 .text.board_mmc_init
                0x0000000000000000        0x8 drivers/mmc/built-in.o
 .text.mmc_set_preinit
                0x0000000000000000        0x8 drivers/mmc/built-in.o
 .text.aml_fixdiv_calc
                0x0000000000000000      0x160 drivers/mmc/built-in.o
 .text.sd_emmc_test_adj
                0x0000000000000000      0x160 drivers/mmc/built-in.o
 .text.get_emmc_partition_arraysize
                0x0000000000000000        0x8 drivers/mmc/built-in.o
 .text.get_emmc_virtual_partition_arraysize
                0x0000000000000000        0x8 drivers/mmc/built-in.o
 .text._dump_part_tbl
                0x0000000000000000       0x60 drivers/mmc/built-in.o
 .rodata.__func__.6796
                0x0000000000000000       0x10 drivers/mmc/built-in.o
 .data          0x0000000000000000        0x0 drivers/mmc/built-in.o
 .bss           0x0000000000000000        0x0 drivers/mmc/built-in.o
 .bss.cal_time  0x0000000000000000        0x1 drivers/mmc/built-in.o
 .bss.dly_tmp   0x0000000000000000        0x1 drivers/mmc/built-in.o
 .bss.max_index
                0x0000000000000000        0x1 drivers/mmc/built-in.o
 .bss.line_x    0x0000000000000000        0x1 drivers/mmc/built-in.o
 .text          0x0000000000000000        0x0 drivers/mtd/built-in.o
 .text.idr_remove
                0x0000000000000000       0x14 drivers/mtd/built-in.o
 .text.idr_find
                0x0000000000000000       0x20 drivers/mtd/built-in.o
 .text.mtd_get_unmapped_area
                0x0000000000000000       0x48 drivers/mtd/built-in.o
 .text.mtd_panic_write
                0x0000000000000000       0x6c drivers/mtd/built-in.o
 .text.mtd_get_fact_prot_info
                0x0000000000000000       0x34 drivers/mtd/built-in.o
 .text.mtd_read_fact_prot_reg
                0x0000000000000000       0x38 drivers/mtd/built-in.o
 .text.mtd_get_user_prot_info
                0x0000000000000000       0x34 drivers/mtd/built-in.o
 .text.mtd_read_user_prot_reg
                0x0000000000000000       0x38 drivers/mtd/built-in.o
 .text.mtd_write_user_prot_reg
                0x0000000000000000       0x50 drivers/mtd/built-in.o
 .text.mtd_lock_user_prot_reg
                0x0000000000000000       0x34 drivers/mtd/built-in.o
 .text.mtd_lock
                0x0000000000000000       0x58 drivers/mtd/built-in.o
 .text.mtd_is_locked
                0x0000000000000000       0x58 drivers/mtd/built-in.o
 .data          0x0000000000000000        0x0 drivers/mtd/built-in.o
 .bss           0x0000000000000000        0x0 drivers/mtd/built-in.o
 .bss.mtd_table
                0x0000000000000000      0x100 drivers/mtd/built-in.o
 .text          0x0000000000000000        0x0 drivers/mtd/nand/built-in.o
 .text.nand_read_byte
                0x0000000000000000       0x14 drivers/mtd/nand/built-in.o
 .text.nand_read_byte16
                0x0000000000000000       0x14 drivers/mtd/nand/built-in.o
 .text.nand_read_word
                0x0000000000000000       0x14 drivers/mtd/nand/built-in.o
 .text.nand_write_byte
                0x0000000000000000       0x28 drivers/mtd/nand/built-in.o
 .text.nand_write_byte16
                0x0000000000000000       0x2c drivers/mtd/nand/built-in.o
 .text.nand_write_buf
                0x0000000000000000       0x28 drivers/mtd/nand/built-in.o
 .text.nand_read_buf
                0x0000000000000000       0x2c drivers/mtd/nand/built-in.o
 .text.nand_write_buf16
                0x0000000000000000       0x2c drivers/mtd/nand/built-in.o
 .text.nand_read_buf16
                0x0000000000000000       0x30 drivers/mtd/nand/built-in.o
 .text.single_erase_cmd
                0x0000000000000000       0x4c drivers/mtd/nand/built-in.o
 .text.nand_onfi_set_features
                0x0000000000000000       0x78 drivers/mtd/nand/built-in.o
 .text.nand_set_defaults
                0x0000000000000000      0x1a8 drivers/mtd/nand/built-in.o
 .text.nand_block_bad
                0x0000000000000000      0x194 drivers/mtd/nand/built-in.o
 .text.nand_onfi_get_features
                0x0000000000000000       0x7c drivers/mtd/nand/built-in.o
 .text.nand_default_block_markbad
                0x0000000000000000       0xd0 drivers/mtd/nand/built-in.o
 .text.nand_wait
                0x0000000000000000       0xe0 drivers/mtd/nand/built-in.o
 .text.unlikely.sanitize_string
                0x0000000000000000       0x3c drivers/mtd/nand/built-in.o
 .text.unlikely.generic_fls
                0x0000000000000000       0x5c drivers/mtd/nand/built-in.o
 .text.nand_select_chip
                0x0000000000000000       0x58 drivers/mtd/nand/built-in.o
 .text.nand_command
                0x0000000000000000      0x22c drivers/mtd/nand/built-in.o
 .text.nand_command_lp
                0x0000000000000000      0x2bc drivers/mtd/nand/built-in.o
 .text.nand_scan_ident
                0x0000000000000000      0xa5c drivers/mtd/nand/built-in.o
 .text.nand_scan
                0x0000000000000000       0x38 drivers/mtd/nand/built-in.o
 .rodata.nand_scan_ident
                0x0000000000000000       0x10 drivers/mtd/nand/built-in.o
 .rodata.__FUNCTION__.7015
                0x0000000000000000       0x18 drivers/mtd/nand/built-in.o
 .data          0x0000000000000000        0x0 drivers/mtd/nand/built-in.o
 .data.nand_flash_ids
                0x0000000000000000      0xcd0 drivers/mtd/nand/built-in.o
 .bss           0x0000000000000000        0x0 drivers/mtd/nand/built-in.o
 .text          0x0000000000000000        0x0 drivers/mtd/nand/amlogic_mtd/built-in.o
 .text.get_nand_dev_by_index
                0x0000000000000000       0x34 drivers/mtd/nand/amlogic_mtd/built-in.o
 .text.amlnand_save_info_by_name_mtd
                0x0000000000000000       0x20 drivers/mtd/nand/amlogic_mtd/built-in.o
 .text.get_boot_num
                0x0000000000000000      0x134 drivers/mtd/nand/amlogic_mtd/built-in.o
 .data          0x0000000000000000        0x0 drivers/mtd/nand/amlogic_mtd/built-in.o
 .data.pagelist_1ynm_hynix256_mtd
                0x0000000000000000       0x80 drivers/mtd/nand/amlogic_mtd/built-in.o
 .data.pagelist_hynix256
                0x0000000000000000       0x80 drivers/mtd/nand/amlogic_mtd/built-in.o
 .data.dtb_erase_blk
                0x0000000000000000        0x4 drivers/mtd/nand/amlogic_mtd/built-in.o
 .bss           0x0000000000000000        0x0 drivers/mtd/nand/amlogic_mtd/built-in.o
 .text          0x0000000000000000        0x0 drivers/mtd/spi/built-in.o
 .text.spi_flash_probe
                0x0000000000000000       0x2c drivers/mtd/spi/built-in.o
 .text.spi_flash_remove
                0x0000000000000000        0x4 drivers/mtd/spi/built-in.o
 .text.spi_flash_free
                0x0000000000000000        0xc drivers/mtd/spi/built-in.o
 .text.sst_byte_write
                0x0000000000000000       0x7c drivers/mtd/spi/built-in.o
 .text.sst_write_wp
                0x0000000000000000      0x140 drivers/mtd/spi/built-in.o
 .text.sst_write_bp
                0x0000000000000000       0x98 drivers/mtd/spi/built-in.o
 .text.spi_read
                0x0000000000000000       0xdc drivers/mtd/spi/built-in.o
 .text.spi_write
                0x0000000000000000      0x168 drivers/mtd/spi/built-in.o
 .data          0x0000000000000000        0x0 drivers/mtd/spi/built-in.o
 .bss           0x0000000000000000        0x0 drivers/mtd/spi/built-in.o
 .text          0x0000000000000000        0x0 drivers/mtd/ubi/built-in.o
 .text.ubi_enumerate_volumes
                0x0000000000000000       0x5c drivers/mtd/ubi/built-in.o
 .text.ubi_get_by_major
                0x0000000000000000       0x40 drivers/mtd/ubi/built-in.o
 .text.ubi_major2num
                0x0000000000000000       0x34 drivers/mtd/ubi/built-in.o
 .text.ubi_vtbl_rename_volumes
                0x0000000000000000      0x15c drivers/mtd/ubi/built-in.o
 .text.ubi_remove_volume
                0x0000000000000000      0x10c drivers/mtd/ubi/built-in.o
 .text.ubi_rename_volumes
                0x0000000000000000       0xbc drivers/mtd/ubi/built-in.o
 .text.ubi_start_leb_change
                0x0000000000000000       0xd8 drivers/mtd/ubi/built-in.o
 .text.ubi_more_leb_change_data
                0x0000000000000000      0x124 drivers/mtd/ubi/built-in.o
 .text.ubi_leb_write
                0x0000000000000000       0xbc drivers/mtd/ubi/built-in.o
 .text.ubi_leb_change
                0x0000000000000000       0xa4 drivers/mtd/ubi/built-in.o
 .text.ubi_leb_erase
                0x0000000000000000       0xa0 drivers/mtd/ubi/built-in.o
 .text.ubi_leb_map
                0x0000000000000000       0x7c drivers/mtd/ubi/built-in.o
 .text.ubi_sync
                0x0000000000000000       0x48 drivers/mtd/ubi/built-in.o
 .text.ubi_flush
                0x0000000000000000       0x50 drivers/mtd/ubi/built-in.o
 .text.ubi_next_sqnum
                0x0000000000000000       0x14 drivers/mtd/ubi/built-in.o
 .text.ubi_eba_atomic_leb_change
                0x0000000000000000      0x368 drivers/mtd/ubi/built-in.o
 .text.self_check_eba
                0x0000000000000000      0x234 drivers/mtd/ubi/built-in.o
 .text.ubi_thread
                0x0000000000000000       0xb8 drivers/mtd/ubi/built-in.o
 .text.ubi_dump_mkvol_req
                0x0000000000000000       0x20 drivers/mtd/ubi/built-in.o
 .data          0x0000000000000000        0x0 drivers/mtd/ubi/built-in.o
 .bss           0x0000000000000000        0x0 drivers/mtd/ubi/built-in.o
 .text          0x0000000000000000        0x0 drivers/net/built-in.o
 .data          0x0000000000000000        0x0 drivers/net/built-in.o
 .bss           0x0000000000000000        0x0 drivers/net/built-in.o
 .text          0x0000000000000000        0x0 drivers/net/phy/built-in.o
 .text.phy_register
                0x0000000000000000       0x28 drivers/net/phy/built-in.o
 .text.miiphy_reset
                0x0000000000000000       0x30 drivers/net/phy/built-in.o
 .text.phy_connect
                0x0000000000000000       0x68 drivers/net/phy/built-in.o
 .data          0x0000000000000000        0x0 drivers/net/phy/built-in.o
 .bss           0x0000000000000000        0x0 drivers/net/phy/built-in.o
 .text          0x0000000000000000        0x0 drivers/serial/built-in.o
 .text.serial_register
                0x0000000000000000       0x18 drivers/serial/built-in.o
 .text.serial_reinit_all
                0x0000000000000000       0x38 drivers/serial/built-in.o
 .text.default_serial_puts
                0x0000000000000000       0x3c drivers/serial/built-in.o
 .text.uart_UART_PORT_0_getc
                0x0000000000000000        0x8 drivers/serial/built-in.o
 .text.uart_UART_PORT_0_tstc
                0x0000000000000000       0x10 drivers/serial/built-in.o
 .text.uart_UART_PORT_0_putc
                0x0000000000000000        0xc drivers/serial/built-in.o
 .text.uart_UART_PORT_0_puts
                0x0000000000000000        0xc drivers/serial/built-in.o
 .text.uart_UART_PORT_1_getc
                0x0000000000000000        0x8 drivers/serial/built-in.o
 .text.uart_UART_PORT_1_tstc
                0x0000000000000000       0x10 drivers/serial/built-in.o
 .text.uart_UART_PORT_1_putc
                0x0000000000000000        0xc drivers/serial/built-in.o
 .text.uart_UART_PORT_1_puts
                0x0000000000000000        0xc drivers/serial/built-in.o
 .text.uart_UART_PORT_1_setbrg
                0x0000000000000000        0x8 drivers/serial/built-in.o
 .text.uart_UART_PORT_0_setbrg
                0x0000000000000000        0x8 drivers/serial/built-in.o
 .text.uart_UART_PORT_1_init
                0x0000000000000000       0x1c drivers/serial/built-in.o
 .text.uart_UART_PORT_0_init
                0x0000000000000000       0x1c drivers/serial/built-in.o
 .text.serial_aml_register
                0x0000000000000000       0x30 drivers/serial/built-in.o
 .data          0x0000000000000000        0x0 drivers/serial/built-in.o
 .data.device_UART_PORT_0
                0x0000000000000000       0x50 drivers/serial/built-in.o
 .data.device_UART_PORT_1
                0x0000000000000000       0x50 drivers/serial/built-in.o
 .bss           0x0000000000000000        0x0 drivers/serial/built-in.o
 .text          0x0000000000000000        0x0 drivers/spi/built-in.o
 .text.spi_cs_info
                0x0000000000000000       0x7c drivers/spi/built-in.o
 .text.spi_cs_is_valid
                0x0000000000000000       0x48 drivers/spi/built-in.o
 .text.spi_setup_slave_fdt
                0x0000000000000000       0x54 drivers/spi/built-in.o
 .text.spi_setup_slave
                0x0000000000000000       0x30 drivers/spi/built-in.o
 .text.spi_ofdata_to_platdata
                0x0000000000000000        0x8 drivers/spi/built-in.o
 .data          0x0000000000000000        0x0 drivers/spi/built-in.o
 .bss           0x0000000000000000        0x0 drivers/spi/built-in.o
 .text          0x0000000000000000        0x0 drivers/usb/gadget/built-in.o
 .text.usb_gadget_config_buf
                0x0000000000000000       0x9c drivers/usb/gadget/built-in.o
 .text.usb_function_deactivate
                0x0000000000000000       0x58 drivers/usb/gadget/built-in.o
 .text.usb_function_activate
                0x0000000000000000       0x58 drivers/usb/gadget/built-in.o
 .text.usb_string_ids_tab
                0x0000000000000000       0x38 drivers/usb/gadget/built-in.o
 .text.usb_string_ids_n
                0x0000000000000000       0x2c drivers/usb/gadget/built-in.o
 .text.g_dnl_board_usb_cable_connected
                0x0000000000000000        0x8 drivers/usb/gadget/built-in.o
 .text.g_dnl_trigger_detach
                0x0000000000000000       0x10 drivers/usb/gadget/built-in.o
 .text.usb_pcd_irq_loop
                0x0000000000000000        0x4 drivers/usb/gadget/built-in.o
 .text.usb_pcd_get_gadget
                0x0000000000000000       0x10 drivers/usb/gadget/built-in.o
 .text.dwc_otg_bind_gadget_driver
                0x0000000000000000       0x14 drivers/usb/gadget/built-in.o
 .data          0x0000000000000000        0x0 drivers/usb/gadget/built-in.o
 .bss           0x0000000000000000        0x0 drivers/usb/gadget/built-in.o
 .text          0x0000000000000000        0x0 drivers/usb/host/built-in.o
 .text.dwc3_set_mode
                0x0000000000000000       0x14 drivers/usb/host/built-in.o
 .data          0x0000000000000000        0x0 drivers/usb/host/built-in.o
 .bss           0x0000000000000000        0x0 drivers/usb/host/built-in.o
 .text          0x0000000000000000        0x0 fs/built-in.o
 .text.fs_uuid  0x0000000000000000       0x38 fs/built-in.o
 .text.fs_write
                0x0000000000000000       0x90 fs/built-in.o
 .text.do_save  0x0000000000000000      0x150 fs/built-in.o
 .text.do_fs_uuid
                0x0000000000000000       0xac fs/built-in.o
 .text.fat_register_device
                0x0000000000000000       0x88 fs/built-in.o
 .text.file_fat_read
                0x0000000000000000       0x34 fs/built-in.o
 .text.file_getfsname
                0x0000000000000000       0x1c fs/built-in.o
 .text.file_cd  0x0000000000000000      0x208 fs/built-in.o
 .text.file_detectfs
                0x0000000000000000       0x5c fs/built-in.o
 .text.file_ls  0x0000000000000000       0xa4 fs/built-in.o
 .text.file_read
                0x0000000000000000       0xbc fs/built-in.o
 .text.ubifs_leb_write
                0x0000000000000000       0x5c fs/built-in.o
 .text.ubifs_leb_change
                0x0000000000000000       0x5c fs/built-in.o
 .text.ubifs_leb_map
                0x0000000000000000       0x5c fs/built-in.o
 .text.ubifs_prepare_node
                0x0000000000000000      0x150 fs/built-in.o
 .text.ubifs_prep_grp_node
                0x0000000000000000      0x10c fs/built-in.o
 .text.ubifs_wbuf_sync_nolock
                0x0000000000000000      0x128 fs/built-in.o
 .text.ubifs_wbuf_seek_nolock
                0x0000000000000000       0x64 fs/built-in.o
 .text.ubifs_wbuf_add_ino_nolock
                0x0000000000000000       0x28 fs/built-in.o
 .text.ubifs_sync_wbufs_by_inode
                0x0000000000000000       0xa4 fs/built-in.o
 .text.set_anon_super
                0x0000000000000000        0x8 fs/built-in.o
 .text.iget_failed
                0x0000000000000000        0x4 fs/built-in.o
 .text.unlock_new_inode
                0x0000000000000000        0x4 fs/built-in.o
 .text.fixup_leb
                0x0000000000000000       0x78 fs/built-in.o
 .text.ubifs_write_sb_node
                0x0000000000000000       0x50 fs/built-in.o
 .text.ubifs_fixup_free_space
                0x0000000000000000      0x210 fs/built-in.o
 .text.pack_bits
                0x0000000000000000       0xd4 fs/built-in.o
 .text.scan_get_pnode
                0x0000000000000000      0x190 fs/built-in.o
 .text.ubifs_pack_pnode
                0x0000000000000000      0x11c fs/built-in.o
 .text.ubifs_pack_nnode
                0x0000000000000000      0x100 fs/built-in.o
 .text.ubifs_pack_ltab
                0x0000000000000000       0xd0 fs/built-in.o
 .text.ubifs_pack_lsave
                0x0000000000000000       0xb8 fs/built-in.o
 .text.ubifs_create_dflt_lpt
                0x0000000000000000      0x800 fs/built-in.o
 .text.scan_get_nnode
                0x0000000000000000      0x130 fs/built-in.o
 .text.ubifs_lpt_lookup
                0x0000000000000000       0xb0 fs/built-in.o
 .text.ubifs_lpt_scan_nolock
                0x0000000000000000      0x34c fs/built-in.o
 .text.dbg_check_lpt_nodes
                0x0000000000000000        0x8 fs/built-in.o
 .text.first_dirty_cnode
                0x0000000000000000       0x40 fs/built-in.o
 .text.alloc_lpt_leb
                0x0000000000000000       0xd8 fs/built-in.o
 .text.need_write_all
                0x0000000000000000       0x8c fs/built-in.o
 .text.lpt_tgc_start
                0x0000000000000000       0x74 fs/built-in.o
 .text.pnode_lookup
                0x0000000000000000       0xa4 fs/built-in.o
 .text.do_make_pnode_dirty
                0x0000000000000000       0xa4 fs/built-in.o
 .text.lpt_gc   0x0000000000000000      0x424 fs/built-in.o
 .text.ubifs_lpt_start_commit
                0x0000000000000000      0x868 fs/built-in.o
 .text.ubifs_lpt_post_commit
                0x0000000000000000       0xa8 fs/built-in.o
 .text.ubifs_ensure_cat
                0x0000000000000000       0x70 fs/built-in.o
 .text.ubifs_get_lp_stats
                0x0000000000000000       0x14 fs/built-in.o
 .text.ubifs_read_one_lp
                0x0000000000000000       0x38 fs/built-in.o
 .text.ubifs_fast_find_free
                0x0000000000000000       0x1c fs/built-in.o
 .text.ubifs_fast_find_empty
                0x0000000000000000       0x20 fs/built-in.o
 .text.ubifs_fast_find_freeable
                0x0000000000000000       0x20 fs/built-in.o
 .text.ubifs_fast_find_frdi_idx
                0x0000000000000000       0x20 fs/built-in.o
 .text.dbg_check_cats
                0x0000000000000000        0x8 fs/built-in.o
 .text.dbg_check_heap
                0x0000000000000000        0x4 fs/built-in.o
 .text.dbg_check_lprops
                0x0000000000000000        0x8 fs/built-in.o
 .text.insert_zbranch
                0x0000000000000000       0xf4 fs/built-in.o
 .text.left_znode
                0x0000000000000000       0x68 fs/built-in.o
 .text.lookup_znode
                0x0000000000000000      0x2f4 fs/built-in.o
 .text.correct_parent_keys.isra.16
                0x0000000000000000       0x60 fs/built-in.o
 .text.tnc_insert
                0x0000000000000000      0x3b4 fs/built-in.o
 .text.destroy_old_idx
                0x0000000000000000       0x54 fs/built-in.o
 .text.ubifs_tnc_get_bu_keys
                0x0000000000000000      0x244 fs/built-in.o
 .text.ubifs_tnc_bulk_read
                0x0000000000000000      0x204 fs/built-in.o
 .text.ubifs_tnc_lookup_nm
                0x0000000000000000       0xdc fs/built-in.o
 .text.ubifs_tnc_add
                0x0000000000000000       0xe8 fs/built-in.o
 .text.ubifs_tnc_replace
                0x0000000000000000      0x27c fs/built-in.o
 .text.ubifs_tnc_remove
                0x0000000000000000       0x58 fs/built-in.o
 .text.ubifs_tnc_add_nm
                0x0000000000000000      0x1a4 fs/built-in.o
 .text.is_idx_node_in_tnc
                0x0000000000000000       0x34 fs/built-in.o
 .text.ubifs_tnc_has_node
                0x0000000000000000      0x1d4 fs/built-in.o
 .text.ubifs_dirty_idx_node
                0x0000000000000000       0x48 fs/built-in.o
 .text.dbg_check_inode_size
                0x0000000000000000        0x8 fs/built-in.o
 .text.ubifs_tnc_levelorder_next
                0x0000000000000000      0x130 fs/built-in.o
 .text.ubifs_tnc_postorder_first
                0x0000000000000000       0x3c fs/built-in.o
 .text.ubifs_tnc_postorder_next
                0x0000000000000000       0x40 fs/built-in.o
 .text.ubifs_destroy_tnc_subtree
                0x0000000000000000       0xac fs/built-in.o
 .text.dump_znode
                0x0000000000000000        0x8 fs/built-in.o
 .text.dbg_snprintf_key
                0x0000000000000000      0x10c fs/built-in.o
 .text.dbg_ntype
                0x0000000000000000       0x24 fs/built-in.o
 .text.dbg_cstate
                0x0000000000000000       0x24 fs/built-in.o
 .text.dbg_jhead
                0x0000000000000000       0x24 fs/built-in.o
 .text.ubifs_dump_budget_req
                0x0000000000000000        0x4 fs/built-in.o
 .text.ubifs_dump_lstats
                0x0000000000000000        0x4 fs/built-in.o
 .text.ubifs_dump_budg
                0x0000000000000000        0x4 fs/built-in.o
 .text.ubifs_dump_lprop
                0x0000000000000000       0x4c fs/built-in.o
 .text.ubifs_dump_lprops
                0x0000000000000000       0x58 fs/built-in.o
 .text.ubifs_dump_lpt_info
                0x0000000000000000        0x4 fs/built-in.o
 .text.ubifs_dump_sleb
                0x0000000000000000       0x18 fs/built-in.o
 .text.ubifs_dump_leb
                0x0000000000000000       0x8c fs/built-in.o
 .text.ubifs_dump_heap
                0x0000000000000000        0x4 fs/built-in.o
 .text.ubifs_dump_tnc
                0x0000000000000000       0x38 fs/built-in.o
 .text.dbg_walk_index
                0x0000000000000000      0x1a0 fs/built-in.o
 .text.ubifs_dump_index
                0x0000000000000000       0x14 fs/built-in.o
 .text.add_node
                0x0000000000000000      0x100 fs/built-in.o
 .text.destroy_done_tree
                0x0000000000000000       0x40 fs/built-in.o
 .text.ubifs_search_bud
                0x0000000000000000       0x38 fs/built-in.o
 .text.ubifs_add_bud
                0x0000000000000000       0xb4 fs/built-in.o
 .text.ubifs_add_bud_to_log
                0x0000000000000000      0x24c fs/built-in.o
 .text.ubifs_log_start_commit
                0x0000000000000000      0x334 fs/built-in.o
 .text.ubifs_log_end_commit
                0x0000000000000000       0x24 fs/built-in.o
 .text.ubifs_log_post_commit
                0x0000000000000000       0xc4 fs/built-in.o
 .text.ubifs_consolidate_log
                0x0000000000000000      0x2d0 fs/built-in.o
 .text.ubifs_add_orphan
                0x0000000000000000      0x120 fs/built-in.o
 .text.ubifs_delete_orphan
                0x0000000000000000       0xd4 fs/built-in.o
 .text.ubifs_orphan_start_commit
                0x0000000000000000       0x78 fs/built-in.o
 .text.ubifs_orphan_end_commit
                0x0000000000000000      0x3c4 fs/built-in.o
 .text.add_ino  0x0000000000000000       0xb8 fs/built-in.o
 .text.find_ino.isra.4
                0x0000000000000000       0x28 fs/built-in.o
 .text.recover_head
                0x0000000000000000       0xe0 fs/built-in.o
 .text.ubifs_write_rcvrd_mst_node
                0x0000000000000000      0x158 fs/built-in.o
 .text.ubifs_recover_log_leb
                0x0000000000000000      0x218 fs/built-in.o
 .text.ubifs_recover_inl_heads
                0x0000000000000000       0x50 fs/built-in.o
 .text.ubifs_clean_lebs
                0x0000000000000000      0x1c8 fs/built-in.o
 .text.ubifs_rcvry_gc_commit
                0x0000000000000000        0x8 fs/built-in.o
 .text.ubifs_destroy_size_tree
                0x0000000000000000       0x60 fs/built-in.o
 .text.ubifs_recover_size_accum
                0x0000000000000000      0x104 fs/built-in.o
 .rodata.filesystems
                0x0000000000000000       0x28 fs/built-in.o
 .rodata.lpt_gc
                0x0000000000000000        0xc fs/built-in.o
 .rodata.dbg_snprintf_key
                0x0000000000000000        0x8 fs/built-in.o
 .rodata.CSWTCH.41
                0x0000000000000000       0x30 fs/built-in.o
 .rodata.CSWTCH.43
                0x0000000000000000       0x18 fs/built-in.o
 .rodata.CSWTCH.39
                0x0000000000000000       0x60 fs/built-in.o
 .rodata.CSWTCH.34
                0x0000000000000000       0x28 fs/built-in.o
 .data          0x0000000000000000        0x0 fs/built-in.o
 .data.file_cwd
                0x0000000000000000      0x200 fs/built-in.o
 .data.current_filesystem
                0x0000000000000000        0x4 fs/built-in.o
 .bss           0x0000000000000000        0x0 fs/built-in.o
 .bss.ext4fs_symlinknest
                0x0000000000000000        0x4 fs/built-in.o
 .bss.g_parent_inode
                0x0000000000000000        0x8 fs/built-in.o
 .text          0x0000000000000000        0x0 lib/built-in.o
 .text.inflateInit_
                0x0000000000000000       0x14 lib/built-in.o
 .text.fdt_get_alias
                0x0000000000000000       0x34 lib/built-in.o
 .text.fdt_get_path
                0x0000000000000000      0x16c lib/built-in.o
 .text.fdt_parent_offset
                0x0000000000000000       0x48 lib/built-in.o
 .text.fdt_node_offset_by_prop_value
                0x0000000000000000       0xb0 lib/built-in.o
 .text.fdt_count_strings
                0x0000000000000000       0x7c lib/built-in.o
 .text.fdt_find_string
                0x0000000000000000       0xac lib/built-in.o
 .text.fdt_get_string_index
                0x0000000000000000       0x7c lib/built-in.o
 .text.fdt_get_string
                0x0000000000000000        0xc lib/built-in.o
 .text.fdt_node_check_compatible
                0x0000000000000000       0x4c lib/built-in.o
 .text.fdt_node_offset_by_compatible
                0x0000000000000000       0x78 lib/built-in.o
 .text.fdt_set_name
                0x0000000000000000       0xac lib/built-in.o
 .text.fdt_appendprop
                0x0000000000000000       0xe4 lib/built-in.o
 .text.fdt_pack
                0x0000000000000000       0x6c lib/built-in.o
 .text._fdt_sw_check_header
                0x0000000000000000       0x20 lib/built-in.o
 .text._fdt_grab_space
                0x0000000000000000       0x60 lib/built-in.o
 .text.fdt_create
                0x0000000000000000       0x74 lib/built-in.o
 .text.fdt_resize
                0x0000000000000000       0xdc lib/built-in.o
 .text.fdt_add_reservemap_entry
                0x0000000000000000       0x90 lib/built-in.o
 .text.fdt_finish_reservemap
                0x0000000000000000        0xc lib/built-in.o
 .text.fdt_begin_node
                0x0000000000000000       0x88 lib/built-in.o
 .text.fdt_end_node
                0x0000000000000000       0x4c lib/built-in.o
 .text.fdt_property
                0x0000000000000000      0x128 lib/built-in.o
 .text.fdt_finish
                0x0000000000000000      0x110 lib/built-in.o
 .text.fdt_nop_property
                0x0000000000000000       0x48 lib/built-in.o
 .text.fdt_nop_node
                0x0000000000000000       0x6c lib/built-in.o
 .text.fdt_find_regions
                0x0000000000000000      0x358 lib/built-in.o
 .text.fdt_create_empty_tree
                0x0000000000000000       0x78 lib/built-in.o
 .text.crc7     0x0000000000000000       0x30 lib/built-in.o
 .text.crc8     0x0000000000000000       0x44 lib/built-in.o
 .text.lmb_dump_all
                0x0000000000000000        0x4 lib/built-in.o
 .text.lmb_is_reserved
                0x0000000000000000       0x4c lib/built-in.o
 .text.arch_lmb_reserve
                0x0000000000000000        0x4 lib/built-in.o
 .text.ldiv     0x0000000000000000       0x2c lib/built-in.o
 .text.md5      0x0000000000000000       0x78 lib/built-in.o
 .text.strcmp_compar
                0x0000000000000000        0xc lib/built-in.o
 .text.sha1_hmac
                0x0000000000000000      0x14c lib/built-in.o
 .text.sha1_self_test
                0x0000000000000000        0x8 lib/built-in.o
 .text.strmhz   0x0000000000000000       0x6c lib/built-in.o
 .text.__rb_erase_color
                0x0000000000000000      0x24c lib/built-in.o
 .text.__rb_insert_augmented
                0x0000000000000000      0x164 lib/built-in.o
 .text.rb_prev  0x0000000000000000       0x50 lib/built-in.o
 .text.rb_replace_node
                0x0000000000000000       0x78 lib/built-in.o
 .text.rb_next_postorder
                0x0000000000000000       0x3c lib/built-in.o
 .text.rb_first_postorder
                0x0000000000000000       0x24 lib/built-in.o
 .text.merge    0x0000000000000000       0x84 lib/built-in.o
 .text.list_sort
                0x0000000000000000      0x1b0 lib/built-in.o
 .text.hmatch_r
                0x0000000000000000       0xbc lib/built-in.o
 .text.strcasecmp
                0x0000000000000000        0x8 lib/built-in.o
 .text.strspn   0x0000000000000000       0x38 lib/built-in.o
 .text.strtok   0x0000000000000000       0x98 lib/built-in.o
 .text.strswab  0x0000000000000000       0x38 lib/built-in.o
 .text.bcopy    0x0000000000000000       0x24 lib/built-in.o
 .text.strlcpy  0x0000000000000000       0x60 lib/built-in.o
 .text.memscan  0x0000000000000000       0x24 lib/built-in.o
 .text.memchr_inv
                0x0000000000000000       0xfc lib/built-in.o
 .text.timer_get_us
                0x0000000000000000       0x1c lib/built-in.o
 .text.uuid_guid_get_str
                0x0000000000000000       0x98 lib/built-in.o
 .text.ustrtoul
                0x0000000000000000       0x88 lib/built-in.o
 .text.__assert_fail
                0x0000000000000000       0x18 lib/built-in.o
 .text.print_grouped_ull
                0x0000000000000000       0x94 lib/built-in.o
 .text.avb_property_descriptor_validate_and_byteswap
                0x0000000000000000      0x308 lib/built-in.o
 .text.property_lookup_desc_foreach
                0x0000000000000000       0xfc lib/built-in.o
 .text.avb_property_lookup
                0x0000000000000000       0x8c lib/built-in.o
 .text.avb_property_lookup_uint64
                0x0000000000000000      0x108 lib/built-in.o
 .text.avb_slot_verify_result_to_string
                0x0000000000000000       0x64 lib/built-in.o
 .text.avb_print
                0x0000000000000000       0x10 lib/built-in.o
 .text.avb_htobe64
                0x0000000000000000       0x48 lib/built-in.o
 .text.avb_version_string
                0x0000000000000000        0xc lib/built-in.o
 .text.srand    0x0000000000000000       0x10 lib/built-in.o
 .rodata.z_errmsg
                0x0000000000000000       0x50 lib/built-in.o
 .rodata.fdt_find_regions
                0x0000000000000000        0xc lib/built-in.o
 .rodata.crc7_syndrome_table
                0x0000000000000000      0x100 lib/built-in.o
 .rodata.CSWTCH.28
                0x0000000000000000       0x48 lib/built-in.o
 .data          0x0000000000000000        0x0 lib/built-in.o
 .data.cur      0x0000000000000000        0x8 lib/built-in.o
 .data.current  0x0000000000000000        0x8 lib/built-in.o
 .bss           0x0000000000000000        0x0 lib/built-in.o
 .bss.___strtok
                0x0000000000000000        0x8 lib/built-in.o
 .text          0x0000000000000000        0x0 net/built-in.o
 .text.eth_get_dev_by_name
                0x0000000000000000       0x94 net/built-in.o
 .text.eth_get_dev_by_index
                0x0000000000000000       0x44 net/built-in.o
 .text.eth_unregister
                0x0000000000000000       0xb0 net/built-in.o
 .text.net_get_udp_handler
                0x0000000000000000       0x10 net/built-in.o
 .text.net_set_arp_handler
                0x0000000000000000       0x1c net/built-in.o
 .text.VLAN_to_string
                0x0000000000000000       0x3c net/built-in.o
 .rodata.__FUNCTION__.6247
                0x0000000000000000       0x18 net/built-in.o
 .data          0x0000000000000000        0x0 net/built-in.o
 .data.TftpRRQTimeoutMSecs
                0x0000000000000000        0x8 net/built-in.o
 .bss           0x0000000000000000        0x0 net/built-in.o
 .bss.net_busy_flag
                0x0000000000000000        0x4 net/built-in.o

Memory Configuration

Name             Origin             Length             Attributes
*default*        0x0000000000000000 0xffffffffffffffff

Linker script and memory map

Address of section .text set to 0x1000000
                0x0000000000000000                . = 0x0
                0x0000000000000000                . = ALIGN (0x8)

.text           0x0000000001000000    0xd1338
 *(.__image_copy_start)
 .__image_copy_start
                0x0000000001000000        0x0 arch/arm/lib/built-in.o
                0x0000000001000000                __image_copy_start
 arch/arm/cpu/armv8/start.o(.text*)
 .text          0x0000000001000000      0x138 arch/arm/cpu/armv8/start.o
                0x0000000001000000                _start
                0x0000000001000008                _TEXT_BASE
                0x0000000001000010                _end_ofs
                0x0000000001000018                _bss_start_ofs
                0x0000000001000020                _bss_end_ofs
                0x00000000010000b8                lowlevel_init
                0x00000000010000e0                smp_kick_all_cpus
                0x00000000010000ec                c_runtime_cpu_setup
 *(.text*)
 *fill*         0x0000000001000138      0x6c8 
 .text          0x0000000001000800      0xac4 arch/arm/cpu/armv8/built-in.o
                0x0000000001000800                vectors
                0x0000000001001000                __asm_flush_dcache_level
                0x0000000001001064                __asm_dcache_all
                0x00000000010010c4                __asm_flush_dcache_all
                0x00000000010010d8                __asm_invalidate_dcache_all
                0x00000000010010ec                __asm_flush_dcache_range
                0x0000000001001120                __asm_invalidate_icache_all
                0x000000000100112c                __asm_invalidate_tlb_all
                0x0000000001001178                armv8_switch_to_el2
                0x00000000010011d8                armv8_switch_to_el1
                0x0000000001001264                jump_to_a32_kernel
 .text.cleanup_before_linux
                0x00000000010012c4       0x28 arch/arm/cpu/armv8/built-in.o
                0x00000000010012c4                cleanup_before_linux
 .text.get_tbclk
                0x00000000010012ec        0x8 arch/arm/cpu/armv8/built-in.o
                0x00000000010012ec                get_tbclk
 .text.timer_read_counter
                0x00000000010012f4        0xc arch/arm/cpu/armv8/built-in.o
                0x00000000010012f4                timer_read_counter
 .text.mmu_setup
                0x0000000001001300      0x220 arch/arm/cpu/armv8/built-in.o
                0x0000000001001300                mmu_setup
 .text.invalidate_dcache_all
                0x0000000001001520        0x4 arch/arm/cpu/armv8/built-in.o
                0x0000000001001520                invalidate_dcache_all
 .text.flush_l3_cache
                0x0000000001001524        0x4 arch/arm/cpu/armv8/built-in.o
                0x0000000001001524                flush_l3_cache
 .text.flush_dcache_all
                0x0000000001001528       0x14 arch/arm/cpu/armv8/built-in.o
                0x0000000001001528                flush_dcache_all
 .text.invalidate_dcache_range
                0x000000000100153c        0x4 arch/arm/cpu/armv8/built-in.o
                0x000000000100153c                invalidate_dcache_range
 .text.flush_dcache_range
                0x0000000001001540        0x4 arch/arm/cpu/armv8/built-in.o
                0x0000000001001540                flush_dcache_range
 .text.dcache_enable
                0x0000000001001544       0xac arch/arm/cpu/armv8/built-in.o
                0x0000000001001544                dcache_enable
 .text.dcache_disable
                0x00000000010015f0       0x88 arch/arm/cpu/armv8/built-in.o
                0x00000000010015f0                dcache_disable
 .text.dcache_status
                0x0000000001001678       0x34 arch/arm/cpu/armv8/built-in.o
                0x0000000001001678                dcache_status
 .text.icache_enable
                0x00000000010016ac       0x74 arch/arm/cpu/armv8/built-in.o
                0x00000000010016ac                icache_enable
 .text.icache_disable
                0x0000000001001720       0x64 arch/arm/cpu/armv8/built-in.o
                0x0000000001001720                icache_disable
 .text.icache_status
                0x0000000001001784       0x34 arch/arm/cpu/armv8/built-in.o
                0x0000000001001784                icache_status
 .text.invalidate_icache_all
                0x00000000010017b8        0x4 arch/arm/cpu/armv8/built-in.o
                0x00000000010017b8                invalidate_icache_all
 .text.enable_caches
                0x00000000010017bc       0x14 arch/arm/cpu/armv8/built-in.o
                0x00000000010017bc                enable_caches
 .text.flush_cache
                0x00000000010017d0        0x8 arch/arm/cpu/armv8/built-in.o
                0x00000000010017d0                flush_cache
 .text.get_cpu_id
                0x00000000010017d8       0x34 arch/arm/cpu/armv8/built-in.o
                0x00000000010017d8                get_cpu_id
 .text.get_chip_id
                0x000000000100180c       0x84 arch/arm/cpu/armv8/built-in.o
                0x000000000100180c                get_chip_id
 .text.clk_get_rate
                0x0000000001001890       0x38 arch/arm/cpu/armv8/built-in.o
                0x0000000001001890                clk_get_rate
 .text.clk_util_clk_msr
                0x00000000010018c8       0xf0 arch/arm/cpu/armv8/built-in.o
                0x00000000010018c8                clk_util_clk_msr
 .text.get_clk81
                0x00000000010019b8       0x50 arch/arm/cpu/armv8/built-in.o
                0x00000000010019b8                get_clk81
 .text.clk_msr  0x0000000001001a08      0x124 arch/arm/cpu/armv8/built-in.o
                0x0000000001001a08                clk_msr
 .text.cpu_sd_emmc_pwr_prepare
                0x0000000001001b2c        0x4 arch/arm/cpu/armv8/built-in.o
                0x0000000001001b2c                cpu_sd_emmc_pwr_prepare
 .text.cpu_sd_emmc_init
                0x0000000001001b30      0x270 arch/arm/cpu/armv8/built-in.o
                0x0000000001001b30                cpu_sd_emmc_init
 .text.sd_emmc_detect
                0x0000000001001da0      0x208 arch/arm/cpu/armv8/built-in.o
                0x0000000001001da0                sd_emmc_detect
 .text.sd_emmc_para_config
                0x0000000001001fa8       0x54 arch/arm/cpu/armv8/built-in.o
                0x0000000001001fa8                sd_emmc_para_config
 .text.clear_pinmux
                0x0000000001001ffc       0x4c arch/arm/cpu/armv8/built-in.o
                0x0000000001001ffc                clear_pinmux
 .text.board_usb_start
                0x0000000001002048      0x134 arch/arm/cpu/armv8/built-in.o
                0x0000000001002048                board_usb_start
 .text.board_usb_init
                0x000000000100217c       0x64 arch/arm/cpu/armv8/built-in.o
                0x000000000100217c                board_usb_init
 .text.get_usb_count
                0x00000000010021e0       0x10 arch/arm/cpu/armv8/built-in.o
                0x00000000010021e0                get_usb_count
 .text.set_usb_pll
                0x00000000010021f0       0xc8 arch/arm/cpu/armv8/built-in.o
                0x00000000010021f0                set_usb_pll
 .text.board_usb_pll_disable
                0x00000000010022b8       0x50 arch/arm/cpu/armv8/built-in.o
                0x00000000010022b8                board_usb_pll_disable
 .text.set_usb_phy_tuning_1
                0x0000000001002308       0x48 arch/arm/cpu/armv8/built-in.o
                0x0000000001002308                set_usb_phy_tuning_1
 .text.get_sharemem_info
                0x0000000001002350        0x8 arch/arm/cpu/armv8/built-in.o
                0x0000000001002350                get_sharemem_info
 .text.meson_trustzone_efuse
                0x0000000001002358      0x110 arch/arm/cpu/armv8/built-in.o
                0x0000000001002358                meson_trustzone_efuse
 .text.meson_trustzone_efuse_get_max
                0x0000000001002468       0x30 arch/arm/cpu/armv8/built-in.o
                0x0000000001002468                meson_trustzone_efuse_get_max
 .text.aml_set_jtag_state
                0x0000000001002498       0x1c arch/arm/cpu/armv8/built-in.o
                0x0000000001002498                aml_set_jtag_state
 .text.set_viu_probe_enable
                0x00000000010024b4       0x10 arch/arm/cpu/armv8/built-in.o
                0x00000000010024b4                set_viu_probe_enable
 .text.aml_reboot
                0x00000000010024c4       0x10 arch/arm/cpu/armv8/built-in.o
                0x00000000010024c4                aml_reboot
 .text.aml_sec_boot_check
                0x00000000010024d4       0x54 arch/arm/cpu/armv8/built-in.o
                0x00000000010024d4                aml_sec_boot_check
 .text.set_usb_boot_function
                0x0000000001002528       0x14 arch/arm/cpu/armv8/built-in.o
                0x0000000001002528                set_usb_boot_function
 .text.aml_system_off
                0x000000000100253c       0x3c arch/arm/cpu/armv8/built-in.o
                0x000000000100253c                aml_system_off
 .text.__get_chip_id
                0x0000000001002578      0x10c arch/arm/cpu/armv8/built-in.o
                0x0000000001002578                __get_chip_id
 .text.set_pwm_to_input
                0x0000000001002684       0x58 arch/arm/cpu/armv8/built-in.o
                0x0000000001002684                set_pwm_to_input
 .text.reset_system
                0x00000000010026dc       0x90 arch/arm/cpu/armv8/built-in.o
                0x00000000010026dc                reset_system
 .text.reset_cpu
                0x000000000100276c        0xc arch/arm/cpu/armv8/built-in.o
                0x000000000100276c                reset_cpu
 .text.hd_read_reg
                0x0000000001002778       0x30 arch/arm/cpu/armv8/built-in.o
                0x0000000001002778                hd_read_reg
 .text.hd_write_reg
                0x00000000010027a8       0x28 arch/arm/cpu/armv8/built-in.o
                0x00000000010027a8                hd_write_reg
 .text.hd_set_reg_bits
                0x00000000010027d0       0x5c arch/arm/cpu/armv8/built-in.o
                0x00000000010027d0                hd_set_reg_bits
 .text.hdmitx_rd_reg
                0x000000000100282c       0x3c arch/arm/cpu/armv8/built-in.o
                0x000000000100282c                hdmitx_rd_reg
 .text.hdmitx_wr_reg
                0x0000000001002868       0x30 arch/arm/cpu/armv8/built-in.o
                0x0000000001002868                hdmitx_wr_reg
 .text.hdmitx_set_reg_bits
                0x0000000001002898       0x5c arch/arm/cpu/armv8/built-in.o
                0x0000000001002898                hdmitx_set_reg_bits
 .text.hdmitx_rd_check_reg
                0x00000000010028f4       0x78 arch/arm/cpu/armv8/built-in.o
                0x00000000010028f4                hdmitx_rd_check_reg
 .text.hdmitx_turnoff
                0x000000000100296c       0x4c arch/arm/cpu/armv8/built-in.o
 .text.hdmitx_get_hpd_state
                0x00000000010029b8       0x20 arch/arm/cpu/armv8/built-in.o
 .text.hdmitx_list_support_modes
                0x00000000010029d8       0x50 arch/arm/cpu/armv8/built-in.o
 .text.dump_regs
                0x0000000001002a28      0x188 arch/arm/cpu/armv8/built-in.o
 .text.scdc_wr_sink
                0x0000000001002bb0       0x64 arch/arm/cpu/armv8/built-in.o
 .text.hdmitx_set_packet
                0x0000000001002c14      0x2b4 arch/arm/cpu/armv8/built-in.o
 .text.hdmitx_output_blank
                0x0000000001002ec8       0x34 arch/arm/cpu/armv8/built-in.o
 .text.hdmitx_hw_init
                0x0000000001002efc       0xc0 arch/arm/cpu/armv8/built-in.o
 .text.ddc_init
                0x0000000001002fbc      0x174 arch/arm/cpu/armv8/built-in.o
 .text.hdmitx_read_edid
                0x0000000001003130      0x130 arch/arm/cpu/armv8/built-in.o
 .text.set_phy_by_mode.isra.4
                0x0000000001003260      0x130 arch/arm/cpu/armv8/built-in.o
 .text.hdmitx_cntl_config.isra.5.part.6
                0x0000000001003390       0x80 arch/arm/cpu/armv8/built-in.o
 .text.hdmitx_cntl_config.isra.5
                0x0000000001003410       0x94 arch/arm/cpu/armv8/built-in.o
 .text.scdc_rd_sink.constprop.11
                0x00000000010034a4       0x64 arch/arm/cpu/armv8/built-in.o
 .text.hdmitx_test_bist
                0x0000000001003508      0x168 arch/arm/cpu/armv8/built-in.o
 .text.set_tmds_clk_div40
                0x0000000001003670      0x128 arch/arm/cpu/armv8/built-in.o
 .text.hdmi_tx_init
                0x0000000001003798       0x94 arch/arm/cpu/armv8/built-in.o
                0x0000000001003798                hdmi_tx_init
 .text.hdmi_outputmode_check
                0x000000000100382c       0xa0 arch/arm/cpu/armv8/built-in.o
                0x000000000100382c                hdmi_outputmode_check
 .text.hdmitx_set_dith
                0x00000000010038cc       0xf4 arch/arm/cpu/armv8/built-in.o
                0x00000000010038cc                hdmitx_set_dith
 .text.hdmi_tx_set
                0x00000000010039c0     0x28b8 arch/arm/cpu/armv8/built-in.o
                0x00000000010039c0                hdmi_tx_set
 .text.hdmitx_set_drm_pkt
                0x0000000001006278      0x1d4 arch/arm/cpu/armv8/built-in.o
                0x0000000001006278                hdmitx_set_drm_pkt
 .text.hdmitx_set_vsif_pkt
                0x000000000100644c      0x41c arch/arm/cpu/armv8/built-in.o
                0x000000000100644c                hdmitx_set_vsif_pkt
 .text.set_vmode_enc_hw
                0x0000000001006868       0x98 arch/arm/cpu/armv8/built-in.o
                0x0000000001006868                set_vmode_enc_hw
 .text.hdmitx_set_clk_
                0x0000000001006900     0x1ae8 arch/arm/cpu/armv8/built-in.o
                0x0000000001006900                hdmitx_set_clk_
 .text.hdmitx_set_clk
                0x00000000010083e8       0xbc arch/arm/cpu/armv8/built-in.o
                0x00000000010083e8                hdmitx_set_clk
 .text.get_time
                0x00000000010084a4       0x10 arch/arm/cpu/armv8/built-in.o
                0x00000000010084a4                get_time
 .text._udelay  0x00000000010084b4       0x28 arch/arm/cpu/armv8/built-in.o
                0x00000000010084b4                _udelay
 .text.mb_message_start
                0x00000000010084dc       0x18 arch/arm/cpu/armv8/built-in.o
 .text.mb_message_send
                0x00000000010084f4       0x28 arch/arm/cpu/armv8/built-in.o
 .text.mb_message_wait
                0x000000000100851c       0x18 arch/arm/cpu/armv8/built-in.o
 .text.open_scp_log
                0x0000000001008534       0x64 arch/arm/cpu/armv8/built-in.o
                0x0000000001008534                open_scp_log
 .text.thermal_calibration
                0x0000000001008598       0x80 arch/arm/cpu/armv8/built-in.o
                0x0000000001008598                thermal_calibration
 .text.set_boot_first_timeout
                0x0000000001008618       0x54 arch/arm/cpu/armv8/built-in.o
                0x0000000001008618                set_boot_first_timeout
 .text.is_sp_mode
                0x000000000100866c       0x18 arch/arm/cpu/armv8/built-in.o
                0x000000000100866c                is_sp_mode
 .text.get_m4_check_status
                0x0000000001008684       0x2c arch/arm/cpu/armv8/built-in.o
                0x0000000001008684                get_m4_check_status
 .text.bl40_wait_unlock
                0x00000000010086b0       0x48 arch/arm/cpu/armv8/built-in.o
                0x00000000010086b0                bl40_wait_unlock
 .text.send_bl40
                0x00000000010086f8       0xe4 arch/arm/cpu/armv8/built-in.o
                0x00000000010086f8                send_bl40
 .text.ee_gate_off
                0x00000000010087dc        0xc arch/arm/cpu/armv8/built-in.o
                0x00000000010087dc                ee_gate_off
 .text.ee_gate_on
                0x00000000010087e8      0x770 arch/arm/cpu/armv8/built-in.o
                0x00000000010087e8                ee_gate_on
 .text.audiobus_write
                0x0000000001008f58       0x40 arch/arm/cpu/armv8/built-in.o
 .text.audiobus_update_bits
                0x0000000001008f98       0x6c arch/arm/cpu/armv8/built-in.o
 .text.frddr_init_without_mngr
                0x0000000001009004       0xcc arch/arm/cpu/armv8/built-in.o
                0x0000000001009004                frddr_init_without_mngr
 .text.aml_audio_init
                0x00000000010090d0      0x15c arch/arm/cpu/armv8/built-in.o
                0x00000000010090d0                aml_audio_init
 *fill*         0x000000000100922c        0x4 
 .text          0x0000000001009230      0x168 arch/arm/lib/built-in.o
                0x0000000001009230                _main
                0x00000000010092b0                relocate_code
                0x0000000001009388                gic_init_secure
                0x000000000100938c                gic_init_secure_percpu
                0x0000000001009390                gic_kick_secondary_cpus
                0x0000000001009394                gic_wait_for_interrupt
 .text.arch_fixup_fdt
                0x0000000001009398       0x34 arch/arm/lib/built-in.o
                0x0000000001009398                arch_fixup_fdt
 .text.boot_prep_linux
                0x00000000010093cc       0x58 arch/arm/lib/built-in.o
 .text.boot_jump_linux
                0x0000000001009424       0xd0 arch/arm/lib/built-in.o
 .text.arch_lmb_reserve
                0x00000000010094f4       0x24 arch/arm/lib/built-in.o
                0x00000000010094f4                arch_lmb_reserve
 .text.do_bootm_linux
                0x0000000001009518       0x78 arch/arm/lib/built-in.o
                0x0000000001009518                do_bootm_linux
 .text.boot_prep_vxworks
                0x0000000001009590       0x64 arch/arm/lib/built-in.o
                0x0000000001009590                boot_prep_vxworks
 .text.boot_jump_vxworks
                0x00000000010095f4       0x1c arch/arm/lib/built-in.o
                0x00000000010095f4                boot_jump_vxworks
 .text.interrupt_init
                0x0000000001009610        0x8 arch/arm/lib/built-in.o
                0x0000000001009610                interrupt_init
 .text.enable_interrupts
                0x0000000001009618        0x4 arch/arm/lib/built-in.o
                0x0000000001009618                enable_interrupts
 .text.disable_interrupts
                0x000000000100961c        0x8 arch/arm/lib/built-in.o
                0x000000000100961c                disable_interrupts
 .text.show_regs
                0x0000000001009624       0x7c arch/arm/lib/built-in.o
                0x0000000001009624                show_regs
 .text.do_bad_sync
                0x00000000010096a0       0x30 arch/arm/lib/built-in.o
                0x00000000010096a0                do_bad_sync
 .text.do_bad_irq
                0x00000000010096d0       0x30 arch/arm/lib/built-in.o
                0x00000000010096d0                do_bad_irq
 .text.do_bad_fiq
                0x0000000001009700       0x30 arch/arm/lib/built-in.o
                0x0000000001009700                do_bad_fiq
 .text.do_bad_error
                0x0000000001009730       0x30 arch/arm/lib/built-in.o
                0x0000000001009730                do_bad_error
 .text.do_sync  0x0000000001009760       0x30 arch/arm/lib/built-in.o
                0x0000000001009760                do_sync
 .text.do_irq   0x0000000001009790       0x30 arch/arm/lib/built-in.o
                0x0000000001009790                do_irq
 .text.do_fiq   0x00000000010097c0       0x30 arch/arm/lib/built-in.o
                0x00000000010097c0                do_fiq
 .text.do_error
                0x00000000010097f0       0x30 arch/arm/lib/built-in.o
                0x00000000010097f0                do_error
 .text.reset_misc
                0x0000000001009820        0x4 arch/arm/lib/built-in.o
                0x0000000001009820                reset_misc
 .text.do_reset
                0x0000000001009824       0x38 arch/arm/lib/built-in.o
                0x0000000001009824                do_reset
 .text.sd_emmc_pwr_on
                0x000000000100985c        0x4 board/amlogic/sm1_ac214_v1/built-in.o
 .text.sd_emmc_pwr_off
                0x0000000001009860        0x4 board/amlogic/sm1_ac214_v1/built-in.o
 .text.spifc_pinctrl_enable
                0x0000000001009864       0x54 board/amlogic/sm1_ac214_v1/built-in.o
 .text.board_mmc_register
                0x00000000010098b8       0xa0 board/amlogic/sm1_ac214_v1/built-in.o
 .text.sd_emmc_pwr_prepare
                0x0000000001009958        0x4 board/amlogic/sm1_ac214_v1/built-in.o
 .text.sd_emmc_init
                0x000000000100995c       0x7c board/amlogic/sm1_ac214_v1/built-in.o
 .text.gpio_set_vbus_power
                0x00000000010099d8       0x60 board/amlogic/sm1_ac214_v1/built-in.o
 .text.serial_set_pin_port
                0x0000000001009a38        0x8 board/amlogic/sm1_ac214_v1/built-in.o
                0x0000000001009a38                serial_set_pin_port
 .text.dram_init
                0x0000000001009a40       0x10 board/amlogic/sm1_ac214_v1/built-in.o
                0x0000000001009a40                dram_init
 .text.secondary_boot_func
                0x0000000001009a50        0x4 board/amlogic/sm1_ac214_v1/built-in.o
                0x0000000001009a50                secondary_boot_func
 .text.board_eth_init
                0x0000000001009a54      0x1b4 board/amlogic/sm1_ac214_v1/built-in.o
                0x0000000001009a54                board_eth_init
 .text.board_mmc_init
                0x0000000001009c08       0x24 board/amlogic/sm1_ac214_v1/built-in.o
                0x0000000001009c08                board_mmc_init
 .text.get_aml_mtd_partition
                0x0000000001009c2c        0xc board/amlogic/sm1_ac214_v1/built-in.o
                0x0000000001009c2c                get_aml_mtd_partition
 .text.get_aml_partition_count
                0x0000000001009c38        0x8 board/amlogic/sm1_ac214_v1/built-in.o
                0x0000000001009c38                get_aml_partition_count
 .text.board_init
                0x0000000001009c40       0x7c board/amlogic/sm1_ac214_v1/built-in.o
                0x0000000001009c40                board_init
 .text.aml_config_dtb
                0x0000000001009cbc      0x26c board/amlogic/sm1_ac214_v1/built-in.o
                0x0000000001009cbc                aml_config_dtb
 .text.board_late_init
                0x0000000001009f28      0x138 board/amlogic/sm1_ac214_v1/built-in.o
                0x0000000001009f28                board_late_init
 .text.get_effective_memsize
                0x000000000100a060       0x20 board/amlogic/sm1_ac214_v1/built-in.o
                0x000000000100a060                get_effective_memsize
 .text.checkhw  0x000000000100a080      0x18c board/amlogic/sm1_ac214_v1/built-in.o
                0x000000000100a080                checkhw
 .text.show_boot_progress
                0x000000000100a20c        0x4 common/built-in.o
                0x000000000100a20c                show_boot_progress
 .text.main_loop
                0x000000000100a210       0x40 common/built-in.o
                0x000000000100a210                main_loop
 .text.dummy    0x000000000100a250        0x4 common/built-in.o
 .text.get_version
                0x000000000100a254        0x8 common/built-in.o
                0x000000000100a254                get_version
 .text.jumptable_init
                0x000000000100a25c      0x1c8 common/built-in.o
                0x000000000100a25c                jumptable_init
 .text.hash_finish_crc32
                0x000000000100a424       0x38 common/built-in.o
 .text.hash_update_crc32
                0x000000000100a45c       0x34 common/built-in.o
 .text.hash_init_crc32
                0x000000000100a490       0x2c common/built-in.o
 .text.hash_finish_sha256
                0x000000000100a4bc       0x48 common/built-in.o
 .text.hash_update_sha256
                0x000000000100a504       0x24 common/built-in.o
 .text.hash_init_sha256
                0x000000000100a528       0x38 common/built-in.o
 .text.hash_lookup_algo
                0x000000000100a560       0x70 common/built-in.o
                0x000000000100a560                hash_lookup_algo
 .text.hash_show
                0x000000000100a5d0       0x74 common/built-in.o
                0x000000000100a5d0                hash_show
 .text.hash_command
                0x000000000100a644      0x1a8 common/built-in.o
                0x000000000100a644                hash_command
 .text.b_reset  0x000000000100a7ec       0x18 common/built-in.o
 .text.static_get
                0x000000000100a804       0x1c common/built-in.o
 .text.static_peek
                0x000000000100a820        0xc common/built-in.o
 .text.file_peek
                0x000000000100a82c        0xc common/built-in.o
 .text.mapset   0x000000000100a838       0x20 common/built-in.o
 .text.syntax_err
                0x000000000100a858        0xc common/built-in.o
 .text.free_pipe_list
                0x000000000100a864       0xf8 common/built-in.o
 .text.xmalloc  0x000000000100a95c       0x28 common/built-in.o
 .text.new_pipe
                0x000000000100a984       0x2c common/built-in.o
 .text.xrealloc
                0x000000000100a9b0       0x28 common/built-in.o
 .text.done_command
                0x000000000100a9d8       0x94 common/built-in.o
 .text.done_pipe
                0x000000000100aa6c       0x58 common/built-in.o
 .text.done_word
                0x000000000100aac4      0x2ac common/built-in.o
 .text.do_showvar
                0x000000000100ad70      0x130 common/built-in.o
 .text.is_assignment
                0x000000000100aea0       0x54 common/built-in.o
 .text.file_get
                0x000000000100aef4      0x218 common/built-in.o
 .text.b_addchr
                0x000000000100b10c       0x90 common/built-in.o
 .text.b_addqchr
                0x000000000100b19c       0x58 common/built-in.o
 .text.get_local_var
                0x000000000100b1f4       0xa0 common/built-in.o
                0x000000000100b1f4                get_local_var
 .text.set_local_var
                0x000000000100b294      0x1bc common/built-in.o
                0x000000000100b294                set_local_var
 .text.insert_var_value_sub
                0x000000000100b450      0x2b0 common/built-in.o
 .text.parse_string_outer
                0x000000000100b700      0x104 common/built-in.o
                0x000000000100b700                parse_string_outer
 .text.run_list_real
                0x000000000100b804      0x7b0 common/built-in.o
 .text.parse_stream_outer
                0x000000000100bfb4      0x6f0 common/built-in.o
 .text.parse_file_outer
                0x000000000100c6a4       0x44 common/built-in.o
                0x000000000100c6a4                parse_file_outer
 .text.u_boot_hush_start
                0x000000000100c6e8       0x60 common/built-in.o
                0x000000000100c6e8                u_boot_hush_start
 .text.bootdelay_process
                0x000000000100c748       0x84 common/built-in.o
                0x000000000100c748                bootdelay_process
 .text.autoboot_command
                0x000000000100c7cc      0x160 common/built-in.o
                0x000000000100c7cc                autoboot_command
 .text.print_cpuinfo
                0x000000000100c92c        0x8 common/built-in.o
 .text.display_text_info
                0x000000000100c934        0x8 common/built-in.o
 .text.setup_mon_len
                0x000000000100c93c       0x20 common/built-in.o
 .text.arch_cpu_init
                0x000000000100c95c        0x8 common/built-in.o
                0x000000000100c95c                arch_cpu_init
 .text.setup_fdt
                0x000000000100c964        0x8 common/built-in.o
 .text.reserve_round_4k
                0x000000000100c96c       0x14 common/built-in.o
 .text.reserve_mmu
                0x000000000100c980       0x34 common/built-in.o
 .text.reserve_trace
                0x000000000100c9b4        0x8 common/built-in.o
 .text.reserve_uboot
                0x000000000100c9bc       0x2c common/built-in.o
 .text.reserve_malloc
                0x000000000100c9e8       0x1c common/built-in.o
 .text.setup_machine
                0x000000000100ca04        0x8 common/built-in.o
 .text.reserve_global_data
                0x000000000100ca0c       0x1c common/built-in.o
 .text.reserve_fdt
                0x000000000100ca28       0x48 common/built-in.o
 .text.reserve_stacks
                0x000000000100ca70       0x28 common/built-in.o
 .text.display_new_sp
                0x000000000100ca98        0x8 common/built-in.o
 .text.initf_malloc
                0x000000000100caa0        0x8 common/built-in.o
 .text.initf_dm
                0x000000000100caa8        0x8 common/built-in.o
 .text.reloc_fdt
                0x000000000100cab0       0x34 common/built-in.o
 .text.setup_reloc
                0x000000000100cae4       0x44 common/built-in.o
 .text.announce_dram_init
                0x000000000100cb28       0x20 common/built-in.o
 .text.init_baud_rate
                0x000000000100cb48       0x3c common/built-in.o
 .text.mark_bootstage
                0x000000000100cb84       0x1c common/built-in.o
 .text.reserve_board
                0x000000000100cba0       0x3c common/built-in.o
 .text.board_add_ram_info
                0x000000000100cbdc        0x4 common/built-in.o
                0x000000000100cbdc                board_add_ram_info
 .text.show_dram_config
                0x000000000100cbe0       0x6c common/built-in.o
 .text.dram_init_banksize
                0x000000000100cc4c       0x2c common/built-in.o
                0x000000000100cc4c                dram_init_banksize
 .text.setup_dram_config
                0x000000000100cc78       0x18 common/built-in.o
 .text.board_get_usable_ram_top
                0x000000000100cc90        0x8 common/built-in.o
                0x000000000100cc90                board_get_usable_ram_top
 .text.setup_dest_addr
                0x000000000100cc98       0x7c common/built-in.o
 .text.board_init_f
                0x000000000100cd14       0x4c common/built-in.o
                0x000000000100cd14                board_init_f
 .text.bootstage_relocate
                0x000000000100cd60        0x8 common/built-in.o
 .text.initr_trace
                0x000000000100cd68        0x8 common/built-in.o
 .text.initr_reloc_global_data
                0x000000000100cd70       0x28 common/built-in.o
 .text.initr_barrier
                0x000000000100cd98        0x8 common/built-in.o
 .text.power_init_board
                0x000000000100cda0        0x8 common/built-in.o
                0x000000000100cda0                power_init_board
 .text.initr_announce
                0x000000000100cda8        0x8 common/built-in.o
 .text.run_main_loop
                0x000000000100cdb0       0x10 common/built-in.o
 .text.initr_net
                0x000000000100cdc0       0x28 common/built-in.o
 .text.initr_ethaddr
                0x000000000100cde8       0x28 common/built-in.o
 .text.initr_enable_interrupts
                0x000000000100ce10       0x18 common/built-in.o
 .text.initr_jumptable
                0x000000000100ce28       0x18 common/built-in.o
 .text.initr_env
                0x000000000100ce40       0x3c common/built-in.o
 .text.initr_mmc
                0x000000000100ce7c       0x28 common/built-in.o
 .text.initr_nand
                0x000000000100cea4       0x24 common/built-in.o
 .text.initr_serial
                0x000000000100cec8       0x18 common/built-in.o
 .text.initr_dm
                0x000000000100cee0       0x14 common/built-in.o
 .text.initr_malloc
                0x000000000100cef4       0x2c common/built-in.o
 .text.initr_caches
                0x000000000100cf20       0x18 common/built-in.o
 .text.initr_reloc
                0x000000000100cf38       0x2c common/built-in.o
 .text.cpu_secondary_init_r
                0x000000000100cf64        0x4 common/built-in.o
                0x000000000100cf64                cpu_secondary_init_r
 .text.initr_secondary_cpu
                0x000000000100cf68       0x18 common/built-in.o
 .text.board_init_r
                0x000000000100cf80       0x18 common/built-in.o
                0x000000000100cf80                board_init_r
 .text.do_go_exec
                0x000000000100cf98       0x20 common/built-in.o
                0x000000000100cf98                do_go_exec
 .text.do_go    0x000000000100cfb8       0x88 common/built-in.o
 .text.do_bootm
                0x000000000100d040      0x420 common/built-in.o
                0x000000000100d040                do_bootm
 .text.do_booti
                0x000000000100d460      0x168 common/built-in.o
                0x000000000100d460                do_booti
 .text.bootm_maybe_autostart
                0x000000000100d5c8       0x84 common/built-in.o
                0x000000000100d5c8                bootm_maybe_autostart
 .text.bootm_find_ramdisk_fdt
                0x000000000100d64c      0x514 common/built-in.o
                0x000000000100d64c                bootm_find_ramdisk_fdt
 .text.bootm_disable_interrupts
                0x000000000100db60       0x28 common/built-in.o
                0x000000000100db60                bootm_disable_interrupts
 .text.do_bootm_states
                0x000000000100db88      0xb98 common/built-in.o
                0x000000000100db88                do_bootm_states
 .text.copy_args
                0x000000000100e720       0x74 common/built-in.o
 .text.do_bootm_rtems
                0x000000000100e794       0x58 common/built-in.o
 .text.do_bootm_plan9
                0x000000000100e7ec       0xc4 common/built-in.o
 .text.do_bootm_standalone
                0x000000000100e8b0       0x94 common/built-in.o
 .text.do_bootm_netbsd
                0x000000000100e944      0x124 common/built-in.o
 .text.do_bootvx_fdt
                0x000000000100ea68      0x114 common/built-in.o
                0x000000000100ea68                do_bootvx_fdt
 .text.do_bootm_vxworks
                0x000000000100eb7c       0x3c common/built-in.o
 .text.arch_preboot_os
                0x000000000100ebb8        0x4 common/built-in.o
                0x000000000100ebb8                arch_preboot_os
 .text.boot_selected_os
                0x000000000100ebbc       0x74 common/built-in.o
                0x000000000100ebbc                boot_selected_os
 .text.bootm_os_get_boot_func
                0x000000000100ec30       0x10 common/built-in.o
                0x000000000100ec30                bootm_os_get_boot_func
 .text.do_help  0x000000000100ec40       0x40 common/built-in.o
 .text.do_bootloadr_version
                0x000000000100ec80       0x44 common/built-in.o
 *fill*         0x000000000100ecc4        0x4 
 .text.do_version
                0x000000000100ecc8       0x48 common/built-in.o
 .text.get_partition_count
                0x000000000100ed10       0x10 common/built-in.o
                0x000000000100ed10                get_partition_count
 .text.get_partitions
                0x000000000100ed20       0x10 common/built-in.o
                0x000000000100ed20                get_partitions
 .text.free_partitions
                0x000000000100ed30       0x38 common/built-in.o
                0x000000000100ed30                free_partitions
 .text.get_partition_from_dts
                0x000000000100ed68      0x3e4 common/built-in.o
                0x000000000100ed68                get_partition_from_dts
 .text.env_attr_walk
                0x000000000100f14c      0x12c common/built-in.o
                0x000000000100f14c                env_attr_walk
 .text.env_attr_lookup
                0x000000000100f278      0x1ac common/built-in.o
                0x000000000100f278                env_attr_lookup
 .text.clear_callback
                0x000000000100f424        0xc common/built-in.o
 .text.find_env_callback
                0x000000000100f430       0x74 common/built-in.o
 .text.on_callbacks
                0x000000000100f4a4       0x58 common/built-in.o
 .text.set_callback
                0x000000000100f4fc       0x90 common/built-in.o
 .text.env_callback_init
                0x000000000100f58c       0xc8 common/built-in.o
                0x000000000100f58c                env_callback_init
 .text.skip_num
                0x000000000100f654       0x70 common/built-in.o
 .text.clear_flags
                0x000000000100f6c4        0xc common/built-in.o
 .text.on_flags
                0x000000000100f6d0       0x58 common/built-in.o
 .text.env_flags_parse_vartype
                0x000000000100f728       0x64 common/built-in.o
                0x000000000100f728                env_flags_parse_vartype
 .text.env_flags_parse_varaccess
                0x000000000100f78c       0x70 common/built-in.o
                0x000000000100f78c                env_flags_parse_varaccess
 .text.set_flags
                0x000000000100f7fc       0xac common/built-in.o
 .text.env_flags_init
                0x000000000100f8a8       0xd8 common/built-in.o
                0x000000000100f8a8                env_flags_init
 .text.env_flags_validate
                0x000000000100f980      0x31c common/built-in.o
                0x000000000100f980                env_flags_validate
 .text.init_mmc_for_env
                0x000000000100fc9c       0x38 common/built-in.o
 .text.mmc_get_env_addr
                0x000000000100fcd4       0x74 common/built-in.o
                0x000000000100fcd4                mmc_get_env_addr
 .text.mmc_saveenv
                0x000000000100fd48      0x110 common/built-in.o
                0x000000000100fd48                mmc_saveenv
 .text.mmc_env_relocate_spec
                0x000000000100fe58       0xd0 common/built-in.o
                0x000000000100fe58                mmc_env_relocate_spec
 .text.env_init
                0x000000000100ff28       0x1c common/built-in.o
                0x000000000100ff28                env_init
 .text.saveenv  0x000000000100ff44       0x54 common/built-in.o
                0x000000000100ff44                saveenv
 .text.env_relocate_spec
                0x000000000100ff98       0x38 common/built-in.o
                0x000000000100ff98                env_relocate_spec
 .text.amlnand_saveenv
                0x000000000100ffd0       0x48 common/built-in.o
                0x000000000100ffd0                amlnand_saveenv
 .text.amlnand_env_relocate_spec
                0x0000000001010018       0x74 common/built-in.o
                0x0000000001010018                amlnand_env_relocate_spec
 .text.autoscript
                0x000000000101008c      0x20c common/built-in.o
                0x000000000101008c                autoscript
 .text.do_autoscript
                0x0000000001010298       0x78 common/built-in.o
                0x0000000001010298                do_autoscript
 .text.do_bmp   0x0000000001010310       0x68 common/built-in.o
 .text.do_bmp_scale
                0x0000000001010378       0x34 common/built-in.o
 .text.do_bmp_info
                0x00000000010103ac      0x108 common/built-in.o
 .text.bmp_display
                0x00000000010104b4       0x40 common/built-in.o
                0x00000000010104b4                bmp_display
 .text.do_bmp_display
                0x00000000010104f4       0xe0 common/built-in.o
 .text.parse_argv
                0x00000000010105d4       0x64 common/built-in.o
 .text.do_icache
                0x0000000001010638       0x8c common/built-in.o
 .text.do_dcache
                0x00000000010106c4       0x8c common/built-in.o
 .text.do_saradc
                0x0000000001010750       0x78 common/built-in.o
 .text.do_saradc_12bit
                0x00000000010107c8       0x78 common/built-in.o
 .text.do_saradc_get_in_range
                0x0000000001010840       0xd4 common/built-in.o
 .text.do_saradc_test
                0x0000000001010914       0x18 common/built-in.o
 .text.do_saradc_getval
                0x000000000101092c       0x68 common/built-in.o
 .text.do_saradc_close
                0x0000000001010994       0x34 common/built-in.o
 .text.do_saradc_open
                0x00000000010109c8       0x60 common/built-in.o
 .text.do_saradc_get_in_range_12bit
                0x0000000001010a28       0xd4 common/built-in.o
 .text.do_saradc_getval_12bit
                0x0000000001010afc       0x68 common/built-in.o
 .text.do_forceupdate
                0x0000000001010b64       0x68 common/built-in.o
 .text.do_echo  0x0000000001010bcc       0xe4 common/built-in.o
 .text.do_exit  0x0000000001010cb0       0x38 common/built-in.o
 .text.do_ext4_size
                0x0000000001010ce8        0x8 common/built-in.o
                0x0000000001010ce8                do_ext4_size
 .text.do_ext4_load
                0x0000000001010cf0        0x8 common/built-in.o
                0x0000000001010cf0                do_ext4_load
 .text.do_ext4_ls
                0x0000000001010cf8        0x8 common/built-in.o
                0x0000000001010cf8                do_ext4_ls
 .text.do_fat_size
                0x0000000001010d00        0x8 common/built-in.o
                0x0000000001010d00                do_fat_size
 .text.do_fat_fsload
                0x0000000001010d08        0x8 common/built-in.o
                0x0000000001010d08                do_fat_fsload
 .text.do_fat_ls
                0x0000000001010d10        0x8 common/built-in.o
 .text.do_fat_fsinfo
                0x0000000001010d18       0x9c common/built-in.o
 .text.fdt_valid
                0x0000000001010db4       0xcc common/built-in.o
 .text.is_printable_string
                0x0000000001010e80       0x8c common/built-in.o
 .text.print_data
                0x0000000001010f0c      0x1d0 common/built-in.o
 .text.set_working_fdt_addr
                0x00000000010110dc       0x1c common/built-in.o
                0x00000000010110dc                set_working_fdt_addr
 .text.do_fdt   0x00000000010110f8      0xf94 common/built-in.o
 .text.fdt_find_and_setprop
                0x000000000101208c       0xac common/built-in.o
                0x000000000101208c                fdt_find_and_setprop
 .text.fdt_find_or_add_subnode
                0x0000000001012138       0x7c common/built-in.o
                0x0000000001012138                fdt_find_or_add_subnode
 .text.fdt_initrd
                0x00000000010121b4      0x1d0 common/built-in.o
                0x00000000010121b4                fdt_initrd
 .text.fdt_chosen
                0x0000000001012384       0xbc common/built-in.o
                0x0000000001012384                fdt_chosen
 .text.do_fixup_by_path
                0x0000000001012440       0x4c common/built-in.o
                0x0000000001012440                do_fixup_by_path
 .text.fdt_fixup_memory_banks
                0x000000000101248c      0x228 common/built-in.o
                0x000000000101248c                fdt_fixup_memory_banks
 .text.fdt_fixup_memory
                0x00000000010126b4       0x2c common/built-in.o
                0x00000000010126b4                fdt_fixup_memory
 .text.fdt_fixup_ethernet
                0x00000000010126e0      0x1a8 common/built-in.o
                0x00000000010126e0                fdt_fixup_ethernet
 .text.fdt_shrink_to_minimum
                0x0000000001012888       0xc4 common/built-in.o
                0x0000000001012888                fdt_shrink_to_minimum
 .text.android_dt_check_header
                0x000000000101294c       0x1c common/built-in.o
                0x000000000101294c                android_dt_check_header
 .text.android_dt_get_totalsize
                0x0000000001012968        0xc common/built-in.o
                0x0000000001012968                android_dt_get_totalsize
 .text.android_dt_get_fdt_by_index
                0x0000000001012974       0x80 common/built-in.o
                0x0000000001012974                android_dt_get_fdt_by_index
 .text.android_dt_print_contents
                0x00000000010129f4      0x254 common/built-in.o
                0x00000000010129f4                android_dt_print_contents
 .text.get_multi_dt_entry
                0x0000000001012c48      0x4b0 common/built-in.o
                0x0000000001012c48                get_multi_dt_entry
 .text.check_valid_dts
                0x00000000010130f8      0x114 common/built-in.o
                0x00000000010130f8                check_valid_dts
 .text.gpio_get_description
                0x000000000101320c       0xcc common/built-in.o
 .text.do_gpio  0x00000000010132d8      0x2e0 common/built-in.o
 .text.do_i2c   0x00000000010135b8       0x70 common/built-in.o
 .text.do_i2c_reset
                0x0000000001013628       0x24 common/built-in.o
 .text.do_i2c_probe
                0x000000000101364c       0xb0 common/built-in.o
 .text.get_alen.constprop.4
                0x00000000010136fc       0x38 common/built-in.o
 .text.do_i2c_read
                0x0000000001013734       0xd8 common/built-in.o
 .text.do_i2c_write
                0x000000000101380c      0x110 common/built-in.o
 .text.do_i2c_loop
                0x000000000101391c      0x104 common/built-in.o
 .text.do_i2c_mw
                0x0000000001013a20      0x11c common/built-in.o
 .text.mod_i2c_mem.isra.2
                0x0000000001013b3c      0x254 common/built-in.o
 .text.do_i2c_nm
                0x0000000001013d90        0x8 common/built-in.o
 .text.do_i2c_mm
                0x0000000001013d98        0x8 common/built-in.o
 .text.do_i2c_md
                0x0000000001013da0      0x224 common/built-in.o
 .text.do_i2c_crc
                0x0000000001013fc4      0x140 common/built-in.o
 .text.do_i2c_bus_speed
                0x0000000001014104       0x84 common/built-in.o
 .text.evalexp  0x0000000001014188       0x90 common/built-in.o
 .text.evalstr  0x0000000001014218       0x68 common/built-in.o
 .text.binary_test
                0x0000000001014280      0x19c common/built-in.o
 .text.do_itest
                0x000000000101441c       0xa0 common/built-in.o
 .text.do_RunBcbCommand
                0x00000000010144bc      0x50c common/built-in.o
 .text.GetPrimaryMetadataOffset
                0x00000000010149c8       0x50 common/built-in.o
                0x00000000010149c8                GetPrimaryMetadataOffset
 .text.ParseGeometry
                0x0000000001014a18       0xfc common/built-in.o
                0x0000000001014a18                ParseGeometry
 .text.ReadPrimaryGeometry
                0x0000000001014b14       0x40 common/built-in.o
                0x0000000001014b14                ReadPrimaryGeometry
 .text.ReadBackupGeometry
                0x0000000001014b54       0x40 common/built-in.o
                0x0000000001014b54                ReadBackupGeometry
 .text.ReadLogicalPartitionGeometry
                0x0000000001014b94       0x3c common/built-in.o
                0x0000000001014b94                ReadLogicalPartitionGeometry
 .text.ReadMetadataHeader
                0x0000000001014bd0      0x444 common/built-in.o
                0x0000000001014bd0                ReadMetadataHeader
 .text.do_ReadMetadata
                0x0000000001015014      0x118 common/built-in.o
                0x0000000001015014                do_ReadMetadata
 .text.is_partition_logical
                0x000000000101512c       0xac common/built-in.o
                0x000000000101512c                is_partition_logical
 .text.do_GetSystemMode
                0x00000000010151d8       0x74 common/built-in.o
                0x00000000010151d8                do_GetSystemMode
 .text.do_GetAvbMode
                0x000000000101524c       0x78 common/built-in.o
                0x000000000101524c                do_GetAvbMode
 .text.boot_info_validate
                0x00000000010152c4       0x68 common/built-in.o
                0x00000000010152c4                boot_info_validate
 .text.boot_info_reset
                0x000000000101532c       0x6c common/built-in.o
                0x000000000101532c                boot_info_reset
 .text.dump_boot_info
                0x0000000001015398       0xb8 common/built-in.o
                0x0000000001015398                dump_boot_info
 .text.boot_info_set_active_slot
                0x0000000001015450       0x50 common/built-in.o
                0x0000000001015450                boot_info_set_active_slot
 .text.boot_info_open_partition
                0x00000000010154a0       0x68 common/built-in.o
                0x00000000010154a0                boot_info_open_partition
 .text.boot_info_load
                0x0000000001015508       0x34 common/built-in.o
                0x0000000001015508                boot_info_load
 .text.boot_info_save
                0x000000000101553c       0x74 common/built-in.o
                0x000000000101553c                boot_info_save
 .text.do_GetValidSlot
                0x00000000010155b0      0x1d0 common/built-in.o
 .text.do_SetActiveSlot
                0x0000000001015780      0x1ac common/built-in.o
 .text.bin_data_init
                0x000000000101592c       0x28 common/built-in.o
 .text.k_data_save
                0x0000000001015954       0x4c common/built-in.o
 .text.k_data_restore
                0x00000000010159a0       0x4c common/built-in.o
 .text.load_serial_ymodem
                0x00000000010159ec       0xe8 common/built-in.o
 .text.getcxmodem
                0x0000000001015ad4       0x24 common/built-in.o
 .text.bin_data_char
                0x0000000001015af8       0x30 common/built-in.o
 .text.chk1.constprop.1
                0x0000000001015b28       0x2c common/built-in.o
 .text.s1_sendpacket.constprop.2
                0x0000000001015b54       0x60 common/built-in.o
 .text.do_load_serial_bin
                0x0000000001015bb4      0x818 common/built-in.o
 .text.do_mem_loop
                0x00000000010163cc      0x144 common/built-in.o
 .text.do_mem_md
                0x0000000001016510      0x11c common/built-in.o
 .text.do_mem_cmp
                0x000000000101662c      0x1b4 common/built-in.o
 .text.do_mem_base
                0x00000000010167e0       0x54 common/built-in.o
 .text.do_mem_mw
                0x0000000001016834      0x108 common/built-in.o
 .text.do_mem_cp
                0x000000000101693c      0x118 common/built-in.o
 .text.do_mem_crc
                0x0000000001016a54       0x40 common/built-in.o
 .text.mod_mem.isra.2
                0x0000000001016a94      0x1fc common/built-in.o
 .text.do_mem_mm
                0x0000000001016c90        0x8 common/built-in.o
 .text.do_mem_nm
                0x0000000001016c98        0x8 common/built-in.o
 .text.do_mem_mw_mask
                0x0000000001016ca0       0x98 common/built-in.o
                0x0000000001016ca0                do_mem_mw_mask
 .text.miiphy_get_dev_by_name
                0x0000000001016d38       0x74 common/built-in.o
                0x0000000001016d38                miiphy_get_dev_by_name
 .text.miiphy_init
                0x0000000001016dac       0x20 common/built-in.o
                0x0000000001016dac                miiphy_init
 .text.mdio_alloc
                0x0000000001016dcc       0x40 common/built-in.o
                0x0000000001016dcc                mdio_alloc
 .text.mdio_register
                0x0000000001016e0c       0x90 common/built-in.o
                0x0000000001016e0c                mdio_register
 .text.do_sleep
                0x0000000001016e9c       0x84 common/built-in.o
 .text.do_mmcops
                0x0000000001016f20       0xd0 common/built-in.o
 .text.init_mmc_device
                0x0000000001016ff0       0x64 common/built-in.o
 .text.do_mmc_lifetime
                0x0000000001017054       0x54 common/built-in.o
 .text.do_mmc_rescan
                0x00000000010170a8       0x2c common/built-in.o
 .text.do_mmcinfo
                0x00000000010170d4      0x1b0 common/built-in.o
 .text.do_mmc_hwpartition
                0x0000000001017284      0x550 common/built-in.o
 .text.do_mmc_ffu
                0x00000000010177d4       0xb0 common/built-in.o
 .text.do_mmc_ext_csd
                0x0000000001017884       0xec common/built-in.o
 .text.do_mmc_list
                0x0000000001017970       0x1c common/built-in.o
 .text.do_mmc_dev
                0x000000000101798c      0x154 common/built-in.o
 .text.do_mmc_part
                0x0000000001017ae0       0x64 common/built-in.o
 .text.do_mmc_erase
                0x0000000001017b44      0x114 common/built-in.o
 .text.do_mmc_write
                0x0000000001017c58       0xe0 common/built-in.o
 .text.do_mmc_read
                0x0000000001017d38       0xc0 common/built-in.o
 .text.do_mmc_test
                0x0000000001017df8      0x448 common/built-in.o
 .text.do_mmc_setdsr
                0x0000000001018240       0xc0 common/built-in.o
 .text.del_gpt_info
                0x0000000001018300       0x50 common/built-in.o
 .text.extract_val
                0x0000000001018350       0xac common/built-in.o
 .text.calc_parts_list_len
                0x00000000010183fc       0x90 common/built-in.o
 .text.get_gpt_info
                0x000000000101848c      0x140 common/built-in.o
 .text.prettyprint_part_size
                0x00000000010185cc       0x58 common/built-in.o
 .text.print_gpt_info
                0x0000000001018624       0xe4 common/built-in.o
 .text.extract_env
                0x0000000001018708       0xf8 common/built-in.o
 .text.create_gpt_partitions_list.isra.3
                0x0000000001018800      0x154 common/built-in.o
 .text.set_gpt_info.isra.2
                0x0000000001018954      0x4c4 common/built-in.o
 .text.do_gpt   0x0000000001018e18      0x6ac common/built-in.o
 .text.send_write_prot_status_group
                0x00000000010194c4       0xe8 common/built-in.o
 .text.do_amlmmcops
                0x00000000010195ac       0x88 common/built-in.o
 .text.do_emmc_dtb_key
                0x0000000001019634       0x88 common/built-in.o
 .text.do_amlmmc_controller
                0x00000000010196bc      0x188 common/built-in.o
 .text.do_amlmmc_response
                0x0000000001019844       0xa4 common/built-in.o
 .text.do_amlmmc_rescan
                0x00000000010198e8       0x58 common/built-in.o
 .text.send_wp_prot_type
                0x0000000001019940       0x68 common/built-in.o
 .text.is_wp_set_failed
                0x00000000010199a8       0xd4 common/built-in.o
 .text.set_write_prot
                0x0000000001019a7c       0x50 common/built-in.o
 .text.get_driver_strength
                0x0000000001019acc       0xd4 common/built-in.o
 .text.amlmmc_get_ext_csd
                0x0000000001019ba0       0xe0 common/built-in.o
 .text.set_driver_strength
                0x0000000001019c80      0x110 common/built-in.o
 .text.do_amlmmc_driver_strength
                0x0000000001019d90       0xc8 common/built-in.o
 .text.set_us_wp_en
                0x0000000001019e58       0x48 common/built-in.o
 .text.set_wp_register
                0x0000000001019ea0      0x104 common/built-in.o
 .text.do_amlmmc_ext_csd
                0x0000000001019fa4      0x114 common/built-in.o
 .text.do_amlmmc_size
                0x000000000101a0b8       0xc8 common/built-in.o
 .text.do_amlmmc_env
                0x000000000101a180       0x24 common/built-in.o
 .text.do_amlmmc_switch
                0x000000000101a1a4      0x190 common/built-in.o
 .text.do_amlmmc_list
                0x000000000101a334       0x1c common/built-in.o
 .text.do_amlmmc_part
                0x000000000101a350       0x88 common/built-in.o
 .text.do_emmc_erase
                0x000000000101a3d8      0x15c common/built-in.o
                0x000000000101a3d8                do_emmc_erase
 .text.generic_ffs
                0x000000000101a534       0x60 common/built-in.o
 .text.send_add_wp_type
                0x000000000101a594      0x1f4 common/built-in.o
 .text._dtb_read.isra.2
                0x000000000101a788       0x68 common/built-in.o
 .text._dtb_write.isra.3
                0x000000000101a7f0       0x68 common/built-in.o
 .text.do_amlmmc_key
                0x000000000101a858       0x58 common/built-in.o
 .text._dtb_init
                0x000000000101a8b0       0x6c common/built-in.o
 .text.get_off_size.isra.8
                0x000000000101a91c       0x9c common/built-in.o
 .text.amlmmc_write_info_sector.isra.10
                0x000000000101a9b8      0x130 common/built-in.o
 .text.do_amlmmc_read
                0x000000000101aae8      0x3ac common/built-in.o
 .text._calc_dtb_checksum
                0x000000000101ae94       0x68 common/built-in.o
 .text.compute_write_protect_range
                0x000000000101aefc      0x1a4 common/built-in.o
 .text.set_part_clear_wp
                0x000000000101b0a0      0x14c common/built-in.o
 .text.send_part_wp_type
                0x000000000101b1ec      0x158 common/built-in.o
 .text.do_amlmmc_send_wp_type
                0x000000000101b344      0x12c common/built-in.o
 .text.send_part_wp_status
                0x000000000101b470       0xcc common/built-in.o
 .text.set_part_write_protect
                0x000000000101b53c      0x138 common/built-in.o
 .text.set_add_write_protect
                0x000000000101b674      0x1d4 common/built-in.o
 .text.do_amlmmc_write_protect
                0x000000000101b848      0x188 common/built-in.o
 .text.send_add_wp_status
                0x000000000101b9d0      0x168 common/built-in.o
 .text.do_amlmmc_send_wp_status
                0x000000000101bb38      0x12c common/built-in.o
 .text.set_add_clear_wp
                0x000000000101bc64      0x1f0 common/built-in.o
 .text.do_amlmmc_clear_wp
                0x000000000101be54      0x12c common/built-in.o
 .text.emmckey_is_protected
                0x000000000101bf80       0x50 common/built-in.o
                0x000000000101bf80                emmckey_is_protected
 .text.mmc_read_status
                0x000000000101bfd0      0x104 common/built-in.o
                0x000000000101bfd0                mmc_read_status
 .text.do_amlmmc_status
                0x000000000101c0d4       0x90 common/built-in.o
 .text.amlmmc_erase_bootloader
                0x000000000101c164      0x220 common/built-in.o
                0x000000000101c164                amlmmc_erase_bootloader
 .text.amlmmc_erase_whole.isra.23
                0x000000000101c384      0x140 common/built-in.o
 .text.do_amlmmc_erase
                0x000000000101c4c4      0x744 common/built-in.o
 .text.amlmmc_check_and_update_boot_info
                0x000000000101cc08      0x178 common/built-in.o
                0x000000000101cc08                amlmmc_check_and_update_boot_info
 .text.amlmmc_write_bootloader
                0x000000000101cd80      0x1fc common/built-in.o
                0x000000000101cd80                amlmmc_write_bootloader
 .text.do_amlmmc_write
                0x000000000101cf7c      0x46c common/built-in.o
 .text.update_old_dtb
                0x000000000101d3e8      0x1c0 common/built-in.o
                0x000000000101d3e8                update_old_dtb
 .text.dtb_read
                0x000000000101d5a8      0x49c common/built-in.o
                0x000000000101d5a8                dtb_read
 .text.do_emmc_dtb_read
                0x000000000101da44       0x34 common/built-in.o
                0x000000000101da44                do_emmc_dtb_read
 .text.dtb_write
                0x000000000101da78      0x1c0 common/built-in.o
                0x000000000101da78                dtb_write
 .text.renew_partition_tbl
                0x000000000101dc38       0xa8 common/built-in.o
                0x000000000101dc38                renew_partition_tbl
 .text.do_emmc_dtb_write
                0x000000000101dce0       0x50 common/built-in.o
                0x000000000101dce0                do_emmc_dtb_write
 .text.emmc_update_mbr
                0x000000000101dd30       0xa4 common/built-in.o
                0x000000000101dd30                emmc_update_mbr
 .text.fastboot_context_read
                0x000000000101ddd4      0x138 common/built-in.o
                0x000000000101ddd4                fastboot_context_read
 .text.do_emmc_fb_read
                0x000000000101df0c       0x64 common/built-in.o
                0x000000000101df0c                do_emmc_fb_read
 .text.fastboot_context_write
                0x000000000101df70      0x11c common/built-in.o
                0x000000000101df70                fastboot_context_write
 .text.do_emmc_fb_write
                0x000000000101e08c       0x64 common/built-in.o
                0x000000000101e08c                do_emmc_fb_write
 .text.do_store_exit
                0x000000000101e0f0       0x20 common/built-in.o
 .text.do_store_bootlog
                0x000000000101e110       0x44 common/built-in.o
 .text.do_store
                0x000000000101e154       0x70 common/built-in.o
 .text.do_store_mbr_ops
                0x000000000101e1c4       0xc8 common/built-in.o
 .text.do_store_key_ops
                0x000000000101e28c      0x184 common/built-in.o
 .text.do_store_scrub
                0x000000000101e410      0x16c common/built-in.o
 .text.do_store_dtb_ops
                0x000000000101e57c      0x3d4 common/built-in.o
 .text.get_off_size
                0x000000000101e950      0x1a8 common/built-in.o
 .text.do_store_rom_write
                0x000000000101eaf8      0x414 common/built-in.o
 .text.do_store_rom_read
                0x000000000101ef0c      0x558 common/built-in.o
 .text.do_store_size
                0x000000000101f464      0x17c common/built-in.o
 .text.do_store_init
                0x000000000101f5e0      0x2e0 common/built-in.o
 .text.do_store_erase
                0x000000000101f8c0      0x548 common/built-in.o
 .text.do_store_rom_protect
                0x000000000101fe08       0x54 common/built-in.o
 .text.do_store_disprotect
                0x000000000101fe5c       0xc4 common/built-in.o
 .text.mtd_find_phy_off_by_lgc_off
                0x000000000101ff20      0x1a0 common/built-in.o
 .text.do_store_write
                0x00000000010200c0      0x2d8 common/built-in.o
 .text.do_store_read
                0x0000000001020398      0x208 common/built-in.o
 .text.store_ddr_parameter_read
                0x00000000010205a0       0x8c common/built-in.o
                0x00000000010205a0                store_ddr_parameter_read
 .text.store_ddr_parameter_write
                0x000000000102062c       0xa4 common/built-in.o
                0x000000000102062c                store_ddr_parameter_write
 .text.store_ddr_parameter_erase
                0x00000000010206d0       0x8c common/built-in.o
                0x00000000010206d0                store_ddr_parameter_erase
 .text.do_store_ddr_parameter_ops
                0x000000000102075c      0x120 common/built-in.o
 .text.store_key_read
                0x000000000102087c       0x8c common/built-in.o
                0x000000000102087c                store_key_read
 .text.store_key_write
                0x0000000001020908       0x8c common/built-in.o
                0x0000000001020908                store_key_write
 .text.store_read_ops
                0x0000000001020994      0x230 common/built-in.o
                0x0000000001020994                store_read_ops
 .text.store_write_ops
                0x0000000001020bc4      0x200 common/built-in.o
                0x0000000001020bc4                store_write_ops
 .text.store_get_partititon_size
                0x0000000001020dc4      0x1c8 common/built-in.o
                0x0000000001020dc4                store_get_partititon_size
 .text.store_erase_ops
                0x0000000001020f8c       0xf0 common/built-in.o
                0x0000000001020f8c                store_erase_ops
 .text.store_boot_read
                0x000000000102107c       0x80 common/built-in.o
                0x000000000102107c                store_boot_read
 .text.store_boot_write
                0x00000000010210fc       0x80 common/built-in.o
                0x00000000010210fc                store_boot_write
 .text.store_init
                0x000000000102117c       0x58 common/built-in.o
                0x000000000102117c                store_init
 .text.store_exit
                0x00000000010211d4       0x70 common/built-in.o
                0x00000000010211d4                store_exit
 .text.store_dtb_rw
                0x0000000001021244       0x60 common/built-in.o
                0x0000000001021244                store_dtb_rw
 .text.do_image_read
                0x00000000010212a4       0x78 common/built-in.o
 .text.img_res_check_log_header
                0x000000000102131c       0x78 common/built-in.o
 .text.do_image_read_res
                0x0000000001021394      0x120 common/built-in.o
 .text.do_unpackimg
                0x00000000010214b4      0x1dc common/built-in.o
 .text.do_image_read_pic
                0x0000000001021690      0x504 common/built-in.o
 .text._aml_get_secure_boot_kernel_size
                0x0000000001021b94      0x1a0 common/built-in.o
 .text.do_image_read_dtb
                0x0000000001021d34      0x2f4 common/built-in.o
 .text.do_image_read_kernel
                0x0000000001022028      0x254 common/built-in.o
 .text.do_mtdparts
                0x000000000102227c       0x4c common/built-in.o
 .text.find_dev_and_part
                0x00000000010222c8      0x118 common/built-in.o
                0x00000000010222c8                find_dev_and_part
 .text.do_chpart
                0x00000000010223e0      0x29c common/built-in.o
 .text.set_dev  0x000000000102267c       0x94 common/built-in.o
 .text.nand_print_and_set_info
                0x0000000001022710       0xdc common/built-in.o
 .text.arg_off  0x00000000010227ec      0x110 common/built-in.o
 .text.arg_off_size
                0x00000000010228fc      0x128 common/built-in.o
 .text.nand_load_image
                0x0000000001022a24      0x210 common/built-in.o
 .text.do_nandboot
                0x0000000001022c34      0x278 common/built-in.o
 .text.do_nand  0x0000000001022eac      0xe50 common/built-in.o
 .text.netboot_common
                0x0000000001023cfc      0x288 common/built-in.o
 .text.do_bootp
                0x0000000001023f84        0xc common/built-in.o
 .text.do_rarpb
                0x0000000001023f90        0xc common/built-in.o
                0x0000000001023f90                do_rarpb
 .text.do_dhcp  0x0000000001023f9c        0xc common/built-in.o
 .text.do_tftpb
                0x0000000001023fa8       0x54 common/built-in.o
                0x0000000001023fa8                do_tftpb
 .text.do_ethloop
                0x0000000001023ffc       0x5c common/built-in.o
 .text.do_ping  0x0000000001024058       0x78 common/built-in.o
 .text.bytes_per_second
                0x00000000010240d0       0x4c common/built-in.o
 .text.do_spi_flash
                0x000000000102411c      0x78c common/built-in.o
 .text.do_spi   0x00000000010248a8      0x344 common/built-in.o
                0x00000000010248a8                do_spi
 .text.do_dtimg
                0x0000000001024bec       0x88 common/built-in.o
 .text.dtimg_get_fdt
                0x0000000001024c74      0x134 common/built-in.o
 .text.do_dtimg_size
                0x0000000001024da8       0x10 common/built-in.o
 .text.do_dtimg_start
                0x0000000001024db8       0x10 common/built-in.o
 .text.do_dtimg_dump
                0x0000000001024dc8       0x80 common/built-in.o
 .text.do_false
                0x0000000001024e48        0x8 common/built-in.o
 .text.do_true  0x0000000001024e50        0x8 common/built-in.o
 .text.do_test  0x0000000001024e58      0x328 common/built-in.o
 .text.display_ubi_info
                0x0000000001025180      0x140 common/built-in.o
 .text.ubi_find_volume
                0x00000000010252c0       0x80 common/built-in.o
 .text.ubi_volume_continue_write
                0x0000000001025340       0xb8 common/built-in.o
 .text.ubi_volume_begin_write
                0x00000000010253f8       0xc4 common/built-in.o
                0x00000000010253f8                ubi_volume_begin_write
 .text.ubi_volume_write
                0x00000000010254bc        0x8 common/built-in.o
                0x00000000010254bc                ubi_volume_write
 .text.ubi_volume_read
                0x00000000010254c4      0x1dc common/built-in.o
                0x00000000010254c4                ubi_volume_read
 .text.ubi_part
                0x00000000010256a0      0x220 common/built-in.o
                0x00000000010256a0                ubi_part
 .text.do_ubi   0x00000000010258c0      0x914 common/built-in.o
 .text.do_ubifs_mount
                0x00000000010261d4       0x68 common/built-in.o
 .text.do_ubifs_ls
                0x000000000102623c       0x78 common/built-in.o
 .text.do_ubifs_load
                0x00000000010262b4       0xdc common/built-in.o
 .text.ubifs_is_mounted
                0x0000000001026390       0x10 common/built-in.o
                0x0000000001026390                ubifs_is_mounted
 .text.cmd_ubifs_umount
                0x00000000010263a0       0x5c common/built-in.o
                0x00000000010263a0                cmd_ubifs_umount
 .text.do_ubifs_umount
                0x00000000010263fc       0x48 common/built-in.o
 .text.usb_get_class_desc
                0x0000000001026444       0xc0 common/built-in.o
 .text.usb_display_class_sub
                0x0000000001026504      0x18c common/built-in.o
 .text.usb_find_device
                0x0000000001026690       0x48 common/built-in.o
 .text.usb_show_tree_graph
                0x00000000010266d8      0x21c common/built-in.o
 .text.usb_display_string
                0x00000000010268f4       0x48 common/built-in.o
 .text.usb_display_config
                0x000000000102693c      0x25c common/built-in.o
 .text.do_usbboot
                0x0000000001026b98        0xc common/built-in.o
 .text.usb_display_desc.part.2
                0x0000000001026ba4      0x114 common/built-in.o
 .text.do_usb   0x0000000001026cb8      0x7a4 common/built-in.o
 .text.usb_set_maxpacket_ep
                0x000000000102745c       0x74 common/built-in.o
 .text._mdelay  0x00000000010274d0       0x30 common/built-in.o
                0x00000000010274d0                _mdelay
 .text.usb_stop
                0x0000000001027500       0x54 common/built-in.o
                0x0000000001027500                usb_stop
 .text.usb_disable_asynch
                0x0000000001027554       0x20 common/built-in.o
                0x0000000001027554                usb_disable_asynch
 .text.usb_control_msg
                0x0000000001027574       0xc4 common/built-in.o
                0x0000000001027574                usb_control_msg
 .text.usb_get_descriptor
                0x0000000001027638       0x5c common/built-in.o
 .text.usb_get_string
                0x0000000001027694       0xa8 common/built-in.o
 .text.usb_string_sub
                0x000000000102773c      0x110 common/built-in.o
 .text.usb_set_address
                0x000000000102784c       0x4c common/built-in.o
 .text.usb_bulk_msg
                0x0000000001027898       0x78 common/built-in.o
                0x0000000001027898                usb_bulk_msg
 .text.usb_maxpacket
                0x0000000001027910       0x20 common/built-in.o
                0x0000000001027910                usb_maxpacket
 .text.usb_clear_halt
                0x0000000001027930       0xa4 common/built-in.o
                0x0000000001027930                usb_clear_halt
 .text.usb_get_configuration_no
                0x00000000010279d4       0xd0 common/built-in.o
                0x00000000010279d4                usb_get_configuration_no
 .text.usb_set_interface
                0x0000000001027aa4       0xb4 common/built-in.o
                0x0000000001027aa4                usb_set_interface
 .text.usb_string
                0x0000000001027b58      0x114 common/built-in.o
                0x0000000001027b58                usb_string
 .text.usb_get_dev_index
                0x0000000001027c6c       0x28 common/built-in.o
                0x0000000001027c6c                usb_get_dev_index
 .text.usb_alloc_new_device
                0x0000000001027c94       0xa0 common/built-in.o
                0x0000000001027c94                usb_alloc_new_device
 .text.usb_free_device
                0x0000000001027d34       0x64 common/built-in.o
                0x0000000001027d34                usb_free_device
 .text.usb_new_device
                0x0000000001027d98      0x658 common/built-in.o
                0x0000000001027d98                usb_new_device
 .text.usb_init
                0x00000000010283f0      0x170 common/built-in.o
                0x00000000010283f0                usb_init
 .text.usb_set_port_feature
                0x0000000001028560       0x50 common/built-in.o
 .text.usb_hub_power_on
                0x00000000010285b0       0x5c common/built-in.o
 .text.usb_get_port_status
                0x000000000102860c       0x58 common/built-in.o
 .text.usb_clear_port_feature
                0x0000000001028664       0x50 common/built-in.o
 .text.usb_get_hub_descriptor
                0x00000000010286b4       0x58 common/built-in.o
 .text.usb_hub_reset_devices
                0x000000000102870c        0x4 common/built-in.o
                0x000000000102870c                usb_hub_reset_devices
 .text.usb_hub_reset
                0x0000000001028710       0x10 common/built-in.o
                0x0000000001028710                usb_hub_reset
 .text.hub_port_reset
                0x0000000001028720       0xa8 common/built-in.o
                0x0000000001028720                hub_port_reset
 .text.usb_hub_port_connect_change
                0x00000000010287c8      0x144 common/built-in.o
                0x00000000010287c8                usb_hub_port_connect_change
 .text.usb_hub_configure
                0x000000000102890c      0x2e4 common/built-in.o
 .text.usb_hub_probe
                0x0000000001028bf0       0x5c common/built-in.o
                0x0000000001028bf0                usb_hub_probe
 .text.usb_stor_irq
                0x0000000001028c4c       0x18 common/built-in.o
 .text.usb_stor_BBB_reset
                0x0000000001028c64       0xdc common/built-in.o
 .text.usb_stor_CB_reset
                0x0000000001028d40       0xdc common/built-in.o
 .text.usb_stor_BBB_clear_endpt_stall.isra.2
                0x0000000001028e1c       0x50 common/built-in.o
 .text.usb_stor_BBB_transport
                0x0000000001028e6c      0x24c common/built-in.o
 .text.usb_stor_CB_comdat
                0x00000000010290b8      0x1f8 common/built-in.o
 .text.usb_stor_CBI_get_status.isra.4
                0x00000000010292b0       0xe0 common/built-in.o
 .text.usb_stor_CB_transport
                0x0000000001029390      0x200 common/built-in.o
 .text.usb_request_sense.constprop.9
                0x0000000001029590       0x8c common/built-in.o
 .text.usb_stor_write
                0x000000000102961c      0x1cc common/built-in.o
                0x000000000102961c                usb_stor_write
 .text.usb_stor_read
                0x00000000010297e8      0x1cc common/built-in.o
                0x00000000010297e8                usb_stor_read
 .text.usb_stor_get_dev
                0x00000000010299b4       0x34 common/built-in.o
                0x00000000010299b4                usb_stor_get_dev
 .text.usb_stor_info
                0x00000000010299e8       0x98 common/built-in.o
                0x00000000010299e8                usb_stor_info
 .text.usb_storage_probe
                0x0000000001029a80      0x22c common/built-in.o
                0x0000000001029a80                usb_storage_probe
 .text.usb_stor_get_info
                0x0000000001029cac      0x33c common/built-in.o
                0x0000000001029cac                usb_stor_get_info
 .text.usb_stor_scan
                0x0000000001029fe8      0x220 common/built-in.o
                0x0000000001029fe8                usb_stor_scan
 .text.do_fastboot
                0x000000000102a208       0x4c common/built-in.o
 .text.do_vpu   0x000000000102a254       0x78 common/built-in.o
 .text.do_vpu_info
                0x000000000102a2cc       0x18 common/built-in.o
 .text.do_vpu_test
                0x000000000102a2e4       0x18 common/built-in.o
 .text.do_vpu_clk
                0x000000000102a2fc       0x84 common/built-in.o
 .text.do_vpu_disable
                0x000000000102a380       0x18 common/built-in.o
 .text.do_vpu_enable
                0x000000000102a398       0x18 common/built-in.o
 .text.sha256_process_internal
                0x000000000102a3b0     0x28d0 common/built-in.o
 .text.ddr_write
                0x000000000102cc80       0xd4 common/built-in.o
 .text.ddr_write4
                0x000000000102cd54       0xd8 common/built-in.o
 .text.ddr_test_copy
                0x000000000102ce2c       0x44 common/built-in.o
 .text.ddr_write_pattern4_cross_talk_p
                0x000000000102ce70      0x168 common/built-in.o
 .text.ddr_write_pattern4_cross_talk_p2
                0x000000000102cfd8      0x1cc common/built-in.o
 .text.ddr_write_pattern4_cross_talk_n
                0x000000000102d1a4      0x168 common/built-in.o
 .text.ddr_write_pattern4_cross_talk_n2
                0x000000000102d30c      0x1cc common/built-in.o
 .text.ddr_write_pattern4_no_cross_talk
                0x000000000102d4d8      0x108 common/built-in.o
 .text.ddr_read
                0x000000000102d5e0      0x200 common/built-in.o
 .text.ddr_read4
                0x000000000102d7e0      0x18c common/built-in.o
 .text.ddr_read_pattern4_no_cross_talk
                0x000000000102d96c      0x210 common/built-in.o
 .text.ddr_read_pattern4_cross_talk_p
                0x000000000102db7c      0x42c common/built-in.o
 .text.ddr_read_pattern4_cross_talk_n
                0x000000000102dfa8      0x3ac common/built-in.o
 .text.ddr_read_pattern4_cross_talk_p2
                0x000000000102e354      0x374 common/built-in.o
 .text.ddr_read_pattern4_cross_talk_n2
                0x000000000102e6c8      0x374 common/built-in.o
 .text.sha256_update_internal.part.3
                0x000000000102ea3c       0xf4 common/built-in.o
 .text.ddr_do_store_ddr_parameter_ops.constprop.9
                0x000000000102eb30       0x40 common/built-in.o
 .text.ddr_get_chip_id
                0x000000000102eb70       0x78 common/built-in.o
                0x000000000102eb70                ddr_get_chip_id
 .text.sha256_starts_internal
                0x000000000102ebe8       0x6c common/built-in.o
                0x000000000102ebe8                sha256_starts_internal
 .text.sha256_update_internal
                0x000000000102ec54        0xc common/built-in.o
                0x000000000102ec54                sha256_update_internal
 .text.sha256_finish_internal
                0x000000000102ec60      0x1c0 common/built-in.o
                0x000000000102ec60                sha256_finish_internal
 .text.sha256_csum_wd_internal
                0x000000000102ee20       0x50 common/built-in.o
                0x000000000102ee20                sha256_csum_wd_internal
 .text.check_base_address
                0x000000000102ee70      0x11c common/built-in.o
                0x000000000102ee70                check_base_address
 .text.do_ddr_auto_test_window
                0x000000000102ef8c      0x254 common/built-in.o
                0x000000000102ef8c                do_ddr_auto_test_window
 .text.TOLOWER  0x000000000102f1e0       0x14 common/built-in.o
                0x000000000102f1e0                TOLOWER
 .text.isxdigit
                0x000000000102f1f4       0x28 common/built-in.o
                0x000000000102f1f4                isxdigit
 .text.simple_guess_base
                0x000000000102f21c       0x54 common/built-in.o
                0x000000000102f21c                simple_guess_base
 .text.simple_strtoull_ddr
                0x000000000102f270       0xdc common/built-in.o
                0x000000000102f270                simple_strtoull_ddr
 .text.do_ddr_test_copy
                0x000000000102f34c      0x3ac common/built-in.o
                0x000000000102f34c                do_ddr_test_copy
 .text.do_ddr_test
                0x000000000102f6f8      0xb58 common/built-in.o
                0x000000000102f6f8                do_ddr_test
 .text.do_ddr_special_test
                0x0000000001030250      0x3f4 common/built-in.o
                0x0000000001030250                do_ddr_special_test
 .text.env_to_a_num
                0x0000000001030644       0x84 common/built-in.o
                0x0000000001030644                env_to_a_num
 .text.dwc_ddrphy_apb_wr
                0x00000000010306c8       0x28 common/built-in.o
                0x00000000010306c8                dwc_ddrphy_apb_wr
 .text.dwc_ddrphy_apb_rd
                0x00000000010306f0       0x24 common/built-in.o
                0x00000000010306f0                dwc_ddrphy_apb_rd
 .text.ddr_udelay
                0x0000000001030714       0x28 common/built-in.o
                0x0000000001030714                ddr_udelay
 .text.ddr_test_watchdog_reset_system
                0x000000000103073c       0x6c common/built-in.o
                0x000000000103073c                ddr_test_watchdog_reset_system
 .text.do_ddr2pll_g12_cmd
                0x00000000010307a8      0x2c8 common/built-in.o
                0x00000000010307a8                do_ddr2pll_g12_cmd
 .text.do_ddr_auto_scan_drv
                0x0000000001030a70      0x77c common/built-in.o
                0x0000000001030a70                do_ddr_auto_scan_drv
 .text.do_ddr_uboot_new_cmd
                0x00000000010311ec      0x33c common/built-in.o
                0x00000000010311ec                do_ddr_uboot_new_cmd
 .text.pll_convert_to_ddr_clk_g12a
                0x0000000001031528       0x84 common/built-in.o
                0x0000000001031528                pll_convert_to_ddr_clk_g12a
 .text.get_ddr_clk
                0x00000000010315ac       0x68 common/built-in.o
                0x00000000010315ac                get_ddr_clk
 .text.ddr_memcpy
                0x0000000001031614       0x84 common/built-in.o
                0x0000000001031614                ddr_memcpy
 .text.cpu_ddr_test_init_pattern_generater
                0x0000000001031698       0x90 common/built-in.o
                0x0000000001031698                cpu_ddr_test_init_pattern_generater
 .text.cpu_ddr_test_init_pattern_area
                0x0000000001031728       0xa8 common/built-in.o
                0x0000000001031728                cpu_ddr_test_init_pattern_area
 .text.cpu_ddr_test
                0x00000000010317d0       0xdc common/built-in.o
                0x00000000010317d0                cpu_ddr_test
 .text.do_cpu_ddr_test
                0x00000000010318ac      0x248 common/built-in.o
                0x00000000010318ac                do_cpu_ddr_test
 .text.do_ddr_test_write_read
                0x0000000001031af4      0x3ec common/built-in.o
                0x0000000001031af4                do_ddr_test_write_read
 .text.find_vddee_voltage_index
                0x0000000001031ee0       0x38 common/built-in.o
                0x0000000001031ee0                find_vddee_voltage_index
 .text.read_ee_voltage
                0x0000000001031f18       0x28 common/built-in.o
                0x0000000001031f18                read_ee_voltage
 .text.get_bdlr_100step
                0x0000000001031f40       0x50 common/built-in.o
                0x0000000001031f40                get_bdlr_100step
 .text.do_ddr_test_pwm_bdlr
                0x0000000001031f90      0x290 common/built-in.o
                0x0000000001031f90                do_ddr_test_pwm_bdlr
 .text.printf_log
                0x0000000001032220       0xa0 common/built-in.o
                0x0000000001032220                printf_log
 .text.do_read_ddr_training_data
                0x00000000010322c0      0xe90 common/built-in.o
                0x00000000010322c0                do_read_ddr_training_data
 .text.do_ddr_fastboot_config
                0x0000000001033150      0x1c0 common/built-in.o
                0x0000000001033150                do_ddr_fastboot_config
 .text.do_ddr_display_g12_ddr_information
                0x0000000001033310     0x13a0 common/built-in.o
                0x0000000001033310                do_ddr_display_g12_ddr_information
 .text.do_ddr_test_cmd.part.5
                0x00000000010346b0      0x450 common/built-in.o
 .text.do_ddr_test_cmd
                0x0000000001034b00       0xcc common/built-in.o
                0x0000000001034b00                do_ddr_test_cmd
 .text.ddr_cacl_phy_delay_all_step
                0x0000000001034bcc       0x54 common/built-in.o
                0x0000000001034bcc                ddr_cacl_phy_delay_all_step
 .text.ddr_cacl_phy_over_ride_back_reg
                0x0000000001034c20       0x80 common/built-in.o
                0x0000000001034c20                ddr_cacl_phy_over_ride_back_reg
 .text.dwc_window_reg_after_training_update_increas_dq
                0x0000000001034ca0      0x148 common/built-in.o
                0x0000000001034ca0                dwc_window_reg_after_training_update_increas_dq
 .text.dwc_window_reg_after_training_update_increas_sub.part.7
                0x0000000001034de8      0x3f8 common/built-in.o
 .text.dwc_window_reg_after_training_update
                0x00000000010351e0      0x21c common/built-in.o
                0x00000000010351e0                dwc_window_reg_after_training_update
 .text.do_ddr_g12_override_data
                0x00000000010353fc      0x18c common/built-in.o
                0x00000000010353fc                do_ddr_g12_override_data
 .text.dwc_window_reg_after_training_update_increas_sub
                0x0000000001035588       0x10 common/built-in.o
                0x0000000001035588                dwc_window_reg_after_training_update_increas_sub
 .text.dwc_window_reg_after_training_update_increas
                0x0000000001035598      0x52c common/built-in.o
                0x0000000001035598                dwc_window_reg_after_training_update_increas
 .text.do_ddr_g12_offset_data
                0x0000000001035ac4      0x398 common/built-in.o
                0x0000000001035ac4                do_ddr_g12_offset_data
 .text.do_verify_flash_ddr_parameter
                0x0000000001035e5c      0x150 common/built-in.o
                0x0000000001035e5c                do_verify_flash_ddr_parameter
 .text.do_ddr_auto_fastboot_check
                0x0000000001035fac      0x5dc common/built-in.o
                0x0000000001035fac                do_ddr_auto_fastboot_check
 .text.do_query
                0x0000000001036588       0xc4 common/built-in.o
 .text.cmd_efuse
                0x000000000103664c      0x524 common/built-in.o
                0x000000000103664c                cmd_efuse
 .text.do_efuse
                0x0000000001036b70       0x5c common/built-in.o
                0x0000000001036b70                do_efuse
 .text.do_write_version
                0x0000000001036bcc       0x28 common/built-in.o
 .text.do_set_trim_base
                0x0000000001036bf4       0x40 common/built-in.o
 .text.get_adc_sample.isra.0
                0x0000000001036c34      0x38c common/built-in.o
 .text.quicksort
                0x0000000001036fc0       0xc8 common/built-in.o
                0x0000000001036fc0                quicksort
 .text.do_write_trim
                0x0000000001037088      0xa58 common/built-in.o
 .text.r1p1_codetotemp
                0x0000000001037ae0       0x5c common/built-in.o
                0x0000000001037ae0                r1p1_codetotemp
 .text.r1p1_temp_read
                0x0000000001037b3c      0x3dc common/built-in.o
                0x0000000001037b3c                r1p1_temp_read
 .text.r1p1_read_entry
                0x0000000001037f18      0x124 common/built-in.o
                0x0000000001037f18                r1p1_read_entry
 .text.do_read_temp
                0x000000000103803c       0x24 common/built-in.o
 .text.r1p1_temptocode
                0x0000000001038060       0xd4 common/built-in.o
                0x0000000001038060                r1p1_temptocode
 .text.r1p1_temp_trim
                0x0000000001038134      0x40c common/built-in.o
                0x0000000001038134                r1p1_temp_trim
 .text.r1p1_trim_entry
                0x0000000001038540      0x30c common/built-in.o
                0x0000000001038540                r1p1_trim_entry
 .text.do_temp_triming
                0x000000000103884c      0x140 common/built-in.o
 .text.r1p1_temp_cooling
                0x000000000103898c      0x108 common/built-in.o
                0x000000000103898c                r1p1_temp_cooling
 .text.do_boot_cooling
                0x0000000001038a94       0x18 common/built-in.o
 .text.do_clkmsr
                0x0000000001038aac       0x34 common/built-in.o
 .text.do_ringmsr
                0x0000000001038ae0       0x50 common/built-in.o
 .text.do_rpmb_state
                0x0000000001038b30       0xec common/built-in.o
 .text.do_env_delete
                0x0000000001038c1c       0xc4 common/built-in.o
 .text.do_env_save
                0x0000000001038ce0       0x30 common/built-in.o
 .text.do_env   0x0000000001038d10       0x70 common/built-in.o
 .text.env_print
                0x0000000001038d80       0xcc common/built-in.o
 .text.do_env_print
                0x0000000001038e4c       0xe4 common/built-in.o
 .text.do_env_import
                0x0000000001038f30      0x270 common/built-in.o
 .text.do_env_default
                0x00000000010391a0       0x98 common/built-in.o
 .text._do_env_set.isra.1
                0x0000000001039238      0x1dc common/built-in.o
 .text.do_env_set
                0x0000000001039414       0x1c common/built-in.o
 .text.get_env_id
                0x0000000001039430       0x10 common/built-in.o
                0x0000000001039430                get_env_id
 .text.setenv   0x0000000001039440       0x54 common/built-in.o
                0x0000000001039440                setenv
 .text.setenv_ulong
                0x0000000001039494       0x2c common/built-in.o
                0x0000000001039494                setenv_ulong
 .text.setenv_hex
                0x00000000010394c0       0x3c common/built-in.o
                0x00000000010394c0                setenv_hex
 .text.do_env_export
                0x00000000010394fc      0x260 common/built-in.o
 .text.envmatch
                0x000000000103975c       0x80 common/built-in.o
                0x000000000103975c                envmatch
 .text.getenv_f
                0x00000000010397dc       0xf8 common/built-in.o
                0x00000000010397dc                getenv_f
 .text.getenv   0x00000000010398d4       0x80 common/built-in.o
                0x00000000010398d4                getenv
 .text.getenv_hex
                0x0000000001039954       0x48 common/built-in.o
                0x0000000001039954                getenv_hex
 .text.getenv_ulong
                0x000000000103999c       0x44 common/built-in.o
                0x000000000103999c                getenv_ulong
 .text.env_get_char_spec
                0x00000000010399e0        0xc common/built-in.o
                0x00000000010399e0                env_get_char_spec
 .text.env_get_addr
                0x00000000010399ec       0x24 common/built-in.o
                0x00000000010399ec                env_get_addr
 .text.env_get_char_memory
                0x0000000001039a10       0x18 common/built-in.o
                0x0000000001039a10                env_get_char_memory
 .text.env_get_char
                0x0000000001039a28       0x2c common/built-in.o
                0x0000000001039a28                env_get_char
 .text.getenv_yesno
                0x0000000001039a54       0x48 common/built-in.o
                0x0000000001039a54                getenv_yesno
 .text.getenv_default
                0x0000000001039a9c       0x3c common/built-in.o
                0x0000000001039a9c                getenv_default
 .text.set_default_env
                0x0000000001039ad8       0xc0 common/built-in.o
                0x0000000001039ad8                set_default_env
 .text.set_default_vars
                0x0000000001039b98       0x2c common/built-in.o
                0x0000000001039b98                set_default_vars
 .text.env_import
                0x0000000001039bc4       0xf0 common/built-in.o
                0x0000000001039bc4                env_import
 .text.env_export
                0x0000000001039cb4       0x94 common/built-in.o
                0x0000000001039cb4                env_export
 .text.env_relocate
                0x0000000001039d48       0x30 common/built-in.o
                0x0000000001039d48                env_relocate
 .text._reserve_env_list_after_defenv
                0x0000000001039d78      0x14c common/built-in.o
 *fill*         0x0000000001039ec4        0x4 
 .text.do_defenv_reserv
                0x0000000001039ec8       0x50 common/built-in.o
 .text.console_setfile
                0x0000000001039f18       0xbc common/built-in.o
 .text.puts     0x0000000001039fd4       0x40 common/built-in.o
                0x0000000001039fd4                puts
 .text.printf   0x000000000103a014       0xe0 common/built-in.o
                0x000000000103a014                printf
 .text.fgetc    0x000000000103a0f4       0x34 common/built-in.o
                0x000000000103a0f4                fgetc
 .text.getc     0x000000000103a128       0x20 common/built-in.o
                0x000000000103a128                getc
 .text.ftstc    0x000000000103a148       0x34 common/built-in.o
                0x000000000103a148                ftstc
 .text.tstc     0x000000000103a17c       0x20 common/built-in.o
                0x000000000103a17c                tstc
 .text.fputc    0x000000000103a19c       0x30 common/built-in.o
                0x000000000103a19c                fputc
 .text.putc     0x000000000103a1cc       0x28 common/built-in.o
                0x000000000103a1cc                putc
 .text.vprintf  0x000000000103a1f4       0x50 common/built-in.o
                0x000000000103a1f4                vprintf
 .text.ctrlc    0x000000000103a244       0x64 common/built-in.o
                0x000000000103a244                ctrlc
 .text.confirm_yesno
                0x000000000103a2a8       0xdc common/built-in.o
                0x000000000103a2a8                confirm_yesno
 .text.had_ctrlc
                0x000000000103a384       0x10 common/built-in.o
                0x000000000103a384                had_ctrlc
 .text.clear_ctrlc
                0x000000000103a394       0x10 common/built-in.o
                0x000000000103a394                clear_ctrlc
 .text.search_device
                0x000000000103a3a4       0x3c common/built-in.o
                0x000000000103a3a4                search_device
 .text.console_assign
                0x000000000103a3e0       0x5c common/built-in.o
                0x000000000103a3e0                console_assign
 .text.on_console
                0x000000000103a43c       0xc4 common/built-in.o
 .text.console_init_f
                0x000000000103a500       0x10 common/built-in.o
                0x000000000103a500                console_init_f
 .text.console_init_m
                0x000000000103a510        0x8 common/built-in.o
                0x000000000103a510                console_init_m
 .text.stdio_print_current_devices
                0x000000000103a518       0xc0 common/built-in.o
                0x000000000103a518                stdio_print_current_devices
 .text.console_init_r
                0x000000000103a5d8       0xd8 common/built-in.o
                0x000000000103a5d8                console_init_r
 .text.sbrk     0x000000000103a6b0       0x84 common/built-in.o
                0x000000000103a6b0                sbrk
 .text.mem_malloc_init
                0x000000000103a734       0x34 common/built-in.o
                0x000000000103a734                mem_malloc_init
 .text.malloc_trim
                0x000000000103a768       0xe0 common/built-in.o
                0x000000000103a768                malloc_trim
 .text.free     0x000000000103a848      0x254 common/built-in.o
                0x000000000103a848                free
 .text.malloc   0x000000000103aa9c      0x6ac common/built-in.o
                0x000000000103aa9c                malloc
 .text.calloc   0x000000000103b148       0xdc common/built-in.o
                0x000000000103b148                calloc
 .text.realloc  0x000000000103b224      0x514 common/built-in.o
                0x000000000103b224                realloc
 .text.memalign
                0x000000000103b738      0x12c common/built-in.o
                0x000000000103b738                memalign
 .text.on_loadaddr
                0x000000000103b864       0x3c common/built-in.o
 .text.image_check_hcrc
                0x000000000103b8a0       0x50 common/built-in.o
                0x000000000103b8a0                image_check_hcrc
 .text.image_check_dcrc
                0x000000000103b8f0       0x44 common/built-in.o
                0x000000000103b8f0                image_check_dcrc
 .text.image_multi_count
                0x000000000103b934       0x20 common/built-in.o
                0x000000000103b934                image_multi_count
 .text.image_multi_getimg
                0x000000000103b954       0xa0 common/built-in.o
                0x000000000103b954                image_multi_getimg
 .text.getenv_bootm_low
                0x000000000103b9f4       0x30 common/built-in.o
                0x000000000103b9f4                getenv_bootm_low
 .text.getenv_bootm_size
                0x000000000103ba24       0x64 common/built-in.o
                0x000000000103ba24                getenv_bootm_size
 .text.getenv_bootm_mapsize
                0x000000000103ba88       0x30 common/built-in.o
                0x000000000103ba88                getenv_bootm_mapsize
 .text.memmove_wd
                0x000000000103bab8       0x10 common/built-in.o
                0x000000000103bab8                memmove_wd
 .text.genimg_print_size
                0x000000000103bac8       0x38 common/built-in.o
                0x000000000103bac8                genimg_print_size
 .text.get_table_entry_name
                0x000000000103bb00       0x28 common/built-in.o
                0x000000000103bb00                get_table_entry_name
 .text.genimg_get_os_name
                0x000000000103bb28       0x18 common/built-in.o
                0x000000000103bb28                genimg_get_os_name
 .text.genimg_get_arch_name
                0x000000000103bb40       0x18 common/built-in.o
                0x000000000103bb40                genimg_get_arch_name
 .text.genimg_get_type_name
                0x000000000103bb58       0x18 common/built-in.o
                0x000000000103bb58                genimg_get_type_name
 .text.genimg_get_comp_name
                0x000000000103bb70       0x18 common/built-in.o
                0x000000000103bb70                genimg_get_comp_name
 .text.image_print_contents
                0x000000000103bb88      0x1a8 common/built-in.o
                0x000000000103bb88                image_print_contents
 .text.get_table_entry_id
                0x000000000103bd30       0x54 common/built-in.o
                0x000000000103bd30                get_table_entry_id
 .text.genimg_get_os_id
                0x000000000103bd84       0x18 common/built-in.o
                0x000000000103bd84                genimg_get_os_id
 .text.genimg_get_arch_id
                0x000000000103bd9c       0x18 common/built-in.o
                0x000000000103bd9c                genimg_get_arch_id
 .text.genimg_get_type_id
                0x000000000103bdb4       0x18 common/built-in.o
                0x000000000103bdb4                genimg_get_type_id
 .text.genimg_get_comp_id
                0x000000000103bdcc       0x18 common/built-in.o
                0x000000000103bdcc                genimg_get_comp_id
 .text.genimg_get_kernel_addr_fit
                0x000000000103bde4       0x80 common/built-in.o
                0x000000000103bde4                genimg_get_kernel_addr_fit
 .text.genimg_get_kernel_addr
                0x000000000103be64       0x24 common/built-in.o
                0x000000000103be64                genimg_get_kernel_addr
 .text.genimg_get_format
                0x000000000103be88       0x5c common/built-in.o
                0x000000000103be88                genimg_get_format
 .text.genimg_get_image
                0x000000000103bee4        0x4 common/built-in.o
                0x000000000103bee4                genimg_get_image
 .text.genimg_has_config
                0x000000000103bee8       0x10 common/built-in.o
                0x000000000103bee8                genimg_has_config
 .text.boot_get_ramdisk
                0x000000000103bef8      0x348 common/built-in.o
                0x000000000103bef8                boot_get_ramdisk
 .text.boot_ramdisk_high
                0x000000000103c240      0x130 common/built-in.o
                0x000000000103c240                boot_ramdisk_high
 .text.boot_get_setup
                0x000000000103c370        0x4 common/built-in.o
                0x000000000103c370                boot_get_setup
 .text.image_setup_linux
                0x000000000103c374       0x80 common/built-in.o
                0x000000000103c374                image_setup_linux
 .text.android_image_get_kernel
                0x000000000103c3f4      0x26c common/built-in.o
                0x000000000103c3f4                android_image_get_kernel
 .text.android_image_check_header
                0x000000000103c660       0x14 common/built-in.o
                0x000000000103c660                android_image_check_header
 .text.android_image_get_end
                0x000000000103c674       0x4c common/built-in.o
                0x000000000103c674                android_image_get_end
 .text.android_image_get_kload
                0x000000000103c6c0        0x8 common/built-in.o
                0x000000000103c6c0                android_image_get_kload
 .text.android_image_get_ramdisk
                0x000000000103c6c8       0x44 common/built-in.o
                0x000000000103c6c8                android_image_get_ramdisk
 .text.android_image_get_comp
                0x000000000103c70c       0x60 common/built-in.o
                0x000000000103c70c                android_image_get_comp
 .text.android_image_need_move
                0x000000000103c76c       0xd8 common/built-in.o
                0x000000000103c76c                android_image_need_move
 .text.fdt_error
                0x000000000103c844       0x38 common/built-in.o
 .text.boot_fdt_add_mem_rsv_regions
                0x000000000103c87c       0x9c common/built-in.o
                0x000000000103c87c                boot_fdt_add_mem_rsv_regions
 .text.boot_relocate_fdt
                0x000000000103c918      0x1a4 common/built-in.o
                0x000000000103c918                boot_relocate_fdt
 .text.boot_get_fdt
                0x000000000103cabc      0x3d4 common/built-in.o
                0x000000000103cabc                boot_get_fdt
 .text.ft_verify_fdt
                0x000000000103ce90        0x8 common/built-in.o
                0x000000000103ce90                ft_verify_fdt
 .text.image_setup_libfdt
                0x000000000103ce98       0xf4 common/built-in.o
                0x000000000103ce98                image_setup_libfdt
 .text.fit_parse_conf
                0x000000000103cf8c       0x74 common/built-in.o
                0x000000000103cf8c                fit_parse_conf
 .text.fit_parse_subimage
                0x000000000103d000       0x74 common/built-in.o
                0x000000000103d000                fit_parse_subimage
 .text.fit_get_desc
                0x000000000103d074       0x38 common/built-in.o
                0x000000000103d074                fit_get_desc
 .text.fit_image_get_node
                0x000000000103d0ac       0x68 common/built-in.o
                0x000000000103d0ac                fit_image_get_node
 .text.fit_image_get_os
                0x000000000103d114       0x4c common/built-in.o
                0x000000000103d114                fit_image_get_os
 .text.fit_image_get_arch
                0x000000000103d160       0x4c common/built-in.o
                0x000000000103d160                fit_image_get_arch
 .text.fit_image_get_type
                0x000000000103d1ac       0x4c common/built-in.o
                0x000000000103d1ac                fit_image_get_type
 .text.fit_image_get_comp
                0x000000000103d1f8       0x4c common/built-in.o
                0x000000000103d1f8                fit_image_get_comp
 .text.fit_image_get_load
                0x000000000103d244       0x48 common/built-in.o
                0x000000000103d244                fit_image_get_load
 .text.fit_image_get_entry
                0x000000000103d28c       0x48 common/built-in.o
                0x000000000103d28c                fit_image_get_entry
 .text.fit_image_get_data
                0x000000000103d2d4       0x50 common/built-in.o
                0x000000000103d2d4                fit_image_get_data
 .text.fit_image_hash_get_algo
                0x000000000103d324       0x38 common/built-in.o
                0x000000000103d324                fit_image_hash_get_algo
 .text.fit_image_hash_get_value
                0x000000000103d35c       0x50 common/built-in.o
                0x000000000103d35c                fit_image_hash_get_value
 .text.fit_image_print_data
                0x000000000103d3ac      0x15c common/built-in.o
 .text.fit_image_print
                0x000000000103d508      0x374 common/built-in.o
                0x000000000103d508                fit_image_print
 .text.calculate_hash
                0x000000000103d87c      0x11c common/built-in.o
                0x000000000103d87c                calculate_hash
 .text.fit_image_verify
                0x000000000103d998      0x228 common/built-in.o
                0x000000000103d998                fit_image_verify
 .text.fit_image_check_os
                0x000000000103dbc0       0x3c common/built-in.o
                0x000000000103dbc0                fit_image_check_os
 .text.fit_image_check_arch
                0x000000000103dbfc       0x54 common/built-in.o
                0x000000000103dbfc                fit_image_check_arch
 .text.fit_image_check_type
                0x000000000103dc50       0x3c common/built-in.o
                0x000000000103dc50                fit_image_check_type
 .text.fit_image_check_comp
                0x000000000103dc8c       0x3c common/built-in.o
                0x000000000103dc8c                fit_image_check_comp
 .text.fit_check_format
                0x000000000103dcc8       0x60 common/built-in.o
                0x000000000103dcc8                fit_check_format
 .text.fit_conf_get_node
                0x000000000103dd28       0x98 common/built-in.o
                0x000000000103dd28                fit_conf_get_node
 .text.fit_conf_get_prop_node
                0x000000000103ddc0       0x3c common/built-in.o
                0x000000000103ddc0                fit_conf_get_prop_node
 .text.fit_conf_print
                0x000000000103ddfc      0x11c common/built-in.o
                0x000000000103ddfc                fit_conf_print
 .text.fit_print_contents
                0x000000000103df18      0x248 common/built-in.o
                0x000000000103df18                fit_print_contents
 .text.fit_get_node_from_config
                0x000000000103e160       0x58 common/built-in.o
                0x000000000103e160                fit_get_node_from_config
 .text.fit_image_load
                0x000000000103e1b8      0x4d0 common/built-in.o
                0x000000000103e1b8                fit_image_load
 .text.boot_get_setup_fit
                0x000000000103e688       0x84 common/built-in.o
                0x000000000103e688                boot_get_setup_fit
 .text.stdio_serial_tstc
                0x000000000103e70c        0x4 common/built-in.o
 .text.stdio_serial_getc
                0x000000000103e710        0x4 common/built-in.o
 .text.stdio_serial_puts
                0x000000000103e714        0x8 common/built-in.o
 .text.stdio_serial_putc
                0x000000000103e71c        0x8 common/built-in.o
 .text.stdio_get_list
                0x000000000103e724       0x10 common/built-in.o
                0x000000000103e724                stdio_get_list
 .text.stdio_get_by_name
                0x000000000103e734       0x68 common/built-in.o
                0x000000000103e734                stdio_get_by_name
 .text.stdio_clone
                0x000000000103e79c       0x4c common/built-in.o
                0x000000000103e79c                stdio_clone
 .text.stdio_register_dev
                0x000000000103e7e8       0x60 common/built-in.o
                0x000000000103e7e8                stdio_register_dev
 .text.stdio_register
                0x000000000103e848        0x8 common/built-in.o
                0x000000000103e848                stdio_register
 .text.stdio_init_tables
                0x000000000103e850       0x1c common/built-in.o
                0x000000000103e850                stdio_init_tables
 .text.stdio_add_devices
                0x000000000103e86c       0x78 common/built-in.o
                0x000000000103e86c                stdio_add_devices
 .text.write_sparse_image
                0x000000000103e8e4      0x3e4 common/built-in.o
                0x000000000103e8e4                write_sparse_image
 .text.fb_mmc_sparse_write
                0x000000000103ecc8       0x24 common/built-in.o
 .text.fb_mmc_sparse_reserve
                0x000000000103ecec        0x8 common/built-in.o
 .text.fb_mmc_bootloader_ops.isra.0
                0x000000000103ecf4      0x118 common/built-in.o
 .text.fb_mmc_flash_write
                0x000000000103ee0c      0x3e0 common/built-in.o
                0x000000000103ee0c                fb_mmc_flash_write
 .text.fb_mmc_erase_write
                0x000000000103f1ec      0x254 common/built-in.o
                0x000000000103f1ec                fb_mmc_erase_write
 .text.cli_simple_parse_line
                0x000000000103f440       0x9c common/built-in.o
                0x000000000103f440                cli_simple_parse_line
 .text.run_command
                0x000000000103f4dc       0x18 common/built-in.o
                0x000000000103f4dc                run_command
 .text.run_command_list
                0x000000000103f4f4       0x84 common/built-in.o
                0x000000000103f4f4                run_command_list
 .text.do_run   0x000000000103f578       0x84 common/built-in.o
                0x000000000103f578                do_run
 .text.cli_loop
                0x000000000103f5fc       0x10 common/built-in.o
                0x000000000103f5fc                cli_loop
 .text.cli_init
                0x000000000103f60c        0x4 common/built-in.o
                0x000000000103f60c                cli_init
 .text.delete_char.part.0
                0x000000000103f610       0xfc common/built-in.o
 .text.cli_readline_into_buffer
                0x000000000103f70c      0x204 common/built-in.o
                0x000000000103f70c                cli_readline_into_buffer
 .text.cli_readline
                0x000000000103f910       0x14 common/built-in.o
                0x000000000103f910                cli_readline
 .text.find_cmd_tbl
                0x000000000103f924       0xc0 common/built-in.o
                0x000000000103f924                find_cmd_tbl
 .text.find_cmd
                0x000000000103f9e4       0x28 common/built-in.o
                0x000000000103f9e4                find_cmd
 .text.cmd_usage
                0x000000000103fa0c       0x68 common/built-in.o
                0x000000000103fa0c                cmd_usage
 .text._do_help
                0x000000000103fa74      0x1a4 common/built-in.o
                0x000000000103fa74                _do_help
 .text.cmd_get_data_size
                0x000000000103fc18       0x6c common/built-in.o
                0x000000000103fc18                cmd_get_data_size
 .text.cmd_process
                0x000000000103fc84       0xe0 common/built-in.o
                0x000000000103fc84                cmd_process
 .text.cmd_process_error
                0x000000000103fd64       0x34 common/built-in.o
                0x000000000103fd64                cmd_process_error
 .text.CYGACC_COMM_IF_GETC_TIMEOUT.isra.0
                0x000000000103fd98       0x54 common/built-in.o
 .text.xyzModem_flush
                0x000000000103fdec       0x1c common/built-in.o
 .text.xyzModem_get_hdr
                0x000000000103fe08      0x228 common/built-in.o
 .text.xyzModem_stream_open
                0x0000000001040030      0x280 common/built-in.o
                0x0000000001040030                xyzModem_stream_open
 .text.xyzModem_stream_read
                0x00000000010402b0      0x268 common/built-in.o
                0x00000000010402b0                xyzModem_stream_read
 .text.xyzModem_stream_close
                0x0000000001040518       0x44 common/built-in.o
                0x0000000001040518                xyzModem_stream_close
 .text.xyzModem_stream_terminate
                0x000000000104055c       0xac common/built-in.o
                0x000000000104055c                xyzModem_stream_terminate
 .text.xyzModem_error
                0x0000000001040608       0x28 common/built-in.o
                0x0000000001040608                xyzModem_error
 .text.common_diskboot
                0x0000000001040630      0x2bc common/built-in.o
                0x0000000001040630                common_diskboot
 .text.do_vpp   0x00000000010408ec       0x78 common/built-in.o
 .text.do_hdr_packet
                0x0000000001040964       0x60 common/built-in.o
 .text.do_vpp_pq
                0x00000000010409c4      0x134 common/built-in.o
 .text.do_get_rebootmode
                0x0000000001040af8      0x19c common/built-in.o
                0x0000000001040af8                do_get_rebootmode
 .text.do_reboot
                0x0000000001040c94      0x1e8 common/built-in.o
                0x0000000001040c94                do_reboot
 .text.do_set_usb_boot
                0x0000000001040e7c       0x64 common/built-in.o
                0x0000000001040e7c                do_set_usb_boot
 .text.do_systemoff
                0x0000000001040ee0       0x18 common/built-in.o
                0x0000000001040ee0                do_systemoff
 .text.do_open_scp_log
                0x0000000001040ef8       0xc0 common/built-in.o
                0x0000000001040ef8                do_open_scp_log
 .text.hdmi_get_fmt_paras
                0x0000000001040fb8       0x28 common/built-in.o
                0x0000000001040fb8                hdmi_get_fmt_paras
 .text.hdmi_parse_attr
                0x0000000001040fe0      0x108 common/built-in.o
                0x0000000001040fe0                hdmi_parse_attr
 .text.hdmi_get_fmt_vic
                0x00000000010410e8       0xe0 common/built-in.o
                0x00000000010410e8                hdmi_get_fmt_vic
 .text.hdmi_match_dtd_paras
                0x00000000010411c8       0xd8 common/built-in.o
                0x00000000010411c8                hdmi_match_dtd_paras
 .text.Edid_DTD_parsing
                0x00000000010412a0      0x1b0 common/built-in.o
 .text.Edid_MonitorCapable861
                0x0000000001041450       0x3c common/built-in.o
                0x0000000001041450                Edid_MonitorCapable861
 .text.hdmi_edid_parsing
                0x000000000104148c      0xe78 common/built-in.o
                0x000000000104148c                hdmi_edid_parsing
 .text.do_dump  0x0000000001042304       0x20 common/built-in.o
 .text.do_info  0x0000000001042324       0x64 common/built-in.o
 .text.do_off   0x0000000001042388       0x34 common/built-in.o
 .text.do_hdmitx
                0x00000000010423bc       0x7c common/built-in.o
 .text.do_get_preferred_mode
                0x0000000001042438      0x260 common/built-in.o
 .text.do_edid  0x0000000001042698       0xd8 common/built-in.o
 .text.do_blank
                0x0000000001042770       0x78 common/built-in.o
 .text.do_output
                0x00000000010427e8      0x2d4 common/built-in.o
 .text.do_hpd_detect
                0x0000000001042abc       0xf0 common/built-in.o
 .text.do_rx_det
                0x0000000001042bac      0x1b0 common/built-in.o
 .text.isYuv4kSink
                0x0000000001042d5c       0xac common/built-in.o
                0x0000000001042d5c                isYuv4kSink
 .text.do_get_parse_edid
                0x0000000001042e08      0xc94 common/built-in.o
 .text.hdmitx_get_rx_hdr_info
                0x0000000001043a9c        0xc common/built-in.o
                0x0000000001043a9c                hdmitx_get_rx_hdr_info
 .text.get_jtag_sel
                0x0000000001043aa8       0x98 common/built-in.o
 .text.do_jtagon
                0x0000000001043b40       0xa8 common/built-in.o
                0x0000000001043b40                do_jtagon
 .text.do_jtagoff
                0x0000000001043be8       0x64 common/built-in.o
                0x0000000001043be8                do_jtagoff
 .text.do_osd   0x0000000001043c4c       0x68 common/built-in.o
 .text.do_osd_get
                0x0000000001043cb4       0x70 common/built-in.o
 .text.do_osd_set
                0x0000000001043d24      0x100 common/built-in.o
 .text.do_osd_display
                0x0000000001043e24       0xe4 common/built-in.o
 .text.do_osd_clear
                0x0000000001043f08       0xc4 common/built-in.o
 .text.do_osd_enable
                0x0000000001043fcc       0x24 common/built-in.o
 .text.do_osd_close
                0x0000000001043ff0       0x88 common/built-in.o
 .text.do_osd_open
                0x0000000001044078       0x50 common/built-in.o
 .text.do_osd_dual_logo
                0x00000000010440c8       0x90 common/built-in.o
 .text.do_osd_test
                0x0000000001044158       0x48 common/built-in.o
 .text.do_osd_debug
                0x00000000010441a0       0x48 common/built-in.o
 .text.do_img_osd
                0x00000000010441e8       0x68 common/built-in.o
 .text.do_img_scale
                0x0000000001044250        0x4 common/built-in.o
 .text.do_img_display
                0x0000000001044254       0xe4 common/built-in.o
 .text.do_img_uninit
                0x0000000001044338       0x18 common/built-in.o
 .text.do_img_clear
                0x0000000001044350       0x18 common/built-in.o
 .text.do_addr_set
                0x0000000001044368       0x4c common/built-in.o
 .text.do_img_init
                0x00000000010443b4       0xb0 common/built-in.o
 .text.do_type_set
                0x0000000001044464       0x54 common/built-in.o
 .text.do_mode_set
                0x00000000010444b8       0x54 common/built-in.o
 .text.do_ui    0x000000000104450c       0x68 common/built-in.o
 .text.do_ui_debug
                0x0000000001044574       0x3c common/built-in.o
 .text.do_ui_uinit
                0x00000000010445b0       0xbc common/built-in.o
 .text.do_ui_update
                0x000000000104466c       0x3c common/built-in.o
 .text.do_ui_rect
                0x00000000010446a8       0xb8 common/built-in.o
 .text.do_ui_text
                0x0000000001044760      0x184 common/built-in.o
 .text.do_ui_setcolor
                0x00000000010448e4       0x58 common/built-in.o
 .text.do_ui_pic
                0x000000000104493c      0x10c common/built-in.o
 .text.do_ui_init
                0x0000000001044a48       0x88 common/built-in.o
 .text.do_dolby_vision
                0x0000000001044ad0       0x7c common/built-in.o
 .text.do_write_reg
                0x0000000001044b4c       0x70 common/built-in.o
 .text.do_read_reg
                0x0000000001044bbc       0x50 common/built-in.o
 .text.do_dolbyvision_set
                0x0000000001044c0c       0x18 common/built-in.o
 .text.do_hdmi_package
                0x0000000001044c24       0x18 common/built-in.o
 .text.do_dolbyvision_process
                0x0000000001044c3c       0x18 common/built-in.o
 .text.do_dolbyvision_debug
                0x0000000001044c54       0x4c common/built-in.o
 .text.do_cvbs  0x0000000001044ca0       0x7c common/built-in.o
 .text.do_vdac  0x0000000001044d1c       0x28 common/built-in.o
 .text.do_cvbs_debug
                0x0000000001044d44       0x40 common/built-in.o
 .text.do_cvbs_init
                0x0000000001044d84       0x18 common/built-in.o
 .text.do_cvbs_output
                0x0000000001044d9c       0xcc common/built-in.o
 .text.do_vout  0x0000000001044e68       0x7c common/built-in.o
 .text.do_vout2
                0x0000000001044ee4       0x7c common/built-in.o
 .text.do_vout_info
                0x0000000001044f60       0x18 common/built-in.o
 .text.do_vout_list
                0x0000000001044f78       0x3c common/built-in.o
 .text.do_vout_output
                0x0000000001044fb4       0xc8 common/built-in.o
 .text.do_vout2_output
                0x000000000104507c       0x8c common/built-in.o
 .text.do_vout2_prepare
                0x0000000001045108       0x88 common/built-in.o
 .text.do_rsvmem
                0x0000000001045190       0x68 common/built-in.o
 .text.do_rsvmem_dump
                0x00000000010451f8       0x8c common/built-in.o
 .text.do_rsvmem_check
                0x0000000001045284      0x544 common/built-in.o
 .text.do_viu_probe_enable
                0x00000000010457c8       0x18 common/built-in.o
 .text.do_load_send_bl40
                0x00000000010457e0       0xa0 common/built-in.o
 .text.exec     0x0000000001045880       0xbc common/built-in.o
                0x0000000001045880                exec
 .text.read_rollback_index
                0x000000000104593c        0xc common/built-in.o
 .text.write_rollback_index
                0x0000000001045948        0x8 common/built-in.o
 .text.read_is_device_unlocked
                0x0000000001045950       0x7c common/built-in.o
 .text.get_unique_guid_for_partition
                0x00000000010459cc      0x140 common/built-in.o
 .text.validate_vbmeta_public_key
                0x0000000001045b0c       0x6c common/built-in.o
 .text.write_to_partition
                0x0000000001045b78       0xf4 common/built-in.o
 .text.read_from_partition
                0x0000000001045c6c      0x144 common/built-in.o
 .text.do_avb_ops
                0x0000000001045db0       0x78 common/built-in.o
 .text.get_size_of_partition
                0x0000000001045e28       0x80 common/built-in.o
 .text.is_device_unlocked
                0x0000000001045ea8       0x2c common/built-in.o
                0x0000000001045ea8                is_device_unlocked
 .text.avb_verify
                0x0000000001045ed4      0x1f4 common/built-in.o
                0x0000000001045ed4                avb_verify
 .text.do_avb_verify
                0x00000000010460c8      0x10c common/built-in.o
 .text.get_dev_hwpart
                0x00000000010461d4       0xb4 disk/built-in.o
 .text.print_part_header
                0x0000000001046288       0xd0 disk/built-in.o
 .text.get_dev  0x0000000001046358        0x8 disk/built-in.o
                0x0000000001046358                get_dev
 .text.dev_print
                0x0000000001046360      0x1c4 disk/built-in.o
                0x0000000001046360                dev_print
 .text.init_part
                0x0000000001046524       0xa4 disk/built-in.o
                0x0000000001046524                init_part
 .text.print_part
                0x00000000010465c8       0xa0 disk/built-in.o
                0x00000000010465c8                print_part
 .text.get_partition_info
                0x0000000001046668       0x54 disk/built-in.o
                0x0000000001046668                get_partition_info
 .text.get_device
                0x00000000010466bc      0x130 disk/built-in.o
                0x00000000010466bc                get_device
 .text.get_device_and_partition
                0x00000000010467ec      0x418 disk/built-in.o
                0x00000000010467ec                get_device_and_partition
 .text.test_block_type
                0x0000000001046c04       0x88 disk/built-in.o
 .text.print_partition_extended
                0x0000000001046c8c      0x268 disk/built-in.o
 .text.get_partition_info_extended
                0x0000000001046ef4      0x32c disk/built-in.o
 .text.test_part_dos
                0x0000000001047220       0x78 disk/built-in.o
                0x0000000001047220                test_part_dos
 .text.print_part_dos
                0x0000000001047298       0x3c disk/built-in.o
                0x0000000001047298                print_part_dos
 .text.get_partition_info_dos
                0x00000000010472d4       0x1c disk/built-in.o
                0x00000000010472d4                get_partition_info_dos
 .text.print_efiname
                0x00000000010472f0       0x60 disk/built-in.o
 .text.validate_gpt_entries
                0x0000000001047350       0xa4 disk/built-in.o
 .text.validate_gpt_header
                0x00000000010473f4      0x234 disk/built-in.o
 .text.set_protective_mbr
                0x0000000001047628       0xc8 disk/built-in.o
                0x0000000001047628                set_protective_mbr
 .text.write_gpt_table
                0x00000000010476f0      0x3f4 disk/built-in.o
                0x00000000010476f0                write_gpt_table
 .text.gpt_fill_pte
                0x0000000001047ae4      0x3f8 disk/built-in.o
                0x0000000001047ae4                gpt_fill_pte
 .text.gpt_fill_header
                0x0000000001047edc      0x1c4 disk/built-in.o
                0x0000000001047edc                gpt_fill_header
 .text.gpt_restore
                0x00000000010480a0      0x120 disk/built-in.o
                0x00000000010480a0                gpt_restore
 .text.is_valid_gpt_buf
                0x00000000010481c0       0xa0 disk/built-in.o
                0x00000000010481c0                is_valid_gpt_buf
 .text.write_mbr_and_gpt_partitions
                0x0000000001048260      0x4dc disk/built-in.o
                0x0000000001048260                write_mbr_and_gpt_partitions
 .text.pmbr_part_valid
                0x000000000104873c       0x40 disk/built-in.o
                0x000000000104873c                pmbr_part_valid
 .text.is_pmbr_valid
                0x000000000104877c       0x68 disk/built-in.o
                0x000000000104877c                is_pmbr_valid
 .text.test_part_efi
                0x00000000010487e4       0x88 disk/built-in.o
                0x00000000010487e4                test_part_efi
 .text.alloc_read_gpt_entries
                0x000000000104886c      0x15c disk/built-in.o
                0x000000000104886c                alloc_read_gpt_entries
 .text.is_gpt_valid
                0x00000000010489c8       0xfc disk/built-in.o
                0x00000000010489c8                is_gpt_valid
 .text.get_disk_guid
                0x0000000001048ac4       0xec disk/built-in.o
                0x0000000001048ac4                get_disk_guid
 .text.gpt_verify_headers
                0x0000000001048bb0       0x90 disk/built-in.o
                0x0000000001048bb0                gpt_verify_headers
 .text.gpt_verify_partitions
                0x0000000001048c40      0x1fc disk/built-in.o
                0x0000000001048c40                gpt_verify_partitions
 .text.is_pte_valid
                0x0000000001048e3c       0x64 disk/built-in.o
                0x0000000001048e3c                is_pte_valid
 .text.print_part_efi
                0x0000000001048ea0      0x298 disk/built-in.o
                0x0000000001048ea0                print_part_efi
 .text.get_partition_info_efi
                0x0000000001049138      0x250 disk/built-in.o
                0x0000000001049138                get_partition_info_efi
 .text.get_partition_info_efi_by_name
                0x0000000001049388       0x78 disk/built-in.o
                0x0000000001049388                get_partition_info_efi_by_name
 .text._get_partition_info_aml.isra.0
                0x0000000001049400       0x7c disk/built-in.o
 .text.get_partition_info_aml
                0x000000000104947c        0x4 disk/built-in.o
                0x000000000104947c                get_partition_info_aml
 .text.get_partition_info_aml_by_name
                0x0000000001049480        0x4 disk/built-in.o
                0x0000000001049480                get_partition_info_aml_by_name
 .text.print_part_aml
                0x0000000001049484       0xa4 disk/built-in.o
                0x0000000001049484                print_part_aml
 .text.test_part_aml
                0x0000000001049528       0x98 disk/built-in.o
                0x0000000001049528                test_part_aml
 .text.device_bind
                0x00000000010495c0      0x17c drivers/built-in.o
                0x00000000010495c0                device_bind
 .text.device_bind_by_name
                0x000000000104973c       0x7c drivers/built-in.o
                0x000000000104973c                device_bind_by_name
 .text.device_probe
                0x00000000010497b8        0x8 drivers/built-in.o
                0x00000000010497b8                device_probe
 .text.device_probe_child
                0x00000000010497c0      0x1e8 drivers/built-in.o
                0x00000000010497c0                device_probe_child
 .text.dev_get_platdata
                0x00000000010499a8       0x40 drivers/built-in.o
                0x00000000010499a8                dev_get_platdata
 .text.dev_get_priv
                0x00000000010499e8       0x40 drivers/built-in.o
                0x00000000010499e8                dev_get_priv
 .text.dev_get_parentdata
                0x0000000001049a28       0x40 drivers/built-in.o
                0x0000000001049a28                dev_get_parentdata
 .text.device_find_first_child
                0x0000000001049a68       0x28 drivers/built-in.o
                0x0000000001049a68                device_find_first_child
 .text.device_find_next_child
                0x0000000001049a90       0x30 drivers/built-in.o
                0x0000000001049a90                device_find_next_child
 .text.lists_driver_lookup_name
                0x0000000001049ac0       0x84 drivers/built-in.o
                0x0000000001049ac0                lists_driver_lookup_name
 .text.lists_uclass_lookup
                0x0000000001049b44       0x58 drivers/built-in.o
                0x0000000001049b44                lists_uclass_lookup
 .text.lists_bind_drivers
                0x0000000001049b9c       0xb4 drivers/built-in.o
                0x0000000001049b9c                lists_bind_drivers
 .text.device_bind_driver
                0x0000000001049c50       0x90 drivers/built-in.o
                0x0000000001049c50                device_bind_driver
 .text.dm_init  0x0000000001049ce0       0x5c drivers/built-in.o
                0x0000000001049ce0                dm_init
 .text.dm_scan_platdata
                0x0000000001049d3c       0x34 drivers/built-in.o
                0x0000000001049d3c                dm_scan_platdata
 .text.dm_scan_other
                0x0000000001049d70        0x8 drivers/built-in.o
                0x0000000001049d70                dm_scan_other
 .text.dm_init_and_scan
                0x0000000001049d78       0x40 drivers/built-in.o
                0x0000000001049d78                dm_init_and_scan
 .text.uclass_find
                0x0000000001049db8       0x48 drivers/built-in.o
                0x0000000001049db8                uclass_find
 .text.uclass_get
                0x0000000001049e00      0x13c drivers/built-in.o
                0x0000000001049e00                uclass_get
 .text.uclass_find_device_by_seq
                0x0000000001049f3c       0x8c drivers/built-in.o
                0x0000000001049f3c                uclass_find_device_by_seq
 .text.uclass_get_device_by_seq
                0x0000000001049fc8       0x70 drivers/built-in.o
                0x0000000001049fc8                uclass_get_device_by_seq
 .text.uclass_first_device
                0x000000000104a038       0x54 drivers/built-in.o
                0x000000000104a038                uclass_first_device
 .text.uclass_next_device
                0x000000000104a08c       0x54 drivers/built-in.o
                0x000000000104a08c                uclass_next_device
 .text.uclass_bind_device
                0x000000000104a0e0       0x74 drivers/built-in.o
                0x000000000104a0e0                uclass_bind_device
 .text.uclass_unbind_device
                0x000000000104a154       0x54 drivers/built-in.o
                0x000000000104a154                uclass_unbind_device
 .text.uclass_resolve_seq
                0x000000000104a1a8       0xb0 drivers/built-in.o
                0x000000000104a1a8                uclass_resolve_seq
 .text.uclass_post_probe_device
                0x000000000104a258       0x2c drivers/built-in.o
                0x000000000104a258                uclass_post_probe_device
 .text.uclass_pre_remove_device
                0x000000000104a284       0x5c drivers/built-in.o
                0x000000000104a284                uclass_pre_remove_device
 .text.dm_warn  0x000000000104a2e0       0x88 drivers/built-in.o
                0x000000000104a2e0                dm_warn
 .text.device_unbind
                0x000000000104a368       0xd0 drivers/built-in.o
                0x000000000104a368                device_unbind
 .text.device_free
                0x000000000104a438       0x84 drivers/built-in.o
                0x000000000104a438                device_free
 .text.device_remove
                0x000000000104a4bc      0x14c drivers/built-in.o
                0x000000000104a4bc                device_remove
 .text.get_vpu_clk_level
                0x000000000104a608       0x44 drivers/built-in.o
 .text.get_vpu_clk_mux
                0x000000000104a64c       0x44 drivers/built-in.o
 .text.get_vpu_clk
                0x000000000104a690       0xfc drivers/built-in.o
 .text.vpu_check
                0x000000000104a78c       0x50 drivers/built-in.o
 .text.vpu_probe
                0x000000000104a7dc      0x604 drivers/built-in.o
                0x000000000104a7dc                vpu_probe
 .text.vpu_remove
                0x000000000104ade0       0x40 drivers/built-in.o
                0x000000000104ade0                vpu_remove
 .text.vpu_clk_change
                0x000000000104ae20      0x260 drivers/built-in.o
                0x000000000104ae20                vpu_clk_change
 .text.vpu_clk_get
                0x000000000104b080       0x50 drivers/built-in.o
                0x000000000104b080                vpu_clk_get
 .text.vpu_info_print
                0x000000000104b0d0       0x9c drivers/built-in.o
                0x000000000104b0d0                vpu_info_print
 .text.vcbus_test
                0x000000000104b16c      0x154 drivers/built-in.o
                0x000000000104b16c                vcbus_test
 .text.vpu_mem_pd_init_off
                0x000000000104b2c0        0x4 drivers/built-in.o
                0x000000000104b2c0                vpu_mem_pd_init_off
 .text.vpu_module_init_config
                0x000000000104b2c4       0xe4 drivers/built-in.o
                0x000000000104b2c4                vpu_module_init_config
 .text.vpu_power_on
                0x000000000104b3a8      0x248 drivers/built-in.o
                0x000000000104b3a8                vpu_power_on
 .text.vpu_power_off
                0x000000000104b5f0      0x218 drivers/built-in.o
                0x000000000104b5f0                vpu_power_off
 .text.amvecm_saturation_hue_post
                0x000000000104b808      0x16c drivers/built-in.o
 .text.set_viu2_osd_matrix_rgb2yuv.part.1
                0x000000000104b974      0x12c drivers/built-in.o
 .text.vpp_set_matrix_ycbcr2rgb.constprop.9
                0x000000000104baa0      0x2d4 drivers/built-in.o
 .text.set_vpp_matrix
                0x000000000104bd74      0x904 drivers/built-in.o
                0x000000000104bd74                set_vpp_matrix
 .text.set_vpp_lut
                0x000000000104c678      0x474 drivers/built-in.o
                0x000000000104c678                set_vpp_lut
 .text.is_osd_high_version
                0x000000000104caec       0x30 drivers/built-in.o
                0x000000000104caec                is_osd_high_version
 .text.set_vpp_bitdepth
                0x000000000104cb1c       0x38 drivers/built-in.o
 .text.set_osd1_rgb2yuv.constprop.8
                0x000000000104cb54      0x1c8 drivers/built-in.o
 .text.vpp_pq_init
                0x000000000104cd1c      0x120 drivers/built-in.o
                0x000000000104cd1c                vpp_pq_init
 .text.vpp_matrix_update
                0x000000000104ce3c      0x170 drivers/built-in.o
                0x000000000104ce3c                vpp_matrix_update
 .text.vpp_viu2_matrix_update
                0x000000000104cfac       0x88 drivers/built-in.o
                0x000000000104cfac                vpp_viu2_matrix_update
 .text.hdr_tx_pkt_cb
                0x000000000104d034      0x104 drivers/built-in.o
                0x000000000104d034                hdr_tx_pkt_cb
 .text.vpp_init
                0x000000000104d138      0x5b0 drivers/built-in.o
                0x000000000104d138                vpp_init
 .text.set_hdr_matrix
                0x000000000104d6e8      0x950 drivers/built-in.o
                0x000000000104d6e8                set_hdr_matrix
 .text.set_eotf_lut
                0x000000000104e038       0xac drivers/built-in.o
                0x000000000104e038                set_eotf_lut
 .text.set_ootf_lut
                0x000000000104e0e4       0xc8 drivers/built-in.o
                0x000000000104e0e4                set_ootf_lut
 .text.set_oetf_lut
                0x000000000104e1ac       0xe8 drivers/built-in.o
                0x000000000104e1ac                set_oetf_lut
 .text.set_c_gain
                0x000000000104e294       0xd4 drivers/built-in.o
                0x000000000104e294                set_c_gain
 .text.hdr_func
                0x000000000104e368      0xe24 drivers/built-in.o
                0x000000000104e368                hdr_func
 .text.meson_pwm_set_invert
                0x000000000104f18c       0x50 drivers/built-in.o
 .text.meson_pwm_remove
                0x000000000104f1dc       0x20 drivers/built-in.o
                0x000000000104f1dc                meson_pwm_remove
 .text.meson_pwm_blink_enable
                0x000000000104f1fc       0xb8 drivers/built-in.o
 .text.meson_pwm_set_blink_times
                0x000000000104f2b4       0xc8 drivers/built-in.o
 .text.meson_pwm_set_times
                0x000000000104f37c       0xf0 drivers/built-in.o
 .text.meson_pwm_set_config
                0x000000000104f46c      0x3d8 drivers/built-in.o
 .text.meson_pwm_probe
                0x000000000104f844       0x5c drivers/built-in.o
 .text.meson_pwm_set_enable
                0x000000000104f8a0       0xd8 drivers/built-in.o
 .text.efuse_read
                0x000000000104f978       0x58 drivers/built-in.o
                0x000000000104f978                efuse_read
 .text.efuse_write
                0x000000000104f9d0       0x84 drivers/built-in.o
                0x000000000104f9d0                efuse_write
 .text.efuse_read_usr
                0x000000000104fa54       0x74 drivers/built-in.o
                0x000000000104fa54                efuse_read_usr
 .text.efuse_write_usr
                0x000000000104fac8       0xac drivers/built-in.o
                0x000000000104fac8                efuse_write_usr
 .text.efuse_get_max
                0x000000000104fb74       0x34 drivers/built-in.o
                0x000000000104fb74                efuse_get_max
 .text.IS_FEAT_BOOT_VERIFY
                0x000000000104fba8       0x14 drivers/built-in.o
                0x000000000104fba8                IS_FEAT_BOOT_VERIFY
 .text._get_cfg_key_inf_byname
                0x000000000104fbbc       0xd8 drivers/built-in.o
 .text.efuse_usr_api_init_dtb
                0x000000000104fc94      0x3d8 drivers/built-in.o
                0x000000000104fc94                efuse_usr_api_init_dtb
 .text.efuse_usr_api_get_cfg_key_size
                0x000000000105006c       0x64 drivers/built-in.o
                0x000000000105006c                efuse_usr_api_get_cfg_key_size
 .text.efuse_usr_api_write_key
                0x00000000010500d0       0xf4 drivers/built-in.o
                0x00000000010500d0                efuse_usr_api_write_key
 .text.efuse_usr_api_read_key
                0x00000000010501c4      0x15c drivers/built-in.o
                0x00000000010501c4                efuse_usr_api_read_key
 .text.do_usr_efuse_api
                0x0000000001050320      0x4d0 drivers/built-in.o
 .text._get_km_ops_by_name
                0x00000000010507f0       0x84 drivers/built-in.o
 .text._keyman_hex_ascii_to_buf
                0x0000000001050874      0x1c4 drivers/built-in.o
                0x0000000001050874                _keyman_hex_ascii_to_buf
 .text._keyman_buf_to_hex_ascii
                0x0000000001050a38       0xcc drivers/built-in.o
                0x0000000001050a38                _keyman_buf_to_hex_ascii
 .text.key_unify_init
                0x0000000001050b04      0x108 drivers/built-in.o
                0x0000000001050b04                key_unify_init
 .text.key_unify_uninit
                0x0000000001050c0c       0x8c drivers/built-in.o
                0x0000000001050c0c                key_unify_uninit
 .text.key_unify_query_key_has_configure
                0x0000000001050c98       0x1c drivers/built-in.o
                0x0000000001050c98                key_unify_query_key_has_configure
 .text.key_unify_write
                0x0000000001050cb4       0xcc drivers/built-in.o
                0x0000000001050cb4                key_unify_write
 .text.key_unify_read
                0x0000000001050d80      0x154 drivers/built-in.o
                0x0000000001050d80                key_unify_read
 .text.key_unify_query_size
                0x0000000001050ed4       0xb8 drivers/built-in.o
                0x0000000001050ed4                key_unify_query_size
 .text.key_unify_query_exist
                0x0000000001050f8c       0x6c drivers/built-in.o
                0x0000000001050f8c                key_unify_query_exist
 .text.key_unify_query_secure
                0x0000000001050ff8       0xc0 drivers/built-in.o
                0x0000000001050ff8                key_unify_query_secure
 .text.do_keyunify
                0x00000000010510b8      0x3ec drivers/built-in.o
                0x00000000010510b8                do_keyunify
 .text.key_unify_query_canOverWrite
                0x00000000010514a4       0x68 drivers/built-in.o
                0x00000000010514a4                key_unify_query_canOverWrite
 .text.generalDataChange
                0x000000000105150c       0x48 drivers/built-in.o
 .text.do_keyman_init
                0x0000000001051554       0x28 drivers/built-in.o
 .text.do_keyman_exit
                0x000000000105157c        0x4 drivers/built-in.o
 .text.km_get_user_key_format
                0x0000000001051580      0x144 drivers/built-in.o
 .text.do_keymanage
                0x00000000010516c4       0x74 drivers/built-in.o
 .text.key_manage_init
                0x0000000001051738        0x4 drivers/built-in.o
                0x0000000001051738                key_manage_init
 .text.key_manage_exit
                0x000000000105173c        0x4 drivers/built-in.o
                0x000000000105173c                key_manage_exit
 .text.key_manage_write
                0x0000000001051740      0x6a0 drivers/built-in.o
                0x0000000001051740                key_manage_write
 .text.do_keyman_write
                0x0000000001051de0      0x1f8 drivers/built-in.o
 .text.key_manage_query_exist
                0x0000000001051fd8       0x68 drivers/built-in.o
                0x0000000001051fd8                key_manage_query_exist
 .text.key_manage_query_size
                0x0000000001052040      0x10c drivers/built-in.o
                0x0000000001052040                key_manage_query_size
 .text.key_manage_read
                0x000000000105214c      0x3ac drivers/built-in.o
                0x000000000105214c                key_manage_read
 .text.do_keyman_read
                0x00000000010524f8      0x190 drivers/built-in.o
 .text.key_manage_query_secure
                0x0000000001052688       0xb0 drivers/built-in.o
                0x0000000001052688                key_manage_query_secure
 .text.do_keyman_query
                0x0000000001052738      0x1ac drivers/built-in.o
 .text.key_manage_query_canOverWrite
                0x00000000010528e4        0x4 drivers/built-in.o
                0x00000000010528e4                key_manage_query_canOverWrite
 .text.unifykey_find_item_by_name
                0x00000000010528e8       0x70 drivers/built-in.o
 .text.unifykey_item_verify_check
                0x0000000001052958       0x6c drivers/built-in.o
 .text.keymanage_dts_get_key_device
                0x00000000010529c4       0xc0 drivers/built-in.o
                0x00000000010529c4                keymanage_dts_get_key_device
 .text.keymanage_dts_get_enc_type
                0x0000000001052a84       0x94 drivers/built-in.o
                0x0000000001052a84                keymanage_dts_get_enc_type
 .text.keymanage_dts_get_key_type
                0x0000000001052b18       0x94 drivers/built-in.o
                0x0000000001052b18                keymanage_dts_get_key_type
 .text.unifykey_get_efuse_version
                0x0000000001052bac       0x64 drivers/built-in.o
                0x0000000001052bac                unifykey_get_efuse_version
 .text.unifykey_get_encrypt_type
                0x0000000001052c10       0x10 drivers/built-in.o
                0x0000000001052c10                unifykey_get_encrypt_type
 .text.keymanage_dts_parse
                0x0000000001052c20      0x658 drivers/built-in.o
                0x0000000001052c20                keymanage_dts_parse
 .text.keymanage_securekey_init
                0x0000000001053278       0x30 drivers/built-in.o
                0x0000000001053278                keymanage_securekey_init
 .text.keymanage_securekey_exit
                0x00000000010532a8        0x8 drivers/built-in.o
                0x00000000010532a8                keymanage_securekey_exit
 .text.keymanage_secukey_write
                0x00000000010532b0      0x200 drivers/built-in.o
                0x00000000010532b0                keymanage_secukey_write
 .text.keymanage_secukey_size
                0x00000000010534b0        0x4 drivers/built-in.o
                0x00000000010534b0                keymanage_secukey_size
 .text.keymanage_secukey_exist
                0x00000000010534b4        0x4 drivers/built-in.o
                0x00000000010534b4                keymanage_secukey_exist
 .text.keymanage_secukey_can_read
                0x00000000010534b8       0x1c drivers/built-in.o
                0x00000000010534b8                keymanage_secukey_can_read
 .text.keymanage_secukey_read
                0x00000000010534d4       0xb8 drivers/built-in.o
                0x00000000010534d4                keymanage_secukey_read
 .text.keymanage_efuse_init
                0x000000000105358c       0x6c drivers/built-in.o
                0x000000000105358c                keymanage_efuse_init
 .text.keymange_efuse_exit
                0x00000000010535f8        0x8 drivers/built-in.o
                0x00000000010535f8                keymange_efuse_exit
 .text.keymanage_efuse_write
                0x0000000001053600       0x78 drivers/built-in.o
                0x0000000001053600                keymanage_efuse_write
 .text.keymanage_efuse_size
                0x0000000001053678       0x64 drivers/built-in.o
                0x0000000001053678                keymanage_efuse_size
 .text.keymanage_efuse_query_can_read
                0x00000000010536dc       0x28 drivers/built-in.o
                0x00000000010536dc                keymanage_efuse_query_can_read
 .text.keymanage_efuse_read
                0x0000000001053704       0x88 drivers/built-in.o
                0x0000000001053704                keymanage_efuse_read
 .text.keymanage_efuse_exist
                0x000000000105378c      0x118 drivers/built-in.o
                0x000000000105378c                keymanage_efuse_exist
 .text.aml_check_is_ready_for_sdc_produce
                0x00000000010538a4       0x7c drivers/built-in.o
                0x00000000010538a4                aml_check_is_ready_for_sdc_produce
 .text.is_tpl_loaded_from_usb
                0x0000000001053920       0x2c drivers/built-in.o
                0x0000000001053920                is_tpl_loaded_from_usb
 .text.is_tpl_loaded_from_ext_sdmmc
                0x000000000105394c       0x1c drivers/built-in.o
                0x000000000105394c                is_tpl_loaded_from_ext_sdmmc
 .text.aml_burn_check_uboot_loaded_for_burn
                0x0000000001053968       0x30 drivers/built-in.o
                0x0000000001053968                aml_burn_check_uboot_loaded_for_burn
 .text.aml_burn_usb_producing
                0x0000000001053998       0x2c drivers/built-in.o
                0x0000000001053998                aml_burn_usb_producing
 .text.aml_burn_sdc_producing
                0x00000000010539c4       0x24 drivers/built-in.o
                0x00000000010539c4                aml_burn_sdc_producing
 .text.aml_try_factory_usb_burning
                0x00000000010539e8       0x58 drivers/built-in.o
                0x00000000010539e8                aml_try_factory_usb_burning
 .text.aml_try_factory_sdcard_burning
                0x0000000001053a40       0x50 drivers/built-in.o
                0x0000000001053a40                aml_try_factory_sdcard_burning
 .text.dwc_otg_enable_common_interrupts
                0x0000000001053a90       0x38 drivers/built-in.o
 .text.ep0_out_start
                0x0000000001053ac8       0x54 drivers/built-in.o
 .text.b_platform_usb_check_g12b_revb
                0x0000000001053b1c       0x34 drivers/built-in.o
 .text.b_platform_usb_check_sm1
                0x0000000001053b50       0x20 drivers/built-in.o
 .text.dwc_otg_core_reset
                0x0000000001053b70       0x80 drivers/built-in.o
 .text.dwc_otg_flush_tx_fifo
                0x0000000001053bf0       0x38 drivers/built-in.o
 .text.usb_parameter_init
                0x0000000001053c28       0x84 drivers/built-in.o
                0x0000000001053c28                usb_parameter_init
 .text.do_gadget_setup
                0x0000000001053cac      0x268 drivers/built-in.o
                0x0000000001053cac                do_gadget_setup
 .text.do_vendor_request
                0x0000000001053f14      0x2a8 drivers/built-in.o
                0x0000000001053f14                do_vendor_request
 .text.do_modify_memory
                0x00000000010541bc       0xb0 drivers/built-in.o
                0x00000000010541bc                do_modify_memory
 .text.set_usb_phy21_tuning_update
                0x000000000105426c       0xa0 drivers/built-in.o
                0x000000000105426c                set_usb_phy21_tuning_update
 .text.set_usb_phy21_tuning_update_reset
                0x000000000105430c       0x3c drivers/built-in.o
                0x000000000105430c                set_usb_phy21_tuning_update_reset
 .text.set_usb_phy_config
                0x0000000001054348      0x1cc drivers/built-in.o
                0x0000000001054348                set_usb_phy_config
 .text.dwc_core_init
                0x0000000001054514      0x2f4 drivers/built-in.o
                0x0000000001054514                dwc_core_init
 .text.usb_pcd_init
                0x0000000001054808       0x20 drivers/built-in.o
                0x0000000001054808                usb_pcd_init
 .text.dwc_otg_pullup
                0x0000000001054828       0x38 drivers/built-in.o
                0x0000000001054828                dwc_otg_pullup
 .text.close_usb_phy_clock
                0x0000000001054860       0x44 drivers/built-in.o
                0x0000000001054860                close_usb_phy_clock
 .text.dwc_otg_ep_start_transfer
                0x00000000010548a4       0xf0 drivers/built-in.o
                0x00000000010548a4                dwc_otg_ep_start_transfer
 .text.do_setup_in_status_phase.isra.3
                0x0000000001054994       0x5c drivers/built-in.o
 .text.ep0_complete_request.constprop.14
                0x00000000010549f0       0xd8 drivers/built-in.o
 .text.dwc_otg_ep_req_start
                0x0000000001054ac8      0x1c8 drivers/built-in.o
                0x0000000001054ac8                dwc_otg_ep_req_start
 .text.start_bulk_transfer
                0x0000000001054c90       0x1c drivers/built-in.o
                0x0000000001054c90                start_bulk_transfer
 .text.do_vendor_in_complete
                0x0000000001054cac      0x160 drivers/built-in.o
                0x0000000001054cac                do_vendor_in_complete
 .text.bulk_cmd_reply
                0x0000000001054e0c       0xf0 drivers/built-in.o
 .text.dwc_otg_bulk_ep_enable
                0x0000000001054efc       0x6c drivers/built-in.o
                0x0000000001054efc                dwc_otg_bulk_ep_enable
 .text.bulk_transfer_reply
                0x0000000001054f68      0x260 drivers/built-in.o
                0x0000000001054f68                bulk_transfer_reply
 .text.do_bulk_complete
                0x00000000010551c8      0x174 drivers/built-in.o
                0x00000000010551c8                do_bulk_complete
 .text.dwc_otg_power_off_phy
                0x000000000105533c       0x7c drivers/built-in.o
                0x000000000105533c                dwc_otg_power_off_phy
 .text.do_vendor_out_complete
                0x00000000010553b8      0x3a0 drivers/built-in.o
                0x00000000010553b8                do_vendor_out_complete
 .text.pcd_out_completed.constprop.13
                0x0000000001055758       0x30 drivers/built-in.o
 .text.handle_ep0.isra.9
                0x0000000001055788      0x208 drivers/built-in.o
 .text.dwc_otg_ep_write_packet
                0x0000000001055990       0xb4 drivers/built-in.o
                0x0000000001055990                dwc_otg_ep_write_packet
 .text.dwc_otg_read_setup_packet
                0x0000000001055a44       0x24 drivers/built-in.o
                0x0000000001055a44                dwc_otg_read_setup_packet
 .text.dwc_otg_pcd_handle_rx_status_q_level_intr
                0x0000000001055a68      0x1ec drivers/built-in.o
                0x0000000001055a68                dwc_otg_pcd_handle_rx_status_q_level_intr
 .text.dwc_otg_pcd_handle_np_tx_fifo_empty_intr
                0x0000000001055c54      0x158 drivers/built-in.o
                0x0000000001055c54                dwc_otg_pcd_handle_np_tx_fifo_empty_intr
 .text.cb_4_bulk_in_reply
                0x0000000001055dac       0x4c drivers/built-in.o
 .text.platform_busy_increase_un_reported_size
                0x0000000001055df8      0x124 drivers/built-in.o
                0x0000000001055df8                platform_busy_increase_un_reported_size
 .text.dwc_otg_pcd_handle_enum_done_intr
                0x0000000001055f1c      0x118 drivers/built-in.o
                0x0000000001055f1c                dwc_otg_pcd_handle_enum_done_intr
 .text.dwc_otg_pcd_handle_usb_reset_intr
                0x0000000001056034      0x104 drivers/built-in.o
                0x0000000001056034                dwc_otg_pcd_handle_usb_reset_intr
 .text.dwc_common_irq
                0x0000000001056138       0x5c drivers/built-in.o
                0x0000000001056138                dwc_common_irq
 .text.dwc_pcd_irq
                0x0000000001056194      0x3ec drivers/built-in.o
                0x0000000001056194                dwc_pcd_irq
 .text.dwc_otg_irq
                0x0000000001056580       0x28 drivers/built-in.o
                0x0000000001056580                dwc_otg_irq
 .text.usb_pcd_irq
                0x00000000010565a8      0x158 drivers/built-in.o
                0x00000000010565a8                usb_pcd_irq
 .text.v2_usbburning
                0x0000000001056700       0x58 drivers/built-in.o
                0x0000000001056700                v2_usbburning
 .text.do_v2_usbtool
                0x0000000001056758       0x9c drivers/built-in.o
                0x0000000001056758                do_v2_usbtool
 .text.opimus_func_write_raw_img
                0x00000000010567f4       0xd0 drivers/built-in.o
                0x00000000010567f4                opimus_func_write_raw_img
 .text.optimus_simg2part
                0x00000000010568c4      0x1f4 drivers/built-in.o
                0x00000000010568c4                optimus_simg2part
 .text.optimus_sha1sum
                0x0000000001056ab8      0x378 drivers/built-in.o
                0x0000000001056ab8                optimus_sha1sum
 .text.optimus_mem_md
                0x0000000001056e30       0xb0 drivers/built-in.o
                0x0000000001056e30                optimus_mem_md
 .text.cb_4_dis_connect_intr
                0x0000000001056ee0       0x38 drivers/built-in.o
                0x0000000001056ee0                cb_4_dis_connect_intr
 .text.optimus_working
                0x0000000001056f18      0x5bc drivers/built-in.o
                0x0000000001056f18                optimus_working
 .text.optimus_enable_romboot_skip_boot
                0x00000000010574d4       0x58 drivers/built-in.o
 .text.optimus_storage_read.constprop.10
                0x000000000105752c      0x1d0 drivers/built-in.o
 .text.optimus_storage_open.constprop.13
                0x00000000010576fc      0x2d8 drivers/built-in.o
 .text.optimus_storage_close.constprop.12
                0x00000000010579d4       0x74 drivers/built-in.o
 .text.optimus_cb_simg_write_media
                0x0000000001057a48       0xbc drivers/built-in.o
                0x0000000001057a48                optimus_cb_simg_write_media
 .text.optimus_download_init
                0x0000000001057b04       0x28 drivers/built-in.o
                0x0000000001057b04                optimus_download_init
 .text.optimus_parse_img_download_info
                0x0000000001057b2c      0x388 drivers/built-in.o
                0x0000000001057b2c                optimus_parse_img_download_info
 .text.is_optimus_storage_inited
                0x0000000001057eb4       0x10 drivers/built-in.o
                0x0000000001057eb4                is_optimus_storage_inited
 .text.optimus_storage_init
                0x0000000001057ec4      0x2f4 drivers/built-in.o
                0x0000000001057ec4                optimus_storage_init
 .text.optimus_storage_exit
                0x00000000010581b8       0x28 drivers/built-in.o
                0x00000000010581b8                optimus_storage_exit
 .text.is_optimus_burn_complete
                0x00000000010581e0       0x48 drivers/built-in.o
                0x00000000010581e0                is_optimus_burn_complete
 .text.optimus_download_img_data
                0x0000000001058228      0x498 drivers/built-in.o
                0x0000000001058228                optimus_download_img_data
 .text.optimus_media_download_verify
                0x00000000010586c0      0x588 drivers/built-in.o
                0x00000000010586c0                optimus_media_download_verify
 .text.optimus_parse_download_cmd
                0x0000000001058c48      0x1d8 drivers/built-in.o
                0x0000000001058c48                optimus_parse_download_cmd
 .text.optimus_dump_storage_data
                0x0000000001058e20      0x12c drivers/built-in.o
                0x0000000001058e20                optimus_dump_storage_data
 .text.optimus_work_mode_get
                0x0000000001058f4c       0x10 drivers/built-in.o
                0x0000000001058f4c                optimus_work_mode_get
 .text.optimus_work_mode_set
                0x0000000001058f5c       0x14 drivers/built-in.o
                0x0000000001058f5c                optimus_work_mode_set
 .text.optimus_set_burn_complete_flag
                0x0000000001058f70       0xe4 drivers/built-in.o
                0x0000000001058f70                optimus_set_burn_complete_flag
 .text.optimus_reset
                0x0000000001059054       0x6c drivers/built-in.o
                0x0000000001059054                optimus_reset
 .text.optimus_poweroff
                0x00000000010590c0       0x34 drivers/built-in.o
                0x00000000010590c0                optimus_poweroff
 .text.optimus_burn_complete
                0x00000000010590f4       0xf8 drivers/built-in.o
                0x00000000010590f4                optimus_burn_complete
 .text.optimus_erase_bootloader
                0x00000000010591ec       0x70 drivers/built-in.o
                0x00000000010591ec                optimus_erase_bootloader
 .text.getenv_optimus
                0x000000000105925c       0x54 drivers/built-in.o
                0x000000000105925c                getenv_optimus
 .text.optimus_buf_manager_init
                0x00000000010592b0       0x5c drivers/built-in.o
                0x00000000010592b0                optimus_buf_manager_init
 .text.optimus_buf_manager_tplcmd_init
                0x000000000105930c      0x2bc drivers/built-in.o
                0x000000000105930c                optimus_buf_manager_tplcmd_init
 .text.optimus_buf_manager_get_buf_for_bulk_transfer
                0x00000000010595c8      0x124 drivers/built-in.o
                0x00000000010595c8                optimus_buf_manager_get_buf_for_bulk_transfer
 .text.optimus_buf_manager_report_transfer_complete
                0x00000000010596ec      0x268 drivers/built-in.o
                0x00000000010596ec                optimus_buf_manager_report_transfer_complete
 .text.optimus_buf_manager_get_command_data_for_upload_transfer
                0x0000000001059954       0x94 drivers/built-in.o
                0x0000000001059954                optimus_buf_manager_get_command_data_for_upload_transfer
 .text.optimus_simg_probe
                0x00000000010599e8       0xd0 drivers/built-in.o
                0x00000000010599e8                optimus_simg_probe
 .text.optimus_simg_parser_init
                0x0000000001059ab8       0x70 drivers/built-in.o
                0x0000000001059ab8                optimus_simg_parser_init
 .text.optimus_simg_to_media
                0x0000000001059b28      0x4d8 drivers/built-in.o
                0x0000000001059b28                optimus_simg_to_media
 .text.optimus_sparse_back_info_probe
                0x000000000105a000       0x68 drivers/built-in.o
                0x000000000105a000                optimus_sparse_back_info_probe
 .text.optimus_sparse_get_chunk_data
                0x000000000105a068      0x1c0 drivers/built-in.o
                0x000000000105a068                optimus_sparse_get_chunk_data
 .text.optimus_progress_init
                0x000000000105a228       0x60 drivers/built-in.o
                0x000000000105a228                optimus_progress_init
 .text.optimus_update_progress
                0x000000000105a288       0xb4 drivers/built-in.o
                0x000000000105a288                optimus_update_progress
 .text.optimus_hex_data_2_ascii_str
                0x000000000105a33c       0xc8 drivers/built-in.o
                0x000000000105a33c                optimus_hex_data_2_ascii_str
 .text.add_sum  0x000000000105a404       0xb0 drivers/built-in.o
                0x000000000105a404                add_sum
 .text.image_item_get_item_info_byid
                0x000000000105a4b4       0xf0 drivers/built-in.o
 .text.image_open
                0x000000000105a5a4      0x230 drivers/built-in.o
                0x000000000105a5a4                image_open
 .text.image_close
                0x000000000105a7d4       0x44 drivers/built-in.o
                0x000000000105a7d4                image_close
 .text.image_item_open
                0x000000000105a818      0x168 drivers/built-in.o
                0x000000000105a818                image_item_open
 .text.image_item_get_first_cluster_size
                0x000000000105a980       0x40 drivers/built-in.o
                0x000000000105a980                image_item_get_first_cluster_size
 .text.image_get_cluster_size
                0x000000000105a9c0        0x8 drivers/built-in.o
                0x000000000105a9c0                image_get_cluster_size
 .text.image_item_close
                0x000000000105a9c8        0x8 drivers/built-in.o
                0x000000000105a9c8                image_item_close
 .text.image_item_get_size
                0x000000000105a9d0        0x8 drivers/built-in.o
                0x000000000105a9d0                image_item_get_size
 .text.image_item_get_type
                0x000000000105a9d8        0x8 drivers/built-in.o
                0x000000000105a9d8                image_item_get_type
 .text.image_item_read
                0x000000000105a9e0      0x224 drivers/built-in.o
                0x000000000105a9e0                image_item_read
 .text.get_total_itemnr
                0x000000000105ac04        0x8 drivers/built-in.o
                0x000000000105ac04                get_total_itemnr
 .text.get_item_name
                0x000000000105ac0c       0xbc drivers/built-in.o
                0x000000000105ac0c                get_item_name
 .text.image_get_item_size_by_index
                0x000000000105acc8       0x9c drivers/built-in.o
                0x000000000105acc8                image_get_item_size_by_index
 .text.optimus_img_decoder_get_data_parts_size
                0x000000000105ad64      0x120 drivers/built-in.o
                0x000000000105ad64                optimus_img_decoder_get_data_parts_size
 .text.downcase
                0x000000000105ae84       0x34 drivers/built-in.o
 .text.disk_read
                0x000000000105aeb8       0x54 drivers/built-in.o
 .text.dirdelim
                0x000000000105af0c       0x34 drivers/built-in.o
 .text.put_fd   0x000000000105af40       0x14 drivers/built-in.o
 .text.get_name
                0x000000000105af54       0xd4 drivers/built-in.o
 .text.v2_ext_mmc_read
                0x000000000105b028       0x48 drivers/built-in.o
 .text.get_cluster
                0x000000000105b070       0xcc drivers/built-in.o
 .text.get_fatent
                0x000000000105b13c      0x18c drivers/built-in.o
 .text.slot2str
                0x000000000105b2c8       0xac drivers/built-in.o
 .text.get_vfatname
                0x000000000105b374      0x208 drivers/built-in.o
 .text.optimus_fat_get_fat_next_entry.part.2
                0x000000000105b57c       0xac drivers/built-in.o
 .text.optimus_fat_register_device
                0x000000000105b628      0x1b0 drivers/built-in.o
                0x000000000105b628                optimus_fat_register_device
 .text.do_fat_fseek
                0x000000000105b7d8      0x288 drivers/built-in.o
                0x000000000105b7d8                do_fat_fseek
 .text.do_fat_fopen
                0x000000000105ba60      0x80c drivers/built-in.o
                0x000000000105ba60                do_fat_fopen
 .text.do_fat_get_bytesperclust
                0x000000000105c26c       0x60 drivers/built-in.o
                0x000000000105c26c                do_fat_get_bytesperclust
 .text.do_fat_fread
                0x000000000105c2cc      0x484 drivers/built-in.o
                0x000000000105c2cc                do_fat_fread
 .text.do_fat_fclose
                0x000000000105c750       0x98 drivers/built-in.o
                0x000000000105c750                do_fat_fclose
 .text.do_fat_get_fileSz
                0x000000000105c7e8       0xb8 drivers/built-in.o
                0x000000000105c7e8                do_fat_get_fileSz
 .text.do_fat_get_file_format
                0x000000000105c8a0       0xa8 drivers/built-in.o
                0x000000000105c8a0                do_fat_get_file_format
 .text.optimus_device_probe
                0x000000000105c948       0xc8 drivers/built-in.o
                0x000000000105c948                optimus_device_probe
 .text.opt_file_read
                0x000000000105ca10       0x68 drivers/built-in.o
                0x000000000105ca10                opt_file_read
 .text.storage_get_partition_size_in_byte
                0x000000000105ca78       0x84 drivers/built-in.o
                0x000000000105ca78                storage_get_partition_size_in_byte
 .text.sdc_burn_buf_manager_init
                0x000000000105cafc      0x148 drivers/built-in.o
                0x000000000105cafc                sdc_burn_buf_manager_init
 .text.sdc_burn_verify
                0x000000000105cc44      0x18c drivers/built-in.o
                0x000000000105cc44                sdc_burn_verify
 .text.optimus_burn_partition_image
                0x000000000105cdd0      0x278 drivers/built-in.o
                0x000000000105cdd0                optimus_burn_partition_image
 .text.do_sdc_update
                0x000000000105d048      0x1cc drivers/built-in.o
                0x000000000105d048                do_sdc_update
 .text.get_burn_parts_from_img
                0x000000000105d214      0x180 drivers/built-in.o
                0x000000000105d214                get_burn_parts_from_img
 .text.optimus_verify_partition
                0x000000000105d394      0x1d4 drivers/built-in.o
                0x000000000105d394                optimus_verify_partition
 .text.optimus_burn_one_partition
                0x000000000105d568      0x460 drivers/built-in.o
 .text.optimus_sdc_burn_partitions
                0x000000000105d9c8      0x124 drivers/built-in.o
                0x000000000105d9c8                optimus_sdc_burn_partitions
 .text.optimus_sdc_burn_media_partition
                0x000000000105daec       0x24 drivers/built-in.o
                0x000000000105daec                optimus_sdc_burn_media_partition
 .text.optimus_burn_bootlader
                0x000000000105db10       0x5c drivers/built-in.o
                0x000000000105db10                optimus_burn_bootlader
 .text.optimus_report_burn_complete_sta
                0x000000000105db6c       0x64 drivers/built-in.o
                0x000000000105db6c                optimus_report_burn_complete_sta
 .text.optimus_sdc_burn_dtb_load
                0x000000000105dbd0      0x1f8 drivers/built-in.o
                0x000000000105dbd0                optimus_sdc_burn_dtb_load
 .text.optimus_burn_with_cfg_file
                0x000000000105ddc8      0x520 drivers/built-in.o
                0x000000000105ddc8                optimus_burn_with_cfg_file
 .text.optimus_burn_package_in_sdmmc
                0x000000000105e2e8       0x80 drivers/built-in.o
                0x000000000105e2e8                optimus_burn_package_in_sdmmc
 .text.do_sdc_burn
                0x000000000105e368       0x64 drivers/built-in.o
                0x000000000105e368                do_sdc_burn
 .text._optimus_parse_buf_2_lines
                0x000000000105e3cc      0x13c drivers/built-in.o
                0x000000000105e3cc                _optimus_parse_buf_2_lines
 .text._optimus_abandon_ini_comment_lines
                0x000000000105e508       0x60 drivers/built-in.o
                0x000000000105e508                _optimus_abandon_ini_comment_lines
 .text.parse_ini_file_2_valid_lines
                0x000000000105e568      0x1b4 drivers/built-in.o
                0x000000000105e568                parse_ini_file_2_valid_lines
 .text.optimus_ini_trans_lines_2_usr_params
                0x000000000105e71c      0x518 drivers/built-in.o
                0x000000000105e71c                optimus_ini_trans_lines_2_usr_params
 .text.optimus_aml_sdc_ini_check_set_valid
                0x000000000105ec34       0x5c drivers/built-in.o
 .text.optimus_aml_sdc_burn_ini_parse_usr_cfg
                0x000000000105ec90      0x5e8 drivers/built-in.o
 .text.print_burn_parts_para
                0x000000000105f278       0x90 drivers/built-in.o
                0x000000000105f278                print_burn_parts_para
 .text.print_sdc_burn_para
                0x000000000105f308       0xe8 drivers/built-in.o
                0x000000000105f308                print_sdc_burn_para
 .text.check_cfg_burn_parts
                0x000000000105f3f0       0xe8 drivers/built-in.o
                0x000000000105f3f0                check_cfg_burn_parts
 .text.parse_ini_cfg_file
                0x000000000105f4d8      0x15c drivers/built-in.o
                0x000000000105f4d8                parse_ini_cfg_file
 .text.optimus_burn_package_in_usb
                0x000000000105f634       0xf8 drivers/built-in.o
                0x000000000105f634                optimus_burn_package_in_usb
 .text.do_usb_burn
                0x000000000105f72c       0x6c drivers/built-in.o
                0x000000000105f72c                do_usb_burn
 .text.do_usb_update
                0x000000000105f798      0x1c4 drivers/built-in.o
                0x000000000105f798                do_usb_update
 .text.v2_key_burn
                0x000000000105f95c      0x2dc drivers/built-in.o
                0x000000000105f95c                v2_key_burn
 .text.v2_key_read
                0x000000000105fc38       0x9c drivers/built-in.o
                0x000000000105fc38                v2_key_read
 .text.v2_key_command
                0x000000000105fcd4      0x6f4 drivers/built-in.o
                0x000000000105fcd4                v2_key_command
 .text.optimus_prepare_upgrading_bmps
                0x00000000010603c8      0x250 drivers/built-in.o
 .text._show_burn_logo
                0x0000000001060618      0x104 drivers/built-in.o
 .text.show_logo_report_burn_ui_error
                0x000000000106071c       0x50 drivers/built-in.o
 .text.video_res_prepare_for_upgrade
                0x000000000106076c       0x88 drivers/built-in.o
                0x000000000106076c                video_res_prepare_for_upgrade
 .text.show_logo_to_report_burning
                0x00000000010607f4        0xc drivers/built-in.o
                0x00000000010607f4                show_logo_to_report_burning
 .text.optimus_progress_ui_request
                0x0000000001060800      0x18c drivers/built-in.o
                0x0000000001060800                optimus_progress_ui_request
 .text.optimus_progress_ui_set_smart_mode
                0x000000000106098c       0x7c drivers/built-in.o
                0x000000000106098c                optimus_progress_ui_set_smart_mode
 .text.optimus_progress_ui_set_unfocus_bkg
                0x0000000001060a08      0x14c drivers/built-in.o
                0x0000000001060a08                optimus_progress_ui_set_unfocus_bkg
 .text.optimus_progress_ui_direct_update_progress
                0x0000000001060b54      0x150 drivers/built-in.o
                0x0000000001060b54                optimus_progress_ui_direct_update_progress
 .text.optimus_progress_ui_update_by_bytes
                0x0000000001060ca4       0x54 drivers/built-in.o
                0x0000000001060ca4                optimus_progress_ui_update_by_bytes
 .text.optimus_progress_ui_release
                0x0000000001060cf8       0x38 drivers/built-in.o
                0x0000000001060cf8                optimus_progress_ui_release
 .text.optimus_progress_ui_request_for_sdc_burn
                0x0000000001060d30      0x234 drivers/built-in.o
                0x0000000001060d30                optimus_progress_ui_request_for_sdc_burn
 .text.optimus_progress_ui_report_upgrade_stat
                0x0000000001060f64       0x38 drivers/built-in.o
                0x0000000001060f64                optimus_progress_ui_report_upgrade_stat
 .text.optimus_progress_ui_printf
                0x0000000001060f9c       0xc0 drivers/built-in.o
                0x0000000001060f9c                optimus_progress_ui_printf
 .text.do_aml_sysrecovery
                0x000000000106105c      0x3fc drivers/built-in.o
 .text.canvas_init
                0x0000000001061458       0x8c drivers/built-in.o
                0x0000000001061458                canvas_init
 .text.canvas_config
                0x00000000010614e4      0x100 drivers/built-in.o
                0x00000000010614e4                canvas_config
 .text.osd_super_scale_enable
                0x00000000010615e4       0xdc drivers/built-in.o
 .text.osd1_update_coef
                0x00000000010616c0      0x130 drivers/built-in.o
 .text.osd2_update_coef
                0x00000000010617f0      0x140 drivers/built-in.o
 .text.viu2_osd1_update_disp_freescale_enable
                0x0000000001061930       0x18 drivers/built-in.o
 .text.viu2_osd1_update_coef
                0x0000000001061948      0x130 drivers/built-in.o
 .text.viu2_osd1_update_color_mode
                0x0000000001061a78       0x8c drivers/built-in.o
 .text.osd1_update_enable
                0x0000000001061b04      0x17c drivers/built-in.o
 .text.osd2_update_enable
                0x0000000001061c80      0x1ac drivers/built-in.o
 .text.viu2_osd1_update_enable
                0x0000000001061e2c       0x4c drivers/built-in.o
 .text.osd1_update_disp_osd_reverse
                0x0000000001061e78       0x54 drivers/built-in.o
 .text.osd2_update_disp_osd_reverse
                0x0000000001061ecc       0x54 drivers/built-in.o
 .text.viu2_osd1_update_disp_osd_reverse
                0x0000000001061f20       0x54 drivers/built-in.o
 .text.osd1_update_disp_osd_rotate
                0x0000000001061f74       0x18 drivers/built-in.o
 .text.osd2_update_disp_osd_rotate
                0x0000000001061f8c       0x18 drivers/built-in.o
 .text.viu2_osd1_update_disp_osd_rotate
                0x0000000001061fa4       0x18 drivers/built-in.o
 .text.osd1_update_color_key
                0x0000000001061fbc       0x28 drivers/built-in.o
 .text.osd2_update_color_key
                0x0000000001061fe4       0x28 drivers/built-in.o
 .text.viu2_osd1_update_color_key
                0x000000000106200c       0x28 drivers/built-in.o
 .text.osd1_update_color_key_enable
                0x0000000001062034       0x3c drivers/built-in.o
 .text.osd2_update_color_key_enable
                0x0000000001062070       0x3c drivers/built-in.o
 .text.viu2_osd1_update_color_key_enable
                0x00000000010620ac       0x3c drivers/built-in.o
 .text.osd1_update_gbl_alpha
                0x00000000010620e8       0x3c drivers/built-in.o
 .text.osd2_update_gbl_alpha
                0x0000000001062124       0x3c drivers/built-in.o
 .text.viu2_osd1_update_gbl_alpha
                0x0000000001062160       0x3c drivers/built-in.o
 .text.osd2_update_order
                0x000000000106219c       0x60 drivers/built-in.o
 .text.osd1_update_order
                0x00000000010621fc       0x60 drivers/built-in.o
 .text.viu2_osd1_update_order
                0x000000000106225c       0x18 drivers/built-in.o
 .text.osd2_update_disp_geometry
                0x0000000001062274      0x16c drivers/built-in.o
 .text.viu2_osd1_update_disp_geometry
                0x00000000010623e0       0xcc drivers/built-in.o
 .text.get_encp_line
                0x00000000010624ac       0xcc drivers/built-in.o
 .text.osd2_update_color_mode
                0x0000000001062578       0xcc drivers/built-in.o
 .text.osd1_update_disp_freescale_enable
                0x0000000001062644      0x2f8 drivers/built-in.o
 .text.osd1_update_disp_geometry
                0x000000000106293c      0x3b0 drivers/built-in.o
 .text.osd1_update_color_mode
                0x0000000001062cec       0xcc drivers/built-in.o
 .text.osd1_update_disp_scale_enable
                0x0000000001062db8       0x88 drivers/built-in.o
 .text.osd2_update_disp_scale_enable
                0x0000000001062e40       0x88 drivers/built-in.o
 .text.viu2_osd1_update_disp_scale_enable
                0x0000000001062ec8       0x88 drivers/built-in.o
 .text.osd2_update_disp_freescale_enable
                0x0000000001062f50      0x2a8 drivers/built-in.o
 .text.osd_set_log_level
                0x00000000010631f8       0x10 drivers/built-in.o
                0x00000000010631f8                osd_set_log_level
 .text.osd_get_hw_para
                0x0000000001063208       0x10 drivers/built-in.o
                0x0000000001063208                osd_get_hw_para
 .text.osd_wait_vsync_hw
                0x0000000001063218      0x324 drivers/built-in.o
                0x0000000001063218                osd_wait_vsync_hw
 .text.osd_set_scan_mode
                0x000000000106353c      0x160 drivers/built-in.o
                0x000000000106353c                osd_set_scan_mode
 .text.osd_setting_default_hwc
                0x000000000106369c      0x10c drivers/built-in.o
                0x000000000106369c                osd_setting_default_hwc
 .text.osd_update_blend
                0x00000000010637a8       0xb4 drivers/built-in.o
                0x00000000010637a8                osd_update_blend
 .text.osd_setup_hw
                0x000000000106385c      0x474 drivers/built-in.o
                0x000000000106385c                osd_setup_hw
 .text.osd_set_free_scale_enable_hw
                0x0000000001063cd0      0x22c drivers/built-in.o
                0x0000000001063cd0                osd_set_free_scale_enable_hw
 .text.osd_set_free_scale_mode_hw
                0x0000000001063efc       0x14 drivers/built-in.o
                0x0000000001063efc                osd_set_free_scale_mode_hw
 .text.osd_set_free_scale_axis_hw
                0x0000000001063f10       0x2c drivers/built-in.o
                0x0000000001063f10                osd_set_free_scale_axis_hw
 .text.osd_set_window_axis_hw
                0x0000000001063f3c       0xc4 drivers/built-in.o
                0x0000000001063f3c                osd_set_window_axis_hw
 .text.osd_enable_hw
                0x0000000001064000       0x68 drivers/built-in.o
                0x0000000001064000                osd_enable_hw
 .text.osd_pan_display_hw
                0x0000000001064068       0xf0 drivers/built-in.o
                0x0000000001064068                osd_pan_display_hw
 .text.osd_hist_enable
                0x0000000001064158       0x94 drivers/built-in.o
                0x0000000001064158                osd_hist_enable
 .text.osd_get_hist_stat
                0x00000000010641ec       0x70 drivers/built-in.o
                0x00000000010641ec                osd_get_hist_stat
 .text.osd_init_hw_viu2
                0x000000000106425c      0x11c drivers/built-in.o
                0x000000000106425c                osd_init_hw_viu2
 .text.osd_init_hw
                0x0000000001064378      0x438 drivers/built-in.o
                0x0000000001064378                osd_init_hw
 .text.parse_bmp_info
                0x00000000010647b0       0x9c drivers/built-in.o
 .text.get_osd_version
                0x000000000106484c       0x58 drivers/built-in.o
 .text.env_strtoul
                0x00000000010648a4       0x80 drivers/built-in.o
 .text.get_dts_node.constprop.1
                0x0000000001064924       0x88 drivers/built-in.o
 .text.osd_layer_init.constprop.2
                0x00000000010649ac       0xd8 drivers/built-in.o
 .text.get_fb_addr
                0x0000000001064a84      0x1cc drivers/built-in.o
                0x0000000001064a84                get_fb_addr
 .text.get_osd_layer
                0x0000000001064c50       0x88 drivers/built-in.o
                0x0000000001064c50                get_osd_layer
 .text.video_hw_init
                0x0000000001064cd8      0x210 drivers/built-in.o
                0x0000000001064cd8                video_hw_init
 .text.rle8_decode
                0x0000000001064ee8      0x15c drivers/built-in.o
                0x0000000001064ee8                rle8_decode
 .text.video_display_bitmap
                0x0000000001065044      0x5ec drivers/built-in.o
                0x0000000001065044                video_display_bitmap
 .text.video_display_raw
                0x0000000001065630      0x498 drivers/built-in.o
                0x0000000001065630                video_display_raw
 .text.video_scale_bitmap
                0x0000000001065ac8      0x1ac drivers/built-in.o
                0x0000000001065ac8                video_scale_bitmap
 .text.img_mode_set
                0x0000000001065c74       0x10 drivers/built-in.o
                0x0000000001065c74                img_mode_set
 .text.img_addr_set
                0x0000000001065c84       0x10 drivers/built-in.o
                0x0000000001065c84                img_addr_set
 .text.img_type_set
                0x0000000001065c94       0x10 drivers/built-in.o
                0x0000000001065c94                img_type_set
 .text.img_raw_size_set
                0x0000000001065ca4       0x18 drivers/built-in.o
                0x0000000001065ca4                img_raw_size_set
 .text.img_osd_init
                0x0000000001065cbc      0x10c drivers/built-in.o
                0x0000000001065cbc                img_osd_init
 .text.img_display
                0x0000000001065dc8       0x28 drivers/built-in.o
                0x0000000001065dc8                img_display
 .text.img_scale
                0x0000000001065df0       0x2c drivers/built-in.o
                0x0000000001065df0                img_scale
 .text.img_osd_clear
                0x0000000001065e1c       0x84 drivers/built-in.o
                0x0000000001065e1c                img_osd_clear
 .text.img_osd_uninit
                0x0000000001065ea0       0x10 drivers/built-in.o
                0x0000000001065ea0                img_osd_uninit
 .text.hist_set_golden_data
                0x0000000001065eb0      0x1f8 drivers/built-in.o
                0x0000000001065eb0                hist_set_golden_data
 .text.osd_rma_test
                0x00000000010660a8      0x3c4 drivers/built-in.o
                0x00000000010660a8                osd_rma_test
 .text.osd_debug
                0x000000000106646c      0x784 drivers/built-in.o
                0x000000000106646c                osd_debug
 .text.osd_test
                0x0000000001066bf0      0x204 drivers/built-in.o
                0x0000000001066bf0                osd_test
 .text.is_meson_g12
                0x0000000001066df4       0x48 drivers/built-in.o
 .text.enable_rgb_to_yuv_matrix_for_dvll.part.4
                0x0000000001066e3c      0x204 drivers/built-in.o
 .text.is_meson_txlx_stbmode
                0x0000000001067040       0x20 drivers/built-in.o
 .text.is_meson_tm2_stbmode
                0x0000000001067060       0x20 drivers/built-in.o
 .text.is_dolby_enable
                0x0000000001067080       0x94 drivers/built-in.o
                0x0000000001067080                is_dolby_enable
 .text.request_ll_mode
                0x0000000001067114       0x7c drivers/built-in.o
                0x0000000001067114                request_ll_mode
 .text.check_dolby_vision_on
                0x0000000001067190       0x58 drivers/built-in.o
                0x0000000001067190                check_dolby_vision_on
 .text.dv_read_reg
                0x00000000010671e8       0x10 drivers/built-in.o
                0x00000000010671e8                dv_read_reg
 .text.dv_write_reg
                0x00000000010671f8       0x10 drivers/built-in.o
                0x00000000010671f8                dv_write_reg
 .text.apply_stb_core_settings
                0x0000000001067208      0x930 drivers/built-in.o
                0x0000000001067208                apply_stb_core_settings
 .text.send_hdmi_pkt
                0x0000000001067b38      0x21c drivers/built-in.o
                0x0000000001067b38                send_hdmi_pkt
 .text.dolby_vision_process
                0x0000000001067d54      0x9a8 drivers/built-in.o
                0x0000000001067d54                dolby_vision_process
 .text.dolbyvision_dump_setting
                0x00000000010686fc      0x338 drivers/built-in.o
                0x00000000010686fc                dolbyvision_dump_setting
 .text.dolbyvision_debug
                0x0000000001068a34       0x10 drivers/built-in.o
                0x0000000001068a34                dolbyvision_debug
 .text.sort_L2_by_tMaxLum
                0x0000000001068a44       0xc8 drivers/built-in.o
 .text.get_md_size
                0x0000000001068b0c       0x50 drivers/built-in.o
 .text.update_dm_l0_for_hdmi.isra.1
                0x0000000001068b5c      0x3d8 drivers/built-in.o
 .text._powInSTaylor.constprop.5
                0x0000000001068f34       0x94 drivers/built-in.o
 .text.L2PqX    0x0000000001068fc8      0x218 drivers/built-in.o
 .text.comp_cfg_2_comp_reg.constprop.8
                0x00000000010691e0      0x3d8 drivers/built-in.o
 .text.FindChromaDist
                0x00000000010695b8      0x304 drivers/built-in.o
 .text.reduce_trims.isra.2
                0x00000000010698bc      0xa04 drivers/built-in.o
 .text.update_dm_ext_for_hdmi
                0x000000000106a2c0      0x224 drivers/built-in.o
 .text.filter_md
                0x000000000106a4e4       0xd8 drivers/built-in.o
                0x000000000106a4e4                filter_md
 .text.get_fixed_metadata
                0x000000000106a5bc      0x1b8 drivers/built-in.o
                0x000000000106a5bc                get_fixed_metadata
 .text.update_md_for_hdmi
                0x000000000106a774      0x168 drivers/built-in.o
                0x000000000106a774                update_md_for_hdmi
 .text.init_cp  0x000000000106a8dc       0xbc drivers/built-in.o
                0x000000000106a8dc                init_cp
 .text.destroy_cp
                0x000000000106a998        0x8 drivers/built-in.o
                0x000000000106a998                destroy_cp
 .text.init_cp_mmg
                0x000000000106a9a0       0x3c drivers/built-in.o
                0x000000000106a9a0                init_cp_mmg
 .text.set_dovi2hdr10_mapping
                0x000000000106a9dc        0x8 drivers/built-in.o
                0x000000000106a9dc                set_dovi2hdr10_mapping
 .text.set_support_el
                0x000000000106a9e4       0x10 drivers/built-in.o
                0x000000000106a9e4                set_support_el
 .text.get_info_frame
                0x000000000106a9f4      0x3c0 drivers/built-in.o
                0x000000000106a9f4                get_info_frame
 .text.vsvdb_to_target_param
                0x000000000106adb4      0x440 drivers/built-in.o
                0x000000000106adb4                vsvdb_to_target_param
 .text.commit_reg
                0x000000000106b1f4     0x162c drivers/built-in.o
                0x000000000106b1f4                commit_reg
 .text.read_md  0x000000000106c820      0x138 drivers/built-in.o
 .text.populate_graphics_param
                0x000000000106c958       0xe4 drivers/built-in.o
                0x000000000106c958                populate_graphics_param
 .text.control_path
                0x000000000106ca3c      0x930 drivers/built-in.o
                0x000000000106ca3c                control_path
 .text.InitDm   0x000000000106d36c       0x28 drivers/built-in.o
                0x000000000106d36c                InitDm
 .text.InitGrcSigEnv
                0x000000000106d394       0xc0 drivers/built-in.o
                0x000000000106d394                InitGrcSigEnv
 .text.InitAlpSigEnv
                0x000000000106d454       0x3c drivers/built-in.o
                0x000000000106d454                InitAlpSigEnv
 .text.InitSrcSigEnv
                0x000000000106d490       0xb8 drivers/built-in.o
                0x000000000106d490                InitSrcSigEnv
 .text.InitTgtSigEnv
                0x000000000106d548       0xa4 drivers/built-in.o
                0x000000000106d548                InitTgtSigEnv
 .text.InitTmCtrl
                0x000000000106d5ec       0xcc drivers/built-in.o
                0x000000000106d5ec                InitTmCtrl
 .text.InitDmCtrl
                0x000000000106d6b8       0x30 drivers/built-in.o
                0x000000000106d6b8                InitDmCtrl
 .text.InitDmCfg
                0x000000000106d6e8       0x60 drivers/built-in.o
                0x000000000106d6e8                InitDmCfg
 .text.GetDmCfg
                0x000000000106d748       0x54 drivers/built-in.o
                0x000000000106d748                GetDmCfg
 .text.InitMdsExt
                0x000000000106d79c       0xd0 drivers/built-in.o
                0x000000000106d79c                InitMdsExt
 .text.ClampLevel2
                0x000000000106d86c       0xac drivers/built-in.o
 .text.UpdateTcCtrlLevel
                0x000000000106d918       0xa0 drivers/built-in.o
 .text.CommitUs
                0x000000000106d9b8       0x9c drivers/built-in.o
 .text.SigEnv2KsFrmFmt
                0x000000000106da54      0x10c drivers/built-in.o
 .text.IntTcSigStaticCcm
                0x000000000106db60       0x20 drivers/built-in.o
 .text.DeriveTcLutDir
                0x000000000106db80       0x5c drivers/built-in.o
 .text.GetRange
                0x000000000106dbdc       0x7c drivers/built-in.o
 .text.TmCtrl2TcCtrl.isra.3
                0x000000000106dc58       0xc4 drivers/built-in.o
 .text.CommitTrim.isra.9
                0x000000000106dd1c      0x2f4 drivers/built-in.o
 .text.GetIptNormParam
                0x000000000106e010       0x88 drivers/built-in.o
 .text.CommitIptKsIMap
                0x000000000106e098       0xd0 drivers/built-in.o
 .text.UpdateTcSigHlgA.part.11
                0x000000000106e168       0x5c drivers/built-in.o
 .text.CreateToneCurve.isra.12
                0x000000000106e1c4      0x24c drivers/built-in.o
 .text.CommitKsOMap
                0x000000000106e410      0x4b0 drivers/built-in.o
 .text.DeGamma  0x000000000106e8c0       0xb0 drivers/built-in.o
                0x000000000106e8c0                DeGamma
 .text.PQ12ToL  0x000000000106e970       0x4c drivers/built-in.o
                0x000000000106e970                PQ12ToL
 .text.LToPQ12  0x000000000106e9bc      0x11c drivers/built-in.o
                0x000000000106e9bc                LToPQ12
 .text.TgtSigEnv2TcCtrl
                0x000000000106ead8       0xb4 drivers/built-in.o
 .text.InitDmKs
                0x000000000106eb8c       0x94 drivers/built-in.o
                0x000000000106eb8c                InitDmKs
 .text.CommitDmCfg
                0x000000000106ec20       0xd0 drivers/built-in.o
                0x000000000106ec20                CommitDmCfg
 .text.CheckMds
                0x000000000106ecf0       0x50 drivers/built-in.o
                0x000000000106ecf0                CheckMds
 .text.CommitMdsCsc
                0x000000000106ed40      0x300 drivers/built-in.o
                0x000000000106ed40                CommitMdsCsc
 .text.CommitMds
                0x000000000106f040     0x10bc drivers/built-in.o
                0x000000000106f040                CommitMds
 .text.GetStbTmm
                0x00000000010700fc       0xec drivers/built-in.o
                0x00000000010700fc                GetStbTmm
 .text.GetStbCc
                0x00000000010701e8       0x8c drivers/built-in.o
                0x00000000010701e8                GetStbCc
 .text.InitMmg  0x0000000001070274       0x1c drivers/built-in.o
                0x0000000001070274                InitMmg
 .text.RegMemReq
                0x0000000001070290       0x58 drivers/built-in.o
                0x0000000001070290                RegMemReq
 .text.MemAssignCbFunFc
                0x00000000010702e8        0xc drivers/built-in.o
                0x00000000010702e8                MemAssignCbFunFc
 .text.GetRgb2XyzM33
                0x00000000010702f4      0x320 drivers/built-in.o
 .text.Yuv2RgbOffsetRgbFxp
                0x0000000001070614       0x7c drivers/built-in.o
                0x0000000001070614                Yuv2RgbOffsetRgbFxp
 .text.GetYuvRgbOffFxp
                0x0000000001070690       0x30 drivers/built-in.o
                0x0000000001070690                GetYuvRgbOffFxp
 .text.MemCpyByte
                0x00000000010706c0       0x24 drivers/built-in.o
                0x00000000010706c0                MemCpyByte
 .text.MemEqByte
                0x00000000010706e4       0x34 drivers/built-in.o
                0x00000000010706e4                MemEqByte
 .text.abs_int64
                0x0000000001070718       0x18 drivers/built-in.o
                0x0000000001070718                abs_int64
 .text.FindInt64M33Precision
                0x0000000001070730       0x8c drivers/built-in.o
 .text.Adjust64M33ScaleTo16M33
                0x00000000010707bc       0xc4 drivers/built-in.o
                0x00000000010707bc                Adjust64M33ScaleTo16M33
 .text.Rgb2YuvM33Full2Narrow
                0x0000000001070880       0x94 drivers/built-in.o
 .text.Yuv2RgbM33Narrow2Full
                0x0000000001070914       0x90 drivers/built-in.o
 .text.M33TimesM33AS.constprop.2
                0x00000000010709a4       0x88 drivers/built-in.o
 .text.InvM33   0x0000000001070a2c      0x208 drivers/built-in.o
                0x0000000001070a2c                InvM33
 .text.AssignV3I2I
                0x0000000001070c34       0x1c drivers/built-in.o
                0x0000000001070c34                AssignV3I2I
 .text.AssignM33I2I
                0x0000000001070c50       0x34 drivers/built-in.o
                0x0000000001070c50                AssignM33I2I
 .text.GetLms2IptM33Fxp
                0x0000000001070c84       0x24 drivers/built-in.o
                0x0000000001070c84                GetLms2IptM33Fxp
 .text.GetLms2IptM33NarrowFxp
                0x0000000001070ca8       0x18 drivers/built-in.o
                0x0000000001070ca8                GetLms2IptM33NarrowFxp
 .text.GetIpt2LmsM33Fxp
                0x0000000001070cc0       0x24 drivers/built-in.o
                0x0000000001070cc0                GetIpt2LmsM33Fxp
 .text.GetIpt2LmsM33NarrowFxp
                0x0000000001070ce4       0x18 drivers/built-in.o
                0x0000000001070ce4                GetIpt2LmsM33NarrowFxp
 .text.GetRgb2YuvM33Fxp
                0x0000000001070cfc      0x144 drivers/built-in.o
                0x0000000001070cfc                GetRgb2YuvM33Fxp
 .text.GetRgb2LmsM33
                0x0000000001070e40       0x30 drivers/built-in.o
                0x0000000001070e40                GetRgb2LmsM33
 .text.GetRgb2LmsByDefM33
                0x0000000001070e70        0x4 drivers/built-in.o
                0x0000000001070e70                GetRgb2LmsByDefM33
 .text.GetRgb2LmsByPrimsM33Fxp
                0x0000000001070e74      0x128 drivers/built-in.o
                0x0000000001070e74                GetRgb2LmsByPrimsM33Fxp
 .text.GetRgb2LmsCtWpM33Fxp
                0x0000000001070f9c       0xc8 drivers/built-in.o
                0x0000000001070f9c                GetRgb2LmsCtWpM33Fxp
 .text.GetLms2RgbByDefM33Fxp
                0x0000000001071064       0x3c drivers/built-in.o
                0x0000000001071064                GetLms2RgbByDefM33Fxp
 .text.GetLms2RgbByPrimsM33Fxp
                0x00000000010710a0       0x4c drivers/built-in.o
                0x00000000010710a0                GetLms2RgbByPrimsM33Fxp
 .text.GetLms2RgbCtWpM33Fxp
                0x00000000010710ec       0xd4 drivers/built-in.o
                0x00000000010710ec                GetLms2RgbCtWpM33Fxp
 .text.GetYuv2RgbFromKrKgKbM33
                0x00000000010711c0       0x7c drivers/built-in.o
                0x00000000010711c0                GetYuv2RgbFromKrKgKbM33
 .text.GetYuv2RgbM33Fxp
                0x000000000107123c       0x9c drivers/built-in.o
                0x000000000107123c                GetYuv2RgbM33Fxp
 .text.GetYuv2RgbM33NarrowFxp
                0x00000000010712d8       0x3c drivers/built-in.o
                0x00000000010712d8                GetYuv2RgbM33NarrowFxp
 .text.GetRgb2YuvM33NarrowFxp
                0x0000000001071314       0x3c drivers/built-in.o
                0x0000000001071314                GetRgb2YuvM33NarrowFxp
 .text.powTaylor
                0x0000000001071350       0x40 drivers/built-in.o
                0x0000000001071350                powTaylor
 .text.log10Taylor
                0x0000000001071390       0x30 drivers/built-in.o
                0x0000000001071390                log10Taylor
 .text.sadd_sss
                0x00000000010713c0       0x24 drivers/built-in.o
                0x00000000010713c0                sadd_sss
 .text.ssub_sss
                0x00000000010713e4       0x20 drivers/built-in.o
                0x00000000010713e4                ssub_sss
 .text.uabs_ss  0x0000000001071404       0x18 drivers/built-in.o
                0x0000000001071404                uabs_ss
 .text.uabs_ls  0x000000000107141c       0x18 drivers/built-in.o
                0x000000000107141c                uabs_ls
 .text.smpy_ss  0x0000000001071434        0xc drivers/built-in.o
                0x0000000001071434                smpy_ss
 .text.unorm_u  0x0000000001071440       0x30 drivers/built-in.o
                0x0000000001071440                unorm_u
 .text.unorm_s  0x0000000001071470       0x14 drivers/built-in.o
                0x0000000001071470                unorm_s
 .text.unorm_ul
                0x0000000001071484       0x30 drivers/built-in.o
                0x0000000001071484                unorm_ul
 .text.unorm_sl
                0x00000000010714b4       0x14 drivers/built-in.o
                0x00000000010714b4                unorm_sl
 .text.sshl_ssu
                0x00000000010714c8       0x2c drivers/built-in.o
                0x00000000010714c8                sshl_ssu
 .text.sshr_sss
                0x00000000010714f4       0x24 drivers/built-in.o
                0x00000000010714f4                sshr_sss
 .text.sdiv_sls
                0x0000000001071518       0x2c drivers/built-in.o
                0x0000000001071518                sdiv_sls
 .text.fx_assert
                0x0000000001071544        0x4 drivers/built-in.o
                0x0000000001071544                fx_assert
 .text.fxLOG2Taylor
                0x0000000001071548      0x144 drivers/built-in.o
                0x0000000001071548                fxLOG2Taylor
 .text.fxPOW2Taylor
                0x000000000107168c       0xe4 drivers/built-in.o
                0x000000000107168c                fxPOW2Taylor
 .text.ssqrt_s  0x0000000001071770      0x100 drivers/built-in.o
                0x0000000001071770                ssqrt_s
 .text.ToneMapS
                0x0000000001071870      0x15c drivers/built-in.o
 .text.SaturationMapS
                0x00000000010719cc      0x15c drivers/built-in.o
 .text.PQToL    0x0000000001071b28       0x40 drivers/built-in.o
                0x0000000001071b28                PQToL
 .text.SaturationMapI
                0x0000000001071b68      0x1f8 drivers/built-in.o
 .text.CreateToneCurve3pxx
                0x0000000001071d60      0x340 drivers/built-in.o
                0x0000000001071d60                CreateToneCurve3pxx
 .text.CalcMappedParams3pxx
                0x00000000010720a0      0x51c drivers/built-in.o
                0x00000000010720a0                CalcMappedParams3pxx
 .text.CalcCurveParams
                0x00000000010725bc      0x7bc drivers/built-in.o
                0x00000000010725bc                CalcCurveParams
 .text.fxPOW2TaylorInt
                0x0000000001072d78       0x5c drivers/built-in.o
                0x0000000001072d78                fxPOW2TaylorInt
 .text.GenerateToneCurveLut
                0x0000000001072dd4      0x7e4 drivers/built-in.o
                0x0000000001072dd4                GenerateToneCurveLut
 .text.calcTaTb
                0x00000000010735b8      0x14c drivers/built-in.o
                0x00000000010735b8                calcTaTb
 .text.dv_md_parser_create
                0x0000000001073704       0x3c drivers/built-in.o
                0x0000000001073704                dv_md_parser_create
 .text.dv_md_parser_mem_query
                0x0000000001073740       0x1c drivers/built-in.o
                0x0000000001073740                dv_md_parser_mem_query
 .text.dv_md_parser_init
                0x000000000107375c      0x110 drivers/built-in.o
                0x000000000107375c                dv_md_parser_init
 .text.dv_md_parser_reset
                0x000000000107386c       0x48 drivers/built-in.o
                0x000000000107386c                dv_md_parser_reset
 .text.dv_md_parser_process
                0x00000000010738b4      0x1fc drivers/built-in.o
                0x00000000010738b4                dv_md_parser_process
 .text.dv_md_parser_get_last_err
                0x0000000001073ab0       0x14 drivers/built-in.o
                0x0000000001073ab0                dv_md_parser_get_last_err
 .text.dv_md_parser_get_errstr
                0x0000000001073ac4       0x10 drivers/built-in.o
                0x0000000001073ac4                dv_md_parser_get_errstr
 .text.find_index
                0x0000000001073ad4       0x28 drivers/built-in.o
 .text.assign_pivot_values
                0x0000000001073afc       0x84 drivers/built-in.o
                0x0000000001073afc                assign_pivot_values
 .text.assign_nlq_pivot_values
                0x0000000001073b80       0x64 drivers/built-in.o
                0x0000000001073b80                assign_nlq_pivot_values
 .text.validate_spatial_filter
                0x0000000001073be4      0x120 drivers/built-in.o
                0x0000000001073be4                validate_spatial_filter
 .text.validate_level
                0x0000000001073d04      0x188 drivers/built-in.o
                0x0000000001073d04                validate_level
 .text.validate_profile
                0x0000000001073e8c      0x1f8 drivers/built-in.o
                0x0000000001073e8c                validate_profile
 .text.validate_dm_payload
                0x0000000001074084      0x4dc drivers/built-in.o
                0x0000000001074084                validate_dm_payload
 .text.validate_composer_config
                0x0000000001074560      0xfa8 drivers/built-in.o
                0x0000000001074560                validate_composer_config
 .text.dm_rpu_payload_2_byte_sequence
                0x0000000001075508      0xbe0 drivers/built-in.o
                0x0000000001075508                dm_rpu_payload_2_byte_sequence
 .text.remove_dm_extensions
                0x00000000010760e8      0x15c drivers/built-in.o
                0x00000000010760e8                remove_dm_extensions
 .text.update_dm_extensions
                0x0000000001076244      0x1f4 drivers/built-in.o
                0x0000000001076244                update_dm_extensions
 .text.dump_rpu_buffer_info
                0x0000000001076438       0xe4 drivers/built-in.o
 .text.rpu_decoder_mem_query
                0x000000000107651c       0x64 drivers/built-in.o
                0x000000000107651c                rpu_decoder_mem_query
 .text.rpu_decoder_set_msg_log
                0x0000000001076580       0x10 drivers/built-in.o
                0x0000000001076580                rpu_decoder_set_msg_log
 .text.rpu_decoder_init
                0x0000000001076590      0x238 drivers/built-in.o
                0x0000000001076590                rpu_decoder_init
 .text.rpu_decoder_reset
                0x00000000010767c8       0xdc drivers/built-in.o
                0x00000000010767c8                rpu_decoder_reset
 .text.rpu_decoder_push_data
                0x00000000010768a4      0x2a4 drivers/built-in.o
                0x00000000010768a4                rpu_decoder_push_data
 .text.rpu_decoder_process_buffer
                0x0000000001076b48      0x39c drivers/built-in.o
                0x0000000001076b48                rpu_decoder_process_buffer
 .text.rpu_decoder_get_output
                0x0000000001076ee4      0x16c drivers/built-in.o
                0x0000000001076ee4                rpu_decoder_get_output
 .text.rpu_decoder_last_rpu_output
                0x0000000001077050       0x28 drivers/built-in.o
                0x0000000001077050                rpu_decoder_last_rpu_output
 .text.comp_rpu_2_main_cfg
                0x0000000001077078      0x398 drivers/built-in.o
                0x0000000001077078                comp_rpu_2_main_cfg
 .text.rpu_error_code_2_str
                0x0000000001077410       0x28 drivers/built-in.o
                0x0000000001077410                rpu_error_code_2_str
 .text.align_to_byte
                0x0000000001077438       0x78 drivers/built-in.o
 .text.store_md
                0x00000000010774b0       0x78 drivers/built-in.o
 .text.detect_MEL
                0x0000000001077528       0x70 drivers/built-in.o
                0x0000000001077528                detect_MEL
 .text.bitstream_init
                0x0000000001077598       0x94 drivers/built-in.o
                0x0000000001077598                bitstream_init
 .text.read_ue_v
                0x000000000107762c      0x1c0 drivers/built-in.o
                0x000000000107762c                read_ue_v
 .text.read_se_v
                0x00000000010777ec      0x224 drivers/built-in.o
                0x00000000010777ec                read_se_v
 .text.read_u_v
                0x0000000001077a10      0x174 drivers/built-in.o
                0x0000000001077a10                read_u_v
 .text.rpu_data_spatial_resampling_filter_exp_read
                0x0000000001077b84       0xb4 drivers/built-in.o
 .text.read_i_v
                0x0000000001077c38       0x38 drivers/built-in.o
                0x0000000001077c38                read_i_v
 .text.read_u_1
                0x0000000001077c70       0x1c drivers/built-in.o
                0x0000000001077c70                read_u_1
 .text.rpu_data_chroma_resampling_filter_1D_exp_read
                0x0000000001077c8c      0x220 drivers/built-in.o
 .text.rpu_payload_read
                0x0000000001077eac     0x124c drivers/built-in.o
                0x0000000001077eac                rpu_payload_read
 .text.ext_block_payload_read
                0x00000000010790f8      0x748 drivers/built-in.o
 .text.ext_blocks_read
                0x0000000001079840      0x390 drivers/built-in.o
 .text.dm_data_payload_read
                0x0000000001079bd0      0x628 drivers/built-in.o
                0x0000000001079bd0                dm_data_payload_read
 .text.rpu_header_read
                0x000000000107a1f8      0x658 drivers/built-in.o
                0x000000000107a1f8                rpu_header_read
 .text.md_parser_evt_handler_cb
                0x000000000107a850      0x190 drivers/built-in.o
 .text.metadata_parser_init
                0x000000000107a9e0      0x144 drivers/built-in.o
                0x000000000107a9e0                metadata_parser_init
 .text.metadata_parser_reset
                0x000000000107ab24       0x50 drivers/built-in.o
                0x000000000107ab24                metadata_parser_reset
 .text.metadata_parser_process
                0x000000000107ab74      0x138 drivers/built-in.o
                0x000000000107ab74                metadata_parser_process
 .text.metadata_parser_release
                0x000000000107acac        0x4 drivers/built-in.o
                0x000000000107acac                metadata_parser_release
 .text.getenv_int
                0x000000000107acb0       0xc0 drivers/built-in.o
 .text.vout_get_current_vmode
                0x000000000107ad70       0x10 drivers/built-in.o
                0x000000000107ad70                vout_get_current_vmode
 .text.vout_get_current_vinfo
                0x000000000107ad80        0xc drivers/built-in.o
                0x000000000107ad80                vout_get_current_vinfo
 .text.vout_get_current_axis
                0x000000000107ad8c      0x4bc drivers/built-in.o
                0x000000000107ad8c                vout_get_current_axis
 .text.vout_vinfo_dump
                0x000000000107b248       0x8c drivers/built-in.o
                0x000000000107b248                vout_vinfo_dump
 .text.vout_viu_mux
                0x000000000107b2d4      0x1c0 drivers/built-in.o
                0x000000000107b2d4                vout_viu_mux
 .text.vout_init
                0x000000000107b494      0x28c drivers/built-in.o
                0x000000000107b494                vout_init
 .text.cvbs_config_enci
                0x000000000107b720       0xf4 drivers/built-in.o
 .text.cvbs_set_vdac.part.2
                0x000000000107b814       0x5c drivers/built-in.o
 .text.cvbs_set_vid1_clk
                0x000000000107b870      0x1b8 drivers/built-in.o
 .text.cvbs_set_vid2_clk
                0x000000000107ba28      0x1c0 drivers/built-in.o
 .text.cvbs_config_clock
                0x000000000107bbe8      0x4c0 drivers/built-in.o
 .text.cvbs_set_bist
                0x000000000107c0a8      0x158 drivers/built-in.o
                0x000000000107c0a8                cvbs_set_bist
 .text.cvbs_set_vdac
                0x000000000107c200       0xd8 drivers/built-in.o
                0x000000000107c200                cvbs_set_vdac
 .text.cvbs_reg_debug
                0x000000000107c2d8      0x56c drivers/built-in.o
                0x000000000107c2d8                cvbs_reg_debug
 .text.cvbs_set_vmode
                0x000000000107c844      0x150 drivers/built-in.o
                0x000000000107c844                cvbs_set_vmode
 .text.cvbs_outputmode_check
                0x000000000107c994      0x100 drivers/built-in.o
                0x000000000107c994                cvbs_outputmode_check
 .text.cvbs_show_valid_vmode
                0x000000000107ca94        0xc drivers/built-in.o
                0x000000000107ca94                cvbs_show_valid_vmode
 .text.cvbs_performance_config
                0x000000000107caa0      0x2a0 drivers/built-in.o
                0x000000000107caa0                cvbs_performance_config
 .text.vdac_data_config
                0x000000000107cd40       0xac drivers/built-in.o
                0x000000000107cd40                vdac_data_config
 .text.cvbs_init
                0x000000000107cdec       0x14 drivers/built-in.o
                0x000000000107cdec                cvbs_init
 .text.outside  0x000000000107ce00       0x3c drivers/built-in.o
 .text.text_blend
                0x000000000107ce3c       0xf8 drivers/built-in.o
 .text.gr_sys_font
                0x000000000107cf34       0x10 drivers/built-in.o
                0x000000000107cf34                gr_sys_font
 .text.gr_text  0x000000000107cf44      0x15c drivers/built-in.o
                0x000000000107cf44                gr_text
 .text.gr_color
                0x000000000107d0a0       0x24 drivers/built-in.o
                0x000000000107d0a0                gr_color
 .text.gr_fill  0x000000000107d0c4      0x1bc drivers/built-in.o
                0x000000000107d0c4                gr_fill
 .text.gr_blit  0x000000000107d280      0x1dc drivers/built-in.o
                0x000000000107d280                gr_blit
 .text.gr_init_bmp_font
                0x000000000107d45c       0x94 drivers/built-in.o
                0x000000000107d45c                gr_init_bmp_font
 .text.gr_flip  0x000000000107d4f0       0x2c drivers/built-in.o
                0x000000000107d4f0                gr_flip
 .text.gr_init  0x000000000107d51c      0x17c drivers/built-in.o
                0x000000000107d51c                gr_init
 .text.gr_exit  0x000000000107d698       0x84 drivers/built-in.o
                0x000000000107d698                gr_exit
 .text.fbdev_exit
                0x000000000107d71c       0x4c drivers/built-in.o
 .text.fbdev_blank
                0x000000000107d768       0x2c drivers/built-in.o
 .text.set_displayed_framebuffer
                0x000000000107d794       0x80 drivers/built-in.o
 .text.fbdev_flip
                0x000000000107d814       0xec drivers/built-in.o
 .text.env_strtoul.constprop.2
                0x000000000107d900       0x50 drivers/built-in.o
 .text.fbdev_init
                0x000000000107d950      0x208 drivers/built-in.o
 .text.open_fbdev
                0x000000000107db58        0xc drivers/built-in.o
                0x000000000107db58                open_fbdev
 .text.malloc_surface
                0x000000000107db64       0x48 drivers/built-in.o
 .text.res_create_display_surface
                0x000000000107dbac      0x15c drivers/built-in.o
                0x000000000107dbac                res_create_display_surface
 .text.res_create_alpha_surface
                0x000000000107dd08      0x108 drivers/built-in.o
                0x000000000107dd08                res_create_alpha_surface
 .text.load_bmp
                0x000000000107de10      0x368 drivers/built-in.o
                0x000000000107de10                load_bmp
 .text.load_pic_from_partition
                0x000000000107e178       0xa0 drivers/built-in.o
                0x000000000107e178                load_pic_from_partition
 .text.read_bmp
                0x000000000107e218      0x100 drivers/built-in.o
                0x000000000107e218                read_bmp
 .text.set_fastboot_flag
                0x000000000107e318       0x10 drivers/built-in.o
                0x000000000107e318                set_fastboot_flag
 .text.screen_init
                0x000000000107e328       0x4c drivers/built-in.o
                0x000000000107e328                screen_init
 .text.screen_uninit
                0x000000000107e374        0x4 drivers/built-in.o
                0x000000000107e374                screen_uninit
 .text.gr_init_ext_font
                0x000000000107e378       0xa8 drivers/built-in.o
                0x000000000107e378                gr_init_ext_font
 .text.surface_loadbmp
                0x000000000107e420       0x60 drivers/built-in.o
                0x000000000107e420                surface_loadbmp
 .text.surface_disaplay
                0x000000000107e480       0x1c drivers/built-in.o
                0x000000000107e480                surface_disaplay
 .text.screen_setcolor
                0x000000000107e49c       0x14 drivers/built-in.o
                0x000000000107e49c                screen_setcolor
 .text.screen_drawtextline
                0x000000000107e4b0        0x4 drivers/built-in.o
                0x000000000107e4b0                screen_drawtextline
 .text.screen_fillrect
                0x000000000107e4b4        0xc drivers/built-in.o
                0x000000000107e4b4                screen_fillrect
 .text.screen_update
                0x000000000107e4c0        0x4 drivers/built-in.o
                0x000000000107e4c0                screen_update
 .text.bl31_storage_ops
                0x000000000107e4c4        0x8 drivers/built-in.o
 .text.bl31_storage_ops2
                0x000000000107e4cc        0x8 drivers/built-in.o
                0x000000000107e4cc                bl31_storage_ops2
 .text.bl31_storage_ops3
                0x000000000107e4d4        0x8 drivers/built-in.o
                0x000000000107e4d4                bl31_storage_ops3
 .text.secure_storage_init
                0x000000000107e4dc       0xcc drivers/built-in.o
                0x000000000107e4dc                secure_storage_init
 .text.secure_storage_getbuffer
                0x000000000107e5a8       0x78 drivers/built-in.o
                0x000000000107e5a8                secure_storage_getbuffer
 .text.secure_storage_notifier_ex
                0x000000000107e620       0x14 drivers/built-in.o
                0x000000000107e620                secure_storage_notifier_ex
 .text.secure_storage_write
                0x000000000107e634       0xb8 drivers/built-in.o
                0x000000000107e634                secure_storage_write
 .text.secure_storage_read
                0x000000000107e6ec       0xd0 drivers/built-in.o
                0x000000000107e6ec                secure_storage_read
 .text.secure_storage_query
                0x000000000107e7bc       0xa4 drivers/built-in.o
                0x000000000107e7bc                secure_storage_query
 .text.secure_storage_status
                0x000000000107e860       0xa4 drivers/built-in.o
                0x000000000107e860                secure_storage_status
 .text.secure_storage_tell
                0x000000000107e904       0xa4 drivers/built-in.o
                0x000000000107e904                secure_storage_tell
 .text.secure_storage_verify
                0x000000000107e9a8       0xb4 drivers/built-in.o
                0x000000000107e9a8                secure_storage_verify
 .text.secure_storage_set_info
                0x000000000107ea5c       0x14 drivers/built-in.o
                0x000000000107ea5c                secure_storage_set_info
 .text.secure_storage_set_enctype
                0x000000000107ea70       0x20 drivers/built-in.o
                0x000000000107ea70                secure_storage_set_enctype
 .text.amlkey_get_attr
                0x000000000107ea90       0x70 drivers/built-in.o
 .text.amlkey_init
                0x000000000107eb00      0x110 drivers/built-in.o
                0x000000000107eb00                amlkey_init
 .text.amlkey_isexsit
                0x000000000107ec10       0x70 drivers/built-in.o
                0x000000000107ec10                amlkey_isexsit
 .text.amlkey_issecure
                0x000000000107ec80       0x18 drivers/built-in.o
                0x000000000107ec80                amlkey_issecure
 .text.amlkey_size
                0x000000000107ec98       0x70 drivers/built-in.o
                0x000000000107ec98                amlkey_size
 .text.amlkey_read
                0x000000000107ed08       0x6c drivers/built-in.o
                0x000000000107ed08                amlkey_read
 .text.amlkey_write
                0x000000000107ed74       0xb8 drivers/built-in.o
                0x000000000107ed74                amlkey_write
 .text.amlkey_hash_4_secure
                0x000000000107ee2c        0x4 drivers/built-in.o
                0x000000000107ee2c                amlkey_hash_4_secure
 .text.saradc_clock_switch
                0x000000000107ee30       0x70 drivers/built-in.o
                0x000000000107ee30                saradc_clock_switch
 .text.saradc_clock_set
                0x000000000107eea0       0x60 drivers/built-in.o
                0x000000000107eea0                saradc_clock_set
 .text.saradc_hw_init
                0x000000000107ef00      0x134 drivers/built-in.o
                0x000000000107ef00                saradc_hw_init
 .text.saradc_probe
                0x000000000107f034       0x44 drivers/built-in.o
                0x000000000107f034                saradc_probe
 .text.saradc_value_trim
                0x000000000107f078       0x38 drivers/built-in.o
                0x000000000107f078                saradc_value_trim
 .text.get_adc_sample_gxbb_early
                0x000000000107f0b0      0x1f0 drivers/built-in.o
                0x000000000107f0b0                get_adc_sample_gxbb_early
 .text.get_adc_sample_gxbb
                0x000000000107f2a0        0x8 drivers/built-in.o
                0x000000000107f2a0                get_adc_sample_gxbb
 .text.get_adc_sample_gxbb_12bit
                0x000000000107f2a8        0x8 drivers/built-in.o
                0x000000000107f2a8                get_adc_sample_gxbb_12bit
 .text.saradc_enable
                0x000000000107f2b0       0x88 drivers/built-in.o
                0x000000000107f2b0                saradc_enable
 .text.saradc_disable
                0x000000000107f338       0x34 drivers/built-in.o
                0x000000000107f338                saradc_disable
 .text.saradc_sample_test
                0x000000000107f36c       0x90 drivers/built-in.o
                0x000000000107f36c                saradc_sample_test
 .text.jtag_set_pinmux
                0x000000000107f3fc       0xb4 drivers/built-in.o
                0x000000000107f3fc                jtag_set_pinmux
 .text.gpio_to_device
                0x000000000107f4b0       0x8c drivers/gpio/built-in.o
 .text.check_reserved
                0x000000000107f53c       0x50 drivers/gpio/built-in.o
 .text.gpio_renumber
                0x000000000107f58c       0x74 drivers/gpio/built-in.o
 .text.gpio_pre_remove
                0x000000000107f600       0x58 drivers/gpio/built-in.o
 .text.gpio_post_probe
                0x000000000107f658       0x44 drivers/gpio/built-in.o
 .text.gpio_lookup_name
                0x000000000107f69c      0x150 drivers/gpio/built-in.o
                0x000000000107f69c                gpio_lookup_name
 .text.gpio_request
                0x000000000107f7ec       0xb4 drivers/gpio/built-in.o
                0x000000000107f7ec                gpio_request
 .text.gpio_free
                0x000000000107f8a0       0x84 drivers/gpio/built-in.o
                0x000000000107f8a0                gpio_free
 .text.gpio_direction_input
                0x000000000107f924       0x50 drivers/gpio/built-in.o
                0x000000000107f924                gpio_direction_input
 .text.gpio_direction_output
                0x000000000107f974       0x60 drivers/gpio/built-in.o
                0x000000000107f974                gpio_direction_output
 .text.gpio_get_value
                0x000000000107f9d4       0x50 drivers/gpio/built-in.o
                0x000000000107f9d4                gpio_get_value
 .text.gpio_get_bank_info
                0x000000000107fa24       0x14 drivers/gpio/built-in.o
                0x000000000107fa24                gpio_get_bank_info
 .text.get_function
                0x000000000107fa38       0x90 drivers/gpio/built-in.o
                0x000000000107fa38                get_function
 .text.gpio_get_function
                0x000000000107fac8        0xc drivers/gpio/built-in.o
                0x000000000107fac8                gpio_get_function
 .text.gpio_get_raw_function
                0x000000000107fad4        0xc drivers/gpio/built-in.o
                0x000000000107fad4                gpio_get_raw_function
 .text.gpio_get_status
                0x000000000107fae0      0x114 drivers/gpio/built-in.o
                0x000000000107fae0                gpio_get_status
 .text.aml_gpio_get_function
                0x000000000107fbf4       0x38 drivers/gpio/built-in.o
 .text.aml_gpio_set_value
                0x000000000107fc2c       0x58 drivers/gpio/built-in.o
 .text.aml_gpio_get_value
                0x000000000107fc84       0x3c drivers/gpio/built-in.o
 .text.aml_gpio_direction_output
                0x000000000107fcc0       0x78 drivers/gpio/built-in.o
 .text.aml_gpio_direction_input
                0x000000000107fd38       0x40 drivers/gpio/built-in.o
 .text.aml_gpio_probe
                0x000000000107fd78       0x48 drivers/gpio/built-in.o
 .text.aml_gpio_request
                0x000000000107fdc0       0x2c drivers/gpio/built-in.o
 .text.aml_i2c_set_token_list
                0x000000000107fdec       0x80 drivers/i2c/built-in.o
 .text.aml_i2c_do_address
                0x000000000107fe6c       0x7c drivers/i2c/built-in.o
 .text.aml_i2c_clear_token_list
                0x000000000107fee8       0x68 drivers/i2c/built-in.o
 .text.aml_i2c_start_token_xfer
                0x000000000107ff50       0x70 drivers/i2c/built-in.o
 .text.aml_i2c_set_clk
                0x000000000107ffc0      0x108 drivers/i2c/built-in.o
 .text.aml_i2c_xfer_prepare
                0x00000000010800c8       0xb8 drivers/i2c/built-in.o
 .text.aml_i2c_wait_ack
                0x0000000001080180       0xd8 drivers/i2c/built-in.o
 .text.aml_i2c_dbg
                0x0000000001080258      0x228 drivers/i2c/built-in.o
 .text.aml_i2c_write
                0x0000000001080480      0x1d8 drivers/i2c/built-in.o
 .text.aml_i2c_read
                0x0000000001080658      0x230 drivers/i2c/built-in.o
 .text.aml_i2c_stop
                0x0000000001080888       0xc0 drivers/i2c/built-in.o
 .text.aml_i2c_xfer
                0x0000000001080948      0x208 drivers/i2c/built-in.o
                0x0000000001080948                aml_i2c_xfer
 .text.aml_i2c_init_port
                0x0000000001080b50      0x294 drivers/i2c/built-in.o
                0x0000000001080b50                aml_i2c_init_port
 .text.aml_i2c_init
                0x0000000001080de4       0x24 drivers/i2c/built-in.o
                0x0000000001080de4                aml_i2c_init
 .text.i2c_read
                0x0000000001080e08       0xe0 drivers/i2c/built-in.o
                0x0000000001080e08                i2c_read
 .text.i2c_write
                0x0000000001080ee8      0x144 drivers/i2c/built-in.o
                0x0000000001080ee8                i2c_write
 .text.i2c_probe
                0x000000000108102c       0x84 drivers/i2c/built-in.o
                0x000000000108102c                i2c_probe
 .text.i2c_init
                0x00000000010810b0       0x28 drivers/i2c/built-in.o
                0x00000000010810b0                i2c_init
 .text.i2c_get_bus_speed
                0x00000000010810d8       0x28 drivers/i2c/built-in.o
                0x00000000010810d8                i2c_get_bus_speed
 .text.i2c_set_bus_speed
                0x0000000001081100       0x9c drivers/i2c/built-in.o
                0x0000000001081100                i2c_set_bus_speed
 .text.mmc_set_ios
                0x000000000108119c       0x24 drivers/mmc/built-in.o
 .text.mmc_set_capacity
                0x00000000010811c0       0x9c drivers/mmc/built-in.o
 .text.mmc_reserved_write
                0x000000000108125c       0xb4 drivers/mmc/built-in.o
 .text.mmc_reserved_erase
                0x0000000001081310       0x84 drivers/mmc/built-in.o
 .text.emmckey_is_access_range_legal
                0x0000000001081394       0xd4 drivers/mmc/built-in.o
                0x0000000001081394                emmckey_is_access_range_legal
 .text.board_mmc_getwp
                0x0000000001081468        0x8 drivers/mmc/built-in.o
                0x0000000001081468                board_mmc_getwp
 .text.mmc_getwp
                0x0000000001081470       0x44 drivers/mmc/built-in.o
                0x0000000001081470                mmc_getwp
 .text.board_mmc_getcd
                0x00000000010814b4        0x8 drivers/mmc/built-in.o
                0x00000000010814b4                board_mmc_getcd
 .text.mmc_send_cmd
                0x00000000010814bc       0x20 drivers/mmc/built-in.o
                0x00000000010814bc                mmc_send_cmd
 .text.mmc_send_ext_csd
                0x00000000010814dc       0x48 drivers/mmc/built-in.o
 .text.mmc_go_idle
                0x0000000001081524       0x54 drivers/mmc/built-in.o
 .text.mmc_send_status
                0x0000000001081578       0xdc drivers/mmc/built-in.o
                0x0000000001081578                mmc_send_status
 .text.mmc_set_blocklen
                0x0000000001081654       0x44 drivers/mmc/built-in.o
                0x0000000001081654                mmc_set_blocklen
 .text.find_mmc_device
                0x0000000001081698       0x54 drivers/mmc/built-in.o
                0x0000000001081698                find_mmc_device
 .text.mmc_bread
                0x00000000010816ec      0x1ec drivers/mmc/built-in.o
                0x00000000010816ec                mmc_bread
 .text.mmc_reserved_read
                0x00000000010818d8       0x94 drivers/mmc/built-in.o
 .text.mmc_switch
                0x000000000108196c       0x5c drivers/mmc/built-in.o
                0x000000000108196c                mmc_switch
 .text.mmc_hwpart_config
                0x00000000010819c8      0x424 drivers/mmc/built-in.o
                0x00000000010819c8                mmc_hwpart_config
 .text.mmc_set_ext_csd
                0x0000000001081dec       0x44 drivers/mmc/built-in.o
                0x0000000001081dec                mmc_set_ext_csd
 .text.mmc_get_ext_csd
                0x0000000001081e30        0x4 drivers/mmc/built-in.o
                0x0000000001081e30                mmc_get_ext_csd
 .text.mmc_switch_part
                0x0000000001081e34       0x6c drivers/mmc/built-in.o
                0x0000000001081e34                mmc_switch_part
 .text.mmc_select_hwpart
                0x0000000001081ea0       0x84 drivers/mmc/built-in.o
                0x0000000001081ea0                mmc_select_hwpart
 .text.mmc_getcd
                0x0000000001081f24       0x44 drivers/mmc/built-in.o
                0x0000000001081f24                mmc_getcd
 .text.aml_emmc_refix
                0x0000000001081f68       0x7c drivers/mmc/built-in.o
                0x0000000001081f68                aml_emmc_refix
 .text.mmc_set_clock
                0x0000000001081fe4       0x24 drivers/mmc/built-in.o
                0x0000000001081fe4                mmc_set_clock
 .text.mmc_startup
                0x0000000001082008      0xae0 drivers/mmc/built-in.o
 .text.mmc_create
                0x0000000001082ae8       0xf0 drivers/mmc/built-in.o
                0x0000000001082ae8                mmc_create
 .text.board_mmc_power_init
                0x0000000001082bd8        0x4 drivers/mmc/built-in.o
                0x0000000001082bd8                board_mmc_power_init
 .text.mmc_start_init
                0x0000000001082bdc      0x238 drivers/mmc/built-in.o
                0x0000000001082bdc                mmc_start_init
 .text.mmc_write_cali_mattern
                0x0000000001082e14       0xa8 drivers/mmc/built-in.o
                0x0000000001082e14                mmc_write_cali_mattern
 .text.mmc_pattern_check
                0x0000000001082ebc      0x1a8 drivers/mmc/built-in.o
                0x0000000001082ebc                mmc_pattern_check
 .text.mmc_init
                0x0000000001083064      0x214 drivers/mmc/built-in.o
                0x0000000001083064                mmc_init
 .text.mmc_get_dev
                0x0000000001083278       0x38 drivers/mmc/built-in.o
                0x0000000001083278                mmc_get_dev
 .text.mmc_ffu_op
                0x00000000010832b0      0x2c4 drivers/mmc/built-in.o
                0x00000000010832b0                mmc_ffu_op
 .text.get_boot_size
                0x0000000001083574       0xd0 drivers/mmc/built-in.o
                0x0000000001083574                get_boot_size
 .text.mmc_set_dsr
                0x0000000001083644       0x10 drivers/mmc/built-in.o
                0x0000000001083644                mmc_set_dsr
 .text.cpu_mmc_init
                0x0000000001083654        0x8 drivers/mmc/built-in.o
                0x0000000001083654                cpu_mmc_init
 .text.print_mmc_devices
                0x000000000108365c       0xb4 drivers/mmc/built-in.o
                0x000000000108365c                print_mmc_devices
 .text.get_mmc_num
                0x0000000001083710       0x10 drivers/mmc/built-in.o
                0x0000000001083710                get_mmc_num
 .text.mmc_initialize
                0x0000000001083720       0x80 drivers/mmc/built-in.o
                0x0000000001083720                mmc_initialize
 .text.mmc_key_read
                0x00000000010837a0       0x5c drivers/mmc/built-in.o
                0x00000000010837a0                mmc_key_read
 .text.mmc_key_write
                0x00000000010837fc       0x4c drivers/mmc/built-in.o
                0x00000000010837fc                mmc_key_write
 .text.mmc_key_erase
                0x0000000001083848       0x44 drivers/mmc/built-in.o
                0x0000000001083848                mmc_key_erase
 .text.mmc_ddr_parameter_read
                0x000000000108388c       0x18 drivers/mmc/built-in.o
                0x000000000108388c                mmc_ddr_parameter_read
 .text.mmc_ddr_parameter_write
                0x00000000010838a4       0x18 drivers/mmc/built-in.o
                0x00000000010838a4                mmc_ddr_parameter_write
 .text.mmc_ddr_parameter_erase
                0x00000000010838bc       0x10 drivers/mmc/built-in.o
                0x00000000010838bc                mmc_ddr_parameter_erase
 .text.sd_inand_clear_response
                0x00000000010838cc       0x18 drivers/mmc/built-in.o
 .text.aml_sd_cfg_swth
                0x00000000010838e4      0x194 drivers/mmc/built-in.o
                0x00000000010838e4                aml_sd_cfg_swth
 .text.aml_sd_send_cmd
                0x0000000001083a78      0x428 drivers/mmc/built-in.o
                0x0000000001083a78                aml_sd_send_cmd
 .text.aml_sd_calibration
                0x0000000001083ea0       0x54 drivers/mmc/built-in.o
                0x0000000001083ea0                aml_sd_calibration
 .text.aml_sd_init
                0x0000000001083ef4      0x128 drivers/mmc/built-in.o
                0x0000000001083ef4                aml_sd_init
 .text.set_emmc_calc_fixed_adj
                0x000000000108401c       0xbc drivers/mmc/built-in.o
                0x000000000108401c                set_emmc_calc_fixed_adj
 .text.cpu_sd_emmc_get
                0x00000000010840d8       0x28 drivers/mmc/built-in.o
                0x00000000010840d8                cpu_sd_emmc_get
 .text.aml_sd_send_cmd_ffu
                0x0000000001084100      0x3d8 drivers/mmc/built-in.o
                0x0000000001084100                aml_sd_send_cmd_ffu
 .text.aml_send_calibration_blocks
                0x00000000010844d8       0xd0 drivers/mmc/built-in.o
                0x00000000010844d8                aml_send_calibration_blocks
 .text.aml_sd_retry_refix
                0x00000000010845a8      0x240 drivers/mmc/built-in.o
                0x00000000010845a8                aml_sd_retry_refix
 .text.sd_emmc_register
                0x00000000010847e8       0x7c drivers/mmc/built-in.o
                0x00000000010847e8                sd_emmc_register
 .text.aml_is_emmc_tsd
                0x0000000001084864       0x14 drivers/mmc/built-in.o
                0x0000000001084864                aml_is_emmc_tsd
 .text._calc_iptbl_check
                0x0000000001084878       0x84 drivers/mmc/built-in.o
 .text._find_partition_by_name
                0x00000000010848fc       0x68 drivers/mmc/built-in.o
 .text._zalloc_iptbl
                0x0000000001084964       0xb8 drivers/mmc/built-in.o
 .text._calculate_offset.isra.3
                0x0000000001084a1c      0x108 drivers/mmc/built-in.o
 .text._get_version
                0x0000000001084b24       0x58 drivers/mmc/built-in.o
 .text._get_inherent_offset
                0x0000000001084b7c       0x34 drivers/mmc/built-in.o
                0x0000000001084b7c                _get_inherent_offset
 .text.find_mmc_partition_by_name
                0x0000000001084bb0       0x28 drivers/mmc/built-in.o
                0x0000000001084bb0                find_mmc_partition_by_name
 .text.find_dev_num_by_partition_name
                0x0000000001084bd8       0x48 drivers/mmc/built-in.o
                0x0000000001084bd8                find_dev_num_by_partition_name
 .text.get_part_info_from_tbl
                0x0000000001084c20       0x70 drivers/mmc/built-in.o
                0x0000000001084c20                get_part_info_from_tbl
 .text.mmc_boot_size
                0x0000000001084c90        0x4 drivers/mmc/built-in.o
                0x0000000001084c90                mmc_boot_size
 .text.aml_get_partition_by_name
                0x0000000001084c94       0x5c drivers/mmc/built-in.o
                0x0000000001084c94                aml_get_partition_by_name
 .text.aml_get_virtual_partition_by_name
                0x0000000001084cf0       0x6c drivers/mmc/built-in.o
                0x0000000001084cf0                aml_get_virtual_partition_by_name
 .text.mmc_device_init
                0x0000000001084d5c      0x8c8 drivers/mmc/built-in.o
                0x0000000001084d5c                mmc_device_init
 .text.find_virtual_partition_by_name
                0x0000000001085624       0xdc drivers/mmc/built-in.o
                0x0000000001085624                find_virtual_partition_by_name
 .text.get_part_info_by_name
                0x0000000001085700       0xfc drivers/mmc/built-in.o
                0x0000000001085700                get_part_info_by_name
 .text.get_partition_num_by_name
                0x00000000010857fc       0x6c drivers/mmc/built-in.o
                0x00000000010857fc                get_partition_num_by_name
 .text.mmc_berase_becalled
                0x0000000001085868      0x134 drivers/mmc/built-in.o
                0x0000000001085868                mmc_berase_becalled
 .text.mmc_bwrite
                0x000000000108599c      0x1ac drivers/mmc/built-in.o
                0x000000000108599c                mmc_bwrite
 .text.mmc_zero_out
                0x0000000001085b48       0xa8 drivers/mmc/built-in.o
 .text.mmc_berase
                0x0000000001085bf0      0x174 drivers/mmc/built-in.o
                0x0000000001085bf0                mmc_berase
 .text.mmc_ffu_write
                0x0000000001085d64       0xf4 drivers/mmc/built-in.o
                0x0000000001085d64                mmc_ffu_write
 .text.idr_get_next
                0x0000000001085e58       0x48 drivers/mtd/built-in.o
                0x0000000001085e58                idr_get_next
 .text.idr_alloc
                0x0000000001085ea0       0x38 drivers/mtd/built-in.o
                0x0000000001085ea0                idr_alloc
 .text.__mtd_next_device
                0x0000000001085ed8       0x24 drivers/mtd/built-in.o
                0x0000000001085ed8                __mtd_next_device
 .text.del_mtd_device
                0x0000000001085efc       0x64 drivers/mtd/built-in.o
                0x0000000001085efc                del_mtd_device
 .text.__get_mtd_device
                0x0000000001085f60       0x40 drivers/mtd/built-in.o
                0x0000000001085f60                __get_mtd_device
 .text.get_mtd_device
                0x0000000001085fa0       0xa0 drivers/mtd/built-in.o
                0x0000000001085fa0                get_mtd_device
 .text.get_mtd_device_nm
                0x0000000001086040       0x64 drivers/mtd/built-in.o
                0x0000000001086040                get_mtd_device_nm
 .text.__put_mtd_device
                0x00000000010860a4       0x54 drivers/mtd/built-in.o
                0x00000000010860a4                __put_mtd_device
 .text.put_mtd_device
                0x00000000010860f8        0x4 drivers/mtd/built-in.o
                0x00000000010860f8                put_mtd_device
 .text.mtd_erase
                0x00000000010860fc       0x7c drivers/mtd/built-in.o
                0x00000000010860fc                mtd_erase
 .text.mtd_read
                0x0000000001086178       0x74 drivers/mtd/built-in.o
                0x0000000001086178                mtd_read
 .text.mtd_write
                0x00000000010861ec       0x64 drivers/mtd/built-in.o
                0x00000000010861ec                mtd_write
 .text.mtd_read_oob
                0x0000000001086250       0x64 drivers/mtd/built-in.o
                0x0000000001086250                mtd_read_oob
 .text.mtd_unlock
                0x00000000010862b4       0x58 drivers/mtd/built-in.o
                0x00000000010862b4                mtd_unlock
 .text.add_mtd_device
                0x000000000108630c      0x1e8 drivers/mtd/built-in.o
                0x000000000108630c                add_mtd_device
 .text.mtd_block_isbad
                0x00000000010864f4       0x3c drivers/mtd/built-in.o
                0x00000000010864f4                mtd_block_isbad
 .text.mtd_block_markbad
                0x0000000001086530       0x4c drivers/mtd/built-in.o
                0x0000000001086530                mtd_block_markbad
 .text.part_get_unmapped_area
                0x000000000108657c       0x28 drivers/mtd/built-in.o
 .text.part_read_user_prot_reg
                0x00000000010865a4       0x1c drivers/mtd/built-in.o
 .text.part_get_user_prot_info
                0x00000000010865c0       0x1c drivers/mtd/built-in.o
 .text.part_read_fact_prot_reg
                0x00000000010865dc       0x1c drivers/mtd/built-in.o
 .text.part_get_fact_prot_info
                0x00000000010865f8       0x1c drivers/mtd/built-in.o
 .text.part_write
                0x0000000001086614       0x28 drivers/mtd/built-in.o
 .text.part_panic_write
                0x000000000108663c       0x28 drivers/mtd/built-in.o
 .text.part_write_oob
                0x0000000001086664       0x54 drivers/mtd/built-in.o
 .text.part_write_user_prot_reg
                0x00000000010866b8       0x1c drivers/mtd/built-in.o
 .text.part_lock_user_prot_reg
                0x00000000010866d4       0x1c drivers/mtd/built-in.o
 .text.part_lock
                0x00000000010866f0       0x28 drivers/mtd/built-in.o
 .text.part_unlock
                0x0000000001086718       0x28 drivers/mtd/built-in.o
 .text.part_is_locked
                0x0000000001086740       0x28 drivers/mtd/built-in.o
 .text.part_sync
                0x0000000001086768       0x1c drivers/mtd/built-in.o
 .text.part_block_isbad
                0x0000000001086784       0x24 drivers/mtd/built-in.o
 .text.part_block_markbad
                0x00000000010867a8       0x40 drivers/mtd/built-in.o
 .text.part_read
                0x00000000010867e8       0x78 drivers/mtd/built-in.o
 .text.part_read_oob
                0x0000000001086860      0x160 drivers/mtd/built-in.o
 .text.part_erase
                0x00000000010869c0       0x64 drivers/mtd/built-in.o
 .text.kstrdup  0x0000000001086a24       0x5c drivers/mtd/built-in.o
                0x0000000001086a24                kstrdup
 .text.mtd_erase_callback
                0x0000000001086a80       0x58 drivers/mtd/built-in.o
                0x0000000001086a80                mtd_erase_callback
 .text.del_mtd_partitions
                0x0000000001086ad8       0xb4 drivers/mtd/built-in.o
                0x0000000001086ad8                del_mtd_partitions
 .text.add_mtd_partitions
                0x0000000001086b8c      0x634 drivers/mtd/built-in.o
                0x0000000001086b8c                add_mtd_partitions
 .text.mtd_is_partition
                0x00000000010871c0       0x3c drivers/mtd/built-in.o
                0x00000000010871c0                mtd_is_partition
 .text.mtd_get_device_size
                0x00000000010871fc       0x34 drivers/mtd/built-in.o
                0x00000000010871fc                mtd_get_device_size
 .text.get_mtd_size
                0x0000000001087230       0x78 drivers/mtd/built-in.o
                0x0000000001087230                get_mtd_size
 .text.mtdparts_init
                0x00000000010872a8      0x134 drivers/mtd/built-in.o
                0x00000000010872a8                mtdparts_init
 .text.verify_bbt_descr
                0x00000000010873dc      0x180 drivers/mtd/nand/built-in.o
 .text.create_bbt
                0x000000000108755c      0x1d4 drivers/mtd/nand/built-in.o
 .text.read_bbt
                0x0000000001087730      0x1dc drivers/mtd/nand/built-in.o
 .text.read_abs_bbt
                0x000000000108790c       0xf0 drivers/mtd/nand/built-in.o
 .text.write_bbt
                0x00000000010879fc      0x56c drivers/mtd/nand/built-in.o
 .text.nand_update_bbt
                0x0000000001087f68      0x12c drivers/mtd/nand/built-in.o
 .text.mark_bbt_region
                0x0000000001088094      0x184 drivers/mtd/nand/built-in.o
 .text.scan_read
                0x0000000001088218       0xec drivers/mtd/nand/built-in.o
 .text.search_bbt
                0x0000000001088304      0x17c drivers/mtd/nand/built-in.o
 .text.nand_scan_bbt
                0x0000000001088480      0x484 drivers/mtd/nand/built-in.o
                0x0000000001088480                nand_scan_bbt
 .text.nand_default_bbt
                0x0000000001088904       0xd0 drivers/mtd/nand/built-in.o
                0x0000000001088904                nand_default_bbt
 .text.nand_isbad_bbt
                0x00000000010889d4       0x44 drivers/mtd/nand/built-in.o
                0x00000000010889d4                nand_isbad_bbt
 .text.nand_markbad_bbt
                0x0000000001088a18       0x48 drivers/mtd/nand/built-in.o
                0x0000000001088a18                nand_markbad_bbt
 .text.check_skip_len
                0x0000000001088a60       0xbc drivers/mtd/nand/built-in.o
 .text.nand_erase_opts
                0x0000000001088b1c      0x328 drivers/mtd/nand/built-in.o
                0x0000000001088b1c                nand_erase_opts
 .text.nand_write_skip_bad
                0x0000000001088e44      0x1f4 drivers/mtd/nand/built-in.o
                0x0000000001088e44                nand_write_skip_bad
 .text.nand_read_skip_bad
                0x0000000001089038      0x1f0 drivers/mtd/nand/built-in.o
                0x0000000001089038                nand_read_skip_bad
 .text.nand_torture
                0x0000000001089228      0x250 drivers/mtd/nand/built-in.o
                0x0000000001089228                nand_torture
 .text.nand_calculate_ecc
                0x0000000001089478       0xf0 drivers/mtd/nand/built-in.o
                0x0000000001089478                nand_calculate_ecc
 .text.nand_correct_data
                0x0000000001089568      0x138 drivers/mtd/nand/built-in.o
                0x0000000001089568                nand_correct_data
 .text.nand_release_device
                0x00000000010896a0       0x20 drivers/mtd/nand/built-in.o
 .text.nand_check_wp
                0x00000000010896c0       0x5c drivers/mtd/nand/built-in.o
 .text.nand_read_page_raw_syndrome
                0x000000000108971c      0x104 drivers/mtd/nand/built-in.o
 .text.nand_read_page_swecc
                0x0000000001089820      0x140 drivers/mtd/nand/built-in.o
 .text.nand_read_subpage
                0x0000000001089960      0x278 drivers/mtd/nand/built-in.o
 .text.nand_read_page_hwecc
                0x0000000001089bd8      0x16c drivers/mtd/nand/built-in.o
 .text.nand_read_page_hwecc_oob_first
                0x0000000001089d44      0x178 drivers/mtd/nand/built-in.o
 .text.nand_read_page_syndrome
                0x0000000001089ebc      0x164 drivers/mtd/nand/built-in.o
 .text.nand_setup_read_retry
                0x000000000108a020       0x3c drivers/mtd/nand/built-in.o
 .text.nand_read_oob_std
                0x000000000108a05c       0x4c drivers/mtd/nand/built-in.o
 .text.nand_read_oob_syndrome
                0x000000000108a0a8      0x11c drivers/mtd/nand/built-in.o
 .text.nand_write_oob_std
                0x000000000108a1c4       0x90 drivers/mtd/nand/built-in.o
 .text.nand_write_oob_syndrome
                0x000000000108a254      0x1a0 drivers/mtd/nand/built-in.o
 .text.nand_write_page_raw_syndrome
                0x000000000108a3f4      0x104 drivers/mtd/nand/built-in.o
 .text.nand_write_page_swecc
                0x000000000108a4f8       0xcc drivers/mtd/nand/built-in.o
 .text.nand_write_page_hwecc
                0x000000000108a5c4       0xf0 drivers/mtd/nand/built-in.o
 .text.nand_write_page_syndrome
                0x000000000108a6b4      0x124 drivers/mtd/nand/built-in.o
 .text.nand_sync
                0x000000000108a7d8       0x10 drivers/mtd/nand/built-in.o
 .text.nand_block_checkbad
                0x000000000108a7e8       0x80 drivers/mtd/nand/built-in.o
 .text.nand_block_isbad
                0x000000000108a868        0xc drivers/mtd/nand/built-in.o
 .text.nand_write_page
                0x000000000108a874      0x134 drivers/mtd/nand/built-in.o
 .text.nand_write_subpage_hwecc
                0x000000000108a9a8      0x1a0 drivers/mtd/nand/built-in.o
 .text.nand_fill_oob
                0x000000000108ab48      0x138 drivers/mtd/nand/built-in.o
 .text.nand_do_write_oob
                0x000000000108ac80      0x16c drivers/mtd/nand/built-in.o
 .text.nand_do_write_ops
                0x000000000108adec      0x32c drivers/mtd/nand/built-in.o
 .text.nand_write_oob
                0x000000000108b118       0x88 drivers/mtd/nand/built-in.o
 .text.nand_write
                0x000000000108b1a0       0x60 drivers/mtd/nand/built-in.o
 .text.generic_ffs
                0x000000000108b200       0xc0 drivers/mtd/nand/built-in.o
 .text.nand_read_page_raw
                0x000000000108b2c0       0x54 drivers/mtd/nand/built-in.o
 .text.nand_write_page_raw
                0x000000000108b314       0x54 drivers/mtd/nand/built-in.o
 .text.nand_transfer_oob
                0x000000000108b368      0x11c drivers/mtd/nand/built-in.o
 .text.panic_nand_write
                0x000000000108b484       0xbc drivers/mtd/nand/built-in.o
 .text.nand_wait_ready
                0x000000000108b540       0x58 drivers/mtd/nand/built-in.o
                0x000000000108b540                nand_wait_ready
 .text.nand_do_read_ops
                0x000000000108b598      0x3f8 drivers/mtd/nand/built-in.o
 .text.nand_read_oob
                0x000000000108b990      0x264 drivers/mtd/nand/built-in.o
 .text.nand_read
                0x000000000108bbf4       0x60 drivers/mtd/nand/built-in.o
 .text.nand_erase_nand
                0x000000000108bc54      0x20c drivers/mtd/nand/built-in.o
                0x000000000108bc54                nand_erase_nand
 .text.nand_block_markbad
                0x000000000108be60       0xe4 drivers/mtd/nand/built-in.o
 .text.nand_erase
                0x000000000108bf44        0x8 drivers/mtd/nand/built-in.o
 .text.nand_scan_tail
                0x000000000108bf4c      0x64c drivers/mtd/nand/built-in.o
                0x000000000108bf4c                nand_scan_tail
 .text.spinand_erase_block
                0x000000000108c598       0x80 drivers/mtd/nand/built-in.o
 .text.spinand_read_page_raw
                0x000000000108c618       0x34 drivers/mtd/nand/built-in.o
 .text.spinand_read_oob_std
                0x000000000108c64c       0x30 drivers/mtd/nand/built-in.o
 .text.spinand_write_page_raw
                0x000000000108c67c       0x34 drivers/mtd/nand/built-in.o
 .text.spinand_write_page_hwecc
                0x000000000108c6b0       0x34 drivers/mtd/nand/built-in.o
 .text.spinand_write_oob_raw
                0x000000000108c6e4       0xcc drivers/mtd/nand/built-in.o
 .text.spinand_write_oob_std
                0x000000000108c7b0       0xcc drivers/mtd/nand/built-in.o
 .text.spinand_set_feature
                0x000000000108c87c       0x7c drivers/mtd/nand/built-in.o
 .text.spinand_read_page_hwecc
                0x000000000108c8f8       0xa8 drivers/mtd/nand/built-in.o
 .text.spinand_read_byte
                0x000000000108c9a0       0x70 drivers/mtd/nand/built-in.o
 .text.spinand_write_buf
                0x000000000108ca10       0xe8 drivers/mtd/nand/built-in.o
 .text.spinand_read_buf
                0x000000000108caf8       0xfc drivers/mtd/nand/built-in.o
 .text.spinand_cmdfunc
                0x000000000108cbf4      0x194 drivers/mtd/nand/built-in.o
 .text.spinand_get_feature
                0x000000000108cd88       0xa0 drivers/mtd/nand/built-in.o
 .text.fill_oob
                0x000000000108ce28      0x138 drivers/mtd/nand/built-in.o
 .text.spinand_do_write_oob
                0x000000000108cf60      0x120 drivers/mtd/nand/built-in.o
 .text.spinand_do_write_ops
                0x000000000108d080      0x26c drivers/mtd/nand/built-in.o
 .text.spinand_get_device.isra.2
                0x000000000108d2ec       0x30 drivers/mtd/nand/built-in.o
 .text.spinand_mtd_sync
                0x000000000108d31c       0x30 drivers/mtd/nand/built-in.o
 .text.spinand_block_bad
                0x000000000108d34c      0x130 drivers/mtd/nand/built-in.o
 .text.spinand_mtd_write
                0x000000000108d47c       0x84 drivers/mtd/nand/built-in.o
 .text.spinand_write_page
                0x000000000108d500      0x100 drivers/mtd/nand/built-in.o
 .text.spinand_mtd_write_oob
                0x000000000108d600       0x74 drivers/mtd/nand/built-in.o
 .text.transfer_oob
                0x000000000108d674      0x11c drivers/mtd/nand/built-in.o
 .text.spinand_do_read_ops
                0x000000000108d790      0x2e4 drivers/mtd/nand/built-in.o
 .text.spinand_mtd_read
                0x000000000108da74       0x84 drivers/mtd/nand/built-in.o
 .text.spinand_mtd_read_oob
                0x000000000108daf8      0x250 drivers/mtd/nand/built-in.o
 .text.spinand_waitfunc
                0x000000000108dd48       0xb0 drivers/mtd/nand/built-in.o
 .text.spinand_mtd_block_isbad
                0x000000000108ddf8       0x34 drivers/mtd/nand/built-in.o
 .text.spinand_mtd_block_markbad
                0x000000000108de2c       0x50 drivers/mtd/nand/built-in.o
 .text.erase_nand
                0x000000000108de7c      0x1ac drivers/mtd/nand/built-in.o
                0x000000000108de7c                erase_nand
 .text.spinand_block_markbad
                0x000000000108e028      0x184 drivers/mtd/nand/built-in.o
 .text.spinand_mtd_erase
                0x000000000108e1ac        0x8 drivers/mtd/nand/built-in.o
 .text.spinand_scan_ident
                0x000000000108e1b4      0x480 drivers/mtd/nand/built-in.o
                0x000000000108e1b4                spinand_scan_ident
 .text.spinand_scan_tail
                0x000000000108e634      0x46c drivers/mtd/nand/built-in.o
                0x000000000108e634                spinand_scan_tail
 .text.spinand_scan
                0x000000000108eaa0       0x38 drivers/mtd/nand/built-in.o
                0x000000000108eaa0                spinand_scan
 .text.spinand_probe
                0x000000000108ead8      0x1dc drivers/mtd/nand/built-in.o
 .text.aml_nand_cmd_ctrl
                0x000000000108ecb4       0x20 drivers/mtd/nand/amlogic_mtd/built-in.o
                0x000000000108ecb4                aml_nand_cmd_ctrl
 .text.aml_platform_read_byte
                0x000000000108ecd4       0x7c drivers/mtd/nand/amlogic_mtd/built-in.o
 .text.aml_nand_command
                0x000000000108ed50      0x118 drivers/mtd/nand/amlogic_mtd/built-in.o
                0x000000000108ed50                aml_nand_command
 .text.aml_nand_select_chip
                0x000000000108ee68      0x43c drivers/mtd/nand/amlogic_mtd/built-in.o
 .text.generic_fls.part.0
                0x000000000108f2a4       0x50 drivers/mtd/nand/amlogic_mtd/built-in.o
 .text.aml_platform_get_user_byte
                0x000000000108f2f4       0x58 drivers/mtd/nand/amlogic_mtd/built-in.o
                0x000000000108f2f4                aml_platform_get_user_byte
 .text.aml_platform_set_user_byte
                0x000000000108f34c       0x54 drivers/mtd/nand/amlogic_mtd/built-in.o
                0x000000000108f34c                aml_platform_set_user_byte
 .text.aml_nand_block_bad_scrub_update_bbt
                0x000000000108f3a0        0x8 drivers/mtd/nand/amlogic_mtd/built-in.o
                0x000000000108f3a0                aml_nand_block_bad_scrub_update_bbt
 .text.aml_platform_cmd_ctrl
                0x000000000108f3a8       0x4c drivers/mtd/nand/amlogic_mtd/built-in.o
                0x000000000108f3a8                aml_platform_cmd_ctrl
 .text.aml_platform_wait_devready
                0x000000000108f3f4      0x134 drivers/mtd/nand/amlogic_mtd/built-in.o
                0x000000000108f3f4                aml_platform_wait_devready
 .text.aml_nand_wait
                0x000000000108f528      0x1fc drivers/mtd/nand/amlogic_mtd/built-in.o
                0x000000000108f528                aml_nand_wait
 .text.aml_nand_base_command
                0x000000000108f724      0x718 drivers/mtd/nand/amlogic_mtd/built-in.o
                0x000000000108f724                aml_nand_base_command
 .text.aml_nand_erase_cmd
                0x000000000108fe3c      0x198 drivers/mtd/nand/amlogic_mtd/built-in.o
                0x000000000108fe3c                aml_nand_erase_cmd
 .text.aml_nand_dma_read_buf
                0x000000000108ffd4       0x24 drivers/mtd/nand/amlogic_mtd/built-in.o
                0x000000000108ffd4                aml_nand_dma_read_buf
 .text.aml_nand_dma_write_buf
                0x000000000108fff8       0x24 drivers/mtd/nand/amlogic_mtd/built-in.o
                0x000000000108fff8                aml_nand_dma_write_buf
 .text.aml_nand_read_page_raw
                0x000000000109001c      0x290 drivers/mtd/nand/amlogic_mtd/built-in.o
                0x000000000109001c                aml_nand_read_page_raw
 .text.aml_nand_write_page_raw
                0x00000000010902ac      0x298 drivers/mtd/nand/amlogic_mtd/built-in.o
                0x00000000010902ac                aml_nand_write_page_raw
 .text.aml_nand_read_page_hwecc
                0x0000000001090544      0x638 drivers/mtd/nand/amlogic_mtd/built-in.o
                0x0000000001090544                aml_nand_read_page_hwecc
 .text.aml_nand_write_page_hwecc
                0x0000000001090b7c      0x304 drivers/mtd/nand/amlogic_mtd/built-in.o
                0x0000000001090b7c                aml_nand_write_page_hwecc
 .text.aml_nand_write_page
                0x0000000001090e80      0x128 drivers/mtd/nand/amlogic_mtd/built-in.o
                0x0000000001090e80                aml_nand_write_page
 .text.aml_nand_read_oob
                0x0000000001090fa8      0x6f0 drivers/mtd/nand/amlogic_mtd/built-in.o
                0x0000000001090fa8                aml_nand_read_oob
 .text.aml_nand_write_oob
                0x0000000001091698       0x40 drivers/mtd/nand/amlogic_mtd/built-in.o
                0x0000000001091698                aml_nand_write_oob
 .text.aml_nand_block_bad
                0x00000000010916d8      0x27c drivers/mtd/nand/amlogic_mtd/built-in.o
                0x00000000010916d8                aml_nand_block_bad
 .text.aml_nand_block_markbad
                0x0000000001091954      0x134 drivers/mtd/nand/amlogic_mtd/built-in.o
                0x0000000001091954                aml_nand_block_markbad
 .text.aml_platform_write_byte
                0x0000000001091a88       0xa0 drivers/mtd/nand/amlogic_mtd/built-in.o
                0x0000000001091a88                aml_platform_write_byte
 .text.aml_nand_init
                0x0000000001091b28      0x818 drivers/mtd/nand/amlogic_mtd/built-in.o
                0x0000000001091b28                aml_nand_init
 .text.m3_nand_hwecc_correct
                0x0000000001092340       0x74 drivers/mtd/nand/amlogic_mtd/built-in.o
 .text.m3_nand_options_confirm
                0x00000000010923b4      0x534 drivers/mtd/nand/amlogic_mtd/built-in.o
 .text.aml_platform_dma_waiting.isra.0
                0x00000000010928e8       0x7c drivers/mtd/nand/amlogic_mtd/built-in.o
 .text.m3_nand_dma_write
                0x0000000001092964      0x1d0 drivers/mtd/nand/amlogic_mtd/built-in.o
 .text.m3_nand_dma_read
                0x0000000001092b34      0x1d4 drivers/mtd/nand/amlogic_mtd/built-in.o
 .text.pinmux_select_chip_mtd
                0x0000000001092d08      0x184 drivers/mtd/nand/amlogic_mtd/built-in.o
                0x0000000001092d08                pinmux_select_chip_mtd
 .text.m3_nand_select_chip
                0x0000000001092e8c       0xc0 drivers/mtd/nand/amlogic_mtd/built-in.o
 .text.get_sys_clk_rate_mtd
                0x0000000001092f4c       0xfc drivers/mtd/nand/amlogic_mtd/built-in.o
                0x0000000001092f4c                get_sys_clk_rate_mtd
 .text.m3_nand_adjust_timing
                0x0000000001093048       0xc0 drivers/mtd/nand/amlogic_mtd/built-in.o
 .text.m3_nand_hw_init
                0x0000000001093108       0x70 drivers/mtd/nand/amlogic_mtd/built-in.o
 .text.nand_hw_init
                0x0000000001093178       0x60 drivers/mtd/nand/amlogic_mtd/built-in.o
                0x0000000001093178                nand_hw_init
 .text.nand_init
                0x00000000010931d8      0x3e4 drivers/mtd/nand/amlogic_mtd/built-in.o
                0x00000000010931d8                nand_init
 .text.amlnand_read_info_by_name_mtd
                0x00000000010935bc       0x24 drivers/mtd/nand/amlogic_mtd/built-in.o
                0x00000000010935bc                amlnand_read_info_by_name_mtd
 .text.amlnf_env_save
                0x00000000010935e0       0xd4 drivers/mtd/nand/amlogic_mtd/built-in.o
                0x00000000010935e0                amlnf_env_save
 .text.amlnf_env_read
                0x00000000010936b4      0x118 drivers/mtd/nand/amlogic_mtd/built-in.o
                0x00000000010936b4                amlnf_env_read
 .text.aml_ubootenv_init
                0x00000000010937cc       0x14 drivers/mtd/nand/amlogic_mtd/built-in.o
                0x00000000010937cc                aml_ubootenv_init
 .text.amlnf_dtb_save
                0x00000000010937e0      0x114 drivers/mtd/nand/amlogic_mtd/built-in.o
                0x00000000010937e0                amlnf_dtb_save
 .text.amlnf_dtb_erase
                0x00000000010938f4       0x90 drivers/mtd/nand/amlogic_mtd/built-in.o
                0x00000000010938f4                amlnf_dtb_erase
 .text.amlnf_dtb_read
                0x0000000001093984      0x128 drivers/mtd/nand/amlogic_mtd/built-in.o
                0x0000000001093984                amlnf_dtb_read
 .text.amlnf_dtb_init
                0x0000000001093aac       0x14 drivers/mtd/nand/amlogic_mtd/built-in.o
                0x0000000001093aac                amlnf_dtb_init
 .text.amlnf_key_read
                0x0000000001093ac0      0x10c drivers/mtd/nand/amlogic_mtd/built-in.o
                0x0000000001093ac0                amlnf_key_read
 .text.amlnf_key_write
                0x0000000001093bcc       0xd8 drivers/mtd/nand/amlogic_mtd/built-in.o
                0x0000000001093bcc                amlnf_key_write
 .text.amlnf_key_erase
                0x0000000001093ca4       0x90 drivers/mtd/nand/amlogic_mtd/built-in.o
                0x0000000001093ca4                amlnf_key_erase
 .text.amlnf_ddr_parameter_read
                0x0000000001093d34       0xbc drivers/mtd/nand/amlogic_mtd/built-in.o
                0x0000000001093d34                amlnf_ddr_parameter_read
 .text.amlnf_ddr_parameter_write
                0x0000000001093df0       0xc4 drivers/mtd/nand/amlogic_mtd/built-in.o
                0x0000000001093df0                amlnf_ddr_parameter_write
 .text.amlnf_ddr_parameter_erase
                0x0000000001093eb4       0x90 drivers/mtd/nand/amlogic_mtd/built-in.o
                0x0000000001093eb4                amlnf_ddr_parameter_erase
 .text.aml_key_init
                0x0000000001093f44       0x14 drivers/mtd/nand/amlogic_mtd/built-in.o
                0x0000000001093f44                aml_key_init
 .text.release_free_node
                0x0000000001093f58       0xec drivers/mtd/nand/amlogic_mtd/built-in.o
 .text.generic_fls
                0x0000000001094044       0xb8 drivers/mtd/nand/amlogic_mtd/built-in.o
 .text.get_free_node
                0x00000000010940fc       0xe0 drivers/mtd/nand/amlogic_mtd/built-in.o
 .text.aml_nand_rsv_erase_protect
                0x00000000010941dc       0x84 drivers/mtd/nand/amlogic_mtd/built-in.o
                0x00000000010941dc                aml_nand_rsv_erase_protect
 .text.aml_nand_scan_shipped_bbt
                0x0000000001094260      0x604 drivers/mtd/nand/amlogic_mtd/built-in.o
                0x0000000001094260                aml_nand_scan_shipped_bbt
 .text.aml_nand_erase_rsv_info
                0x0000000001094864      0x1bc drivers/mtd/nand/amlogic_mtd/built-in.o
                0x0000000001094864                aml_nand_erase_rsv_info
 .text.aml_nand_ext_erase_rsv_info
                0x0000000001094a20       0x1c drivers/mtd/nand/amlogic_mtd/built-in.o
                0x0000000001094a20                aml_nand_ext_erase_rsv_info
 .text.aml_nand_save_rsv_info
                0x0000000001094a3c      0x4f0 drivers/mtd/nand/amlogic_mtd/built-in.o
                0x0000000001094a3c                aml_nand_save_rsv_info
 .text.aml_nand_ext_save_rsv_info
                0x0000000001094f2c       0x4c drivers/mtd/nand/amlogic_mtd/built-in.o
                0x0000000001094f2c                aml_nand_ext_save_rsv_info
 .text.aml_nand_rsv_info_init
                0x0000000001094f78      0x2a4 drivers/mtd/nand/amlogic_mtd/built-in.o
                0x0000000001094f78                aml_nand_rsv_info_init
 .text.aml_nand_free_rsv_info
                0x000000000109521c      0x104 drivers/mtd/nand/amlogic_mtd/built-in.o
                0x000000000109521c                aml_nand_free_rsv_info
 .text.aml_nand_scan_rsv_info
                0x0000000001095320      0x6a0 drivers/mtd/nand/amlogic_mtd/built-in.o
                0x0000000001095320                aml_nand_scan_rsv_info
 .text.aml_nand_read_rsv_info
                0x00000000010959c0      0x1f0 drivers/mtd/nand/amlogic_mtd/built-in.o
                0x00000000010959c0                aml_nand_read_rsv_info
 .text.aml_nand_ext_read_rsv_info
                0x0000000001095bb0       0x4c drivers/mtd/nand/amlogic_mtd/built-in.o
                0x0000000001095bb0                aml_nand_ext_read_rsv_info
 .text.aml_nand_rsv_info_check_except_bbt
                0x0000000001095bfc       0xbc drivers/mtd/nand/amlogic_mtd/built-in.o
                0x0000000001095bfc                aml_nand_rsv_info_check_except_bbt
 .text.aml_nand_bbt_check
                0x0000000001095cb8      0x160 drivers/mtd/nand/amlogic_mtd/built-in.o
                0x0000000001095cb8                aml_nand_bbt_check
 .text.aml_nand_scan_bbt
                0x0000000001095e18        0x8 drivers/mtd/nand/amlogic_mtd/built-in.o
                0x0000000001095e18                aml_nand_scan_bbt
 .text.generic_ffs
                0x0000000001095e20       0x60 drivers/mtd/nand/amlogic_mtd/built-in.o
 .text.aml_nand_get_fbb_issue
                0x0000000001095e80       0x10 drivers/mtd/nand/amlogic_mtd/built-in.o
                0x0000000001095e80                aml_nand_get_fbb_issue
 .text.aml_nand_check_fbb_issue
                0x0000000001095e90       0xb8 drivers/mtd/nand/amlogic_mtd/built-in.o
                0x0000000001095e90                aml_nand_check_fbb_issue
 .text.aml_nand_get_onfi_features
                0x0000000001095f48       0xf8 drivers/mtd/nand/amlogic_mtd/built-in.o
                0x0000000001095f48                aml_nand_get_onfi_features
 .text.aml_nand_set_onfi_features
                0x0000000001096040      0x104 drivers/mtd/nand/amlogic_mtd/built-in.o
                0x0000000001096040                aml_nand_set_onfi_features
 .text.aml_nand_scan
                0x0000000001096144      0x6b0 drivers/mtd/nand/amlogic_mtd/built-in.o
                0x0000000001096144                aml_nand_scan
 .text.dump_args
                0x00000000010967f4       0x54 drivers/mtd/nand/amlogic_mtd/built-in.o
 .text.do_key_ops
                0x0000000001096848      0x1e4 drivers/mtd/nand/amlogic_mtd/built-in.o
 .text.do_dtb_ops
                0x0000000001096a2c      0x1e4 drivers/mtd/nand/amlogic_mtd/built-in.o
 .text.do_fip_ops
                0x0000000001096c10      0x368 drivers/mtd/nand/amlogic_mtd/built-in.o
 .text.do_bl2_ops
                0x0000000001096f78      0x340 drivers/mtd/nand/amlogic_mtd/built-in.o
 .text.do_rom_ops
                0x00000000010972b8      0x300 drivers/mtd/nand/amlogic_mtd/built-in.o
 .text.do_amlmtd
                0x00000000010975b8       0xd8 drivers/mtd/nand/amlogic_mtd/built-in.o
 .text.nand_info_page_prepare
                0x0000000001097690      0x1b8 drivers/mtd/nand/amlogic_mtd/built-in.o
                0x0000000001097690                nand_info_page_prepare
 .text.m3_nand_boot_erase_cmd
                0x0000000001097848       0xb0 drivers/mtd/nand/amlogic_mtd/built-in.o
                0x0000000001097848                m3_nand_boot_erase_cmd
 .text.m3_nand_boot_read_page_hwecc
                0x00000000010978f8      0x49c drivers/mtd/nand/amlogic_mtd/built-in.o
                0x00000000010978f8                m3_nand_boot_read_page_hwecc
 .text.m3_nand_boot_write_page_hwecc
                0x0000000001097d94      0x144 drivers/mtd/nand/amlogic_mtd/built-in.o
                0x0000000001097d94                m3_nand_boot_write_page_hwecc
 .text.m3_nand_boot_write_page
                0x0000000001097ed8      0x220 drivers/mtd/nand/amlogic_mtd/built-in.o
                0x0000000001097ed8                m3_nand_boot_write_page
 .text.spi_flash_probe_bus_cs
                0x00000000010980f8       0xd4 drivers/mtd/spi/built-in.o
                0x00000000010980f8                spi_flash_probe_bus_cs
 .text.spi_flash_std_write
                0x00000000010981cc        0x8 drivers/mtd/spi/built-in.o
                0x00000000010981cc                spi_flash_std_write
 .text.spi_flash_std_erase
                0x00000000010981d4        0x8 drivers/mtd/spi/built-in.o
                0x00000000010981d4                spi_flash_std_erase
 .text.spi_flash_std_read
                0x00000000010981dc        0x8 drivers/mtd/spi/built-in.o
 .text.spi_flash_probe_slave
                0x00000000010981e4      0x3f8 drivers/mtd/spi/built-in.o
                0x00000000010981e4                spi_flash_probe_slave
 .text.spi_flash_std_probe
                0x00000000010985dc       0x28 drivers/mtd/spi/built-in.o
                0x00000000010985dc                spi_flash_std_probe
 .text.spi_flash_read_write
                0x0000000001098604       0x80 drivers/mtd/spi/built-in.o
 .text.spi_flash_cmd_read
                0x0000000001098684       0x14 drivers/mtd/spi/built-in.o
                0x0000000001098684                spi_flash_cmd_read
 .text.spi_flash_cmd
                0x0000000001098698       0x2c drivers/mtd/spi/built-in.o
                0x0000000001098698                spi_flash_cmd
 .text.spi_flash_cmd_write
                0x00000000010986c4        0xc drivers/mtd/spi/built-in.o
                0x00000000010986c4                spi_flash_cmd_write
 .text.spi_flash_cmd_wait_ready
                0x00000000010986d0       0xec drivers/mtd/spi/built-in.o
                0x00000000010986d0                spi_flash_cmd_wait_ready
 .text.spi_flash_write_common
                0x00000000010987bc       0xb0 drivers/mtd/spi/built-in.o
                0x00000000010987bc                spi_flash_write_common
 .text.spi_flash_cmd_write_status
                0x000000000109886c       0x38 drivers/mtd/spi/built-in.o
                0x000000000109886c                spi_flash_cmd_write_status
 .text.spi_flash_cmd_erase_ops
                0x00000000010988a4       0xa4 drivers/mtd/spi/built-in.o
                0x00000000010988a4                spi_flash_cmd_erase_ops
 .text.spi_flash_cmd_write_ops
                0x0000000001098948       0xcc drivers/mtd/spi/built-in.o
                0x0000000001098948                spi_flash_cmd_write_ops
 .text.spi_flash_read_common
                0x0000000001098a14       0x64 drivers/mtd/spi/built-in.o
                0x0000000001098a14                spi_flash_read_common
 .text.spi_flash_cmd_read_status
                0x0000000001098a78       0x34 drivers/mtd/spi/built-in.o
                0x0000000001098a78                spi_flash_cmd_read_status
 .text.spi_flash_cmd_write_config
                0x0000000001098aac       0x50 drivers/mtd/spi/built-in.o
                0x0000000001098aac                spi_flash_cmd_write_config
 .text.spi_flash_cmd_read_config
                0x0000000001098afc       0x34 drivers/mtd/spi/built-in.o
                0x0000000001098afc                spi_flash_cmd_read_config
 .text.spi_flash_cmd_read_ops
                0x0000000001098b30      0x158 drivers/mtd/spi/built-in.o
                0x0000000001098b30                spi_flash_cmd_read_ops
 .text.add_to_list
                0x0000000001098c88       0xf8 drivers/mtd/ubi/built-in.o
 .text.destroy_ai
                0x0000000001098d80      0x204 drivers/mtd/ubi/built-in.o
 .text.validate_vid_hdr.isra.5
                0x0000000001098f84       0xd8 drivers/mtd/ubi/built-in.o
 .text.ubi_compare_lebs
                0x000000000109905c      0x208 drivers/mtd/ubi/built-in.o
                0x000000000109905c                ubi_compare_lebs
 .text.ubi_add_to_av
                0x0000000001099264      0x420 drivers/mtd/ubi/built-in.o
                0x0000000001099264                ubi_add_to_av
 .text.ubi_find_av
                0x0000000001099684       0x34 drivers/mtd/ubi/built-in.o
                0x0000000001099684                ubi_find_av
 .text.ubi_remove_av
                0x00000000010996b8       0x88 drivers/mtd/ubi/built-in.o
                0x00000000010996b8                ubi_remove_av
 .text.ubi_early_get_peb
                0x0000000001099740      0x1a8 drivers/mtd/ubi/built-in.o
                0x0000000001099740                ubi_early_get_peb
 .text.ubi_attach
                0x00000000010998e8      0xe54 drivers/mtd/ubi/built-in.o
                0x00000000010998e8                ubi_attach
 .text.kill_volumes
                0x000000000109a73c       0x48 drivers/mtd/ubi/built-in.o
 .text.ubi_volume_notify
                0x000000000109a784       0x3c drivers/mtd/ubi/built-in.o
                0x000000000109a784                ubi_volume_notify
 .text.ubi_notify_all
                0x000000000109a7c0       0x68 drivers/mtd/ubi/built-in.o
                0x000000000109a7c0                ubi_notify_all
 .text.ubi_get_device
                0x000000000109a828       0x20 drivers/mtd/ubi/built-in.o
                0x000000000109a828                ubi_get_device
 .text.ubi_put_device
                0x000000000109a848       0x10 drivers/mtd/ubi/built-in.o
                0x000000000109a848                ubi_put_device
 .text.ubi_free_internal_volumes
                0x000000000109a858       0x54 drivers/mtd/ubi/built-in.o
                0x000000000109a858                ubi_free_internal_volumes
 .text.ubi_attach_mtd_dev
                0x000000000109a8ac      0x640 drivers/mtd/ubi/built-in.o
                0x000000000109a8ac                ubi_attach_mtd_dev
 .text.ubi_detach_mtd_dev
                0x000000000109aeec       0xec drivers/mtd/ubi/built-in.o
                0x000000000109aeec                ubi_detach_mtd_dev
 .text.ubi_init
                0x000000000109afd8      0x178 drivers/mtd/ubi/built-in.o
                0x000000000109afd8                ubi_init
 .text.ubi_exit
                0x000000000109b150       0x5c drivers/mtd/ubi/built-in.o
                0x000000000109b150                ubi_exit
 .text.kstrtoint
                0x000000000109b1ac       0x28 drivers/mtd/ubi/built-in.o
                0x000000000109b1ac                kstrtoint
 .text.ubi_mtd_param_parse
                0x000000000109b1d4      0x1c4 drivers/mtd/ubi/built-in.o
                0x000000000109b1d4                ubi_mtd_param_parse
 .text.vtbl_check
                0x000000000109b398      0x2ac drivers/mtd/ubi/built-in.o
 .text.create_vtbl
                0x000000000109b644      0x200 drivers/mtd/ubi/built-in.o
 .text.ubi_change_vtbl_record
                0x000000000109b844      0x120 drivers/mtd/ubi/built-in.o
                0x000000000109b844                ubi_change_vtbl_record
 .text.ubi_read_volume_table
                0x000000000109b964      0x6e0 drivers/mtd/ubi/built-in.o
                0x000000000109b964                ubi_read_volume_table
 .text.vol_release
                0x000000000109c044       0x28 drivers/mtd/ubi/built-in.o
 .text.self_check_volumes
                0x000000000109c06c      0x2e8 drivers/mtd/ubi/built-in.o
 .text.ubi_create_volume
                0x000000000109c354      0x3f0 drivers/mtd/ubi/built-in.o
                0x000000000109c354                ubi_create_volume
 .text.ubi_resize_volume
                0x000000000109c744      0x264 drivers/mtd/ubi/built-in.o
                0x000000000109c744                ubi_resize_volume
 .text.ubi_add_volume
                0x000000000109c9a8       0x40 drivers/mtd/ubi/built-in.o
                0x000000000109c9a8                ubi_add_volume
 .text.ubi_free_volume
                0x000000000109c9e8       0x10 drivers/mtd/ubi/built-in.o
                0x000000000109c9e8                ubi_free_volume
 .text.clear_update_marker
                0x000000000109c9f8       0xb0 drivers/mtd/ubi/built-in.o
 .text.write_leb
                0x000000000109caa8       0xf4 drivers/mtd/ubi/built-in.o
 .text.ubi_start_update
                0x000000000109cb9c      0x144 drivers/mtd/ubi/built-in.o
                0x000000000109cb9c                ubi_start_update
 .text.ubi_more_update_data
                0x000000000109cce0      0x1f0 drivers/mtd/ubi/built-in.o
                0x000000000109cce0                ubi_more_update_data
 .text.ubi_do_get_device_info
                0x000000000109ced0       0x34 drivers/mtd/ubi/built-in.o
                0x000000000109ced0                ubi_do_get_device_info
 .text.ubi_get_device_info
                0x000000000109cf04       0x54 drivers/mtd/ubi/built-in.o
                0x000000000109cf04                ubi_get_device_info
 .text.ubi_do_get_volume_info
                0x000000000109cf58       0x6c drivers/mtd/ubi/built-in.o
                0x000000000109cf58                ubi_do_get_volume_info
 .text.ubi_get_volume_info
                0x000000000109cfc4       0x10 drivers/mtd/ubi/built-in.o
                0x000000000109cfc4                ubi_get_volume_info
 .text.ubi_close_volume
                0x000000000109cfd4       0x74 drivers/mtd/ubi/built-in.o
                0x000000000109cfd4                ubi_close_volume
 .text.ubi_open_volume
                0x000000000109d048      0x180 drivers/mtd/ubi/built-in.o
                0x000000000109d048                ubi_open_volume
 .text.ubi_open_volume_nm
                0x000000000109d1c8       0xe0 drivers/mtd/ubi/built-in.o
                0x000000000109d1c8                ubi_open_volume_nm
 .text.ubi_leb_read
                0x000000000109d2a8       0xf8 drivers/mtd/ubi/built-in.o
                0x000000000109d2a8                ubi_leb_read
 .text.ubi_leb_unmap
                0x000000000109d3a0       0x5c drivers/mtd/ubi/built-in.o
                0x000000000109d3a0                ubi_leb_unmap
 .text.ubi_is_mapped
                0x000000000109d3fc       0x40 drivers/mtd/ubi/built-in.o
                0x000000000109d3fc                ubi_is_mapped
 .text.ltree_lookup.isra.5
                0x000000000109d43c       0x38 drivers/mtd/ubi/built-in.o
 .text.ltree_add_entry
                0x000000000109d474       0xf4 drivers/mtd/ubi/built-in.o
 .text.leb_write_lock
                0x000000000109d568       0x1c drivers/mtd/ubi/built-in.o
 .text.leb_write_unlock
                0x000000000109d584       0x50 drivers/mtd/ubi/built-in.o
 .text.leb_read_unlock
                0x000000000109d5d4       0x50 drivers/mtd/ubi/built-in.o
 .text.is_error_sane
                0x000000000109d624       0x3c drivers/mtd/ubi/built-in.o
 .text.ubi_eba_unmap_leb
                0x000000000109d660       0x98 drivers/mtd/ubi/built-in.o
                0x000000000109d660                ubi_eba_unmap_leb
 .text.ubi_eba_read_leb
                0x000000000109d6f8      0x238 drivers/mtd/ubi/built-in.o
                0x000000000109d6f8                ubi_eba_read_leb
 .text.ubi_eba_write_leb
                0x000000000109d930      0x620 drivers/mtd/ubi/built-in.o
                0x000000000109d930                ubi_eba_write_leb
 .text.ubi_eba_write_leb_st
                0x000000000109df50      0x3c4 drivers/mtd/ubi/built-in.o
                0x000000000109df50                ubi_eba_write_leb_st
 .text.ubi_eba_copy_leb
                0x000000000109e314      0x398 drivers/mtd/ubi/built-in.o
                0x000000000109e314                ubi_eba_copy_leb
 .text.ubi_eba_init
                0x000000000109e6ac      0x200 drivers/mtd/ubi/built-in.o
                0x000000000109e6ac                ubi_eba_init
 .text.erase_callback
                0x000000000109e8ac        0x4 drivers/mtd/ubi/built-in.o
 .text.validate_ec_hdr
                0x000000000109e8b0       0xd0 drivers/mtd/ubi/built-in.o
 .text.self_check_ec_hdr.isra.1.part.2
                0x000000000109e980       0x64 drivers/mtd/ubi/built-in.o
 .text.validate_vid_hdr.isra.3
                0x000000000109e9e4      0x1c8 drivers/mtd/ubi/built-in.o
 .text.self_check_vid_hdr.isra.4.part.5
                0x000000000109ebac       0x68 drivers/mtd/ubi/built-in.o
 .text.ubi_io_is_bad
                0x000000000109ec14       0x28 drivers/mtd/ubi/built-in.o
                0x000000000109ec14                ubi_io_is_bad
 .text.self_check_not_bad.part.6
                0x000000000109ec3c       0x2c drivers/mtd/ubi/built-in.o
 .text.ubi_io_read
                0x000000000109ec68       0xe4 drivers/mtd/ubi/built-in.o
                0x000000000109ec68                ubi_io_read
 .text.self_check_peb_ec_hdr.part.8
                0x000000000109ed4c       0xe8 drivers/mtd/ubi/built-in.o
 .text.ubi_io_mark_bad
                0x000000000109ee34       0x30 drivers/mtd/ubi/built-in.o
                0x000000000109ee34                ubi_io_mark_bad
 .text.ubi_io_read_ec_hdr
                0x000000000109ee64      0x158 drivers/mtd/ubi/built-in.o
                0x000000000109ee64                ubi_io_read_ec_hdr
 .text.ubi_io_read_vid_hdr
                0x000000000109efbc      0x164 drivers/mtd/ubi/built-in.o
                0x000000000109efbc                ubi_io_read_vid_hdr
 .text.ubi_self_check_all_ff
                0x000000000109f120       0xd4 drivers/mtd/ubi/built-in.o
                0x000000000109f120                ubi_self_check_all_ff
 .text.ubi_io_write
                0x000000000109f1f4      0x2f8 drivers/mtd/ubi/built-in.o
                0x000000000109f1f4                ubi_io_write
 .text.ubi_io_write_ec_hdr
                0x000000000109f4ec      0x12c drivers/mtd/ubi/built-in.o
                0x000000000109f4ec                ubi_io_write_ec_hdr
 .text.ubi_io_write_vid_hdr
                0x000000000109f618       0xdc drivers/mtd/ubi/built-in.o
                0x000000000109f618                ubi_io_write_vid_hdr
 .text.do_sync_erase
                0x000000000109f6f4      0x158 drivers/mtd/ubi/built-in.o
 .text.ubi_io_sync_erase
                0x000000000109f84c      0x264 drivers/mtd/ubi/built-in.o
                0x000000000109f84c                ubi_io_sync_erase
 .text.list_del
                0x000000000109fab0       0x1c drivers/mtd/ubi/built-in.o
 .text.do_work  0x000000000109facc       0x60 drivers/mtd/ubi/built-in.o
 .text.in_wl_tree
                0x000000000109fb2c       0x54 drivers/mtd/ubi/built-in.o
 .text.cancel_pending
                0x000000000109fb80       0x5c drivers/mtd/ubi/built-in.o
 .text.prot_queue_del
                0x000000000109fbdc       0x6c drivers/mtd/ubi/built-in.o
 .text.find_wl_entry
                0x000000000109fc48       0x98 drivers/mtd/ubi/built-in.o
 .text.tree_destroy
                0x000000000109fce0       0x68 drivers/mtd/ubi/built-in.o
 .text.wl_tree_add
                0x000000000109fd48       0x68 drivers/mtd/ubi/built-in.o
 .text.self_check_in_wl_tree
                0x000000000109fdb0       0x34 drivers/mtd/ubi/built-in.o
 .text.get_peb_for_wl
                0x000000000109fde4       0x64 drivers/mtd/ubi/built-in.o
 .text.schedule_erase
                0x000000000109fe48       0xa0 drivers/mtd/ubi/built-in.o
 .text.ensure_wear_leveling
                0x000000000109fee8       0xf0 drivers/mtd/ubi/built-in.o
 .text.erase_worker
                0x000000000109ffd8      0x3c8 drivers/mtd/ubi/built-in.o
 .text.wear_leveling_worker
                0x00000000010a03a0      0x3d0 drivers/mtd/ubi/built-in.o
 .text.ubi_wl_get_peb
                0x00000000010a0770      0x134 drivers/mtd/ubi/built-in.o
                0x00000000010a0770                ubi_wl_get_peb
 .text.ubi_wl_put_peb
                0x00000000010a08a4      0x174 drivers/mtd/ubi/built-in.o
                0x00000000010a08a4                ubi_wl_put_peb
 .text.ubi_wl_scrub_peb
                0x00000000010a0a18      0x114 drivers/mtd/ubi/built-in.o
                0x00000000010a0a18                ubi_wl_scrub_peb
 .text.ubi_wl_flush
                0x00000000010a0b2c       0xa8 drivers/mtd/ubi/built-in.o
                0x00000000010a0b2c                ubi_wl_flush
 .text.ubi_wl_init
                0x00000000010a0bd4      0x2c0 drivers/mtd/ubi/built-in.o
                0x00000000010a0bd4                ubi_wl_init
 .text.ubi_wl_close
                0x00000000010a0e94       0x98 drivers/mtd/ubi/built-in.o
                0x00000000010a0e94                ubi_wl_close
 .text.crc32_le
                0x00000000010a0f2c       0xdc drivers/mtd/ubi/built-in.o
                0x00000000010a0f2c                crc32_le
 .text.ubi_calc_data_len
                0x00000000010a1008       0x40 drivers/mtd/ubi/built-in.o
                0x00000000010a1008                ubi_calc_data_len
 .text.ubi_check_volume
                0x00000000010a1048       0xcc drivers/mtd/ubi/built-in.o
                0x00000000010a1048                ubi_check_volume
 .text.ubi_update_reserved
                0x00000000010a1114       0x50 drivers/mtd/ubi/built-in.o
                0x00000000010a1114                ubi_update_reserved
 .text.ubi_calculate_reserved
                0x00000000010a1164       0x18 drivers/mtd/ubi/built-in.o
                0x00000000010a1164                ubi_calculate_reserved
 .text.ubi_check_pattern
                0x00000000010a117c       0x34 drivers/mtd/ubi/built-in.o
                0x00000000010a117c                ubi_check_pattern
 .text.ubi_dump_flash
                0x00000000010a11b0       0xa4 drivers/mtd/ubi/built-in.o
                0x00000000010a11b0                ubi_dump_flash
 .text.ubi_dump_ec_hdr
                0x00000000010a1254        0x4 drivers/mtd/ubi/built-in.o
                0x00000000010a1254                ubi_dump_ec_hdr
 .text.ubi_dump_vid_hdr
                0x00000000010a1258        0x4 drivers/mtd/ubi/built-in.o
                0x00000000010a1258                ubi_dump_vid_hdr
 .text.ubi_dump_vol_info
                0x00000000010a125c      0x150 drivers/mtd/ubi/built-in.o
                0x00000000010a125c                ubi_dump_vol_info
 .text.ubi_dump_vtbl_record
                0x00000000010a13ac       0x38 drivers/mtd/ubi/built-in.o
                0x00000000010a13ac                ubi_dump_vtbl_record
 .text.ubi_dump_av
                0x00000000010a13e4        0x4 drivers/mtd/ubi/built-in.o
                0x00000000010a13e4                ubi_dump_av
 .text.ubi_dump_aeb
                0x00000000010a13e8        0x4 drivers/mtd/ubi/built-in.o
                0x00000000010a13e8                ubi_dump_aeb
 .text.ubi_debugfs_init
                0x00000000010a13ec        0x8 drivers/mtd/ubi/built-in.o
                0x00000000010a13ec                ubi_debugfs_init
 .text.ubi_debugfs_exit
                0x00000000010a13f4        0x4 drivers/mtd/ubi/built-in.o
                0x00000000010a13f4                ubi_debugfs_exit
 .text.ubi_debugfs_init_dev
                0x00000000010a13f8        0x8 drivers/mtd/ubi/built-in.o
                0x00000000010a13f8                ubi_debugfs_init_dev
 .text.ubi_debugfs_exit_dev
                0x00000000010a1400        0x4 drivers/mtd/ubi/built-in.o
                0x00000000010a1400                ubi_debugfs_exit_dev
 .text.dw_write_hwaddr
                0x00000000010a1404       0x44 drivers/net/built-in.o
 .text.dw_eth_halt
                0x00000000010a1448       0x38 drivers/net/built-in.o
 .text.dw_eth_recv
                0x00000000010a1480       0xb8 drivers/net/built-in.o
 .text.dw_eth_send
                0x00000000010a1538       0xe8 drivers/net/built-in.o
 .text.dw_mdio_write
                0x00000000010a1620       0x74 drivers/net/built-in.o
 .text.dw_mdio_read
                0x00000000010a1694       0x70 drivers/net/built-in.o
 .text.do_phyreg
                0x00000000010a1704      0x1e8 drivers/net/built-in.o
 .text.do_macreg
                0x00000000010a18ec      0x1c0 drivers/net/built-in.o
 .text.do_cbusreg
                0x00000000010a1aac       0xf4 drivers/net/built-in.o
 .text.dw_eth_init
                0x00000000010a1ba0      0x294 drivers/net/built-in.o
 .text.designware_initialize
                0x00000000010a1e34      0x1fc drivers/net/built-in.o
                0x00000000010a1e34                designware_initialize
 .text.genphy_shutdown
                0x00000000010a2030        0x8 drivers/net/phy/built-in.o
                0x00000000010a2030                genphy_shutdown
 .text.generic_ffs
                0x00000000010a2038       0x60 drivers/net/phy/built-in.o
 .text.phy_device_create
                0x00000000010a2098      0x108 drivers/net/phy/built-in.o
 .text.get_phy_device_by_mask
                0x00000000010a21a0      0x178 drivers/net/phy/built-in.o
 .text.genphy_restart_aneg
                0x00000000010a2318       0x60 drivers/net/phy/built-in.o
                0x00000000010a2318                genphy_restart_aneg
 .text.genphy_config_aneg
                0x00000000010a2378      0x214 drivers/net/phy/built-in.o
                0x00000000010a2378                genphy_config_aneg
 .text.genphy_config
                0x00000000010a258c      0x100 drivers/net/phy/built-in.o
                0x00000000010a258c                genphy_config
 .text.genphy_update_link
                0x00000000010a268c      0x154 drivers/net/phy/built-in.o
                0x00000000010a268c                genphy_update_link
 .text.genphy_parse_link
                0x00000000010a27e0      0x1b0 drivers/net/phy/built-in.o
                0x00000000010a27e0                genphy_parse_link
 .text.genphy_startup
                0x00000000010a2990       0x2c drivers/net/phy/built-in.o
                0x00000000010a2990                genphy_startup
 .text.phy_init
                0x00000000010a29bc        0x8 drivers/net/phy/built-in.o
                0x00000000010a29bc                phy_init
 .text.phy_reset
                0x00000000010a29c4       0xb4 drivers/net/phy/built-in.o
                0x00000000010a29c4                phy_reset
 .text.phy_find_by_mask
                0x00000000010a2a78       0x54 drivers/net/phy/built-in.o
                0x00000000010a2a78                phy_find_by_mask
 .text.phy_connect_dev
                0x00000000010a2acc       0x4c drivers/net/phy/built-in.o
                0x00000000010a2acc                phy_connect_dev
 .text.phy_startup
                0x00000000010a2b18       0x28 drivers/net/phy/built-in.o
                0x00000000010a2b18                phy_startup
 .text.board_phy_config
                0x00000000010a2b40       0x28 drivers/net/phy/built-in.o
                0x00000000010a2b40                board_phy_config
 .text.phy_config
                0x00000000010a2b68       0x18 drivers/net/phy/built-in.o
                0x00000000010a2b68                phy_config
 .text.phy_shutdown
                0x00000000010a2b80       0x24 drivers/net/phy/built-in.o
                0x00000000010a2b80                phy_shutdown
 .text.serial_stub_start
                0x00000000010a2ba4       0x1c drivers/serial/built-in.o
 .text.serial_stub_stop
                0x00000000010a2bc0       0x1c drivers/serial/built-in.o
 .text.serial_stub_putc
                0x00000000010a2bdc       0x20 drivers/serial/built-in.o
 .text.serial_stub_puts
                0x00000000010a2bfc       0x20 drivers/serial/built-in.o
 .text.serial_stub_getc
                0x00000000010a2c1c       0x1c drivers/serial/built-in.o
                0x00000000010a2c1c                serial_stub_getc
 .text.serial_stub_tstc
                0x00000000010a2c38       0x1c drivers/serial/built-in.o
                0x00000000010a2c38                serial_stub_tstc
 .text.get_current
                0x00000000010a2c54       0x3c drivers/serial/built-in.o
 .text.serial_null
                0x00000000010a2c90        0x4 drivers/serial/built-in.o
                0x00000000010a2c90                jz_serial_initialize
                0x00000000010a2c90                bfin_serial_initialize
                0x00000000010a2c90                p3mx_serial_initialize
                0x00000000010a2c90                leon2_serial_initialize
                0x00000000010a2c90                leon3_serial_initialize
                0x00000000010a2c90                amirix_serial_initialize
                0x00000000010a2c90                marvell_serial_initialize
                0x00000000010a2c90                cpci750_serial_initialize
                0x00000000010a2c90                ns16550_serial_initialize
                0x00000000010a2c90                asc_serial_initialize
                0x00000000010a2c90                altera_serial_initialize
                0x00000000010a2c90                oc_serial_initialize
                0x00000000010a2c90                sh_serial_initialize
                0x00000000010a2c90                mxs_auart_initialize
                0x00000000010a2c90                arm_dcc_initialize
                0x00000000010a2c90                bmw_serial_initialize
                0x00000000010a2c90                arc_serial_initialize
                0x00000000010a2c90                mcf_serial_initialize
                0x00000000010a2c90                lh7a40x_serial_initialize
                0x00000000010a2c90                evb64260_serial_initialize
                0x00000000010a2c90                lpc32xx_serial_initialize
                0x00000000010a2c90                max3100_serial_initialize
                0x00000000010a2c90                mpc85xx_serial_initialize
                0x00000000010a2c90                imx_serial_initialize
                0x00000000010a2c90                bfin_jtag_initialize
                0x00000000010a2c90                cogent_serial_initialize
                0x00000000010a2c90                clps7111_serial_initialize
                0x00000000010a2c90                ml2_serial_initialize
                0x00000000010a2c90                sandbox_serial_initialize
                0x00000000010a2c90                s3c24xx_serial_initialize
                0x00000000010a2c90                sconsole_serial_initialize
                0x00000000010a2c90                uartlite_serial_initialize
                0x00000000010a2c90                au1x00_serial_initialize
                0x00000000010a2c90                pxa_serial_initialize
                0x00000000010a2c90                atmel_serial_initialize
                0x00000000010a2c90                pl01x_serial_initialize
                0x00000000010a2c90                altera_jtag_serial_initialize
                0x00000000010a2c90                mpc512x_serial_initialize
                0x00000000010a2c90                s5p_serial_initialize
                0x00000000010a2c90                zynq_serial_initialize
                0x00000000010a2c90                ks8695_serial_initialize
                0x00000000010a2c90                sa1100_serial_initialize
                0x00000000010a2c90                mpc8260_scc_serial_initialize
                0x00000000010a2c90                mxc_serial_initialize
                0x00000000010a2c90                iop480_serial_initialize
                0x00000000010a2c90                mpc8xx_serial_initialize
                0x00000000010a2c90                mpc8260_smc_serial_initialize
                0x00000000010a2c90                mpc5xx_serial_initialize
 .text.serial_stdio_init
                0x00000000010a2c94       0xb0 drivers/serial/built-in.o
                0x00000000010a2c94                serial_stdio_init
 .text.serial_assign
                0x00000000010a2d44       0x58 drivers/serial/built-in.o
                0x00000000010a2d44                serial_assign
 .text.serial_initialize
                0x00000000010a2d9c       0xd4 drivers/serial/built-in.o
                0x00000000010a2d9c                serial_initialize
 .text.serial_init
                0x00000000010a2e70       0x14 drivers/serial/built-in.o
                0x00000000010a2e70                serial_init
 .text.serial_setbrg
                0x00000000010a2e84       0x1c drivers/serial/built-in.o
                0x00000000010a2e84                serial_setbrg
 .text.on_baudrate
                0x00000000010a2ea0      0x114 drivers/serial/built-in.o
 .text.serial_getc
                0x00000000010a2fb4       0x1c drivers/serial/built-in.o
                0x00000000010a2fb4                serial_getc
 .text.serial_tstc
                0x00000000010a2fd0       0x1c drivers/serial/built-in.o
                0x00000000010a2fd0                serial_tstc
 .text.serial_putc
                0x00000000010a2fec       0x2c drivers/serial/built-in.o
                0x00000000010a2fec                serial_putc
 .text.serial_puts
                0x00000000010a3018       0x2c drivers/serial/built-in.o
                0x00000000010a3018                serial_puts
 .text.serial_putc_port
                0x00000000010a3044       0x48 drivers/serial/built-in.o
 .text.serial_getc_port
                0x00000000010a308c       0x40 drivers/serial/built-in.o
 .text.serial_puts_port
                0x00000000010a30cc       0x38 drivers/serial/built-in.o
 .text.uart_UART_PORT_AO_getc
                0x00000000010a3104        0xc drivers/serial/built-in.o
 .text.uart_UART_PORT_AO_tstc
                0x00000000010a3110       0x14 drivers/serial/built-in.o
 .text.uart_UART_PORT_AO_putc
                0x00000000010a3124       0x10 drivers/serial/built-in.o
 .text.uart_UART_PORT_AO_puts
                0x00000000010a3134       0x10 drivers/serial/built-in.o
 .text.serial_setbrg_port
                0x00000000010a3144       0x4c drivers/serial/built-in.o
 .text.uart_UART_PORT_AO_setbrg
                0x00000000010a3190        0xc drivers/serial/built-in.o
 .text.serial_init_port
                0x00000000010a319c       0x98 drivers/serial/built-in.o
 .text.uart_UART_PORT_AO_init
                0x00000000010a3234       0x20 drivers/serial/built-in.o
 .text.default_serial_console
                0x00000000010a3254        0xc drivers/serial/built-in.o
                0x00000000010a3254                default_serial_console
 .text.spi_set_speed_mode
                0x00000000010a3260       0xa4 drivers/spi/built-in.o
 .text.spi_post_bind
                0x00000000010a3304       0x48 drivers/spi/built-in.o
                0x00000000010a3304                spi_post_bind
 .text.spi_post_probe
                0x00000000010a334c       0x40 drivers/spi/built-in.o
                0x00000000010a334c                spi_post_probe
 .text.spi_claim_bus
                0x00000000010a338c       0x80 drivers/spi/built-in.o
                0x00000000010a338c                spi_claim_bus
 .text.spi_release_bus
                0x00000000010a340c       0x2c drivers/spi/built-in.o
                0x00000000010a340c                spi_release_bus
 .text.spi_xfer
                0x00000000010a3438       0x44 drivers/spi/built-in.o
                0x00000000010a3438                spi_xfer
 .text.spi_chip_select
                0x00000000010a347c       0x24 drivers/spi/built-in.o
                0x00000000010a347c                spi_chip_select
 .text.spi_find_chip_select
                0x00000000010a34a0       0x6c drivers/spi/built-in.o
                0x00000000010a34a0                spi_find_chip_select
 .text.spi_find_bus_and_cs
                0x00000000010a350c       0x6c drivers/spi/built-in.o
                0x00000000010a350c                spi_find_bus_and_cs
 .text.spi_get_bus_and_cs
                0x00000000010a3578      0x1cc drivers/spi/built-in.o
                0x00000000010a3578                spi_get_bus_and_cs
 .text.spi_free_slave
                0x00000000010a3744       0x28 drivers/spi/built-in.o
                0x00000000010a3744                spi_free_slave
 .text.spifc_set_mode
                0x00000000010a376c       0x60 drivers/spi/built-in.o
 .text.spifc_set_wordlen
                0x00000000010a37cc       0x60 drivers/spi/built-in.o
 .text.spifc_set_speed
                0x00000000010a382c      0x118 drivers/spi/built-in.o
 .text.spifc_release_bus
                0x00000000010a3944       0x6c drivers/spi/built-in.o
 .text.spifc_claim_bus
                0x00000000010a39b0       0x6c drivers/spi/built-in.o
 .text.spifc_chipselect
                0x00000000010a3a1c      0x140 drivers/spi/built-in.o
 .text.spifc_xfer
                0x00000000010a3b5c      0x484 drivers/spi/built-in.o
 .text.spifc_probe
                0x00000000010a3fe0      0x110 drivers/spi/built-in.o
 .text.usb_ep_autoconfig
                0x00000000010a40f0      0x1d0 drivers/usb/gadget/built-in.o
                0x00000000010a40f0                usb_ep_autoconfig
 .text.usb_ep_autoconfig_reset
                0x00000000010a42c0       0x30 drivers/usb/gadget/built-in.o
                0x00000000010a42c0                usb_ep_autoconfig_reset
 .text.usb_descriptor_fillbuf
                0x00000000010a42f0       0x7c drivers/usb/gadget/built-in.o
                0x00000000010a42f0                usb_descriptor_fillbuf
 .text.usb_gadget_get_string
                0x00000000010a436c      0x198 drivers/usb/gadget/built-in.o
                0x00000000010a436c                usb_gadget_get_string
 .text.collect_langs
                0x00000000010a4504       0x48 drivers/usb/gadget/built-in.o
 .text.composite_setup_complete
                0x00000000010a454c        0x4 drivers/usb/gadget/built-in.o
 .text.composite_suspend
                0x00000000010a4550       0x84 drivers/usb/gadget/built-in.o
 .text.composite_resume
                0x00000000010a45d4       0x80 drivers/usb/gadget/built-in.o
 .text.lookup_string
                0x00000000010a4654       0x68 drivers/usb/gadget/built-in.o
 .text.g_dnl_unbind
                0x00000000010a46bc       0x48 drivers/usb/gadget/built-in.o
 .text.g_dnl_do_config
                0x00000000010a4704       0x70 drivers/usb/gadget/built-in.o
 .text.reset_config.isra.7
                0x00000000010a4774       0x5c drivers/usb/gadget/built-in.o
 .text.composite_disconnect
                0x00000000010a47d0       0x48 drivers/usb/gadget/built-in.o
 .text.composite_setup
                0x00000000010a4818      0x6c8 drivers/usb/gadget/built-in.o
 .text.composite_unbind
                0x00000000010a4ee0      0x10c drivers/usb/gadget/built-in.o
 .text.composite_bind
                0x00000000010a4fec      0x130 drivers/usb/gadget/built-in.o
 .text.usb_add_function
                0x00000000010a511c       0xc4 drivers/usb/gadget/built-in.o
                0x00000000010a511c                usb_add_function
 .text.usb_interface_id
                0x00000000010a51e0       0x2c drivers/usb/gadget/built-in.o
                0x00000000010a51e0                usb_interface_id
 .text.usb_add_config
                0x00000000010a520c       0xdc drivers/usb/gadget/built-in.o
                0x00000000010a520c                usb_add_config
 .text.usb_string_id
                0x00000000010a52e8       0x28 drivers/usb/gadget/built-in.o
                0x00000000010a52e8                usb_string_id
 .text.usb_composite_register
                0x00000000010a5310       0x54 drivers/usb/gadget/built-in.o
                0x00000000010a5310                usb_composite_register
 .text.usb_composite_unregister
                0x00000000010a5364       0x3c drivers/usb/gadget/built-in.o
                0x00000000010a5364                usb_composite_unregister
 .text.g_dnl_set_serialnumber
                0x00000000010a53a0       0x64 drivers/usb/gadget/built-in.o
                0x00000000010a53a0                g_dnl_set_serialnumber
 .text.get_usid_string
                0x00000000010a5404       0x64 drivers/usb/gadget/built-in.o
                0x00000000010a5404                get_usid_string
 .text.g_dnl_bind_fixup
                0x00000000010a5468        0x8 drivers/usb/gadget/built-in.o
                0x00000000010a5468                g_dnl_bind_fixup
 .text.g_dnl_get_board_bcd_device_number
                0x00000000010a5470        0x4 drivers/usb/gadget/built-in.o
                0x00000000010a5470                g_dnl_get_board_bcd_device_number
 .text.g_dnl_bind
                0x00000000010a5474      0x150 drivers/usb/gadget/built-in.o
 .text.g_dnl_detach
                0x00000000010a55c4        0xc drivers/usb/gadget/built-in.o
                0x00000000010a55c4                g_dnl_detach
 .text.g_dnl_clear_detach
                0x00000000010a55d0        0xc drivers/usb/gadget/built-in.o
                0x00000000010a55d0                g_dnl_clear_detach
 .text.g_dnl_register
                0x00000000010a55dc       0x84 drivers/usb/gadget/built-in.o
                0x00000000010a55dc                g_dnl_register
 .text.g_dnl_unregister
                0x00000000010a5660        0xc drivers/usb/gadget/built-in.o
                0x00000000010a5660                g_dnl_unregister
 .text.strcmp_l1
                0x00000000010a566c       0x48 drivers/usb/gadget/built-in.o
 .text.fastboot_start_ep
                0x00000000010a56b4       0x88 drivers/usb/gadget/built-in.o
 .text.fastboot_unbind
                0x00000000010a573c       0x18 drivers/usb/gadget/built-in.o
 .text.fastboot_add
                0x00000000010a5754       0xf0 drivers/usb/gadget/built-in.o
 .text.fastboot_disable
                0x00000000010a5844       0x8c drivers/usb/gadget/built-in.o
 .text.fastboot_tx_write_str
                0x00000000010a58d0       0x84 drivers/usb/gadget/built-in.o
 .text.cb_continue
                0x00000000010a5954       0x28 drivers/usb/gadget/built-in.o
 .text.cb_boot  0x00000000010a597c       0x28 drivers/usb/gadget/built-in.o
 .text.cb_devices
                0x00000000010a59a4       0x38 drivers/usb/gadget/built-in.o
 .text.do_exit_on_complete
                0x00000000010a59dc       0x3c drivers/usb/gadget/built-in.o
 .text.compl_do_reset
                0x00000000010a5a18       0x14 drivers/usb/gadget/built-in.o
 .text.do_bootm_on_complete
                0x00000000010a5a2c      0x12c drivers/usb/gadget/built-in.o
 .text.compl_do_reboot_fastboot
                0x00000000010a5b58       0x24 drivers/usb/gadget/built-in.o
 .text.fastboot_bind
                0x00000000010a5b7c       0xac drivers/usb/gadget/built-in.o
 .text.fastboot_setup
                0x00000000010a5c28       0xb0 drivers/usb/gadget/built-in.o
 .text.fastboot_set_alt
                0x00000000010a5cd8      0x10c drivers/usb/gadget/built-in.o
 .text.compl_do_reboot_bootloader
                0x00000000010a5de4       0x28 drivers/usb/gadget/built-in.o
 .text.cb_reboot
                0x00000000010a5e0c       0xd8 drivers/usb/gadget/built-in.o
 .text.rx_handler_dl_image
                0x00000000010a5ee4      0x170 drivers/usb/gadget/built-in.o
 .text.ddr_size_usable
                0x00000000010a6054       0x24 drivers/usb/gadget/built-in.o
                0x00000000010a6054                ddr_size_usable
 .text.cb_download
                0x00000000010a6078      0x12c drivers/usb/gadget/built-in.o
 .text.fastboot_fail
                0x00000000010a61a4       0x54 drivers/usb/gadget/built-in.o
                0x00000000010a61a4                fastboot_fail
 .text.fastboot_okay
                0x00000000010a61f8       0x54 drivers/usb/gadget/built-in.o
                0x00000000010a61f8                fastboot_okay
 .text.fastboot_busy
                0x00000000010a624c       0x54 drivers/usb/gadget/built-in.o
                0x00000000010a624c                fastboot_busy
 .text.cb_oem_cmd
                0x00000000010a62a0       0xc4 drivers/usb/gadget/built-in.o
 .text.fastboot_is_busy
                0x00000000010a6364       0x44 drivers/usb/gadget/built-in.o
                0x00000000010a6364                fastboot_is_busy
 .text.rx_handler_command
                0x00000000010a63a8      0x124 drivers/usb/gadget/built-in.o
 .text.fastboot_complete
                0x00000000010a64cc       0x78 drivers/usb/gadget/built-in.o
 .text.dump_lock_info
                0x00000000010a6544       0x68 drivers/usb/gadget/built-in.o
                0x00000000010a6544                dump_lock_info
 .text.check_lock
                0x00000000010a65ac      0x114 drivers/usb/gadget/built-in.o
 .text.cb_set_active
                0x00000000010a66c0      0x10c drivers/usb/gadget/built-in.o
 .text.cb_erase
                0x00000000010a67cc      0x170 drivers/usb/gadget/built-in.o
 .text.cb_flashall
                0x00000000010a693c       0xc0 drivers/usb/gadget/built-in.o
 .text.cb_flash
                0x00000000010a69fc      0x1c4 drivers/usb/gadget/built-in.o
 .text.cb_getvar
                0x00000000010a6bc0      0xeb4 drivers/usb/gadget/built-in.o
 .text.cb_flashing
                0x00000000010a7a74      0x4bc drivers/usb/gadget/built-in.o
 .text.ep_disable
                0x00000000010a7f30        0xc drivers/usb/gadget/built-in.o
 .text.f_platform_usb_check_g12b_revb
                0x00000000010a7f3c       0x34 drivers/usb/gadget/built-in.o
 .text.f_platform_usb_check_sm1
                0x00000000010a7f70       0x20 drivers/usb/gadget/built-in.o
 .text.ep_dequeue
                0x00000000010a7f90       0x5c drivers/usb/gadget/built-in.o
 .text.dwc_otg_pcd_free_request
                0x00000000010a7fec       0x1c drivers/usb/gadget/built-in.o
 .text.dwc_otg_pcd_alloc_request
                0x00000000010a8008       0x60 drivers/usb/gadget/built-in.o
 .text.ep_enable
                0x00000000010a8068      0x118 drivers/usb/gadget/built-in.o
 .text.ep_halt  0x00000000010a8180       0xf4 drivers/usb/gadget/built-in.o
 .text.set_usb_phy21_tuning_fb
                0x00000000010a8274       0xa0 drivers/usb/gadget/built-in.o
                0x00000000010a8274                set_usb_phy21_tuning_fb
 .text.set_usb_phy21_tuning_fb_reset
                0x00000000010a8314       0x3c drivers/usb/gadget/built-in.o
                0x00000000010a8314                set_usb_phy21_tuning_fb_reset
 .text.f_set_usb_phy_config
                0x00000000010a8350      0x17c drivers/usb/gadget/built-in.o
                0x00000000010a8350                f_set_usb_phy_config
 .text.f_dwc_core_init
                0x00000000010a84cc      0x2e0 drivers/usb/gadget/built-in.o
                0x00000000010a84cc                f_dwc_core_init
 .text.f_dwc_otg_pullup
                0x00000000010a87ac       0x38 drivers/usb/gadget/built-in.o
                0x00000000010a87ac                f_dwc_otg_pullup
 .text.pcd_queue
                0x00000000010a87e4       0x20 drivers/usb/gadget/built-in.o
                0x00000000010a87e4                pcd_queue
 .text.ep_queue
                0x00000000010a8804       0xfc drivers/usb/gadget/built-in.o
 .text.gadget_add_eps
                0x00000000010a8900       0x94 drivers/usb/gadget/built-in.o
                0x00000000010a8900                gadget_add_eps
 .text.f_usb_pcd_init
                0x00000000010a8994        0x4 drivers/usb/gadget/built-in.o
                0x00000000010a8994                f_usb_pcd_init
 .text.usb_gadget_register_driver
                0x00000000010a8998      0x228 drivers/usb/gadget/built-in.o
                0x00000000010a8998                usb_gadget_register_driver
 .text.usb_gadget_unregister_driver
                0x00000000010a8bc0       0x4c drivers/usb/gadget/built-in.o
                0x00000000010a8bc0                usb_gadget_unregister_driver
 .text.dwc_otg_power_off_phy_fb
                0x00000000010a8c0c       0x7c drivers/usb/gadget/built-in.o
                0x00000000010a8c0c                dwc_otg_power_off_phy_fb
 .text.usb_gadget_handle_interrupts
                0x00000000010a8c88       0x48 drivers/usb/gadget/built-in.o
                0x00000000010a8c88                usb_gadget_handle_interrupts
 .text.dwc_otg_ep_start_transfer
                0x00000000010a8cd0       0xec drivers/usb/gadget/built-in.o
 .text.ep0_out_start
                0x00000000010a8dbc       0x5c drivers/usb/gadget/built-in.o
 .text.do_setup_status_phase.constprop.5
                0x00000000010a8e18       0x68 drivers/usb/gadget/built-in.o
 .text.ep0_complete_request.constprop.4
                0x00000000010a8e80       0xbc drivers/usb/gadget/built-in.o
 .text.dwc_otg_flush_fifo
                0x00000000010a8f3c       0x94 drivers/usb/gadget/built-in.o
                0x00000000010a8f3c                dwc_otg_flush_fifo
 .text.dwc_otg_bulk_ep_activate
                0x00000000010a8fd0       0x74 drivers/usb/gadget/built-in.o
                0x00000000010a8fd0                dwc_otg_bulk_ep_activate
 .text.f_dwc_otg_ep_req_start
                0x00000000010a9044      0x164 drivers/usb/gadget/built-in.o
                0x00000000010a9044                f_dwc_otg_ep_req_start
 .text.handle_ep0
                0x00000000010a91a8      0x1b8 drivers/usb/gadget/built-in.o
 .text.f_dwc_pcd_irq
                0x00000000010a9360      0x92c drivers/usb/gadget/built-in.o
                0x00000000010a9360                f_dwc_pcd_irq
 .text.handshake
                0x00000000010a9c8c       0x74 drivers/usb/host/built-in.o
 .text.xhci_configure_endpoints
                0x00000000010a9d00      0x10c drivers/usb/host/built-in.o
 .text.xhci_get_ep_index
                0x00000000010a9e0c       0x30 drivers/usb/host/built-in.o
 .text.xhci_reset
                0x00000000010a9e3c       0xac drivers/usb/host/built-in.o
                0x00000000010a9e3c                xhci_reset
 .text.usb_alloc_device
                0x00000000010a9ee8       0xdc drivers/usb/host/built-in.o
                0x00000000010a9ee8                usb_alloc_device
 .text.xhci_check_maxpacket
                0x00000000010a9fc4       0xdc drivers/usb/host/built-in.o
                0x00000000010a9fc4                xhci_check_maxpacket
 .text.submit_int_msg
                0x00000000010aa0a0       0x44 drivers/usb/host/built-in.o
                0x00000000010aa0a0                submit_int_msg
 .text.submit_bulk_msg
                0x00000000010aa0e4       0x44 drivers/usb/host/built-in.o
                0x00000000010aa0e4                submit_bulk_msg
 .text.submit_control_msg
                0x00000000010aa128      0x98c drivers/usb/host/built-in.o
                0x00000000010aa128                submit_control_msg
 .text.usb_lowlevel_init
                0x00000000010aaab4      0x1a4 drivers/usb/host/built-in.o
                0x00000000010aaab4                usb_lowlevel_init
 .text.usb_lowlevel_stop
                0x00000000010aac58       0x70 drivers/usb/host/built-in.o
                0x00000000010aac58                usb_lowlevel_stop
 .text.xhci_link_segments
                0x00000000010aacc8       0x38 drivers/usb/host/built-in.o
 .text.xhci_ring_free
                0x00000000010aad00       0x9c drivers/usb/host/built-in.o
 .text.xhci_flush_cache
                0x00000000010aad9c       0x54 drivers/usb/host/built-in.o
                0x00000000010aad9c                xhci_flush_cache
 .text.xhci_malloc
                0x00000000010aadf0       0x7c drivers/usb/host/built-in.o
 .text.xhci_segment_alloc
                0x00000000010aae6c       0x68 drivers/usb/host/built-in.o
 .text.xhci_alloc_container_ctx.isra.5
                0x00000000010aaed4       0xe4 drivers/usb/host/built-in.o
 .text.xhci_inval_cache
                0x00000000010aafb8       0x54 drivers/usb/host/built-in.o
                0x00000000010aafb8                xhci_inval_cache
 .text.xhci_cleanup
                0x00000000010ab00c       0xdc drivers/usb/host/built-in.o
                0x00000000010ab00c                xhci_cleanup
 .text.xhci_ring_alloc
                0x00000000010ab0e8      0x124 drivers/usb/host/built-in.o
                0x00000000010ab0e8                xhci_ring_alloc
 .text.xhci_alloc_virt_device
                0x00000000010ab20c       0xfc drivers/usb/host/built-in.o
                0x00000000010ab20c                xhci_alloc_virt_device
 .text.xhci_mem_init
                0x00000000010ab308      0x1b8 drivers/usb/host/built-in.o
                0x00000000010ab308                xhci_mem_init
 .text.xhci_get_input_control_ctx
                0x00000000010ab4c0       0x4c drivers/usb/host/built-in.o
                0x00000000010ab4c0                xhci_get_input_control_ctx
 .text.xhci_get_slot_ctx
                0x00000000010ab50c       0x3c drivers/usb/host/built-in.o
                0x00000000010ab50c                xhci_get_slot_ctx
 .text.xhci_get_ep_ctx
                0x00000000010ab548       0x40 drivers/usb/host/built-in.o
                0x00000000010ab548                xhci_get_ep_ctx
 .text.xhci_endpoint_copy
                0x00000000010ab588       0x70 drivers/usb/host/built-in.o
                0x00000000010ab588                xhci_endpoint_copy
 .text.xhci_slot_copy
                0x00000000010ab5f8       0x58 drivers/usb/host/built-in.o
                0x00000000010ab5f8                xhci_slot_copy
 .text.xhci_setup_addressable_virt_dev
                0x00000000010ab650      0x1c8 drivers/usb/host/built-in.o
                0x00000000010ab650                xhci_setup_addressable_virt_dev
 .text.record_transfer_result
                0x00000000010ab818       0xac drivers/usb/host/built-in.o
 .text.queue_trb
                0x00000000010ab8c4      0x154 drivers/usb/host/built-in.o
 .text.prepare_ring
                0x00000000010aba18      0x14c drivers/usb/host/built-in.o
 .text.xhci_queue_command
                0x00000000010abb64       0xc0 drivers/usb/host/built-in.o
                0x00000000010abb64                xhci_queue_command
 .text.xhci_acknowledge_event
                0x00000000010abc24       0x88 drivers/usb/host/built-in.o
                0x00000000010abc24                xhci_acknowledge_event
 .text.xhci_wait_for_event
                0x00000000010abcac      0x120 drivers/usb/host/built-in.o
                0x00000000010abcac                xhci_wait_for_event
 .text.abort_td
                0x00000000010abdcc      0x1b8 drivers/usb/host/built-in.o
 .text.xhci_bulk_tx
                0x00000000010abf84      0x3ac drivers/usb/host/built-in.o
                0x00000000010abf84                xhci_bulk_tx
 .text.xhci_ctrl_tx
                0x00000000010ac330      0x398 drivers/usb/host/built-in.o
                0x00000000010ac330                xhci_ctrl_tx
 .text.xhci_hcd_init
                0x00000000010ac6c8      0x430 drivers/usb/host/built-in.o
                0x00000000010ac6c8                xhci_hcd_init
 .text.xhci_hcd_stop
                0x00000000010acaf8        0x4 drivers/usb/host/built-in.o
                0x00000000010acaf8                xhci_hcd_stop
 .text.fs_probe_unsupported
                0x00000000010acafc       0x20 fs/built-in.o
 .text.fs_ls_unsupported
                0x00000000010acb1c        0x8 fs/built-in.o
 .text.fs_exists_unsupported
                0x00000000010acb24        0x8 fs/built-in.o
 .text.fs_size_unsupported
                0x00000000010acb2c        0x8 fs/built-in.o
 .text.fs_read_unsupported
                0x00000000010acb34        0x8 fs/built-in.o
 .text.fs_write_unsupported
                0x00000000010acb3c        0x8 fs/built-in.o
 .text.fs_close_unsupported
                0x00000000010acb44        0x4 fs/built-in.o
 .text.fs_uuid_unsupported
                0x00000000010acb48        0x8 fs/built-in.o
 .text.fs_get_info
                0x00000000010acb50       0x34 fs/built-in.o
 .text.fs_close
                0x00000000010acb84       0x34 fs/built-in.o
 .text.fs_set_blk_dev
                0x00000000010acbb8       0xbc fs/built-in.o
                0x00000000010acbb8                fs_set_blk_dev
 .text.fs_ls    0x00000000010acc74       0x48 fs/built-in.o
                0x00000000010acc74                fs_ls
 .text.fs_exists
                0x00000000010accbc       0x44 fs/built-in.o
                0x00000000010accbc                fs_exists
 .text.fs_size  0x00000000010acd00       0x4c fs/built-in.o
                0x00000000010acd00                fs_size
 .text.fs_read  0x00000000010acd4c       0x94 fs/built-in.o
                0x00000000010acd4c                fs_read
 .text.do_size  0x00000000010acde0       0x74 fs/built-in.o
                0x00000000010acde0                do_size
 .text.do_load  0x00000000010ace54      0x208 fs/built-in.o
                0x00000000010ace54                do_load
 .text.do_ls    0x00000000010ad05c       0x84 fs/built-in.o
                0x00000000010ad05c                do_ls
 .text.file_exists
                0x00000000010ad0e0       0x3c fs/built-in.o
                0x00000000010ad0e0                file_exists
 .text.get_fs   0x00000000010ad11c        0xc fs/built-in.o
                0x00000000010ad11c                get_fs
 .text.ext4fs_free_node
                0x00000000010ad128       0x24 fs/built-in.o
                0x00000000010ad128                ext4fs_free_node
 .text.ext4fs_read_file
                0x00000000010ad14c      0x320 fs/built-in.o
                0x00000000010ad14c                ext4fs_read_file
 .text.ext4fs_ls
                0x00000000010ad46c       0x7c fs/built-in.o
                0x00000000010ad46c                ext4fs_ls
 .text.ext4fs_exists
                0x00000000010ad4e8       0x20 fs/built-in.o
                0x00000000010ad4e8                ext4fs_exists
 .text.ext4fs_size
                0x00000000010ad508        0x4 fs/built-in.o
                0x00000000010ad508                ext4fs_size
 .text.ext4fs_read
                0x00000000010ad50c       0x38 fs/built-in.o
                0x00000000010ad50c                ext4fs_read
 .text.ext4fs_probe
                0x00000000010ad544       0x3c fs/built-in.o
                0x00000000010ad544                ext4fs_probe
 .text.ext4_read_file
                0x00000000010ad580       0x80 fs/built-in.o
                0x00000000010ad580                ext4_read_file
 .text.ext4fs_uuid
                0x00000000010ad600       0x38 fs/built-in.o
                0x00000000010ad600                ext4fs_uuid
 .text.ext4fs_read_inode
                0x00000000010ad638      0x104 fs/built-in.o
                0x00000000010ad638                ext4fs_read_inode
 .text.read_allocated_block
                0x00000000010ad73c      0x984 fs/built-in.o
                0x00000000010ad73c                read_allocated_block
 .text.ext4fs_reinit_global
                0x00000000010ae0c0       0xb4 fs/built-in.o
                0x00000000010ae0c0                ext4fs_reinit_global
 .text.ext4fs_close
                0x00000000010ae174       0x58 fs/built-in.o
                0x00000000010ae174                ext4fs_close
 .text.ext4fs_iterate_dir
                0x00000000010ae1cc      0x2b0 fs/built-in.o
                0x00000000010ae1cc                ext4fs_iterate_dir
 .text.ext4fs_find_file1
                0x00000000010ae47c      0x28c fs/built-in.o
 .text.ext4fs_find_file
                0x00000000010ae708       0x74 fs/built-in.o
                0x00000000010ae708                ext4fs_find_file
 .text.ext4fs_open
                0x00000000010ae77c       0xb0 fs/built-in.o
                0x00000000010ae77c                ext4fs_open
 .text.ext4fs_mount
                0x00000000010ae82c       0xe0 fs/built-in.o
                0x00000000010ae82c                ext4fs_mount
 .text.ext4fs_set_blk_dev
                0x00000000010ae90c       0x78 fs/built-in.o
                0x00000000010ae90c                ext4fs_set_blk_dev
 .text.ext4fs_devread
                0x00000000010ae984      0x268 fs/built-in.o
                0x00000000010ae984                ext4fs_devread
 .text.ext4_read_superblock
                0x00000000010aebec       0x40 fs/built-in.o
                0x00000000010aebec                ext4_read_superblock
 .text.downcase
                0x00000000010aec2c       0x2c fs/built-in.o
 .text.disk_read
                0x00000000010aec58       0x58 fs/built-in.o
 .text.dirdelim
                0x00000000010aecb0       0x34 fs/built-in.o
 .text.get_fatent
                0x00000000010aece4      0x168 fs/built-in.o
 .text.mkcksum  0x00000000010aee4c       0x54 fs/built-in.o
 .text.get_cluster
                0x00000000010aeea0      0x18c fs/built-in.o
 .text.get_name
                0x00000000010af02c       0xd4 fs/built-in.o
 .text.read_bootsectandvi
                0x00000000010af100      0x134 fs/built-in.o
 .text.slot2str
                0x00000000010af234       0xac fs/built-in.o
 .text.get_vfatname
                0x00000000010af2e0      0x1e4 fs/built-in.o
 .text.fat_set_blk_dev
                0x00000000010af4c4       0xd0 fs/built-in.o
                0x00000000010af4c4                fat_set_blk_dev
 .text.do_fat_read_at
                0x00000000010af594      0xb14 fs/built-in.o
                0x00000000010af594                do_fat_read_at
 .text.do_fat_read
                0x00000000010b00a8       0x28 fs/built-in.o
                0x00000000010b00a8                do_fat_read
 .text.file_fat_detectfs
                0x00000000010b00d0      0x148 fs/built-in.o
                0x00000000010b00d0                file_fat_detectfs
 .text.file_fat_ls
                0x00000000010b0218       0x24 fs/built-in.o
                0x00000000010b0218                file_fat_ls
 .text.fat_exists
                0x00000000010b023c       0x34 fs/built-in.o
                0x00000000010b023c                fat_exists
 .text.fat_size
                0x00000000010b0270       0x1c fs/built-in.o
                0x00000000010b0270                fat_size
 .text.file_fat_read_at
                0x00000000010b028c       0x58 fs/built-in.o
                0x00000000010b028c                file_fat_read_at
 .text.fat_read_file
                0x00000000010b02e4       0x48 fs/built-in.o
                0x00000000010b02e4                fat_read_file
 .text.fat_close
                0x00000000010b032c        0x4 fs/built-in.o
                0x00000000010b032c                fat_close
 .text.gzip_decompress
                0x00000000010b0330       0x1c fs/built-in.o
 .text.compr_init
                0x00000000010b034c       0xb8 fs/built-in.o
 .text.ubifs_findfile
                0x00000000010b0404      0x338 fs/built-in.o
 .text.kmemdup  0x00000000010b073c       0x4c fs/built-in.o
                0x00000000010b073c                kmemdup
 .text.ubifs_decompress
                0x00000000010b0788       0xac fs/built-in.o
                0x00000000010b0788                ubifs_decompress
 .text.read_block
                0x00000000010b0834      0x130 fs/built-in.o
 .text.ubifs_compressors_init
                0x00000000010b0964       0x40 fs/built-in.o
                0x00000000010b0964                ubifs_compressors_init
 .text.ubifs_ls
                0x00000000010b09a4      0x468 fs/built-in.o
                0x00000000010b09a4                ubifs_ls
 .text.ubifs_load
                0x00000000010b0e0c      0x2d0 fs/built-in.o
                0x00000000010b0e0c                ubifs_load
 .text.ubifs_ro_mode
                0x00000000010b10dc       0x30 fs/built-in.o
                0x00000000010b10dc                ubifs_ro_mode
 .text.ubifs_leb_read
                0x00000000010b110c        0xc fs/built-in.o
                0x00000000010b110c                ubifs_leb_read
 .text.ubifs_leb_unmap
                0x00000000010b1118       0x5c fs/built-in.o
                0x00000000010b1118                ubifs_leb_unmap
 .text.ubifs_is_mapped
                0x00000000010b1174        0x8 fs/built-in.o
                0x00000000010b1174                ubifs_is_mapped
 .text.ubifs_check_node
                0x00000000010b117c      0x14c fs/built-in.o
                0x00000000010b117c                ubifs_check_node
 .text.ubifs_pad
                0x00000000010b12c8      0x104 fs/built-in.o
                0x00000000010b12c8                ubifs_pad
 .text.ubifs_read_node
                0x00000000010b13cc       0xc8 fs/built-in.o
                0x00000000010b13cc                ubifs_read_node
 .text.ubifs_read_node_wbuf
                0x00000000010b1494      0x15c fs/built-in.o
                0x00000000010b1494                ubifs_read_node_wbuf
 .text.ubifs_wbuf_init
                0x00000000010b15f0       0xb8 fs/built-in.o
                0x00000000010b15f0                ubifs_wbuf_init
 .text.ubifs_dirty_inode
                0x00000000010b16a8       0x14 fs/built-in.o
 .text.sb_test  0x00000000010b16bc       0x18 fs/built-in.o
 .text.sb_set   0x00000000010b16d4        0xc fs/built-in.o
 .text.free_wbufs
                0x00000000010b16e0       0x78 fs/built-in.o
 .text.free_orphans
                0x00000000010b1758       0x8c fs/built-in.o
 .text.kill_ubifs_super
                0x00000000010b17e4        0x8 fs/built-in.o
 .text.ubifs_alloc_inode
                0x00000000010b17ec       0x48 fs/built-in.o
 .text.bud_wbuf_callback
                0x00000000010b1834        0xc fs/built-in.o
 .text.iget_locked
                0x00000000010b1840       0x5c fs/built-in.o
                0x00000000010b1840                iget_locked
 .text.ubifs_iput
                0x00000000010b189c       0x34 fs/built-in.o
                0x00000000010b189c                ubifs_iput
 .text.iput     0x00000000010b18d0       0x6c fs/built-in.o
                0x00000000010b18d0                iput
 .text.clear_nlink
                0x00000000010b193c       0x10 fs/built-in.o
                0x00000000010b193c                clear_nlink
 .text.set_nlink
                0x00000000010b194c       0x10 fs/built-in.o
                0x00000000010b194c                set_nlink
 .text.ubifs_iget
                0x00000000010b195c      0x484 fs/built-in.o
                0x00000000010b195c                ubifs_iget
 .text.ubifs_umount
                0x00000000010b1de0       0xc4 fs/built-in.o
                0x00000000010b1de0                ubifs_umount
 .text.sget     0x00000000010b1ea4       0xe0 fs/built-in.o
                0x00000000010b1ea4                sget
 .text.ubifs_mount
                0x00000000010b1f84      0xbf0 fs/built-in.o
 .text.ubifs_init
                0x00000000010b2b74       0x3c fs/built-in.o
                0x00000000010b2b74                ubifs_init
 .text.uboot_ubifs_mount
                0x00000000010b2bb0       0x70 fs/built-in.o
                0x00000000010b2bb0                uboot_ubifs_mount
 .text.key_r5_hash
                0x00000000010b2c20       0x38 fs/built-in.o
 .text.key_test_hash
                0x00000000010b2c58       0x48 fs/built-in.o
 .text.ubifs_read_sb_node
                0x00000000010b2ca0       0x74 fs/built-in.o
                0x00000000010b2ca0                ubifs_read_sb_node
 .text.ubifs_read_superblock
                0x00000000010b2d14      0x594 fs/built-in.o
                0x00000000010b2d14                ubifs_read_superblock
 .text.ubifs_read_master
                0x00000000010b32a8      0xa04 fs/built-in.o
                0x00000000010b32a8                ubifs_read_master
 .text.update_cats
                0x00000000010b3cac       0x58 fs/built-in.o
 .text.generic_fls
                0x00000000010b3d04       0x5c fs/built-in.o
 .text.do_calc_lpt_geom
                0x00000000010b3d60      0x210 fs/built-in.o
 .text.calc_nnode_num_from_parent.isra.4
                0x00000000010b3f70       0x3c fs/built-in.o
 .text.validate_nnode
                0x00000000010b3fac       0xe0 fs/built-in.o
 .text.calc_pnode_num_from_parent.isra.5
                0x00000000010b408c       0x34 fs/built-in.o
 .text.validate_pnode
                0x00000000010b40c0       0xb0 fs/built-in.o
 .text.ubifs_calc_lpt_geom
                0x00000000010b4170       0x6c fs/built-in.o
                0x00000000010b4170                ubifs_calc_lpt_geom
 .text.ubifs_unpack_bits
                0x00000000010b41dc      0x130 fs/built-in.o
                0x00000000010b41dc                ubifs_unpack_bits
 .text.check_lpt_crc
                0x00000000010b430c       0x68 fs/built-in.o
 .text.unpack_pnode
                0x00000000010b4374      0x10c fs/built-in.o
 .text.ubifs_add_lpt_dirt
                0x00000000010b4480       0x2c fs/built-in.o
                0x00000000010b4480                ubifs_add_lpt_dirt
 .text.ubifs_add_nnode_dirt
                0x00000000010b44ac       0x6c fs/built-in.o
                0x00000000010b44ac                ubifs_add_nnode_dirt
 .text.dirty_cow_nnode
                0x00000000010b4518      0x10c fs/built-in.o
 .text.ubifs_unpack_nnode
                0x00000000010b4624       0xe0 fs/built-in.o
                0x00000000010b4624                ubifs_unpack_nnode
 .text.ubifs_read_nnode
                0x00000000010b4704      0x15c fs/built-in.o
                0x00000000010b4704                ubifs_read_nnode
 .text.ubifs_get_nnode
                0x00000000010b4860       0x3c fs/built-in.o
                0x00000000010b4860                ubifs_get_nnode
 .text.ubifs_get_pnode
                0x00000000010b489c      0x1d4 fs/built-in.o
                0x00000000010b489c                ubifs_get_pnode
 .text.ubifs_lpt_lookup_dirty
                0x00000000010b4a70      0x214 fs/built-in.o
                0x00000000010b4a70                ubifs_lpt_lookup_dirty
 .text.ubifs_lpt_init
                0x00000000010b4c84      0x1f4 fs/built-in.o
                0x00000000010b4c84                ubifs_lpt_init
 .text.ubifs_lpt_free
                0x00000000010b4e78      0x1c8 fs/built-in.o
                0x00000000010b4e78                ubifs_lpt_free
 .text.ubifs_scan_a_node
                0x00000000010b5040      0x17c fs/built-in.o
                0x00000000010b5040                ubifs_scan_a_node
 .text.ubifs_start_scan
                0x00000000010b51bc       0xb4 fs/built-in.o
                0x00000000010b51bc                ubifs_start_scan
 .text.ubifs_end_scan
                0x00000000010b5270       0x1c fs/built-in.o
                0x00000000010b5270                ubifs_end_scan
 .text.ubifs_add_snod
                0x00000000010b528c      0x10c fs/built-in.o
                0x00000000010b528c                ubifs_add_snod
 .text.ubifs_scanned_corruption
                0x00000000010b5398        0x4 fs/built-in.o
                0x00000000010b5398                ubifs_scanned_corruption
 .text.ubifs_scan_destroy
                0x00000000010b539c       0x54 fs/built-in.o
                0x00000000010b539c                ubifs_scan_destroy
 .text.ubifs_scan
                0x00000000010b53f0      0x1a0 fs/built-in.o
                0x00000000010b53f0                ubifs_scan
 .text.get_heap_comp_val
                0x00000000010b5590       0x30 fs/built-in.o
 .text.move_up_lpt_heap.isra.7
                0x00000000010b55c0       0xac fs/built-in.o
 .text.adjust_lpt_heap.isra.8
                0x00000000010b566c      0x19c fs/built-in.o
 .text.remove_from_lpt_heap.isra.11
                0x00000000010b5808       0x60 fs/built-in.o
 .text.ubifs_add_to_cat
                0x00000000010b5868      0x1c4 fs/built-in.o
                0x00000000010b5868                ubifs_add_to_cat
 .text.ubifs_replace_cat
                0x00000000010b5a2c       0x68 fs/built-in.o
                0x00000000010b5a2c                ubifs_replace_cat
 .text.ubifs_categorize_lprops
                0x00000000010b5a94       0x8c fs/built-in.o
                0x00000000010b5a94                ubifs_categorize_lprops
 .text.ubifs_calc_dark
                0x00000000010b5b20       0x28 fs/built-in.o
                0x00000000010b5b20                ubifs_calc_dark
 .text.ubifs_change_lp
                0x00000000010b5b48      0x320 fs/built-in.o
                0x00000000010b5b48                ubifs_change_lp
 .text.ubifs_change_one_lp
                0x00000000010b5e68       0x74 fs/built-in.o
                0x00000000010b5e68                ubifs_change_one_lp
 .text.ubifs_update_one_lp
                0x00000000010b5edc       0x74 fs/built-in.o
                0x00000000010b5edc                ubifs_update_one_lp
 .text.insert_old_idx
                0x00000000010b5f50       0xb4 fs/built-in.o
 .text.get_znode
                0x00000000010b6004       0x2c fs/built-in.o
 .text.tnc_prev
                0x00000000010b6030       0xb8 fs/built-in.o
 .text.tnc_next
                0x00000000010b60e8       0xac fs/built-in.o
 .text.fallible_read_node
                0x00000000010b6194      0x140 fs/built-in.o
 .text.key_in_range.isra.15
                0x00000000010b62d4       0x58 fs/built-in.o
 .text.lnc_free.isra.17
                0x00000000010b632c       0x2c fs/built-in.o
 .text.matches_name
                0x00000000010b6358      0x104 fs/built-in.o
 .text.resolve_collision
                0x00000000010b645c      0x1d8 fs/built-in.o
 .text.tnc_read_node_nm
                0x00000000010b6634       0xa4 fs/built-in.o
 .text.dirty_cow_znode
                0x00000000010b66d8      0x198 fs/built-in.o
 .text.dirty_cow_bottom_up
                0x00000000010b6870      0x10c fs/built-in.o
 .text.lookup_level0_dirty
                0x00000000010b697c      0x1bc fs/built-in.o
 .text.fallible_matches_name
                0x00000000010b6b38      0x114 fs/built-in.o
 .text.fallible_resolve_collision
                0x00000000010b6c4c      0x270 fs/built-in.o
 .text.insert_old_idx_znode
                0x00000000010b6ebc       0x44 fs/built-in.o
                0x00000000010b6ebc                insert_old_idx_znode
 .text.tnc_delete
                0x00000000010b6f00      0x228 fs/built-in.o
 .text.ubifs_lookup_level0
                0x00000000010b7128      0x168 fs/built-in.o
                0x00000000010b7128                ubifs_lookup_level0
 .text.ubifs_tnc_locate
                0x00000000010b7290      0x11c fs/built-in.o
                0x00000000010b7290                ubifs_tnc_locate
 .text.ubifs_tnc_remove_nm
                0x00000000010b73ac       0xd0 fs/built-in.o
                0x00000000010b73ac                ubifs_tnc_remove_nm
 .text.ubifs_tnc_remove_range
                0x00000000010b747c      0x1f0 fs/built-in.o
                0x00000000010b747c                ubifs_tnc_remove_range
 .text.ubifs_tnc_next_ent
                0x00000000010b766c      0x128 fs/built-in.o
                0x00000000010b766c                ubifs_tnc_next_ent
 .text.ubifs_tnc_remove_ino
                0x00000000010b7794      0x168 fs/built-in.o
                0x00000000010b7794                ubifs_tnc_remove_ino
 .text.ubifs_search_zbranch
                0x00000000010b78fc       0x78 fs/built-in.o
                0x00000000010b78fc                ubifs_search_zbranch
 .text.ubifs_load_znode
                0x00000000010b7974      0x2a8 fs/built-in.o
                0x00000000010b7974                ubifs_load_znode
 .text.ubifs_tnc_read_node
                0x00000000010b7c1c       0xb4 fs/built-in.o
                0x00000000010b7c1c                ubifs_tnc_read_node
 .text.ubifs_dump_inode
                0x00000000010b7cd0        0x4 fs/built-in.o
                0x00000000010b7cd0                ubifs_dump_inode
 .text.ubifs_dump_node
                0x00000000010b7cd4        0x4 fs/built-in.o
                0x00000000010b7cd4                ubifs_dump_node
 .text.ubifs_dump_znode
                0x00000000010b7cd8        0x4 fs/built-in.o
                0x00000000010b7cd8                ubifs_dump_znode
 .text.ubifs_dump_pnode
                0x00000000010b7cdc        0x4 fs/built-in.o
                0x00000000010b7cdc                ubifs_dump_pnode
 .text.dbg_check_dir
                0x00000000010b7ce0        0x8 fs/built-in.o
                0x00000000010b7ce0                dbg_check_dir
 .text.dbg_debugfs_exit_fs
                0x00000000010b7ce8        0x4 fs/built-in.o
                0x00000000010b7ce8                dbg_debugfs_exit_fs
 .text.ubifs_debugging_init
                0x00000000010b7cec        0x8 fs/built-in.o
                0x00000000010b7cec                ubifs_debugging_init
 .text.ubifs_debugging_exit
                0x00000000010b7cf4        0x4 fs/built-in.o
                0x00000000010b7cf4                ubifs_debugging_exit
 .text.dbg_check_filesystem
                0x00000000010b7cf8        0x8 fs/built-in.o
                0x00000000010b7cf8                dbg_check_filesystem
 .text.dbg_debugfs_init_fs
                0x00000000010b7d00        0x8 fs/built-in.o
                0x00000000010b7d00                dbg_debugfs_init_fs
 .text.dbg_check_tnc
                0x00000000010b7d08        0x8 fs/built-in.o
                0x00000000010b7d08                dbg_check_tnc
 .text.dbg_check_idx_size
                0x00000000010b7d10        0x8 fs/built-in.o
                0x00000000010b7d10                dbg_check_idx_size
 .text.crc16    0x00000000010b7d18       0x38 fs/built-in.o
                0x00000000010b7d18                crc16
 .text.ubifs_calc_min_idx_lebs
                0x00000000010b7d50       0x3c fs/built-in.o
                0x00000000010b7d50                ubifs_calc_min_idx_lebs
 .text.ubifs_reported_space
                0x00000000010b7d8c       0x38 fs/built-in.o
                0x00000000010b7d8c                ubifs_reported_space
 .text.ubifs_get_wbuf
                0x00000000010b7dc4       0x54 fs/built-in.o
                0x00000000010b7dc4                ubifs_get_wbuf
 .text.ubifs_clear_orphans
                0x00000000010b7e18       0x54 fs/built-in.o
                0x00000000010b7e18                ubifs_clear_orphans
 .text.ubifs_mount_orphans
                0x00000000010b7e6c      0x394 fs/built-in.o
                0x00000000010b7e6c                ubifs_mount_orphans
 .text.is_empty
                0x00000000010b8200       0x30 fs/built-in.o
 .text.get_master_node
                0x00000000010b8230      0x204 fs/built-in.o
 .text.ubifs_recover_master_node
                0x00000000010b8434      0x1f8 fs/built-in.o
                0x00000000010b8434                ubifs_recover_master_node
 .text.ubifs_recover_leb
                0x00000000010b862c      0x474 fs/built-in.o
                0x00000000010b862c                ubifs_recover_leb
 .text.ubifs_recover_size
                0x00000000010b8aa0      0x174 fs/built-in.o
                0x00000000010b8aa0                ubifs_recover_size
 .text.ubifs_validate_entry
                0x00000000010b8c14       0xf8 fs/built-in.o
                0x00000000010b8c14                ubifs_validate_entry
 .text.lzo1x_decompress_safe
                0x00000000010b8d0c      0x628 lib/built-in.o
                0x00000000010b8d0c                lzo1x_decompress_safe
 .text.lzop_decompress
                0x00000000010b9334      0x1b4 lib/built-in.o
                0x00000000010b9334                lzop_decompress
 .text.zcalloc  0x00000000010b94e8        0x8 lib/built-in.o
                0x00000000010b94e8                zcalloc
 .text.zcfree   0x00000000010b94f0        0x8 lib/built-in.o
                0x00000000010b94f0                zcfree
 .text.inflate_fast
                0x00000000010b94f8      0x574 lib/built-in.o
                0x00000000010b94f8                inflate_fast
 .text.inflate_table
                0x00000000010b9a6c      0x468 lib/built-in.o
                0x00000000010b9a6c                inflate_table
 .text.inflateReset
                0x00000000010b9ed4       0x70 lib/built-in.o
                0x00000000010b9ed4                inflateReset
 .text.inflateInit2_
                0x00000000010b9f44      0x104 lib/built-in.o
                0x00000000010b9f44                inflateInit2_
 .text.inflateEnd
                0x00000000010ba048       0x68 lib/built-in.o
                0x00000000010ba048                inflateEnd
 .text.adler32  0x00000000010ba0b0      0x2e4 lib/built-in.o
                0x00000000010ba0b0                adler32
 .text.inflate  0x00000000010ba394     0x1420 lib/built-in.o
                0x00000000010ba394                inflate
 .text.fdt_check_header
                0x00000000010bb7b4       0x74 lib/built-in.o
                0x00000000010bb7b4                fdt_check_header
 .text.fdt_offset_ptr
                0x00000000010bb828       0x48 lib/built-in.o
                0x00000000010bb828                fdt_offset_ptr
 .text.fdt_next_tag
                0x00000000010bb870       0xf4 lib/built-in.o
                0x00000000010bb870                fdt_next_tag
 .text._fdt_check_node_offset
                0x00000000010bb964       0x3c lib/built-in.o
                0x00000000010bb964                _fdt_check_node_offset
 .text._fdt_check_prop_offset
                0x00000000010bb9a0       0x3c lib/built-in.o
                0x00000000010bb9a0                _fdt_check_prop_offset
 .text.fdt_next_node
                0x00000000010bb9dc       0xb8 lib/built-in.o
                0x00000000010bb9dc                fdt_next_node
 .text.fdt_first_subnode
                0x00000000010bba94       0x34 lib/built-in.o
                0x00000000010bba94                fdt_first_subnode
 .text.fdt_next_subnode
                0x00000000010bbac8       0x58 lib/built-in.o
                0x00000000010bbac8                fdt_next_subnode
 .text._fdt_find_string
                0x00000000010bbb20       0x74 lib/built-in.o
                0x00000000010bbb20                _fdt_find_string
 .text.fdt_move
                0x00000000010bbb94       0x64 lib/built-in.o
                0x00000000010bbb94                fdt_move
 .text.fdt_path_next_separator
                0x00000000010bbbf8       0x70 lib/built-in.o
 .text._nextprop
                0x00000000010bbc68       0x68 lib/built-in.o
 .text.fdt_string
                0x00000000010bbcd0       0x14 lib/built-in.o
                0x00000000010bbcd0                fdt_string
 .text.fdt_get_mem_rsv
                0x00000000010bbce4       0x68 lib/built-in.o
                0x00000000010bbce4                fdt_get_mem_rsv
 .text.fdt_num_mem_rsv
                0x00000000010bbd4c       0x2c lib/built-in.o
                0x00000000010bbd4c                fdt_num_mem_rsv
 .text.fdt_subnode_offset_namelen
                0x00000000010bbd78       0xd8 lib/built-in.o
                0x00000000010bbd78                fdt_subnode_offset_namelen
 .text.fdt_subnode_offset
                0x00000000010bbe50       0x3c lib/built-in.o
                0x00000000010bbe50                fdt_subnode_offset
 .text.fdt_get_name
                0x00000000010bbe8c       0x84 lib/built-in.o
                0x00000000010bbe8c                fdt_get_name
 .text.fdt_first_property_offset
                0x00000000010bbf10       0x38 lib/built-in.o
                0x00000000010bbf10                fdt_first_property_offset
 .text.fdt_next_property_offset
                0x00000000010bbf48       0x38 lib/built-in.o
                0x00000000010bbf48                fdt_next_property_offset
 .text.fdt_get_property_by_offset
                0x00000000010bbf80       0x68 lib/built-in.o
                0x00000000010bbf80                fdt_get_property_by_offset
 .text.fdt_get_property_namelen
                0x00000000010bbfe8       0xd4 lib/built-in.o
                0x00000000010bbfe8                fdt_get_property_namelen
 .text.fdt_get_property
                0x00000000010bc0bc       0x44 lib/built-in.o
                0x00000000010bc0bc                fdt_get_property
 .text.fdt_getprop_namelen
                0x00000000010bc100       0x20 lib/built-in.o
                0x00000000010bc100                fdt_getprop_namelen
 .text.fdt_getprop_by_offset
                0x00000000010bc120       0x58 lib/built-in.o
                0x00000000010bc120                fdt_getprop_by_offset
 .text.fdt_getprop
                0x00000000010bc178       0x44 lib/built-in.o
                0x00000000010bc178                fdt_getprop
 .text.fdt_get_phandle
                0x00000000010bc1bc       0x80 lib/built-in.o
                0x00000000010bc1bc                fdt_get_phandle
 .text.fdt_get_max_phandle
                0x00000000010bc23c       0x84 lib/built-in.o
                0x00000000010bc23c                fdt_get_max_phandle
 .text.fdt_get_alias_namelen
                0x00000000010bc2c0       0x7c lib/built-in.o
                0x00000000010bc2c0                fdt_get_alias_namelen
 .text.fdt_path_offset_namelen
                0x00000000010bc33c      0x110 lib/built-in.o
                0x00000000010bc33c                fdt_path_offset_namelen
 .text.fdt_supernode_atdepth_offset
                0x00000000010bc44c       0xb8 lib/built-in.o
                0x00000000010bc44c                fdt_supernode_atdepth_offset
 .text.fdt_node_depth
                0x00000000010bc504       0x34 lib/built-in.o
                0x00000000010bc504                fdt_node_depth
 .text.fdt_node_offset_by_phandle
                0x00000000010bc538       0x80 lib/built-in.o
                0x00000000010bc538                fdt_node_offset_by_phandle
 .text.fdt_stringlist_contains
                0x00000000010bc5b8       0x98 lib/built-in.o
                0x00000000010bc5b8                fdt_stringlist_contains
 .text._fdt_blocks_misordered
                0x00000000010bc650       0x60 lib/built-in.o
 .text._fdt_splice
                0x00000000010bc6b0       0x84 lib/built-in.o
 .text._fdt_splice_mem_rsv
                0x00000000010bc734       0x6c lib/built-in.o
 .text._fdt_splice_struct
                0x00000000010bc7a0       0x60 lib/built-in.o
 .text._fdt_packblocks
                0x00000000010bc800       0xcc lib/built-in.o
 .text._fdt_add_property
                0x00000000010bc8cc      0x150 lib/built-in.o
 .text._fdt_rw_check_header
                0x00000000010bca1c       0x6c lib/built-in.o
 .text.fdt_add_mem_rsv
                0x00000000010bca88       0x94 lib/built-in.o
                0x00000000010bca88                fdt_add_mem_rsv
 .text.fdt_del_mem_rsv
                0x00000000010bcb1c       0x7c lib/built-in.o
                0x00000000010bcb1c                fdt_del_mem_rsv
 .text.fdt_setprop
                0x00000000010bcb98       0xd8 lib/built-in.o
                0x00000000010bcb98                fdt_setprop
 .text.fdt_delprop
                0x00000000010bcc70       0x78 lib/built-in.o
                0x00000000010bcc70                fdt_delprop
 .text.fdt_add_subnode_namelen
                0x00000000010bcce8      0x128 lib/built-in.o
                0x00000000010bcce8                fdt_add_subnode_namelen
 .text.fdt_add_subnode
                0x00000000010bce10       0x3c lib/built-in.o
                0x00000000010bce10                fdt_add_subnode
 .text.fdt_del_node
                0x00000000010bce4c       0x74 lib/built-in.o
                0x00000000010bce4c                fdt_del_node
 .text.fdt_open_into
                0x00000000010bcec0      0x1b4 lib/built-in.o
                0x00000000010bcec0                fdt_open_into
 .text.fdt_strerror
                0x00000000010bd074       0x50 lib/built-in.o
                0x00000000010bd074                fdt_strerror
 .text.fdt_setprop_inplace_namelen_partial
                0x00000000010bd0c4       0x6c lib/built-in.o
                0x00000000010bd0c4                fdt_setprop_inplace_namelen_partial
 .text.fdt_setprop_inplace
                0x00000000010bd130       0x8c lib/built-in.o
                0x00000000010bd130                fdt_setprop_inplace
 .text._fdt_node_end_offset
                0x00000000010bd1bc       0x44 lib/built-in.o
                0x00000000010bd1bc                _fdt_node_end_offset
 .text.fdt_address_cells
                0x00000000010bd200       0x58 lib/built-in.o
                0x00000000010bd200                fdt_address_cells
 .text.fdt_size_cells
                0x00000000010bd258       0x54 lib/built-in.o
                0x00000000010bd258                fdt_size_cells
 .text.overlay_phandle_add_offset
                0x00000000010bd2ac       0x90 lib/built-in.o
 .text.overlay_adjust_node_phandles
                0x00000000010bd33c       0xb8 lib/built-in.o
 .text.overlay_update_local_node_references
                0x00000000010bd3f4      0x190 lib/built-in.o
 .text.overlay_apply_node
                0x00000000010bd584      0x134 lib/built-in.o
 .text.fdt_overlay_apply
                0x00000000010bd6b8      0x3cc lib/built-in.o
                0x00000000010bd6b8                fdt_overlay_apply
 .text.cyg_crc16
                0x00000000010bda84       0x3c lib/built-in.o
                0x00000000010bda84                cyg_crc16
 .text.fdtdec_get_int
                0x00000000010bdac0       0x44 lib/built-in.o
                0x00000000010bdac0                fdtdec_get_int
 .text.gzalloc  0x00000000010bdb04       0x10 lib/built-in.o
                0x00000000010bdb04                gzalloc
 .text.gzfree   0x00000000010bdb14        0x8 lib/built-in.o
                0x00000000010bdb14                gzfree
 .text.zunzip   0x00000000010bdb1c      0x120 lib/built-in.o
                0x00000000010bdb1c                zunzip
 .text.gunzip   0x00000000010bdc3c       0xc4 lib/built-in.o
                0x00000000010bdc3c                gunzip
 .text.initcall_run_list
                0x00000000010bdd00       0x7c lib/built-in.o
                0x00000000010bdd00                initcall_run_list
 .text.lmb_add_region
                0x00000000010bdd7c      0x1a8 lib/built-in.o
 .text.lmb_init
                0x00000000010bdf24       0x28 lib/built-in.o
                0x00000000010bdf24                lmb_init
 .text.lmb_add  0x00000000010bdf4c        0x4 lib/built-in.o
                0x00000000010bdf4c                lmb_add
 .text.lmb_free
                0x00000000010bdf50       0xf0 lib/built-in.o
                0x00000000010bdf50                lmb_free
 .text.lmb_reserve
                0x00000000010be040        0x8 lib/built-in.o
                0x00000000010be040                lmb_reserve
 .text.__lmb_alloc_base
                0x00000000010be048      0x124 lib/built-in.o
                0x00000000010be048                __lmb_alloc_base
 .text.lmb_alloc_base
                0x00000000010be16c       0x4c lib/built-in.o
                0x00000000010be16c                lmb_alloc_base
 .text.lmb_alloc
                0x00000000010be1b8        0x8 lib/built-in.o
                0x00000000010be1b8                lmb_alloc
 .text.board_lmb_reserve
                0x00000000010be1c0        0x4 lib/built-in.o
                0x00000000010be1c0                board_lmb_reserve
 .text.byteReverse
                0x00000000010be1c4       0x2c lib/built-in.o
 .text.MD5Transform
                0x00000000010be1f0      0xa90 lib/built-in.o
 .text.MD5Update
                0x00000000010bec80      0x11c lib/built-in.o
 .text.MD5Final
                0x00000000010bed9c       0xe8 lib/built-in.o
 .text.md5_wd   0x00000000010bee84       0x78 lib/built-in.o
                0x00000000010bee84                md5_wd
 .text.string_to_ip
                0x00000000010beefc       0x70 lib/built-in.o
                0x00000000010beefc                string_to_ip
 .text.qsort    0x00000000010bef6c       0xf8 lib/built-in.o
                0x00000000010bef6c                qsort
 .text.sha1_process
                0x00000000010bf064     0x1a8c lib/built-in.o
 .text.sha1_update.part.0
                0x00000000010c0af0       0xf8 lib/built-in.o
 .text.sha1_starts
                0x00000000010c0be8       0x48 lib/built-in.o
                0x00000000010c0be8                sha1_starts
 .text.sha1_update
                0x00000000010c0c30        0xc lib/built-in.o
                0x00000000010c0c30                sha1_update
 .text.sha1_finish
                0x00000000010c0c3c      0x180 lib/built-in.o
                0x00000000010c0c3c                sha1_finish
 .text.sha1_csum
                0x00000000010c0dbc       0x50 lib/built-in.o
                0x00000000010c0dbc                sha1_csum
 .text.sha1_csum_wd
                0x00000000010c0e0c       0x50 lib/built-in.o
                0x00000000010c0e0c                sha1_csum_wd
 .text.sha256_process
                0x00000000010c0e5c     0x28d0 lib/built-in.o
 .text.sha256_starts
                0x00000000010c372c       0x6c lib/built-in.o
                0x00000000010c372c                sha256_starts
 .text.sha256_update
                0x00000000010c3798       0xf8 lib/built-in.o
                0x00000000010c3798                sha256_update
 .text.sha256_finish
                0x00000000010c3890      0x1c0 lib/built-in.o
                0x00000000010c3890                sha256_finish
 .text.sha256_csum_wd
                0x00000000010c3a50       0x50 lib/built-in.o
                0x00000000010c3a50                sha256_csum_wd
 .text.rb_insert_color
                0x00000000010c3aa0      0x11c lib/built-in.o
                0x00000000010c3aa0                rb_insert_color
 .text.rb_erase
                0x00000000010c3bbc      0x320 lib/built-in.o
                0x00000000010c3bbc                rb_erase
 .text.rb_first
                0x00000000010c3edc       0x1c lib/built-in.o
                0x00000000010c3edc                rb_first
 .text.rb_last  0x00000000010c3ef8       0x1c lib/built-in.o
                0x00000000010c3ef8                rb_last
 .text.rb_next  0x00000000010c3f14       0x50 lib/built-in.o
                0x00000000010c3f14                rb_next
 .text.cmpkey   0x00000000010c3f64       0x14 lib/built-in.o
 .text._hdelete.isra.1
                0x00000000010c3f78       0x60 lib/built-in.o
 .text.drop_var_from_set.part.2
                0x00000000010c3fd8       0x6c lib/built-in.o
 .text.match_string.isra.3
                0x00000000010c4044       0x68 lib/built-in.o
 .text.hcreate_r
                0x00000000010c40ac       0xa0 lib/built-in.o
                0x00000000010c40ac                hcreate_r
 .text.hdestroy_r
                0x00000000010c414c       0x88 lib/built-in.o
                0x00000000010c414c                hdestroy_r
 .text.hsearch_r
                0x00000000010c41d4      0x420 lib/built-in.o
                0x00000000010c41d4                hsearch_r
 .text.hdelete_r
                0x00000000010c45f4       0xdc lib/built-in.o
                0x00000000010c45f4                hdelete_r
 .text.hexport_r
                0x00000000010c46d0      0x310 lib/built-in.o
                0x00000000010c46d0                hexport_r
 .text.himport_r
                0x00000000010c49e0      0x3a8 lib/built-in.o
                0x00000000010c49e0                himport_r
 .text.hwalk_r  0x00000000010c4d88       0x70 lib/built-in.o
                0x00000000010c4d88                hwalk_r
 .text.display_options
                0x00000000010c4df8       0x28 lib/built-in.o
                0x00000000010c4df8                display_options
 .text.print_size
                0x00000000010c4e20       0xe8 lib/built-in.o
                0x00000000010c4e20                print_size
 .text.print_buffer
                0x00000000010c4f08      0x1f4 lib/built-in.o
                0x00000000010c4f08                print_buffer
 .text.crc32_no_comp
                0x00000000010c50fc       0xd0 lib/built-in.o
                0x00000000010c50fc                crc32_no_comp
 .text.crc32    0x00000000010c51cc       0x1c lib/built-in.o
                0x00000000010c51cc                crc32
 .text.crc32_wd
                0x00000000010c51e8        0x4 lib/built-in.o
                0x00000000010c51e8                crc32_wd
 .text.crc32_wd_buf
                0x00000000010c51ec       0x4c lib/built-in.o
                0x00000000010c51ec                crc32_wd_buf
 .text.__div64_32
                0x00000000010c5238       0x70 lib/built-in.o
                0x00000000010c5238                __div64_32
 .text.hang     0x00000000010c52a8       0x20 lib/built-in.o
                0x00000000010c52a8                hang
 .text.copy_from_user
                0x00000000010c52c8       0x18 lib/built-in.o
                0x00000000010c52c8                copy_from_user
 .text.kmalloc  0x00000000010c52e0        0xc lib/built-in.o
                0x00000000010c52e0                kmalloc
 .text.kzalloc  0x00000000010c52ec       0x40 lib/built-in.o
                0x00000000010c52ec                kzalloc
 .text.vzalloc  0x00000000010c532c        0x8 lib/built-in.o
                0x00000000010c532c                vzalloc
 .text.get_mem  0x00000000010c5334       0x2c lib/built-in.o
                0x00000000010c5334                get_mem
 .text.kmem_cache_alloc
                0x00000000010c5360        0xc lib/built-in.o
                0x00000000010c5360                kmem_cache_alloc
 .text.skip_spaces
                0x00000000010c536c       0x20 lib/built-in.o
                0x00000000010c536c                skip_spaces
 .text.strim    0x00000000010c538c       0x60 lib/built-in.o
                0x00000000010c538c                strim
 .text.strncasecmp
                0x00000000010c53ec       0x74 lib/built-in.o
                0x00000000010c53ec                strncasecmp
 .text.strcpy   0x00000000010c5460       0x18 lib/built-in.o
                0x00000000010c5460                strcpy
 .text.strncpy  0x00000000010c5478       0x20 lib/built-in.o
                0x00000000010c5478                strncpy
 .text.strcat   0x00000000010c5498       0x2c lib/built-in.o
                0x00000000010c5498                strcat
 .text.strncat  0x00000000010c54c4       0x40 lib/built-in.o
                0x00000000010c54c4                strncat
 .text.strcmp   0x00000000010c5504       0x28 lib/built-in.o
                0x00000000010c5504                strcmp
 .text.strncmp  0x00000000010c552c       0x38 lib/built-in.o
                0x00000000010c552c                strncmp
 .text.strchr   0x00000000010c5564       0x24 lib/built-in.o
                0x00000000010c5564                strchr
 .text.strlen   0x00000000010c5588       0x1c lib/built-in.o
                0x00000000010c5588                strlen
 .text.strrchr  0x00000000010c55a4       0x54 lib/built-in.o
                0x00000000010c55a4                strrchr
 .text.strnlen  0x00000000010c55f8       0x28 lib/built-in.o
                0x00000000010c55f8                strnlen
 .text.strdup   0x00000000010c5620       0x48 lib/built-in.o
                0x00000000010c5620                strdup
 .text.strpbrk  0x00000000010c5668       0x34 lib/built-in.o
                0x00000000010c5668                strpbrk
 .text.strsep   0x00000000010c569c       0x40 lib/built-in.o
                0x00000000010c569c                strsep
 .text.memset   0x00000000010c56dc       0x68 lib/built-in.o
                0x00000000010c56dc                memset
 .text.memcpy   0x00000000010c5744       0x64 lib/built-in.o
                0x00000000010c5744                memcpy
 .text.memmove  0x00000000010c57a8       0x5c lib/built-in.o
                0x00000000010c57a8                memmove
 .text.memcmp   0x00000000010c5804       0x30 lib/built-in.o
                0x00000000010c5804                memcmp
 .text.strstr   0x00000000010c5834       0x8c lib/built-in.o
                0x00000000010c5834                strstr
 .text.memchr   0x00000000010c58c0       0x30 lib/built-in.o
                0x00000000010c58c0                memchr
 .text.tick_to_time
                0x00000000010c58f0       0x4c lib/built-in.o
 .text.get_ticks
                0x00000000010c593c       0x3c lib/built-in.o
                0x00000000010c593c                get_ticks
 .text.timer_init
                0x00000000010c5978        0x8 lib/built-in.o
                0x00000000010c5978                timer_init
 .text.get_timer
                0x00000000010c5980       0x28 lib/built-in.o
                0x00000000010c5980                get_timer
 .text.__udelay
                0x00000000010c59a8       0x78 lib/built-in.o
                0x00000000010c59a8                __udelay
 .text.udelay   0x00000000010c5a20       0x44 lib/built-in.o
                0x00000000010c5a20                udelay
 .text.mdelay   0x00000000010c5a64       0x30 lib/built-in.o
                0x00000000010c5a64                mdelay
 .text.uuid_str_valid
                0x00000000010c5a94       0x84 lib/built-in.o
                0x00000000010c5a94                uuid_str_valid
 .text.uuid_guid_get_bin
                0x00000000010c5b18       0x94 lib/built-in.o
                0x00000000010c5b18                uuid_guid_get_bin
 .text.uuid_str_to_bin
                0x00000000010c5bac      0x1a8 lib/built-in.o
                0x00000000010c5bac                uuid_str_to_bin
 .text.uuid_bin_to_str
                0x00000000010c5d54       0xd8 lib/built-in.o
                0x00000000010c5d54                uuid_bin_to_str
 .text.gen_rand_uuid
                0x00000000010c5e2c       0x78 lib/built-in.o
                0x00000000010c5e2c                gen_rand_uuid
 .text.gen_rand_uuid_str
                0x00000000010c5ea4       0x3c lib/built-in.o
                0x00000000010c5ea4                gen_rand_uuid_str
 .text.do_uuid  0x00000000010c5ee0       0x7c lib/built-in.o
                0x00000000010c5ee0                do_uuid
 .text.put_dec_trunc
                0x00000000010c5f5c       0xdc lib/built-in.o
 .text.put_dec  0x00000000010c6038      0x138 lib/built-in.o
 .text.string.isra.0
                0x00000000010c6170       0xa8 lib/built-in.o
 .text.number.isra.4
                0x00000000010c6218      0x27c lib/built-in.o
 .text.vsnprintf_internal.isra.6
                0x00000000010c6494      0x824 lib/built-in.o
 .text.simple_strtoul
                0x00000000010c6cb8       0xd0 lib/built-in.o
                0x00000000010c6cb8                simple_strtoul
 .text.strict_strtoul
                0x00000000010c6d88       0x88 lib/built-in.o
                0x00000000010c6d88                strict_strtoul
 .text.simple_strtol
                0x00000000010c6e10       0x30 lib/built-in.o
                0x00000000010c6e10                simple_strtol
 .text.simple_strtoull
                0x00000000010c6e40       0xd0 lib/built-in.o
                0x00000000010c6e40                simple_strtoull
 .text.ustrtoull
                0x00000000010c6f10       0x88 lib/built-in.o
                0x00000000010c6f10                ustrtoull
 .text.vsprintf
                0x00000000010c6f98       0x40 lib/built-in.o
                0x00000000010c6f98                vsprintf
 .text.sprintf  0x00000000010c6fd8       0x8c lib/built-in.o
                0x00000000010c6fd8                sprintf
 .text.panic    0x00000000010c7064       0xac lib/built-in.o
                0x00000000010c7064                panic
 .text.simple_itoa
                0x00000000010c7110       0x3c lib/built-in.o
                0x00000000010c7110                simple_itoa
 .text.avb_chain_partition_descriptor_validate_and_byteswap
                0x00000000010c714c      0x2d8 lib/built-in.o
                0x00000000010c714c                avb_chain_partition_descriptor_validate_and_byteswap
 .text.uint64_to_base10
                0x00000000010c7424       0x78 lib/built-in.o
 .text.cmdline_append_option.isra.0
                0x00000000010c749c       0xf0 lib/built-in.o
 .text.cmdline_append_hex
                0x00000000010c758c       0x60 lib/built-in.o
 .text.avb_sub_cmdline
                0x00000000010c75ec      0x230 lib/built-in.o
                0x00000000010c75ec                avb_sub_cmdline
 .text.avb_append_options
                0x00000000010c781c      0x42c lib/built-in.o
                0x00000000010c781c                avb_append_options
 .text.avb_new_cmdline_subst_list
                0x00000000010c7c48        0x8 lib/built-in.o
                0x00000000010c7c48                avb_new_cmdline_subst_list
 .text.avb_free_cmdline_subst_list
                0x00000000010c7c50       0x5c lib/built-in.o
                0x00000000010c7c50                avb_free_cmdline_subst_list
 .text.avb_add_root_digest_substitution
                0x00000000010c7cac      0x134 lib/built-in.o
                0x00000000010c7cac                avb_add_root_digest_substitution
 .text.avb_crc32
                0x00000000010c7de0       0x3c lib/built-in.o
                0x00000000010c7de0                avb_crc32
 .text.avb_get_algorithm_data
                0x00000000010c7e1c       0x28 lib/built-in.o
                0x00000000010c7e1c                avb_get_algorithm_data
 .text.avb_rsa_public_key_header_validate_and_byteswap
                0x00000000010c7e44       0xac lib/built-in.o
                0x00000000010c7e44                avb_rsa_public_key_header_validate_and_byteswap
 .text.count_descriptors
                0x00000000010c7ef0       0x14 lib/built-in.o
 .text.set_descriptors
                0x00000000010c7f04       0x1c lib/built-in.o
 .text.avb_descriptor_validate_and_byteswap
                0x00000000010c7f20      0x15c lib/built-in.o
                0x00000000010c7f20                avb_descriptor_validate_and_byteswap
 .text.avb_descriptor_foreach
                0x00000000010c807c      0x3d0 lib/built-in.o
                0x00000000010c807c                avb_descriptor_foreach
 .text.avb_descriptor_get_all
                0x00000000010c844c       0xc8 lib/built-in.o
                0x00000000010c844c                avb_descriptor_get_all
 .text.avb_footer_validate_and_byteswap
                0x00000000010c8514      0x2c8 lib/built-in.o
                0x00000000010c8514                avb_footer_validate_and_byteswap
 .text.avb_hash_descriptor_validate_and_byteswap
                0x00000000010c87dc      0x360 lib/built-in.o
                0x00000000010c87dc                avb_hash_descriptor_validate_and_byteswap
 .text.avb_hashtree_descriptor_validate_and_byteswap
                0x00000000010c8b3c      0x640 lib/built-in.o
                0x00000000010c8b3c                avb_hashtree_descriptor_validate_and_byteswap
 .text.avb_kernel_cmdline_descriptor_validate_and_byteswap
                0x00000000010c917c      0x208 lib/built-in.o
                0x00000000010c917c                avb_kernel_cmdline_descriptor_validate_and_byteswap
 .text.subM     0x00000000010c9384       0x40 lib/built-in.o
 .text.montMul  0x00000000010c93c4       0xf8 lib/built-in.o
 .text.avb_rsa_verify
                0x00000000010c94bc      0x574 lib/built-in.o
                0x00000000010c94bc                avb_rsa_verify
 .text.SHA256_transform
                0x00000000010c9a30      0x1ec lib/built-in.o
 .text.avb_sha256_init
                0x00000000010c9c1c       0x6c lib/built-in.o
                0x00000000010c9c1c                avb_sha256_init
 .text.avb_sha256_update
                0x00000000010c9c88       0xd0 lib/built-in.o
                0x00000000010c9c88                avb_sha256_update
 .text.avb_sha256_final
                0x00000000010c9d58       0xdc lib/built-in.o
                0x00000000010c9d58                avb_sha256_final
 .text.SHA512_transform
                0x00000000010c9e34      0x214 lib/built-in.o
 .text.avb_sha512_init
                0x00000000010ca048       0xac lib/built-in.o
                0x00000000010ca048                avb_sha512_init
 .text.avb_sha512_update
                0x00000000010ca0f4       0xd0 lib/built-in.o
                0x00000000010ca0f4                avb_sha512_update
 .text.avb_sha512_final
                0x00000000010ca1c4       0xfc lib/built-in.o
                0x00000000010ca1c4                avb_sha512_final
 .text.unlikely.load_full_partition
                0x00000000010ca2c0      0x22c lib/built-in.o
 .text.unlikely.read_persistent_digest
                0x00000000010ca4ec      0x1a0 lib/built-in.o
 .text.load_and_verify_vbmeta
                0x00000000010ca68c     0x16f4 lib/built-in.o
 .text.avb_slot_verify_data_free
                0x00000000010cbd80       0xe0 lib/built-in.o
                0x00000000010cbd80                avb_slot_verify_data_free
 .text.avb_slot_verify
                0x00000000010cbe60      0x430 lib/built-in.o
                0x00000000010cbe60                avb_slot_verify
 .text.avb_memcmp
                0x00000000010cc290        0x4 lib/built-in.o
                0x00000000010cc290                avb_memcmp
 .text.avb_memcpy
                0x00000000010cc294        0x4 lib/built-in.o
                0x00000000010cc294                avb_memcpy
 .text.avb_memset
                0x00000000010cc298        0x4 lib/built-in.o
                0x00000000010cc298                avb_memset
 .text.avb_strcmp
                0x00000000010cc29c        0x4 lib/built-in.o
                0x00000000010cc29c                avb_strcmp
 .text.avb_strlen
                0x00000000010cc2a0        0x4 lib/built-in.o
                0x00000000010cc2a0                avb_strlen
 .text.avb_abort
                0x00000000010cc2a4       0x14 lib/built-in.o
                0x00000000010cc2a4                avb_abort
 .text.avb_printv
                0x00000000010cc2b8       0xcc lib/built-in.o
                0x00000000010cc2b8                avb_printv
 .text.avb_malloc_
                0x00000000010cc384        0x4 lib/built-in.o
                0x00000000010cc384                avb_malloc_
 .text.avb_free
                0x00000000010cc388        0x4 lib/built-in.o
                0x00000000010cc388                avb_free
 .text.avb_div_by_10
                0x00000000010cc38c       0x18 lib/built-in.o
                0x00000000010cc38c                avb_div_by_10
 .text.avb_be32toh
                0x00000000010cc3a4       0x24 lib/built-in.o
                0x00000000010cc3a4                avb_be32toh
 .text.avb_be64toh
                0x00000000010cc3c8       0x44 lib/built-in.o
                0x00000000010cc3c8                avb_be64toh
 .text.avb_htobe32
                0x00000000010cc40c       0x28 lib/built-in.o
                0x00000000010cc40c                avb_htobe32
 .text.avb_safe_memcmp
                0x00000000010cc434       0x40 lib/built-in.o
                0x00000000010cc434                avb_safe_memcmp
 .text.avb_validate_utf8
                0x00000000010cc474       0x8c lib/built-in.o
                0x00000000010cc474                avb_validate_utf8
 .text.avb_strstr
                0x00000000010cc500       0x4c lib/built-in.o
                0x00000000010cc500                avb_strstr
 .text.avb_strv_find_str
                0x00000000010cc54c       0x64 lib/built-in.o
                0x00000000010cc54c                avb_strv_find_str
 .text.avb_basename
                0x00000000010cc5b0       0x54 lib/built-in.o
                0x00000000010cc5b0                avb_basename
 .text.avb_safe_add_to
                0x00000000010cc604       0xa4 lib/built-in.o
                0x00000000010cc604                avb_safe_add_to
 .text.avb_safe_add
                0x00000000010cc6a8       0x28 lib/built-in.o
                0x00000000010cc6a8                avb_safe_add
 .text.avb_str_concat
                0x00000000010cc6d0      0x10c lib/built-in.o
                0x00000000010cc6d0                avb_str_concat
 .text.avb_malloc
                0x00000000010cc7dc       0x5c lib/built-in.o
                0x00000000010cc7dc                avb_malloc
 .text.avb_calloc
                0x00000000010cc838       0x38 lib/built-in.o
                0x00000000010cc838                avb_calloc
 .text.avb_strdup
                0x00000000010cc870       0x48 lib/built-in.o
                0x00000000010cc870                avb_strdup
 .text.avb_replace
                0x00000000010cc8b8      0x1a0 lib/built-in.o
                0x00000000010cc8b8                avb_replace
 .text.avb_strdupv
                0x00000000010cca58      0x228 lib/built-in.o
                0x00000000010cca58                avb_strdupv
 .text.avb_uppercase
                0x00000000010ccc80       0x2c lib/built-in.o
                0x00000000010ccc80                avb_uppercase
 .text.avb_bin2hex
                0x00000000010cccac       0x94 lib/built-in.o
                0x00000000010cccac                avb_bin2hex
 .text.avb_vbmeta_image_header_to_host_byte_order
                0x00000000010ccd40      0x76c lib/built-in.o
                0x00000000010ccd40                avb_vbmeta_image_header_to_host_byte_order
 .text.avb_vbmeta_image_verify
                0x00000000010cd4ac      0x644 lib/built-in.o
                0x00000000010cd4ac                avb_vbmeta_image_verify
 .text.avb_vbmeta_verify_result_to_string
                0x00000000010cdaf0       0x64 lib/built-in.o
                0x00000000010cdaf0                avb_vbmeta_verify_result_to_string
 .text.rand_r   0x00000000010cdb54       0x1c lib/built-in.o
                0x00000000010cdb54                rand_r
 .text.rand     0x00000000010cdb70        0xc lib/built-in.o
                0x00000000010cdb70                rand
 .text.ArpInit  0x00000000010cdb7c       0x50 net/built-in.o
                0x00000000010cdb7c                ArpInit
 .text.arp_raw_request
                0x00000000010cdbcc       0xe4 net/built-in.o
                0x00000000010cdbcc                arp_raw_request
 .text.ArpRequest
                0x00000000010cdcb0       0x90 net/built-in.o
                0x00000000010cdcb0                ArpRequest
 .text.ArpTimeoutCheck
                0x00000000010cdd40       0x94 net/built-in.o
                0x00000000010cdd40                ArpTimeoutCheck
 .text.ArpReceive
                0x00000000010cddd4      0x21c net/built-in.o
                0x00000000010cddd4                ArpReceive
 .text.DhcpOptionsProcess
                0x00000000010cdff0      0x220 net/built-in.o
 .text.DhcpHandler
                0x00000000010ce210      0x498 net/built-in.o
 .text.BootpReset
                0x00000000010ce6a8       0x4c net/built-in.o
                0x00000000010ce6a8                BootpReset
 .text.BootpRequest
                0x00000000010ce6f4      0x2b4 net/built-in.o
                0x00000000010ce6f4                BootpRequest
 .text.BootpTimeout
                0x00000000010ce9a8       0x74 net/built-in.o
 .text.DhcpRequest
                0x00000000010cea1c        0x4 net/built-in.o
                0x00000000010cea1c                DhcpRequest
 .text.__def_eth_init
                0x00000000010cea20        0x8 net/built-in.o
                0x00000000010cea20                cpu_eth_init
 .text.eth_current_changed
                0x00000000010cea28       0x7c net/built-in.o
 .text.eth_parse_enetaddr
                0x00000000010ceaa4       0x70 net/built-in.o
                0x00000000010ceaa4                eth_parse_enetaddr
 .text.eth_getenv_enetaddr
                0x00000000010ceb14       0x68 net/built-in.o
                0x00000000010ceb14                eth_getenv_enetaddr
 .text.eth_setenv_enetaddr
                0x00000000010ceb7c       0x3c net/built-in.o
                0x00000000010ceb7c                eth_setenv_enetaddr
 .text.eth_getenv_enetaddr_by_index
                0x00000000010cebb8       0x54 net/built-in.o
                0x00000000010cebb8                eth_getenv_enetaddr_by_index
 .text.eth_get_dev_index
                0x00000000010cec0c       0x20 net/built-in.o
                0x00000000010cec0c                eth_get_dev_index
 .text.eth_write_hwaddr
                0x00000000010cec2c      0x3c4 net/built-in.o
                0x00000000010cec2c                eth_write_hwaddr
 .text.eth_register
                0x00000000010ceff0       0x94 net/built-in.o
                0x00000000010ceff0                eth_register
 *fill*         0x00000000010cf084        0x4 
 .text.eth_initialize
                0x00000000010cf088      0x1f0 net/built-in.o
                0x00000000010cf088                eth_initialize
 .text.eth_halt
                0x00000000010cf278       0x3c net/built-in.o
                0x00000000010cf278                eth_halt
 .text.eth_send
                0x00000000010cf2b4       0x3c net/built-in.o
                0x00000000010cf2b4                eth_send
 .text.eth_rx   0x00000000010cf2f0       0x30 net/built-in.o
                0x00000000010cf2f0                eth_rx
 .text.eth_try_another
                0x00000000010cf320       0x9c net/built-in.o
                0x00000000010cf320                eth_try_another
 .text.eth_init
                0x00000000010cf3bc       0xe4 net/built-in.o
                0x00000000010cf3bc                eth_init
 .text.eth_set_current
                0x00000000010cf4a0       0xc4 net/built-in.o
                0x00000000010cf4a0                eth_set_current
 .text.eth_get_name
                0x00000000010cf564       0x1c net/built-in.o
                0x00000000010cf564                eth_get_name
 .text.startAgainTimeout
                0x00000000010cf580       0x14 net/built-in.o
 .text.dummy_handler
                0x00000000010cf594        0x4 net/built-in.o
 .text.EthLoopTimeout
                0x00000000010cf598       0x24 net/built-in.o
 .text.net_clear_handlers
                0x00000000010cf5bc       0x30 net/built-in.o
 .text.net_auto_load
                0x00000000010cf5ec       0x3c net/built-in.o
                0x00000000010cf5ec                net_auto_load
 .text.NetStartAgain
                0x00000000010cf628      0x15c net/built-in.o
                0x00000000010cf628                NetStartAgain
 .text.net_set_udp_handler
                0x00000000010cf784       0x1c net/built-in.o
                0x00000000010cf784                net_set_udp_handler
 .text.net_get_arp_handler
                0x00000000010cf7a0       0x10 net/built-in.o
                0x00000000010cf7a0                net_get_arp_handler
 .text.NetSetTimeout
                0x00000000010cf7b0       0x60 net/built-in.o
                0x00000000010cf7b0                NetSetTimeout
 .text.NetCksum
                0x00000000010cf810       0x34 net/built-in.o
                0x00000000010cf810                NetCksum
 .text.NetCksumOk
                0x00000000010cf844       0x20 net/built-in.o
                0x00000000010cf844                NetCksumOk
 .text.NetReceive
                0x00000000010cf864      0x2ec net/built-in.o
                0x00000000010cf864                NetReceive
 .text.NetEthHdrSize
                0x00000000010cfb50       0x3c net/built-in.o
                0x00000000010cfb50                NetEthHdrSize
 .text.NetSetEther
                0x00000000010cfb8c       0xb0 net/built-in.o
                0x00000000010cfb8c                NetSetEther
 .text.net_update_ether
                0x00000000010cfc3c       0x8c net/built-in.o
                0x00000000010cfc3c                net_update_ether
 .text.EthLoopSend
                0x00000000010cfcc8       0x78 net/built-in.o
                0x00000000010cfcc8                EthLoopSend
 .text.net_set_ip_header
                0x00000000010cfd40       0x90 net/built-in.o
                0x00000000010cfd40                net_set_ip_header
 .text.net_set_udp_header
                0x00000000010cfdd0       0xa4 net/built-in.o
                0x00000000010cfdd0                net_set_udp_header
 .text.NetSendUDPPacket
                0x00000000010cfe74      0x118 net/built-in.o
                0x00000000010cfe74                NetSendUDPPacket
 .text.copy_filename
                0x00000000010cff8c       0x44 net/built-in.o
                0x00000000010cff8c                copy_filename
 .text.on_bootfile
                0x00000000010cffd0       0x30 net/built-in.o
 .text.ip_to_string
                0x00000000010d0000       0x24 net/built-in.o
                0x00000000010d0000                ip_to_string
 .text.string_to_VLAN
                0x00000000010d0024       0x4c net/built-in.o
                0x00000000010d0024                string_to_VLAN
 .text.getenv_VLAN
                0x00000000010d0070       0x14 net/built-in.o
                0x00000000010d0070                getenv_VLAN
 .text.NetInitLoop
                0x00000000010d0084      0x100 net/built-in.o
 .text.net_init
                0x00000000010d0184       0x7c net/built-in.o
                0x00000000010d0184                net_init
 .text.NetLoop  0x00000000010d0200      0x374 net/built-in.o
                0x00000000010d0200                NetLoop
 .text.ping_timeout
                0x00000000010d0574       0x20 net/built-in.o
 .text.ping_start
                0x00000000010d0594      0x124 net/built-in.o
                0x00000000010d0594                ping_start
 .text.ping_receive
                0x00000000010d06b8      0x104 net/built-in.o
                0x00000000010d06b8                ping_receive
 .text.rarp_receive
                0x00000000010d07bc       0xdc net/built-in.o
                0x00000000010d07bc                rarp_receive
 .text.RarpRequest
                0x00000000010d0898       0xf4 net/built-in.o
                0x00000000010d0898                RarpRequest
 .text.RarpTimeout
                0x00000000010d098c       0x48 net/built-in.o
 .text.TftpSend
                0x00000000010d09d4      0x1c4 net/built-in.o
 .text.TftpHandler
                0x00000000010d0b98      0x3d8 net/built-in.o
 .text.TftpTimeout
                0x00000000010d0f70       0x94 net/built-in.o
 .text.TftpStart
                0x00000000010d1004      0x334 net/built-in.o
                0x00000000010d1004                TftpStart
                0x00000000010d1338                . = ALIGN (0x8)

.rodata         0x00000000010d1338    0x5372b
 *(SORT(.rodata*))
 .rodata        0x00000000010d1338      0x630 common/built-in.o
 .rodata        0x00000000010d1968       0x10 disk/built-in.o
 .rodata        0x00000000010d1978      0x37e drivers/built-in.o
 *fill*         0x00000000010d1cf6        0x2 
 .rodata        0x00000000010d1cf8       0x20 lib/built-in.o
 .rodata.CSWTCH.1
                0x00000000010d1d18       0xb8 drivers/built-in.o
 .rodata.CSWTCH.103
                0x00000000010d1dd0        0x8 arch/arm/cpu/armv8/built-in.o
 .rodata.CSWTCH.18
                0x00000000010d1dd8       0x18 common/built-in.o
 .rodata.CSWTCH.23
                0x00000000010d1df0       0x28 common/built-in.o
 .rodata.CSWTCH.24
                0x00000000010d1e18       0x40 common/built-in.o
 .rodata.CSWTCH.35
                0x00000000010d1e58        0x8 drivers/built-in.o
 .rodata.CSWTCH.40
                0x00000000010d1e60       0x28 drivers/built-in.o
 .rodata.CSWTCH.64
                0x00000000010d1e88       0x40 arch/arm/cpu/armv8/built-in.o
 .rodata.CSWTCH.65
                0x00000000010d1ec8       0x80 arch/arm/cpu/armv8/built-in.o
 .rodata.CSWTCH.66
                0x00000000010d1f48       0x80 arch/arm/cpu/armv8/built-in.o
 .rodata.CSWTCH.67
                0x00000000010d1fc8       0x40 arch/arm/cpu/armv8/built-in.o
 .rodata.CSWTCH.68
                0x00000000010d2008       0x80 arch/arm/cpu/armv8/built-in.o
 .rodata.CSWTCH.69
                0x00000000010d2088       0x40 arch/arm/cpu/armv8/built-in.o
 .rodata.CSWTCH.70
                0x00000000010d20c8       0x40 arch/arm/cpu/armv8/built-in.o
 .rodata.CSWTCH.71
                0x00000000010d2108       0x80 arch/arm/cpu/armv8/built-in.o
 .rodata.CSWTCH.72
                0x00000000010d2188       0x40 arch/arm/cpu/armv8/built-in.o
 .rodata.CSWTCH.8
                0x00000000010d21c8       0x30 lib/built-in.o
 .rodata.CSWTCH.88
                0x00000000010d21f8       0x98 common/built-in.o
 .rodata.DV_func
                0x00000000010d2290       0x38 drivers/built-in.o
                0x00000000010d2290                DV_func
 .rodata.DisplayTbl
                0x00000000010d22c8       0x70 drivers/built-in.o
 .rodata.FilterUvColDs_m
                0x00000000010d2338       0x20 drivers/built-in.o
 .rodata.V8PrimartTbl
                0x00000000010d2358      0x280 drivers/built-in.o
 .rodata.__FUNCTION__.5994
                0x00000000010d25d8       0x18 common/built-in.o
 .rodata.__FUNCTION__.6674
                0x00000000010d25f0       0x18 drivers/i2c/built-in.o
 .rodata.__FUNCTION__.6694
                0x00000000010d2608       0x10 drivers/i2c/built-in.o
 .rodata.__FUNCTION__.6715
                0x00000000010d2618       0x10 drivers/i2c/built-in.o
 .rodata.__FUNCTION__.6790
                0x00000000010d2628       0x18 drivers/usb/host/built-in.o
 .rodata.__FUNCTION__.6795
                0x00000000010d2640       0x18 drivers/usb/host/built-in.o
 .rodata.__FUNCTION__.6804
                0x00000000010d2658       0x10 drivers/usb/host/built-in.o
 .rodata.__FUNCTION__.6829
                0x00000000010d2668       0x20 drivers/usb/host/built-in.o
 .rodata.__FUNCTION__.6836
                0x00000000010d2688       0x10 drivers/usb/host/built-in.o
 .rodata.__FUNCTION__.6850
                0x00000000010d2698       0x18 drivers/usb/host/built-in.o
 .rodata.__FUNCTION__.6851
                0x00000000010d26b0       0x18 drivers/usb/host/built-in.o
 .rodata.__FUNCTION__.6858
                0x00000000010d26c8       0x10 drivers/usb/host/built-in.o
 .rodata.__FUNCTION__.6868
                0x00000000010d26d8       0x20 drivers/usb/host/built-in.o
 .rodata.__FUNCTION__.6870
                0x00000000010d26f8       0x18 drivers/usb/host/built-in.o
 .rodata.__FUNCTION__.6885
                0x00000000010d2710       0x18 drivers/usb/host/built-in.o
 .rodata.__FUNCTION__.6888
                0x00000000010d2728       0x18 drivers/usb/host/built-in.o
 .rodata.__FUNCTION__.6896
                0x00000000010d2740       0x10 drivers/usb/host/built-in.o
 .rodata.__FUNCTION__.6901
                0x00000000010d2750       0x20 drivers/usb/host/built-in.o
 .rodata.__FUNCTION__.6902
                0x00000000010d2770       0x18 drivers/usb/host/built-in.o
 .rodata.__FUNCTION__.6906
                0x00000000010d2788       0x18 drivers/usb/host/built-in.o
 .rodata.__FUNCTION__.6940
                0x00000000010d27a0       0x20 drivers/usb/host/built-in.o
 .rodata.__FUNCTION__.6950
                0x00000000010d27c0       0x10 drivers/usb/host/built-in.o
 .rodata.__FUNCTION__.6974
                0x00000000010d27d0       0x10 drivers/usb/host/built-in.o
 .rodata.__FUNCTION__.6975
                0x00000000010d27e0       0x10 drivers/mtd/nand/built-in.o
 .rodata.__FUNCTION__.7118
                0x00000000010d27f0       0x18 drivers/mtd/nand/built-in.o
 .rodata.__FUNCTION__.7396
                0x00000000010d2808       0x10 drivers/mtd/ubi/built-in.o
 .rodata.__FUNCTION__.7418
                0x00000000010d2818       0x18 drivers/mtd/nand/built-in.o
 .rodata.__FUNCTION__.7434
                0x00000000010d2830       0x10 drivers/mtd/nand/built-in.o
 .rodata.__FUNCTION__.7491
                0x00000000010d2840       0x18 drivers/mtd/built-in.o
 .rodata.__FUNCTION__.7507
                0x00000000010d2858       0x10 drivers/mtd/nand/built-in.o
 .rodata.__FUNCTION__.7578
                0x00000000010d2868       0x18 common/built-in.o
 .rodata.__FUNCTION__.7682
                0x00000000010d2880       0x10 common/built-in.o
 .rodata.__FUNCTION__.7702
                0x00000000010d2890       0x10 drivers/mtd/nand/built-in.o
 .rodata.__FUNCTION__.7811
                0x00000000010d28a0       0x18 drivers/mtd/nand/amlogic_mtd/built-in.o
 .rodata.__FUNCTION__.7833
                0x00000000010d28b8       0x18 drivers/mtd/nand/amlogic_mtd/built-in.o
 .rodata.__FUNCTION__.7853
                0x00000000010d28d0       0x18 drivers/mtd/nand/amlogic_mtd/built-in.o
 .rodata.__FUNCTION__.7886
                0x00000000010d28e8       0x18 drivers/mtd/nand/built-in.o
 .rodata.__FUNCTION__.8000
                0x00000000010d2900       0x10 drivers/mtd/nand/built-in.o
 .rodata.__FUNCTION__.8028
                0x00000000010d2910       0x10 drivers/mtd/nand/amlogic_mtd/built-in.o
 .rodata.__FUNCTION__.8044
                0x00000000010d2920       0x18 drivers/mtd/nand/amlogic_mtd/built-in.o
 .rodata.__FUNCTION__.8360
                0x00000000010d2938       0x18 drivers/mtd/nand/amlogic_mtd/built-in.o
 .rodata.__func__.2516
                0x00000000010d2950       0x18 drivers/built-in.o
 .rodata.__func__.2551
                0x00000000010d2968       0x10 drivers/built-in.o
 .rodata.__func__.2578
                0x00000000010d2978       0x10 drivers/built-in.o
 .rodata.__func__.3313
                0x00000000010d2988       0x10 drivers/built-in.o
 .rodata.__func__.5771
                0x00000000010d2998       0x18 drivers/built-in.o
 .rodata.__func__.5785
                0x00000000010d29b0       0x18 drivers/built-in.o
 .rodata.__func__.5797
                0x00000000010d29c8       0x20 drivers/built-in.o
 .rodata.__func__.5798
                0x00000000010d29e8       0x18 common/built-in.o
 .rodata.__func__.5805
                0x00000000010d2a00       0x18 drivers/built-in.o
 .rodata.__func__.5814
                0x00000000010d2a18       0x18 drivers/built-in.o
 .rodata.__func__.5825
                0x00000000010d2a30       0x18 drivers/built-in.o
 .rodata.__func__.5834
                0x00000000010d2a48       0x10 disk/built-in.o
 .rodata.__func__.5835
                0x00000000010d2a58       0x10 drivers/built-in.o
 .rodata.__func__.5842
                0x00000000010d2a68       0x10 drivers/built-in.o
 .rodata.__func__.5848
                0x00000000010d2a78       0x10 drivers/built-in.o
 .rodata.__func__.5849
                0x00000000010d2a88       0x18 drivers/built-in.o
 .rodata.__func__.5861
                0x00000000010d2aa0       0x10 drivers/built-in.o
 .rodata.__func__.5866
                0x00000000010d2ab0       0x10 common/built-in.o
 .rodata.__func__.5870
                0x00000000010d2ac0       0x10 drivers/built-in.o
 .rodata.__func__.5875
                0x00000000010d2ad0       0x18 common/built-in.o
 .rodata.__func__.5881
                0x00000000010d2ae8       0x10 drivers/built-in.o
 .rodata.__func__.5905
                0x00000000010d2af8        0x8 common/built-in.o
 .rodata.__func__.5913
                0x00000000010d2b00       0x20 drivers/built-in.o
 .rodata.__func__.5917
                0x00000000010d2b20       0x10 common/built-in.o
 .rodata.__func__.5933
                0x00000000010d2b30       0x10 common/built-in.o
 .rodata.__func__.5933
                0x00000000010d2b40       0x20 drivers/built-in.o
 .rodata.__func__.5938
                0x00000000010d2b60       0x20 drivers/built-in.o
 .rodata.__func__.5940
                0x00000000010d2b80       0x20 common/built-in.o
 .rodata.__func__.5943
                0x00000000010d2ba0       0x20 drivers/built-in.o
 .rodata.__func__.5948
                0x00000000010d2bc0       0x20 drivers/built-in.o
 .rodata.__func__.5950
                0x00000000010d2be0       0x20 drivers/built-in.o
 .rodata.__func__.5955
                0x00000000010d2c00       0x18 drivers/built-in.o
 .rodata.__func__.5959
                0x00000000010d2c18       0x18 drivers/built-in.o
 .rodata.__func__.5962
                0x00000000010d2c30       0x18 drivers/built-in.o
 .rodata.__func__.5973
                0x00000000010d2c48       0x18 drivers/built-in.o
 .rodata.__func__.5975
                0x00000000010d2c60       0x18 drivers/built-in.o
 .rodata.__func__.5975
                0x00000000010d2c78       0x10 fs/built-in.o
 .rodata.__func__.5978
                0x00000000010d2c88       0x18 drivers/built-in.o
 .rodata.__func__.5980
                0x00000000010d2ca0       0x20 drivers/built-in.o
 .rodata.__func__.5984
                0x00000000010d2cc0       0x18 drivers/built-in.o
 .rodata.__func__.5991
                0x00000000010d2cd8       0x18 drivers/built-in.o
 .rodata.__func__.5995
                0x00000000010d2cf0       0x18 common/built-in.o
 .rodata.__func__.6000
                0x00000000010d2d08       0x18 drivers/built-in.o
 .rodata.__func__.6006
                0x00000000010d2d20       0x18 drivers/built-in.o
 .rodata.__func__.6017
                0x00000000010d2d38       0x10 drivers/built-in.o
 .rodata.__func__.6018
                0x00000000010d2d48       0x18 drivers/built-in.o
 .rodata.__func__.6026
                0x00000000010d2d60       0x10 drivers/built-in.o
 .rodata.__func__.6033
                0x00000000010d2d70       0x10 common/built-in.o
 .rodata.__func__.6033
                0x00000000010d2d80       0x18 drivers/built-in.o
 .rodata.__func__.6035
                0x00000000010d2d98       0x18 drivers/built-in.o
 .rodata.__func__.6041
                0x00000000010d2db0       0x10 common/built-in.o
 .rodata.__func__.6041
                0x00000000010d2dc0       0x18 drivers/built-in.o
 .rodata.__func__.6047
                0x00000000010d2dd8       0x18 drivers/built-in.o
 .rodata.__func__.6049
                0x00000000010d2df0       0x18 drivers/built-in.o
 .rodata.__func__.6050
                0x00000000010d2e08       0x20 drivers/built-in.o
 .rodata.__func__.6054
                0x00000000010d2e28       0x20 drivers/built-in.o
 .rodata.__func__.6058
                0x00000000010d2e48       0x18 drivers/built-in.o
 .rodata.__func__.6059
                0x00000000010d2e60       0x10 common/built-in.o
 .rodata.__func__.6059
                0x00000000010d2e70       0x18 drivers/built-in.o
 .rodata.__func__.6065
                0x00000000010d2e88       0x18 drivers/built-in.o
 .rodata.__func__.6066
                0x00000000010d2ea0       0x18 drivers/built-in.o
 .rodata.__func__.6068
                0x00000000010d2eb8       0x18 common/built-in.o
 .rodata.__func__.6071
                0x00000000010d2ed0       0x10 drivers/built-in.o
 .rodata.__func__.6072
                0x00000000010d2ee0       0x18 common/built-in.o
 .rodata.__func__.6074
                0x00000000010d2ef8       0x18 drivers/built-in.o
 .rodata.__func__.6075
                0x00000000010d2f10       0x18 drivers/built-in.o
 .rodata.__func__.6080
                0x00000000010d2f28       0x30 drivers/built-in.o
 .rodata.__func__.6091
                0x00000000010d2f58       0x18 common/built-in.o
 .rodata.__func__.6098
                0x00000000010d2f70       0x20 drivers/built-in.o
 .rodata.__func__.6099
                0x00000000010d2f90       0x18 drivers/built-in.o
 .rodata.__func__.6106
                0x00000000010d2fa8       0x18 common/built-in.o
 .rodata.__func__.6115
                0x00000000010d2fc0       0x10 drivers/built-in.o
 .rodata.__func__.6124
                0x00000000010d2fd0       0x18 fs/built-in.o
 .rodata.__func__.6129
                0x00000000010d2fe8       0x18 drivers/built-in.o
 .rodata.__func__.6141
                0x00000000010d3000       0x18 drivers/built-in.o
 .rodata.__func__.6148
                0x00000000010d3018       0x18 drivers/built-in.o
 .rodata.__func__.6167
                0x00000000010d3030       0x10 common/built-in.o
 .rodata.__func__.6178
                0x00000000010d3040       0x10 common/built-in.o
 .rodata.__func__.6178
                0x00000000010d3050       0x10 disk/built-in.o
 .rodata.__func__.6179
                0x00000000010d3060       0x10 drivers/built-in.o
 .rodata.__func__.6186
                0x00000000010d3070       0x20 common/built-in.o
 .rodata.__func__.6188
                0x00000000010d3090       0x10 disk/built-in.o
 .rodata.__func__.6196
                0x00000000010d30a0       0x10 drivers/built-in.o
 .rodata.__func__.6197
                0x00000000010d30b0       0x20 common/built-in.o
 .rodata.__func__.6200
                0x00000000010d30d0       0x18 disk/built-in.o
 .rodata.__func__.6207
                0x00000000010d30e8       0x28 common/built-in.o
 .rodata.__func__.6211
                0x00000000010d3110       0x10 drivers/built-in.o
 .rodata.__func__.6221
                0x00000000010d3120       0x18 disk/built-in.o
 .rodata.__func__.6223
                0x00000000010d3138       0x10 common/built-in.o
 .rodata.__func__.6247
                0x00000000010d3148       0x20 common/built-in.o
 .rodata.__func__.6259
                0x00000000010d3168       0x18 drivers/built-in.o
 .rodata.__func__.6260
                0x00000000010d3180       0x10 common/built-in.o
 .rodata.__func__.6262
                0x00000000010d3190       0x20 common/built-in.o
 .rodata.__func__.6272
                0x00000000010d31b0       0x18 drivers/built-in.o
 .rodata.__func__.6279
                0x00000000010d31c8       0x10 disk/built-in.o
 .rodata.__func__.6295
                0x00000000010d31d8       0x10 drivers/spi/built-in.o
 .rodata.__func__.6297
                0x00000000010d31e8       0x18 disk/built-in.o
 .rodata.__func__.6329
                0x00000000010d3200       0x10 drivers/built-in.o
 .rodata.__func__.6330
                0x00000000010d3210       0x20 disk/built-in.o
 .rodata.__func__.6343
                0x00000000010d3230       0x18 drivers/spi/built-in.o
 .rodata.__func__.6344
                0x00000000010d3248       0x18 drivers/built-in.o
 .rodata.__func__.6347
                0x00000000010d3260       0x10 disk/built-in.o
 .rodata.__func__.6351
                0x00000000010d3270       0x18 drivers/built-in.o
 .rodata.__func__.6355
                0x00000000010d3288       0x18 disk/built-in.o
 .rodata.__func__.6360
                0x00000000010d32a0       0x10 disk/built-in.o
 .rodata.__func__.6360
                0x00000000010d32b0       0x18 drivers/built-in.o
 .rodata.__func__.6361
                0x00000000010d32c8       0x18 drivers/built-in.o
 .rodata.__func__.6364
                0x00000000010d32e0       0x10 drivers/built-in.o
 .rodata.__func__.6368
                0x00000000010d32f0       0x18 drivers/built-in.o
 .rodata.__func__.6379
                0x00000000010d3308       0x18 drivers/spi/built-in.o
 .rodata.__func__.6381
                0x00000000010d3320       0x10 common/built-in.o
 .rodata.__func__.6385
                0x00000000010d3330       0x10 drivers/spi/built-in.o
 .rodata.__func__.6386
                0x00000000010d3340       0x18 drivers/built-in.o
 .rodata.__func__.6391
                0x00000000010d3358       0x18 drivers/spi/built-in.o
 .rodata.__func__.6394
                0x00000000010d3370        0x8 common/built-in.o
 .rodata.__func__.6398
                0x00000000010d3378       0x18 drivers/spi/built-in.o
 .rodata.__func__.6400
                0x00000000010d3390       0x20 drivers/built-in.o
 .rodata.__func__.6400
                0x00000000010d33b0       0x10 drivers/spi/built-in.o
 .rodata.__func__.6402
                0x00000000010d33c0       0x18 common/built-in.o
 .rodata.__func__.6411
                0x00000000010d33d8       0x18 drivers/spi/built-in.o
 .rodata.__func__.6414
                0x00000000010d33f0       0x18 drivers/built-in.o
 .rodata.__func__.6422
                0x00000000010d3408       0x10 drivers/spi/built-in.o
 .rodata.__func__.6430
                0x00000000010d3418       0x10 drivers/spi/built-in.o
 .rodata.__func__.6436
                0x00000000010d3428       0x18 drivers/spi/built-in.o
 .rodata.__func__.6451
                0x00000000010d3440       0x10 drivers/spi/built-in.o
 .rodata.__func__.6454
                0x00000000010d3450       0x10 arch/arm/cpu/armv8/built-in.o
 .rodata.__func__.6463
                0x00000000010d3460       0x10 arch/arm/cpu/armv8/built-in.o
 .rodata.__func__.6463
                0x00000000010d3470       0x10 drivers/i2c/built-in.o
 .rodata.__func__.6467
                0x00000000010d3480       0x20 drivers/mmc/built-in.o
 .rodata.__func__.6469
                0x00000000010d34a0       0x10 drivers/spi/built-in.o
 .rodata.__func__.6471
                0x00000000010d34b0       0x20 drivers/i2c/built-in.o
 .rodata.__func__.6472
                0x00000000010d34d0       0x10 arch/arm/cpu/armv8/built-in.o
 .rodata.__func__.6475
                0x00000000010d34e0       0x18 drivers/i2c/built-in.o
 .rodata.__func__.6489
                0x00000000010d34f8       0x10 drivers/i2c/built-in.o
 .rodata.__func__.6489
                0x00000000010d3508       0x18 drivers/mmc/built-in.o
 .rodata.__func__.6498
                0x00000000010d3520       0x20 drivers/i2c/built-in.o
 .rodata.__func__.6502
                0x00000000010d3540       0x18 drivers/i2c/built-in.o
 .rodata.__func__.6509
                0x00000000010d3558       0x20 drivers/built-in.o
 .rodata.__func__.6512
                0x00000000010d3578       0x10 drivers/i2c/built-in.o
 .rodata.__func__.6512
                0x00000000010d3588       0x10 drivers/mmc/built-in.o
 .rodata.__func__.6517
                0x00000000010d3598       0x18 drivers/i2c/built-in.o
 .rodata.__func__.6519
                0x00000000010d35b0       0x18 drivers/mmc/built-in.o
 .rodata.__func__.6522
                0x00000000010d35c8       0x18 drivers/i2c/built-in.o
 .rodata.__func__.6533
                0x00000000010d35e0       0x18 drivers/i2c/built-in.o
 .rodata.__func__.6544
                0x00000000010d35f8       0x18 drivers/mmc/built-in.o
 .rodata.__func__.6554
                0x00000000010d3610       0x18 drivers/i2c/built-in.o
 .rodata.__func__.6560
                0x00000000010d3628       0x18 drivers/mmc/built-in.o
 .rodata.__func__.6573
                0x00000000010d3640       0x18 drivers/i2c/built-in.o
 .rodata.__func__.6577
                0x00000000010d3658       0x20 drivers/i2c/built-in.o
 .rodata.__func__.6582
                0x00000000010d3678       0x18 drivers/i2c/built-in.o
 .rodata.__func__.6586
                0x00000000010d3690       0x10 drivers/i2c/built-in.o
 .rodata.__func__.6593
                0x00000000010d36a0       0x10 drivers/i2c/built-in.o
 .rodata.__func__.6595
                0x00000000010d36b0       0x18 drivers/mmc/built-in.o
 .rodata.__func__.6604
                0x00000000010d36c8       0x10 drivers/mmc/built-in.o
 .rodata.__func__.6609
                0x00000000010d36d8       0x10 drivers/built-in.o
 .rodata.__func__.6612
                0x00000000010d36e8       0x10 drivers/i2c/built-in.o
 .rodata.__func__.6617
                0x00000000010d36f8       0x10 drivers/mmc/built-in.o
 .rodata.__func__.6625
                0x00000000010d3708       0x10 drivers/mmc/built-in.o
 .rodata.__func__.6631
                0x00000000010d3718       0x10 drivers/i2c/built-in.o
 .rodata.__func__.6634
                0x00000000010d3728       0x10 drivers/mmc/built-in.o
 .rodata.__func__.6645
                0x00000000010d3738       0x10 drivers/mmc/built-in.o
 .rodata.__func__.6655
                0x00000000010d3748       0x10 drivers/mmc/built-in.o
 .rodata.__func__.6675
                0x00000000010d3758       0x18 drivers/i2c/built-in.o
 .rodata.__func__.6721
                0x00000000010d3770       0x10 drivers/mmc/built-in.o
 .rodata.__func__.6735
                0x00000000010d3780       0x18 drivers/built-in.o
 .rodata.__func__.6743
                0x00000000010d3798       0x18 drivers/built-in.o
 .rodata.__func__.6747
                0x00000000010d37b0       0x18 common/built-in.o
 .rodata.__func__.6761
                0x00000000010d37c8       0x10 drivers/mmc/built-in.o
 .rodata.__func__.6774
                0x00000000010d37d8       0x20 drivers/mmc/built-in.o
 .rodata.__func__.6775
                0x00000000010d37f8       0x20 common/built-in.o
 .rodata.__func__.6776
                0x00000000010d3818       0x10 drivers/built-in.o
 .rodata.__func__.6796
                0x00000000010d3828       0x18 common/built-in.o
 .rodata.__func__.6806
                0x00000000010d3840       0x20 drivers/mmc/built-in.o
 .rodata.__func__.6816
                0x00000000010d3860       0x28 drivers/mmc/built-in.o
 .rodata.__func__.6826
                0x00000000010d3888       0x18 drivers/mmc/built-in.o
 .rodata.__func__.6850
                0x00000000010d38a0       0x10 drivers/mmc/built-in.o
 .rodata.__func__.6860
                0x00000000010d38b0       0x18 common/built-in.o
 .rodata.__func__.6886
                0x00000000010d38c8       0x10 drivers/mmc/built-in.o
 .rodata.__func__.6948
                0x00000000010d38d8       0x18 drivers/mmc/built-in.o
 .rodata.__func__.6962
                0x00000000010d38f0       0x18 drivers/mmc/built-in.o
 .rodata.__func__.6976
                0x00000000010d3908       0x18 drivers/mmc/built-in.o
 .rodata.__func__.7148
                0x00000000010d3920       0x20 arch/arm/cpu/armv8/built-in.o
 .rodata.__func__.7170
                0x00000000010d3940       0x10 common/built-in.o
 .rodata.__func__.7175
                0x00000000010d3950       0x18 common/built-in.o
 .rodata.__func__.7219
                0x00000000010d3968        0x8 common/built-in.o
 .rodata.__func__.7243
                0x00000000010d3970       0x10 arch/arm/cpu/armv8/built-in.o
 .rodata.__func__.7361
                0x00000000010d3980       0x10 drivers/usb/gadget/built-in.o
 .rodata.__func__.7409
                0x00000000010d3990       0x10 drivers/mtd/nand/built-in.o
 .rodata.__func__.7431
                0x00000000010d39a0       0x10 drivers/usb/gadget/built-in.o
 .rodata.__func__.7442
                0x00000000010d39b0       0x10 drivers/usb/gadget/built-in.o
 .rodata.__func__.7450
                0x00000000010d39c0       0x10 drivers/usb/gadget/built-in.o
 .rodata.__func__.7457
                0x00000000010d39d0       0x10 drivers/usb/gadget/built-in.o
 .rodata.__func__.7464
                0x00000000010d39e0       0x10 drivers/usb/gadget/built-in.o
 .rodata.__func__.7496
                0x00000000010d39f0       0x18 drivers/usb/gadget/built-in.o
 .rodata.__func__.7524
                0x00000000010d3a08       0x10 drivers/mtd/nand/built-in.o
 .rodata.__func__.7543
                0x00000000010d3a18       0x10 drivers/mtd/built-in.o
 .rodata.__func__.7586
                0x00000000010d3a28       0x18 common/built-in.o
 .rodata.__func__.7595
                0x00000000010d3a40       0x10 common/built-in.o
 .rodata.__func__.7604
                0x00000000010d3a50       0x10 common/built-in.o
 .rodata.__func__.7609
                0x00000000010d3a60       0x10 common/built-in.o
 .rodata.__func__.7621
                0x00000000010d3a70       0x18 common/built-in.o
 .rodata.__func__.7629
                0x00000000010d3a88       0x18 drivers/mtd/nand/built-in.o
 .rodata.__func__.7637
                0x00000000010d3aa0       0x10 common/built-in.o
 .rodata.__func__.7642
                0x00000000010d3ab0       0x18 drivers/mtd/nand/built-in.o
 .rodata.__func__.7654
                0x00000000010d3ac8       0x18 common/built-in.o
 .rodata.__func__.7667
                0x00000000010d3ae0       0x20 common/built-in.o
 .rodata.__func__.7668
                0x00000000010d3b00       0x10 common/built-in.o
 .rodata.__func__.7673
                0x00000000010d3b10       0x10 drivers/usb/gadget/built-in.o
 .rodata.__func__.7675
                0x00000000010d3b20       0x10 common/built-in.o
 .rodata.__func__.7683
                0x00000000010d3b30       0x18 drivers/mtd/nand/built-in.o
 .rodata.__func__.7697
                0x00000000010d3b48       0x10 common/built-in.o
 .rodata.__func__.7723
                0x00000000010d3b58       0x10 common/built-in.o
 .rodata.__func__.7740
                0x00000000010d3b68       0x10 common/built-in.o
 .rodata.__func__.7742
                0x00000000010d3b78       0x18 common/built-in.o
 .rodata.__func__.7745
                0x00000000010d3b90       0x18 drivers/mtd/nand/built-in.o
 .rodata.__func__.7752
                0x00000000010d3ba8       0x18 drivers/mtd/nand/built-in.o
 .rodata.__func__.7761
                0x00000000010d3bc0       0x10 drivers/built-in.o
 .rodata.__func__.7767
                0x00000000010d3bd0       0x18 common/built-in.o
 .rodata.__func__.7778
                0x00000000010d3be8       0x18 common/built-in.o
 .rodata.__func__.7784
                0x00000000010d3c00       0x20 common/built-in.o
 .rodata.__func__.7790
                0x00000000010d3c20       0x20 common/built-in.o
 .rodata.__func__.7793
                0x00000000010d3c40       0x18 common/built-in.o
 .rodata.__func__.7798
                0x00000000010d3c58       0x20 common/built-in.o
 .rodata.__func__.7805
                0x00000000010d3c78       0x10 common/built-in.o
 .rodata.__func__.7810
                0x00000000010d3c88       0x18 drivers/mtd/nand/amlogic_mtd/built-in.o
 .rodata.__func__.7811
                0x00000000010d3ca0       0x18 common/built-in.o
 .rodata.__func__.7812
                0x00000000010d3cb8       0x10 common/built-in.o
 .rodata.__func__.7826
                0x00000000010d3cc8       0x18 common/built-in.o
 .rodata.__func__.7827
                0x00000000010d3ce0       0x18 common/built-in.o
 .rodata.__func__.7846
                0x00000000010d3cf8       0x18 drivers/mtd/nand/amlogic_mtd/built-in.o
 .rodata.__func__.7847
                0x00000000010d3d10       0x20 common/built-in.o
 .rodata.__func__.7866
                0x00000000010d3d30       0x18 drivers/mtd/nand/amlogic_mtd/built-in.o
 .rodata.__func__.7888
                0x00000000010d3d48       0x10 common/built-in.o
 .rodata.__func__.7913
                0x00000000010d3d58       0x10 common/built-in.o
 .rodata.__func__.7919
                0x00000000010d3d68       0x10 drivers/mtd/nand/built-in.o
 .rodata.__func__.7920
                0x00000000010d3d78       0x10 drivers/mtd/nand/amlogic_mtd/built-in.o
 .rodata.__func__.7922
                0x00000000010d3d88       0x10 drivers/mtd/nand/amlogic_mtd/built-in.o
 .rodata.__func__.7929
                0x00000000010d3d98       0x10 drivers/mtd/nand/amlogic_mtd/built-in.o
 .rodata.__func__.7930
                0x00000000010d3da8       0x20 drivers/mtd/nand/amlogic_mtd/built-in.o
 .rodata.__func__.7936
                0x00000000010d3dc8       0x10 common/built-in.o
 .rodata.__func__.7936
                0x00000000010d3dd8       0x10 drivers/mtd/nand/amlogic_mtd/built-in.o
 .rodata.__func__.7937
                0x00000000010d3de8       0x10 drivers/mtd/nand/amlogic_mtd/built-in.o
 .rodata.__func__.7938
                0x00000000010d3df8       0x10 drivers/mtd/nand/amlogic_mtd/built-in.o
 .rodata.__func__.7942
                0x00000000010d3e08       0x10 drivers/mtd/nand/amlogic_mtd/built-in.o
 .rodata.__func__.7943
                0x00000000010d3e18       0x18 common/built-in.o
 .rodata.__func__.7944
                0x00000000010d3e30       0x20 drivers/mtd/nand/amlogic_mtd/built-in.o
 .rodata.__func__.7947
                0x00000000010d3e50       0x10 drivers/mtd/nand/amlogic_mtd/built-in.o
 .rodata.__func__.7953
                0x00000000010d3e60       0x20 drivers/mtd/nand/amlogic_mtd/built-in.o
 .rodata.__func__.7954
                0x00000000010d3e80       0x18 drivers/mtd/nand/amlogic_mtd/built-in.o
 .rodata.__func__.7959
                0x00000000010d3e98       0x20 drivers/mtd/nand/amlogic_mtd/built-in.o
 .rodata.__func__.7967
                0x00000000010d3eb8       0x18 common/built-in.o
 .rodata.__func__.7967
                0x00000000010d3ed0       0x10 drivers/mtd/nand/amlogic_mtd/built-in.o
 .rodata.__func__.7983
                0x00000000010d3ee0       0x20 drivers/mtd/nand/amlogic_mtd/built-in.o
 .rodata.__func__.7989
                0x00000000010d3f00       0x10 drivers/mtd/nand/amlogic_mtd/built-in.o
 .rodata.__func__.7992
                0x00000000010d3f10       0x10 drivers/mtd/nand/amlogic_mtd/built-in.o
 .rodata.__func__.8002
                0x00000000010d3f20       0x18 common/built-in.o
 .rodata.__func__.8008
                0x00000000010d3f38       0x28 drivers/mtd/nand/amlogic_mtd/built-in.o
 .rodata.__func__.8017
                0x00000000010d3f60       0x18 drivers/mtd/nand/amlogic_mtd/built-in.o
 .rodata.__func__.8022
                0x00000000010d3f78       0x18 drivers/mtd/nand/amlogic_mtd/built-in.o
 .rodata.__func__.8027
                0x00000000010d3f90       0x10 drivers/mtd/nand/amlogic_mtd/built-in.o
 .rodata.__func__.8030
                0x00000000010d3fa0       0x10 drivers/mtd/nand/amlogic_mtd/built-in.o
 .rodata.__func__.8035
                0x00000000010d3fb0       0x20 drivers/mtd/nand/amlogic_mtd/built-in.o
 .rodata.__func__.8036
                0x00000000010d3fd0       0x10 common/built-in.o
 .rodata.__func__.8055
                0x00000000010d3fe0       0x10 common/built-in.o
 .rodata.__func__.8090
                0x00000000010d3ff0       0x18 drivers/mtd/nand/amlogic_mtd/built-in.o
 .rodata.__func__.8100
                0x00000000010d4008       0x20 drivers/mtd/nand/amlogic_mtd/built-in.o
 .rodata.__func__.8181
                0x00000000010d4028       0x18 drivers/mtd/nand/amlogic_mtd/built-in.o
 .rodata.__func__.8195
                0x00000000010d4040       0x18 drivers/mtd/nand/amlogic_mtd/built-in.o
 .rodata.__func__.8211
                0x00000000010d4058       0x28 drivers/mtd/nand/amlogic_mtd/built-in.o
 .rodata.__func__.8223
                0x00000000010d4080       0x18 drivers/mtd/nand/amlogic_mtd/built-in.o
 .rodata.__func__.8267
                0x00000000010d4098       0x20 drivers/mtd/nand/amlogic_mtd/built-in.o
 .rodata.__func__.8309
                0x00000000010d40b8       0x10 board/amlogic/sm1_ac214_v1/built-in.o
 .rodata.__func__.8314
                0x00000000010d40c8       0x10 board/amlogic/sm1_ac214_v1/built-in.o
 .rodata.__func__.8340
                0x00000000010d40d8       0x18 drivers/mtd/nand/amlogic_mtd/built-in.o
 .rodata.__func__.8377
                0x00000000010d40f0       0x18 drivers/mtd/nand/amlogic_mtd/built-in.o
 .rodata.__func__.8397
                0x00000000010d4108       0x18 drivers/mtd/nand/amlogic_mtd/built-in.o
 .rodata.__func__.8467
                0x00000000010d4120       0x10 drivers/mtd/nand/amlogic_mtd/built-in.o
 .rodata.__func__.8885
                0x00000000010d4130        0x8 fs/built-in.o
 .rodata.__func__.8915
                0x00000000010d4138       0x10 fs/built-in.o
 .rodata.__func__.8954
                0x00000000010d4148       0x10 fs/built-in.o
 .rodata.__func__.8990
                0x00000000010d4158       0x10 fs/built-in.o
 .rodata.__func__.9009
                0x00000000010d4168       0x10 fs/built-in.o
 .rodata._cfgKeyTypes
                0x00000000010d4178       0x20 drivers/built-in.o
 .rodata._configDescTotal
                0x00000000010d4198       0x20 drivers/built-in.o
 .rodata._ctype
                0x00000000010d41b8      0x100 lib/built-in.o
                0x00000000010d41b8                _ctype
 .rodata._env_args_reserve_
                0x00000000010d42b8       0x30 board/amlogic/sm1_ac214_v1/built-in.o
                0x00000000010d42b8                _env_args_reserve_
 .rodata._iniSets
                0x00000000010d42e8       0x20 drivers/built-in.o
 .rodata.all_fmt_paras
                0x00000000010d4308      0x208 common/built-in.o
 .rodata.aml_sd_emmc_ops
                0x00000000010d4510       0x48 drivers/mmc/built-in.o
 .rodata.ap_mb_set
                0x00000000010d4558       0x10 arch/arm/cpu/armv8/built-in.o
 .rodata.ap_mb_stat
                0x00000000010d4568       0x10 arch/arm/cpu/armv8/built-in.o
 .rodata.avb2_kpub_default
                0x00000000010d4578      0x208 lib/built-in.o
                0x00000000010d4578                avb2_kpub_default
 .rodata.block_drvr
                0x00000000010d4780       0x48 disk/built-in.o
 .rodata.boot_os
                0x00000000010d47c8       0xc0 common/built-in.o
 .rodata.bypass_coeff
                0x00000000010d4888       0x40 drivers/built-in.o
 .rodata.calc_fixed_adj
                0x00000000010d48c8       0x20 drivers/mmc/built-in.o
 .rodata.ch7_vol
                0x00000000010d48e8       0x28 drivers/built-in.o
 .rodata.channel_names
                0x00000000010d4910      0x100 common/built-in.o
 .rodata.cmd_dispatch_info
                0x00000000010d4a10       0xf0 drivers/usb/gadget/built-in.o
 .rodata.color_attr_lut
                0x00000000010d4b00       0xc0 common/built-in.o
 .rodata.crc16_tab
                0x00000000010d4bc0      0x200 lib/built-in.o
 .rodata.crc16_table
                0x00000000010d4dc0      0x200 fs/built-in.o
                0x00000000010d4dc0                crc16_table
 .rodata.crc32table_le
                0x00000000010d4fc0      0x400 drivers/mtd/ubi/built-in.o
 .rodata.crc_table
                0x00000000010d53c0      0x400 lib/built-in.o
 .rodata.day_name.6518
                0x00000000010d57c0       0x18 fs/built-in.o
 .rodata.dbase.6080
                0x00000000010d57d8       0x40 lib/built-in.o
 .rodata.default_color_format_array
                0x00000000010d5818      0x2a8 drivers/built-in.o
 .rodata.default_environment
                0x00000000010d5ac0     0x1d60 common/built-in.o
                0x00000000010d5ac0                default_environment
 .rodata.delims.5791
                0x00000000010d7820        0x8 common/built-in.o
 .rodata.depq1024Lut
                0x00000000010d7828     0x1000 drivers/built-in.o
                0x00000000010d7828                depq1024Lut
 .rodata.device_desc
                0x00000000010d8828       0x18 drivers/built-in.o
 .rodata.dext.6081
                0x00000000010d8840       0x40 lib/built-in.o
 .rodata.digits.5788
                0x00000000010d8880       0x10 lib/built-in.o
 .rodata.distfix
                0x00000000010d8890       0x80 lib/built-in.o
 .rodata.dolby_vision_target_graphics_max
                0x00000000010d8910       0x10 drivers/built-in.o
 .rodata.dolby_vision_target_max
                0x00000000010d8920       0x28 drivers/built-in.o
 .rodata.domain
                0x00000000010d8948       0x10 arch/arm/cpu/armv8/built-in.o
 .rodata.dt_string_id
                0x00000000010d8958        0x8 drivers/built-in.o
 .rodata.dt_string_pid
                0x00000000010d8960       0x10 drivers/built-in.o
 .rodata.dt_string_serial
                0x00000000010d8970       0x18 drivers/built-in.o
 .rodata.dt_string_vid
                0x00000000010d8988       0x10 drivers/built-in.o
 .rodata.dwc_pcd_ops
                0x00000000010d8998       0x38 drivers/usb/gadget/built-in.o
 .rodata.env_flags_varaccess_mask
                0x00000000010d89d0       0x10 common/built-in.o
 .rodata.env_flags_varaccess_rep
                0x00000000010d89e0        0x8 common/built-in.o
 .rodata.env_flags_vartype_rep
                0x00000000010d89e8        0x8 common/built-in.o
 .rodata.erase_seq
                0x00000000010d89f0        0x8 common/built-in.o
 .rodata.ext_csd_bits.6779
                0x00000000010d89f8       0x18 drivers/mmc/built-in.o
 .rodata.ext_to_hostcaps.6780
                0x00000000010d8a10       0x20 drivers/mmc/built-in.o
 .rodata.fastboot_name
                0x00000000010d8a30       0x18 drivers/usb/gadget/built-in.o
 .rodata.fbase  0x00000000010d8a48       0x10 drivers/mmc/built-in.o
 .rodata.fdt_errtable
                0x00000000010d8a58       0x68 lib/built-in.o
 .rodata.filter_table
                0x00000000010d8ac0       0x48 drivers/built-in.o
 .rodata.g2lPulsar256Lut
                0x00000000010d8b08      0x400 drivers/built-in.o
                0x00000000010d8b08                g2lPulsar256Lut
 .rodata.g2lSdr256Lut
                0x00000000010d8f08      0x400 drivers/built-in.o
                0x00000000010d8f08                g2lSdr256Lut
 .rodata.g_aml_i2c_reg_start
                0x00000000010d9308       0x28 drivers/i2c/built-in.o
 .rodata.getvar_list
                0x00000000010d9330       0xc8 drivers/usb/gadget/built-in.o
 .rodata.getvar_list_ab
                0x00000000010d93f8      0x168 drivers/usb/gadget/built-in.o
 .rodata.getvar_list_dynamic
                0x00000000010d9560      0x120 drivers/usb/gadget/built-in.o
 .rodata.gpio_aml_ops
                0x00000000010d9680       0x38 drivers/gpio/built-in.o
 .rodata.gpio_function
                0x00000000010d96b8       0x28 drivers/gpio/built-in.o
 .rodata.gxbb_modes
                0x00000000010d96e0      0x2a0 arch/arm/cpu/armv8/built-in.o
 .rodata.gzip_magic
                0x00000000010d9980        0x8 common/built-in.o
 .rodata.hex_asc
                0x00000000010d9988       0x18 lib/built-in.o
 .rodata.hor_spatial_filter_allowed
                0x00000000010d99a0      0x300 drivers/built-in.o
                0x00000000010d99a0                hor_spatial_filter_allowed
 .rodata.hw_func_array
                0x00000000010d9ca0      0x120 drivers/built-in.o
 .rodata.iavb_crc32_tab
                0x00000000010d9dc0      0x400 lib/built-in.o
 .rodata.id.7437
                0x00000000010da1c0        0x8 drivers/built-in.o
 .rodata.l2pqLutA
                0x00000000010da1c8      0x400 drivers/built-in.o
                0x00000000010da1c8                l2pqLutA
 .rodata.l2pqLutB
                0x00000000010da5c8      0x400 drivers/built-in.o
                0x00000000010da5c8                l2pqLutB
 .rodata.l2pqLutX
                0x00000000010da9c8      0x400 drivers/built-in.o
                0x00000000010da9c8                l2pqLutX
 .rodata.lbase.6078
                0x00000000010dadc8       0x40 lib/built-in.o
 .rodata.lenfix
                0x00000000010dae08      0x800 lib/built-in.o
 .rodata.level_limits
                0x00000000010db608      0x140 drivers/built-in.o
                0x00000000010db608                level_limits
 .rodata.lext.6079
                0x00000000010db748       0x40 lib/built-in.o
 .rodata.list_guid
                0x00000000010db788       0xc0 lib/built-in.o
 .rodata.log10Lut
                0x00000000010db848     0x2000 drivers/built-in.o
                0x00000000010db848                log10Lut
 .rodata.log10RateLut
                0x00000000010dd848     0x4000 drivers/built-in.o
                0x00000000010dd848                log10RateLut
 .rodata.lzop_magic
                0x00000000010e1848       0x10 common/built-in.o
 .rodata.lzop_magic
                0x00000000010e1858       0x10 lib/built-in.o
 .rodata.m33Ipt2LmsFxp
                0x00000000010e1868       0x18 drivers/built-in.o
 .rodata.m33Lms2IctcpDmFxp
                0x00000000010e1880       0x18 drivers/built-in.o
 .rodata.m33Lms2IptFxp
                0x00000000010e1898       0x18 drivers/built-in.o
 .rodata.m33Xyz2LmsFxp
                0x00000000010e18b0       0x50 drivers/built-in.o
                0x00000000010e18b0                m33Xyz2LmsFxp
 .rodata.manufacturer
                0x00000000010e1900        0x8 drivers/usb/gadget/built-in.o
 .rodata.meson_pwm_ops
                0x00000000010e1908       0x30 drivers/built-in.o
 .rodata.mon_lengths.6524
                0x00000000010e1938       0x60 fs/built-in.o
 .rodata.mon_name.6519
                0x00000000010e1998       0x28 fs/built-in.o
 .rodata.multipliers
                0x00000000010e19c0       0x40 drivers/mmc/built-in.o
 .rodata.names.5799
                0x00000000010e1a00        0x8 lib/built-in.o
 .rodata.nand_ecc_precalc_table
                0x00000000010e1a08      0x100 drivers/mtd/nand/built-in.o
 .rodata.oe_y_lut_bypass
                0x00000000010e1b08      0x258 drivers/built-in.o
 .rodata.op_adv
                0x00000000010e1d60      0x180 common/built-in.o
                0x00000000010e1d60                op_adv
 .rodata.op_table
                0x00000000010e1ee0       0xd0 common/built-in.o
 .rodata.order.6174
                0x00000000010e1fb0       0x28 lib/built-in.o
 .rodata.padding_RSA2048_SHA256
                0x00000000010e1fd8       0xe0 lib/built-in.o
 .rodata.padding_RSA2048_SHA512
                0x00000000010e20b8       0xc0 lib/built-in.o
 .rodata.padding_RSA4096_SHA256
                0x00000000010e2178      0x1e0 lib/built-in.o
 .rodata.padding_RSA4096_SHA512
                0x00000000010e2358      0x1c0 lib/built-in.o
 .rodata.padding_RSA8192_SHA256
                0x00000000010e2518      0x3e0 lib/built-in.o
 .rodata.padding_RSA8192_SHA512
                0x00000000010e28f8      0x3c0 lib/built-in.o
 .rodata.parse_cd_
                0x00000000010e2cb8       0x40 common/built-in.o
 .rodata.parse_cr_
                0x00000000010e2cf8       0x20 common/built-in.o
 .rodata.parse_cs_
                0x00000000010e2d18       0x40 common/built-in.o
 .rodata.patterns
                0x00000000010e2d58        0x8 drivers/mtd/ubi/built-in.o
 .rodata.power10Lut
                0x00000000010e2d60     0xa000 drivers/built-in.o
                0x00000000010e2d60                power10Lut
 .rodata.powerScale2p
                0x00000000010ecd60       0x10 drivers/built-in.o
                0x00000000010ecd60                powerScale2p
 .rodata.product
                0x00000000010ecd70       0x18 drivers/usb/gadget/built-in.o
 .rodata.profile_limits_fixed
                0x00000000010ecd88      0x980 drivers/built-in.o
                0x00000000010ecd88                profile_limits_fixed
 .rodata.pwm_data
                0x00000000010ed708       0x78 board/amlogic/sm1_ac214_v1/built-in.o
 .rodata.pwm_voltage_table_ee
                0x00000000010ed780       0xe8 common/built-in.o
 .rodata.root_info
                0x00000000010ed868       0x10 drivers/built-in.o
 .rodata.scp_mb_stat
                0x00000000010ed878       0x10 arch/arm/cpu/armv8/built-in.o
 .rodata.sha1_padding
                0x00000000010ed888       0x40 lib/built-in.o
 .rodata.sha256_k
                0x00000000010ed8c8      0x100 lib/built-in.o
 .rodata.sha512_k
                0x00000000010ed9c8      0x280 lib/built-in.o
 .rodata.sm1_table
                0x00000000010edc48      0x400 arch/arm/cpu/armv8/built-in.o
 .rodata.spi_flash_params_table
                0x00000000010ee048      0xc00 drivers/mtd/spi/built-in.o
                0x00000000010ee048                spi_flash_params_table
 .rodata.spi_flash_std_ids
                0x00000000010eec48       0x20 drivers/mtd/spi/built-in.o
 .rodata.spi_flash_std_ops
                0x00000000010eec68       0x18 drivers/mtd/spi/built-in.o
 .rodata.spi_read_cmds_array
                0x00000000010eec80        0x8 drivers/mtd/spi/built-in.o
 .rodata.spifc_ops
                0x00000000010eec88       0x38 drivers/spi/built-in.o
 .rodata.spifc_platdata
                0x00000000010eecc0       0x48 board/amlogic/sm1_ac214_v1/built-in.o
 .rodata.spinand_partitions
                0x00000000010eed08       0x50 drivers/mtd/nand/built-in.o
 .rodata.tab_seq
                0x00000000010eed58       0x10 common/built-in.o
 .rodata.toneCurveXlogTable
                0x00000000010eed68     0x4000 drivers/built-in.o
                0x00000000010eed68                toneCurveXlogTable
 .rodata.tvregsTab
                0x00000000010f2d68      0x200 arch/arm/cpu/armv8/built-in.o
 .rodata.tvregs_1080i
                0x00000000010f2f68      0x118 arch/arm/cpu/armv8/built-in.o
 .rodata.tvregs_1080i_50hz
                0x00000000010f3080       0xf8 arch/arm/cpu/armv8/built-in.o
 .rodata.tvregs_1080p
                0x00000000010f3178       0xf0 arch/arm/cpu/armv8/built-in.o
 .rodata.tvregs_1080p_24hz
                0x00000000010f3268      0x118 arch/arm/cpu/armv8/built-in.o
 .rodata.tvregs_1080p_50hz
                0x00000000010f3380      0x110 arch/arm/cpu/armv8/built-in.o
 .rodata.tvregs_480cvbs_enc
                0x00000000010f3490      0x178 drivers/built-in.o
 .rodata.tvregs_480i
                0x00000000010f3608       0xe0 arch/arm/cpu/armv8/built-in.o
 .rodata.tvregs_480p
                0x00000000010f36e8      0x100 arch/arm/cpu/armv8/built-in.o
 .rodata.tvregs_4k2k_24hz
                0x00000000010f37e8       0xe0 arch/arm/cpu/armv8/built-in.o
 .rodata.tvregs_4k2k_25hz
                0x00000000010f38c8       0xe0 arch/arm/cpu/armv8/built-in.o
 .rodata.tvregs_4k2k_30hz
                0x00000000010f39a8       0xe0 arch/arm/cpu/armv8/built-in.o
 .rodata.tvregs_4k2k_smpte
                0x00000000010f3a88       0xe0 arch/arm/cpu/armv8/built-in.o
 .rodata.tvregs_4k2k_smpte_25hz
                0x00000000010f3b68       0x90 arch/arm/cpu/armv8/built-in.o
 .rodata.tvregs_4k2k_smpte_30hz
                0x00000000010f3bf8       0x90 arch/arm/cpu/armv8/built-in.o
 .rodata.tvregs_576cvbs_enc
                0x00000000010f3c88      0x170 drivers/built-in.o
 .rodata.tvregs_576i
                0x00000000010f3df8      0x108 arch/arm/cpu/armv8/built-in.o
 .rodata.tvregs_576p
                0x00000000010f3f00      0x100 arch/arm/cpu/armv8/built-in.o
 .rodata.tvregs_720p
                0x00000000010f4000      0x110 arch/arm/cpu/armv8/built-in.o
 .rodata.tvregs_720p_50hz
                0x00000000010f4110      0x110 arch/arm/cpu/armv8/built-in.o
 .rodata.tvregs_pal_m_enc
                0x00000000010f4220      0x178 drivers/built-in.o
 .rodata.tvregs_pal_n_enc
                0x00000000010f4398      0x170 drivers/built-in.o
 .rodata.tvregs_vesa_1440x2560p60hz
                0x00000000010f4508       0x90 arch/arm/cpu/armv8/built-in.o
 .rodata.ubifs_super_operations
                0x00000000010f4598       0x78 fs/built-in.o
                0x00000000010f4598                ubifs_super_operations
 .rodata.uimage_arch
                0x00000000010f4610      0x258 common/built-in.o
 .rodata.uimage_comp
                0x00000000010f4868       0x90 common/built-in.o
 .rodata.uimage_os
                0x00000000010f48f8       0xd8 common/built-in.o
 .rodata.uimage_type
                0x00000000010f49d0      0x210 common/built-in.o
 .rodata.us_direction
                0x00000000010f4be0       0x20 common/built-in.o
 .rodata.vcbus_reg
                0x00000000010f4c00       0x10 drivers/built-in.o
 .rodata.ver_spatial_filter_allowed
                0x00000000010f4c10      0x300 drivers/built-in.o
                0x00000000010f4c10                ver_spatial_filter_allowed
 .rodata.version_string
                0x00000000010f4f10       0x38 common/built-in.o
                0x00000000010f4f10                version_string
 .rodata.vic_priority_table
                0x00000000010f4f48       0x40 common/built-in.o
 .rodata.vout_sets
                0x00000000010f4f88      0x810 drivers/built-in.o
 .rodata.widths.6781
                0x00000000010f5798       0x18 drivers/mmc/built-in.o
 .rodata.year_lengths.6525
                0x00000000010f57b0        0x8 fs/built-in.o
 .rodata.NetLoop
                0x00000000010f57b8       0x20 net/built-in.o
 .rodata.TftpSend
                0x00000000010f57d8        0x8 net/built-in.o
 .rodata.aml_nand_select_chip
                0x00000000010f57e0        0xc drivers/mtd/nand/amlogic_mtd/built-in.o
 .rodata.avb2_kpub_default_len
                0x00000000010f57ec        0x4 lib/built-in.o
                0x00000000010f57ec                avb2_kpub_default_len
 .rodata.avb_append_options
                0x00000000010f57f0        0xc lib/built-in.o
 .rodata.avb_vbmeta_image_verify
                0x00000000010f57fc        0x8 lib/built-in.o
 .rodata.binary_test
                0x00000000010f5804       0x10 common/built-in.o
 .rodata.composite_setup
                0x00000000010f5814       0x1c drivers/usb/gadget/built-in.o
 .rodata.cvbs_set_vdac
                0x00000000010f5830        0x4 drivers/built-in.o
 .rodata.ddr_read
                0x00000000010f5834       0x20 common/built-in.o
 .rodata.ddr_read4
                0x00000000010f5854       0x1c common/built-in.o
 .rodata.ddr_read_pattern4_cross_talk_n
                0x00000000010f5870       0xf8 common/built-in.o
 .rodata.ddr_read_pattern4_cross_talk_p
                0x00000000010f5968       0xf8 common/built-in.o
 .rodata.ddr_read_pattern4_no_cross_talk
                0x00000000010f5a60       0x7c common/built-in.o
 .rodata.ddr_write
                0x00000000010f5adc       0x20 common/built-in.o
 .rodata.ddr_write4
                0x00000000010f5afc       0x1c common/built-in.o
 .rodata.ddr_write_pattern4_cross_talk_n
                0x00000000010f5b18       0x7c common/built-in.o
 .rodata.ddr_write_pattern4_cross_talk_p
                0x00000000010f5b94       0x7c common/built-in.o
 .rodata.ddr_write_pattern4_no_cross_talk
                0x00000000010f5c10       0x7c common/built-in.o
 .rodata.dev_print
                0x00000000010f5c8c       0x14 disk/built-in.o
 .rodata.do_fdt
                0x00000000010f5ca0       0x14 common/built-in.o
 .rodata.do_gadget_setup
                0x00000000010f5cb4        0x4 drivers/built-in.o
 .rodata.do_get_rebootmode
                0x00000000010f5cb8       0x10 common/built-in.o
 .rodata.do_itest
                0x00000000010f5cc8        0x8 common/built-in.o
 .rodata.do_modify_memory
                0x00000000010f5cd0        0x8 drivers/built-in.o
 .rodata.do_nandboot
                0x00000000010f5cd8        0x4 common/built-in.o
 .rodata.do_rx_det
                0x00000000010f5cdc       0x10 common/built-in.o
 .rodata.do_store_dtb_ops
                0x00000000010f5cec        0x8 common/built-in.o
 .rodata.do_store_init
                0x00000000010f5cf4        0x8 common/built-in.o
 .rodata.do_store_key_ops
                0x00000000010f5cfc        0x8 common/built-in.o
 .rodata.do_test
                0x00000000010f5d04       0x10 common/built-in.o
 .rodata.do_write_trim
                0x00000000010f5d14       0x2c common/built-in.o
 .rodata.env_flags_validate
                0x00000000010f5d40        0x8 common/built-in.o
 .rodata.fdt_next_tag
                0x00000000010f5d48        0xc lib/built-in.o
 .rodata.file_fat_detectfs
                0x00000000010f5d54        0x8 fs/built-in.o
 .rodata.get_partition_info_extended
                0x00000000010f5d5c        0x8 disk/built-in.o
 .rodata.handle_ep0
                0x00000000010f5d64       0x10 drivers/usb/gadget/built-in.o
 .rodata.handle_ep0.isra.9
                0x00000000010f5d74       0x14 drivers/built-in.o
 .rodata.hdmi_edid_parsing
                0x00000000010f5d88       0x30 common/built-in.o
 .rodata.hdmitx_cntl_config.isra.5
                0x00000000010f5db8        0x4 arch/arm/cpu/armv8/built-in.o
 .rodata.hdmitx_set_clk_
                0x00000000010f5dbc       0x34 arch/arm/cpu/armv8/built-in.o
 .rodata.i2c_read
                0x00000000010f5df0        0x4 drivers/i2c/built-in.o
 .rodata.i2c_write
                0x00000000010f5df4        0x4 drivers/i2c/built-in.o
 .rodata.inflate
                0x00000000010f5df8       0x3c lib/built-in.o
 .rodata.key_manage_write
                0x00000000010f5e34        0x8 drivers/built-in.o
 .rodata.load_and_verify_vbmeta
                0x00000000010f5e3c       0x10 lib/built-in.o
 .rodata.m3_nand_options_confirm
                0x00000000010f5e4c       0x10 drivers/mtd/nand/amlogic_mtd/built-in.o
 .rodata.meson_pwm_blink_enable
                0x00000000010f5e5c        0x4 drivers/built-in.o
 .rodata.meson_pwm_set_blink_times
                0x00000000010f5e60        0x4 drivers/built-in.o
 .rodata.meson_pwm_set_config
                0x00000000010f5e64       0x10 drivers/built-in.o
 .rodata.meson_pwm_set_enable
                0x00000000010f5e74        0x4 drivers/built-in.o
 .rodata.meson_pwm_set_times
                0x00000000010f5e78        0x4 drivers/built-in.o
 .rodata.mmc_set_capacity
                0x00000000010f5e7c        0x8 drivers/mmc/built-in.o
 .rodata.mmc_startup
                0x00000000010f5e84       0x10 drivers/mmc/built-in.o
 .rodata.nand_scan_tail
                0x00000000010f5e94        0xc drivers/mtd/nand/built-in.o
 .rodata.optimus_download_img_data
                0x00000000010f5ea0       0x14 drivers/built-in.o
 .rodata.optimus_simg_to_media
                0x00000000010f5eb4       0x10 drivers/built-in.o
 .rodata.optimus_storage_init
                0x00000000010f5ec4        0x8 drivers/built-in.o
 .rodata.optimus_storage_read.constprop.10
                0x00000000010f5ecc        0x8 drivers/built-in.o
 .rodata.prepare_ring
                0x00000000010f5ed4        0x8 drivers/usb/host/built-in.o
 .rodata.print_part_header
                0x00000000010f5edc        0xc disk/built-in.o
 .rodata.r1p1_temp_trim
                0x00000000010f5ee8        0x8 common/built-in.o
 .rodata.record_transfer_result
                0x00000000010f5ef0       0x10 drivers/usb/host/built-in.o
 .rodata.rpu_decoder_push_data
                0x00000000010f5f00        0x8 drivers/built-in.o
 .rodata.set_phy_by_mode.isra.4
                0x00000000010f5f08        0x8 arch/arm/cpu/armv8/built-in.o
 .rodata.submit_control_msg
                0x00000000010f5f10        0x8 drivers/usb/host/built-in.o
 .rodata.ubi_attach
                0x00000000010f5f18       0x20 drivers/mtd/ubi/built-in.o
 .rodata.ubifs_add_to_cat
                0x00000000010f5f38        0x8 fs/built-in.o
 .rodata.ubifs_scan
                0x00000000010f5f40        0x8 fs/built-in.o
 .rodata.ubifs_unpack_bits
                0x00000000010f5f48        0x8 fs/built-in.o
 .rodata.usb_display_class_sub
                0x00000000010f5f50        0x8 common/built-in.o
 .rodata.vdac_data_config
                0x00000000010f5f58       0x10 drivers/built-in.o
 .rodata.vpu_probe
                0x00000000010f5f68       0x14 drivers/built-in.o
 .rodata.write_bbt
                0x00000000010f5f7c       0x10 drivers/mtd/nand/built-in.o
 .rodata.write_sparse_image
                0x00000000010f5f8c        0x8 common/built-in.o
 .rodata.xhci_setup_addressable_virt_dev
                0x00000000010f5f94       0x10 drivers/usb/host/built-in.o
 .rodata        0x00000000010f5fa4       0x58 board/amlogic/sm1_ac214_v1/built-in.o
 .rodata        0x00000000010f5ffc       0x3a drivers/usb/host/built-in.o
 .rodata        0x00000000010f6036        0xe net/built-in.o
 .rodata.str1.1
                0x00000000010f6044     0x216f arch/arm/cpu/armv8/built-in.o
                                       0x225e (size before relaxing)
 .rodata.str1.1
                0x00000000010f81b3      0x1eb arch/arm/lib/built-in.o
                                        0x26a (size before relaxing)
 .rodata.str1.1
                0x00000000010f839e      0x702 board/amlogic/sm1_ac214_v1/built-in.o
                                        0x726 (size before relaxing)
 .rodata.str1.1
                0x00000000010f8aa0    0x17b51 common/built-in.o
                                      0x18f73 (size before relaxing)
 .rodata.str1.1
                0x00000000011105f1      0x9b9 disk/built-in.o
                                        0xa2e (size before relaxing)
 .rodata.str1.1
                0x0000000001110faa     0x95f6 drivers/built-in.o
                                       0xa498 (size before relaxing)
 .rodata.str1.1
                0x000000000111a5a0       0x73 drivers/gpio/built-in.o
                                         0x99 (size before relaxing)
 .rodata.str1.1
                0x000000000111a613      0x49f drivers/i2c/built-in.o
                                        0x4c7 (size before relaxing)
 .rodata.str1.1
                0x000000000111aab2     0x1109 drivers/mmc/built-in.o
                                       0x1231 (size before relaxing)
 .rodata.str1.1
                0x000000000111bbbb      0x252 drivers/mtd/built-in.o
                                        0x274 (size before relaxing)
 .rodata.str1.1
                0x000000000111be0d      0xf4a drivers/mtd/nand/built-in.o
                                        0xfd1 (size before relaxing)
 .rodata.str1.1
                0x000000000111cd57     0x1f09 drivers/mtd/nand/amlogic_mtd/built-in.o
                                       0x2075 (size before relaxing)
 .rodata.str1.1
                0x000000000111ec60      0x528 drivers/mtd/spi/built-in.o
                                        0x54e (size before relaxing)
 .rodata.str1.1
                0x000000000111f188      0x8d8 drivers/mtd/ubi/built-in.o
                                        0x912 (size before relaxing)
 .rodata.str1.1
                0x000000000111fa60      0x385 drivers/net/built-in.o
                                        0x38b (size before relaxing)
 .rodata.str1.1
                0x000000000111fde5       0xfb drivers/net/phy/built-in.o
                                        0x104 (size before relaxing)
 .rodata.str1.1
                0x000000000111fee0       0x57 drivers/serial/built-in.o
                                         0x92 (size before relaxing)
 .rodata.str1.1
                0x000000000111ff37      0x269 drivers/spi/built-in.o
                                        0x287 (size before relaxing)
 .rodata.str1.1
                0x00000000011201a0     0x11b1 drivers/usb/gadget/built-in.o
                                       0x13dd (size before relaxing)
 .rodata.str1.1
                0x0000000001121351      0x559 drivers/usb/host/built-in.o
                                        0x5bf (size before relaxing)
 .rodata.str1.1
                0x00000000011218aa      0x95d fs/built-in.o
                                        0xaa0 (size before relaxing)
 .rodata.str1.1
                0x0000000001122207     0x2113 lib/built-in.o
                                       0x250b (size before relaxing)
 .rodata.str1.1
                0x000000000112431a      0x749 net/built-in.o
                                        0x84b (size before relaxing)

.hash           0x0000000001124a68       0x1c
 .hash          0x0000000001124a68       0x1c arch/arm/cpu/armv8/start.o
                0x0000000001124a88                . = ALIGN (0x8)

.data           0x0000000001124a88    0x1eda2
 *(.data*)
 .data.clkrate  0x0000000001124a88       0x10 arch/arm/cpu/armv8/built-in.o
                0x0000000001124a88                clkrate
 .data.clk81_freq.5857
                0x0000000001124a98        0x4 arch/arm/cpu/armv8/built-in.o
 *fill*         0x0000000001124a9c        0x4 
 .data.clk_table
                0x0000000001124aa0      0x400 arch/arm/cpu/armv8/built-in.o
                0x0000000001124aa0                clk_table
 .data.pin_to_gpio
                0x0000000001124ea0      0x130 arch/arm/cpu/armv8/built-in.o
 .data.mesontxhd_banks
                0x0000000001124fd0      0x1c0 arch/arm/cpu/armv8/built-in.o
 .data.setting_enc_clk_val_24
                0x0000000001125190      0x9d8 arch/arm/cpu/armv8/built-in.o
 .data.setting_enc_clk_val_30
                0x0000000001125b68      0x3a0 arch/arm/cpu/armv8/built-in.o
 .data.setting_enc_clk_val_36
                0x0000000001125f08      0x3a0 arch/arm/cpu/armv8/built-in.o
 .data.g_usb_config_GXL_skt
                0x00000000011262a8       0x30 board/amlogic/sm1_ac214_v1/built-in.o
                0x00000000011262a8                g_usb_config_GXL_skt
 .data.normal_partition_info
                0x00000000011262d8       0xf0 board/amlogic/sm1_ac214_v1/built-in.o
 .data.spifc_cs_gpios
                0x00000000011263c8        0x8 board/amlogic/sm1_ac214_v1/built-in.o
 .data.g_aml_i2c_plat
                0x00000000011263d0       0xb8 board/amlogic/sm1_ac214_v1/built-in.o
                0x00000000011263d0                g_aml_i2c_plat
 .data.hash_algo
                0x0000000001126488       0x70 common/built-in.o
 .data.reserved_list
                0x00000000011264f8      0x108 common/built-in.o
 .data.init_sequence_f
                0x0000000001126600      0x108 common/built-in.o
 .data.init_sequence_r
                0x0000000001126708       0xd8 common/built-in.o
                0x0000000001126708                init_sequence_r
 .data.bootm_help_text
                0x00000000011267e0      0x4d0 common/built-in.o
 .data.cmd_bootm_sub
                0x0000000001126cb0      0x168 common/built-in.o
 .data.booti_help_text
                0x0000000001126e18      0x1c0 common/built-in.o
 .data.first_call
                0x0000000001126fd8        0x8 common/built-in.o
 .data.env_name_spec
                0x0000000001126fe0        0x8 common/built-in.o
                0x0000000001126fe0                env_name_spec
 .data.cmd_bmp_sub
                0x0000000001126fe8       0x78 common/built-in.o
 .data.cmd_saradc_sub
                0x0000000001127060       0xc8 common/built-in.o
 .data.cmd_saradc_12bit_sub
                0x0000000001127128       0xa0 common/built-in.o
 .data.current_channel
                0x00000000011271c8        0x4 common/built-in.o
 *fill*         0x00000000011271cc        0x4 
 .data.fdt_help_text
                0x00000000011271d0      0x628 common/built-in.o
 .data.root.5861
                0x00000000011277f8        0x8 common/built-in.o
 .data.tabs.5946
                0x0000000001127800       0x28 common/built-in.o
 .data.i2c_help_text
                0x0000000001127828      0x2d8 common/built-in.o
 .data.cmd_i2c_sub
                0x0000000001127b00      0x1b8 common/built-in.o
 .data.i2c_dp_last_length
                0x0000000001127cb8        0x4 common/built-in.o
 .data.dp_last_length
                0x0000000001127cbc        0x4 common/built-in.o
 .data.curr_device
                0x0000000001127cc0        0x4 common/built-in.o
 *fill*         0x0000000001127cc4        0x4 
 .data.cmd_mmc  0x0000000001127cc8      0x230 common/built-in.o
 .data.disk_partitions
                0x0000000001127ef8       0x10 common/built-in.o
 .data.cmd_emmc
                0x0000000001127f08       0xc8 common/built-in.o
 .data.cmd_amlmmc
                0x0000000001127fd0      0x2f8 common/built-in.o
 .data.cmd_store_sub
                0x00000000011282c8      0x280 common/built-in.o
 .data._usbDownPartImgType
                0x0000000001128548        0x8 common/built-in.o
                0x0000000001128548                _usbDownPartImgType
 .data.cmd_imgread_sub
                0x0000000001128550       0xa0 common/built-in.o
 .data.mtdparts_help_text
                0x00000000011285f0      0x4d8 common/built-in.o
 .data.nand_help_text
                0x0000000001128ac8      0x410 common/built-in.o
 .data.speed    0x0000000001128ed8        0x4 common/built-in.o
 .data.wordlen  0x0000000001128edc        0x4 common/built-in.o
 .data.cmd_dtimg_sub
                0x0000000001128ee0       0x78 common/built-in.o
 .data.curr_dev
                0x0000000001128f58        0x4 common/built-in.o
 .data.usb_stor_curr_dev
                0x0000000001128f5c        0x4 common/built-in.o
 .data.cmd_vpu_sub
                0x0000000001128f60       0xc8 common/built-in.o
 .data.global_ddr_clk
                0x0000000001129028        0x4 common/built-in.o
                0x0000000001129028                global_ddr_clk
 *fill*         0x000000000112902c        0x4 
 .data.__ddr_base_address_table
                0x0000000001129030      0x240 common/built-in.o
                0x0000000001129030                __ddr_base_address_table
 .data.CMD_VER  0x0000000001129270        0x8 common/built-in.o
                0x0000000001129270                CMD_VER
 .data.sha256_padding
                0x0000000001129278       0x40 common/built-in.o
 .data.ddr_set_t_p_arrary
                0x00000000011292b8        0x8 common/built-in.o
                0x00000000011292b8                ddr_set_t_p_arrary
 .data.efuse_help_text
                0x00000000011292c0      0x1a8 common/built-in.o
 .data.query_text
                0x0000000001129468       0xf0 common/built-in.o
 .data.temp_trim_help_text
                0x0000000001129558      0x3c0 common/built-in.o
 .data.saradc_vref
                0x0000000001129918        0x4 common/built-in.o
                0x0000000001129918                saradc_vref
 .data.temp_base
                0x000000000112991c        0x4 common/built-in.o
                0x000000000112991c                temp_base
 .data.ringmsr_help_text
                0x0000000001129920       0xe0 common/built-in.o
 .data.env_help_text
                0x0000000001129a00      0x1f8 common/built-in.o
 .data.env_id   0x0000000001129bf8        0x4 common/built-in.o
 *fill*         0x0000000001129bfc        0x4 
 .data.cmd_env_sub
                0x0000000001129c00      0x140 common/built-in.o
 .data.env_htab
                0x0000000001129d40       0x18 common/built-in.o
                0x0000000001129d40                env_htab
 .data.av_      0x0000000001129d58      0x810 common/built-in.o
 .data.sbrk_base
                0x000000000112a568        0x8 common/built-in.o
 .data.trim_threshold
                0x000000000112a570        0x8 common/built-in.o
 .data.load_addr
                0x000000000112a578        0x8 common/built-in.o
                0x000000000112a578                load_addr
 .data.stdio_names
                0x000000000112a580       0x18 common/built-in.o
                0x000000000112a580                stdio_names
 .data.cmd_vpp_sub
                0x000000000112a598       0x50 common/built-in.o
 .data.fmt_para_vesa_1280x800p60_8x5
                0x000000000112a5e8       0x78 common/built-in.o
 .data.fmt_para_1920x1080i60_16x9
                0x000000000112a660       0x78 common/built-in.o
 .data.fmt_para_1280x720p50_16x9
                0x000000000112a6d8       0x78 common/built-in.o
 .data.fmt_para_3840x2160p30_16x9
                0x000000000112a750       0x78 common/built-in.o
 .data.fmt_para_1920x1080p60_16x9
                0x000000000112a7c8       0x78 common/built-in.o
 .data.fmt_para_720x480i60_16x9
                0x000000000112a840       0x78 common/built-in.o
 .data.fmt_para_vesa_854x480p60_427x240
                0x000000000112a8b8       0x78 common/built-in.o
 .data.fmt_para_vesa_1024x768p60_4x3
                0x000000000112a930       0x78 common/built-in.o
 .data.fmt_para_vesa_1280x960p60_4x3
                0x000000000112a9a8       0x78 common/built-in.o
 .data.fmt_para_1280x720p60_16x9
                0x000000000112aa20       0x78 common/built-in.o
 .data.fmt_para_1920x1080p50_16x9
                0x000000000112aa98       0x78 common/built-in.o
 .data.fmt_para_vesa_2160x1200p90_9x5
                0x000000000112ab10       0x78 common/built-in.o
 .data.fmt_para_1920x1080p24_16x9
                0x000000000112ab88       0x78 common/built-in.o
 .data.fmt_para_720x480p120_16x9
                0x000000000112ac00       0x78 common/built-in.o
 .data.fmt_para_non_hdmi_fmt
                0x000000000112ac78       0x78 common/built-in.o
 .data.fmt_para_4096x2160p25_256x135
                0x000000000112acf0       0x78 common/built-in.o
 .data.fmt_para_720x576i50_16x9
                0x000000000112ad68       0x78 common/built-in.o
 .data.fmt_para_vesa_1440x2560p60_9x16
                0x000000000112ade0       0x78 common/built-in.o
 .data.fmt_para_vesa_1400x1050p60_4x3
                0x000000000112ae58       0x78 common/built-in.o
 .data.fmt_para_vesa_800x480p60_4x3
                0x000000000112aed0       0x78 common/built-in.o
 .data.fmt_para_vesa_1600x900p60_16x9
                0x000000000112af48       0x78 common/built-in.o
 .data.fmt_para_vesa_1440x2560p70_9x16
                0x000000000112afc0       0x78 common/built-in.o
 .data.fmt_para_1920x1080p25_16x9
                0x000000000112b038       0x78 common/built-in.o
 .data.fmt_para_vesa_2560x1600p60_8x5
                0x000000000112b0b0       0x78 common/built-in.o
 .data.fmt_para_vesa_1280x768p60_5x3
                0x000000000112b128       0x78 common/built-in.o
 .data.fmt_para_vesa_1360x768p60_16x9
                0x000000000112b1a0       0x78 common/built-in.o
 .data.fmt_para_3840x2160p60_y420_16x9
                0x000000000112b218       0x78 common/built-in.o
 .data.fmt_para_1920x1080i50_16x9
                0x000000000112b290       0x78 common/built-in.o
 .data.fmt_para_vesa_1920x1200p60_8x5
                0x000000000112b308       0x78 common/built-in.o
 .data.fmt_para_3840x2160p50_16x9
                0x000000000112b380       0x78 common/built-in.o
 .data.fmt_para_vesa_1366x768p60_16x9
                0x000000000112b3f8       0x78 common/built-in.o
 .data.fmt_para_1920x1080p120_16x9
                0x000000000112b470       0x78 common/built-in.o
 .data.fmt_para_4096x2160p50_y420_256x135
                0x000000000112b4e8       0x78 common/built-in.o
 .data.fmt_para_4096x2160p50_256x135
                0x000000000112b560       0x78 common/built-in.o
 .data.fmt_para_3840x2160p24_16x9
                0x000000000112b5d8       0x78 common/built-in.o
 .data.fmt_para_1920x1080p100_16x9
                0x000000000112b650       0x78 common/built-in.o
 .data.fmt_para_3840x2160p50_y420_16x9
                0x000000000112b6c8       0x78 common/built-in.o
 .data.fmt_para_1920x1080i100_16x9
                0x000000000112b740       0x78 common/built-in.o
 .data.fmt_para_4096x2160p60_y420_256x135
                0x000000000112b7b8       0x78 common/built-in.o
 .data.fmt_para_4096x2160p60_256x135
                0x000000000112b830       0x78 common/built-in.o
 .data.fmt_para_3840x2160p60_16x9
                0x000000000112b8a8       0x78 common/built-in.o
 .data.fmt_para_1280x720p100_16x9
                0x000000000112b920       0x78 common/built-in.o
 .data.fmt_para_720x480p60_16x9
                0x000000000112b998       0x78 common/built-in.o
 .data.fmt_para_vesa_800x600p60_4x3
                0x000000000112ba10       0x78 common/built-in.o
 .data.fmt_para_vesa_640x480p60_4x3
                0x000000000112ba88       0x78 common/built-in.o
 .data.fmt_para_4096x2160p30_256x135
                0x000000000112bb00       0x78 common/built-in.o
 .data.fmt_para_4096x2160p24_256x135
                0x000000000112bb78       0x78 common/built-in.o
 .data.fmt_para_1920x1080i120_16x9
                0x000000000112bbf0       0x78 common/built-in.o
 .data.fmt_para_3840x2160p25_16x9
                0x000000000112bc68       0x78 common/built-in.o
 .data.fmt_para_vesa_852x480p60_213x120
                0x000000000112bce0       0x78 common/built-in.o
 .data.fmt_para_720x576p50_16x9
                0x000000000112bd58       0x78 common/built-in.o
 .data.fmt_para_720x576p100_16x9
                0x000000000112bdd0       0x78 common/built-in.o
 .data.fmt_para_1280x720p120_16x9
                0x000000000112be48       0x78 common/built-in.o
 .data.fmt_para_vesa_1024x600p60_17x10
                0x000000000112bec0       0x78 common/built-in.o
 .data.fmt_para_1920x1080p30_16x9
                0x000000000112bf38       0x78 common/built-in.o
 .data.fmt_para_vesa_1152x864p75_4x3
                0x000000000112bfb0       0x78 common/built-in.o
 .data.fmt_para_vesa_1680x1050p60_8x5
                0x000000000112c028       0x78 common/built-in.o
 .data.fmt_para_vesa_1280x1024p60_5x4
                0x000000000112c0a0       0x78 common/built-in.o
 .data.fmt_para_vesa_1440x900p60_8x5
                0x000000000112c118       0x78 common/built-in.o
 .data.fmt_para_vesa_1600x1200p60_4x3
                0x000000000112c190       0x78 common/built-in.o
 .data.cmd_hdmi_sub
                0x000000000112c208      0x280 common/built-in.o
 .data.cmd_osd_sub
                0x000000000112c488      0x190 common/built-in.o
 .data.cmd_img_osd_sub
                0x000000000112c618      0x140 common/built-in.o
 .data.cmd_ui_sub
                0x000000000112c758      0x140 common/built-in.o
 .data.pic_surface
                0x000000000112c898       0x40 common/built-in.o
                0x000000000112c898                pic_surface
 .data.lib_font
                0x000000000112c8d8       0x10 common/built-in.o
                0x000000000112c8d8                lib_font
 .data.cmd_cvbs_sub
                0x000000000112c8e8       0xa0 common/built-in.o
 .data.cmd_vout2_sub
                0x000000000112c988       0xa0 common/built-in.o
 .data.cmd_vout_sub
                0x000000000112ca28       0x78 common/built-in.o
 .data.cmd_rsvmem_sub
                0x000000000112caa0       0x50 common/built-in.o
 .data.cmd_avb_sub
                0x000000000112caf0       0x28 common/built-in.o
 .data.system_guid
                0x000000000112cb18       0x10 disk/built-in.o
 .data.vpu_reset_txhd
                0x000000000112cb28       0x30 drivers/built-in.o
 .data.vpu_hdmi_iso_pre_gxb
                0x000000000112cb58       0x20 drivers/built-in.o
 .data.vpu_mem_pd_g12b
                0x000000000112cb78       0x70 drivers/built-in.o
 .data.vpu_mem_pd_tm2
                0x000000000112cbe8       0x60 drivers/built-in.o
 .data.vpu_data_gxb
                0x000000000112cc48       0x58 drivers/built-in.o
 .data.vpu_hdmi_iso_gxb
                0x000000000112cca0       0x20 drivers/built-in.o
 .data.vpu_data_txhd
                0x000000000112ccc0       0x58 drivers/built-in.o
 .data.vpu_data_txlx
                0x000000000112cd18       0x58 drivers/built-in.o
 .data.vpu_conf
                0x000000000112cd70       0x28 drivers/built-in.o
                0x000000000112cd70                vpu_conf
 .data.fclk_div_table_gxb
                0x000000000112cd98       0x40 drivers/built-in.o
 .data.vpu_clk_table
                0x000000000112cdd8       0x78 drivers/built-in.o
 .data.vpu_data_gxl
                0x000000000112ce50       0x58 drivers/built-in.o
 .data.vpu_data_gxm
                0x000000000112cea8       0x58 drivers/built-in.o
 .data.vpu_data_sm1
                0x000000000112cf00       0x58 drivers/built-in.o
 .data.vpu_hdmi_iso_sm1
                0x000000000112cf58       0x20 drivers/built-in.o
 .data.vpu_mem_pd_g12a
                0x000000000112cf78       0x60 drivers/built-in.o
 .data.vpu_data_g12a
                0x000000000112cfd8       0x58 drivers/built-in.o
 .data.vpu_mem_pd_tl1
                0x000000000112d030       0x60 drivers/built-in.o
 .data.vpu_module_init_txlx
                0x000000000112d090       0x90 drivers/built-in.o
 .data.vpu_module_init_g12a
                0x000000000112d120       0x40 drivers/built-in.o
 .data.vpu_module_init_tm2
                0x000000000112d160       0x60 drivers/built-in.o
 .data.vpu_mem_pd_txhd
                0x000000000112d1c0       0x40 drivers/built-in.o
 .data.vpu_data_axg
                0x000000000112d200       0x58 drivers/built-in.o
 .data.fclk_div_table_g12a
                0x000000000112d258       0x40 drivers/built-in.o
 .data.vpu_data_tl1
                0x000000000112d298       0x58 drivers/built-in.o
 .data.vpu_mem_pd_gxb
                0x000000000112d2f0       0x30 drivers/built-in.o
 .data.vpu_data_g12b
                0x000000000112d320       0x58 drivers/built-in.o
 .data.vpu_reset_tl1
                0x000000000112d378       0x30 drivers/built-in.o
 .data.vpu_data_gxtvbb
                0x000000000112d3a8       0x58 drivers/built-in.o
 .data.vpu_reset_gx
                0x000000000112d400       0x30 drivers/built-in.o
 .data.vpu_data_tm2
                0x000000000112d430       0x58 drivers/built-in.o
 .data.vpu_mem_pd_axg
                0x000000000112d488       0x20 drivers/built-in.o
 .data.vpu_data_txl
                0x000000000112d4a8       0x58 drivers/built-in.o
 .data.vpu_module_init_gxm
                0x000000000112d500       0x40 drivers/built-in.o
 .data.video_oetf_b_mapping
                0x000000000112d540      0x488 drivers/built-in.o
 .data.oetf_41_linear_mapping
                0x000000000112d9c8       0xa8 drivers/built-in.o
 .data.video_eotf_b_mapping
                0x000000000112da70       0x88 drivers/built-in.o
 .data.osd_oetf_r_mapping
                0x000000000112daf8       0xa8 drivers/built-in.o
 .data.osd_oetf_g_mapping
                0x000000000112dba0       0xa8 drivers/built-in.o
 .data.osd_eotf_r_mapping
                0x000000000112dc48       0x88 drivers/built-in.o
 .data.osd_eotf_g_mapping
                0x000000000112dcd0       0x88 drivers/built-in.o
 .data.video_eotf_coeff
                0x000000000112dd58       0x28 drivers/built-in.o
 .data.osd_oetf_b_mapping
                0x000000000112dd80       0xa8 drivers/built-in.o
 .data.osd_eotf_b_mapping
                0x000000000112de28       0x88 drivers/built-in.o
 .data.RGB709_to_YUV709l_coeff
                0x000000000112deb0       0xc0 drivers/built-in.o
 .data.post_matrix_coeff
                0x000000000112df70       0x60 drivers/built-in.o
 .data.vd1_matrix_coeff
                0x000000000112dfd0       0x60 drivers/built-in.o
 .data.eotf_bypass_coeff
                0x000000000112e030       0x28 drivers/built-in.o
 .data.osd_eotf_coeff
                0x000000000112e058       0x28 drivers/built-in.o
 .data.vd2_matrix_coeff
                0x000000000112e080       0x60 drivers/built-in.o
 .data.xvycc_matrix_coeff
                0x000000000112e0e0       0x60 drivers/built-in.o
 .data.osd_matrix_coeff
                0x000000000112e140       0x60 drivers/built-in.o
 .data.video_oetf_r_mapping
                0x000000000112e1a0      0x488 drivers/built-in.o
 .data.video_oetf_g_mapping
                0x000000000112e628      0x488 drivers/built-in.o
 .data.eotf_33_linear_mapping
                0x000000000112eab0       0x88 drivers/built-in.o
 .data.video_eotf_r_mapping
                0x000000000112eb38       0x88 drivers/built-in.o
 .data.video_eotf_g_mapping
                0x000000000112ebc0       0x88 drivers/built-in.o
 .data.rgb2yuvpos
                0x000000000112ec48       0x10 drivers/built-in.o
                0x000000000112ec48                rgb2yuvpos
 .data.ncl_2020_709
                0x000000000112ec58       0x28 drivers/built-in.o
                0x000000000112ec58                ncl_2020_709
 .data.oe_y_lut_hlg
                0x000000000112ec80      0x258 drivers/built-in.o
                0x000000000112ec80                oe_y_lut_hlg
 .data.oo_y_lut_sdr_hlg
                0x000000000112eed8      0x258 drivers/built-in.o
                0x000000000112eed8                oo_y_lut_sdr_hlg
 .data.cgain_lut_bypass
                0x000000000112f130      0x108 drivers/built-in.o
                0x000000000112f130                cgain_lut_bypass
 .data.cgain_lut1
                0x000000000112f238      0x108 drivers/built-in.o
                0x000000000112f238                cgain_lut1
 .data.oo_y_lut_hlg_hdr
                0x000000000112f340      0x258 drivers/built-in.o
                0x000000000112f340                oo_y_lut_hlg_hdr
 .data.oe_y_lut_hdr
                0x000000000112f598      0x258 drivers/built-in.o
                0x000000000112f598                oe_y_lut_hdr
 .data.ncl_709_2020
                0x000000000112f7f0       0x28 drivers/built-in.o
                0x000000000112f7f0                ncl_709_2020
 .data.eo_y_lut_hdr
                0x000000000112f818      0x240 drivers/built-in.o
                0x000000000112f818                eo_y_lut_hdr
 .data.rgb2ycbcr_709
                0x000000000112fa58       0x40 drivers/built-in.o
                0x000000000112fa58                rgb2ycbcr_709
 .data.ycbcr2rgb_709
                0x000000000112fa98       0x40 drivers/built-in.o
                0x000000000112fa98                ycbcr2rgb_709
 .data.eo_y_lut_hlg
                0x000000000112fad8      0x240 drivers/built-in.o
                0x000000000112fad8                eo_y_lut_hlg
 .data.oo_y_lut_sdr_hdr
                0x000000000112fd18      0x258 drivers/built-in.o
                0x000000000112fd18                oo_y_lut_sdr_hdr
 .data.oo_y_lut_hdr_sdr
                0x000000000112ff70      0x258 drivers/built-in.o
                0x000000000112ff70                oo_y_lut_hdr_sdr
 .data.oo_y_lut_bypass
                0x00000000011301c8      0x258 drivers/built-in.o
                0x00000000011301c8                oo_y_lut_bypass
 .data.eo_y_lut_bypass
                0x0000000001130420      0x240 drivers/built-in.o
                0x0000000001130420                eo_y_lut_bypass
 .data.ycbcr2rgb_ncl2020
                0x0000000001130660       0x40 drivers/built-in.o
                0x0000000001130660                ycbcr2rgb_ncl2020
 .data.rgb2ycbcr_ncl2020
                0x00000000011306a0       0x40 drivers/built-in.o
                0x00000000011306a0                rgb2ycbcr_ncl2020
 .data.oo_y_lut_hlg_sdr
                0x00000000011306e0      0x258 drivers/built-in.o
                0x00000000011306e0                oo_y_lut_hlg_sdr
 .data.oe_y_lut_sdr
                0x0000000001130938      0x258 drivers/built-in.o
                0x0000000001130938                oe_y_lut_sdr
 .data.eo_y_lut_sdr
                0x0000000001130b90      0x240 drivers/built-in.o
                0x0000000001130b90                eo_y_lut_sdr
 .data.yuv2rgbpre
                0x0000000001130dd0       0x10 drivers/built-in.o
                0x0000000001130dd0                yuv2rgbpre
 .data._SecukeyOps
                0x0000000001130de0       0x40 drivers/built-in.o
 .data._efuseKeyOps
                0x0000000001130e20       0x40 drivers/built-in.o
 .data.cmd_keyman_sub
                0x0000000001130e60       0xc8 drivers/built-in.o
 .data.unify_key_info
                0x0000000001130f28       0x10 drivers/built-in.o
 .data._is_first_setup_out_in_cmd.7998
                0x0000000001130f38        0x4 drivers/built-in.o
 *fill*         0x0000000001130f3c        0x4 
 .data._bufManager
                0x0000000001130f40       0x40 drivers/built-in.o
 .data._hFile   0x0000000001130f80        0x4 drivers/built-in.o
 .data.cur_part
                0x0000000001130f84        0x4 drivers/built-in.o
 .data.g_sdcBurnPara
                0x0000000001130f88      0x538 drivers/built-in.o
                0x0000000001130f88                g_sdcBurnPara
 .data._amlHdcp22RxKeys
                0x00000000011314c0       0xc0 drivers/built-in.o
 .data.bmpsLoadAddr.6344
                0x0000000001131580        0x8 drivers/built-in.o
 .data.osd_filter_coefs_3point_bspline
                0x0000000001131588       0x88 drivers/built-in.o
 .data.use_h_filter_mode
                0x0000000001131610        0x4 drivers/built-in.o
 *fill*         0x0000000001131614        0x4 
 .data.osd_filter_coefs_2point_binilear
                0x0000000001131618       0x88 drivers/built-in.o
 .data.osd_filter_coefs_3point_triangle_sharp
                0x00000000011316a0       0x88 drivers/built-in.o
 .data.osd_filter_coefs_bilinear
                0x0000000001131728       0x88 drivers/built-in.o
 .data.osd_filter_coefs_bicubic_sharp
                0x00000000011317b0       0x88 drivers/built-in.o
 .data.osd_filter_coefs_4point_triangle
                0x0000000001131838       0x88 drivers/built-in.o
 .data.use_v_filter_mode
                0x00000000011318c0        0x4 drivers/built-in.o
 *fill*         0x00000000011318c4        0x4 
 .data.osd_filter_coefs_3point_triangle
                0x00000000011318c8       0x88 drivers/built-in.o
 .data.osd_filter_coefs_bicubic
                0x0000000001131950       0x88 drivers/built-in.o
 .data.vpp_filter_coefs_4point_bspline
                0x00000000011319d8       0x88 drivers/built-in.o
 .data.dolby_vision_mode
                0x0000000001131a60        0x4 drivers/built-in.o
 .data.vinfo_width
                0x0000000001131a64        0x4 drivers/built-in.o
 .data.bypass_coeff
                0x0000000001131a68       0x60 drivers/built-in.o
 .data.vinfo_height
                0x0000000001131ac8        0x4 drivers/built-in.o
 .data.vinfo_duration_num
                0x0000000001131acc        0x4 drivers/built-in.o
 .data.vinfo_field_height
                0x0000000001131ad0        0x4 drivers/built-in.o
 *fill*         0x0000000001131ad4        0x4 
 .data.dvll_RGB_to_YUV709l_coeff
                0x0000000001131ad8       0x60 drivers/built-in.o
 .data.dv_sign  0x0000000001131b38      0x200 drivers/built-in.o
 .data.vout_viu1_mux
                0x0000000001131d38        0x4 drivers/built-in.o
 .data.vout_viu2_mux
                0x0000000001131d3c        0x4 drivers/built-in.o
 .data.g_vmode  0x0000000001131d40        0x4 drivers/built-in.o
 *fill*         0x0000000001131d44        0x4 
 .data.vout_info
                0x0000000001131d48       0x38 drivers/built-in.o
 .data.vdac_data_sm1
                0x0000000001131d80       0x10 drivers/built-in.o
 .data.vdac_data_g12a
                0x0000000001131d90       0x10 drivers/built-in.o
 .data.vdac_data_gxl
                0x0000000001131da0       0x10 drivers/built-in.o
 .data.vdac_data_tl1
                0x0000000001131db0       0x10 drivers/built-in.o
 .data.cvbs_mode
                0x0000000001131dc0        0x4 drivers/built-in.o
                0x0000000001131dc0                cvbs_mode
 *fill*         0x0000000001131dc4        0x4 
 .data.cvbs_clk_regs
                0x0000000001131dc8       0x38 drivers/built-in.o
                0x0000000001131dc8                cvbs_clk_regs
 .data.vdac_data_g12b
                0x0000000001131e00       0x10 drivers/built-in.o
 .data.vdac_data_txl
                0x0000000001131e10       0x10 drivers/built-in.o
 .data.vdac_data_default
                0x0000000001131e20       0x10 drivers/built-in.o
 .data.gr_current_a
                0x0000000001131e30        0x1 drivers/built-in.o
 .data.gr_current_b
                0x0000000001131e31        0x1 drivers/built-in.o
 .data.gr_current_g
                0x0000000001131e32        0x1 drivers/built-in.o
 *fill*         0x0000000001131e33        0x5 
 .data.font     0x0000000001131e38      0xbb0 drivers/built-in.o
                0x0000000001131e38                font
 .data.gr_current_r
                0x00000000011329e8        0x1 drivers/built-in.o
 *fill*         0x00000000011329e9        0x7 
 .data.my_backend
                0x00000000011329f0       0x20 drivers/built-in.o
 .data.storagekey_info
                0x0000000001132a10       0x10 drivers/built-in.o
 .data.regs_data
                0x0000000001132a20       0x60 drivers/built-in.o
                0x0000000001132a20                regs_data
 .data.g_aml_i2c_m1_ops
                0x0000000001132a80       0x28 drivers/i2c/built-in.o
 .data.cur_dev_num
                0x0000000001132aa8        0x4 drivers/mmc/built-in.o
 *fill*         0x0000000001132aac        0x4 
 .data.aml_pattern_table
                0x0000000001132ab0       0x40 drivers/mmc/built-in.o
                0x0000000001132ab0                aml_pattern_table
 .data.ext_csd_w
                0x0000000001132af0       0x30 drivers/mmc/built-in.o
                0x0000000001132af0                ext_csd_w
 .data.sd_emmc_base_addr
                0x0000000001132b20       0x18 drivers/mmc/built-in.o
                0x0000000001132b20                sd_emmc_base_addr
 .data.aml_sd_emmc_ports
                0x0000000001132b38      0x198 drivers/mmc/built-in.o
 .data.device_boot_flag
                0x0000000001132cd0        0x4 drivers/mmc/built-in.o
                0x0000000001132cd0                device_boot_flag
 *fill*         0x0000000001132cd4        0x4 
 .data.virtual_partition_table
                0x0000000001132cd8      0x140 drivers/mmc/built-in.o
                0x0000000001132cd8                virtual_partition_table
 .data.emmc_partition_table
                0x0000000001132e18       0xa0 drivers/mmc/built-in.o
                0x0000000001132e18                emmc_partition_table
 .data.mtd_partitions
                0x0000000001132eb8       0x10 drivers/mtd/built-in.o
 .data.bbt_mirror_descr
                0x0000000001132ec8       0x28 drivers/mtd/nand/built-in.o
 .data.mirror_pattern
                0x0000000001132ef0        0x8 drivers/mtd/nand/built-in.o
 .data.bbt_main_no_oob_descr
                0x0000000001132ef8       0x28 drivers/mtd/nand/built-in.o
 .data.bbt_mirror_no_oob_descr
                0x0000000001132f20       0x28 drivers/mtd/nand/built-in.o
 .data.bbt_pattern
                0x0000000001132f48        0x8 drivers/mtd/nand/built-in.o
 .data.scan_ff_pattern
                0x0000000001132f50        0x8 drivers/mtd/nand/built-in.o
 .data.bbt_main_descr
                0x0000000001132f58       0x28 drivers/mtd/nand/built-in.o
 .data.spi_nand_flash_ids
                0x0000000001132f80      0x2f8 drivers/mtd/nand/built-in.o
                0x0000000001132f80                spi_nand_flash_ids
 .data.nand_manuf_ids
                0x0000000001133278      0x100 drivers/mtd/nand/built-in.o
                0x0000000001133278                nand_manuf_ids
 .data.nand_oob_8
                0x0000000001133378     0x1610 drivers/mtd/nand/built-in.o
 .data.nand_oob_128
                0x0000000001134988     0x1610 drivers/mtd/nand/built-in.o
 .data.nand_oob_16
                0x0000000001135f98     0x1610 drivers/mtd/nand/built-in.o
 .data.nand_oob_64
                0x00000000011375a8     0x1610 drivers/mtd/nand/built-in.o
 .data.aml_nand_oob_1664
                0x0000000001138bb8      0xb08 drivers/mtd/nand/amlogic_mtd/built-in.o
 .data.aml_nand_oob_218
                0x00000000011396c0      0xb08 drivers/mtd/nand/amlogic_mtd/built-in.o
 .data.aml_nand_oob_744
                0x000000000113a1c8      0xb08 drivers/mtd/nand/amlogic_mtd/built-in.o
 .data.aml_nand_uboot_oob
                0x000000000113acd0      0xb08 drivers/mtd/nand/amlogic_mtd/built-in.o
 .data.aml_nand_oob_376
                0x000000000113b7d8      0xb08 drivers/mtd/nand/amlogic_mtd/built-in.o
 .data.aml_nand_oob_436
                0x000000000113c2e0      0xb08 drivers/mtd/nand/amlogic_mtd/built-in.o
 .data.aml_nand_oob_256
                0x000000000113cde8      0xb08 drivers/mtd/nand/amlogic_mtd/built-in.o
 .data.aml_nand_oob_64
                0x000000000113d8f0      0xb08 drivers/mtd/nand/amlogic_mtd/built-in.o
 .data.aml_nand_oob_448
                0x000000000113e3f8      0xb08 drivers/mtd/nand/amlogic_mtd/built-in.o
 .data.aml_nand_oob_1280
                0x000000000113ef00      0xb08 drivers/mtd/nand/amlogic_mtd/built-in.o
 .data.aml_nand_oob_640
                0x000000000113fa08      0xb08 drivers/mtd/nand/amlogic_mtd/built-in.o
 .data.aml_nand_oob_128
                0x0000000001140510      0xb08 drivers/mtd/nand/amlogic_mtd/built-in.o
 .data.aml_nand_oob_224
                0x0000000001141018      0xb08 drivers/mtd/nand/amlogic_mtd/built-in.o
 .data.m3_bch_list
                0x0000000001141b20       0xd8 drivers/mtd/nand/amlogic_mtd/built-in.o
 .data.aml_nand_mid_platform
                0x0000000001141bf8      0x180 drivers/mtd/nand/amlogic_mtd/built-in.o
 .data.aml_nand_mid_device
                0x0000000001141d78       0x10 drivers/mtd/nand/amlogic_mtd/built-in.o
                0x0000000001141d78                aml_nand_mid_device
 .data.nand_curr_device
                0x0000000001141d88        0x4 drivers/mtd/nand/amlogic_mtd/built-in.o
                0x0000000001141d88                nand_curr_device
 .data.rsv_protect
                0x0000000001141d8c        0x4 drivers/mtd/nand/amlogic_mtd/built-in.o
 .data.info     0x0000000001141d90      0x140 drivers/mtd/nand/amlogic_mtd/built-in.o
 .data.aml_nand_flash_ids
                0x0000000001141ed0     0x1030 drivers/mtd/nand/amlogic_mtd/built-in.o
                0x0000000001141ed0                aml_nand_flash_ids
 .data.cmd_amlmtd_sub
                0x0000000001142f00       0xc8 drivers/mtd/nand/amlogic_mtd/built-in.o
 .data.amlmtd_help_text
                0x0000000001142fc8      0x290 drivers/mtd/nand/amlogic_mtd/built-in.o
 .data.phy_drivers
                0x0000000001143258       0x10 drivers/net/phy/built-in.o
 .data.genphy_driver
                0x0000000001143268       0x58 drivers/net/phy/built-in.o
 .data.device_UART_PORT_AO
                0x00000000011432c0       0x50 drivers/serial/built-in.o
 .data.device_desc
                0x0000000001143310       0x18 drivers/usb/gadget/built-in.o
 .data.g_dnl_string_tab
                0x0000000001143328       0x10 drivers/usb/gadget/built-in.o
 .data.g_dnl_serial
                0x0000000001143338       0x20 drivers/usb/gadget/built-in.o
 .data.g_dnl_composite_strings
                0x0000000001143358       0x10 drivers/usb/gadget/built-in.o
 .data.g_dnl_driver
                0x0000000001143368       0x40 drivers/usb/gadget/built-in.o
 .data.composite_driver
                0x00000000011433a8       0x38 drivers/usb/gadget/built-in.o
 .data.g_dnl_string_defs
                0x00000000011433e0       0x40 drivers/usb/gadget/built-in.o
 .data.interface_desc
                0x0000000001143420       0x10 drivers/usb/gadget/built-in.o
 .data.ep_in    0x0000000001143430       0x10 drivers/usb/gadget/built-in.o
 .data.ep_out   0x0000000001143440       0x10 drivers/usb/gadget/built-in.o
 .data.fastboot_strings
                0x0000000001143450       0x10 drivers/usb/gadget/built-in.o
 .data.fb_runtime_descs
                0x0000000001143460       0x20 drivers/usb/gadget/built-in.o
 .data.fastboot_string_defs
                0x0000000001143480       0x20 drivers/usb/gadget/built-in.o
 .data.stringtab_fastboot
                0x00000000011434a0       0x10 drivers/usb/gadget/built-in.o
 .data.dwc_otg_pcd_ep_ops
                0x00000000011434b0       0x48 drivers/usb/gadget/built-in.o
 .data.descriptor
                0x00000000011434f8       0x40 drivers/usb/host/built-in.o
 .data.fstypes  0x0000000001143538       0xd8 fs/built-in.o
 .data.ext4fs_indir3_blkno
                0x0000000001143610        0x4 fs/built-in.o
                0x0000000001143610                ext4fs_indir3_blkno
 .data.ext4fs_indir1_blkno
                0x0000000001143614        0x4 fs/built-in.o
                0x0000000001143614                ext4fs_indir1_blkno
 .data.ext4fs_indir2_blkno
                0x0000000001143618        0x4 fs/built-in.o
                0x0000000001143618                ext4fs_indir2_blkno
 *fill*         0x000000000114361c        0x4 
 .data.lzo_compr
                0x0000000001143620       0x38 fs/built-in.o
 .data.none_compr
                0x0000000001143658       0x38 fs/built-in.o
 .data.zlib_compr
                0x0000000001143690       0x38 fs/built-in.o
 .data.ubifs_fs_type
                0x00000000011436c8       0x38 fs/built-in.o
 .data.super_blocks
                0x0000000001143700       0x10 fs/built-in.o
                0x0000000001143700                super_blocks
 .data.sha256_padding
                0x0000000001143710       0x40 lib/built-in.o
 .data.algorithm_data
                0x0000000001143750       0xa8 lib/built-in.o
 .data.y        0x00000000011437f8        0x4 lib/built-in.o
 .data.NetOurNativeVLAN
                0x00000000011437fc        0x2 net/built-in.o
                0x00000000011437fc                NetOurNativeVLAN
 *fill*         0x00000000011437fe        0x2 
 .data.NetBcastAddr
                0x0000000001143800        0x8 net/built-in.o
                0x0000000001143800                NetBcastAddr
 .data.first_call.5997
                0x0000000001143808        0x4 net/built-in.o
 .data.NetOurVLAN
                0x000000000114380c        0x2 net/built-in.o
                0x000000000114380c                NetOurVLAN
 *fill*         0x000000000114380e        0x2 
 .data.TftpTimeoutCountMax
                0x0000000001143810        0x4 net/built-in.o
 .data.TftpRRQTimeoutCountMax
                0x0000000001143814        0x4 net/built-in.o
                0x0000000001143814                TftpRRQTimeoutCountMax
 .data.TftpBlkSizeOption
                0x0000000001143818        0x2 net/built-in.o
 *fill*         0x000000000114381a        0x6 
 .data.TftpTimeoutMSecs
                0x0000000001143820        0x8 net/built-in.o
 .data.TftpBlkSize
                0x0000000001143828        0x2 net/built-in.o

.got            0x0000000001143830        0x8
 .got           0x0000000001143830        0x8 arch/arm/cpu/armv8/start.o
                0x0000000001143830                _GLOBAL_OFFSET_TABLE_

.got.plt        0x0000000001143838       0x18
 .got.plt       0x0000000001143838       0x18 arch/arm/cpu/armv8/start.o
                0x0000000001143850                . = ALIGN (0x8)
                0x0000000001143850                . = .
                0x0000000001143850                . = ALIGN (0x8)

.u_boot_list    0x0000000001143850     0x1d38
 *(SORT(.u_boot_list*))
 .u_boot_list_2_cmd_1
                0x0000000001143850        0x0 common/built-in.o
 .u_boot_list_2_cmd_2_aml_sysrecovery
                0x0000000001143850       0x28 drivers/built-in.o
                0x0000000001143850                _u_boot_list_2_cmd_2_aml_sysrecovery
 .u_boot_list_2_cmd_2_amlmmc
                0x0000000001143878       0x28 common/built-in.o
                0x0000000001143878                _u_boot_list_2_cmd_2_amlmmc
 .u_boot_list_2_cmd_2_amlnf
                0x00000000011438a0       0x28 drivers/mtd/nand/amlogic_mtd/built-in.o
                0x00000000011438a0                _u_boot_list_2_cmd_2_amlnf
 .u_boot_list_2_cmd_2_autoscr
                0x00000000011438c8       0x28 common/built-in.o
                0x00000000011438c8                _u_boot_list_2_cmd_2_autoscr
 .u_boot_list_2_cmd_2_avb
                0x00000000011438f0       0x28 common/built-in.o
                0x00000000011438f0                _u_boot_list_2_cmd_2_avb
 .u_boot_list_2_cmd_2_base
                0x0000000001143918       0x28 common/built-in.o
                0x0000000001143918                _u_boot_list_2_cmd_2_base
 .u_boot_list_2_cmd_2_bcb
                0x0000000001143940       0x28 common/built-in.o
                0x0000000001143940                _u_boot_list_2_cmd_2_bcb
 .u_boot_list_2_cmd_2_bmp
                0x0000000001143968       0x28 common/built-in.o
                0x0000000001143968                _u_boot_list_2_cmd_2_bmp
 .u_boot_list_2_cmd_2_boot_cooling
                0x0000000001143990       0x28 common/built-in.o
                0x0000000001143990                _u_boot_list_2_cmd_2_boot_cooling
 .u_boot_list_2_cmd_2_booti
                0x00000000011439b8       0x28 common/built-in.o
                0x00000000011439b8                _u_boot_list_2_cmd_2_booti
 .u_boot_list_2_cmd_2_bootm
                0x00000000011439e0       0x28 common/built-in.o
                0x00000000011439e0                _u_boot_list_2_cmd_2_bootm
 .u_boot_list_2_cmd_2_bootp
                0x0000000001143a08       0x28 common/built-in.o
                0x0000000001143a08                _u_boot_list_2_cmd_2_bootp
 .u_boot_list_2_cmd_2_cbusreg
                0x0000000001143a30       0x28 drivers/net/built-in.o
                0x0000000001143a30                _u_boot_list_2_cmd_2_cbusreg
 .u_boot_list_2_cmd_2_chpart
                0x0000000001143a58       0x28 common/built-in.o
                0x0000000001143a58                _u_boot_list_2_cmd_2_chpart
 .u_boot_list_2_cmd_2_clkmsr
                0x0000000001143a80       0x28 common/built-in.o
                0x0000000001143a80                _u_boot_list_2_cmd_2_clkmsr
 .u_boot_list_2_cmd_2_cmp
                0x0000000001143aa8       0x28 common/built-in.o
                0x0000000001143aa8                _u_boot_list_2_cmd_2_cmp
 .u_boot_list_2_cmd_2_cp
                0x0000000001143ad0       0x28 common/built-in.o
                0x0000000001143ad0                _u_boot_list_2_cmd_2_cp
 .u_boot_list_2_cmd_2_crc32
                0x0000000001143af8       0x28 common/built-in.o
                0x0000000001143af8                _u_boot_list_2_cmd_2_crc32
 .u_boot_list_2_cmd_2_cvbs
                0x0000000001143b20       0x28 common/built-in.o
                0x0000000001143b20                _u_boot_list_2_cmd_2_cvbs
 .u_boot_list_2_cmd_2_dcache
                0x0000000001143b48       0x28 common/built-in.o
                0x0000000001143b48                _u_boot_list_2_cmd_2_dcache
 .u_boot_list_2_cmd_2_ddr_auto_fast_boot_check
                0x0000000001143b70       0x28 common/built-in.o
                0x0000000001143b70                _u_boot_list_2_cmd_2_ddr_auto_fast_boot_check
 .u_boot_list_2_cmd_2_ddr_auto_scan_drv
                0x0000000001143b98       0x28 common/built-in.o
                0x0000000001143b98                _u_boot_list_2_cmd_2_ddr_auto_scan_drv
 .u_boot_list_2_cmd_2_ddr_auto_test_window
                0x0000000001143bc0       0x28 common/built-in.o
                0x0000000001143bc0                _u_boot_list_2_cmd_2_ddr_auto_test_window
 .u_boot_list_2_cmd_2_ddr_cpu_test
                0x0000000001143be8       0x28 common/built-in.o
                0x0000000001143be8                _u_boot_list_2_cmd_2_ddr_cpu_test
 .u_boot_list_2_cmd_2_ddr_fast_boot
                0x0000000001143c10       0x28 common/built-in.o
                0x0000000001143c10                _u_boot_list_2_cmd_2_ddr_fast_boot
 .u_boot_list_2_cmd_2_ddr_g12_offset_data
                0x0000000001143c38       0x28 common/built-in.o
                0x0000000001143c38                _u_boot_list_2_cmd_2_ddr_g12_offset_data
 .u_boot_list_2_cmd_2_ddr_g12_override_data
                0x0000000001143c60       0x28 common/built-in.o
                0x0000000001143c60                _u_boot_list_2_cmd_2_ddr_g12_override_data
 .u_boot_list_2_cmd_2_ddr_spec_test
                0x0000000001143c88       0x28 common/built-in.o
                0x0000000001143c88                _u_boot_list_2_cmd_2_ddr_spec_test
 .u_boot_list_2_cmd_2_ddr_test_cmd
                0x0000000001143cb0       0x28 common/built-in.o
                0x0000000001143cb0                _u_boot_list_2_cmd_2_ddr_test_cmd
 .u_boot_list_2_cmd_2_ddr_test_copy
                0x0000000001143cd8       0x28 common/built-in.o
                0x0000000001143cd8                _u_boot_list_2_cmd_2_ddr_test_copy
 .u_boot_list_2_cmd_2_ddrtest
                0x0000000001143d00       0x28 common/built-in.o
                0x0000000001143d00                _u_boot_list_2_cmd_2_ddrtest
 .u_boot_list_2_cmd_2_defenv_reserv
                0x0000000001143d28       0x28 common/built-in.o
                0x0000000001143d28                _u_boot_list_2_cmd_2_defenv_reserv
 .u_boot_list_2_cmd_2_dhcp
                0x0000000001143d50       0x28 common/built-in.o
                0x0000000001143d50                _u_boot_list_2_cmd_2_dhcp
 .u_boot_list_2_cmd_2_dovi
                0x0000000001143d78       0x28 common/built-in.o
                0x0000000001143d78                _u_boot_list_2_cmd_2_dovi
 .u_boot_list_2_cmd_2_dtimg
                0x0000000001143da0       0x28 common/built-in.o
                0x0000000001143da0                _u_boot_list_2_cmd_2_dtimg
 .u_boot_list_2_cmd_2_echo
                0x0000000001143dc8       0x28 common/built-in.o
                0x0000000001143dc8                _u_boot_list_2_cmd_2_echo
 .u_boot_list_2_cmd_2_efuse
                0x0000000001143df0       0x28 common/built-in.o
                0x0000000001143df0                _u_boot_list_2_cmd_2_efuse
 .u_boot_list_2_cmd_2_efuse_user
                0x0000000001143e18       0x28 drivers/built-in.o
                0x0000000001143e18                _u_boot_list_2_cmd_2_efuse_user
 .u_boot_list_2_cmd_2_emmc
                0x0000000001143e40       0x28 common/built-in.o
                0x0000000001143e40                _u_boot_list_2_cmd_2_emmc
 .u_boot_list_2_cmd_2_env
                0x0000000001143e68       0x28 common/built-in.o
                0x0000000001143e68                _u_boot_list_2_cmd_2_env
 .u_boot_list_2_cmd_2_ethloop
                0x0000000001143e90       0x28 common/built-in.o
                0x0000000001143e90                _u_boot_list_2_cmd_2_ethloop
 .u_boot_list_2_cmd_2_exit
                0x0000000001143eb8       0x28 common/built-in.o
                0x0000000001143eb8                _u_boot_list_2_cmd_2_exit
 .u_boot_list_2_cmd_2_ext4load
                0x0000000001143ee0       0x28 common/built-in.o
                0x0000000001143ee0                _u_boot_list_2_cmd_2_ext4load
 .u_boot_list_2_cmd_2_ext4ls
                0x0000000001143f08       0x28 common/built-in.o
                0x0000000001143f08                _u_boot_list_2_cmd_2_ext4ls
 .u_boot_list_2_cmd_2_ext4size
                0x0000000001143f30       0x28 common/built-in.o
                0x0000000001143f30                _u_boot_list_2_cmd_2_ext4size
 .u_boot_list_2_cmd_2_false
                0x0000000001143f58       0x28 common/built-in.o
                0x0000000001143f58                _u_boot_list_2_cmd_2_false
 .u_boot_list_2_cmd_2_fastboot
                0x0000000001143f80       0x28 common/built-in.o
                0x0000000001143f80                _u_boot_list_2_cmd_2_fastboot
 .u_boot_list_2_cmd_2_fatinfo
                0x0000000001143fa8       0x28 common/built-in.o
                0x0000000001143fa8                _u_boot_list_2_cmd_2_fatinfo
 .u_boot_list_2_cmd_2_fatload
                0x0000000001143fd0       0x28 common/built-in.o
                0x0000000001143fd0                _u_boot_list_2_cmd_2_fatload
 .u_boot_list_2_cmd_2_fatls
                0x0000000001143ff8       0x28 common/built-in.o
                0x0000000001143ff8                _u_boot_list_2_cmd_2_fatls
 .u_boot_list_2_cmd_2_fatsize
                0x0000000001144020       0x28 common/built-in.o
                0x0000000001144020                _u_boot_list_2_cmd_2_fatsize
 .u_boot_list_2_cmd_2_fdt
                0x0000000001144048       0x28 common/built-in.o
                0x0000000001144048                _u_boot_list_2_cmd_2_fdt
 .u_boot_list_2_cmd_2_forceupdate
                0x0000000001144070       0x28 common/built-in.o
                0x0000000001144070                _u_boot_list_2_cmd_2_forceupdate
 .u_boot_list_2_cmd_2_g12_d2pll
                0x0000000001144098       0x28 common/built-in.o
                0x0000000001144098                _u_boot_list_2_cmd_2_g12_d2pll
 .u_boot_list_2_cmd_2_get_avb_mode
                0x00000000011440c0       0x28 common/built-in.o
                0x00000000011440c0                _u_boot_list_2_cmd_2_get_avb_mode
 .u_boot_list_2_cmd_2_get_bootloaderversion
                0x00000000011440e8       0x28 common/built-in.o
                0x00000000011440e8                _u_boot_list_2_cmd_2_get_bootloaderversion
 .u_boot_list_2_cmd_2_get_rebootmode
                0x0000000001144110       0x28 common/built-in.o
                0x0000000001144110                _u_boot_list_2_cmd_2_get_rebootmode
 .u_boot_list_2_cmd_2_get_system_as_root_mode
                0x0000000001144138       0x28 common/built-in.o
                0x0000000001144138                _u_boot_list_2_cmd_2_get_system_as_root_mode
 .u_boot_list_2_cmd_2_get_valid_slot
                0x0000000001144160       0x28 common/built-in.o
                0x0000000001144160                _u_boot_list_2_cmd_2_get_valid_slot
 .u_boot_list_2_cmd_2_go
                0x0000000001144188       0x28 common/built-in.o
                0x0000000001144188                _u_boot_list_2_cmd_2_go
 .u_boot_list_2_cmd_2_gpio
                0x00000000011441b0       0x28 common/built-in.o
                0x00000000011441b0                _u_boot_list_2_cmd_2_gpio
 .u_boot_list_2_cmd_2_gpt
                0x00000000011441d8       0x28 common/built-in.o
                0x00000000011441d8                _u_boot_list_2_cmd_2_gpt
 .u_boot_list_2_cmd_2_guid
                0x0000000001144200       0x28 lib/built-in.o
                0x0000000001144200                _u_boot_list_2_cmd_2_guid
 .u_boot_list_2_cmd_2_hdmitx
                0x0000000001144228       0x28 common/built-in.o
                0x0000000001144228                _u_boot_list_2_cmd_2_hdmitx
 .u_boot_list_2_cmd_2_help
                0x0000000001144250       0x28 common/built-in.o
                0x0000000001144250                _u_boot_list_2_cmd_2_help
 .u_boot_list_2_cmd_2_i2c
                0x0000000001144278       0x28 common/built-in.o
                0x0000000001144278                _u_boot_list_2_cmd_2_i2c
 .u_boot_list_2_cmd_2_icache
                0x00000000011442a0       0x28 common/built-in.o
                0x00000000011442a0                _u_boot_list_2_cmd_2_icache
 .u_boot_list_2_cmd_2_img_osd
                0x00000000011442c8       0x28 common/built-in.o
                0x00000000011442c8                _u_boot_list_2_cmd_2_img_osd
 .u_boot_list_2_cmd_2_imgread
                0x00000000011442f0       0x28 common/built-in.o
                0x00000000011442f0                _u_boot_list_2_cmd_2_imgread
 .u_boot_list_2_cmd_2_itest
                0x0000000001144318       0x28 common/built-in.o
                0x0000000001144318                _u_boot_list_2_cmd_2_itest
 .u_boot_list_2_cmd_2_jtagoff
                0x0000000001144340       0x28 common/built-in.o
                0x0000000001144340                _u_boot_list_2_cmd_2_jtagoff
 .u_boot_list_2_cmd_2_jtagon
                0x0000000001144368       0x28 common/built-in.o
                0x0000000001144368                _u_boot_list_2_cmd_2_jtagon
 .u_boot_list_2_cmd_2_keyman
                0x0000000001144390       0x28 drivers/built-in.o
                0x0000000001144390                _u_boot_list_2_cmd_2_keyman
 .u_boot_list_2_cmd_2_keyunify
                0x00000000011443b8       0x28 drivers/built-in.o
                0x00000000011443b8                _u_boot_list_2_cmd_2_keyunify
 .u_boot_list_2_cmd_2_ld_bl40
                0x00000000011443e0       0x28 common/built-in.o
                0x00000000011443e0                _u_boot_list_2_cmd_2_ld_bl40
 .u_boot_list_2_cmd_2_loadb
                0x0000000001144408       0x28 common/built-in.o
                0x0000000001144408                _u_boot_list_2_cmd_2_loadb
 .u_boot_list_2_cmd_2_loadx
                0x0000000001144430       0x28 common/built-in.o
                0x0000000001144430                _u_boot_list_2_cmd_2_loadx
 .u_boot_list_2_cmd_2_loady
                0x0000000001144458       0x28 common/built-in.o
                0x0000000001144458                _u_boot_list_2_cmd_2_loady
 .u_boot_list_2_cmd_2_loop
                0x0000000001144480       0x28 common/built-in.o
                0x0000000001144480                _u_boot_list_2_cmd_2_loop
 .u_boot_list_2_cmd_2_macreg
                0x00000000011444a8       0x28 drivers/net/built-in.o
                0x00000000011444a8                _u_boot_list_2_cmd_2_macreg
 .u_boot_list_2_cmd_2_md
                0x00000000011444d0       0x28 common/built-in.o
                0x00000000011444d0                _u_boot_list_2_cmd_2_md
 .u_boot_list_2_cmd_2_mm
                0x00000000011444f8       0x28 common/built-in.o
                0x00000000011444f8                _u_boot_list_2_cmd_2_mm
 .u_boot_list_2_cmd_2_mmc
                0x0000000001144520       0x28 common/built-in.o
                0x0000000001144520                _u_boot_list_2_cmd_2_mmc
 .u_boot_list_2_cmd_2_mmcinfo
                0x0000000001144548       0x28 common/built-in.o
                0x0000000001144548                _u_boot_list_2_cmd_2_mmcinfo
 .u_boot_list_2_cmd_2_mtdparts
                0x0000000001144570       0x28 common/built-in.o
                0x0000000001144570                _u_boot_list_2_cmd_2_mtdparts
 .u_boot_list_2_cmd_2_mw
                0x0000000001144598       0x28 common/built-in.o
                0x0000000001144598                _u_boot_list_2_cmd_2_mw
 .u_boot_list_2_cmd_2_mwm
                0x00000000011445c0       0x28 common/built-in.o
                0x00000000011445c0                _u_boot_list_2_cmd_2_mwm
 .u_boot_list_2_cmd_2_nand
                0x00000000011445e8       0x28 common/built-in.o
                0x00000000011445e8                _u_boot_list_2_cmd_2_nand
 .u_boot_list_2_cmd_2_nboot
                0x0000000001144610       0x28 common/built-in.o
                0x0000000001144610                _u_boot_list_2_cmd_2_nboot
 .u_boot_list_2_cmd_2_nm
                0x0000000001144638       0x28 common/built-in.o
                0x0000000001144638                _u_boot_list_2_cmd_2_nm
 .u_boot_list_2_cmd_2_open_scp_log
                0x0000000001144660       0x28 common/built-in.o
                0x0000000001144660                _u_boot_list_2_cmd_2_open_scp_log
 .u_boot_list_2_cmd_2_osd
                0x0000000001144688       0x28 common/built-in.o
                0x0000000001144688                _u_boot_list_2_cmd_2_osd
 .u_boot_list_2_cmd_2_phyreg
                0x00000000011446b0       0x28 drivers/net/built-in.o
                0x00000000011446b0                _u_boot_list_2_cmd_2_phyreg
 .u_boot_list_2_cmd_2_ping
                0x00000000011446d8       0x28 common/built-in.o
                0x00000000011446d8                _u_boot_list_2_cmd_2_ping
 .u_boot_list_2_cmd_2_printenv
                0x0000000001144700       0x28 common/built-in.o
                0x0000000001144700                _u_boot_list_2_cmd_2_printenv
 .u_boot_list_2_cmd_2_query
                0x0000000001144728       0x28 common/built-in.o
                0x0000000001144728                _u_boot_list_2_cmd_2_query
 .u_boot_list_2_cmd_2_question_mark
                0x0000000001144750       0x28 common/built-in.o
                0x0000000001144750                _u_boot_list_2_cmd_2_question_mark
 .u_boot_list_2_cmd_2_rarpboot
                0x0000000001144778       0x28 common/built-in.o
                0x0000000001144778                _u_boot_list_2_cmd_2_rarpboot
 .u_boot_list_2_cmd_2_readMetadata
                0x00000000011447a0       0x28 common/built-in.o
                0x00000000011447a0                _u_boot_list_2_cmd_2_readMetadata
 .u_boot_list_2_cmd_2_read_temp
                0x00000000011447c8       0x28 common/built-in.o
                0x00000000011447c8                _u_boot_list_2_cmd_2_read_temp
 .u_boot_list_2_cmd_2_reboot
                0x00000000011447f0       0x28 common/built-in.o
                0x00000000011447f0                _u_boot_list_2_cmd_2_reboot
 .u_boot_list_2_cmd_2_reset
                0x0000000001144818       0x28 common/built-in.o
                0x0000000001144818                _u_boot_list_2_cmd_2_reset
 .u_boot_list_2_cmd_2_ringmsr
                0x0000000001144840       0x28 common/built-in.o
                0x0000000001144840                _u_boot_list_2_cmd_2_ringmsr
 .u_boot_list_2_cmd_2_rpmb_state
                0x0000000001144868       0x28 common/built-in.o
                0x0000000001144868                _u_boot_list_2_cmd_2_rpmb_state
 .u_boot_list_2_cmd_2_rsvmem
                0x0000000001144890       0x28 common/built-in.o
                0x0000000001144890                _u_boot_list_2_cmd_2_rsvmem
 .u_boot_list_2_cmd_2_run
                0x00000000011448b8       0x28 common/built-in.o
                0x00000000011448b8                _u_boot_list_2_cmd_2_run
 .u_boot_list_2_cmd_2_saradc
                0x00000000011448e0       0x28 common/built-in.o
                0x00000000011448e0                _u_boot_list_2_cmd_2_saradc
 .u_boot_list_2_cmd_2_saradc_12bit
                0x0000000001144908       0x28 common/built-in.o
                0x0000000001144908                _u_boot_list_2_cmd_2_saradc_12bit
 .u_boot_list_2_cmd_2_saveenv
                0x0000000001144930       0x28 common/built-in.o
                0x0000000001144930                _u_boot_list_2_cmd_2_saveenv
 .u_boot_list_2_cmd_2_sdc_burn
                0x0000000001144958       0x28 drivers/built-in.o
                0x0000000001144958                _u_boot_list_2_cmd_2_sdc_burn
 .u_boot_list_2_cmd_2_sdc_update
                0x0000000001144980       0x28 drivers/built-in.o
                0x0000000001144980                _u_boot_list_2_cmd_2_sdc_update
 .u_boot_list_2_cmd_2_set_active_slot
                0x00000000011449a8       0x28 common/built-in.o
                0x00000000011449a8                _u_boot_list_2_cmd_2_set_active_slot
 .u_boot_list_2_cmd_2_set_trim_base
                0x00000000011449d0       0x28 common/built-in.o
                0x00000000011449d0                _u_boot_list_2_cmd_2_set_trim_base
 .u_boot_list_2_cmd_2_set_usb_boot
                0x00000000011449f8       0x28 common/built-in.o
                0x00000000011449f8                _u_boot_list_2_cmd_2_set_usb_boot
 .u_boot_list_2_cmd_2_setenv
                0x0000000001144a20       0x28 common/built-in.o
                0x0000000001144a20                _u_boot_list_2_cmd_2_setenv
 .u_boot_list_2_cmd_2_sf
                0x0000000001144a48       0x28 common/built-in.o
                0x0000000001144a48                _u_boot_list_2_cmd_2_sf
 .u_boot_list_2_cmd_2_showvar
                0x0000000001144a70       0x28 common/built-in.o
                0x0000000001144a70                _u_boot_list_2_cmd_2_showvar
 .u_boot_list_2_cmd_2_sleep
                0x0000000001144a98       0x28 common/built-in.o
                0x0000000001144a98                _u_boot_list_2_cmd_2_sleep
 .u_boot_list_2_cmd_2_sspi
                0x0000000001144ac0       0x28 common/built-in.o
                0x0000000001144ac0                _u_boot_list_2_cmd_2_sspi
 .u_boot_list_2_cmd_2_store
                0x0000000001144ae8       0x28 common/built-in.o
                0x0000000001144ae8                _u_boot_list_2_cmd_2_store
 .u_boot_list_2_cmd_2_systemoff
                0x0000000001144b10       0x28 common/built-in.o
                0x0000000001144b10                _u_boot_list_2_cmd_2_systemoff
 .u_boot_list_2_cmd_2_tee_log_level
                0x0000000001144b38       0x28 common/built-in.o
                0x0000000001144b38                _u_boot_list_2_cmd_2_tee_log_level
 .u_boot_list_2_cmd_2_temp_triming
                0x0000000001144b60       0x28 common/built-in.o
                0x0000000001144b60                _u_boot_list_2_cmd_2_temp_triming
 .u_boot_list_2_cmd_2_test
                0x0000000001144b88       0x28 common/built-in.o
                0x0000000001144b88                _u_boot_list_2_cmd_2_test
 .u_boot_list_2_cmd_2_tftpboot
                0x0000000001144bb0       0x28 common/built-in.o
                0x0000000001144bb0                _u_boot_list_2_cmd_2_tftpboot
 .u_boot_list_2_cmd_2_true
                0x0000000001144bd8       0x28 common/built-in.o
                0x0000000001144bd8                _u_boot_list_2_cmd_2_true
 .u_boot_list_2_cmd_2_ubi
                0x0000000001144c00       0x28 common/built-in.o
                0x0000000001144c00                _u_boot_list_2_cmd_2_ubi
 .u_boot_list_2_cmd_2_ubifsload
                0x0000000001144c28       0x28 common/built-in.o
                0x0000000001144c28                _u_boot_list_2_cmd_2_ubifsload
 .u_boot_list_2_cmd_2_ubifsls
                0x0000000001144c50       0x28 common/built-in.o
                0x0000000001144c50                _u_boot_list_2_cmd_2_ubifsls
 .u_boot_list_2_cmd_2_ubifsmount
                0x0000000001144c78       0x28 common/built-in.o
                0x0000000001144c78                _u_boot_list_2_cmd_2_ubifsmount
 .u_boot_list_2_cmd_2_ubifsumount
                0x0000000001144ca0       0x28 common/built-in.o
                0x0000000001144ca0                _u_boot_list_2_cmd_2_ubifsumount
 .u_boot_list_2_cmd_2_ui
                0x0000000001144cc8       0x28 common/built-in.o
                0x0000000001144cc8                _u_boot_list_2_cmd_2_ui
 .u_boot_list_2_cmd_2_unpackimg
                0x0000000001144cf0       0x28 common/built-in.o
                0x0000000001144cf0                _u_boot_list_2_cmd_2_unpackimg
 .u_boot_list_2_cmd_2_update
                0x0000000001144d18       0x28 drivers/built-in.o
                0x0000000001144d18                _u_boot_list_2_cmd_2_update
 .u_boot_list_2_cmd_2_usb
                0x0000000001144d40       0x28 common/built-in.o
                0x0000000001144d40                _u_boot_list_2_cmd_2_usb
 .u_boot_list_2_cmd_2_usb_burn
                0x0000000001144d68       0x28 drivers/built-in.o
                0x0000000001144d68                _u_boot_list_2_cmd_2_usb_burn
 .u_boot_list_2_cmd_2_usb_update
                0x0000000001144d90       0x28 drivers/built-in.o
                0x0000000001144d90                _u_boot_list_2_cmd_2_usb_update
 .u_boot_list_2_cmd_2_usbboot
                0x0000000001144db8       0x28 common/built-in.o
                0x0000000001144db8                _u_boot_list_2_cmd_2_usbboot
 .u_boot_list_2_cmd_2_uuid
                0x0000000001144de0       0x28 lib/built-in.o
                0x0000000001144de0                _u_boot_list_2_cmd_2_uuid
 .u_boot_list_2_cmd_2_version
                0x0000000001144e08       0x28 common/built-in.o
                0x0000000001144e08                _u_boot_list_2_cmd_2_version
 .u_boot_list_2_cmd_2_viu_probe
                0x0000000001144e30       0x28 common/built-in.o
                0x0000000001144e30                _u_boot_list_2_cmd_2_viu_probe
 .u_boot_list_2_cmd_2_vout
                0x0000000001144e58       0x28 common/built-in.o
                0x0000000001144e58                _u_boot_list_2_cmd_2_vout
 .u_boot_list_2_cmd_2_vout2
                0x0000000001144e80       0x28 common/built-in.o
                0x0000000001144e80                _u_boot_list_2_cmd_2_vout2
 .u_boot_list_2_cmd_2_vpp
                0x0000000001144ea8       0x28 common/built-in.o
                0x0000000001144ea8                _u_boot_list_2_cmd_2_vpp
 .u_boot_list_2_cmd_2_vpu
                0x0000000001144ed0       0x28 common/built-in.o
                0x0000000001144ed0                _u_boot_list_2_cmd_2_vpu
 .u_boot_list_2_cmd_2_write_trim
                0x0000000001144ef8       0x28 common/built-in.o
                0x0000000001144ef8                _u_boot_list_2_cmd_2_write_trim
 .u_boot_list_2_cmd_2_write_version
                0x0000000001144f20       0x28 common/built-in.o
                0x0000000001144f20                _u_boot_list_2_cmd_2_write_version
 .u_boot_list_2_cmd_3
                0x0000000001144f48        0x0 common/built-in.o
 .u_boot_list_2_driver_1
                0x0000000001144f48        0x0 drivers/built-in.o
 .u_boot_list_2_driver_2_gpio_aml
                0x0000000001144f48       0x70 drivers/gpio/built-in.o
                0x0000000001144f48                _u_boot_list_2_driver_2_gpio_aml
 .u_boot_list_2_driver_2_meson_pwm
                0x0000000001144fb8       0x70 drivers/built-in.o
                0x0000000001144fb8                _u_boot_list_2_driver_2_meson_pwm
 .u_boot_list_2_driver_2_root_driver
                0x0000000001145028       0x70 drivers/built-in.o
                0x0000000001145028                _u_boot_list_2_driver_2_root_driver
 .u_boot_list_2_driver_2_spi_flash_std
                0x0000000001145098       0x70 drivers/mtd/spi/built-in.o
                0x0000000001145098                _u_boot_list_2_driver_2_spi_flash_std
 .u_boot_list_2_driver_2_spi_generic_drv
                0x0000000001145108       0x70 drivers/spi/built-in.o
                0x0000000001145108                _u_boot_list_2_driver_2_spi_generic_drv
 .u_boot_list_2_driver_2_spifc
                0x0000000001145178       0x70 drivers/spi/built-in.o
                0x0000000001145178                _u_boot_list_2_driver_2_spifc
 .u_boot_list_2_driver_2_spinand
                0x00000000011451e8       0x70 drivers/mtd/nand/built-in.o
                0x00000000011451e8                _u_boot_list_2_driver_2_spinand
 .u_boot_list_2_driver_3
                0x0000000001145258        0x0 drivers/built-in.o
 .u_boot_list_2_driver_info_1
                0x0000000001145258        0x0 drivers/built-in.o
 .u_boot_list_2_driver_info_2_meson_pwm
                0x0000000001145258       0x50 board/amlogic/sm1_ac214_v1/built-in.o
                0x0000000001145258                _u_boot_list_2_driver_info_2_meson_pwm
 .u_boot_list_2_driver_info_2_spifc
                0x00000000011452a8       0x10 board/amlogic/sm1_ac214_v1/built-in.o
                0x00000000011452a8                _u_boot_list_2_driver_info_2_spifc
 .u_boot_list_2_driver_info_2_txhd_gpios
                0x00000000011452b8       0x80 arch/arm/cpu/armv8/built-in.o
                0x00000000011452b8                _u_boot_list_2_driver_info_2_txhd_gpios
 .u_boot_list_2_driver_info_3
                0x0000000001145338        0x0 drivers/built-in.o
 .u_boot_list_2_env_clbk_1
                0x0000000001145338        0x0 common/built-in.o
 .u_boot_list_2_env_clbk_2_baudrate
                0x0000000001145338       0x10 drivers/serial/built-in.o
                0x0000000001145338                _u_boot_list_2_env_clbk_2_baudrate
 .u_boot_list_2_env_clbk_2_bootfile
                0x0000000001145348       0x10 net/built-in.o
                0x0000000001145348                _u_boot_list_2_env_clbk_2_bootfile
 .u_boot_list_2_env_clbk_2_callbacks
                0x0000000001145358       0x10 common/built-in.o
                0x0000000001145358                _u_boot_list_2_env_clbk_2_callbacks
 .u_boot_list_2_env_clbk_2_console
                0x0000000001145368       0x10 common/built-in.o
                0x0000000001145368                _u_boot_list_2_env_clbk_2_console
 .u_boot_list_2_env_clbk_2_flags
                0x0000000001145378       0x10 common/built-in.o
                0x0000000001145378                _u_boot_list_2_env_clbk_2_flags
 .u_boot_list_2_env_clbk_2_loadaddr
                0x0000000001145388       0x10 common/built-in.o
                0x0000000001145388                _u_boot_list_2_env_clbk_2_loadaddr
 .u_boot_list_2_env_clbk_3
                0x0000000001145398        0x0 common/built-in.o
 .u_boot_list_2_g_dnl_bind_callbacks_1
                0x0000000001145398        0x0 drivers/usb/gadget/built-in.o
 .u_boot_list_2_g_dnl_bind_callbacks_2___usb_function_name_usb_dnl_fastboot
                0x0000000001145398       0x10 drivers/usb/gadget/built-in.o
                0x0000000001145398                _u_boot_list_2_g_dnl_bind_callbacks_2___usb_function_name_usb_dnl_fastboot
 .u_boot_list_2_g_dnl_bind_callbacks_3
                0x00000000011453a8        0x0 drivers/usb/gadget/built-in.o
 .u_boot_list_2_uclass_1
                0x00000000011453a8        0x0 drivers/built-in.o
 .u_boot_list_2_uclass_2_gpio
                0x00000000011453a8       0x50 drivers/gpio/built-in.o
                0x00000000011453a8                _u_boot_list_2_uclass_2_gpio
 .u_boot_list_2_uclass_2_pwm
                0x00000000011453f8       0x50 drivers/built-in.o
                0x00000000011453f8                _u_boot_list_2_uclass_2_pwm
 .u_boot_list_2_uclass_2_root
                0x0000000001145448       0x50 drivers/built-in.o
                0x0000000001145448                _u_boot_list_2_uclass_2_root
 .u_boot_list_2_uclass_2_spi
                0x0000000001145498       0x50 drivers/spi/built-in.o
                0x0000000001145498                _u_boot_list_2_uclass_2_spi
 .u_boot_list_2_uclass_2_spi_flash
                0x00000000011454e8       0x50 drivers/mtd/spi/built-in.o
                0x00000000011454e8                _u_boot_list_2_uclass_2_spi_flash
 .u_boot_list_2_uclass_2_spi_generic
                0x0000000001145538       0x50 drivers/spi/built-in.o
                0x0000000001145538                _u_boot_list_2_uclass_2_spi_generic
 .u_boot_list_2_uclass_3
                0x0000000001145588        0x0 drivers/built-in.o
                0x0000000001145588                . = ALIGN (0x8)

.image_copy_end
                0x0000000001145588        0x0
 *(.__image_copy_end)
 .__image_copy_end
                0x0000000001145588        0x0 arch/arm/lib/built-in.o
                0x0000000001145588                . = ALIGN (0x8)

.rel_dyn_start  0x0000000001145588        0x0
 *(.__rel_dyn_start)
 .__rel_dyn_start
                0x0000000001145588        0x0 arch/arm/lib/built-in.o

.rela.dyn       0x0000000001145588    0x13368
 *(.rela*)
 .rela.got      0x0000000000000000        0x0 arch/arm/cpu/armv8/start.o
 .rela.plt      0x0000000000000000        0x0 arch/arm/cpu/armv8/start.o
 .rela.text     0x0000000001145588       0xa8 arch/arm/cpu/armv8/start.o
 .rela.rodata.sm1_table
                0x0000000001145630      0xc00 arch/arm/cpu/armv8/start.o
 .rela.rodata.gxbb_modes
                0x0000000001146230      0x2a0 arch/arm/cpu/armv8/start.o
 .rela.rodata.tvregsTab
                0x00000000011464d0      0x300 arch/arm/cpu/armv8/start.o
 .rela.data.clkrate
                0x00000000011467d0       0x18 arch/arm/cpu/armv8/start.o
 .rela.data.clk_table
                0x00000000011467e8      0xc00 arch/arm/cpu/armv8/start.o
 .rela.u_boot_list_2_driver_info_2_txhd_gpios
                0x00000000011473e8      0x180 arch/arm/cpu/armv8/start.o
 .rela.data.mesontxhd_banks
                0x0000000001147568       0xc0 arch/arm/cpu/armv8/start.o
 .rela.rodata._env_args_reserve_
                0x0000000001147628       0x78 arch/arm/cpu/armv8/start.o
 .rela.rodata.spifc_platdata
                0x00000000011476a0       0x30 arch/arm/cpu/armv8/start.o
 .rela.data.g_usb_config_GXL_skt
                0x00000000011476d0       0x18 arch/arm/cpu/armv8/start.o
 .rela.data.normal_partition_info
                0x00000000011476e8       0x90 arch/arm/cpu/armv8/start.o
 .rela.u_boot_list_2_driver_info_2_meson_pwm
                0x0000000001147778       0xf0 arch/arm/cpu/armv8/start.o
 .rela.u_boot_list_2_driver_info_2_spifc
                0x0000000001147868       0x30 arch/arm/cpu/armv8/start.o
 .rela.text.do_version
                0x0000000001147898       0x18 arch/arm/cpu/armv8/start.o
 .rela.text.do_defenv_reserv
                0x00000000011478b0       0x18 arch/arm/cpu/armv8/start.o
 .rela.rodata   0x00000000011478c8      0x2b8 arch/arm/cpu/armv8/start.o
 .rela.rodata.boot_os
                0x0000000001147b80       0x90 arch/arm/cpu/armv8/start.o
 .rela.rodata.op_table
                0x0000000001147c10      0x138 arch/arm/cpu/armv8/start.o
 .rela.rodata.op_adv
                0x0000000001147d48      0x180 arch/arm/cpu/armv8/start.o
 .rela.rodata.CSWTCH.23
                0x0000000001147ec8       0x78 arch/arm/cpu/armv8/start.o
 .rela.rodata.temp_for_compile
                0x0000000000000000        0x0 arch/arm/cpu/armv8/start.o
 .rela.rodata.uimage_comp
                0x0000000001147f40      0x120 arch/arm/cpu/armv8/start.o
 .rela.rodata.uimage_os
                0x0000000001148060      0x198 arch/arm/cpu/armv8/start.o
 .rela.rodata.uimage_arch
                0x00000000011481f8      0x498 arch/arm/cpu/armv8/start.o
 .rela.rodata.uimage_type
                0x0000000001148690      0x408 arch/arm/cpu/armv8/start.o
 .rela.rodata.CSWTCH.88
                0x0000000001148a98      0x1c8 arch/arm/cpu/armv8/start.o
 .rela.rodata.CSWTCH.24
                0x0000000001148c60       0xc0 arch/arm/cpu/armv8/start.o
 .rela.rodata.channel_names
                0x0000000001148d20      0x300 arch/arm/cpu/armv8/start.o
 .rela.rodata.parse_cs_
                0x0000000001149020       0x60 arch/arm/cpu/armv8/start.o
 .rela.rodata.parse_cd_
                0x0000000001149080       0x60 arch/arm/cpu/armv8/start.o
 .rela.rodata.parse_cr_
                0x00000000011490e0       0x30 arch/arm/cpu/armv8/start.o
 .rela.rodata.all_fmt_paras
                0x0000000001149110      0x600 arch/arm/cpu/armv8/start.o
 .rela.rodata.color_attr_lut
                0x0000000001149710      0x120 arch/arm/cpu/armv8/start.o
 .rela.data.hash_algo
                0x0000000001149830       0xf0 arch/arm/cpu/armv8/start.o
 .rela.data.reserved_list
                0x0000000001149920      0x108 arch/arm/cpu/armv8/start.o
 .rela.u_boot_list_2_cmd_2_showvar
                0x0000000001149a28       0x60 arch/arm/cpu/armv8/start.o
 .rela.data.init_sequence_f
                0x0000000001149a88      0x300 arch/arm/cpu/armv8/start.o
 .rela.data.init_sequence_r
                0x0000000001149d88      0x288 arch/arm/cpu/armv8/start.o
 .rela.u_boot_list_2_cmd_2_go
                0x000000000114a010       0x60 arch/arm/cpu/armv8/start.o
 .rela.u_boot_list_2_cmd_2_reset
                0x000000000114a070       0x60 arch/arm/cpu/armv8/start.o
 .rela.u_boot_list_2_cmd_2_booti
                0x000000000114a0d0       0x60 arch/arm/cpu/armv8/start.o
 .rela.u_boot_list_2_cmd_2_bootm
                0x000000000114a130       0x60 arch/arm/cpu/armv8/start.o
 .rela.data.cmd_bootm_sub
                0x000000000114a190      0x288 arch/arm/cpu/armv8/start.o
 .rela.u_boot_list_2_cmd_2_question_mark
                0x000000000114a418       0x60 arch/arm/cpu/armv8/start.o
 .rela.u_boot_list_2_cmd_2_help
                0x000000000114a478       0x60 arch/arm/cpu/armv8/start.o
 .rela.u_boot_list_2_cmd_2_get_bootloaderversion
                0x000000000114a4d8       0x60 arch/arm/cpu/armv8/start.o
 .rela.u_boot_list_2_cmd_2_version
                0x000000000114a538       0x60 arch/arm/cpu/armv8/start.o
 .rela.u_boot_list_2_env_clbk_2_callbacks
                0x000000000114a598       0x30 arch/arm/cpu/armv8/start.o
 .rela.u_boot_list_2_env_clbk_2_flags
                0x000000000114a5c8       0x30 arch/arm/cpu/armv8/start.o
 .rela.data.env_name_spec
                0x000000000114a5f8       0x18 arch/arm/cpu/armv8/start.o
 .rela.u_boot_list_2_cmd_2_autoscr
                0x000000000114a610       0x60 arch/arm/cpu/armv8/start.o
 .rela.data.cmd_bmp_sub
                0x000000000114a670      0x120 arch/arm/cpu/armv8/start.o
 .rela.u_boot_list_2_cmd_2_bmp
                0x000000000114a790       0x60 arch/arm/cpu/armv8/start.o
 .rela.u_boot_list_2_cmd_2_icache
                0x000000000114a7f0       0x60 arch/arm/cpu/armv8/start.o
 .rela.u_boot_list_2_cmd_2_dcache
                0x000000000114a850       0x60 arch/arm/cpu/armv8/start.o
 .rela.data.cmd_saradc_sub
                0x000000000114a8b0      0x1e0 arch/arm/cpu/armv8/start.o
 .rela.data.cmd_saradc_12bit_sub
                0x000000000114aa90      0x180 arch/arm/cpu/armv8/start.o
 .rela.u_boot_list_2_cmd_2_saradc_12bit
                0x000000000114ac10       0x60 arch/arm/cpu/armv8/start.o
 .rela.u_boot_list_2_cmd_2_saradc
                0x000000000114ac70       0x60 arch/arm/cpu/armv8/start.o
 .rela.u_boot_list_2_cmd_2_forceupdate
                0x000000000114acd0       0x60 arch/arm/cpu/armv8/start.o
 .rela.u_boot_list_2_cmd_2_echo
                0x000000000114ad30       0x60 arch/arm/cpu/armv8/start.o
 .rela.u_boot_list_2_cmd_2_exit
                0x000000000114ad90       0x60 arch/arm/cpu/armv8/start.o
 .rela.u_boot_list_2_cmd_2_ext4load
                0x000000000114adf0       0x60 arch/arm/cpu/armv8/start.o
 .rela.u_boot_list_2_cmd_2_ext4ls
                0x000000000114ae50       0x60 arch/arm/cpu/armv8/start.o
 .rela.u_boot_list_2_cmd_2_ext4size
                0x000000000114aeb0       0x60 arch/arm/cpu/armv8/start.o
 .rela.u_boot_list_2_cmd_2_fatinfo
                0x000000000114af10       0x60 arch/arm/cpu/armv8/start.o
 .rela.u_boot_list_2_cmd_2_fatsize
                0x000000000114af70       0x60 arch/arm/cpu/armv8/start.o
 .rela.u_boot_list_2_cmd_2_fatload
                0x000000000114afd0       0x60 arch/arm/cpu/armv8/start.o
 .rela.u_boot_list_2_cmd_2_fatls
                0x000000000114b030       0x60 arch/arm/cpu/armv8/start.o
 .rela.u_boot_list_2_cmd_2_fdt
                0x000000000114b090       0x60 arch/arm/cpu/armv8/start.o
 .rela.data.of_busses
                0x0000000000000000        0x0 arch/arm/cpu/armv8/start.o
 .rela.u_boot_list_2_cmd_2_gpio
                0x000000000114b0f0       0x60 arch/arm/cpu/armv8/start.o
 .rela.u_boot_list_2_cmd_2_i2c
                0x000000000114b150       0x60 arch/arm/cpu/armv8/start.o
 .rela.data.cmd_i2c_sub
                0x000000000114b1b0      0x420 arch/arm/cpu/armv8/start.o
 .rela.u_boot_list_2_cmd_2_itest
                0x000000000114b5d0       0x60 arch/arm/cpu/armv8/start.o
 .rela.u_boot_list_2_cmd_2_bcb
                0x000000000114b630       0x60 arch/arm/cpu/armv8/start.o
 .rela.u_boot_list_2_cmd_2_readMetadata
                0x000000000114b690       0x60 arch/arm/cpu/armv8/start.o
 .rela.u_boot_list_2_cmd_2_set_active_slot
                0x000000000114b6f0       0x60 arch/arm/cpu/armv8/start.o
 .rela.u_boot_list_2_cmd_2_get_avb_mode
                0x000000000114b750       0x60 arch/arm/cpu/armv8/start.o
 .rela.u_boot_list_2_cmd_2_get_system_as_root_mode
                0x000000000114b7b0       0x60 arch/arm/cpu/armv8/start.o
 .rela.u_boot_list_2_cmd_2_get_valid_slot
                0x000000000114b810       0x60 arch/arm/cpu/armv8/start.o
 .rela.u_boot_list_2_cmd_2_loadb
                0x000000000114b870       0x60 arch/arm/cpu/armv8/start.o
 .rela.u_boot_list_2_cmd_2_loadx
                0x000000000114b8d0       0x60 arch/arm/cpu/armv8/start.o
 .rela.u_boot_list_2_cmd_2_loady
                0x000000000114b930       0x60 arch/arm/cpu/armv8/start.o
 .rela.u_boot_list_2_cmd_2_base
                0x000000000114b990       0x60 arch/arm/cpu/armv8/start.o
 .rela.u_boot_list_2_cmd_2_cmp
                0x000000000114b9f0       0x60 arch/arm/cpu/armv8/start.o
 .rela.u_boot_list_2_cmd_2_nm
                0x000000000114ba50       0x60 arch/arm/cpu/armv8/start.o
 .rela.u_boot_list_2_cmd_2_loop
                0x000000000114bab0       0x60 arch/arm/cpu/armv8/start.o
 .rela.u_boot_list_2_cmd_2_cp
                0x000000000114bb10       0x60 arch/arm/cpu/armv8/start.o
 .rela.u_boot_list_2_cmd_2_mm
                0x000000000114bb70       0x60 arch/arm/cpu/armv8/start.o
 .rela.u_boot_list_2_cmd_2_crc32
                0x000000000114bbd0       0x60 arch/arm/cpu/armv8/start.o
 .rela.u_boot_list_2_cmd_2_md
                0x000000000114bc30       0x60 arch/arm/cpu/armv8/start.o
 .rela.u_boot_list_2_cmd_2_mw
                0x000000000114bc90       0x60 arch/arm/cpu/armv8/start.o
 .rela.u_boot_list_2_cmd_2_mwm
                0x000000000114bcf0       0x60 arch/arm/cpu/armv8/start.o
 .rela.u_boot_list_2_cmd_2_sleep
                0x000000000114bd50       0x60 arch/arm/cpu/armv8/start.o
 .rela.u_boot_list_2_cmd_2_mmcinfo
                0x000000000114bdb0       0x60 arch/arm/cpu/armv8/start.o
 .rela.data.cmd_mmc
                0x000000000114be10      0x540 arch/arm/cpu/armv8/start.o
 .rela.u_boot_list_2_cmd_2_mmc
                0x000000000114c350       0x60 arch/arm/cpu/armv8/start.o
 .rela.data.disk_partitions
                0x000000000114c3b0       0x30 arch/arm/cpu/armv8/start.o
 .rela.u_boot_list_2_cmd_2_gpt
                0x000000000114c3e0       0x60 arch/arm/cpu/armv8/start.o
 .rela.u_boot_list_2_cmd_2_emmc
                0x000000000114c440       0x60 arch/arm/cpu/armv8/start.o
 .rela.u_boot_list_2_cmd_2_amlmmc
                0x000000000114c4a0       0x60 arch/arm/cpu/armv8/start.o
 .rela.data.cmd_emmc
                0x000000000114c500      0x1e0 arch/arm/cpu/armv8/start.o
 .rela.data.cmd_amlmmc
                0x000000000114c6e0      0x720 arch/arm/cpu/armv8/start.o
 .rela.data.cmd_store_sub
                0x000000000114ce00      0x600 arch/arm/cpu/armv8/start.o
 .rela.u_boot_list_2_cmd_2_store
                0x000000000114d400       0x60 arch/arm/cpu/armv8/start.o
 .rela.data._usbDownPartImgType
                0x000000000114d460       0x18 arch/arm/cpu/armv8/start.o
 .rela.u_boot_list_2_cmd_2_unpackimg
                0x000000000114d478       0x60 arch/arm/cpu/armv8/start.o
 .rela.data.cmd_imgread_sub
                0x000000000114d4d8      0x180 arch/arm/cpu/armv8/start.o
 .rela.u_boot_list_2_cmd_2_imgread
                0x000000000114d658       0x60 arch/arm/cpu/armv8/start.o
 .rela.u_boot_list_2_cmd_2_mtdparts
                0x000000000114d6b8       0x60 arch/arm/cpu/armv8/start.o
 .rela.u_boot_list_2_cmd_2_chpart
                0x000000000114d718       0x60 arch/arm/cpu/armv8/start.o
 .rela.u_boot_list_2_cmd_2_nboot
                0x000000000114d778       0x60 arch/arm/cpu/armv8/start.o
 .rela.u_boot_list_2_cmd_2_nand
                0x000000000114d7d8       0x60 arch/arm/cpu/armv8/start.o
 .rela.u_boot_list_2_cmd_2_ping
                0x000000000114d838       0x60 arch/arm/cpu/armv8/start.o
 .rela.u_boot_list_2_cmd_2_rarpboot
                0x000000000114d898       0x60 arch/arm/cpu/armv8/start.o
 .rela.u_boot_list_2_cmd_2_dhcp
                0x000000000114d8f8       0x60 arch/arm/cpu/armv8/start.o
 .rela.u_boot_list_2_cmd_2_bootp
                0x000000000114d958       0x60 arch/arm/cpu/armv8/start.o
 .rela.u_boot_list_2_cmd_2_tftpboot
                0x000000000114d9b8       0x60 arch/arm/cpu/armv8/start.o
 .rela.u_boot_list_2_cmd_2_ethloop
                0x000000000114da18       0x60 arch/arm/cpu/armv8/start.o
 .rela.u_boot_list_2_cmd_2_sf
                0x000000000114da78       0x60 arch/arm/cpu/armv8/start.o
 .rela.u_boot_list_2_cmd_2_sspi
                0x000000000114dad8       0x60 arch/arm/cpu/armv8/start.o
 .rela.data.cmd_dtimg_sub
                0x000000000114db38      0x120 arch/arm/cpu/armv8/start.o
 .rela.u_boot_list_2_cmd_2_dtimg
                0x000000000114dc58       0x60 arch/arm/cpu/armv8/start.o
 .rela.u_boot_list_2_cmd_2_test
                0x000000000114dcb8       0x60 arch/arm/cpu/armv8/start.o
 .rela.u_boot_list_2_cmd_2_true
                0x000000000114dd18       0x48 arch/arm/cpu/armv8/start.o
 .rela.u_boot_list_2_cmd_2_false
                0x000000000114dd60       0x48 arch/arm/cpu/armv8/start.o
 .rela.u_boot_list_2_cmd_2_ubi
                0x000000000114dda8       0x60 arch/arm/cpu/armv8/start.o
 .rela.u_boot_list_2_cmd_2_ubifsumount
                0x000000000114de08       0x60 arch/arm/cpu/armv8/start.o
 .rela.u_boot_list_2_cmd_2_ubifsload
                0x000000000114de68       0x60 arch/arm/cpu/armv8/start.o
 .rela.u_boot_list_2_cmd_2_ubifsls
                0x000000000114dec8       0x60 arch/arm/cpu/armv8/start.o
 .rela.u_boot_list_2_cmd_2_ubifsmount
                0x000000000114df28       0x60 arch/arm/cpu/armv8/start.o
 .rela.u_boot_list_2_cmd_2_usb
                0x000000000114df88       0x60 arch/arm/cpu/armv8/start.o
 .rela.u_boot_list_2_cmd_2_usbboot
                0x000000000114dfe8       0x60 arch/arm/cpu/armv8/start.o
 .rela.u_boot_list_2_cmd_2_fastboot
                0x000000000114e048       0x60 arch/arm/cpu/armv8/start.o
 .rela.u_boot_list_2_cmd_2_vpu
                0x000000000114e0a8       0x60 arch/arm/cpu/armv8/start.o
 .rela.data.cmd_vpu_sub
                0x000000000114e108      0x1e0 arch/arm/cpu/armv8/start.o
 .rela.u_boot_list_2_cmd_2_ddr_g12_override_data
                0x000000000114e2e8       0x60 arch/arm/cpu/armv8/start.o
 .rela.u_boot_list_2_cmd_2_ddr_test_cmd
                0x000000000114e348       0x60 arch/arm/cpu/armv8/start.o
 .rela.u_boot_list_2_cmd_2_ddr_fast_boot
                0x000000000114e3a8       0x60 arch/arm/cpu/armv8/start.o
 .rela.u_boot_list_2_cmd_2_ddr_spec_test
                0x000000000114e408       0x60 arch/arm/cpu/armv8/start.o
 .rela.u_boot_list_2_cmd_2_g12_d2pll
                0x000000000114e468       0x60 arch/arm/cpu/armv8/start.o
 .rela.u_boot_list_2_cmd_2_ddr_auto_test_window
                0x000000000114e4c8       0x60 arch/arm/cpu/armv8/start.o
 .rela.u_boot_list_2_cmd_2_ddr_auto_scan_drv
                0x000000000114e528       0x60 arch/arm/cpu/armv8/start.o
 .rela.u_boot_list_2_cmd_2_ddr_cpu_test
                0x000000000114e588       0x60 arch/arm/cpu/armv8/start.o
 .rela.u_boot_list_2_cmd_2_ddr_g12_offset_data
                0x000000000114e5e8       0x60 arch/arm/cpu/armv8/start.o
 .rela.u_boot_list_2_cmd_2_ddr_test_copy
                0x000000000114e648       0x60 arch/arm/cpu/armv8/start.o
 .rela.u_boot_list_2_cmd_2_ddrtest
                0x000000000114e6a8       0x60 arch/arm/cpu/armv8/start.o
 .rela.u_boot_list_2_cmd_2_ddr_auto_fast_boot_check
                0x000000000114e708       0x60 arch/arm/cpu/armv8/start.o
 .rela.data.ddr_set_t_p_arrary
                0x000000000114e768       0x18 arch/arm/cpu/armv8/start.o
 .rela.u_boot_list_2_cmd_2_query
                0x000000000114e780       0x60 arch/arm/cpu/armv8/start.o
 .rela.u_boot_list_2_cmd_2_efuse
                0x000000000114e7e0       0x60 arch/arm/cpu/armv8/start.o
 .rela.u_boot_list_2_cmd_2_temp_triming
                0x000000000114e840       0x60 arch/arm/cpu/armv8/start.o
 .rela.u_boot_list_2_cmd_2_set_trim_base
                0x000000000114e8a0       0x60 arch/arm/cpu/armv8/start.o
 .rela.u_boot_list_2_cmd_2_write_version
                0x000000000114e900       0x60 arch/arm/cpu/armv8/start.o
 .rela.u_boot_list_2_cmd_2_read_temp
                0x000000000114e960       0x60 arch/arm/cpu/armv8/start.o
 .rela.u_boot_list_2_cmd_2_write_trim
                0x000000000114e9c0       0x60 arch/arm/cpu/armv8/start.o
 .rela.u_boot_list_2_cmd_2_boot_cooling
                0x000000000114ea20       0x60 arch/arm/cpu/armv8/start.o
 .rela.u_boot_list_2_cmd_2_ringmsr
                0x000000000114ea80       0x60 arch/arm/cpu/armv8/start.o
 .rela.u_boot_list_2_cmd_2_clkmsr
                0x000000000114eae0       0x60 arch/arm/cpu/armv8/start.o
 .rela.u_boot_list_2_cmd_2_rpmb_state
                0x000000000114eb40       0x60 arch/arm/cpu/armv8/start.o
 .rela.u_boot_list_2_cmd_2_setenv
                0x000000000114eba0       0x60 arch/arm/cpu/armv8/start.o
 .rela.u_boot_list_2_cmd_2_env
                0x000000000114ec00       0x60 arch/arm/cpu/armv8/start.o
 .rela.u_boot_list_2_cmd_2_saveenv
                0x000000000114ec60       0x60 arch/arm/cpu/armv8/start.o
 .rela.data.cmd_env_sub
                0x000000000114ecc0      0x300 arch/arm/cpu/armv8/start.o
 .rela.u_boot_list_2_cmd_2_printenv
                0x000000000114efc0       0x60 arch/arm/cpu/armv8/start.o
 .rela.u_boot_list_2_cmd_2_run
                0x000000000114f020       0x60 arch/arm/cpu/armv8/start.o
 .rela.data.env_htab
                0x000000000114f080       0x18 arch/arm/cpu/armv8/start.o
 .rela.u_boot_list_2_cmd_2_defenv_reserv
                0x000000000114f098       0x60 arch/arm/cpu/armv8/start.o
 .rela.u_boot_list_2_env_clbk_2_console
                0x000000000114f0f8       0x30 arch/arm/cpu/armv8/start.o
 .rela.data.av_
                0x000000000114f128     0x1800 arch/arm/cpu/armv8/start.o
 .rela.u_boot_list_2_env_clbk_2_loadaddr
                0x0000000001150928       0x30 arch/arm/cpu/armv8/start.o
 .rela.data.stdio_names
                0x0000000001150958       0x48 arch/arm/cpu/armv8/start.o
 .rela.data.cmd_vpp_sub
                0x00000000011509a0       0xc0 arch/arm/cpu/armv8/start.o
 .rela.u_boot_list_2_cmd_2_vpp
                0x0000000001150a60       0x60 arch/arm/cpu/armv8/start.o
 .rela.u_boot_list_2_cmd_2_set_usb_boot
                0x0000000001150ac0       0x60 arch/arm/cpu/armv8/start.o
 .rela.u_boot_list_2_cmd_2_get_rebootmode
                0x0000000001150b20       0x60 arch/arm/cpu/armv8/start.o
 .rela.u_boot_list_2_cmd_2_reboot
                0x0000000001150b80       0x60 arch/arm/cpu/armv8/start.o
 .rela.u_boot_list_2_cmd_2_systemoff
                0x0000000001150be0       0x60 arch/arm/cpu/armv8/start.o
 .rela.u_boot_list_2_cmd_2_open_scp_log
                0x0000000001150c40       0x60 arch/arm/cpu/armv8/start.o
 .rela.data.fmt_para_vesa_1280x800p60_8x5
                0x0000000001150ca0       0x30 arch/arm/cpu/armv8/start.o
 .rela.data.fmt_para_1920x1080i60_16x9
                0x0000000001150cd0       0x30 arch/arm/cpu/armv8/start.o
 .rela.data.fmt_para_1280x720p50_16x9
                0x0000000001150d00       0x30 arch/arm/cpu/armv8/start.o
 .rela.data.fmt_para_3840x2160p30_16x9
                0x0000000001150d30       0x30 arch/arm/cpu/armv8/start.o
 .rela.data.fmt_para_1920x1080p60_16x9
                0x0000000001150d60       0x30 arch/arm/cpu/armv8/start.o
 .rela.data.fmt_para_720x480i60_16x9
                0x0000000001150d90       0x30 arch/arm/cpu/armv8/start.o
 .rela.data.fmt_para_vesa_854x480p60_427x240
                0x0000000001150dc0       0x30 arch/arm/cpu/armv8/start.o
 .rela.data.fmt_para_vesa_1024x768p60_4x3
                0x0000000001150df0       0x30 arch/arm/cpu/armv8/start.o
 .rela.data.fmt_para_vesa_1280x960p60_4x3
                0x0000000001150e20       0x30 arch/arm/cpu/armv8/start.o
 .rela.data.fmt_para_1280x720p60_16x9
                0x0000000001150e50       0x30 arch/arm/cpu/armv8/start.o
 .rela.data.fmt_para_1920x1080p50_16x9
                0x0000000001150e80       0x30 arch/arm/cpu/armv8/start.o
 .rela.data.fmt_para_vesa_2160x1200p90_9x5
                0x0000000001150eb0       0x30 arch/arm/cpu/armv8/start.o
 .rela.data.fmt_para_1920x1080p24_16x9
                0x0000000001150ee0       0x30 arch/arm/cpu/armv8/start.o
 .rela.data.fmt_para_720x480p120_16x9
                0x0000000001150f10       0x30 arch/arm/cpu/armv8/start.o
 .rela.data.fmt_para_non_hdmi_fmt
                0x0000000001150f40       0x30 arch/arm/cpu/armv8/start.o
 .rela.data.fmt_para_4096x2160p25_256x135
                0x0000000001150f70       0x30 arch/arm/cpu/armv8/start.o
 .rela.data.fmt_para_720x576i50_16x9
                0x0000000001150fa0       0x30 arch/arm/cpu/armv8/start.o
 .rela.data.fmt_para_vesa_1440x2560p60_9x16
                0x0000000001150fd0       0x30 arch/arm/cpu/armv8/start.o
 .rela.data.fmt_para_vesa_1400x1050p60_4x3
                0x0000000001151000       0x30 arch/arm/cpu/armv8/start.o
 .rela.data.fmt_para_vesa_800x480p60_4x3
                0x0000000001151030       0x30 arch/arm/cpu/armv8/start.o
 .rela.data.fmt_para_vesa_1600x900p60_16x9
                0x0000000001151060       0x30 arch/arm/cpu/armv8/start.o
 .rela.data.fmt_para_vesa_1440x2560p70_9x16
                0x0000000001151090       0x30 arch/arm/cpu/armv8/start.o
 .rela.data.fmt_para_1920x1080p25_16x9
                0x00000000011510c0       0x30 arch/arm/cpu/armv8/start.o
 .rela.data.fmt_para_vesa_2560x1600p60_8x5
                0x00000000011510f0       0x30 arch/arm/cpu/armv8/start.o
 .rela.data.fmt_para_vesa_1280x768p60_5x3
                0x0000000001151120       0x30 arch/arm/cpu/armv8/start.o
 .rela.data.fmt_para_vesa_1360x768p60_16x9
                0x0000000001151150       0x30 arch/arm/cpu/armv8/start.o
 .rela.data.fmt_para_3840x2160p60_y420_16x9
                0x0000000001151180       0x30 arch/arm/cpu/armv8/start.o
 .rela.data.fmt_para_1920x1080i50_16x9
                0x00000000011511b0       0x30 arch/arm/cpu/armv8/start.o
 .rela.data.fmt_para_vesa_1920x1200p60_8x5
                0x00000000011511e0       0x30 arch/arm/cpu/armv8/start.o
 .rela.data.fmt_para_3840x2160p50_16x9
                0x0000000001151210       0x30 arch/arm/cpu/armv8/start.o
 .rela.data.fmt_para_vesa_1366x768p60_16x9
                0x0000000001151240       0x30 arch/arm/cpu/armv8/start.o
 .rela.data.fmt_para_1920x1080p120_16x9
                0x0000000001151270       0x30 arch/arm/cpu/armv8/start.o
 .rela.data.fmt_para_4096x2160p50_y420_256x135
                0x00000000011512a0       0x30 arch/arm/cpu/armv8/start.o
 .rela.data.fmt_para_4096x2160p50_256x135
                0x00000000011512d0       0x30 arch/arm/cpu/armv8/start.o
 .rela.data.fmt_para_3840x2160p24_16x9
                0x0000000001151300       0x30 arch/arm/cpu/armv8/start.o
 .rela.data.fmt_para_1920x1080p100_16x9
                0x0000000001151330       0x30 arch/arm/cpu/armv8/start.o
 .rela.data.fmt_para_3840x2160p50_y420_16x9
                0x0000000001151360       0x30 arch/arm/cpu/armv8/start.o
 .rela.data.fmt_para_1920x1080i100_16x9
                0x0000000001151390       0x30 arch/arm/cpu/armv8/start.o
 .rela.data.fmt_para_4096x2160p60_y420_256x135
                0x00000000011513c0       0x30 arch/arm/cpu/armv8/start.o
 .rela.data.fmt_para_4096x2160p60_256x135
                0x00000000011513f0       0x30 arch/arm/cpu/armv8/start.o
 .rela.data.fmt_para_3840x2160p60_16x9
                0x0000000001151420       0x30 arch/arm/cpu/armv8/start.o
 .rela.data.fmt_para_1280x720p100_16x9
                0x0000000001151450       0x30 arch/arm/cpu/armv8/start.o
 .rela.data.fmt_para_720x480p60_16x9
                0x0000000001151480       0x30 arch/arm/cpu/armv8/start.o
 .rela.data.fmt_para_vesa_800x600p60_4x3
                0x00000000011514b0       0x30 arch/arm/cpu/armv8/start.o
 .rela.data.fmt_para_vesa_640x480p60_4x3
                0x00000000011514e0       0x30 arch/arm/cpu/armv8/start.o
 .rela.data.fmt_para_4096x2160p30_256x135
                0x0000000001151510       0x30 arch/arm/cpu/armv8/start.o
 .rela.data.fmt_para_4096x2160p24_256x135
                0x0000000001151540       0x30 arch/arm/cpu/armv8/start.o
 .rela.data.fmt_para_1920x1080i120_16x9
                0x0000000001151570       0x30 arch/arm/cpu/armv8/start.o
 .rela.data.fmt_para_3840x2160p25_16x9
                0x00000000011515a0       0x30 arch/arm/cpu/armv8/start.o
 .rela.data.fmt_para_vesa_852x480p60_213x120
                0x00000000011515d0       0x30 arch/arm/cpu/armv8/start.o
 .rela.data.fmt_para_720x576p50_16x9
                0x0000000001151600       0x30 arch/arm/cpu/armv8/start.o
 .rela.data.fmt_para_720x576p100_16x9
                0x0000000001151630       0x30 arch/arm/cpu/armv8/start.o
 .rela.data.fmt_para_1280x720p120_16x9
                0x0000000001151660       0x30 arch/arm/cpu/armv8/start.o
 .rela.data.fmt_para_vesa_1024x600p60_17x10
                0x0000000001151690       0x30 arch/arm/cpu/armv8/start.o
 .rela.data.fmt_para_1920x1080p30_16x9
                0x00000000011516c0       0x30 arch/arm/cpu/armv8/start.o
 .rela.data.fmt_para_vesa_1152x864p75_4x3
                0x00000000011516f0       0x30 arch/arm/cpu/armv8/start.o
 .rela.data.fmt_para_vesa_1680x1050p60_8x5
                0x0000000001151720       0x30 arch/arm/cpu/armv8/start.o
 .rela.data.fmt_para_vesa_1280x1024p60_5x4
                0x0000000001151750       0x30 arch/arm/cpu/armv8/start.o
 .rela.data.fmt_para_vesa_1440x900p60_8x5
                0x0000000001151780       0x30 arch/arm/cpu/armv8/start.o
 .rela.data.fmt_para_vesa_1600x1200p60_4x3
                0x00000000011517b0       0x30 arch/arm/cpu/armv8/start.o
 .rela.u_boot_list_2_cmd_2_hdmitx
                0x00000000011517e0       0x60 arch/arm/cpu/armv8/start.o
 .rela.data.cmd_hdmi_sub
                0x0000000001151840      0x600 arch/arm/cpu/armv8/start.o
 .rela.u_boot_list_2_cmd_2_jtagoff
                0x0000000001151e40       0x60 arch/arm/cpu/armv8/start.o
 .rela.u_boot_list_2_cmd_2_jtagon
                0x0000000001151ea0       0x60 arch/arm/cpu/armv8/start.o
 .rela.u_boot_list_2_cmd_2_osd
                0x0000000001151f00       0x60 arch/arm/cpu/armv8/start.o
 .rela.data.cmd_osd_sub
                0x0000000001151f60      0x3c0 arch/arm/cpu/armv8/start.o
 .rela.u_boot_list_2_cmd_2_img_osd
                0x0000000001152320       0x60 arch/arm/cpu/armv8/start.o
 .rela.data.cmd_img_osd_sub
                0x0000000001152380      0x300 arch/arm/cpu/armv8/start.o
 .rela.data.cmd_ui_sub
                0x0000000001152680      0x300 arch/arm/cpu/armv8/start.o
 .rela.u_boot_list_2_cmd_2_ui
                0x0000000001152980       0x60 arch/arm/cpu/armv8/start.o
 .rela.data.pic_surface
                0x00000000011529e0       0x60 arch/arm/cpu/armv8/start.o
 .rela.data.lib_font
                0x0000000001152a40       0x18 arch/arm/cpu/armv8/start.o
 .rela.u_boot_list_2_cmd_2_dovi
                0x0000000001152a58       0x60 arch/arm/cpu/armv8/start.o
 .rela.data.cmd_cvbs_sub
                0x0000000001152ab8      0x180 arch/arm/cpu/armv8/start.o
 .rela.u_boot_list_2_cmd_2_cvbs
                0x0000000001152c38       0x60 arch/arm/cpu/armv8/start.o
 .rela.data.cmd_vout2_sub
                0x0000000001152c98      0x180 arch/arm/cpu/armv8/start.o
 .rela.data.cmd_vout_sub
                0x0000000001152e18      0x120 arch/arm/cpu/armv8/start.o
 .rela.u_boot_list_2_cmd_2_vout2
                0x0000000001152f38       0x60 arch/arm/cpu/armv8/start.o
 .rela.u_boot_list_2_cmd_2_vout
                0x0000000001152f98       0x60 arch/arm/cpu/armv8/start.o
 .rela.u_boot_list_2_cmd_2_rsvmem
                0x0000000001152ff8       0x60 arch/arm/cpu/armv8/start.o
 .rela.data.cmd_rsvmem_sub
                0x0000000001153058       0xc0 arch/arm/cpu/armv8/start.o
 .rela.u_boot_list_2_cmd_2_viu_probe
                0x0000000001153118       0x60 arch/arm/cpu/armv8/start.o
 .rela.u_boot_list_2_cmd_2_ld_bl40
                0x0000000001153178       0x60 arch/arm/cpu/armv8/start.o
 .rela.u_boot_list_2_cmd_2_tee_log_level
                0x00000000011531d8       0x60 arch/arm/cpu/armv8/start.o
 .rela.u_boot_list_2_cmd_2_avb
                0x0000000001153238       0x60 arch/arm/cpu/armv8/start.o
 .rela.data.cmd_avb_sub
                0x0000000001153298       0x60 arch/arm/cpu/armv8/start.o
 .rela.rodata.block_drvr
                0x00000000011532f8       0x78 arch/arm/cpu/armv8/start.o
 .rela.rodata.root_info
                0x0000000001153370       0x18 arch/arm/cpu/armv8/start.o
 .rela.rodata.CSWTCH.38
                0x0000000000000000        0x0 arch/arm/cpu/armv8/start.o
 .rela.rodata.meson_pwm_ops
                0x0000000001153388       0x90 arch/arm/cpu/armv8/start.o
 .rela.rodata.kbd_to_ansi364
                0x0000000000000000        0x0 arch/arm/cpu/armv8/start.o
 .rela.rodata._cfgKeyTypes
                0x0000000001153418       0x60 arch/arm/cpu/armv8/start.o
 .rela.rodata._iniSets
                0x0000000001153478       0x60 arch/arm/cpu/armv8/start.o
 .rela.rodata.filter_table
                0x00000000011534d8       0xd8 arch/arm/cpu/armv8/start.o
 .rela.rodata.hw_func_array
                0x00000000011535b0      0x360 arch/arm/cpu/armv8/start.o
 .rela.rodata.DV_func
                0x0000000001153910       0x90 arch/arm/cpu/armv8/start.o
 .rela.rodata.CSWTCH.1
                0x00000000011539a0      0x228 arch/arm/cpu/armv8/start.o
 .rela.rodata.vout_sets
                0x0000000001153bc8      0x408 arch/arm/cpu/armv8/start.o
 .rela.rodata.CSWTCH.40
                0x0000000001153fd0       0x78 arch/arm/cpu/armv8/start.o
 .rela.rodata.ch7_vol
                0x0000000001154048       0x78 arch/arm/cpu/armv8/start.o
 .rela.u_boot_list_2_driver_2_root_driver
                0x00000000011540c0       0x18 arch/arm/cpu/armv8/start.o
 .rela.u_boot_list_2_uclass_2_root
                0x00000000011540d8       0x18 arch/arm/cpu/armv8/start.o
 .rela.data.vpu_data_gxb
                0x00000000011540f0       0xa8 arch/arm/cpu/armv8/start.o
 .rela.data.vpu_data_txhd
                0x0000000001154198       0xa8 arch/arm/cpu/armv8/start.o
 .rela.data.vpu_data_txlx
                0x0000000001154240       0xc0 arch/arm/cpu/armv8/start.o
 .rela.data.vpu_data_gxl
                0x0000000001154300       0xa8 arch/arm/cpu/armv8/start.o
 .rela.data.vpu_data_gxm
                0x00000000011543a8       0xc0 arch/arm/cpu/armv8/start.o
 .rela.data.vpu_data_sm1
                0x0000000001154468       0xc0 arch/arm/cpu/armv8/start.o
 .rela.data.vpu_data_g12a
                0x0000000001154528       0xc0 arch/arm/cpu/armv8/start.o
 .rela.data.vpu_data_axg
                0x00000000011545e8       0xa8 arch/arm/cpu/armv8/start.o
 .rela.data.vpu_data_tl1
                0x0000000001154690       0xa8 arch/arm/cpu/armv8/start.o
 .rela.data.vpu_data_g12b
                0x0000000001154738       0xc0 arch/arm/cpu/armv8/start.o
 .rela.data.vpu_data_gxtvbb
                0x00000000011547f8       0xa8 arch/arm/cpu/armv8/start.o
 .rela.data.vpu_data_tm2
                0x00000000011548a0       0xc0 arch/arm/cpu/armv8/start.o
 .rela.data.vpu_data_txl
                0x0000000001154960       0xa8 arch/arm/cpu/armv8/start.o
 .rela.u_boot_list_2_uclass_2_pwm
                0x0000000001154a08       0x18 arch/arm/cpu/armv8/start.o
 .rela.u_boot_list_2_driver_2_meson_pwm
                0x0000000001154a20       0x60 arch/arm/cpu/armv8/start.o
 .rela.u_boot_list_2_cmd_2_efuse_user
                0x0000000001154a80       0x60 arch/arm/cpu/armv8/start.o
 .rela.data._SecukeyOps
                0x0000000001154ae0       0xa8 arch/arm/cpu/armv8/start.o
 .rela.u_boot_list_2_cmd_2_keyunify
                0x0000000001154b88       0x60 arch/arm/cpu/armv8/start.o
 .rela.data._efuseKeyOps
                0x0000000001154be8       0xa8 arch/arm/cpu/armv8/start.o
 .rela.u_boot_list_2_cmd_2_keyman
                0x0000000001154c90       0x60 arch/arm/cpu/armv8/start.o
 .rela.data.cmd_keyman_sub
                0x0000000001154cf0      0x1e0 arch/arm/cpu/armv8/start.o
 .rela.u_boot_list_2_cmd_2_update
                0x0000000001154ed0       0x60 arch/arm/cpu/armv8/start.o
 .rela.u_boot_list_2_cmd_2_sdc_update
                0x0000000001154f30       0x60 arch/arm/cpu/armv8/start.o
 .rela.u_boot_list_2_cmd_2_sdc_burn
                0x0000000001154f90       0x60 arch/arm/cpu/armv8/start.o
 .rela.u_boot_list_2_cmd_2_usb_burn
                0x0000000001154ff0       0x60 arch/arm/cpu/armv8/start.o
 .rela.u_boot_list_2_cmd_2_usb_update
                0x0000000001155050       0x60 arch/arm/cpu/armv8/start.o
 .rela.data._amlHdcp22RxKeys
                0x00000000011550b0      0x180 arch/arm/cpu/armv8/start.o
 .rela.u_boot_list_2_cmd_2_aml_sysrecovery
                0x0000000001155230       0x60 arch/arm/cpu/armv8/start.o
 .rela.data.my_backend
                0x0000000001155290       0x60 arch/arm/cpu/armv8/start.o
 .rela.rodata.gpio_function
                0x00000000011552f0       0x78 arch/arm/cpu/armv8/start.o
 .rela.rodata.gpio_aml_ops
                0x0000000001155368       0x90 arch/arm/cpu/armv8/start.o
 .rela.u_boot_list_2_uclass_2_gpio
                0x00000000011553f8       0x48 arch/arm/cpu/armv8/start.o
 .rela.u_boot_list_2_driver_2_gpio_aml
                0x0000000001155440       0x48 arch/arm/cpu/armv8/start.o
 .rela.data.g_aml_i2c_m1_ops
                0x0000000001155488       0x78 arch/arm/cpu/armv8/start.o
 .rela.rodata.aml_sd_emmc_ops
                0x0000000001155500       0x90 arch/arm/cpu/armv8/start.o
 .rela.data.aml_sd_emmc_ports
                0x0000000001155590       0x48 arch/arm/cpu/armv8/start.o
 .rela.data.mtd_partitions
                0x00000000011555d8       0x30 arch/arm/cpu/armv8/start.o
 .rela.rodata.spinand_partitions
                0x0000000001155608       0x30 arch/arm/cpu/armv8/start.o
 .rela.data.bbt_mirror_descr
                0x0000000001155638       0x18 arch/arm/cpu/armv8/start.o
 .rela.data.bbt_main_no_oob_descr
                0x0000000001155650       0x18 arch/arm/cpu/armv8/start.o
 .rela.data.bbt_mirror_no_oob_descr
                0x0000000001155668       0x18 arch/arm/cpu/armv8/start.o
 .rela.data.bbt_main_descr
                0x0000000001155680       0x18 arch/arm/cpu/armv8/start.o
 .rela.data.spi_nand_flash_ids
                0x0000000001155698      0x1b0 arch/arm/cpu/armv8/start.o
 .rela.data.nand_flash_ids
                0x0000000000000000        0x0 arch/arm/cpu/armv8/start.o
 .rela.data.nand_manuf_ids
                0x0000000001155848      0x180 arch/arm/cpu/armv8/start.o
 .rela.u_boot_list_2_driver_2_spinand
                0x00000000011559c8       0x30 arch/arm/cpu/armv8/start.o
 .rela.data.m3_bch_list
                0x00000000011559f8       0xd8 arch/arm/cpu/armv8/start.o
 .rela.data.aml_nand_mid_platform
                0x0000000001155ad0       0x30 arch/arm/cpu/armv8/start.o
 .rela.data.aml_nand_mid_device
                0x0000000001155b00       0x18 arch/arm/cpu/armv8/start.o
 .rela.data.aml_nand_flash_ids
                0x0000000001155b18      0x6d8 arch/arm/cpu/armv8/start.o
 .rela.data.cmd_amlmtd_sub
                0x00000000011561f0      0x1e0 arch/arm/cpu/armv8/start.o
 .rela.u_boot_list_2_cmd_2_amlnf
                0x00000000011563d0       0x60 arch/arm/cpu/armv8/start.o
 .rela.rodata.spi_flash_std_ops
                0x0000000001156430       0x48 arch/arm/cpu/armv8/start.o
 .rela.rodata.spi_flash_std_ids
                0x0000000001156478       0x18 arch/arm/cpu/armv8/start.o
 .rela.rodata.spi_flash_params_table
                0x0000000001156490      0x8e8 arch/arm/cpu/armv8/start.o
 .rela.u_boot_list_2_uclass_2_spi_flash
                0x0000000001156d78       0x18 arch/arm/cpu/armv8/start.o
 .rela.u_boot_list_2_driver_2_spi_flash_std
                0x0000000001156d90       0x60 arch/arm/cpu/armv8/start.o
 .rela.u_boot_list_2_cmd_2_cbusreg
                0x0000000001156df0       0x60 arch/arm/cpu/armv8/start.o
 .rela.u_boot_list_2_cmd_2_macreg
                0x0000000001156e50       0x60 arch/arm/cpu/armv8/start.o
 .rela.u_boot_list_2_cmd_2_phyreg
                0x0000000001156eb0       0x60 arch/arm/cpu/armv8/start.o
 .rela.data.phy_drivers
                0x0000000001156f10       0x30 arch/arm/cpu/armv8/start.o
 .rela.data.genphy_driver
                0x0000000001156f40       0x60 arch/arm/cpu/armv8/start.o
 .rela.u_boot_list_2_env_clbk_2_baudrate
                0x0000000001156fa0       0x30 arch/arm/cpu/armv8/start.o
 .rela.data.device_UART_PORT_AO
                0x0000000001156fd0       0x90 arch/arm/cpu/armv8/start.o
 .rela.data.device_UART_PORT_0
                0x0000000000000000        0x0 arch/arm/cpu/armv8/start.o
 .rela.data.device_UART_PORT_1
                0x0000000000000000        0x0 arch/arm/cpu/armv8/start.o
 .rela.rodata.spifc_ops
                0x0000000001157060       0x90 arch/arm/cpu/armv8/start.o
 .rela.u_boot_list_2_uclass_2_spi_generic
                0x00000000011570f0       0x18 arch/arm/cpu/armv8/start.o
 .rela.u_boot_list_2_driver_2_spi_generic_drv
                0x0000000001157108       0x18 arch/arm/cpu/armv8/start.o
 .rela.u_boot_list_2_uclass_2_spi
                0x0000000001157120       0x48 arch/arm/cpu/armv8/start.o
 .rela.u_boot_list_2_driver_2_spifc
                0x0000000001157168       0x48 arch/arm/cpu/armv8/start.o
 .rela.rodata.getvar_list_dynamic
                0x00000000011571b0      0x360 arch/arm/cpu/armv8/start.o
 .rela.rodata.getvar_list_ab
                0x0000000001157510      0x438 arch/arm/cpu/armv8/start.o
 .rela.rodata.cmd_dispatch_info
                0x0000000001157948      0x2d0 arch/arm/cpu/armv8/start.o
 .rela.rodata.getvar_list
                0x0000000001157c18      0x258 arch/arm/cpu/armv8/start.o
 .rela.data.g_dnl_string_tab
                0x0000000001157e70       0x18 arch/arm/cpu/armv8/start.o
 .rela.data.g_dnl_composite_strings
                0x0000000001157e88       0x18 arch/arm/cpu/armv8/start.o
 .rela.data.g_dnl_driver
                0x0000000001157ea0       0x60 arch/arm/cpu/armv8/start.o
 .rela.data.composite_driver
                0x0000000001157f00       0x90 arch/arm/cpu/armv8/start.o
 .rela.data.g_dnl_string_defs
                0x0000000001157f90       0x48 arch/arm/cpu/armv8/start.o
 .rela.u_boot_list_2_g_dnl_bind_callbacks_2___usb_function_name_usb_dnl_fastboot
                0x0000000001157fd8       0x30 arch/arm/cpu/armv8/start.o
 .rela.data.fastboot_strings
                0x0000000001158008       0x18 arch/arm/cpu/armv8/start.o
 .rela.data.fb_runtime_descs
                0x0000000001158020       0x48 arch/arm/cpu/armv8/start.o
 .rela.data.fastboot_string_defs
                0x0000000001158068       0x18 arch/arm/cpu/armv8/start.o
 .rela.data.stringtab_fastboot
                0x0000000001158080       0x18 arch/arm/cpu/armv8/start.o
 .rela.data.dwc_otg_pcd_ep_ops
                0x0000000001158098       0xa8 arch/arm/cpu/armv8/start.o
 .rela.rodata.filesystems
                0x0000000000000000        0x0 arch/arm/cpu/armv8/start.o
 .rela.rodata.ubifs_super_operations
                0x0000000001158140       0x30 arch/arm/cpu/armv8/start.o
 .rela.rodata.CSWTCH.41
                0x0000000000000000        0x0 arch/arm/cpu/armv8/start.o
 .rela.rodata.CSWTCH.43
                0x0000000000000000        0x0 arch/arm/cpu/armv8/start.o
 .rela.rodata.CSWTCH.39
                0x0000000000000000        0x0 arch/arm/cpu/armv8/start.o
 .rela.rodata.CSWTCH.34
                0x0000000000000000        0x0 arch/arm/cpu/armv8/start.o
 .rela.data.fstypes
                0x0000000001158170      0x240 arch/arm/cpu/armv8/start.o
 .rela.data.lzo_compr
                0x00000000011583b0       0x48 arch/arm/cpu/armv8/start.o
 .rela.data.none_compr
                0x00000000011583f8       0x30 arch/arm/cpu/armv8/start.o
 .rela.data.zlib_compr
                0x0000000001158428       0x48 arch/arm/cpu/armv8/start.o
 .rela.data.ubifs_fs_type
                0x0000000001158470       0x48 arch/arm/cpu/armv8/start.o
 .rela.data.super_blocks
                0x00000000011584b8       0x30 arch/arm/cpu/armv8/start.o
 .rela.rodata.z_errmsg
                0x0000000000000000        0x0 arch/arm/cpu/armv8/start.o
 .rela.rodata.fdt_errtable
                0x00000000011584e8      0x108 arch/arm/cpu/armv8/start.o
 .rela.rodata.list_guid
                0x00000000011585f0       0xc0 arch/arm/cpu/armv8/start.o
 .rela.rodata.CSWTCH.28
                0x0000000000000000        0x0 arch/arm/cpu/armv8/start.o
 .rela.rodata.CSWTCH.8
                0x00000000011586b0       0x90 arch/arm/cpu/armv8/start.o
 .rela.data.current
                0x0000000000000000        0x0 arch/arm/cpu/armv8/start.o
 .rela.u_boot_list_2_cmd_2_uuid
                0x0000000001158740       0x60 arch/arm/cpu/armv8/start.o
 .rela.u_boot_list_2_cmd_2_guid
                0x00000000011587a0       0x60 arch/arm/cpu/armv8/start.o
 .rela.data.algorithm_data
                0x0000000001158800       0x90 arch/arm/cpu/armv8/start.o
 .rela.text.eth_initialize
                0x0000000001158890       0x30 arch/arm/cpu/armv8/start.o
 .rela.u_boot_list_2_env_clbk_2_bootfile
                0x00000000011588c0       0x30 arch/arm/cpu/armv8/start.o

.rel_dyn_end    0x00000000011588f0        0x0
 *(.__rel_dyn_end)
 .__rel_dyn_end
                0x00000000011588f0        0x0 arch/arm/lib/built-in.o
                0x00000000011588f0                _end = .
                0x00000000011588f0                . = ALIGN (0x8)

.bss_start      0x00000000011588f0        0x0
 *(.__bss_start)
 .__bss_start   0x00000000011588f0        0x0 arch/arm/lib/built-in.o
                0x00000000011588f0                __bss_start

.bss            0x0000000001158900   0x124630
 *(.bss*)
 .bss.aml_chip_id
                0x0000000001158900       0x18 arch/arm/cpu/armv8/built-in.o
                0x0000000001158900                aml_chip_id
 .bss.sd_debug_board_1bit_flag
                0x0000000001158918        0x4 arch/arm/cpu/armv8/built-in.o
                0x0000000001158918                sd_debug_board_1bit_flag
 *fill*         0x000000000115891c        0x4 
 .bss.g_usb_cfg
                0x0000000001158920       0x18 arch/arm/cpu/armv8/built-in.o
 .bss.usb_index
                0x0000000001158938        0x4 arch/arm/cpu/armv8/built-in.o
                0x0000000001158938                usb_index
 .bss.Rev_flag  0x000000000115893c        0x4 arch/arm/cpu/armv8/built-in.o
 .bss.sharemem_input_base
                0x0000000001158940        0x8 arch/arm/cpu/armv8/built-in.o
 .bss.sharemem_output_base
                0x0000000001158948        0x8 arch/arm/cpu/armv8/built-in.o
 .bss.hdmitx_device
                0x0000000001158950      0xaf8 arch/arm/cpu/armv8/built-in.o
                0x0000000001158950                hdmitx_device
 .bss.hw_init_flag.6557
                0x0000000001159448        0x4 arch/arm/cpu/armv8/built-in.o
 .bss.ddc_init_flag.6574
                0x000000000115944c        0x4 arch/arm/cpu/armv8/built-in.o
 .bss.buf.5849  0x0000000001159450      0x400 arch/arm/cpu/armv8/built-in.o
 .bss.flag_repeat
                0x0000000001159850        0x4 common/built-in.o
 *fill*         0x0000000001159854        0x4 
 .bss.the_command.5988
                0x0000000001159858      0x208 common/built-in.o
 .bss.ifs       0x0000000001159a60        0x8 common/built-in.o
 .bss.last_return_code
                0x0000000001159a68        0x4 common/built-in.o
 *fill*         0x0000000001159a6c        0x4 
 .bss.map       0x0000000001159a70      0x100 common/built-in.o
 .bss.buf.6188  0x0000000001159b70       0x28 common/built-in.o
 .bss.do_repeat
                0x0000000001159b98        0x4 common/built-in.o
 *fill*         0x0000000001159b9c        0x4 
 .bss.top_vars  0x0000000001159ba0        0x8 common/built-in.o
 .bss.stored_bootdelay
                0x0000000001159ba8        0x4 common/built-in.o
 *fill*         0x0000000001159bac        0x4 
 .bss.monitor_flash_len
                0x0000000001159bb0        0x8 common/built-in.o
                0x0000000001159bb0                monitor_flash_len
 .bss.images    0x0000000001159bb8      0x280 common/built-in.o
                0x0000000001159bb8                images
 .bss.has_boot_slot
                0x0000000001159e38        0x4 common/built-in.o
                0x0000000001159e38                has_boot_slot
 .bss.parts_total_num
                0x0000000001159e3c        0x4 common/built-in.o
 .bss.dynamic_partition
                0x0000000001159e40        0x1 common/built-in.o
                0x0000000001159e40                dynamic_partition
 *fill*         0x0000000001159e41        0x7 
 .bss.part_table
                0x0000000001159e48        0x8 common/built-in.o
                0x0000000001159e48                part_table
 .bss.has_system_slot
                0x0000000001159e50        0x4 common/built-in.o
                0x0000000001159e50                has_system_slot
 *fill*         0x0000000001159e54        0x4 
 .bss.callback_list
                0x0000000001159e58        0x8 common/built-in.o
 .bss.flags_list
                0x0000000001159e60        0x8 common/built-in.o
 .bss.working_fdt
                0x0000000001159e68        0x8 common/built-in.o
                0x0000000001159e68                working_fdt
 .bss.data.5835
                0x0000000001159e70      0x400 common/built-in.o
 .bss.i2c_mm_last_chip
                0x000000000115a270        0x1 common/built-in.o
 *fill*         0x000000000115a271        0x3 
 .bss.i2c_mm_last_addr
                0x000000000115a274        0x4 common/built-in.o
 .bss.i2c_dp_last_chip
                0x000000000115a278        0x1 common/built-in.o
 *fill*         0x000000000115a279        0x3 
 .bss.i2c_mm_last_alen
                0x000000000115a27c        0x4 common/built-in.o
 .bss.i2c_dp_last_addr
                0x000000000115a280        0x4 common/built-in.o
 .bss.i2c_dp_last_alen
                0x000000000115a284        0x4 common/built-in.o
 .bss.part_list
                0x000000000115a288        0x8 common/built-in.o
                0x000000000115a288                part_list
 .bss.send_parms
                0x000000000115a290       0x18 common/built-in.o
 .bss.os_data_addr_saved
                0x000000000115a2a8        0x8 common/built-in.o
 .bss.his_pad_char
                0x000000000115a2b0        0x1 common/built-in.o
 *fill*         0x000000000115a2b1        0x7 
 .bss.a_b       0x000000000115a2b8       0x18 common/built-in.o
 .bss.os_data_char
                0x000000000115a2d0        0x8 common/built-in.o
 .bss.os_data_state
                0x000000000115a2d8        0x4 common/built-in.o
 .bss.k_data_escape
                0x000000000115a2dc        0x4 common/built-in.o
 .bss.os_data_state_saved
                0x000000000115a2e0        0x4 common/built-in.o
 *fill*         0x000000000115a2e4        0x4 
 .bss.os_data_addr
                0x000000000115a2e8        0x8 common/built-in.o
 .bss.send_ptr  0x000000000115a2f0        0x8 common/built-in.o
 .bss.his_pad_count
                0x000000000115a2f8        0x4 common/built-in.o
 *fill*         0x000000000115a2fc        0x4 
 .bss.bin_start_address
                0x000000000115a300        0x8 common/built-in.o
 .bss.his_quote
                0x000000000115a308        0x1 common/built-in.o
 *fill*         0x000000000115a309        0x7 
 .bss.os_data_init
                0x000000000115a310        0x8 common/built-in.o
 .bss.his_eol   0x000000000115a318        0x1 common/built-in.o
 *fill*         0x000000000115a319        0x3 
 .bss.k_data_escape_saved
                0x000000000115a31c        0x4 common/built-in.o
 .bss.dp_last_addr
                0x000000000115a320        0x4 common/built-in.o
 *fill*         0x000000000115a324        0x4 
 .bss.base_address
                0x000000000115a328        0x8 common/built-in.o
 .bss.mm_last_size
                0x000000000115a330        0x4 common/built-in.o
 .bss.mm_last_addr
                0x000000000115a334        0x4 common/built-in.o
 .bss.dp_last_size
                0x000000000115a338        0x4 common/built-in.o
 *fill*         0x000000000115a33c        0x4 
 .bss.current_mii
                0x000000000115a340        0x8 common/built-in.o
 .bss.mii_devs  0x000000000115a348       0x10 common/built-in.o
 .bss.emmc_cur_partition
                0x000000000115a358        0x4 common/built-in.o
                0x000000000115a358                emmc_cur_partition
 *fill*         0x000000000115a35c        0x4 
 .bss.dtb_infos
                0x000000000115a360       0x10 common/built-in.o
 .bss.info_disprotect
                0x000000000115a370        0x4 common/built-in.o
                0x000000000115a370                info_disprotect
 *fill*         0x000000000115a374        0x4 
 .bss._map4SpeedUp.7665
                0x000000000115a378       0x50 common/built-in.o
 .bss._bootloaderOrgCrc
                0x000000000115a3c8        0x8 common/built-in.o
 .bss._info_disprotect_back_before_mmcinfo1
                0x000000000115a3d0        0x4 common/built-in.o
 *fill*         0x000000000115a3d4        0x4 
 .bss.amlmtd_part
                0x000000000115a3d8        0x8 common/built-in.o
                0x000000000115a3d8                amlmtd_part
 .bss.amlmtd_part_cnt
                0x000000000115a3e0        0x4 common/built-in.o
                0x000000000115a3e0                amlmtd_part_cnt
 *fill*         0x000000000115a3e4        0x4 
 .bss.current_mtd_dev
                0x000000000115a3e8        0x8 common/built-in.o
                0x000000000115a3e8                current_mtd_dev
 .bss.last_partition
                0x000000000115a3f0       0x10 common/built-in.o
 .bss.current_mtd_partnum
                0x000000000115a400        0x1 common/built-in.o
                0x000000000115a400                current_mtd_partnum
 *fill*         0x000000000115a401        0x7 
 .bss.devices   0x000000000115a408       0x10 common/built-in.o
 .bss.last.7076
                0x000000000115a418        0x8 common/built-in.o
 .bss.flash     0x000000000115a420        0x8 common/built-in.o
 .bss.bus       0x000000000115a428        0x4 common/built-in.o
 .bss.cs        0x000000000115a42c        0x4 common/built-in.o
 .bss.bitlen    0x000000000115a430        0x4 common/built-in.o
 *fill*         0x000000000115a434        0x4 
 .bss.dout      0x000000000115a438       0x20 common/built-in.o
 .bss.din       0x000000000115a458       0x20 common/built-in.o
 .bss.mode      0x000000000115a478        0x4 common/built-in.o
 *fill*         0x000000000115a47c        0x4 
 .bss.ubi       0x000000000115a480        0x8 common/built-in.o
 .bss.all_dev   0x000000000115a488        0x4 common/built-in.o
 *fill*         0x000000000115a48c        0x4 
 .bss.ubi_dev   0x000000000115a490       0x60 common/built-in.o
 .bss.ubi_initialized
                0x000000000115a4f0        0x4 common/built-in.o
 *fill*         0x000000000115a4f4        0x4 
 .bss.buffer    0x000000000115a4f8       0x50 common/built-in.o
 .bss.ubifs_initialized
                0x000000000115a548        0x4 common/built-in.o
 .bss.ubifs_mounted
                0x000000000115a54c        0x4 common/built-in.o
 .bss.dev_index
                0x000000000115a550        0x4 common/built-in.o
 *fill*         0x000000000115a554       0x2c 
 .bss.usb_dev   0x000000000115a580    0x13800 common/built-in.o
 .bss.asynch_allowed
                0x000000000116dd80        0x4 common/built-in.o
 .bss.usb_started
                0x000000000116dd84        0x1 common/built-in.o
                0x000000000116dd84                usb_started
 *fill*         0x000000000116dd85        0x3 
 .bss.usb_hub_index
                0x000000000116dd88        0x4 common/built-in.o
 *fill*         0x000000000116dd8c        0x4 
 .bss.hub_dev   0x000000000116dd90      0x180 common/built-in.o
 .bss.usb_stor  0x000000000116df10      0x168 common/built-in.o
 .bss.usb_dev_desc
                0x000000000116e078      0x2d0 common/built-in.o
 .bss.usb_max_devs
                0x000000000116e348        0x4 common/built-in.o
 .bss.CBWTag    0x000000000116e34c        0x4 common/built-in.o
 *fill*         0x000000000116e350       0x30 
 .bss.usb_ccb   0x000000000116e380      0x100 common/built-in.o
 .bss.temp_sha2
                0x000000000116e480       0x20 common/built-in.o
                0x000000000116e480                temp_sha2
 .bss.global_chip_id
                0x000000000116e4a0       0x10 common/built-in.o
                0x000000000116e4a0                global_chip_id
 .bss.p_ddr_base
                0x000000000116e4b0        0x8 common/built-in.o
                0x000000000116e4b0                p_ddr_base
 .bss.error_outof_count_flag
                0x000000000116e4b8        0x4 common/built-in.o
                0x000000000116e4b8                error_outof_count_flag
 .bss.enable_ddr_check_boot_reason
                0x000000000116e4bc        0x4 common/built-in.o
                0x000000000116e4bc                enable_ddr_check_boot_reason
 .bss.boot_reason
                0x000000000116e4c0        0x4 common/built-in.o
                0x000000000116e4c0                boot_reason
 *fill*         0x000000000116e4c4        0x4 
 .bss.ddr_sha   0x000000000116e4c8      0x4c8 common/built-in.o
                0x000000000116e4c8                ddr_sha
 .bss.global_boot_times
                0x000000000116e990        0x4 common/built-in.o
                0x000000000116e990                global_boot_times
 .bss.ui_1_32_100step
                0x000000000116e994        0x4 common/built-in.o
                0x000000000116e994                ui_1_32_100step
 .bss.copy_test_flag
                0x000000000116e998        0x4 common/built-in.o
                0x000000000116e998                copy_test_flag
 .bss.pre_fetch_enable
                0x000000000116e99c        0x4 common/built-in.o
                0x000000000116e99c                pre_fetch_enable
 .bss.error_count
                0x000000000116e9a0        0x4 common/built-in.o
                0x000000000116e9a0                error_count
 .bss.bdlr_100step
                0x000000000116e9a4        0x4 common/built-in.o
                0x000000000116e9a4                bdlr_100step
 .bss.vref_en   0x000000000116e9a8        0x4 common/built-in.o
                0x000000000116e9a8                vref_en
 .bss.trim      0x000000000116e9ac        0x4 common/built-in.o
                0x000000000116e9ac                trim
 .bss.ctrlc_was_pressed
                0x000000000116e9b0        0x4 common/built-in.o
 .bss.ctrlc_disabled
                0x000000000116e9b4        0x4 common/built-in.o
 .bss.max_total_mem
                0x000000000116e9b8        0x8 common/built-in.o
 .bss.mem_malloc_brk
                0x000000000116e9c0        0x8 common/built-in.o
                0x000000000116e9c0                mem_malloc_brk
 .bss.max_sbrked_mem
                0x000000000116e9c8        0x8 common/built-in.o
 .bss.current_mallinfo
                0x000000000116e9d0       0x28 common/built-in.o
 .bss.mem_malloc_end
                0x000000000116e9f8        0x8 common/built-in.o
                0x000000000116e9f8                mem_malloc_end
 .bss.top_pad   0x000000000116ea00        0x8 common/built-in.o
 .bss.mem_malloc_start
                0x000000000116ea08        0x8 common/built-in.o
                0x000000000116ea08                mem_malloc_start
 .bss.andr_tmp_str
                0x000000000116ea10      0x208 common/built-in.o
 .bss.devs      0x000000000116ec18       0x60 common/built-in.o
 .bss.stdio_devices
                0x000000000116ec78       0x18 common/built-in.o
                0x000000000116ec78                stdio_devices
 .bss.console_buffer
                0x000000000116ec90      0x208 common/built-in.o
                0x000000000116ec90                console_buffer
 .bss.xyz       0x000000000116ee98      0x448 common/built-in.o
 .bss.fmt_para_vesa_3440x1440p60_43x18
                0x000000000116f2e0       0x78 common/built-in.o
 .bss.fmt_para_vesa_1280x600p60_32x15
                0x000000000116f358       0x78 common/built-in.o
 .bss.fmt_para_vesa_2560x1440p60_16x9
                0x000000000116f3d0       0x78 common/built-in.o
 .bss.fmt_para_vesa_2560x1080p60_64x27
                0x000000000116f448       0x78 common/built-in.o
 .bss.edid_raw_buf
                0x000000000116f4c0      0x100 common/built-in.o
 .bss.osd_enabled
                0x000000000116f5c0        0x4 common/built-in.o
                0x000000000116f5c0                osd_enabled
 *fill*         0x000000000116f5c4        0x4 
 .bss.gdev      0x000000000116f5c8        0x8 common/built-in.o
 .bss.ui_inited
                0x000000000116f5d0        0x4 common/built-in.o
 *fill*         0x000000000116f5d4        0x4 
 .bss.avb_ops_  0x000000000116f5d8       0x70 common/built-in.o
                0x000000000116f5d8                avb_ops_
 .bss.name.6142
                0x000000000116f648       0x28 disk/built-in.o
 .bss.dt_addr   0x000000000116f670        0x8 drivers/built-in.o
 .bss.dts_ready
                0x000000000116f678        0x4 drivers/built-in.o
 .bss.vpp_init_flag
                0x000000000116f67c        0x1 drivers/built-in.o
 *fill*         0x000000000116f67d        0x3 
 .bss.yuv2rgbpos
                0x000000000116f680       0x10 drivers/built-in.o
                0x000000000116f680                yuv2rgbpos
 .bss.bypass_pos
                0x000000000116f690       0x10 drivers/built-in.o
                0x000000000116f690                bypass_pos
 .bss.bypass_pre
                0x000000000116f6a0       0x10 drivers/built-in.o
                0x000000000116f6a0                bypass_pre
 .bss.rgb2yuvpre
                0x000000000116f6b0       0x10 drivers/built-in.o
                0x000000000116f6b0                rgb2yuvpre
 .bss.hdr_lut_param
                0x000000000116f6c0      0x7f8 drivers/built-in.o
                0x000000000116f6c0                hdr_lut_param
 .bss.efuse_buf
                0x000000000116feb8      0x200 drivers/built-in.o
                0x000000000116feb8                efuse_buf
 .bss._efuseKeyInfos
                0x00000000011700b8       0x10 drivers/built-in.o
 .bss.unifykey_item
                0x00000000011700c8        0x8 drivers/built-in.o
 .bss._sofintr  0x00000000011700d0        0x4 drivers/built-in.o
 .bss._auto_burn_time_out_base
                0x00000000011700d4        0x4 drivers/built-in.o
 .bss.this_pcd  0x00000000011700d8      0x180 drivers/built-in.o
                0x00000000011700d8                this_pcd
 .bss._cbReplyCmdId
                0x0000000001170258        0x4 drivers/built-in.o
 *fill*         0x000000000117025c        0x4 
 .bss._resultInfo
                0x0000000001170260      0x200 drivers/built-in.o
 .bss._timeElaspedBeforeLastReport.7578
                0x0000000001170460        0x4 drivers/built-in.o
 .bss.time_out_wait_sof
                0x0000000001170464        0x4 drivers/built-in.o
 .bss.need_check_timeout
                0x0000000001170468        0x4 drivers/built-in.o
 .bss._mediaErr.7499
                0x000000000117046c        0x4 drivers/built-in.o
 .bss._lastReportTick.7577
                0x0000000001170470        0x8 drivers/built-in.o
 .bss._bulk_replyBuf.7531
                0x0000000001170478      0x200 drivers/built-in.o
 .bss._cbUnReportedSz
                0x0000000001170678        0x4 drivers/built-in.o
 .bss.time_out_val
                0x000000000117067c        0x4 drivers/built-in.o
 .bss.curTime_sof
                0x0000000001170680        0x4 drivers/built-in.o
                0x0000000001170680                curTime_sof
 *fill*         0x0000000001170684        0x4 
 .bss.g_dwc_eps
                0x0000000001170688       0xa0 drivers/built-in.o
                0x0000000001170688                g_dwc_eps
 .bss._sofintr_not_occur
                0x0000000001170728        0x4 drivers/built-in.o
 *fill*         0x000000000117072c        0x4 
 .bss._pcd_buff
                0x0000000001170730      0x200 drivers/built-in.o
 .bss.cmdBuf.6444
                0x0000000001170930      0x200 drivers/built-in.o
 .bss._optimusWorkMode
                0x0000000001170b30        0x4 drivers/built-in.o
 *fill*         0x0000000001170b34        0x4 
 .bss._dtb_is_loaded
                0x0000000001170b38        0x8 drivers/built-in.o
 .bss._disk_intialed_ok
                0x0000000001170b40        0x4 drivers/built-in.o
 *fill*         0x0000000001170b44        0x4 
 .bss.sha1Result.6741
                0x0000000001170b48       0x30 drivers/built-in.o
 .bss._ubiDeviceIndex.6565
                0x0000000001170b78        0x4 drivers/built-in.o
 *fill*         0x0000000001170b7c        0x4 
 .bss.verifyResult.6740
                0x0000000001170b80       0x18 drivers/built-in.o
 .bss._isBurnComplete.6815
                0x0000000001170b98        0x4 drivers/built-in.o
 *fill*         0x0000000001170b9c        0x4 
 .bss.OptimusImgBurnInfo
                0x0000000001170ba0       0x60 drivers/built-in.o
 .bss._filledBufValidLen.6334
                0x0000000001170c00        0x4 drivers/built-in.o
 *fill*         0x0000000001170c04        0x4 
 .bss._spPacketStates
                0x0000000001170c08       0x30 drivers/built-in.o
 .bss._progressInfo
                0x0000000001170c38       0x20 drivers/built-in.o
 .bss.theItem.6579
                0x0000000001170c58       0x30 drivers/built-in.o
 .bss.files     0x0000000001170c88       0x70 drivers/built-in.o
 .bss.get_vfatname_block
                0x0000000001170cf8    0x10000 drivers/built-in.o
                0x0000000001170cf8                get_vfatname_block
 .bss._do_fat_read_block
                0x0000000001180cf8    0x10000 drivers/built-in.o
                0x0000000001180cf8                _do_fat_read_block
 .bss.fs_info   0x0000000001190cf8      0x130 drivers/built-in.o
 .bss.part_offset
                0x0000000001190e28        0x8 drivers/built-in.o
 .bss.get_dentfromdir_block
                0x0000000001190e30    0x10000 drivers/built-in.o
 .bss.cur_dev   0x00000000011a0e30        0x8 drivers/built-in.o
 .bss._fd       0x00000000011a0e38        0x8 drivers/built-in.o
 .bss._errInfo  0x00000000011a0e40      0x200 drivers/built-in.o
 .bss.usb_start_count
                0x00000000011a1040        0x4 drivers/built-in.o
                0x00000000011a1040                usb_start_count
 *fill*         0x00000000011a1044        0x4 
 .bss.canvasPool
                0x00000000011a1048     0x1800 drivers/built-in.o
 .bss.canvas_inited
                0x00000000011a2848        0x4 drivers/built-in.o
 .bss.g_rotation_height
                0x00000000011a284c        0x4 drivers/built-in.o
 .bss.save_disp_data.6935
                0x00000000011a2850       0x10 drivers/built-in.o
 .bss.vsync_hit
                0x00000000011a2860        0x1 drivers/built-in.o
 .bss.osd_vf_need_update
                0x00000000011a2861        0x1 drivers/built-in.o
 *fill*         0x00000000011a2862        0x2 
 .bss.osd_log_level
                0x00000000011a2864        0x4 drivers/built-in.o
                0x00000000011a2864                osd_log_level
 .bss.g_rotation_width
                0x00000000011a2868        0x4 drivers/built-in.o
 *fill*         0x00000000011a286c        0x4 
 .bss.osd_hw    0x00000000011a2870      0x438 drivers/built-in.o
                0x00000000011a2870                osd_hw
 .bss.hist_spl_val
                0x00000000011a2ca8      0x4b0 drivers/built-in.o
                0x00000000011a2ca8                hist_spl_val
 .bss.hist_cheoma_sum
                0x00000000011a3158      0x4b0 drivers/built-in.o
                0x00000000011a3158                hist_cheoma_sum
 .bss.fb_gdev   0x00000000011a3608       0x98 drivers/built-in.o
                0x00000000011a3608                fb_gdev
 .bss.initrd_set.6595
                0x00000000011a36a0        0x4 drivers/built-in.o
 *fill*         0x00000000011a36a4        0x4 
 .bss.hist_spl_pix_cnt
                0x00000000011a36a8      0x4b0 drivers/built-in.o
                0x00000000011a36a8                hist_spl_pix_cnt
 .bss.g_pic_info
                0x00000000011a3b58       0x20 drivers/built-in.o
 .bss.img_video_init
                0x00000000011a3b78        0x4 drivers/built-in.o
 *fill*         0x00000000011a3b7c        0x4 
 .bss.hist_max_min
                0x00000000011a3b80      0x4b0 drivers/built-in.o
                0x00000000011a3b80                hist_max_min
 .bss.dolby_status
                0x00000000011a4030        0x8 drivers/built-in.o
 .bss.debug_enable
                0x00000000011a4038        0x4 drivers/built-in.o
 *fill*         0x00000000011a403c        0x4 
 .bss.dovi_mode
                0x00000000011a4040        0x8 drivers/built-in.o
 .bss.dolby_vision_ll_policy
                0x00000000011a4048        0x4 drivers/built-in.o
 *fill*         0x00000000011a404c        0x4 
 .bss.dovi_setting
                0x00000000011a4050     0x34b0 drivers/built-in.o
 .bss.mtx_en_mux
                0x00000000011a7500        0x4 drivers/built-in.o
 .bss.dolby_vision_on
                0x00000000011a7504        0x1 drivers/built-in.o
 *fill*         0x00000000011a7505        0x3 
 .bss.m33Lms2IctcpDm.8187
                0x00000000011a7508       0x18 drivers/built-in.o
 .bss.m33Xyz2Lms.8184
                0x00000000011a7520       0x28 drivers/built-in.o
 .bss.m33Ct.8185
                0x00000000011a7548       0x28 drivers/built-in.o
 .bss.v3.8186   0x00000000011a7570       0x10 drivers/built-in.o
 .bss.dm_metadata_buf1
                0x00000000011a7580    0x10448 drivers/built-in.o
 .bss.dm_metadata_buf2
                0x00000000011b79c8    0x10448 drivers/built-in.o
 .bss.cli_param
                0x00000000011c7e10       0x70 drivers/built-in.o
 .bss.src_comp_metadata
                0x00000000011c7e80      0x708 drivers/built-in.o
 .bss.cp        0x00000000011c8588     0x4e48 drivers/built-in.o
                0x00000000011c8588                cp
 .bss.input_format
                0x00000000011cd3d0        0x4 drivers/built-in.o
 .bss.output_format
                0x00000000011cd3d4        0x4 drivers/built-in.o
 .bss.reg1      0x00000000011cd3d8      0x388 drivers/built-in.o
 .bss.reg2      0x00000000011cd760       0x60 drivers/built-in.o
 .bss.reg3      0x00000000011cd7c0      0x400 drivers/built-in.o
 .bss.ctx_init  0x00000000011cdbc0        0x1 drivers/built-in.o
 *fill*         0x00000000011cdbc1        0x7 
 .bss.md_parser
                0x00000000011cdbc8    0x518e0 drivers/built-in.o
 .bss.ctx       0x000000000121f4a8      0x780 drivers/built-in.o
 .bss.comp_size
                0x000000000121fc28        0x4 drivers/built-in.o
 *fill*         0x000000000121fc2c        0x4 
 .bss.vdr_rpu_data_payload
                0x000000000121fc30     0x7038 drivers/built-in.o
 .bss.md_size   0x0000000001226c68        0x4 drivers/built-in.o
 .bss.frame_nr.6676
                0x0000000001226c6c        0x4 drivers/built-in.o
 .bss.rc        0x0000000001226c70        0x4 drivers/built-in.o
 *fill*         0x0000000001226c74        0x4 
 .bss.vdr_dm_data_payload
                0x0000000001226c78    0x10748 drivers/built-in.o
 .bss.dm_byte_sequence
                0x00000000012373c0    0x10448 drivers/built-in.o
 .bss.rpu_data_header
                0x0000000001247808      0x138 drivers/built-in.o
 .bss.cvbs_drv  0x0000000001247940       0x28 drivers/built-in.o
 .bss.s_enci_clk_path
                0x0000000001247968        0x4 drivers/built-in.o
 .bss.ui_log_level
                0x000000000124796c        0x4 drivers/built-in.o
                0x000000000124796c                ui_log_level
 .bss.gr_backend
                0x0000000001247970        0x8 drivers/built-in.o
 .bss.gr_font   0x0000000001247978        0x8 drivers/built-in.o
                0x0000000001247978                gr_font
 .bss.overscan_offset_x
                0x0000000001247980        0x4 drivers/built-in.o
 .bss.overscan_offset_y
                0x0000000001247984        0x4 drivers/built-in.o
 .bss.gr_framebuffer
                0x0000000001247988       0x30 drivers/built-in.o
 .bss.double_buffered
                0x00000000012479b8        0x1 drivers/built-in.o
 *fill*         0x00000000012479b9        0x7 
 .bss.gr_draw   0x00000000012479c0        0x8 drivers/built-in.o
                0x00000000012479c0                gr_draw
 .bss.gdev      0x00000000012479c8        0x8 drivers/built-in.o
 .bss.displayed_buffer
                0x00000000012479d0        0x4 drivers/built-in.o
 .bss.in_fastboot_mode
                0x00000000012479d4        0x4 drivers/built-in.o
                0x00000000012479d4                in_fastboot_mode
 .bss.storage_share_block_size
                0x00000000012479d8        0x8 drivers/built-in.o
 .bss.storage_init_status
                0x00000000012479e0        0x4 drivers/built-in.o
 *fill*         0x00000000012479e4        0x4 
 .bss.storage_share_out_base
                0x00000000012479e8        0x8 drivers/built-in.o
 .bss.storage_share_in_base
                0x00000000012479f0        0x8 drivers/built-in.o
 .bss.storage_share_block_base
                0x00000000012479f8        0x8 drivers/built-in.o
 .bss.saradc_dev
                0x0000000001247a00       0x18 drivers/built-in.o
 .bss.enabled_flag
                0x0000000001247a18        0x4 drivers/built-in.o
 *fill*         0x0000000001247a1c        0x4 
 .bss.g_i2c_ports
                0x0000000001247a20        0x8 drivers/i2c/built-in.o
                0x0000000001247a20                g_i2c_ports
 .bss.g_aml_i2c_data
                0x0000000001247a28       0x90 drivers/i2c/built-in.o
 .bss.g_cur_bus_num
                0x0000000001247ab8        0x1 drivers/i2c/built-in.o
 .bss.g_bAmlogicI2CInitialized
                0x0000000001247ab9        0x1 drivers/i2c/built-in.o
 *fill*         0x0000000001247aba        0x6 
 .bss.mmc_devices
                0x0000000001247ac0       0x10 drivers/mmc/built-in.o
 .bss.p_iptbl_ept
                0x0000000001247ad0        0x8 drivers/mmc/built-in.o
                0x0000000001247ad0                p_iptbl_ept
 .bss.is_partition_checked
                0x0000000001247ad8        0x1 drivers/mmc/built-in.o
                0x0000000001247ad8                is_partition_checked
 *fill*         0x0000000001247ad9        0x7 
 .bss.mtd_idr   0x0000000001247ae0      0x400 drivers/mtd/built-in.o
 .bss.nand_boot_flag
                0x0000000001247ee0        0x1 drivers/mtd/nand/amlogic_mtd/built-in.o
                0x0000000001247ee0                nand_boot_flag
 *fill*         0x0000000001247ee1        0x7 
 .bss.nand_info
                0x0000000001247ee8      0x500 drivers/mtd/nand/amlogic_mtd/built-in.o
                0x0000000001247ee8                nand_info
 .bss.amlmtd_init.7985
                0x00000000012483e8        0x4 drivers/mtd/nand/amlogic_mtd/built-in.o
 *fill*         0x00000000012483ec        0x4 
 .bss.controller
                0x00000000012483f0        0x8 drivers/mtd/nand/amlogic_mtd/built-in.o
                0x00000000012483f0                controller
 .bss.aml_chip_env
                0x00000000012483f8        0x8 drivers/mtd/nand/amlogic_mtd/built-in.o
                0x00000000012483f8                aml_chip_env
 .bss.aml_chip_dtb
                0x0000000001248400        0x8 drivers/mtd/nand/amlogic_mtd/built-in.o
                0x0000000001248400                aml_chip_dtb
 .bss.aml_chip_key
                0x0000000001248408        0x8 drivers/mtd/nand/amlogic_mtd/built-in.o
 .bss.nand_fbb_issue_flag
                0x0000000001248410        0x4 drivers/mtd/nand/amlogic_mtd/built-in.o
                0x0000000001248410                nand_fbb_issue_flag
 *fill*         0x0000000001248414        0x4 
 .bss.vidh      0x0000000001248418        0x8 drivers/mtd/ubi/built-in.o
 .bss.ech       0x0000000001248420        0x8 drivers/mtd/ubi/built-in.o
 .bss.mtd_devs  0x0000000001248428        0x4 drivers/mtd/ubi/built-in.o
 *fill*         0x000000000124842c        0x4 
 .bss.ubi_class
                0x0000000001248430        0x8 drivers/mtd/ubi/built-in.o
                0x0000000001248430                ubi_class
 .bss.ubi_wl_entry_slab
                0x0000000001248438        0x8 drivers/mtd/ubi/built-in.o
                0x0000000001248438                ubi_wl_entry_slab
 .bss.ubi_devices
                0x0000000001248440      0x100 drivers/mtd/ubi/built-in.o
                0x0000000001248440                ubi_devices
 .bss.mtd_dev_param
                0x0000000001248540      0x980 drivers/mtd/ubi/built-in.o
 .bss.empty_vtbl_record
                0x0000000001248ec0       0xb0 drivers/mtd/ubi/built-in.o
 .bss.dev       0x0000000001248f70        0x8 drivers/net/built-in.o
                0x0000000001248f70                dev
 .bss.do_cali_timeout
                0x0000000001248f78        0x4 drivers/net/built-in.o
                0x0000000001248f78                do_cali_timeout
 *fill*         0x0000000001248f7c        0x4 
 .bss.priv      0x0000000001248f80        0x8 drivers/net/built-in.o
                0x0000000001248f80                priv
 .bss.do_cali_process
                0x0000000001248f88        0x4 drivers/net/built-in.o
                0x0000000001248f88                do_cali_process
 *fill*         0x0000000001248f8c        0x4 
 .bss.serial_devices
                0x0000000001248f90        0x8 drivers/serial/built-in.o
 .bss.serial_current
                0x0000000001248f98        0x8 drivers/serial/built-in.o
 .bss.spi_req_seq
                0x0000000001248fa0        0x4 drivers/spi/built-in.o
 .bss.spifc_flags
                0x0000000001248fa4        0x4 drivers/spi/built-in.o
                0x0000000001248fa4                spifc_flags
 .bss.epnum     0x0000000001248fa8        0x4 drivers/usb/gadget/built-in.o
 *fill*         0x0000000001248fac        0x4 
 .bss.usid_string
                0x0000000001248fb0       0x20 drivers/usb/gadget/built-in.o
                0x0000000001248fb0                usid_string
 .bss.g_dnl_detach_request
                0x0000000001248fd0        0x1 drivers/usb/gadget/built-in.o
 *fill*         0x0000000001248fd1        0x7 
 .bss.composite
                0x0000000001248fd8        0x8 drivers/usb/gadget/built-in.o
 .bss.fastboot_func
                0x0000000001248fe0        0x8 drivers/usb/gadget/built-in.o
 .bss.download_bytes
                0x0000000001248fe8        0x4 drivers/usb/gadget/built-in.o
 .bss.cmdIndex.7362
                0x0000000001248fec        0x4 drivers/usb/gadget/built-in.o
 .bss.i.7477    0x0000000001248ff0        0x4 drivers/usb/gadget/built-in.o
 .bss.download_size
                0x0000000001248ff4        0x4 drivers/usb/gadget/built-in.o
 .bss.response_str
                0x0000000001248ff8       0x48 drivers/usb/gadget/built-in.o
 .bss.fb_sofintr
                0x0000000001249040        0x4 drivers/usb/gadget/built-in.o
                0x0000000001249040                fb_sofintr
 *fill*         0x0000000001249044        0x4 
 .bss.gadget_wrapper
                0x0000000001249048      0x810 drivers/usb/gadget/built-in.o
                0x0000000001249048                gadget_wrapper
 .bss.fb_curTime_sof
                0x0000000001249858        0x4 drivers/usb/gadget/built-in.o
                0x0000000001249858                fb_curTime_sof
 *fill*         0x000000000124985c       0x24 
 .bss.xhcic     0x0000000001249880      0x8c0 drivers/usb/host/built-in.o
 .bss.amlogic   0x000000000124a140       0x48 drivers/usb/host/built-in.o
 .bss.usb_aml_reg
                0x000000000124a188        0x8 drivers/usb/host/built-in.o
                0x000000000124a188                usb_aml_reg
 .bss.fs_partition
                0x000000000124a190       0xa8 fs/built-in.o
 .bss.fs_type   0x000000000124a238        0x4 fs/built-in.o
 *fill*         0x000000000124a23c        0x4 
 .bss.fs_dev_desc
                0x000000000124a240        0x8 fs/built-in.o
 .bss.ext_fs    0x000000000124a248       0x68 fs/built-in.o
                0x000000000124a248                ext_fs
 .bss.ext4fs_indir3_block
                0x000000000124a2b0        0x8 fs/built-in.o
                0x000000000124a2b0                ext4fs_indir3_block
 .bss.ext4fs_root
                0x000000000124a2b8        0x8 fs/built-in.o
                0x000000000124a2b8                ext4fs_root
 .bss.ext4fs_indir3_size
                0x000000000124a2c0        0x4 fs/built-in.o
                0x000000000124a2c0                ext4fs_indir3_size
 *fill*         0x000000000124a2c4        0x4 
 .bss.ext4fs_indir1_block
                0x000000000124a2c8        0x8 fs/built-in.o
                0x000000000124a2c8                ext4fs_indir1_block
 .bss.ext4fs_indir2_size
                0x000000000124a2d0        0x4 fs/built-in.o
                0x000000000124a2d0                ext4fs_indir2_size
 *fill*         0x000000000124a2d4        0x4 
 .bss.ext4fs_indir2_block
                0x000000000124a2d8        0x8 fs/built-in.o
                0x000000000124a2d8                ext4fs_indir2_block
 .bss.ext4fs_indir1_size
                0x000000000124a2e0        0x4 fs/built-in.o
                0x000000000124a2e0                ext4fs_indir1_size
 .bss.symlinknest
                0x000000000124a2e4        0x4 fs/built-in.o
 .bss.ext4fs_file
                0x000000000124a2e8        0x8 fs/built-in.o
                0x000000000124a2e8                ext4fs_file
 .bss.part_info
                0x000000000124a2f0        0x8 fs/built-in.o
 .bss.ext4fs_block_dev_desc
                0x000000000124a2f8        0x8 fs/built-in.o
 .bss.part_offset
                0x000000000124a300        0x8 fs/built-in.o
                0x000000000124a300                part_offset
 *fill*         0x000000000124a308       0x38 
 .bss.do_fat_read_at_block
                0x000000000124a340    0x10000 fs/built-in.o
                0x000000000124a340                do_fat_read_at_block
 .bss.get_dentfromdir_block
                0x000000000125a340    0x10000 fs/built-in.o
                0x000000000125a340                get_dentfromdir_block
 .bss.cur_part_info
                0x000000000126a340       0xa8 fs/built-in.o
 *fill*         0x000000000126a3e8       0x18 
 .bss.get_contents_vfatname_block
                0x000000000126a400    0x10000 fs/built-in.o
                0x000000000126a400                get_contents_vfatname_block
 .bss.cur_dev   0x000000000127a400        0x8 fs/built-in.o
 .bss.ubifs_compressors
                0x000000000127a408       0x18 fs/built-in.o
                0x000000000127a408                ubifs_compressors
 .bss.ubifs_sb  0x000000000127a420        0x8 fs/built-in.o
                0x000000000127a420                ubifs_sb
 .bss.inodes_locked_down
                0x000000000127a428      0x200 fs/built-in.o
 .bss.ubifs_inode_slab
                0x000000000127a628        0x8 fs/built-in.o
                0x000000000127a628                ubifs_inode_slab
 .bss.errno     0x000000000127a630        0x4 lib/built-in.o
                0x000000000127a630                errno
 *fill*         0x000000000127a634        0x4 
 .bss.local.5977
                0x000000000127a638       0x18 lib/built-in.o
 .bss.NetArpWaitPacketIP
                0x000000000127a650        0x4 net/built-in.o
                0x000000000127a650                NetArpWaitPacketIP
 *fill*         0x000000000127a654        0x4 
 .bss.NetArpWaitTimerStart
                0x000000000127a658        0x8 net/built-in.o
                0x000000000127a658                NetArpWaitTimerStart
 .bss.NetArpWaitReplyIP
                0x000000000127a660        0x4 net/built-in.o
 .bss.NetArpWaitTxPacketSize
                0x000000000127a664        0x4 net/built-in.o
                0x000000000127a664                NetArpWaitTxPacketSize
 .bss.NetArpWaitTry
                0x000000000127a668        0x4 net/built-in.o
                0x000000000127a668                NetArpWaitTry
 *fill*         0x000000000127a66c        0x4 
 .bss.NetArpTxPacket
                0x000000000127a670        0x8 net/built-in.o
 .bss.NetArpPacketBuf
                0x000000000127a678      0x640 net/built-in.o
 .bss.NetArpWaitPacketMAC
                0x000000000127acb8        0x8 net/built-in.o
                0x000000000127acb8                NetArpWaitPacketMAC
 .bss.dhcp_state
                0x000000000127acc0        0x4 net/built-in.o
 .bss.BootpTry  0x000000000127acc4        0x4 net/built-in.o
                0x000000000127acc4                BootpTry
 .bss.NetDHCPServerIP
                0x000000000127acc8        0x4 net/built-in.o
 *fill*         0x000000000127accc        0x4 
 .bss.bootp_timeout
                0x000000000127acd0        0x8 net/built-in.o
                0x000000000127acd0                bootp_timeout
 .bss.bootp_ids
                0x000000000127acd8       0x20 net/built-in.o
                0x000000000127acd8                bootp_ids
 .bss.bootp_num_ids
                0x000000000127acf8        0x4 net/built-in.o
                0x000000000127acf8                bootp_num_ids
 *fill*         0x000000000127acfc        0x4 
 .bss.bootp_start
                0x000000000127ad00        0x8 net/built-in.o
                0x000000000127ad00                bootp_start
 .bss.dhcp_leasetime
                0x000000000127ad08        0x4 net/built-in.o
 *fill*         0x000000000127ad0c        0x4 
 .bss.eth_current
                0x000000000127ad10        0x8 net/built-in.o
                0x000000000127ad10                eth_current
 .bss.index.6291
                0x000000000127ad18        0x4 net/built-in.o
 *fill*         0x000000000127ad1c        0x4 
 .bss.act.6343  0x000000000127ad20        0x8 net/built-in.o
 .bss.env_changed_id.6344
                0x000000000127ad28        0x4 net/built-in.o
 *fill*         0x000000000127ad2c        0x4 
 .bss.eth_devices
                0x000000000127ad30        0x8 net/built-in.o
 .bss.first_failed.6338
                0x000000000127ad38        0x8 net/built-in.o
 .bss.NetOurEther
                0x000000000127ad40        0x8 net/built-in.o
                0x000000000127ad40                NetOurEther
 .bss.NetServerIP
                0x000000000127ad48        0x4 net/built-in.o
                0x000000000127ad48                NetServerIP
 .bss.env_changed_id.5986
                0x000000000127ad4c        0x4 net/built-in.o
 .bss.NetRestarted
                0x000000000127ad50        0x4 net/built-in.o
 .bss.net_state
                0x000000000127ad54        0x4 net/built-in.o
                0x000000000127ad54                net_state
 .bss.NetRxPackets
                0x000000000127ad58       0x20 net/built-in.o
                0x000000000127ad58                NetRxPackets
 .bss.NetBootFileSize
                0x000000000127ad78        0x2 net/built-in.o
                0x000000000127ad78                NetBootFileSize
 *fill*         0x000000000127ad7a        0x6 
 .bss.NetEtherNullAddr
                0x000000000127ad80        0x8 net/built-in.o
                0x000000000127ad80                NetEtherNullAddr
 .bss.NetRxPacket
                0x000000000127ad88        0x8 net/built-in.o
                0x000000000127ad88                NetRxPacket
 .bss.udp_packet_handler
                0x000000000127ad90        0x8 net/built-in.o
 .bss.NetDevExists
                0x000000000127ad98        0x4 net/built-in.o
 *fill*         0x000000000127ad9c        0x4 
 .bss.timeStart
                0x000000000127ada0        0x8 net/built-in.o
 .bss.timeHandler
                0x000000000127ada8        0x8 net/built-in.o
 .bss.NetTryCount
                0x000000000127adb0        0x4 net/built-in.o
 *fill*         0x000000000127adb4        0x4 
 .bss.PktBuf    0x000000000127adb8     0x1e40 net/built-in.o
 .bss.NetOurSubnetMask
                0x000000000127cbf8        0x4 net/built-in.o
                0x000000000127cbf8                NetOurSubnetMask
 *fill*         0x000000000127cbfc        0x4 
 .bss.NetTxPacket
                0x000000000127cc00        0x8 net/built-in.o
                0x000000000127cc00                NetTxPacket
 .bss.NetBootFileXferSize
                0x000000000127cc08        0x8 net/built-in.o
                0x000000000127cc08                NetBootFileXferSize
 .bss.NetOurIP  0x000000000127cc10        0x4 net/built-in.o
                0x000000000127cc10                NetOurIP
 .bss.NetOurDNSIP
                0x000000000127cc14        0x4 net/built-in.o
                0x000000000127cc14                NetOurDNSIP
 .bss.NetOurNISDomain
                0x000000000127cc18       0x20 net/built-in.o
                0x000000000127cc18                NetOurNISDomain
 .bss.NetIPID   0x000000000127cc38        0x4 net/built-in.o
                0x000000000127cc38                NetIPID
 *fill*         0x000000000127cc3c        0x4 
 .bss.BootFile  0x000000000127cc40       0x80 net/built-in.o
                0x000000000127cc40                BootFile
 .bss.NetOurGatewayIP
                0x000000000127ccc0        0x4 net/built-in.o
                0x000000000127ccc0                NetOurGatewayIP
 *fill*         0x000000000127ccc4        0x4 
 .bss.EtherPacket
                0x000000000127ccc8      0x100 net/built-in.o
                0x000000000127ccc8                EtherPacket
 .bss.NetOurHostName
                0x000000000127cdc8       0x20 net/built-in.o
                0x000000000127cdc8                NetOurHostName
 .bss.NetRestartWrap
                0x000000000127cde8        0x4 net/built-in.o
                0x000000000127cde8                NetRestartWrap
 .bss.NetRxPacketLen
                0x000000000127cdec        0x4 net/built-in.o
                0x000000000127cdec                NetRxPacketLen
 .bss.arp_packet_handler
                0x000000000127cdf0        0x8 net/built-in.o
 .bss.timeDelta
                0x000000000127cdf8        0x8 net/built-in.o
 .bss.NetServerEther
                0x000000000127ce00        0x8 net/built-in.o
                0x000000000127ce00                NetServerEther
 .bss.start_num.6165
                0x000000000127ce08        0x4 net/built-in.o
 *fill*         0x000000000127ce0c        0x4 
 .bss.NetOurRootPath
                0x000000000127ce10       0x40 net/built-in.o
                0x000000000127ce10                NetOurRootPath
 .bss.NetPingIP
                0x000000000127ce50        0x4 net/built-in.o
                0x000000000127ce50                NetPingIP
 .bss.PingSeqNo
                0x000000000127ce54        0x2 net/built-in.o
 *fill*         0x000000000127ce56        0x2 
 .bss.RarpTry   0x000000000127ce58        0x4 net/built-in.o
                0x000000000127ce58                RarpTry
 *fill*         0x000000000127ce5c        0x4 
 .bss.time_start
                0x000000000127ce60        0x8 net/built-in.o
 .bss.TftpTimeoutCount
                0x000000000127ce68        0x4 net/built-in.o
 *fill*         0x000000000127ce6c        0x4 
 .bss.TftpBlockWrap
                0x000000000127ce70        0x8 net/built-in.o
 .bss.TftpBlock
                0x000000000127ce78        0x8 net/built-in.o
 .bss.TftpOurPort
                0x000000000127ce80        0x4 net/built-in.o
 .bss.TftpRemoteIP
                0x000000000127ce84        0x4 net/built-in.o
 .bss.TftpState
                0x000000000127ce88        0x4 net/built-in.o
 .bss.TftpRemotePort
                0x000000000127ce8c        0x4 net/built-in.o
 .bss.default_filename
                0x000000000127ce90       0x10 net/built-in.o
 .bss.tftp_filename
                0x000000000127cea0       0x80 net/built-in.o
 .bss.TftpBlockWrapOffset
                0x000000000127cf20        0x8 net/built-in.o
 .bss.TftpLastBlock
                0x000000000127cf28        0x8 net/built-in.o
                0x000000000127cf30                . = ALIGN (0x8)

.dynbss         0x000000000127cf30        0x0
 .dynbss        0x0000000000000000        0x0 arch/arm/cpu/armv8/start.o

.bss_end        0x000000000127cf30        0x0
 *(.__bss_end)
 .__bss_end     0x000000000127cf30        0x0 arch/arm/lib/built-in.o
                0x000000000127cf30                __bss_end
                0x0000000000000001                ASSERT ((_end <= 0x1200000), bl33 image has exceeded its limit.)

/DISCARD/
 *(.dynsym)
 *(.dynstr*)
 *(.dynamic*)
 *(.plt*)
 *(.interp*)
 *(.gnu*)
LOAD arch/arm/cpu/armv8/start.o
START GROUP
LOAD arch/arm/cpu/built-in.o
LOAD arch/arm/cpu/armv8/built-in.o
LOAD arch/arm/lib/built-in.o
LOAD board/amlogic/sm1_ac214_v1/built-in.o
LOAD common/built-in.o
LOAD disk/built-in.o
LOAD drivers/built-in.o
LOAD drivers/dma/built-in.o
LOAD drivers/gpio/built-in.o
LOAD drivers/i2c/built-in.o
LOAD drivers/mmc/built-in.o
LOAD drivers/mtd/built-in.o
LOAD drivers/mtd/nand/built-in.o
LOAD drivers/mtd/nand/amlogic_mtd/built-in.o
LOAD drivers/mtd/onenand/built-in.o
LOAD drivers/mtd/spi/built-in.o
LOAD drivers/mtd/ubi/built-in.o
LOAD drivers/net/built-in.o
LOAD drivers/net/phy/built-in.o
LOAD drivers/pci/built-in.o
LOAD drivers/power/built-in.o
LOAD drivers/power/battery/built-in.o
LOAD drivers/power/fuel_gauge/built-in.o
LOAD drivers/power/mfd/built-in.o
LOAD drivers/power/pmic/built-in.o
LOAD drivers/serial/built-in.o
LOAD drivers/spi/built-in.o
LOAD drivers/usb/eth/built-in.o
LOAD drivers/usb/gadget/built-in.o
LOAD drivers/usb/host/built-in.o
LOAD drivers/usb/musb-new/built-in.o
LOAD drivers/usb/musb/built-in.o
LOAD drivers/usb/phy/built-in.o
LOAD drivers/usb/ulpi/built-in.o
LOAD fs/built-in.o
LOAD lib/built-in.o
LOAD net/built-in.o
LOAD test/built-in.o
LOAD test/dm/built-in.o
END GROUP
LOAD /opt/gcc-linaro-aarch64-none-elf-4.8-2013.11_linux/bin/../lib/gcc/aarch64-none-elf/4.8.3/libgcc.a
OUTPUT(u-boot elf64-littleaarch64)

.debug_line     0x0000000000000000    0x57e1a
 .debug_line    0x0000000000000000       0x86 arch/arm/cpu/armv8/start.o
 .debug_line    0x0000000000000086     0x308f arch/arm/cpu/armv8/built-in.o
 .debug_line    0x0000000000003115      0x8fa arch/arm/lib/built-in.o
 .debug_line    0x0000000000003a0f      0x637 board/amlogic/sm1_ac214_v1/built-in.o
 .debug_line    0x0000000000004046    0x1742d common/built-in.o
 .debug_line    0x000000000001b473      0xfb9 disk/built-in.o
 .debug_line    0x000000000001c42c    0x17524 drivers/built-in.o
 .debug_line    0x0000000000033950      0x6f1 drivers/gpio/built-in.o
 .debug_line    0x0000000000034041      0x7a0 drivers/i2c/built-in.o
 .debug_line    0x00000000000347e1     0x1b80 drivers/mmc/built-in.o
 .debug_line    0x0000000000036361      0xb9d drivers/mtd/built-in.o
 .debug_line    0x0000000000036efe     0x2c90 drivers/mtd/nand/built-in.o
 .debug_line    0x0000000000039b8e     0x30bd drivers/mtd/nand/amlogic_mtd/built-in.o
 .debug_line    0x000000000003cc4b      0xb53 drivers/mtd/spi/built-in.o
 .debug_line    0x000000000003d79e     0x3da2 drivers/mtd/ubi/built-in.o
 .debug_line    0x0000000000041540      0x44a drivers/net/built-in.o
 .debug_line    0x000000000004198a      0x58c drivers/net/phy/built-in.o
 .debug_line    0x0000000000041f16      0x74f drivers/serial/built-in.o
 .debug_line    0x0000000000042665      0x74a drivers/spi/built-in.o
 .debug_line    0x0000000000042daf     0x22a2 drivers/usb/gadget/built-in.o
 .debug_line    0x0000000000045051     0x1378 drivers/usb/host/built-in.o
 .debug_line    0x00000000000463c9     0x78f6 fs/built-in.o
 .debug_line    0x000000000004dcbf     0x88c1 lib/built-in.o
 .debug_line    0x0000000000056580     0x189a net/built-in.o

.debug_info     0x0000000000000000   0x27a697
 .debug_info    0x0000000000000000       0xa3 arch/arm/cpu/armv8/start.o
 .debug_info    0x00000000000000a3    0x14486 arch/arm/cpu/armv8/built-in.o
 .debug_info    0x0000000000014529     0x3293 arch/arm/lib/built-in.o
 .debug_info    0x00000000000177bc     0x3532 board/amlogic/sm1_ac214_v1/built-in.o
 .debug_info    0x000000000001acee    0xa6a31 common/built-in.o
 .debug_info    0x00000000000c171f     0x5df3 disk/built-in.o
 .debug_info    0x00000000000c7512    0x9211d drivers/built-in.o
 .debug_info    0x000000000015962f     0x27d2 drivers/gpio/built-in.o
 .debug_info    0x000000000015be01     0x2b01 drivers/i2c/built-in.o
 .debug_info    0x000000000015e902     0xc04b drivers/mmc/built-in.o
 .debug_info    0x000000000016a94d     0x40b9 drivers/mtd/built-in.o
 .debug_info    0x000000000016ea06    0x1446d drivers/mtd/nand/built-in.o
 .debug_info    0x0000000000182e73    0x1fdc0 drivers/mtd/nand/amlogic_mtd/built-in.o
 .debug_info    0x00000000001a2c33     0x4e24 drivers/mtd/spi/built-in.o
 .debug_info    0x00000000001a7a57    0x213c2 drivers/mtd/ubi/built-in.o
 .debug_info    0x00000000001c8e19     0x234b drivers/net/built-in.o
 .debug_info    0x00000000001cb164     0x21f9 drivers/net/phy/built-in.o
 .debug_info    0x00000000001cd35d     0x2523 drivers/serial/built-in.o
 .debug_info    0x00000000001cf880     0x3ad7 drivers/spi/built-in.o
 .debug_info    0x00000000001d3357    0x10883 drivers/usb/gadget/built-in.o
 .debug_info    0x00000000001e3bda     0xae46 drivers/usb/host/built-in.o
 .debug_info    0x00000000001eea20    0x597d7 fs/built-in.o
 .debug_info    0x00000000002481f7    0x280d4 lib/built-in.o
 .debug_info    0x00000000002702cb     0xa3cc net/built-in.o

.debug_abbrev   0x0000000000000000    0x49338
 .debug_abbrev  0x0000000000000000       0x14 arch/arm/cpu/armv8/start.o
 .debug_abbrev  0x0000000000000014     0x31ae arch/arm/cpu/armv8/built-in.o
 .debug_abbrev  0x00000000000031c2      0xbb0 arch/arm/lib/built-in.o
 .debug_abbrev  0x0000000000003d72      0x779 board/amlogic/sm1_ac214_v1/built-in.o
 .debug_abbrev  0x00000000000044eb    0x154ef common/built-in.o
 .debug_abbrev  0x00000000000199da      0xeb2 disk/built-in.o
 .debug_abbrev  0x000000000001a88c     0xeda8 drivers/built-in.o
 .debug_abbrev  0x0000000000029634      0x613 drivers/gpio/built-in.o
 .debug_abbrev  0x0000000000029c47      0x479 drivers/i2c/built-in.o
 .debug_abbrev  0x000000000002a0c0     0x1568 drivers/mmc/built-in.o
 .debug_abbrev  0x000000000002b628      0x8b5 drivers/mtd/built-in.o
 .debug_abbrev  0x000000000002bedd     0x1840 drivers/mtd/nand/built-in.o
 .debug_abbrev  0x000000000002d71d     0x24d1 drivers/mtd/nand/amlogic_mtd/built-in.o
 .debug_abbrev  0x000000000002fbee      0xe2b drivers/mtd/spi/built-in.o
 .debug_abbrev  0x0000000000030a19     0x3674 drivers/mtd/ubi/built-in.o
 .debug_abbrev  0x000000000003408d      0x459 drivers/net/built-in.o
 .debug_abbrev  0x00000000000344e6      0x480 drivers/net/phy/built-in.o
 .debug_abbrev  0x0000000000034966      0x7d9 drivers/serial/built-in.o
 .debug_abbrev  0x000000000003513f      0x7bf drivers/spi/built-in.o
 .debug_abbrev  0x00000000000358fe     0x1e24 drivers/usb/gadget/built-in.o
 .debug_abbrev  0x0000000000037722     0x1226 drivers/usb/host/built-in.o
 .debug_abbrev  0x0000000000038948     0x71ca fs/built-in.o
 .debug_abbrev  0x000000000003fb12     0x7d20 lib/built-in.o
 .debug_abbrev  0x0000000000047832     0x1b06 net/built-in.o

.debug_aranges  0x0000000000000000    0x11080
 .debug_aranges
                0x0000000000000000       0x30 arch/arm/cpu/armv8/start.o
 .debug_aranges
                0x0000000000000030      0xb30 arch/arm/cpu/armv8/built-in.o
 .debug_aranges
                0x0000000000000b60      0x2e0 arch/arm/lib/built-in.o
 .debug_aranges
                0x0000000000000e40      0x190 board/amlogic/sm1_ac214_v1/built-in.o
 .debug_aranges
                0x0000000000000fd0     0x4bd0 common/built-in.o
 .debug_aranges
                0x0000000000005ba0      0x320 disk/built-in.o
 .debug_aranges
                0x0000000000005ec0     0x3f60 drivers/built-in.o
 .debug_aranges
                0x0000000000009e20      0x1e0 drivers/gpio/built-in.o
 .debug_aranges
                0x000000000000a000      0x1b0 drivers/i2c/built-in.o
 .debug_aranges
                0x000000000000a1b0      0x660 drivers/mmc/built-in.o
 .debug_aranges
                0x000000000000a810      0x3c0 drivers/mtd/built-in.o
 .debug_aranges
                0x000000000000abd0      0x850 drivers/mtd/nand/built-in.o
 .debug_aranges
                0x000000000000b420      0x6e0 drivers/mtd/nand/amlogic_mtd/built-in.o
 .debug_aranges
                0x000000000000bb00      0x280 drivers/mtd/spi/built-in.o
 .debug_aranges
                0x000000000000bd80      0x9c0 drivers/mtd/ubi/built-in.o
 .debug_aranges
                0x000000000000c740       0xd0 drivers/net/built-in.o
 .debug_aranges
                0x000000000000c810      0x170 drivers/net/phy/built-in.o
 .debug_aranges
                0x000000000000c980      0x320 drivers/serial/built-in.o
 .debug_aranges
                0x000000000000cca0      0x1c0 drivers/spi/built-in.o
 .debug_aranges
                0x000000000000ce60      0x790 drivers/usb/gadget/built-in.o
 .debug_aranges
                0x000000000000d5f0      0x300 drivers/usb/host/built-in.o
 .debug_aranges
                0x000000000000d8f0     0x1650 fs/built-in.o
 .debug_aranges
                0x000000000000ef40     0x1bf0 lib/built-in.o
 .debug_aranges
                0x0000000000010b30      0x550 net/built-in.o

.comment        0x0000000000000000       0x5f
 .comment       0x0000000000000000       0x5f arch/arm/cpu/armv8/built-in.o
                                        0x780 (size before relaxing)
 .comment       0x0000000000000000      0x240 arch/arm/lib/built-in.o
 .comment       0x0000000000000000       0xc0 board/amlogic/sm1_ac214_v1/built-in.o
 .comment       0x0000000000000000     0x29a0 common/built-in.o
 .comment       0x0000000000000000      0x180 disk/built-in.o
 .comment       0x0000000000000000     0x1d40 drivers/built-in.o
 .comment       0x0000000000000000       0xc0 drivers/gpio/built-in.o
 .comment       0x0000000000000000       0x60 drivers/i2c/built-in.o
 .comment       0x0000000000000000      0x1e0 drivers/mmc/built-in.o
 .comment       0x0000000000000000       0xc0 drivers/mtd/built-in.o
 .comment       0x0000000000000000      0x240 drivers/mtd/nand/built-in.o
 .comment       0x0000000000000000      0x360 drivers/mtd/nand/amlogic_mtd/built-in.o
 .comment       0x0000000000000000      0x240 drivers/mtd/spi/built-in.o
 .comment       0x0000000000000000      0x480 drivers/mtd/ubi/built-in.o
 .comment       0x0000000000000000       0x60 drivers/net/built-in.o
 .comment       0x0000000000000000       0x60 drivers/net/phy/built-in.o
 .comment       0x0000000000000000       0xc0 drivers/serial/built-in.o
 .comment       0x0000000000000000       0xc0 drivers/spi/built-in.o
 .comment       0x0000000000000000      0x2a0 drivers/usb/gadget/built-in.o
 .comment       0x0000000000000000      0x180 drivers/usb/host/built-in.o
 .comment       0x0000000000000000      0x900 fs/built-in.o
 .comment       0x0000000000000000     0x1680 lib/built-in.o
 .comment       0x0000000000000000      0x2a0 net/built-in.o

.debug_frame    0x0000000000000000    0x2c310
 .debug_frame   0x0000000000000000     0x1538 arch/arm/cpu/armv8/built-in.o
 .debug_frame   0x0000000000001538      0x3f0 arch/arm/lib/built-in.o
 .debug_frame   0x0000000000001928      0x338 board/amlogic/sm1_ac214_v1/built-in.o
 .debug_frame   0x0000000000001c60     0xcd28 common/built-in.o
 .debug_frame   0x000000000000e988      0x988 disk/built-in.o
 .debug_frame   0x000000000000f310     0x9fa8 drivers/built-in.o
 .debug_frame   0x00000000000192b8      0x4c8 drivers/gpio/built-in.o
 .debug_frame   0x0000000000019780      0x508 drivers/i2c/built-in.o
 .debug_frame   0x0000000000019c88     0x11c0 drivers/mmc/built-in.o
 .debug_frame   0x000000000001ae48      0x980 drivers/mtd/built-in.o
 .debug_frame   0x000000000001b7c8     0x1c08 drivers/mtd/nand/built-in.o
 .debug_frame   0x000000000001d3d0     0x1570 drivers/mtd/nand/amlogic_mtd/built-in.o
 .debug_frame   0x000000000001e940      0x5a8 drivers/mtd/spi/built-in.o
 .debug_frame   0x000000000001eee8     0x1bc0 drivers/mtd/ubi/built-in.o
 .debug_frame   0x0000000000020aa8      0x2a0 drivers/net/built-in.o
 .debug_frame   0x0000000000020d48      0x410 drivers/net/phy/built-in.o
 .debug_frame   0x0000000000021158      0x688 drivers/serial/built-in.o
 .debug_frame   0x00000000000217e0      0x518 drivers/spi/built-in.o
 .debug_frame   0x0000000000021cf8     0x1350 drivers/usb/gadget/built-in.o
 .debug_frame   0x0000000000023048      0x8a0 drivers/usb/host/built-in.o
 .debug_frame   0x00000000000238e8     0x3d00 fs/built-in.o
 .debug_frame   0x00000000000275e8     0x3f10 lib/built-in.o
 .debug_frame   0x000000000002b4f8      0xe18 net/built-in.o

.debug_str      0x0000000000000000    0x393f1
 .debug_str     0x0000000000000000     0x3938 arch/arm/cpu/armv8/built-in.o
                                       0xa7df (size before relaxing)
 .debug_str     0x0000000000003938     0x1060 arch/arm/lib/built-in.o
                                       0x2833 (size before relaxing)
 .debug_str     0x0000000000004998      0xd90 board/amlogic/sm1_ac214_v1/built-in.o
                                       0x1c74 (size before relaxing)
 .debug_str     0x0000000000005728    0x104da common/built-in.o
                                      0x492ca (size before relaxing)
 .debug_str     0x0000000000015c02      0x5b1 disk/built-in.o
                                       0x2152 (size before relaxing)
 .debug_str     0x00000000000161b3    0x133e7 drivers/built-in.o
                                      0x41c92 (size before relaxing)
 .debug_str     0x000000000002959a      0x244 drivers/gpio/built-in.o
                                       0x139f (size before relaxing)
 .debug_str     0x00000000000297de      0x514 drivers/i2c/built-in.o
                                        0xb4b (size before relaxing)
 .debug_str     0x0000000000029cf2      0xfce drivers/mmc/built-in.o
                                       0x3c3a (size before relaxing)
 .debug_str     0x000000000002acc0      0x42f drivers/mtd/built-in.o
                                       0x15bf (size before relaxing)
 .debug_str     0x000000000002b0ef     0x1051 drivers/mtd/nand/built-in.o
                                       0x6b18 (size before relaxing)
 .debug_str     0x000000000002c140     0x16c9 drivers/mtd/nand/amlogic_mtd/built-in.o
                                       0xdb22 (size before relaxing)
 .debug_str     0x000000000002d809      0x592 drivers/mtd/spi/built-in.o
                                       0x2c8f (size before relaxing)
 .debug_str     0x000000000002dd9b     0x13a4 drivers/mtd/ubi/built-in.o
                                       0xc96a (size before relaxing)
 .debug_str     0x000000000002f13f      0x3a9 drivers/net/built-in.o
                                        0xb8f (size before relaxing)
 .debug_str     0x000000000002f4e8      0x1cb drivers/net/phy/built-in.o
                                        0x92e (size before relaxing)
 .debug_str     0x000000000002f6b3      0x44d drivers/serial/built-in.o
                                       0x1018 (size before relaxing)
 .debug_str     0x000000000002fb00      0x31b drivers/spi/built-in.o
                                       0x17a3 (size before relaxing)
 .debug_str     0x000000000002fe1b     0x11f0 drivers/usb/gadget/built-in.o
                                       0x6020 (size before relaxing)
 .debug_str     0x000000000003100b     0x1309 drivers/usb/host/built-in.o
                                       0x48af (size before relaxing)
 .debug_str     0x0000000000032314     0x32a3 fs/built-in.o
                                      0x27251 (size before relaxing)
 .debug_str     0x00000000000355b7     0x2f4e lib/built-in.o
                                      0x140b1 (size before relaxing)
 .debug_str     0x0000000000038505      0xeec net/built-in.o
                                       0x5742 (size before relaxing)

.debug_loc      0x0000000000000000   0x1e4c9e
 .debug_loc     0x0000000000000000     0xb638 arch/arm/cpu/armv8/built-in.o
 .debug_loc     0x000000000000b638      0xbdd arch/arm/lib/built-in.o
 .debug_loc     0x000000000000c215      0x704 board/amlogic/sm1_ac214_v1/built-in.o
 .debug_loc     0x000000000000c919    0x87148 common/built-in.o
 .debug_loc     0x0000000000093a61     0x4a91 disk/built-in.o
 .debug_loc     0x00000000000984f2    0x77289 drivers/built-in.o
 .debug_loc     0x000000000010f77b     0x1d9c drivers/gpio/built-in.o
 .debug_loc     0x0000000000111517     0x24cc drivers/i2c/built-in.o
 .debug_loc     0x00000000001139e3     0xa5b0 drivers/mmc/built-in.o
 .debug_loc     0x000000000011df93     0x4cb2 drivers/mtd/built-in.o
 .debug_loc     0x0000000000122c45    0x14e53 drivers/mtd/nand/built-in.o
 .debug_loc     0x0000000000137a98     0xfd98 drivers/mtd/nand/amlogic_mtd/built-in.o
 .debug_loc     0x0000000000147830     0x30c9 drivers/mtd/spi/built-in.o
 .debug_loc     0x000000000014a8f9    0x16529 drivers/mtd/ubi/built-in.o
 .debug_loc     0x0000000000160e22     0x2653 drivers/net/built-in.o
 .debug_loc     0x0000000000163475     0x22ad drivers/net/phy/built-in.o
 .debug_loc     0x0000000000165722     0x13a1 drivers/serial/built-in.o
 .debug_loc     0x0000000000166ac3     0x2f4f drivers/spi/built-in.o
 .debug_loc     0x0000000000169a12     0x8ee7 drivers/usb/gadget/built-in.o
 .debug_loc     0x00000000001728f9     0x87f4 drivers/usb/host/built-in.o
 .debug_loc     0x000000000017b0ed    0x2fde5 fs/built-in.o
 .debug_loc     0x00000000001aaed2    0x3395a lib/built-in.o
 .debug_loc     0x00000000001de82c     0x6472 net/built-in.o

.debug_ranges   0x0000000000000000    0x280b0
 .debug_ranges  0x0000000000000000      0xce0 arch/arm/cpu/armv8/built-in.o
 .debug_ranges  0x0000000000000ce0      0x210 arch/arm/lib/built-in.o
 .debug_ranges  0x0000000000000ef0      0x260 board/amlogic/sm1_ac214_v1/built-in.o
 .debug_ranges  0x0000000000001150     0x8740 common/built-in.o
 .debug_ranges  0x0000000000009890      0x750 disk/built-in.o
 .debug_ranges  0x0000000000009fe0     0xcd20 drivers/built-in.o
 .debug_ranges  0x0000000000016d00      0x1f0 drivers/gpio/built-in.o
 .debug_ranges  0x0000000000016ef0      0x370 drivers/i2c/built-in.o
 .debug_ranges  0x0000000000017260      0xa80 drivers/mmc/built-in.o
 .debug_ranges  0x0000000000017ce0      0x5b0 drivers/mtd/built-in.o
 .debug_ranges  0x0000000000018290     0x1900 drivers/mtd/nand/built-in.o
 .debug_ranges  0x0000000000019b90      0xd40 drivers/mtd/nand/amlogic_mtd/built-in.o
 .debug_ranges  0x000000000001a8d0      0x3f0 drivers/mtd/spi/built-in.o
 .debug_ranges  0x000000000001acc0     0x1c20 drivers/mtd/ubi/built-in.o
 .debug_ranges  0x000000000001c8e0      0x330 drivers/net/built-in.o
 .debug_ranges  0x000000000001cc10      0x3e0 drivers/net/phy/built-in.o
 .debug_ranges  0x000000000001cff0      0x3e0 drivers/serial/built-in.o
 .debug_ranges  0x000000000001d3d0      0x460 drivers/spi/built-in.o
 .debug_ranges  0x000000000001d830     0x10a0 drivers/usb/gadget/built-in.o
 .debug_ranges  0x000000000001e8d0      0xac0 drivers/usb/host/built-in.o
 .debug_ranges  0x000000000001f390     0x4b80 fs/built-in.o
 .debug_ranges  0x0000000000023f10     0x3530 lib/built-in.o
 .debug_ranges  0x0000000000027440      0xc70 net/built-in.o
