_ZN7android4hidl6memory4V1_010BnHwMapper10onTransactEjRKNS_8hardware6ParcelEPS5_jNSt3__18functionIFvRS5_EEE
_ZN7android4hidl6memory4V1_010BnHwMapper12getDebugInfoENSt3__18functionIFvRKNS0_4base4V1_09DebugInfoEEEE
_ZN7android4hidl6memory4V1_010BnHwMapper15_hidl_mapMemoryEPNS0_4base4V1_08BnHwBaseERKNS_8hardware6ParcelEPS9_NSt3__18functionIFvRS9_EEE
_ZN7android4hidl6memory4V1_010BnHwMapper4pingEv
_ZN7android4hidl6memory4V1_010BnHwMapperC1ERKNS_2spINS2_7IMapperEEE
_ZN7android4hidl6memory4V1_010BnHwMapperC2ERKNS_2spINS2_7IMapperEEE
_ZN7android4hidl6memory4V1_010BnHwMapperD0Ev
_ZN7android4hidl6memory4V1_010BnHwMapperD1Ev
_ZN7android4hidl6memory4V1_010BnHwMapperD2Ev
_ZN7android4hidl6memory4V1_010BnHwMemory10_hidl_readEPNS0_4base4V1_08BnHwBaseERKNS_8hardware6ParcelEPS9_NSt3__18functionIFvRS9_EEE
_ZN7android4hidl6memory4V1_010BnHwMemory10onTransactEjRKNS_8hardware6ParcelEPS5_jNSt3__18functionIFvRS5_EEE
_ZN7android4hidl6memory4V1_010BnHwMemory12_hidl_commitEPNS0_4base4V1_08BnHwBaseERKNS_8hardware6ParcelEPS9_NSt3__18functionIFvRS9_EEE
_ZN7android4hidl6memory4V1_010BnHwMemory12_hidl_updateEPNS0_4base4V1_08BnHwBaseERKNS_8hardware6ParcelEPS9_NSt3__18functionIFvRS9_EEE
_ZN7android4hidl6memory4V1_010BnHwMemory12getDebugInfoENSt3__18functionIFvRKNS0_4base4V1_09DebugInfoEEEE
_ZN7android4hidl6memory4V1_010BnHwMemory13_hidl_getSizeEPNS0_4base4V1_08BnHwBaseERKNS_8hardware6ParcelEPS9_NSt3__18functionIFvRS9_EEE
_ZN7android4hidl6memory4V1_010BnHwMemory15_hidl_readRangeEPNS0_4base4V1_08BnHwBaseERKNS_8hardware6ParcelEPS9_NSt3__18functionIFvRS9_EEE
_ZN7android4hidl6memory4V1_010BnHwMemory16_hidl_getPointerEPNS0_4base4V1_08BnHwBaseERKNS_8hardware6ParcelEPS9_NSt3__18functionIFvRS9_EEE
_ZN7android4hidl6memory4V1_010BnHwMemory17_hidl_updateRangeEPNS0_4base4V1_08BnHwBaseERKNS_8hardware6ParcelEPS9_NSt3__18functionIFvRS9_EEE
_ZN7android4hidl6memory4V1_010BnHwMemory4pingEv
_ZN7android4hidl6memory4V1_010BnHwMemoryC1ERKNS_2spINS2_7IMemoryEEE
_ZN7android4hidl6memory4V1_010BnHwMemoryC2ERKNS_2spINS2_7IMemoryEEE
_ZN7android4hidl6memory4V1_010BnHwMemoryD0Ev
_ZN7android4hidl6memory4V1_010BnHwMemoryD1Ev
_ZN7android4hidl6memory4V1_010BnHwMemoryD2Ev
_ZN7android4hidl6memory4V1_010BpHwMapper11linkToDeathERKNS_2spINS_8hardware20hidl_death_recipientEEEy
_ZN7android4hidl6memory4V1_010BpHwMapper12getDebugInfoENSt3__18functionIFvRKNS0_4base4V1_09DebugInfoEEEE
_ZN7android4hidl6memory4V1_010BpHwMapper12getHashChainENSt3__18functionIFvRKNS_8hardware8hidl_vecINS6_10hidl_arrayIhLj32EJEEEEEEEE
_ZN7android4hidl6memory4V1_010BpHwMapper13unlinkToDeathERKNS_2spINS_8hardware20hidl_death_recipientEEE
_ZN7android4hidl6memory4V1_010BpHwMapper14interfaceChainENSt3__18functionIFvRKNS_8hardware8hidl_vecINS6_11hidl_stringEEEEEE
_ZN7android4hidl6memory4V1_010BpHwMapper15_hidl_mapMemoryEPNS_8hardware10IInterfaceEPNS4_7details16HidlInstrumentorERKNS4_11hidl_memoryE
_ZN7android4hidl6memory4V1_010BpHwMapper19interfaceDescriptorENSt3__18functionIFvRKNS_8hardware11hidl_stringEEEE
_ZN7android4hidl6memory4V1_010BpHwMapper21notifySyspropsChangedEv
_ZN7android4hidl6memory4V1_010BpHwMapper21setHALInstrumentationEv
_ZN7android4hidl6memory4V1_010BpHwMapper4pingEv
_ZN7android4hidl6memory4V1_010BpHwMapper5debugERKNS_8hardware11hidl_handleERKNS4_8hidl_vecINS4_11hidl_stringEEE
_ZN7android4hidl6memory4V1_010BpHwMapper9mapMemoryERKNS_8hardware11hidl_memoryE
_ZN7android4hidl6memory4V1_010BpHwMapperC1ERKNS_2spINS_8hardware7IBinderEEE
_ZN7android4hidl6memory4V1_010BpHwMapperC2ERKNS_2spINS_8hardware7IBinderEEE
_ZN7android4hidl6memory4V1_010BpHwMemory10_hidl_readEPNS_8hardware10IInterfaceEPNS4_7details16HidlInstrumentorE
_ZN7android4hidl6memory4V1_010BpHwMemory10getPointerEv
_ZN7android4hidl6memory4V1_010BpHwMemory11linkToDeathERKNS_2spINS_8hardware20hidl_death_recipientEEEy
_ZN7android4hidl6memory4V1_010BpHwMemory11updateRangeEyy
_ZN7android4hidl6memory4V1_010BpHwMemory12_hidl_commitEPNS_8hardware10IInterfaceEPNS4_7details16HidlInstrumentorE
_ZN7android4hidl6memory4V1_010BpHwMemory12_hidl_updateEPNS_8hardware10IInterfaceEPNS4_7details16HidlInstrumentorE
_ZN7android4hidl6memory4V1_010BpHwMemory12getDebugInfoENSt3__18functionIFvRKNS0_4base4V1_09DebugInfoEEEE
_ZN7android4hidl6memory4V1_010BpHwMemory12getHashChainENSt3__18functionIFvRKNS_8hardware8hidl_vecINS6_10hidl_arrayIhLj32EJEEEEEEEE
_ZN7android4hidl6memory4V1_010BpHwMemory13_hidl_getSizeEPNS_8hardware10IInterfaceEPNS4_7details16HidlInstrumentorE
_ZN7android4hidl6memory4V1_010BpHwMemory13unlinkToDeathERKNS_2spINS_8hardware20hidl_death_recipientEEE
_ZN7android4hidl6memory4V1_010BpHwMemory14interfaceChainENSt3__18functionIFvRKNS_8hardware8hidl_vecINS6_11hidl_stringEEEEEE
_ZN7android4hidl6memory4V1_010BpHwMemory15_hidl_readRangeEPNS_8hardware10IInterfaceEPNS4_7details16HidlInstrumentorEyy
_ZN7android4hidl6memory4V1_010BpHwMemory16_hidl_getPointerEPNS_8hardware10IInterfaceEPNS4_7details16HidlInstrumentorE
_ZN7android4hidl6memory4V1_010BpHwMemory17_hidl_updateRangeEPNS_8hardware10IInterfaceEPNS4_7details16HidlInstrumentorEyy
_ZN7android4hidl6memory4V1_010BpHwMemory19interfaceDescriptorENSt3__18functionIFvRKNS_8hardware11hidl_stringEEEE
_ZN7android4hidl6memory4V1_010BpHwMemory21notifySyspropsChangedEv
_ZN7android4hidl6memory4V1_010BpHwMemory21setHALInstrumentationEv
_ZN7android4hidl6memory4V1_010BpHwMemory4pingEv
_ZN7android4hidl6memory4V1_010BpHwMemory4readEv
_ZN7android4hidl6memory4V1_010BpHwMemory5debugERKNS_8hardware11hidl_handleERKNS4_8hidl_vecINS4_11hidl_stringEEE
_ZN7android4hidl6memory4V1_010BpHwMemory6commitEv
_ZN7android4hidl6memory4V1_010BpHwMemory6updateEv
_ZN7android4hidl6memory4V1_010BpHwMemory7getSizeEv
_ZN7android4hidl6memory4V1_010BpHwMemory9readRangeEyy
_ZN7android4hidl6memory4V1_010BpHwMemoryC1ERKNS_2spINS_8hardware7IBinderEEE
_ZN7android4hidl6memory4V1_010BpHwMemoryC2ERKNS_2spINS_8hardware7IBinderEEE
_ZN7android4hidl6memory4V1_07IMapper10descriptorE
_ZN7android4hidl6memory4V1_07IMapper10getServiceERKNSt3__112basic_stringIcNS4_11char_traitsIcEENS4_9allocatorIcEEEEb
_ZN7android4hidl6memory4V1_07IMapper11linkToDeathERKNS_2spINS_8hardware20hidl_death_recipientEEEy
_ZN7android4hidl6memory4V1_07IMapper12getDebugInfoENSt3__18functionIFvRKNS0_4base4V1_09DebugInfoEEEE
_ZN7android4hidl6memory4V1_07IMapper12getHashChainENSt3__18functionIFvRKNS_8hardware8hidl_vecINS6_10hidl_arrayIhLj32EJEEEEEEEE
_ZN7android4hidl6memory4V1_07IMapper13tryGetServiceERKNSt3__112basic_stringIcNS4_11char_traitsIcEENS4_9allocatorIcEEEEb
_ZN7android4hidl6memory4V1_07IMapper13unlinkToDeathERKNS_2spINS_8hardware20hidl_death_recipientEEE
_ZN7android4hidl6memory4V1_07IMapper14interfaceChainENSt3__18functionIFvRKNS_8hardware8hidl_vecINS6_11hidl_stringEEEEEE
_ZN7android4hidl6memory4V1_07IMapper17registerAsServiceERKNSt3__112basic_stringIcNS4_11char_traitsIcEENS4_9allocatorIcEEEE
_ZN7android4hidl6memory4V1_07IMapper19interfaceDescriptorENSt3__18functionIFvRKNS_8hardware11hidl_stringEEEE
_ZN7android4hidl6memory4V1_07IMapper21notifySyspropsChangedEv
_ZN7android4hidl6memory4V1_07IMapper21setHALInstrumentationEv
_ZN7android4hidl6memory4V1_07IMapper24registerForNotificationsERKNSt3__112basic_stringIcNS4_11char_traitsIcEENS4_9allocatorIcEEEERKNS_2spINS0_7manager4V1_020IServiceNotificationEEE
_ZN7android4hidl6memory4V1_07IMapper4pingEv
_ZN7android4hidl6memory4V1_07IMapper5debugERKNS_8hardware11hidl_handleERKNS4_8hidl_vecINS4_11hidl_stringEEE
_ZN7android4hidl6memory4V1_07IMapper8castFromERKNS_2spINS0_4base4V1_05IBaseEEEb
_ZN7android4hidl6memory4V1_07IMapper8castFromERKNS_2spIS3_EEb
_ZN7android4hidl6memory4V1_07IMemory10descriptorE
_ZN7android4hidl6memory4V1_07IMemory10getServiceERKNSt3__112basic_stringIcNS4_11char_traitsIcEENS4_9allocatorIcEEEEb
_ZN7android4hidl6memory4V1_07IMemory11linkToDeathERKNS_2spINS_8hardware20hidl_death_recipientEEEy
_ZN7android4hidl6memory4V1_07IMemory12getDebugInfoENSt3__18functionIFvRKNS0_4base4V1_09DebugInfoEEEE
_ZN7android4hidl6memory4V1_07IMemory12getHashChainENSt3__18functionIFvRKNS_8hardware8hidl_vecINS6_10hidl_arrayIhLj32EJEEEEEEEE
_ZN7android4hidl6memory4V1_07IMemory13tryGetServiceERKNSt3__112basic_stringIcNS4_11char_traitsIcEENS4_9allocatorIcEEEEb
_ZN7android4hidl6memory4V1_07IMemory13unlinkToDeathERKNS_2spINS_8hardware20hidl_death_recipientEEE
_ZN7android4hidl6memory4V1_07IMemory14interfaceChainENSt3__18functionIFvRKNS_8hardware8hidl_vecINS6_11hidl_stringEEEEEE
_ZN7android4hidl6memory4V1_07IMemory17registerAsServiceERKNSt3__112basic_stringIcNS4_11char_traitsIcEENS4_9allocatorIcEEEE
_ZN7android4hidl6memory4V1_07IMemory19interfaceDescriptorENSt3__18functionIFvRKNS_8hardware11hidl_stringEEEE
_ZN7android4hidl6memory4V1_07IMemory21notifySyspropsChangedEv
_ZN7android4hidl6memory4V1_07IMemory21setHALInstrumentationEv
_ZN7android4hidl6memory4V1_07IMemory24registerForNotificationsERKNSt3__112basic_stringIcNS4_11char_traitsIcEENS4_9allocatorIcEEEERKNS_2spINS0_7manager4V1_020IServiceNotificationEEE
_ZN7android4hidl6memory4V1_07IMemory4pingEv
_ZN7android4hidl6memory4V1_07IMemory5debugERKNS_8hardware11hidl_handleERKNS4_8hidl_vecINS4_11hidl_stringEEE
_ZN7android4hidl6memory4V1_07IMemory8castFromERKNS_2spINS0_4base4V1_05IBaseEEEb
_ZN7android4hidl6memory4V1_07IMemory8castFromERKNS_2spIS3_EEb
_ZN7android4hidl6memory4V1_08BsMapper13addOnewayTaskENSt3__18functionIFvvEEE
_ZN7android4hidl6memory4V1_08BsMapperC1ENS_2spINS2_7IMapperEEE
_ZN7android4hidl6memory4V1_08BsMapperC2ENS_2spINS2_7IMapperEEE
_ZN7android4hidl6memory4V1_08BsMemory13addOnewayTaskENSt3__18functionIFvvEEE
_ZN7android4hidl6memory4V1_08BsMemoryC1ENS_2spINS2_7IMemoryEEE
_ZN7android4hidl6memory4V1_08BsMemoryC2ENS_2spINS2_7IMemoryEEE
_ZTCN7android4hidl6memory4V1_010BnHwMapperE0_NS0_4base4V1_08BnHwBaseE
_ZTCN7android4hidl6memory4V1_010BnHwMapperE0_NS_8hardware7IBinderE
_ZTCN7android4hidl6memory4V1_010BnHwMapperE0_NS_8hardware9BHwBinderE
_ZTCN7android4hidl6memory4V1_010BnHwMemoryE0_NS0_4base4V1_08BnHwBaseE
_ZTCN7android4hidl6memory4V1_010BnHwMemoryE0_NS_8hardware7IBinderE
_ZTCN7android4hidl6memory4V1_010BnHwMemoryE0_NS_8hardware9BHwBinderE
_ZTCN7android4hidl6memory4V1_010BpHwMapperE0_NS0_4base4V1_05IBaseE
_ZTCN7android4hidl6memory4V1_010BpHwMapperE0_NS2_7IMapperE
_ZTCN7android4hidl6memory4V1_010BpHwMapperE0_NS_8hardware11BpInterfaceINS2_7IMapperEEE
_ZTCN7android4hidl6memory4V1_010BpHwMapperE4_NS_8hardware10IInterfaceE
_ZTCN7android4hidl6memory4V1_010BpHwMapperE8_NS_8hardware11BpHwRefBaseE
_ZTCN7android4hidl6memory4V1_010BpHwMemoryE0_NS0_4base4V1_05IBaseE
_ZTCN7android4hidl6memory4V1_010BpHwMemoryE0_NS2_7IMemoryE
_ZTCN7android4hidl6memory4V1_010BpHwMemoryE0_NS_8hardware11BpInterfaceINS2_7IMemoryEEE
_ZTCN7android4hidl6memory4V1_010BpHwMemoryE4_NS_8hardware10IInterfaceE
_ZTCN7android4hidl6memory4V1_010BpHwMemoryE8_NS_8hardware11BpHwRefBaseE
_ZTCN7android4hidl6memory4V1_07IMapperE0_NS0_4base4V1_05IBaseE
_ZTCN7android4hidl6memory4V1_07IMemoryE0_NS0_4base4V1_05IBaseE
_ZTTN7android4hidl6memory4V1_010BnHwMapperE
_ZTTN7android4hidl6memory4V1_010BnHwMemoryE
_ZTTN7android4hidl6memory4V1_010BpHwMapperE
_ZTTN7android4hidl6memory4V1_010BpHwMemoryE
_ZTTN7android4hidl6memory4V1_07IMapperE
_ZTTN7android4hidl6memory4V1_07IMemoryE
_ZTVN7android4hidl6memory4V1_010BnHwMapperE
_ZTVN7android4hidl6memory4V1_010BnHwMemoryE
_ZTVN7android4hidl6memory4V1_010BpHwMapperE
_ZTVN7android4hidl6memory4V1_010BpHwMemoryE
_ZTVN7android4hidl6memory4V1_07IMapperE
_ZTVN7android4hidl6memory4V1_07IMemoryE
_ZThn20_N7android4hidl6memory4V1_010BnHwMapperD0Ev
_ZThn20_N7android4hidl6memory4V1_010BnHwMapperD1Ev
_ZThn20_N7android4hidl6memory4V1_010BnHwMemoryD0Ev
_ZThn20_N7android4hidl6memory4V1_010BnHwMemoryD1Ev
_ZTv0_n12_N7android4hidl6memory4V1_010BnHwMapperD0Ev
_ZTv0_n12_N7android4hidl6memory4V1_010BnHwMapperD1Ev
_ZTv0_n12_N7android4hidl6memory4V1_010BnHwMemoryD0Ev
_ZTv0_n12_N7android4hidl6memory4V1_010BnHwMemoryD1Ev
