_ZN11unwindstack10BufferMaps5ParseEv
_ZN11unwindstack10RegsMips6415GetPcAdjustmentEyPNS_3ElfE
_ZN11unwindstack10RegsMips6416IterateRegistersENSt3__18functionIFvPKcyEEE
_ZN11unwindstack10RegsMips6418CreateFromUcontextEPv
_ZN11unwindstack10RegsMips6419StepIfSignalHandlerEyPNS_3ElfEPNS_6MemoryE
_ZN11unwindstack10RegsMips6422SetPcFromReturnAddressEPNS_6MemoryE
_ZN11unwindstack10RegsMips642pcEv
_ZN11unwindstack10RegsMips642spEv
_ZN11unwindstack10RegsMips644ArchEv
_ZN11unwindstack10RegsMips644ReadEPv
_ZN11unwindstack10RegsMips645CloneEv
_ZN11unwindstack10RegsMips646set_pcEy
_ZN11unwindstack10RegsMips646set_spEy
_ZN11unwindstack10RegsMips64C1Ev
_ZN11unwindstack10RegsMips64C2Ev
_ZN11unwindstack10RegsX86_6415GetPcAdjustmentEyPNS_3ElfE
_ZN11unwindstack10RegsX86_6415SetFromUcontextEPNS_17x86_64_ucontext_tE
_ZN11unwindstack10RegsX86_6416IterateRegistersENSt3__18functionIFvPKcyEEE
_ZN11unwindstack10RegsX86_6418CreateFromUcontextEPv
_ZN11unwindstack10RegsX86_6419StepIfSignalHandlerEyPNS_3ElfEPNS_6MemoryE
_ZN11unwindstack10RegsX86_6422SetPcFromReturnAddressEPNS_6MemoryE
_ZN11unwindstack10RegsX86_642pcEv
_ZN11unwindstack10RegsX86_642spEv
_ZN11unwindstack10RegsX86_644ArchEv
_ZN11unwindstack10RegsX86_644ReadEPv
_ZN11unwindstack10RegsX86_645CloneEv
_ZN11unwindstack10RegsX86_646set_pcEy
_ZN11unwindstack10RegsX86_646set_spEy
_ZN11unwindstack10RegsX86_64C1Ev
_ZN11unwindstack10RegsX86_64C2Ev
_ZN11unwindstack11DwarfMemory11ReadSLEB128EPx
_ZN11unwindstack11DwarfMemory11ReadULEB128EPy
_ZN11unwindstack11DwarfMemory18AdjustEncodedValueEhPy
_ZN11unwindstack11DwarfMemory9ReadBytesEPvj
_ZN11unwindstack11MemoryLocal4ReadEyPvj
_ZN11unwindstack11MemoryRange4ReadEyPvj
_ZN11unwindstack11MemoryRangeC1ERKNSt3__110shared_ptrINS_6MemoryEEEyyy
_ZN11unwindstack11MemoryRangeC2ERKNSt3__110shared_ptrINS_6MemoryEEEyyy
_ZN11unwindstack12DwarfCfaInfo6kTableE
_ZN11unwindstack12DwarfSection12GetFdeFromPcEy
_ZN11unwindstack12DwarfSection4StepEyPNS_4RegsEPNS_6MemoryEPb
_ZN11unwindstack12DwarfSectionC2EPNS_6MemoryE
_ZN11unwindstack12ElfInterface24CreateGnuDebugdataMemoryEv
_ZN11unwindstack12ElfInterface4StepEyyPNS_4RegsEPNS_6MemoryEPb
_ZN11unwindstack12ElfInterface9IsValidPcEy
_ZN11unwindstack12ElfInterfaceD0Ev
_ZN11unwindstack12ElfInterfaceD1Ev
_ZN11unwindstack12ElfInterfaceD2Ev
_ZN11unwindstack12MemoryBuffer4ReadEyPvj
_ZN11unwindstack12MemoryBuffer6GetPtrEj
_ZN11unwindstack12MemoryRemote4ReadEyPvj
_ZN11unwindstack13MemoryOffline4InitERKNSt3__112basic_stringIcNS1_11char_traitsIcEENS1_9allocatorIcEEEEy
_ZN11unwindstack13MemoryOffline4ReadEyPvj
_ZN11unwindstack13log_to_stdoutEb
_ZN11unwindstack15ElfInterfaceArm10HandleTypeEyjy
_ZN11unwindstack15ElfInterfaceArm13GetPrel31AddrEjPj
_ZN11unwindstack15ElfInterfaceArm15GetFunctionNameEyyPNSt3__112basic_stringIcNS1_11char_traitsIcEENS1_9allocatorIcEEEEPy
_ZN11unwindstack15ElfInterfaceArm4StepEyyPNS_4RegsEPNS_6MemoryEPb
_ZN11unwindstack15ElfInterfaceArm9FindEntryEjPy
_ZN11unwindstack15ElfInterfaceArm9StepExidxEyyPNS_4RegsEPNS_6MemoryEPb
_ZN11unwindstack18MemoryFileAtOffset4InitERKNSt3__112basic_stringIcNS1_11char_traitsIcEENS1_9allocatorIcEEEEyy
_ZN11unwindstack18MemoryFileAtOffset4ReadEyPvj
_ZN11unwindstack18MemoryFileAtOffset5ClearEv
_ZN11unwindstack18MemoryFileAtOffsetD0Ev
_ZN11unwindstack18MemoryFileAtOffsetD1Ev
_ZN11unwindstack18MemoryFileAtOffsetD2Ev
_ZN11unwindstack18MemoryOfflineParts4ReadEyPvj
_ZN11unwindstack18MemoryOfflinePartsD0Ev
_ZN11unwindstack18MemoryOfflinePartsD1Ev
_ZN11unwindstack18MemoryOfflinePartsD2Ev
_ZN11unwindstack19MemoryOfflineBuffer4ReadEyPvj
_ZN11unwindstack19MemoryOfflineBuffer5ResetEPKhyy
_ZN11unwindstack19MemoryOfflineBufferC1EPKhyy
_ZN11unwindstack19MemoryOfflineBufferC2EPKhyy
_ZN11unwindstack3Elf10IsValidElfEPNS_6MemoryE
_ZN11unwindstack3Elf11CacheUnlockEv
_ZN11unwindstack3Elf11GetLoadBiasEPNS_6MemoryE
_ZN11unwindstack3Elf11cache_lock_E
_ZN11unwindstack3Elf12GetLastErrorEPNS_9ErrorDataE
_ZN11unwindstack3Elf14cache_enabled_E
_ZN11unwindstack3Elf15GetFunctionNameEyPNSt3__112basic_stringIcNS1_11char_traitsIcEENS1_9allocatorIcEEEEPy
_ZN11unwindstack3Elf16GetLastErrorCodeEv
_ZN11unwindstack3Elf16InitGnuDebugdataEv
_ZN11unwindstack3Elf17GetGlobalVariableERKNSt3__112basic_stringIcNS1_11char_traitsIcEENS1_9allocatorIcEEEEPy
_ZN11unwindstack3Elf17SetCachingEnabledEb
_ZN11unwindstack3Elf19GetLastErrorAddressEv
_ZN11unwindstack3Elf22CacheAfterCreateMemoryEPNS_7MapInfoE
_ZN11unwindstack3Elf25CreateInterfaceFromMemoryEPNS_6MemoryE
_ZN11unwindstack3Elf4InitEb
_ZN11unwindstack3Elf4StepEyyPNS_4RegsEPNS_6MemoryEPb
_ZN11unwindstack3Elf6cache_E
_ZN11unwindstack3Elf7GetInfoEPNS_6MemoryEPbPy
_ZN11unwindstack3Elf8CacheAddEPNS_7MapInfoE
_ZN11unwindstack3Elf8CacheGetEPNS_7MapInfoE
_ZN11unwindstack3Elf8GetRelPcEyPKNS_7MapInfoE
_ZN11unwindstack3Elf9CacheLockEv
_ZN11unwindstack3Elf9GetSonameEPNSt3__112basic_stringIcNS1_11char_traitsIcEENS1_9allocatorIcEEEE
_ZN11unwindstack3Elf9IsValidPcEy
_ZN11unwindstack3logEhPKcz
_ZN11unwindstack4Maps3AddEyyyyRKNSt3__112basic_stringIcNS1_11char_traitsIcEENS1_9allocatorIcEEEEy
_ZN11unwindstack4Maps4FindEy
_ZN11unwindstack4Maps5ParseEv
_ZN11unwindstack4MapsD0Ev
_ZN11unwindstack4MapsD1Ev
_ZN11unwindstack4MapsD2Ev
_ZN11unwindstack4Regs11CurrentArchEv
_ZN11unwindstack4Regs15CreateFromLocalEv
_ZN11unwindstack4Regs18CreateFromUcontextENS_8ArchEnumEPv
_ZN11unwindstack4Regs9RemoteGetEi
_ZN11unwindstack6Memory10ReadStringEyPNSt3__112basic_stringIcNS1_11char_traitsIcEENS1_9allocatorIcEEEEy
_ZN11unwindstack6Memory19CreateProcessMemoryEi
_ZN11unwindstack6Memory9ReadFullyEyPvj
_ZN11unwindstack7MapInfo11GetLoadBiasERKNSt3__110shared_ptrINS_6MemoryEEE
_ZN11unwindstack7MapInfo12CreateMemoryERKNSt3__110shared_ptrINS_6MemoryEEE
_ZN11unwindstack7MapInfo13GetFileMemoryEv
_ZN11unwindstack7MapInfo6GetElfERKNSt3__110shared_ptrINS_6MemoryEEEb
_ZN11unwindstack7RegsArm15GetPcAdjustmentEyPNS_3ElfE
_ZN11unwindstack7RegsArm16IterateRegistersENSt3__18functionIFvPKcyEEE
_ZN11unwindstack7RegsArm18CreateFromUcontextEPv
_ZN11unwindstack7RegsArm19StepIfSignalHandlerEyPNS_3ElfEPNS_6MemoryE
_ZN11unwindstack7RegsArm22SetPcFromReturnAddressEPNS_6MemoryE
_ZN11unwindstack7RegsArm2pcEv
_ZN11unwindstack7RegsArm2spEv
_ZN11unwindstack7RegsArm4ArchEv
_ZN11unwindstack7RegsArm4ReadEPv
_ZN11unwindstack7RegsArm5CloneEv
_ZN11unwindstack7RegsArm6set_pcEy
_ZN11unwindstack7RegsArm6set_spEy
_ZN11unwindstack7RegsArmC1Ev
_ZN11unwindstack7RegsArmC2Ev
_ZN11unwindstack7RegsX8615GetPcAdjustmentEyPNS_3ElfE
_ZN11unwindstack7RegsX8615SetFromUcontextEPNS_14x86_ucontext_tE
_ZN11unwindstack7RegsX8616IterateRegistersENSt3__18functionIFvPKcyEEE
_ZN11unwindstack7RegsX8618CreateFromUcontextEPv
_ZN11unwindstack7RegsX8619StepIfSignalHandlerEyPNS_3ElfEPNS_6MemoryE
_ZN11unwindstack7RegsX8622SetPcFromReturnAddressEPNS_6MemoryE
_ZN11unwindstack7RegsX862pcEv
_ZN11unwindstack7RegsX862spEv
_ZN11unwindstack7RegsX864ArchEv
_ZN11unwindstack7RegsX864ReadEPv
_ZN11unwindstack7RegsX865CloneEv
_ZN11unwindstack7RegsX866set_pcEy
_ZN11unwindstack7RegsX866set_spEy
_ZN11unwindstack7RegsX86C1Ev
_ZN11unwindstack7RegsX86C2Ev
_ZN11unwindstack7Symbols16GetInfoFromCacheEy
_ZN11unwindstack7SymbolsC1Eyyyyy
_ZN11unwindstack7SymbolsC2Eyyyyy
_ZN11unwindstack8ArmExidx10LogRawDataEv
_ZN11unwindstack8ArmExidx16ExtractEntryDataEj
_ZN11unwindstack8ArmExidx4EvalEv
_ZN11unwindstack8ArmExidx6DecodeEv
_ZN11unwindstack8JitDebug11ReadEntry64EPyS1_
_ZN11unwindstack8JitDebug14ReadEntry32PadEPyS1_
_ZN11unwindstack8JitDebug15ReadEntry32PackEPyS1_
_ZN11unwindstack8JitDebug16ReadDescriptor32Ey
_ZN11unwindstack8JitDebug16ReadDescriptor64Ey
_ZN11unwindstack8JitDebug4InitEPNS_4MapsE
_ZN11unwindstack8JitDebug6GetElfEPNS_4MapsEy
_ZN11unwindstack8JitDebug7SetArchENS_8ArchEnumE
_ZN11unwindstack8JitDebugC1ERNSt3__110shared_ptrINS_6MemoryEEE
_ZN11unwindstack8JitDebugC1ERNSt3__110shared_ptrINS_6MemoryEEERNS1_6vectorINS1_12basic_stringIcNS1_11char_traitsIcEENS1_9allocatorIcEEEENSA_ISC_EEEE
_ZN11unwindstack8JitDebugC2ERNSt3__110shared_ptrINS_6MemoryEEE
_ZN11unwindstack8JitDebugC2ERNSt3__110shared_ptrINS_6MemoryEEERNS1_6vectorINS1_12basic_stringIcNS1_11char_traitsIcEENS1_9allocatorIcEEEENSA_ISC_EEEE
_ZN11unwindstack8JitDebugD1Ev
_ZN11unwindstack8JitDebugD2Ev
_ZN11unwindstack8RegsMips15GetPcAdjustmentEyPNS_3ElfE
_ZN11unwindstack8RegsMips16IterateRegistersENSt3__18functionIFvPKcyEEE
_ZN11unwindstack8RegsMips18CreateFromUcontextEPv
_ZN11unwindstack8RegsMips19StepIfSignalHandlerEyPNS_3ElfEPNS_6MemoryE
_ZN11unwindstack8RegsMips22SetPcFromReturnAddressEPNS_6MemoryE
_ZN11unwindstack8RegsMips2pcEv
_ZN11unwindstack8RegsMips2spEv
_ZN11unwindstack8RegsMips4ArchEv
_ZN11unwindstack8RegsMips4ReadEPv
_ZN11unwindstack8RegsMips5CloneEv
_ZN11unwindstack8RegsMips6set_pcEy
_ZN11unwindstack8RegsMips6set_spEy
_ZN11unwindstack8RegsMipsC1Ev
_ZN11unwindstack8RegsMipsC2Ev
_ZN11unwindstack8Unwinder11FillInFrameEPNS_7MapInfoEPNS_3ElfEyyy
_ZN11unwindstack8Unwinder11FormatFrameERKNS_9FrameDataEb
_ZN11unwindstack8Unwinder11FormatFrameEj
_ZN11unwindstack8Unwinder11SetJitDebugEPNS_8JitDebugENS_8ArchEnumE
_ZN11unwindstack8Unwinder14FillInDexFrameEv
_ZN11unwindstack8Unwinder6UnwindEPKNSt3__16vectorINS1_12basic_stringIcNS1_11char_traitsIcEENS1_9allocatorIcEEEENS6_IS8_EEEESC_
_ZN11unwindstack9RegsArm6415GetPcAdjustmentEyPNS_3ElfE
_ZN11unwindstack9RegsArm6416IterateRegistersENSt3__18functionIFvPKcyEEE
_ZN11unwindstack9RegsArm6418CreateFromUcontextEPv
_ZN11unwindstack9RegsArm6419StepIfSignalHandlerEyPNS_3ElfEPNS_6MemoryE
_ZN11unwindstack9RegsArm6422SetPcFromReturnAddressEPNS_6MemoryE
_ZN11unwindstack9RegsArm642pcEv
_ZN11unwindstack9RegsArm642spEv
_ZN11unwindstack9RegsArm644ArchEv
_ZN11unwindstack9RegsArm644ReadEPv
_ZN11unwindstack9RegsArm645CloneEv
_ZN11unwindstack9RegsArm646set_pcEy
_ZN11unwindstack9RegsArm646set_spEy
_ZN11unwindstack9RegsArm64C1Ev
_ZN11unwindstack9RegsArm64C2Ev
_ZNK11unwindstack10RemoteMaps11GetMapsFileEv
_ZTVN11unwindstack10BufferMapsE
_ZTVN11unwindstack10RegsMips64E
_ZTVN11unwindstack10RegsX86_64E
_ZTVN11unwindstack10RemoteMapsE
_ZTVN11unwindstack11MemoryLocalE
_ZTVN11unwindstack11MemoryRangeE
_ZTVN11unwindstack12ElfInterfaceE
_ZTVN11unwindstack12MemoryBufferE
_ZTVN11unwindstack12MemoryRemoteE
_ZTVN11unwindstack13MemoryOfflineE
_ZTVN11unwindstack15ElfInterfaceArmE
_ZTVN11unwindstack18MemoryFileAtOffsetE
_ZTVN11unwindstack18MemoryOfflinePartsE
_ZTVN11unwindstack19MemoryOfflineBufferE
_ZTVN11unwindstack4MapsE
_ZTVN11unwindstack6MemoryE
_ZTVN11unwindstack7RegsArmE
_ZTVN11unwindstack7RegsX86E
_ZTVN11unwindstack8RegsMipsE
_ZTVN11unwindstack9RegsArm64E
