_ZN7android8hardware5media3omx4V1_010BsOmxStore13addOnewayTaskENSt3__18functionIFvvEEE
_ZN7android8hardware5media3omx4V1_010BsOmxStoreC1ENS_2spINS3_9IOmxStoreEEE
_ZN7android8hardware5media3omx4V1_010BsOmxStoreC2ENS_2spINS3_9IOmxStoreEEE
_ZN7android8hardware5media3omx4V1_011BnHwOmxNode10onTransactEjRKNS0_6ParcelEPS5_jNSt3__18functionIFvRS5_EEE
_ZN7android8hardware5media3omx4V1_011BnHwOmxNode12getDebugInfoENSt3__18functionIFvRKNS_4hidl4base4V1_09DebugInfoEEEE
_ZN7android8hardware5media3omx4V1_011BnHwOmxNode14_hidl_freeNodeEPNS_4hidl4base4V1_08BnHwBaseERKNS0_6ParcelEPSA_NSt3__18functionIFvRSA_EEE
_ZN7android8hardware5media3omx4V1_011BnHwOmxNode15_hidl_getConfigEPNS_4hidl4base4V1_08BnHwBaseERKNS0_6ParcelEPSA_NSt3__18functionIFvRSA_EEE
_ZN7android8hardware5media3omx4V1_011BnHwOmxNode15_hidl_setConfigEPNS_4hidl4base4V1_08BnHwBaseERKNS0_6ParcelEPSA_NSt3__18functionIFvRSA_EEE
_ZN7android8hardware5media3omx4V1_011BnHwOmxNode15_hidl_useBufferEPNS_4hidl4base4V1_08BnHwBaseERKNS0_6ParcelEPSA_NSt3__18functionIFvRSA_EEE
_ZN7android8hardware5media3omx4V1_011BnHwOmxNode16_hidl_fillBufferEPNS_4hidl4base4V1_08BnHwBaseERKNS0_6ParcelEPSA_NSt3__18functionIFvRSA_EEE
_ZN7android8hardware5media3omx4V1_011BnHwOmxNode16_hidl_freeBufferEPNS_4hidl4base4V1_08BnHwBaseERKNS0_6ParcelEPSA_NSt3__18functionIFvRSA_EEE
_ZN7android8hardware5media3omx4V1_011BnHwOmxNode17_hidl_emptyBufferEPNS_4hidl4base4V1_08BnHwBaseERKNS0_6ParcelEPSA_NSt3__18functionIFvRSA_EEE
_ZN7android8hardware5media3omx4V1_011BnHwOmxNode17_hidl_sendCommandEPNS_4hidl4base4V1_08BnHwBaseERKNS0_6ParcelEPSA_NSt3__18functionIFvRSA_EEE
_ZN7android8hardware5media3omx4V1_011BnHwOmxNode17_hidl_setPortModeEPNS_4hidl4base4V1_08BnHwBaseERKNS0_6ParcelEPSA_NSt3__18functionIFvRSA_EEE
_ZN7android8hardware5media3omx4V1_011BnHwOmxNode18_hidl_getParameterEPNS_4hidl4base4V1_08BnHwBaseERKNS0_6ParcelEPSA_NSt3__18functionIFvRSA_EEE
_ZN7android8hardware5media3omx4V1_011BnHwOmxNode18_hidl_setParameterEPNS_4hidl4base4V1_08BnHwBaseERKNS0_6ParcelEPSA_NSt3__18functionIFvRSA_EEE
_ZN7android8hardware5media3omx4V1_011BnHwOmxNode21_hidl_dispatchMessageEPNS_4hidl4base4V1_08BnHwBaseERKNS0_6ParcelEPSA_NSt3__18functionIFvRSA_EEE
_ZN7android8hardware5media3omx4V1_011BnHwOmxNode21_hidl_setInputSurfaceEPNS_4hidl4base4V1_08BnHwBaseERKNS0_6ParcelEPSA_NSt3__18functionIFvRSA_EEE
_ZN7android8hardware5media3omx4V1_011BnHwOmxNode23_hidl_getExtensionIndexEPNS_4hidl4base4V1_08BnHwBaseERKNS0_6ParcelEPSA_NSt3__18functionIFvRSA_EEE
_ZN7android8hardware5media3omx4V1_011BnHwOmxNode26_hidl_allocateSecureBufferEPNS_4hidl4base4V1_08BnHwBaseERKNS0_6ParcelEPSA_NSt3__18functionIFvRSA_EEE
_ZN7android8hardware5media3omx4V1_011BnHwOmxNode27_hidl_getGraphicBufferUsageEPNS_4hidl4base4V1_08BnHwBaseERKNS0_6ParcelEPSA_NSt3__18functionIFvRSA_EEE
_ZN7android8hardware5media3omx4V1_011BnHwOmxNode30_hidl_configureVideoTunnelModeEPNS_4hidl4base4V1_08BnHwBaseERKNS0_6ParcelEPSA_NSt3__18functionIFvRSA_EEE
_ZN7android8hardware5media3omx4V1_011BnHwOmxNode32_hidl_prepareForAdaptivePlaybackEPNS_4hidl4base4V1_08BnHwBaseERKNS0_6ParcelEPSA_NSt3__18functionIFvRSA_EEE
_ZN7android8hardware5media3omx4V1_011BnHwOmxNode4pingEv
_ZN7android8hardware5media3omx4V1_011BnHwOmxNodeC1ERKNS_2spINS3_8IOmxNodeEEE
_ZN7android8hardware5media3omx4V1_011BnHwOmxNodeC2ERKNS_2spINS3_8IOmxNodeEEE
_ZN7android8hardware5media3omx4V1_011BnHwOmxNodeD0Ev
_ZN7android8hardware5media3omx4V1_011BnHwOmxNodeD1Ev
_ZN7android8hardware5media3omx4V1_011BnHwOmxNodeD2Ev
_ZN7android8hardware5media3omx4V1_011BpHwOmxNode10fillBufferEjRKNS3_11CodecBufferERKNS0_11hidl_handleE
_ZN7android8hardware5media3omx4V1_011BpHwOmxNode10freeBufferEjj
_ZN7android8hardware5media3omx4V1_011BpHwOmxNode11emptyBufferEjRKNS3_11CodecBufferEjyRKNS0_11hidl_handleE
_ZN7android8hardware5media3omx4V1_011BpHwOmxNode11linkToDeathERKNS_2spINS0_20hidl_death_recipientEEEy
_ZN7android8hardware5media3omx4V1_011BpHwOmxNode11sendCommandEji
_ZN7android8hardware5media3omx4V1_011BpHwOmxNode11setPortModeEjNS3_8PortModeE
_ZN7android8hardware5media3omx4V1_011BpHwOmxNode12getDebugInfoENSt3__18functionIFvRKNS_4hidl4base4V1_09DebugInfoEEEE
_ZN7android8hardware5media3omx4V1_011BpHwOmxNode12getHashChainENSt3__18functionIFvRKNS0_8hidl_vecINS0_10hidl_arrayIhLj32EJEEEEEEEE
_ZN7android8hardware5media3omx4V1_011BpHwOmxNode12getParameterEjRKNS0_8hidl_vecIhEENSt3__18functionIFvNS3_6StatusES8_EEE
_ZN7android8hardware5media3omx4V1_011BpHwOmxNode12setParameterEjRKNS0_8hidl_vecIhEE
_ZN7android8hardware5media3omx4V1_011BpHwOmxNode13unlinkToDeathERKNS_2spINS0_20hidl_death_recipientEEE
_ZN7android8hardware5media3omx4V1_011BpHwOmxNode14_hidl_freeNodeEPNS0_10IInterfaceEPNS0_7details16HidlInstrumentorE
_ZN7android8hardware5media3omx4V1_011BpHwOmxNode14interfaceChainENSt3__18functionIFvRKNS0_8hidl_vecINS0_11hidl_stringEEEEEE
_ZN7android8hardware5media3omx4V1_011BpHwOmxNode15_hidl_getConfigEPNS0_10IInterfaceEPNS0_7details16HidlInstrumentorEjRKNS0_8hidl_vecIhEENSt3__18functionIFvNS3_6StatusESD_EEE
_ZN7android8hardware5media3omx4V1_011BpHwOmxNode15_hidl_setConfigEPNS0_10IInterfaceEPNS0_7details16HidlInstrumentorEjRKNS0_8hidl_vecIhEE
_ZN7android8hardware5media3omx4V1_011BpHwOmxNode15_hidl_useBufferEPNS0_10IInterfaceEPNS0_7details16HidlInstrumentorEjRKNS3_11CodecBufferENSt3__18functionIFvNS3_6StatusEjEEE
_ZN7android8hardware5media3omx4V1_011BpHwOmxNode15dispatchMessageERKNS3_7MessageE
_ZN7android8hardware5media3omx4V1_011BpHwOmxNode15setInputSurfaceERKNS_2spINS3_16IOmxBufferSourceEEE
_ZN7android8hardware5media3omx4V1_011BpHwOmxNode16_hidl_fillBufferEPNS0_10IInterfaceEPNS0_7details16HidlInstrumentorEjRKNS3_11CodecBufferERKNS0_11hidl_handleE
_ZN7android8hardware5media3omx4V1_011BpHwOmxNode16_hidl_freeBufferEPNS0_10IInterfaceEPNS0_7details16HidlInstrumentorEjj
_ZN7android8hardware5media3omx4V1_011BpHwOmxNode17_hidl_emptyBufferEPNS0_10IInterfaceEPNS0_7details16HidlInstrumentorEjRKNS3_11CodecBufferEjyRKNS0_11hidl_handleE
_ZN7android8hardware5media3omx4V1_011BpHwOmxNode17_hidl_sendCommandEPNS0_10IInterfaceEPNS0_7details16HidlInstrumentorEji
_ZN7android8hardware5media3omx4V1_011BpHwOmxNode17_hidl_setPortModeEPNS0_10IInterfaceEPNS0_7details16HidlInstrumentorEjNS3_8PortModeE
_ZN7android8hardware5media3omx4V1_011BpHwOmxNode17getExtensionIndexERKNS0_11hidl_stringENSt3__18functionIFvNS3_6StatusEjEEE
_ZN7android8hardware5media3omx4V1_011BpHwOmxNode18_hidl_getParameterEPNS0_10IInterfaceEPNS0_7details16HidlInstrumentorEjRKNS0_8hidl_vecIhEENSt3__18functionIFvNS3_6StatusESD_EEE
_ZN7android8hardware5media3omx4V1_011BpHwOmxNode18_hidl_setParameterEPNS0_10IInterfaceEPNS0_7details16HidlInstrumentorEjRKNS0_8hidl_vecIhEE
_ZN7android8hardware5media3omx4V1_011BpHwOmxNode19interfaceDescriptorENSt3__18functionIFvRKNS0_11hidl_stringEEEE
_ZN7android8hardware5media3omx4V1_011BpHwOmxNode20allocateSecureBufferEjyNSt3__18functionIFvNS3_6StatusEjRKNS0_11hidl_handleEEEE
_ZN7android8hardware5media3omx4V1_011BpHwOmxNode21_hidl_dispatchMessageEPNS0_10IInterfaceEPNS0_7details16HidlInstrumentorERKNS3_7MessageE
_ZN7android8hardware5media3omx4V1_011BpHwOmxNode21_hidl_setInputSurfaceEPNS0_10IInterfaceEPNS0_7details16HidlInstrumentorERKNS_2spINS3_16IOmxBufferSourceEEE
_ZN7android8hardware5media3omx4V1_011BpHwOmxNode21getGraphicBufferUsageEjNSt3__18functionIFvNS3_6StatusEjEEE
_ZN7android8hardware5media3omx4V1_011BpHwOmxNode21notifySyspropsChangedEv
_ZN7android8hardware5media3omx4V1_011BpHwOmxNode21setHALInstrumentationEv
_ZN7android8hardware5media3omx4V1_011BpHwOmxNode23_hidl_getExtensionIndexEPNS0_10IInterfaceEPNS0_7details16HidlInstrumentorERKNS0_11hidl_stringENSt3__18functionIFvNS3_6StatusEjEEE
_ZN7android8hardware5media3omx4V1_011BpHwOmxNode24configureVideoTunnelModeEjbjNSt3__18functionIFvNS3_6StatusERKNS0_11hidl_handleEEEE
_ZN7android8hardware5media3omx4V1_011BpHwOmxNode26_hidl_allocateSecureBufferEPNS0_10IInterfaceEPNS0_7details16HidlInstrumentorEjyNSt3__18functionIFvNS3_6StatusEjRKNS0_11hidl_handleEEEE
_ZN7android8hardware5media3omx4V1_011BpHwOmxNode26prepareForAdaptivePlaybackEjbjj
_ZN7android8hardware5media3omx4V1_011BpHwOmxNode27_hidl_getGraphicBufferUsageEPNS0_10IInterfaceEPNS0_7details16HidlInstrumentorEjNSt3__18functionIFvNS3_6StatusEjEEE
_ZN7android8hardware5media3omx4V1_011BpHwOmxNode30_hidl_configureVideoTunnelModeEPNS0_10IInterfaceEPNS0_7details16HidlInstrumentorEjbjNSt3__18functionIFvNS3_6StatusERKNS0_11hidl_handleEEEE
_ZN7android8hardware5media3omx4V1_011BpHwOmxNode32_hidl_prepareForAdaptivePlaybackEPNS0_10IInterfaceEPNS0_7details16HidlInstrumentorEjbjj
_ZN7android8hardware5media3omx4V1_011BpHwOmxNode4pingEv
_ZN7android8hardware5media3omx4V1_011BpHwOmxNode5debugERKNS0_11hidl_handleERKNS0_8hidl_vecINS0_11hidl_stringEEE
_ZN7android8hardware5media3omx4V1_011BpHwOmxNode8freeNodeEv
_ZN7android8hardware5media3omx4V1_011BpHwOmxNode9getConfigEjRKNS0_8hidl_vecIhEENSt3__18functionIFvNS3_6StatusES8_EEE
_ZN7android8hardware5media3omx4V1_011BpHwOmxNode9setConfigEjRKNS0_8hidl_vecIhEE
_ZN7android8hardware5media3omx4V1_011BpHwOmxNode9useBufferEjRKNS3_11CodecBufferENSt3__18functionIFvNS3_6StatusEjEEE
_ZN7android8hardware5media3omx4V1_011BpHwOmxNodeC1ERKNS_2spINS0_7IBinderEEE
_ZN7android8hardware5media3omx4V1_011BpHwOmxNodeC2ERKNS_2spINS0_7IBinderEEE
_ZN7android8hardware5media3omx4V1_012BnHwOmxStore10onTransactEjRKNS0_6ParcelEPS5_jNSt3__18functionIFvRS5_EEE
_ZN7android8hardware5media3omx4V1_012BnHwOmxStore12_hidl_getOmxEPNS_4hidl4base4V1_08BnHwBaseERKNS0_6ParcelEPSA_NSt3__18functionIFvRSA_EEE
_ZN7android8hardware5media3omx4V1_012BnHwOmxStore12getDebugInfoENSt3__18functionIFvRKNS_4hidl4base4V1_09DebugInfoEEEE
_ZN7android8hardware5media3omx4V1_012BnHwOmxStore15_hidl_listRolesEPNS_4hidl4base4V1_08BnHwBaseERKNS0_6ParcelEPSA_NSt3__18functionIFvRSA_EEE
_ZN7android8hardware5media3omx4V1_012BnHwOmxStore19_hidl_getNodePrefixEPNS_4hidl4base4V1_08BnHwBaseERKNS0_6ParcelEPSA_NSt3__18functionIFvRSA_EEE
_ZN7android8hardware5media3omx4V1_012BnHwOmxStore27_hidl_listServiceAttributesEPNS_4hidl4base4V1_08BnHwBaseERKNS0_6ParcelEPSA_NSt3__18functionIFvRSA_EEE
_ZN7android8hardware5media3omx4V1_012BnHwOmxStore4pingEv
_ZN7android8hardware5media3omx4V1_012BnHwOmxStoreC1ERKNS_2spINS3_9IOmxStoreEEE
_ZN7android8hardware5media3omx4V1_012BnHwOmxStoreC2ERKNS_2spINS3_9IOmxStoreEEE
_ZN7android8hardware5media3omx4V1_012BnHwOmxStoreD0Ev
_ZN7android8hardware5media3omx4V1_012BnHwOmxStoreD1Ev
_ZN7android8hardware5media3omx4V1_012BnHwOmxStoreD2Ev
_ZN7android8hardware5media3omx4V1_012BpHwOmxStore11linkToDeathERKNS_2spINS0_20hidl_death_recipientEEEy
_ZN7android8hardware5media3omx4V1_012BpHwOmxStore12_hidl_getOmxEPNS0_10IInterfaceEPNS0_7details16HidlInstrumentorERKNS0_11hidl_stringE
_ZN7android8hardware5media3omx4V1_012BpHwOmxStore12getDebugInfoENSt3__18functionIFvRKNS_4hidl4base4V1_09DebugInfoEEEE
_ZN7android8hardware5media3omx4V1_012BpHwOmxStore12getHashChainENSt3__18functionIFvRKNS0_8hidl_vecINS0_10hidl_arrayIhLj32EJEEEEEEEE
_ZN7android8hardware5media3omx4V1_012BpHwOmxStore13getNodePrefixENSt3__18functionIFvRKNS0_11hidl_stringEEEE
_ZN7android8hardware5media3omx4V1_012BpHwOmxStore13unlinkToDeathERKNS_2spINS0_20hidl_death_recipientEEE
_ZN7android8hardware5media3omx4V1_012BpHwOmxStore14interfaceChainENSt3__18functionIFvRKNS0_8hidl_vecINS0_11hidl_stringEEEEEE
_ZN7android8hardware5media3omx4V1_012BpHwOmxStore15_hidl_listRolesEPNS0_10IInterfaceEPNS0_7details16HidlInstrumentorENSt3__18functionIFvRKNS0_8hidl_vecINS3_9IOmxStore8RoleInfoEEEEEE
_ZN7android8hardware5media3omx4V1_012BpHwOmxStore19_hidl_getNodePrefixEPNS0_10IInterfaceEPNS0_7details16HidlInstrumentorENSt3__18functionIFvRKNS0_11hidl_stringEEEE
_ZN7android8hardware5media3omx4V1_012BpHwOmxStore19interfaceDescriptorENSt3__18functionIFvRKNS0_11hidl_stringEEEE
_ZN7android8hardware5media3omx4V1_012BpHwOmxStore21listServiceAttributesENSt3__18functionIFvNS3_6StatusERKNS0_8hidl_vecINS3_9IOmxStore9AttributeEEEEEE
_ZN7android8hardware5media3omx4V1_012BpHwOmxStore21notifySyspropsChangedEv
_ZN7android8hardware5media3omx4V1_012BpHwOmxStore21setHALInstrumentationEv
_ZN7android8hardware5media3omx4V1_012BpHwOmxStore27_hidl_listServiceAttributesEPNS0_10IInterfaceEPNS0_7details16HidlInstrumentorENSt3__18functionIFvNS3_6StatusERKNS0_8hidl_vecINS3_9IOmxStore9AttributeEEEEEE
_ZN7android8hardware5media3omx4V1_012BpHwOmxStore4pingEv
_ZN7android8hardware5media3omx4V1_012BpHwOmxStore5debugERKNS0_11hidl_handleERKNS0_8hidl_vecINS0_11hidl_stringEEE
_ZN7android8hardware5media3omx4V1_012BpHwOmxStore6getOmxERKNS0_11hidl_stringE
_ZN7android8hardware5media3omx4V1_012BpHwOmxStore9listRolesENSt3__18functionIFvRKNS0_8hidl_vecINS3_9IOmxStore8RoleInfoEEEEEE
_ZN7android8hardware5media3omx4V1_012BpHwOmxStoreC1ERKNS_2spINS0_7IBinderEEE
_ZN7android8hardware5media3omx4V1_012BpHwOmxStoreC2ERKNS_2spINS0_7IBinderEEE
_ZN7android8hardware5media3omx4V1_012IOmxObserver10descriptorE
_ZN7android8hardware5media3omx4V1_012IOmxObserver10getServiceERKNSt3__112basic_stringIcNS5_11char_traitsIcEENS5_9allocatorIcEEEEb
_ZN7android8hardware5media3omx4V1_012IOmxObserver11linkToDeathERKNS_2spINS0_20hidl_death_recipientEEEy
_ZN7android8hardware5media3omx4V1_012IOmxObserver12getDebugInfoENSt3__18functionIFvRKNS_4hidl4base4V1_09DebugInfoEEEE
_ZN7android8hardware5media3omx4V1_012IOmxObserver12getHashChainENSt3__18functionIFvRKNS0_8hidl_vecINS0_10hidl_arrayIhLj32EJEEEEEEEE
_ZN7android8hardware5media3omx4V1_012IOmxObserver13tryGetServiceERKNSt3__112basic_stringIcNS5_11char_traitsIcEENS5_9allocatorIcEEEEb
_ZN7android8hardware5media3omx4V1_012IOmxObserver13unlinkToDeathERKNS_2spINS0_20hidl_death_recipientEEE
_ZN7android8hardware5media3omx4V1_012IOmxObserver14interfaceChainENSt3__18functionIFvRKNS0_8hidl_vecINS0_11hidl_stringEEEEEE
_ZN7android8hardware5media3omx4V1_012IOmxObserver17registerAsServiceERKNSt3__112basic_stringIcNS5_11char_traitsIcEENS5_9allocatorIcEEEE
_ZN7android8hardware5media3omx4V1_012IOmxObserver19interfaceDescriptorENSt3__18functionIFvRKNS0_11hidl_stringEEEE
_ZN7android8hardware5media3omx4V1_012IOmxObserver21notifySyspropsChangedEv
_ZN7android8hardware5media3omx4V1_012IOmxObserver21setHALInstrumentationEv
_ZN7android8hardware5media3omx4V1_012IOmxObserver24registerForNotificationsERKNSt3__112basic_stringIcNS5_11char_traitsIcEENS5_9allocatorIcEEEERKNS_2spINS_4hidl7manager4V1_020IServiceNotificationEEE
_ZN7android8hardware5media3omx4V1_012IOmxObserver4pingEv
_ZN7android8hardware5media3omx4V1_012IOmxObserver5debugERKNS0_11hidl_handleERKNS0_8hidl_vecINS0_11hidl_stringEEE
_ZN7android8hardware5media3omx4V1_012IOmxObserver8castFromERKNS_2spINS_4hidl4base4V1_05IBaseEEEb
_ZN7android8hardware5media3omx4V1_012IOmxObserver8castFromERKNS_2spIS4_EEb
_ZN7android8hardware5media3omx4V1_013BsOmxObserver13addOnewayTaskENSt3__18functionIFvvEEE
_ZN7android8hardware5media3omx4V1_013BsOmxObserverC1ENS_2spINS3_12IOmxObserverEEE
_ZN7android8hardware5media3omx4V1_013BsOmxObserverC2ENS_2spINS3_12IOmxObserverEEE
_ZN7android8hardware5media3omx4V1_015BnHwOmxObserver10onTransactEjRKNS0_6ParcelEPS5_jNSt3__18functionIFvRS5_EEE
_ZN7android8hardware5media3omx4V1_015BnHwOmxObserver12getDebugInfoENSt3__18functionIFvRKNS_4hidl4base4V1_09DebugInfoEEEE
_ZN7android8hardware5media3omx4V1_015BnHwOmxObserver16_hidl_onMessagesEPNS_4hidl4base4V1_08BnHwBaseERKNS0_6ParcelEPSA_NSt3__18functionIFvRSA_EEE
_ZN7android8hardware5media3omx4V1_015BnHwOmxObserver4pingEv
_ZN7android8hardware5media3omx4V1_015BnHwOmxObserverC1ERKNS_2spINS3_12IOmxObserverEEE
_ZN7android8hardware5media3omx4V1_015BnHwOmxObserverC2ERKNS_2spINS3_12IOmxObserverEEE
_ZN7android8hardware5media3omx4V1_015BnHwOmxObserverD0Ev
_ZN7android8hardware5media3omx4V1_015BnHwOmxObserverD1Ev
_ZN7android8hardware5media3omx4V1_015BnHwOmxObserverD2Ev
_ZN7android8hardware5media3omx4V1_015BpHwOmxObserver10onMessagesERKNS0_8hidl_vecINS3_7MessageEEE
_ZN7android8hardware5media3omx4V1_015BpHwOmxObserver11linkToDeathERKNS_2spINS0_20hidl_death_recipientEEEy
_ZN7android8hardware5media3omx4V1_015BpHwOmxObserver12getDebugInfoENSt3__18functionIFvRKNS_4hidl4base4V1_09DebugInfoEEEE
_ZN7android8hardware5media3omx4V1_015BpHwOmxObserver12getHashChainENSt3__18functionIFvRKNS0_8hidl_vecINS0_10hidl_arrayIhLj32EJEEEEEEEE
_ZN7android8hardware5media3omx4V1_015BpHwOmxObserver13unlinkToDeathERKNS_2spINS0_20hidl_death_recipientEEE
_ZN7android8hardware5media3omx4V1_015BpHwOmxObserver14interfaceChainENSt3__18functionIFvRKNS0_8hidl_vecINS0_11hidl_stringEEEEEE
_ZN7android8hardware5media3omx4V1_015BpHwOmxObserver16_hidl_onMessagesEPNS0_10IInterfaceEPNS0_7details16HidlInstrumentorERKNS0_8hidl_vecINS3_7MessageEEE
_ZN7android8hardware5media3omx4V1_015BpHwOmxObserver19interfaceDescriptorENSt3__18functionIFvRKNS0_11hidl_stringEEEE
_ZN7android8hardware5media3omx4V1_015BpHwOmxObserver21notifySyspropsChangedEv
_ZN7android8hardware5media3omx4V1_015BpHwOmxObserver21setHALInstrumentationEv
_ZN7android8hardware5media3omx4V1_015BpHwOmxObserver4pingEv
_ZN7android8hardware5media3omx4V1_015BpHwOmxObserver5debugERKNS0_11hidl_handleERKNS0_8hidl_vecINS0_11hidl_stringEEE
_ZN7android8hardware5media3omx4V1_015BpHwOmxObserverC1ERKNS_2spINS0_7IBinderEEE
_ZN7android8hardware5media3omx4V1_015BpHwOmxObserverC2ERKNS_2spINS0_7IBinderEEE
_ZN7android8hardware5media3omx4V1_016IOmxBufferSource10descriptorE
_ZN7android8hardware5media3omx4V1_016IOmxBufferSource10getServiceERKNSt3__112basic_stringIcNS5_11char_traitsIcEENS5_9allocatorIcEEEEb
_ZN7android8hardware5media3omx4V1_016IOmxBufferSource11linkToDeathERKNS_2spINS0_20hidl_death_recipientEEEy
_ZN7android8hardware5media3omx4V1_016IOmxBufferSource12getDebugInfoENSt3__18functionIFvRKNS_4hidl4base4V1_09DebugInfoEEEE
_ZN7android8hardware5media3omx4V1_016IOmxBufferSource12getHashChainENSt3__18functionIFvRKNS0_8hidl_vecINS0_10hidl_arrayIhLj32EJEEEEEEEE
_ZN7android8hardware5media3omx4V1_016IOmxBufferSource13tryGetServiceERKNSt3__112basic_stringIcNS5_11char_traitsIcEENS5_9allocatorIcEEEEb
_ZN7android8hardware5media3omx4V1_016IOmxBufferSource13unlinkToDeathERKNS_2spINS0_20hidl_death_recipientEEE
_ZN7android8hardware5media3omx4V1_016IOmxBufferSource14interfaceChainENSt3__18functionIFvRKNS0_8hidl_vecINS0_11hidl_stringEEEEEE
_ZN7android8hardware5media3omx4V1_016IOmxBufferSource17registerAsServiceERKNSt3__112basic_stringIcNS5_11char_traitsIcEENS5_9allocatorIcEEEE
_ZN7android8hardware5media3omx4V1_016IOmxBufferSource19interfaceDescriptorENSt3__18functionIFvRKNS0_11hidl_stringEEEE
_ZN7android8hardware5media3omx4V1_016IOmxBufferSource21notifySyspropsChangedEv
_ZN7android8hardware5media3omx4V1_016IOmxBufferSource21setHALInstrumentationEv
_ZN7android8hardware5media3omx4V1_016IOmxBufferSource24registerForNotificationsERKNSt3__112basic_stringIcNS5_11char_traitsIcEENS5_9allocatorIcEEEERKNS_2spINS_4hidl7manager4V1_020IServiceNotificationEEE
_ZN7android8hardware5media3omx4V1_016IOmxBufferSource4pingEv
_ZN7android8hardware5media3omx4V1_016IOmxBufferSource5debugERKNS0_11hidl_handleERKNS0_8hidl_vecINS0_11hidl_stringEEE
_ZN7android8hardware5media3omx4V1_016IOmxBufferSource8castFromERKNS_2spINS_4hidl4base4V1_05IBaseEEEb
_ZN7android8hardware5media3omx4V1_016IOmxBufferSource8castFromERKNS_2spIS4_EEb
_ZN7android8hardware5media3omx4V1_017BsOmxBufferSource13addOnewayTaskENSt3__18functionIFvvEEE
_ZN7android8hardware5media3omx4V1_017BsOmxBufferSourceC1ENS_2spINS3_16IOmxBufferSourceEEE
_ZN7android8hardware5media3omx4V1_017BsOmxBufferSourceC2ENS_2spINS3_16IOmxBufferSourceEEE
_ZN7android8hardware5media3omx4V1_019BnHwOmxBufferSource10onTransactEjRKNS0_6ParcelEPS5_jNSt3__18functionIFvRS5_EEE
_ZN7android8hardware5media3omx4V1_019BnHwOmxBufferSource12getDebugInfoENSt3__18functionIFvRKNS_4hidl4base4V1_09DebugInfoEEEE
_ZN7android8hardware5media3omx4V1_019BnHwOmxBufferSource15_hidl_onOmxIdleEPNS_4hidl4base4V1_08BnHwBaseERKNS0_6ParcelEPSA_NSt3__18functionIFvRSA_EEE
_ZN7android8hardware5media3omx4V1_019BnHwOmxBufferSource17_hidl_onOmxLoadedEPNS_4hidl4base4V1_08BnHwBaseERKNS0_6ParcelEPSA_NSt3__18functionIFvRSA_EEE
_ZN7android8hardware5media3omx4V1_019BnHwOmxBufferSource20_hidl_onOmxExecutingEPNS_4hidl4base4V1_08BnHwBaseERKNS0_6ParcelEPSA_NSt3__18functionIFvRSA_EEE
_ZN7android8hardware5media3omx4V1_019BnHwOmxBufferSource24_hidl_onInputBufferAddedEPNS_4hidl4base4V1_08BnHwBaseERKNS0_6ParcelEPSA_NSt3__18functionIFvRSA_EEE
_ZN7android8hardware5media3omx4V1_019BnHwOmxBufferSource26_hidl_onInputBufferEmptiedEPNS_4hidl4base4V1_08BnHwBaseERKNS0_6ParcelEPSA_NSt3__18functionIFvRSA_EEE
_ZN7android8hardware5media3omx4V1_019BnHwOmxBufferSource4pingEv
_ZN7android8hardware5media3omx4V1_019BnHwOmxBufferSourceC1ERKNS_2spINS3_16IOmxBufferSourceEEE
_ZN7android8hardware5media3omx4V1_019BnHwOmxBufferSourceC2ERKNS_2spINS3_16IOmxBufferSourceEEE
_ZN7android8hardware5media3omx4V1_019BnHwOmxBufferSourceD0Ev
_ZN7android8hardware5media3omx4V1_019BnHwOmxBufferSourceD1Ev
_ZN7android8hardware5media3omx4V1_019BnHwOmxBufferSourceD2Ev
_ZN7android8hardware5media3omx4V1_019BpHwOmxBufferSource11linkToDeathERKNS_2spINS0_20hidl_death_recipientEEEy
_ZN7android8hardware5media3omx4V1_019BpHwOmxBufferSource11onOmxLoadedEv
_ZN7android8hardware5media3omx4V1_019BpHwOmxBufferSource12getDebugInfoENSt3__18functionIFvRKNS_4hidl4base4V1_09DebugInfoEEEE
_ZN7android8hardware5media3omx4V1_019BpHwOmxBufferSource12getHashChainENSt3__18functionIFvRKNS0_8hidl_vecINS0_10hidl_arrayIhLj32EJEEEEEEEE
_ZN7android8hardware5media3omx4V1_019BpHwOmxBufferSource13unlinkToDeathERKNS_2spINS0_20hidl_death_recipientEEE
_ZN7android8hardware5media3omx4V1_019BpHwOmxBufferSource14interfaceChainENSt3__18functionIFvRKNS0_8hidl_vecINS0_11hidl_stringEEEEEE
_ZN7android8hardware5media3omx4V1_019BpHwOmxBufferSource14onOmxExecutingEv
_ZN7android8hardware5media3omx4V1_019BpHwOmxBufferSource15_hidl_onOmxIdleEPNS0_10IInterfaceEPNS0_7details16HidlInstrumentorE
_ZN7android8hardware5media3omx4V1_019BpHwOmxBufferSource17_hidl_onOmxLoadedEPNS0_10IInterfaceEPNS0_7details16HidlInstrumentorE
_ZN7android8hardware5media3omx4V1_019BpHwOmxBufferSource18onInputBufferAddedEj
_ZN7android8hardware5media3omx4V1_019BpHwOmxBufferSource19interfaceDescriptorENSt3__18functionIFvRKNS0_11hidl_stringEEEE
_ZN7android8hardware5media3omx4V1_019BpHwOmxBufferSource20_hidl_onOmxExecutingEPNS0_10IInterfaceEPNS0_7details16HidlInstrumentorE
_ZN7android8hardware5media3omx4V1_019BpHwOmxBufferSource20onInputBufferEmptiedEjRKNS0_11hidl_handleE
_ZN7android8hardware5media3omx4V1_019BpHwOmxBufferSource21notifySyspropsChangedEv
_ZN7android8hardware5media3omx4V1_019BpHwOmxBufferSource21setHALInstrumentationEv
_ZN7android8hardware5media3omx4V1_019BpHwOmxBufferSource24_hidl_onInputBufferAddedEPNS0_10IInterfaceEPNS0_7details16HidlInstrumentorEj
_ZN7android8hardware5media3omx4V1_019BpHwOmxBufferSource26_hidl_onInputBufferEmptiedEPNS0_10IInterfaceEPNS0_7details16HidlInstrumentorEjRKNS0_11hidl_handleE
_ZN7android8hardware5media3omx4V1_019BpHwOmxBufferSource4pingEv
_ZN7android8hardware5media3omx4V1_019BpHwOmxBufferSource5debugERKNS0_11hidl_handleERKNS0_8hidl_vecINS0_11hidl_stringEEE
_ZN7android8hardware5media3omx4V1_019BpHwOmxBufferSource9onOmxIdleEv
_ZN7android8hardware5media3omx4V1_019BpHwOmxBufferSourceC1ERKNS_2spINS0_7IBinderEEE
_ZN7android8hardware5media3omx4V1_019BpHwOmxBufferSourceC2ERKNS_2spINS0_7IBinderEEE
_ZN7android8hardware5media3omx4V1_020IGraphicBufferSource10descriptorE
_ZN7android8hardware5media3omx4V1_020IGraphicBufferSource10getServiceERKNSt3__112basic_stringIcNS5_11char_traitsIcEENS5_9allocatorIcEEEEb
_ZN7android8hardware5media3omx4V1_020IGraphicBufferSource11linkToDeathERKNS_2spINS0_20hidl_death_recipientEEEy
_ZN7android8hardware5media3omx4V1_020IGraphicBufferSource12getDebugInfoENSt3__18functionIFvRKNS_4hidl4base4V1_09DebugInfoEEEE
_ZN7android8hardware5media3omx4V1_020IGraphicBufferSource12getHashChainENSt3__18functionIFvRKNS0_8hidl_vecINS0_10hidl_arrayIhLj32EJEEEEEEEE
_ZN7android8hardware5media3omx4V1_020IGraphicBufferSource13tryGetServiceERKNSt3__112basic_stringIcNS5_11char_traitsIcEENS5_9allocatorIcEEEEb
_ZN7android8hardware5media3omx4V1_020IGraphicBufferSource13unlinkToDeathERKNS_2spINS0_20hidl_death_recipientEEE
_ZN7android8hardware5media3omx4V1_020IGraphicBufferSource14interfaceChainENSt3__18functionIFvRKNS0_8hidl_vecINS0_11hidl_stringEEEEEE
_ZN7android8hardware5media3omx4V1_020IGraphicBufferSource17registerAsServiceERKNSt3__112basic_stringIcNS5_11char_traitsIcEENS5_9allocatorIcEEEE
_ZN7android8hardware5media3omx4V1_020IGraphicBufferSource19interfaceDescriptorENSt3__18functionIFvRKNS0_11hidl_stringEEEE
_ZN7android8hardware5media3omx4V1_020IGraphicBufferSource21notifySyspropsChangedEv
_ZN7android8hardware5media3omx4V1_020IGraphicBufferSource21setHALInstrumentationEv
_ZN7android8hardware5media3omx4V1_020IGraphicBufferSource24registerForNotificationsERKNSt3__112basic_stringIcNS5_11char_traitsIcEENS5_9allocatorIcEEEERKNS_2spINS_4hidl7manager4V1_020IServiceNotificationEEE
_ZN7android8hardware5media3omx4V1_020IGraphicBufferSource4pingEv
_ZN7android8hardware5media3omx4V1_020IGraphicBufferSource5debugERKNS0_11hidl_handleERKNS0_8hidl_vecINS0_11hidl_stringEEE
_ZN7android8hardware5media3omx4V1_020IGraphicBufferSource8castFromERKNS_2spINS_4hidl4base4V1_05IBaseEEEb
_ZN7android8hardware5media3omx4V1_020IGraphicBufferSource8castFromERKNS_2spIS4_EEb
_ZN7android8hardware5media3omx4V1_021BsGraphicBufferSource13addOnewayTaskENSt3__18functionIFvvEEE
_ZN7android8hardware5media3omx4V1_021BsGraphicBufferSourceC1ENS_2spINS3_20IGraphicBufferSourceEEE
_ZN7android8hardware5media3omx4V1_021BsGraphicBufferSourceC2ENS_2spINS3_20IGraphicBufferSourceEEE
_ZN7android8hardware5media3omx4V1_021writeEmbeddedToParcelERKNS3_11CodecBufferEPNS0_6ParcelEjj
_ZN7android8hardware5media3omx4V1_021writeEmbeddedToParcelERKNS3_4IOmx13ComponentInfoEPNS0_6ParcelEjj
_ZN7android8hardware5media3omx4V1_021writeEmbeddedToParcelERKNS3_7MessageEPNS0_6ParcelEjj
_ZN7android8hardware5media3omx4V1_021writeEmbeddedToParcelERKNS3_9IOmxStore8NodeInfoEPNS0_6ParcelEjj
_ZN7android8hardware5media3omx4V1_021writeEmbeddedToParcelERKNS3_9IOmxStore8RoleInfoEPNS0_6ParcelEjj
_ZN7android8hardware5media3omx4V1_021writeEmbeddedToParcelERKNS3_9IOmxStore9AttributeEPNS0_6ParcelEjj
_ZN7android8hardware5media3omx4V1_022readEmbeddedFromParcelERKNS3_11CodecBufferERKNS0_6ParcelEjj
_ZN7android8hardware5media3omx4V1_022readEmbeddedFromParcelERKNS3_4IOmx13ComponentInfoERKNS0_6ParcelEjj
_ZN7android8hardware5media3omx4V1_022readEmbeddedFromParcelERKNS3_7MessageERKNS0_6ParcelEjj
_ZN7android8hardware5media3omx4V1_022readEmbeddedFromParcelERKNS3_9IOmxStore8NodeInfoERKNS0_6ParcelEjj
_ZN7android8hardware5media3omx4V1_022readEmbeddedFromParcelERKNS3_9IOmxStore8RoleInfoERKNS0_6ParcelEjj
_ZN7android8hardware5media3omx4V1_022readEmbeddedFromParcelERKNS3_9IOmxStore9AttributeERKNS0_6ParcelEjj
_ZN7android8hardware5media3omx4V1_023BnHwGraphicBufferSource10onTransactEjRKNS0_6ParcelEPS5_jNSt3__18functionIFvRS5_EEE
_ZN7android8hardware5media3omx4V1_023BnHwGraphicBufferSource12getDebugInfoENSt3__18functionIFvRKNS_4hidl4base4V1_09DebugInfoEEEE
_ZN7android8hardware5media3omx4V1_023BnHwGraphicBufferSource15_hidl_configureEPNS_4hidl4base4V1_08BnHwBaseERKNS0_6ParcelEPSA_NSt3__18functionIFvRSA_EEE
_ZN7android8hardware5media3omx4V1_023BnHwGraphicBufferSource15_hidl_setMaxFpsEPNS_4hidl4base4V1_08BnHwBaseERKNS0_6ParcelEPSA_NSt3__18functionIFvRSA_EEE
_ZN7android8hardware5media3omx4V1_023BnHwGraphicBufferSource16_hidl_setSuspendEPNS_4hidl4base4V1_08BnHwBaseERKNS0_6ParcelEPSA_NSt3__18functionIFvRSA_EEE
_ZN7android8hardware5media3omx4V1_023BnHwGraphicBufferSource19_hidl_setStopTimeUsEPNS_4hidl4base4V1_08BnHwBaseERKNS0_6ParcelEPSA_NSt3__18functionIFvRSA_EEE
_ZN7android8hardware5media3omx4V1_023BnHwGraphicBufferSource20_hidl_setStartTimeUsEPNS_4hidl4base4V1_08BnHwBaseERKNS0_6ParcelEPSA_NSt3__18functionIFvRSA_EEE
_ZN7android8hardware5media3omx4V1_023BnHwGraphicBufferSource21_hidl_setColorAspectsEPNS_4hidl4base4V1_08BnHwBaseERKNS0_6ParcelEPSA_NSt3__18functionIFvRSA_EEE
_ZN7android8hardware5media3omx4V1_023BnHwGraphicBufferSource21_hidl_setTimeOffsetUsEPNS_4hidl4base4V1_08BnHwBaseERKNS0_6ParcelEPSA_NSt3__18functionIFvRSA_EEE
_ZN7android8hardware5media3omx4V1_023BnHwGraphicBufferSource24_hidl_setTimeLapseConfigEPNS_4hidl4base4V1_08BnHwBaseERKNS0_6ParcelEPSA_NSt3__18functionIFvRSA_EEE
_ZN7android8hardware5media3omx4V1_023BnHwGraphicBufferSource25_hidl_getStopTimeOffsetUsEPNS_4hidl4base4V1_08BnHwBaseERKNS0_6ParcelEPSA_NSt3__18functionIFvRSA_EEE
_ZN7android8hardware5media3omx4V1_023BnHwGraphicBufferSource28_hidl_signalEndOfInputStreamEPNS_4hidl4base4V1_08BnHwBaseERKNS0_6ParcelEPSA_NSt3__18functionIFvRSA_EEE
_ZN7android8hardware5media3omx4V1_023BnHwGraphicBufferSource35_hidl_setRepeatPreviousFrameDelayUsEPNS_4hidl4base4V1_08BnHwBaseERKNS0_6ParcelEPSA_NSt3__18functionIFvRSA_EEE
_ZN7android8hardware5media3omx4V1_023BnHwGraphicBufferSource4pingEv
_ZN7android8hardware5media3omx4V1_023BnHwGraphicBufferSourceC1ERKNS_2spINS3_20IGraphicBufferSourceEEE
_ZN7android8hardware5media3omx4V1_023BnHwGraphicBufferSourceC2ERKNS_2spINS3_20IGraphicBufferSourceEEE
_ZN7android8hardware5media3omx4V1_023BnHwGraphicBufferSourceD0Ev
_ZN7android8hardware5media3omx4V1_023BnHwGraphicBufferSourceD1Ev
_ZN7android8hardware5media3omx4V1_023BnHwGraphicBufferSourceD2Ev
_ZN7android8hardware5media3omx4V1_023BpHwGraphicBufferSource10setSuspendEbx
_ZN7android8hardware5media3omx4V1_023BpHwGraphicBufferSource11linkToDeathERKNS_2spINS0_20hidl_death_recipientEEEy
_ZN7android8hardware5media3omx4V1_023BpHwGraphicBufferSource12getDebugInfoENSt3__18functionIFvRKNS_4hidl4base4V1_09DebugInfoEEEE
_ZN7android8hardware5media3omx4V1_023BpHwGraphicBufferSource12getHashChainENSt3__18functionIFvRKNS0_8hidl_vecINS0_10hidl_arrayIhLj32EJEEEEEEEE
_ZN7android8hardware5media3omx4V1_023BpHwGraphicBufferSource13setStopTimeUsEx
_ZN7android8hardware5media3omx4V1_023BpHwGraphicBufferSource13unlinkToDeathERKNS_2spINS0_20hidl_death_recipientEEE
_ZN7android8hardware5media3omx4V1_023BpHwGraphicBufferSource14interfaceChainENSt3__18functionIFvRKNS0_8hidl_vecINS0_11hidl_stringEEEEEE
_ZN7android8hardware5media3omx4V1_023BpHwGraphicBufferSource14setStartTimeUsEx
_ZN7android8hardware5media3omx4V1_023BpHwGraphicBufferSource15_hidl_configureEPNS0_10IInterfaceEPNS0_7details16HidlInstrumentorERKNS_2spINS3_8IOmxNodeEEENS0_8graphics6common4V1_09DataspaceE
_ZN7android8hardware5media3omx4V1_023BpHwGraphicBufferSource15_hidl_setMaxFpsEPNS0_10IInterfaceEPNS0_7details16HidlInstrumentorEf
_ZN7android8hardware5media3omx4V1_023BpHwGraphicBufferSource15setColorAspectsERKNS3_12ColorAspectsE
_ZN7android8hardware5media3omx4V1_023BpHwGraphicBufferSource15setTimeOffsetUsEx
_ZN7android8hardware5media3omx4V1_023BpHwGraphicBufferSource16_hidl_setSuspendEPNS0_10IInterfaceEPNS0_7details16HidlInstrumentorEbx
_ZN7android8hardware5media3omx4V1_023BpHwGraphicBufferSource18setTimeLapseConfigEdd
_ZN7android8hardware5media3omx4V1_023BpHwGraphicBufferSource19_hidl_setStopTimeUsEPNS0_10IInterfaceEPNS0_7details16HidlInstrumentorEx
_ZN7android8hardware5media3omx4V1_023BpHwGraphicBufferSource19getStopTimeOffsetUsENSt3__18functionIFvNS3_6StatusExEEE
_ZN7android8hardware5media3omx4V1_023BpHwGraphicBufferSource19interfaceDescriptorENSt3__18functionIFvRKNS0_11hidl_stringEEEE
_ZN7android8hardware5media3omx4V1_023BpHwGraphicBufferSource20_hidl_setStartTimeUsEPNS0_10IInterfaceEPNS0_7details16HidlInstrumentorEx
_ZN7android8hardware5media3omx4V1_023BpHwGraphicBufferSource21_hidl_setColorAspectsEPNS0_10IInterfaceEPNS0_7details16HidlInstrumentorERKNS3_12ColorAspectsE
_ZN7android8hardware5media3omx4V1_023BpHwGraphicBufferSource21_hidl_setTimeOffsetUsEPNS0_10IInterfaceEPNS0_7details16HidlInstrumentorEx
_ZN7android8hardware5media3omx4V1_023BpHwGraphicBufferSource21notifySyspropsChangedEv
_ZN7android8hardware5media3omx4V1_023BpHwGraphicBufferSource21setHALInstrumentationEv
_ZN7android8hardware5media3omx4V1_023BpHwGraphicBufferSource22signalEndOfInputStreamEv
_ZN7android8hardware5media3omx4V1_023BpHwGraphicBufferSource24_hidl_setTimeLapseConfigEPNS0_10IInterfaceEPNS0_7details16HidlInstrumentorEdd
_ZN7android8hardware5media3omx4V1_023BpHwGraphicBufferSource25_hidl_getStopTimeOffsetUsEPNS0_10IInterfaceEPNS0_7details16HidlInstrumentorENSt3__18functionIFvNS3_6StatusExEEE
_ZN7android8hardware5media3omx4V1_023BpHwGraphicBufferSource28_hidl_signalEndOfInputStreamEPNS0_10IInterfaceEPNS0_7details16HidlInstrumentorE
_ZN7android8hardware5media3omx4V1_023BpHwGraphicBufferSource29setRepeatPreviousFrameDelayUsEx
_ZN7android8hardware5media3omx4V1_023BpHwGraphicBufferSource35_hidl_setRepeatPreviousFrameDelayUsEPNS0_10IInterfaceEPNS0_7details16HidlInstrumentorEx
_ZN7android8hardware5media3omx4V1_023BpHwGraphicBufferSource4pingEv
_ZN7android8hardware5media3omx4V1_023BpHwGraphicBufferSource5debugERKNS0_11hidl_handleERKNS0_8hidl_vecINS0_11hidl_stringEEE
_ZN7android8hardware5media3omx4V1_023BpHwGraphicBufferSource9configureERKNS_2spINS3_8IOmxNodeEEENS0_8graphics6common4V1_09DataspaceE
_ZN7android8hardware5media3omx4V1_023BpHwGraphicBufferSource9setMaxFpsEf
_ZN7android8hardware5media3omx4V1_023BpHwGraphicBufferSourceC1ERKNS_2spINS0_7IBinderEEE
_ZN7android8hardware5media3omx4V1_023BpHwGraphicBufferSourceC2ERKNS_2spINS0_7IBinderEEE
_ZN7android8hardware5media3omx4V1_04IOmx10descriptorE
_ZN7android8hardware5media3omx4V1_04IOmx10getServiceERKNSt3__112basic_stringIcNS5_11char_traitsIcEENS5_9allocatorIcEEEEb
_ZN7android8hardware5media3omx4V1_04IOmx11linkToDeathERKNS_2spINS0_20hidl_death_recipientEEEy
_ZN7android8hardware5media3omx4V1_04IOmx12getDebugInfoENSt3__18functionIFvRKNS_4hidl4base4V1_09DebugInfoEEEE
_ZN7android8hardware5media3omx4V1_04IOmx12getHashChainENSt3__18functionIFvRKNS0_8hidl_vecINS0_10hidl_arrayIhLj32EJEEEEEEEE
_ZN7android8hardware5media3omx4V1_04IOmx13tryGetServiceERKNSt3__112basic_stringIcNS5_11char_traitsIcEENS5_9allocatorIcEEEEb
_ZN7android8hardware5media3omx4V1_04IOmx13unlinkToDeathERKNS_2spINS0_20hidl_death_recipientEEE
_ZN7android8hardware5media3omx4V1_04IOmx14interfaceChainENSt3__18functionIFvRKNS0_8hidl_vecINS0_11hidl_stringEEEEEE
_ZN7android8hardware5media3omx4V1_04IOmx17registerAsServiceERKNSt3__112basic_stringIcNS5_11char_traitsIcEENS5_9allocatorIcEEEE
_ZN7android8hardware5media3omx4V1_04IOmx19interfaceDescriptorENSt3__18functionIFvRKNS0_11hidl_stringEEEE
_ZN7android8hardware5media3omx4V1_04IOmx21notifySyspropsChangedEv
_ZN7android8hardware5media3omx4V1_04IOmx21setHALInstrumentationEv
_ZN7android8hardware5media3omx4V1_04IOmx24registerForNotificationsERKNSt3__112basic_stringIcNS5_11char_traitsIcEENS5_9allocatorIcEEEERKNS_2spINS_4hidl7manager4V1_020IServiceNotificationEEE
_ZN7android8hardware5media3omx4V1_04IOmx4pingEv
_ZN7android8hardware5media3omx4V1_04IOmx5debugERKNS0_11hidl_handleERKNS0_8hidl_vecINS0_11hidl_stringEEE
_ZN7android8hardware5media3omx4V1_04IOmx8castFromERKNS_2spINS_4hidl4base4V1_05IBaseEEEb
_ZN7android8hardware5media3omx4V1_04IOmx8castFromERKNS_2spIS4_EEb
_ZN7android8hardware5media3omx4V1_05BsOmx13addOnewayTaskENSt3__18functionIFvvEEE
_ZN7android8hardware5media3omx4V1_05BsOmxC1ENS_2spINS3_4IOmxEEE
_ZN7android8hardware5media3omx4V1_05BsOmxC2ENS_2spINS3_4IOmxEEE
_ZN7android8hardware5media3omx4V1_07BnHwOmx10onTransactEjRKNS0_6ParcelEPS5_jNSt3__18functionIFvRS5_EEE
_ZN7android8hardware5media3omx4V1_07BnHwOmx12getDebugInfoENSt3__18functionIFvRKNS_4hidl4base4V1_09DebugInfoEEEE
_ZN7android8hardware5media3omx4V1_07BnHwOmx15_hidl_listNodesEPNS_4hidl4base4V1_08BnHwBaseERKNS0_6ParcelEPSA_NSt3__18functionIFvRSA_EEE
_ZN7android8hardware5media3omx4V1_07BnHwOmx18_hidl_allocateNodeEPNS_4hidl4base4V1_08BnHwBaseERKNS0_6ParcelEPSA_NSt3__18functionIFvRSA_EEE
_ZN7android8hardware5media3omx4V1_07BnHwOmx24_hidl_createInputSurfaceEPNS_4hidl4base4V1_08BnHwBaseERKNS0_6ParcelEPSA_NSt3__18functionIFvRSA_EEE
_ZN7android8hardware5media3omx4V1_07BnHwOmx4pingEv
_ZN7android8hardware5media3omx4V1_07BnHwOmxC1ERKNS_2spINS3_4IOmxEEE
_ZN7android8hardware5media3omx4V1_07BnHwOmxC2ERKNS_2spINS3_4IOmxEEE
_ZN7android8hardware5media3omx4V1_07BnHwOmxD0Ev
_ZN7android8hardware5media3omx4V1_07BnHwOmxD1Ev
_ZN7android8hardware5media3omx4V1_07BnHwOmxD2Ev
_ZN7android8hardware5media3omx4V1_07BpHwOmx11linkToDeathERKNS_2spINS0_20hidl_death_recipientEEEy
_ZN7android8hardware5media3omx4V1_07BpHwOmx12allocateNodeERKNS0_11hidl_stringERKNS_2spINS3_12IOmxObserverEEENSt3__18functionIFvNS3_6StatusERKNS8_INS3_8IOmxNodeEEEEEE
_ZN7android8hardware5media3omx4V1_07BpHwOmx12getDebugInfoENSt3__18functionIFvRKNS_4hidl4base4V1_09DebugInfoEEEE
_ZN7android8hardware5media3omx4V1_07BpHwOmx12getHashChainENSt3__18functionIFvRKNS0_8hidl_vecINS0_10hidl_arrayIhLj32EJEEEEEEEE
_ZN7android8hardware5media3omx4V1_07BpHwOmx13unlinkToDeathERKNS_2spINS0_20hidl_death_recipientEEE
_ZN7android8hardware5media3omx4V1_07BpHwOmx14interfaceChainENSt3__18functionIFvRKNS0_8hidl_vecINS0_11hidl_stringEEEEEE
_ZN7android8hardware5media3omx4V1_07BpHwOmx15_hidl_listNodesEPNS0_10IInterfaceEPNS0_7details16HidlInstrumentorENSt3__18functionIFvNS3_6StatusERKNS0_8hidl_vecINS3_4IOmx13ComponentInfoEEEEEE
_ZN7android8hardware5media3omx4V1_07BpHwOmx18_hidl_allocateNodeEPNS0_10IInterfaceEPNS0_7details16HidlInstrumentorERKNS0_11hidl_stringERKNS_2spINS3_12IOmxObserverEEENSt3__18functionIFvNS3_6StatusERKNSD_INS3_8IOmxNodeEEEEEE
_ZN7android8hardware5media3omx4V1_07BpHwOmx18createInputSurfaceENSt3__18functionIFvNS3_6StatusERKNS_2spINS0_8graphics11bufferqueue4V1_022IGraphicBufferProducerEEERKNS8_INS3_20IGraphicBufferSourceEEEEEE
_ZN7android8hardware5media3omx4V1_07BpHwOmx19interfaceDescriptorENSt3__18functionIFvRKNS0_11hidl_stringEEEE
_ZN7android8hardware5media3omx4V1_07BpHwOmx21notifySyspropsChangedEv
_ZN7android8hardware5media3omx4V1_07BpHwOmx21setHALInstrumentationEv
_ZN7android8hardware5media3omx4V1_07BpHwOmx24_hidl_createInputSurfaceEPNS0_10IInterfaceEPNS0_7details16HidlInstrumentorENSt3__18functionIFvNS3_6StatusERKNS_2spINS0_8graphics11bufferqueue4V1_022IGraphicBufferProducerEEERKNSD_INS3_20IGraphicBufferSourceEEEEEE
_ZN7android8hardware5media3omx4V1_07BpHwOmx4pingEv
_ZN7android8hardware5media3omx4V1_07BpHwOmx5debugERKNS0_11hidl_handleERKNS0_8hidl_vecINS0_11hidl_stringEEE
_ZN7android8hardware5media3omx4V1_07BpHwOmx9listNodesENSt3__18functionIFvNS3_6StatusERKNS0_8hidl_vecINS3_4IOmx13ComponentInfoEEEEEE
_ZN7android8hardware5media3omx4V1_07BpHwOmxC1ERKNS_2spINS0_7IBinderEEE
_ZN7android8hardware5media3omx4V1_07BpHwOmxC2ERKNS_2spINS0_7IBinderEEE
_ZN7android8hardware5media3omx4V1_08IOmxNode10descriptorE
_ZN7android8hardware5media3omx4V1_08IOmxNode10getServiceERKNSt3__112basic_stringIcNS5_11char_traitsIcEENS5_9allocatorIcEEEEb
_ZN7android8hardware5media3omx4V1_08IOmxNode11linkToDeathERKNS_2spINS0_20hidl_death_recipientEEEy
_ZN7android8hardware5media3omx4V1_08IOmxNode12getDebugInfoENSt3__18functionIFvRKNS_4hidl4base4V1_09DebugInfoEEEE
_ZN7android8hardware5media3omx4V1_08IOmxNode12getHashChainENSt3__18functionIFvRKNS0_8hidl_vecINS0_10hidl_arrayIhLj32EJEEEEEEEE
_ZN7android8hardware5media3omx4V1_08IOmxNode13tryGetServiceERKNSt3__112basic_stringIcNS5_11char_traitsIcEENS5_9allocatorIcEEEEb
_ZN7android8hardware5media3omx4V1_08IOmxNode13unlinkToDeathERKNS_2spINS0_20hidl_death_recipientEEE
_ZN7android8hardware5media3omx4V1_08IOmxNode14interfaceChainENSt3__18functionIFvRKNS0_8hidl_vecINS0_11hidl_stringEEEEEE
_ZN7android8hardware5media3omx4V1_08IOmxNode17registerAsServiceERKNSt3__112basic_stringIcNS5_11char_traitsIcEENS5_9allocatorIcEEEE
_ZN7android8hardware5media3omx4V1_08IOmxNode19interfaceDescriptorENSt3__18functionIFvRKNS0_11hidl_stringEEEE
_ZN7android8hardware5media3omx4V1_08IOmxNode21notifySyspropsChangedEv
_ZN7android8hardware5media3omx4V1_08IOmxNode21setHALInstrumentationEv
_ZN7android8hardware5media3omx4V1_08IOmxNode24registerForNotificationsERKNSt3__112basic_stringIcNS5_11char_traitsIcEENS5_9allocatorIcEEEERKNS_2spINS_4hidl7manager4V1_020IServiceNotificationEEE
_ZN7android8hardware5media3omx4V1_08IOmxNode4pingEv
_ZN7android8hardware5media3omx4V1_08IOmxNode5debugERKNS0_11hidl_handleERKNS0_8hidl_vecINS0_11hidl_stringEEE
_ZN7android8hardware5media3omx4V1_08IOmxNode8castFromERKNS_2spINS_4hidl4base4V1_05IBaseEEEb
_ZN7android8hardware5media3omx4V1_08IOmxNode8castFromERKNS_2spIS4_EEb
_ZN7android8hardware5media3omx4V1_09BsOmxNode13addOnewayTaskENSt3__18functionIFvvEEE
_ZN7android8hardware5media3omx4V1_09BsOmxNodeC1ENS_2spINS3_8IOmxNodeEEE
_ZN7android8hardware5media3omx4V1_09BsOmxNodeC2ENS_2spINS3_8IOmxNodeEEE
_ZN7android8hardware5media3omx4V1_09IOmxStore10descriptorE
_ZN7android8hardware5media3omx4V1_09IOmxStore10getServiceERKNSt3__112basic_stringIcNS5_11char_traitsIcEENS5_9allocatorIcEEEEb
_ZN7android8hardware5media3omx4V1_09IOmxStore11linkToDeathERKNS_2spINS0_20hidl_death_recipientEEEy
_ZN7android8hardware5media3omx4V1_09IOmxStore12getDebugInfoENSt3__18functionIFvRKNS_4hidl4base4V1_09DebugInfoEEEE
_ZN7android8hardware5media3omx4V1_09IOmxStore12getHashChainENSt3__18functionIFvRKNS0_8hidl_vecINS0_10hidl_arrayIhLj32EJEEEEEEEE
_ZN7android8hardware5media3omx4V1_09IOmxStore13tryGetServiceERKNSt3__112basic_stringIcNS5_11char_traitsIcEENS5_9allocatorIcEEEEb
_ZN7android8hardware5media3omx4V1_09IOmxStore13unlinkToDeathERKNS_2spINS0_20hidl_death_recipientEEE
_ZN7android8hardware5media3omx4V1_09IOmxStore14interfaceChainENSt3__18functionIFvRKNS0_8hidl_vecINS0_11hidl_stringEEEEEE
_ZN7android8hardware5media3omx4V1_09IOmxStore17registerAsServiceERKNSt3__112basic_stringIcNS5_11char_traitsIcEENS5_9allocatorIcEEEE
_ZN7android8hardware5media3omx4V1_09IOmxStore19interfaceDescriptorENSt3__18functionIFvRKNS0_11hidl_stringEEEE
_ZN7android8hardware5media3omx4V1_09IOmxStore21notifySyspropsChangedEv
_ZN7android8hardware5media3omx4V1_09IOmxStore21setHALInstrumentationEv
_ZN7android8hardware5media3omx4V1_09IOmxStore24registerForNotificationsERKNSt3__112basic_stringIcNS5_11char_traitsIcEENS5_9allocatorIcEEEERKNS_2spINS_4hidl7manager4V1_020IServiceNotificationEEE
_ZN7android8hardware5media3omx4V1_09IOmxStore4pingEv
_ZN7android8hardware5media3omx4V1_09IOmxStore5debugERKNS0_11hidl_handleERKNS0_8hidl_vecINS0_11hidl_stringEEE
_ZN7android8hardware5media3omx4V1_09IOmxStore8castFromERKNS_2spINS_4hidl4base4V1_05IBaseEEEb
_ZN7android8hardware5media3omx4V1_09IOmxStore8castFromERKNS_2spIS4_EEb
_ZTCN7android8hardware5media3omx4V1_011BnHwOmxNodeE0_NS0_7IBinderE
_ZTCN7android8hardware5media3omx4V1_011BnHwOmxNodeE0_NS0_9BHwBinderE
_ZTCN7android8hardware5media3omx4V1_011BnHwOmxNodeE0_NS_4hidl4base4V1_08BnHwBaseE
_ZTCN7android8hardware5media3omx4V1_011BpHwOmxNodeE0_NS0_11BpInterfaceINS3_8IOmxNodeEEE
_ZTCN7android8hardware5media3omx4V1_011BpHwOmxNodeE0_NS3_8IOmxNodeE
_ZTCN7android8hardware5media3omx4V1_011BpHwOmxNodeE0_NS_4hidl4base4V1_05IBaseE
_ZTCN7android8hardware5media3omx4V1_011BpHwOmxNodeE4_NS0_10IInterfaceE
_ZTCN7android8hardware5media3omx4V1_011BpHwOmxNodeE8_NS0_11BpHwRefBaseE
_ZTCN7android8hardware5media3omx4V1_012BnHwOmxStoreE0_NS0_7IBinderE
_ZTCN7android8hardware5media3omx4V1_012BnHwOmxStoreE0_NS0_9BHwBinderE
_ZTCN7android8hardware5media3omx4V1_012BnHwOmxStoreE0_NS_4hidl4base4V1_08BnHwBaseE
_ZTCN7android8hardware5media3omx4V1_012BpHwOmxStoreE0_NS0_11BpInterfaceINS3_9IOmxStoreEEE
_ZTCN7android8hardware5media3omx4V1_012BpHwOmxStoreE0_NS3_9IOmxStoreE
_ZTCN7android8hardware5media3omx4V1_012BpHwOmxStoreE0_NS_4hidl4base4V1_05IBaseE
_ZTCN7android8hardware5media3omx4V1_012BpHwOmxStoreE4_NS0_10IInterfaceE
_ZTCN7android8hardware5media3omx4V1_012BpHwOmxStoreE8_NS0_11BpHwRefBaseE
_ZTCN7android8hardware5media3omx4V1_012IOmxObserverE0_NS_4hidl4base4V1_05IBaseE
_ZTCN7android8hardware5media3omx4V1_015BnHwOmxObserverE0_NS0_7IBinderE
_ZTCN7android8hardware5media3omx4V1_015BnHwOmxObserverE0_NS0_9BHwBinderE
_ZTCN7android8hardware5media3omx4V1_015BnHwOmxObserverE0_NS_4hidl4base4V1_08BnHwBaseE
_ZTCN7android8hardware5media3omx4V1_015BpHwOmxObserverE0_NS0_11BpInterfaceINS3_12IOmxObserverEEE
_ZTCN7android8hardware5media3omx4V1_015BpHwOmxObserverE0_NS3_12IOmxObserverE
_ZTCN7android8hardware5media3omx4V1_015BpHwOmxObserverE0_NS_4hidl4base4V1_05IBaseE
_ZTCN7android8hardware5media3omx4V1_015BpHwOmxObserverE4_NS0_10IInterfaceE
_ZTCN7android8hardware5media3omx4V1_015BpHwOmxObserverE8_NS0_11BpHwRefBaseE
_ZTCN7android8hardware5media3omx4V1_016IOmxBufferSourceE0_NS_4hidl4base4V1_05IBaseE
_ZTCN7android8hardware5media3omx4V1_019BnHwOmxBufferSourceE0_NS0_7IBinderE
_ZTCN7android8hardware5media3omx4V1_019BnHwOmxBufferSourceE0_NS0_9BHwBinderE
_ZTCN7android8hardware5media3omx4V1_019BnHwOmxBufferSourceE0_NS_4hidl4base4V1_08BnHwBaseE
_ZTCN7android8hardware5media3omx4V1_019BpHwOmxBufferSourceE0_NS0_11BpInterfaceINS3_16IOmxBufferSourceEEE
_ZTCN7android8hardware5media3omx4V1_019BpHwOmxBufferSourceE0_NS3_16IOmxBufferSourceE
_ZTCN7android8hardware5media3omx4V1_019BpHwOmxBufferSourceE0_NS_4hidl4base4V1_05IBaseE
_ZTCN7android8hardware5media3omx4V1_019BpHwOmxBufferSourceE4_NS0_10IInterfaceE
_ZTCN7android8hardware5media3omx4V1_019BpHwOmxBufferSourceE8_NS0_11BpHwRefBaseE
_ZTCN7android8hardware5media3omx4V1_020IGraphicBufferSourceE0_NS_4hidl4base4V1_05IBaseE
_ZTCN7android8hardware5media3omx4V1_023BnHwGraphicBufferSourceE0_NS0_7IBinderE
_ZTCN7android8hardware5media3omx4V1_023BnHwGraphicBufferSourceE0_NS0_9BHwBinderE
_ZTCN7android8hardware5media3omx4V1_023BnHwGraphicBufferSourceE0_NS_4hidl4base4V1_08BnHwBaseE
_ZTCN7android8hardware5media3omx4V1_023BpHwGraphicBufferSourceE0_NS0_11BpInterfaceINS3_20IGraphicBufferSourceEEE
_ZTCN7android8hardware5media3omx4V1_023BpHwGraphicBufferSourceE0_NS3_20IGraphicBufferSourceE
_ZTCN7android8hardware5media3omx4V1_023BpHwGraphicBufferSourceE0_NS_4hidl4base4V1_05IBaseE
_ZTCN7android8hardware5media3omx4V1_023BpHwGraphicBufferSourceE4_NS0_10IInterfaceE
_ZTCN7android8hardware5media3omx4V1_023BpHwGraphicBufferSourceE8_NS0_11BpHwRefBaseE
_ZTCN7android8hardware5media3omx4V1_04IOmxE0_NS_4hidl4base4V1_05IBaseE
_ZTCN7android8hardware5media3omx4V1_07BnHwOmxE0_NS0_7IBinderE
_ZTCN7android8hardware5media3omx4V1_07BnHwOmxE0_NS0_9BHwBinderE
_ZTCN7android8hardware5media3omx4V1_07BnHwOmxE0_NS_4hidl4base4V1_08BnHwBaseE
_ZTCN7android8hardware5media3omx4V1_07BpHwOmxE0_NS0_11BpInterfaceINS3_4IOmxEEE
_ZTCN7android8hardware5media3omx4V1_07BpHwOmxE0_NS3_4IOmxE
_ZTCN7android8hardware5media3omx4V1_07BpHwOmxE0_NS_4hidl4base4V1_05IBaseE
_ZTCN7android8hardware5media3omx4V1_07BpHwOmxE4_NS0_10IInterfaceE
_ZTCN7android8hardware5media3omx4V1_07BpHwOmxE8_NS0_11BpHwRefBaseE
_ZTCN7android8hardware5media3omx4V1_08IOmxNodeE0_NS_4hidl4base4V1_05IBaseE
_ZTCN7android8hardware5media3omx4V1_09IOmxStoreE0_NS_4hidl4base4V1_05IBaseE
_ZTTN7android8hardware5media3omx4V1_011BnHwOmxNodeE
_ZTTN7android8hardware5media3omx4V1_011BpHwOmxNodeE
_ZTTN7android8hardware5media3omx4V1_012BnHwOmxStoreE
_ZTTN7android8hardware5media3omx4V1_012BpHwOmxStoreE
_ZTTN7android8hardware5media3omx4V1_012IOmxObserverE
_ZTTN7android8hardware5media3omx4V1_015BnHwOmxObserverE
_ZTTN7android8hardware5media3omx4V1_015BpHwOmxObserverE
_ZTTN7android8hardware5media3omx4V1_016IOmxBufferSourceE
_ZTTN7android8hardware5media3omx4V1_019BnHwOmxBufferSourceE
_ZTTN7android8hardware5media3omx4V1_019BpHwOmxBufferSourceE
_ZTTN7android8hardware5media3omx4V1_020IGraphicBufferSourceE
_ZTTN7android8hardware5media3omx4V1_023BnHwGraphicBufferSourceE
_ZTTN7android8hardware5media3omx4V1_023BpHwGraphicBufferSourceE
_ZTTN7android8hardware5media3omx4V1_04IOmxE
_ZTTN7android8hardware5media3omx4V1_07BnHwOmxE
_ZTTN7android8hardware5media3omx4V1_07BpHwOmxE
_ZTTN7android8hardware5media3omx4V1_08IOmxNodeE
_ZTTN7android8hardware5media3omx4V1_09IOmxStoreE
_ZTVN7android8hardware5media3omx4V1_011BnHwOmxNodeE
_ZTVN7android8hardware5media3omx4V1_011BpHwOmxNodeE
_ZTVN7android8hardware5media3omx4V1_012BnHwOmxStoreE
_ZTVN7android8hardware5media3omx4V1_012BpHwOmxStoreE
_ZTVN7android8hardware5media3omx4V1_012IOmxObserverE
_ZTVN7android8hardware5media3omx4V1_015BnHwOmxObserverE
_ZTVN7android8hardware5media3omx4V1_015BpHwOmxObserverE
_ZTVN7android8hardware5media3omx4V1_016IOmxBufferSourceE
_ZTVN7android8hardware5media3omx4V1_019BnHwOmxBufferSourceE
_ZTVN7android8hardware5media3omx4V1_019BpHwOmxBufferSourceE
_ZTVN7android8hardware5media3omx4V1_020IGraphicBufferSourceE
_ZTVN7android8hardware5media3omx4V1_023BnHwGraphicBufferSourceE
_ZTVN7android8hardware5media3omx4V1_023BpHwGraphicBufferSourceE
_ZTVN7android8hardware5media3omx4V1_04IOmxE
_ZTVN7android8hardware5media3omx4V1_07BnHwOmxE
_ZTVN7android8hardware5media3omx4V1_07BpHwOmxE
_ZTVN7android8hardware5media3omx4V1_08IOmxNodeE
_ZTVN7android8hardware5media3omx4V1_09IOmxStoreE
_ZThn20_N7android8hardware5media3omx4V1_011BnHwOmxNodeD0Ev
_ZThn20_N7android8hardware5media3omx4V1_011BnHwOmxNodeD1Ev
_ZThn20_N7android8hardware5media3omx4V1_012BnHwOmxStoreD0Ev
_ZThn20_N7android8hardware5media3omx4V1_012BnHwOmxStoreD1Ev
_ZThn20_N7android8hardware5media3omx4V1_015BnHwOmxObserverD0Ev
_ZThn20_N7android8hardware5media3omx4V1_015BnHwOmxObserverD1Ev
_ZThn20_N7android8hardware5media3omx4V1_019BnHwOmxBufferSourceD0Ev
_ZThn20_N7android8hardware5media3omx4V1_019BnHwOmxBufferSourceD1Ev
_ZThn20_N7android8hardware5media3omx4V1_023BnHwGraphicBufferSourceD0Ev
_ZThn20_N7android8hardware5media3omx4V1_023BnHwGraphicBufferSourceD1Ev
_ZThn20_N7android8hardware5media3omx4V1_07BnHwOmxD0Ev
_ZThn20_N7android8hardware5media3omx4V1_07BnHwOmxD1Ev
_ZTv0_n12_N7android8hardware5media3omx4V1_011BnHwOmxNodeD0Ev
_ZTv0_n12_N7android8hardware5media3omx4V1_011BnHwOmxNodeD1Ev
_ZTv0_n12_N7android8hardware5media3omx4V1_012BnHwOmxStoreD0Ev
_ZTv0_n12_N7android8hardware5media3omx4V1_012BnHwOmxStoreD1Ev
_ZTv0_n12_N7android8hardware5media3omx4V1_015BnHwOmxObserverD0Ev
_ZTv0_n12_N7android8hardware5media3omx4V1_015BnHwOmxObserverD1Ev
_ZTv0_n12_N7android8hardware5media3omx4V1_019BnHwOmxBufferSourceD0Ev
_ZTv0_n12_N7android8hardware5media3omx4V1_019BnHwOmxBufferSourceD1Ev
_ZTv0_n12_N7android8hardware5media3omx4V1_023BnHwGraphicBufferSourceD0Ev
_ZTv0_n12_N7android8hardware5media3omx4V1_023BnHwGraphicBufferSourceD1Ev
_ZTv0_n12_N7android8hardware5media3omx4V1_07BnHwOmxD0Ev
_ZTv0_n12_N7android8hardware5media3omx4V1_07BnHwOmxD1Ev
