_ZN7android8hardware3drm4V1_010IDrmPlugin10descriptorE
_ZN7android8hardware3drm4V1_010IDrmPlugin10getServiceERKNSt3__112basic_stringIcNS4_11char_traitsIcEENS4_9allocatorIcEEEEb
_ZN7android8hardware3drm4V1_010IDrmPlugin11linkToDeathERKNS_2spINS0_20hidl_death_recipientEEEy
_ZN7android8hardware3drm4V1_010IDrmPlugin12getDebugInfoENSt3__18functionIFvRKNS_4hidl4base4V1_09DebugInfoEEEE
_ZN7android8hardware3drm4V1_010IDrmPlugin12getHashChainENSt3__18functionIFvRKNS0_8hidl_vecINS0_10hidl_arrayIhLj32EJEEEEEEEE
_ZN7android8hardware3drm4V1_010IDrmPlugin13tryGetServiceERKNSt3__112basic_stringIcNS4_11char_traitsIcEENS4_9allocatorIcEEEEb
_ZN7android8hardware3drm4V1_010IDrmPlugin13unlinkToDeathERKNS_2spINS0_20hidl_death_recipientEEE
_ZN7android8hardware3drm4V1_010IDrmPlugin14interfaceChainENSt3__18functionIFvRKNS0_8hidl_vecINS0_11hidl_stringEEEEEE
_ZN7android8hardware3drm4V1_010IDrmPlugin17registerAsServiceERKNSt3__112basic_stringIcNS4_11char_traitsIcEENS4_9allocatorIcEEEE
_ZN7android8hardware3drm4V1_010IDrmPlugin19interfaceDescriptorENSt3__18functionIFvRKNS0_11hidl_stringEEEE
_ZN7android8hardware3drm4V1_010IDrmPlugin21notifySyspropsChangedEv
_ZN7android8hardware3drm4V1_010IDrmPlugin21setHALInstrumentationEv
_ZN7android8hardware3drm4V1_010IDrmPlugin24registerForNotificationsERKNSt3__112basic_stringIcNS4_11char_traitsIcEENS4_9allocatorIcEEEERKNS_2spINS_4hidl7manager4V1_020IServiceNotificationEEE
_ZN7android8hardware3drm4V1_010IDrmPlugin4pingEv
_ZN7android8hardware3drm4V1_010IDrmPlugin5debugERKNS0_11hidl_handleERKNS0_8hidl_vecINS0_11hidl_stringEEE
_ZN7android8hardware3drm4V1_010IDrmPlugin8castFromERKNS_2spINS_4hidl4base4V1_05IBaseEEEb
_ZN7android8hardware3drm4V1_010IDrmPlugin8castFromERKNS_2spIS3_EEb
_ZN7android8hardware3drm4V1_011BsDrmPlugin13addOnewayTaskENSt3__18functionIFvvEEE
_ZN7android8hardware3drm4V1_011BsDrmPluginC1ENS_2spINS2_10IDrmPluginEEE
_ZN7android8hardware3drm4V1_011BsDrmPluginC2ENS_2spINS2_10IDrmPluginEEE
_ZN7android8hardware3drm4V1_011IDrmFactory10descriptorE
_ZN7android8hardware3drm4V1_011IDrmFactory10getServiceERKNSt3__112basic_stringIcNS4_11char_traitsIcEENS4_9allocatorIcEEEEb
_ZN7android8hardware3drm4V1_011IDrmFactory11linkToDeathERKNS_2spINS0_20hidl_death_recipientEEEy
_ZN7android8hardware3drm4V1_011IDrmFactory12getDebugInfoENSt3__18functionIFvRKNS_4hidl4base4V1_09DebugInfoEEEE
_ZN7android8hardware3drm4V1_011IDrmFactory12getHashChainENSt3__18functionIFvRKNS0_8hidl_vecINS0_10hidl_arrayIhLj32EJEEEEEEEE
_ZN7android8hardware3drm4V1_011IDrmFactory13tryGetServiceERKNSt3__112basic_stringIcNS4_11char_traitsIcEENS4_9allocatorIcEEEEb
_ZN7android8hardware3drm4V1_011IDrmFactory13unlinkToDeathERKNS_2spINS0_20hidl_death_recipientEEE
_ZN7android8hardware3drm4V1_011IDrmFactory14interfaceChainENSt3__18functionIFvRKNS0_8hidl_vecINS0_11hidl_stringEEEEEE
_ZN7android8hardware3drm4V1_011IDrmFactory17registerAsServiceERKNSt3__112basic_stringIcNS4_11char_traitsIcEENS4_9allocatorIcEEEE
_ZN7android8hardware3drm4V1_011IDrmFactory19interfaceDescriptorENSt3__18functionIFvRKNS0_11hidl_stringEEEE
_ZN7android8hardware3drm4V1_011IDrmFactory21notifySyspropsChangedEv
_ZN7android8hardware3drm4V1_011IDrmFactory21setHALInstrumentationEv
_ZN7android8hardware3drm4V1_011IDrmFactory24registerForNotificationsERKNSt3__112basic_stringIcNS4_11char_traitsIcEENS4_9allocatorIcEEEERKNS_2spINS_4hidl7manager4V1_020IServiceNotificationEEE
_ZN7android8hardware3drm4V1_011IDrmFactory4pingEv
_ZN7android8hardware3drm4V1_011IDrmFactory5debugERKNS0_11hidl_handleERKNS0_8hidl_vecINS0_11hidl_stringEEE
_ZN7android8hardware3drm4V1_011IDrmFactory8castFromERKNS_2spINS_4hidl4base4V1_05IBaseEEEb
_ZN7android8hardware3drm4V1_011IDrmFactory8castFromERKNS_2spIS3_EEb
_ZN7android8hardware3drm4V1_012BsDrmFactory13addOnewayTaskENSt3__18functionIFvvEEE
_ZN7android8hardware3drm4V1_012BsDrmFactoryC1ENS_2spINS2_11IDrmFactoryEEE
_ZN7android8hardware3drm4V1_012BsDrmFactoryC2ENS_2spINS2_11IDrmFactoryEEE
_ZN7android8hardware3drm4V1_013BnHwDrmPlugin10_hidl_signEPNS_4hidl4base4V1_08BnHwBaseERKNS0_6ParcelEPS9_NSt3__18functionIFvRS9_EEE
_ZN7android8hardware3drm4V1_013BnHwDrmPlugin10onTransactEjRKNS0_6ParcelEPS4_jNSt3__18functionIFvRS4_EEE
_ZN7android8hardware3drm4V1_013BnHwDrmPlugin12_hidl_verifyEPNS_4hidl4base4V1_08BnHwBaseERKNS0_6ParcelEPS9_NSt3__18functionIFvRS9_EEE
_ZN7android8hardware3drm4V1_013BnHwDrmPlugin12getDebugInfoENSt3__18functionIFvRKNS_4hidl4base4V1_09DebugInfoEEEE
_ZN7android8hardware3drm4V1_013BnHwDrmPlugin13_hidl_decryptEPNS_4hidl4base4V1_08BnHwBaseERKNS0_6ParcelEPS9_NSt3__18functionIFvRS9_EEE
_ZN7android8hardware3drm4V1_013BnHwDrmPlugin13_hidl_encryptEPNS_4hidl4base4V1_08BnHwBaseERKNS0_6ParcelEPS9_NSt3__18functionIFvRS9_EEE
_ZN7android8hardware3drm4V1_013BnHwDrmPlugin13_hidl_signRSAEPNS_4hidl4base4V1_08BnHwBaseERKNS0_6ParcelEPS9_NSt3__18functionIFvRS9_EEE
_ZN7android8hardware3drm4V1_013BnHwDrmPlugin15_hidl_sendEventEPNS_4hidl4base4V1_08BnHwBaseERKNS0_6ParcelEPS9_NSt3__18functionIFvRS9_EEE
_ZN7android8hardware3drm4V1_013BnHwDrmPlugin16_hidl_removeKeysEPNS_4hidl4base4V1_08BnHwBaseERKNS0_6ParcelEPS9_NSt3__18functionIFvRS9_EEE
_ZN7android8hardware3drm4V1_013BnHwDrmPlugin17_hidl_openSessionEPNS_4hidl4base4V1_08BnHwBaseERKNS0_6ParcelEPS9_NSt3__18functionIFvRS9_EEE
_ZN7android8hardware3drm4V1_013BnHwDrmPlugin17_hidl_restoreKeysEPNS_4hidl4base4V1_08BnHwBaseERKNS0_6ParcelEPS9_NSt3__18functionIFvRS9_EEE
_ZN7android8hardware3drm4V1_013BnHwDrmPlugin17_hidl_setListenerEPNS_4hidl4base4V1_08BnHwBaseERKNS0_6ParcelEPS9_NSt3__18functionIFvRS9_EEE
_ZN7android8hardware3drm4V1_013BnHwDrmPlugin18_hidl_closeSessionEPNS_4hidl4base4V1_08BnHwBaseERKNS0_6ParcelEPS9_NSt3__18functionIFvRS9_EEE
_ZN7android8hardware3drm4V1_013BnHwDrmPlugin19_hidl_getKeyRequestEPNS_4hidl4base4V1_08BnHwBaseERKNS0_6ParcelEPS9_NSt3__18functionIFvRS9_EEE
_ZN7android8hardware3drm4V1_013BnHwDrmPlugin19_hidl_getSecureStopEPNS_4hidl4base4V1_08BnHwBaseERKNS0_6ParcelEPS9_NSt3__18functionIFvRS9_EEE
_ZN7android8hardware3drm4V1_013BnHwDrmPlugin20_hidl_getSecureStopsEPNS_4hidl4base4V1_08BnHwBaseERKNS0_6ParcelEPS9_NSt3__18functionIFvRS9_EEE
_ZN7android8hardware3drm4V1_013BnHwDrmPlugin20_hidl_queryKeyStatusEPNS_4hidl4base4V1_08BnHwBaseERKNS0_6ParcelEPS9_NSt3__18functionIFvRS9_EEE
_ZN7android8hardware3drm4V1_013BnHwDrmPlugin20_hidl_sendKeysChangeEPNS_4hidl4base4V1_08BnHwBaseERKNS0_6ParcelEPS9_NSt3__18functionIFvRS9_EEE
_ZN7android8hardware3drm4V1_013BnHwDrmPlugin21_hidl_setMacAlgorithmEPNS_4hidl4base4V1_08BnHwBaseERKNS0_6ParcelEPS9_NSt3__18functionIFvRS9_EEE
_ZN7android8hardware3drm4V1_013BnHwDrmPlugin23_hidl_getPropertyStringEPNS_4hidl4base4V1_08BnHwBaseERKNS0_6ParcelEPS9_NSt3__18functionIFvRS9_EEE
_ZN7android8hardware3drm4V1_013BnHwDrmPlugin23_hidl_releaseSecureStopEPNS_4hidl4base4V1_08BnHwBaseERKNS0_6ParcelEPS9_NSt3__18functionIFvRS9_EEE
_ZN7android8hardware3drm4V1_013BnHwDrmPlugin23_hidl_setPropertyStringEPNS_4hidl4base4V1_08BnHwBaseERKNS0_6ParcelEPS9_NSt3__18functionIFvRS9_EEE
_ZN7android8hardware3drm4V1_013BnHwDrmPlugin24_hidl_provideKeyResponseEPNS_4hidl4base4V1_08BnHwBaseERKNS0_6ParcelEPS9_NSt3__18functionIFvRS9_EEE
_ZN7android8hardware3drm4V1_013BnHwDrmPlugin24_hidl_setCipherAlgorithmEPNS_4hidl4base4V1_08BnHwBaseERKNS0_6ParcelEPS9_NSt3__18functionIFvRS9_EEE
_ZN7android8hardware3drm4V1_013BnHwDrmPlugin25_hidl_getProvisionRequestEPNS_4hidl4base4V1_08BnHwBaseERKNS0_6ParcelEPS9_NSt3__18functionIFvRS9_EEE
_ZN7android8hardware3drm4V1_013BnHwDrmPlugin26_hidl_getPropertyByteArrayEPNS_4hidl4base4V1_08BnHwBaseERKNS0_6ParcelEPS9_NSt3__18functionIFvRS9_EEE
_ZN7android8hardware3drm4V1_013BnHwDrmPlugin26_hidl_sendExpirationUpdateEPNS_4hidl4base4V1_08BnHwBaseERKNS0_6ParcelEPS9_NSt3__18functionIFvRS9_EEE
_ZN7android8hardware3drm4V1_013BnHwDrmPlugin26_hidl_setPropertyByteArrayEPNS_4hidl4base4V1_08BnHwBaseERKNS0_6ParcelEPS9_NSt3__18functionIFvRS9_EEE
_ZN7android8hardware3drm4V1_013BnHwDrmPlugin27_hidl_releaseAllSecureStopsEPNS_4hidl4base4V1_08BnHwBaseERKNS0_6ParcelEPS9_NSt3__18functionIFvRS9_EEE
_ZN7android8hardware3drm4V1_013BnHwDrmPlugin30_hidl_provideProvisionResponseEPNS_4hidl4base4V1_08BnHwBaseERKNS0_6ParcelEPS9_NSt3__18functionIFvRS9_EEE
_ZN7android8hardware3drm4V1_013BnHwDrmPlugin4pingEv
_ZN7android8hardware3drm4V1_013BnHwDrmPluginC1ERKNS_2spINS2_10IDrmPluginEEE
_ZN7android8hardware3drm4V1_013BnHwDrmPluginC2ERKNS_2spINS2_10IDrmPluginEEE
_ZN7android8hardware3drm4V1_013BnHwDrmPluginD0Ev
_ZN7android8hardware3drm4V1_013BnHwDrmPluginD1Ev
_ZN7android8hardware3drm4V1_013BnHwDrmPluginD2Ev
_ZN7android8hardware3drm4V1_013BpHwDrmPlugin10_hidl_signEPNS0_10IInterfaceEPNS0_7details16HidlInstrumentorERKNS0_8hidl_vecIhEESC_SC_NSt3__18functionIFvNS2_6StatusESC_EEE
_ZN7android8hardware3drm4V1_013BpHwDrmPlugin10removeKeysERKNS0_8hidl_vecIhEE
_ZN7android8hardware3drm4V1_013BpHwDrmPlugin11linkToDeathERKNS_2spINS0_20hidl_death_recipientEEEy
_ZN7android8hardware3drm4V1_013BpHwDrmPlugin11openSessionENSt3__18functionIFvNS2_6StatusERKNS0_8hidl_vecIhEEEEE
_ZN7android8hardware3drm4V1_013BpHwDrmPlugin11restoreKeysERKNS0_8hidl_vecIhEES7_
_ZN7android8hardware3drm4V1_013BpHwDrmPlugin11setListenerERKNS_2spINS2_18IDrmPluginListenerEEE
_ZN7android8hardware3drm4V1_013BpHwDrmPlugin12_hidl_verifyEPNS0_10IInterfaceEPNS0_7details16HidlInstrumentorERKNS0_8hidl_vecIhEESC_SC_SC_NSt3__18functionIFvNS2_6StatusEbEEE
_ZN7android8hardware3drm4V1_013BpHwDrmPlugin12closeSessionERKNS0_8hidl_vecIhEE
_ZN7android8hardware3drm4V1_013BpHwDrmPlugin12getDebugInfoENSt3__18functionIFvRKNS_4hidl4base4V1_09DebugInfoEEEE
_ZN7android8hardware3drm4V1_013BpHwDrmPlugin12getHashChainENSt3__18functionIFvRKNS0_8hidl_vecINS0_10hidl_arrayIhLj32EJEEEEEEEE
_ZN7android8hardware3drm4V1_013BpHwDrmPlugin13_hidl_decryptEPNS0_10IInterfaceEPNS0_7details16HidlInstrumentorERKNS0_8hidl_vecIhEESC_SC_SC_NSt3__18functionIFvNS2_6StatusESC_EEE
_ZN7android8hardware3drm4V1_013BpHwDrmPlugin13_hidl_encryptEPNS0_10IInterfaceEPNS0_7details16HidlInstrumentorERKNS0_8hidl_vecIhEESC_SC_SC_NSt3__18functionIFvNS2_6StatusESC_EEE
_ZN7android8hardware3drm4V1_013BpHwDrmPlugin13_hidl_signRSAEPNS0_10IInterfaceEPNS0_7details16HidlInstrumentorERKNS0_8hidl_vecIhEERKNS0_11hidl_stringESC_SC_NSt3__18functionIFvNS2_6StatusESC_EEE
_ZN7android8hardware3drm4V1_013BpHwDrmPlugin13getKeyRequestERKNS0_8hidl_vecIhEES7_RKNS0_11hidl_stringENS2_7KeyTypeERKNS4_INS2_8KeyValueEEENSt3__18functionIFvNS2_6StatusES7_NS2_14KeyRequestTypeESA_EEE
_ZN7android8hardware3drm4V1_013BpHwDrmPlugin13getSecureStopERKNS0_8hidl_vecIhEENSt3__18functionIFvNS2_6StatusERKNS2_10SecureStopEEEE
_ZN7android8hardware3drm4V1_013BpHwDrmPlugin13unlinkToDeathERKNS_2spINS0_20hidl_death_recipientEEE
_ZN7android8hardware3drm4V1_013BpHwDrmPlugin14getSecureStopsENSt3__18functionIFvNS2_6StatusERKNS0_8hidl_vecINS2_10SecureStopEEEEEE
_ZN7android8hardware3drm4V1_013BpHwDrmPlugin14interfaceChainENSt3__18functionIFvRKNS0_8hidl_vecINS0_11hidl_stringEEEEEE
_ZN7android8hardware3drm4V1_013BpHwDrmPlugin14queryKeyStatusERKNS0_8hidl_vecIhEENSt3__18functionIFvNS2_6StatusERKNS4_INS2_8KeyValueEEEEEE
_ZN7android8hardware3drm4V1_013BpHwDrmPlugin14sendKeysChangeERKNS0_8hidl_vecIhEERKNS4_INS2_9KeyStatusEEEb
_ZN7android8hardware3drm4V1_013BpHwDrmPlugin15_hidl_sendEventEPNS0_10IInterfaceEPNS0_7details16HidlInstrumentorENS2_9EventTypeERKNS0_8hidl_vecIhEESD_
_ZN7android8hardware3drm4V1_013BpHwDrmPlugin15setMacAlgorithmERKNS0_8hidl_vecIhEERKNS0_11hidl_stringE
_ZN7android8hardware3drm4V1_013BpHwDrmPlugin16_hidl_removeKeysEPNS0_10IInterfaceEPNS0_7details16HidlInstrumentorERKNS0_8hidl_vecIhEE
_ZN7android8hardware3drm4V1_013BpHwDrmPlugin17_hidl_openSessionEPNS0_10IInterfaceEPNS0_7details16HidlInstrumentorENSt3__18functionIFvNS2_6StatusERKNS0_8hidl_vecIhEEEEE
_ZN7android8hardware3drm4V1_013BpHwDrmPlugin17_hidl_restoreKeysEPNS0_10IInterfaceEPNS0_7details16HidlInstrumentorERKNS0_8hidl_vecIhEESC_
_ZN7android8hardware3drm4V1_013BpHwDrmPlugin17_hidl_setListenerEPNS0_10IInterfaceEPNS0_7details16HidlInstrumentorERKNS_2spINS2_18IDrmPluginListenerEEE
_ZN7android8hardware3drm4V1_013BpHwDrmPlugin17getPropertyStringERKNS0_11hidl_stringENSt3__18functionIFvNS2_6StatusES6_EEE
_ZN7android8hardware3drm4V1_013BpHwDrmPlugin17releaseSecureStopERKNS0_8hidl_vecIhEE
_ZN7android8hardware3drm4V1_013BpHwDrmPlugin17setPropertyStringERKNS0_11hidl_stringES6_
_ZN7android8hardware3drm4V1_013BpHwDrmPlugin18_hidl_closeSessionEPNS0_10IInterfaceEPNS0_7details16HidlInstrumentorERKNS0_8hidl_vecIhEE
_ZN7android8hardware3drm4V1_013BpHwDrmPlugin18provideKeyResponseERKNS0_8hidl_vecIhEES7_NSt3__18functionIFvNS2_6StatusES7_EEE
_ZN7android8hardware3drm4V1_013BpHwDrmPlugin18setCipherAlgorithmERKNS0_8hidl_vecIhEERKNS0_11hidl_stringE
_ZN7android8hardware3drm4V1_013BpHwDrmPlugin19_hidl_getKeyRequestEPNS0_10IInterfaceEPNS0_7details16HidlInstrumentorERKNS0_8hidl_vecIhEESC_RKNS0_11hidl_stringENS2_7KeyTypeERKNS9_INS2_8KeyValueEEENSt3__18functionIFvNS2_6StatusESC_NS2_14KeyRequestTypeESF_EEE
_ZN7android8hardware3drm4V1_013BpHwDrmPlugin19_hidl_getSecureStopEPNS0_10IInterfaceEPNS0_7details16HidlInstrumentorERKNS0_8hidl_vecIhEENSt3__18functionIFvNS2_6StatusERKNS2_10SecureStopEEEE
_ZN7android8hardware3drm4V1_013BpHwDrmPlugin19getProvisionRequestERKNS0_11hidl_stringES6_NSt3__18functionIFvNS2_6StatusERKNS0_8hidl_vecIhEES6_EEE
_ZN7android8hardware3drm4V1_013BpHwDrmPlugin19interfaceDescriptorENSt3__18functionIFvRKNS0_11hidl_stringEEEE
_ZN7android8hardware3drm4V1_013BpHwDrmPlugin20_hidl_getSecureStopsEPNS0_10IInterfaceEPNS0_7details16HidlInstrumentorENSt3__18functionIFvNS2_6StatusERKNS0_8hidl_vecINS2_10SecureStopEEEEEE
_ZN7android8hardware3drm4V1_013BpHwDrmPlugin20_hidl_queryKeyStatusEPNS0_10IInterfaceEPNS0_7details16HidlInstrumentorERKNS0_8hidl_vecIhEENSt3__18functionIFvNS2_6StatusERKNS9_INS2_8KeyValueEEEEEE
_ZN7android8hardware3drm4V1_013BpHwDrmPlugin20_hidl_sendKeysChangeEPNS0_10IInterfaceEPNS0_7details16HidlInstrumentorERKNS0_8hidl_vecIhEERKNS9_INS2_9KeyStatusEEEb
_ZN7android8hardware3drm4V1_013BpHwDrmPlugin20getPropertyByteArrayERKNS0_11hidl_stringENSt3__18functionIFvNS2_6StatusERKNS0_8hidl_vecIhEEEEE
_ZN7android8hardware3drm4V1_013BpHwDrmPlugin20sendExpirationUpdateERKNS0_8hidl_vecIhEEx
_ZN7android8hardware3drm4V1_013BpHwDrmPlugin20setPropertyByteArrayERKNS0_11hidl_stringERKNS0_8hidl_vecIhEE
_ZN7android8hardware3drm4V1_013BpHwDrmPlugin21_hidl_setMacAlgorithmEPNS0_10IInterfaceEPNS0_7details16HidlInstrumentorERKNS0_8hidl_vecIhEERKNS0_11hidl_stringE
_ZN7android8hardware3drm4V1_013BpHwDrmPlugin21notifySyspropsChangedEv
_ZN7android8hardware3drm4V1_013BpHwDrmPlugin21releaseAllSecureStopsEv
_ZN7android8hardware3drm4V1_013BpHwDrmPlugin21setHALInstrumentationEv
_ZN7android8hardware3drm4V1_013BpHwDrmPlugin23_hidl_getPropertyStringEPNS0_10IInterfaceEPNS0_7details16HidlInstrumentorERKNS0_11hidl_stringENSt3__18functionIFvNS2_6StatusESB_EEE
_ZN7android8hardware3drm4V1_013BpHwDrmPlugin23_hidl_releaseSecureStopEPNS0_10IInterfaceEPNS0_7details16HidlInstrumentorERKNS0_8hidl_vecIhEE
_ZN7android8hardware3drm4V1_013BpHwDrmPlugin23_hidl_setPropertyStringEPNS0_10IInterfaceEPNS0_7details16HidlInstrumentorERKNS0_11hidl_stringESB_
_ZN7android8hardware3drm4V1_013BpHwDrmPlugin24_hidl_provideKeyResponseEPNS0_10IInterfaceEPNS0_7details16HidlInstrumentorERKNS0_8hidl_vecIhEESC_NSt3__18functionIFvNS2_6StatusESC_EEE
_ZN7android8hardware3drm4V1_013BpHwDrmPlugin24_hidl_setCipherAlgorithmEPNS0_10IInterfaceEPNS0_7details16HidlInstrumentorERKNS0_8hidl_vecIhEERKNS0_11hidl_stringE
_ZN7android8hardware3drm4V1_013BpHwDrmPlugin24provideProvisionResponseERKNS0_8hidl_vecIhEENSt3__18functionIFvNS2_6StatusES7_S7_EEE
_ZN7android8hardware3drm4V1_013BpHwDrmPlugin25_hidl_getProvisionRequestEPNS0_10IInterfaceEPNS0_7details16HidlInstrumentorERKNS0_11hidl_stringESB_NSt3__18functionIFvNS2_6StatusERKNS0_8hidl_vecIhEESB_EEE
_ZN7android8hardware3drm4V1_013BpHwDrmPlugin26_hidl_getPropertyByteArrayEPNS0_10IInterfaceEPNS0_7details16HidlInstrumentorERKNS0_11hidl_stringENSt3__18functionIFvNS2_6StatusERKNS0_8hidl_vecIhEEEEE
_ZN7android8hardware3drm4V1_013BpHwDrmPlugin26_hidl_sendExpirationUpdateEPNS0_10IInterfaceEPNS0_7details16HidlInstrumentorERKNS0_8hidl_vecIhEEx
_ZN7android8hardware3drm4V1_013BpHwDrmPlugin26_hidl_setPropertyByteArrayEPNS0_10IInterfaceEPNS0_7details16HidlInstrumentorERKNS0_11hidl_stringERKNS0_8hidl_vecIhEE
_ZN7android8hardware3drm4V1_013BpHwDrmPlugin27_hidl_releaseAllSecureStopsEPNS0_10IInterfaceEPNS0_7details16HidlInstrumentorE
_ZN7android8hardware3drm4V1_013BpHwDrmPlugin30_hidl_provideProvisionResponseEPNS0_10IInterfaceEPNS0_7details16HidlInstrumentorERKNS0_8hidl_vecIhEENSt3__18functionIFvNS2_6StatusESC_SC_EEE
_ZN7android8hardware3drm4V1_013BpHwDrmPlugin4pingEv
_ZN7android8hardware3drm4V1_013BpHwDrmPlugin4signERKNS0_8hidl_vecIhEES7_S7_NSt3__18functionIFvNS2_6StatusES7_EEE
_ZN7android8hardware3drm4V1_013BpHwDrmPlugin5debugERKNS0_11hidl_handleERKNS0_8hidl_vecINS0_11hidl_stringEEE
_ZN7android8hardware3drm4V1_013BpHwDrmPlugin6verifyERKNS0_8hidl_vecIhEES7_S7_S7_NSt3__18functionIFvNS2_6StatusEbEEE
_ZN7android8hardware3drm4V1_013BpHwDrmPlugin7decryptERKNS0_8hidl_vecIhEES7_S7_S7_NSt3__18functionIFvNS2_6StatusES7_EEE
_ZN7android8hardware3drm4V1_013BpHwDrmPlugin7encryptERKNS0_8hidl_vecIhEES7_S7_S7_NSt3__18functionIFvNS2_6StatusES7_EEE
_ZN7android8hardware3drm4V1_013BpHwDrmPlugin7signRSAERKNS0_8hidl_vecIhEERKNS0_11hidl_stringES7_S7_NSt3__18functionIFvNS2_6StatusES7_EEE
_ZN7android8hardware3drm4V1_013BpHwDrmPlugin9sendEventENS2_9EventTypeERKNS0_8hidl_vecIhEES8_
_ZN7android8hardware3drm4V1_013BpHwDrmPluginC1ERKNS_2spINS0_7IBinderEEE
_ZN7android8hardware3drm4V1_013BpHwDrmPluginC2ERKNS_2spINS0_7IBinderEEE
_ZN7android8hardware3drm4V1_013ICryptoPlugin10descriptorE
_ZN7android8hardware3drm4V1_013ICryptoPlugin10getServiceERKNSt3__112basic_stringIcNS4_11char_traitsIcEENS4_9allocatorIcEEEEb
_ZN7android8hardware3drm4V1_013ICryptoPlugin11linkToDeathERKNS_2spINS0_20hidl_death_recipientEEEy
_ZN7android8hardware3drm4V1_013ICryptoPlugin12getDebugInfoENSt3__18functionIFvRKNS_4hidl4base4V1_09DebugInfoEEEE
_ZN7android8hardware3drm4V1_013ICryptoPlugin12getHashChainENSt3__18functionIFvRKNS0_8hidl_vecINS0_10hidl_arrayIhLj32EJEEEEEEEE
_ZN7android8hardware3drm4V1_013ICryptoPlugin13tryGetServiceERKNSt3__112basic_stringIcNS4_11char_traitsIcEENS4_9allocatorIcEEEEb
_ZN7android8hardware3drm4V1_013ICryptoPlugin13unlinkToDeathERKNS_2spINS0_20hidl_death_recipientEEE
_ZN7android8hardware3drm4V1_013ICryptoPlugin14interfaceChainENSt3__18functionIFvRKNS0_8hidl_vecINS0_11hidl_stringEEEEEE
_ZN7android8hardware3drm4V1_013ICryptoPlugin17registerAsServiceERKNSt3__112basic_stringIcNS4_11char_traitsIcEENS4_9allocatorIcEEEE
_ZN7android8hardware3drm4V1_013ICryptoPlugin19interfaceDescriptorENSt3__18functionIFvRKNS0_11hidl_stringEEEE
_ZN7android8hardware3drm4V1_013ICryptoPlugin21notifySyspropsChangedEv
_ZN7android8hardware3drm4V1_013ICryptoPlugin21setHALInstrumentationEv
_ZN7android8hardware3drm4V1_013ICryptoPlugin24registerForNotificationsERKNSt3__112basic_stringIcNS4_11char_traitsIcEENS4_9allocatorIcEEEERKNS_2spINS_4hidl7manager4V1_020IServiceNotificationEEE
_ZN7android8hardware3drm4V1_013ICryptoPlugin4pingEv
_ZN7android8hardware3drm4V1_013ICryptoPlugin5debugERKNS0_11hidl_handleERKNS0_8hidl_vecINS0_11hidl_stringEEE
_ZN7android8hardware3drm4V1_013ICryptoPlugin8castFromERKNS_2spINS_4hidl4base4V1_05IBaseEEEb
_ZN7android8hardware3drm4V1_013ICryptoPlugin8castFromERKNS_2spIS3_EEb
_ZN7android8hardware3drm4V1_014BnHwDrmFactory10onTransactEjRKNS0_6ParcelEPS4_jNSt3__18functionIFvRS4_EEE
_ZN7android8hardware3drm4V1_014BnHwDrmFactory12getDebugInfoENSt3__18functionIFvRKNS_4hidl4base4V1_09DebugInfoEEEE
_ZN7android8hardware3drm4V1_014BnHwDrmFactory18_hidl_createPluginEPNS_4hidl4base4V1_08BnHwBaseERKNS0_6ParcelEPS9_NSt3__18functionIFvRS9_EEE
_ZN7android8hardware3drm4V1_014BnHwDrmFactory28_hidl_isContentTypeSupportedEPNS_4hidl4base4V1_08BnHwBaseERKNS0_6ParcelEPS9_NSt3__18functionIFvRS9_EEE
_ZN7android8hardware3drm4V1_014BnHwDrmFactory29_hidl_isCryptoSchemeSupportedEPNS_4hidl4base4V1_08BnHwBaseERKNS0_6ParcelEPS9_NSt3__18functionIFvRS9_EEE
_ZN7android8hardware3drm4V1_014BnHwDrmFactory4pingEv
_ZN7android8hardware3drm4V1_014BnHwDrmFactoryC1ERKNS_2spINS2_11IDrmFactoryEEE
_ZN7android8hardware3drm4V1_014BnHwDrmFactoryC2ERKNS_2spINS2_11IDrmFactoryEEE
_ZN7android8hardware3drm4V1_014BnHwDrmFactoryD0Ev
_ZN7android8hardware3drm4V1_014BnHwDrmFactoryD1Ev
_ZN7android8hardware3drm4V1_014BnHwDrmFactoryD2Ev
_ZN7android8hardware3drm4V1_014BpHwDrmFactory11linkToDeathERKNS_2spINS0_20hidl_death_recipientEEEy
_ZN7android8hardware3drm4V1_014BpHwDrmFactory12createPluginERKNS0_10hidl_arrayIhLj16EJEEERKNS0_11hidl_stringENSt3__18functionIFvNS2_6StatusERKNS_2spINS2_10IDrmPluginEEEEEE
_ZN7android8hardware3drm4V1_014BpHwDrmFactory12getDebugInfoENSt3__18functionIFvRKNS_4hidl4base4V1_09DebugInfoEEEE
_ZN7android8hardware3drm4V1_014BpHwDrmFactory12getHashChainENSt3__18functionIFvRKNS0_8hidl_vecINS0_10hidl_arrayIhLj32EJEEEEEEEE
_ZN7android8hardware3drm4V1_014BpHwDrmFactory13unlinkToDeathERKNS_2spINS0_20hidl_death_recipientEEE
_ZN7android8hardware3drm4V1_014BpHwDrmFactory14interfaceChainENSt3__18functionIFvRKNS0_8hidl_vecINS0_11hidl_stringEEEEEE
_ZN7android8hardware3drm4V1_014BpHwDrmFactory18_hidl_createPluginEPNS0_10IInterfaceEPNS0_7details16HidlInstrumentorERKNS0_10hidl_arrayIhLj16EJEEERKNS0_11hidl_stringENSt3__18functionIFvNS2_6StatusERKNS_2spINS2_10IDrmPluginEEEEEE
_ZN7android8hardware3drm4V1_014BpHwDrmFactory19interfaceDescriptorENSt3__18functionIFvRKNS0_11hidl_stringEEEE
_ZN7android8hardware3drm4V1_014BpHwDrmFactory21notifySyspropsChangedEv
_ZN7android8hardware3drm4V1_014BpHwDrmFactory21setHALInstrumentationEv
_ZN7android8hardware3drm4V1_014BpHwDrmFactory22isContentTypeSupportedERKNS0_11hidl_stringE
_ZN7android8hardware3drm4V1_014BpHwDrmFactory23isCryptoSchemeSupportedERKNS0_10hidl_arrayIhLj16EJEEE
_ZN7android8hardware3drm4V1_014BpHwDrmFactory28_hidl_isContentTypeSupportedEPNS0_10IInterfaceEPNS0_7details16HidlInstrumentorERKNS0_11hidl_stringE
_ZN7android8hardware3drm4V1_014BpHwDrmFactory29_hidl_isCryptoSchemeSupportedEPNS0_10IInterfaceEPNS0_7details16HidlInstrumentorERKNS0_10hidl_arrayIhLj16EJEEE
_ZN7android8hardware3drm4V1_014BpHwDrmFactory4pingEv
_ZN7android8hardware3drm4V1_014BpHwDrmFactory5debugERKNS0_11hidl_handleERKNS0_8hidl_vecINS0_11hidl_stringEEE
_ZN7android8hardware3drm4V1_014BpHwDrmFactoryC1ERKNS_2spINS0_7IBinderEEE
_ZN7android8hardware3drm4V1_014BpHwDrmFactoryC2ERKNS_2spINS0_7IBinderEEE
_ZN7android8hardware3drm4V1_014BsCryptoPlugin13addOnewayTaskENSt3__18functionIFvvEEE
_ZN7android8hardware3drm4V1_014BsCryptoPluginC1ENS_2spINS2_13ICryptoPluginEEE
_ZN7android8hardware3drm4V1_014BsCryptoPluginC2ENS_2spINS2_13ICryptoPluginEEE
_ZN7android8hardware3drm4V1_014ICryptoFactory10descriptorE
_ZN7android8hardware3drm4V1_014ICryptoFactory10getServiceERKNSt3__112basic_stringIcNS4_11char_traitsIcEENS4_9allocatorIcEEEEb
_ZN7android8hardware3drm4V1_014ICryptoFactory11linkToDeathERKNS_2spINS0_20hidl_death_recipientEEEy
_ZN7android8hardware3drm4V1_014ICryptoFactory12getDebugInfoENSt3__18functionIFvRKNS_4hidl4base4V1_09DebugInfoEEEE
_ZN7android8hardware3drm4V1_014ICryptoFactory12getHashChainENSt3__18functionIFvRKNS0_8hidl_vecINS0_10hidl_arrayIhLj32EJEEEEEEEE
_ZN7android8hardware3drm4V1_014ICryptoFactory13tryGetServiceERKNSt3__112basic_stringIcNS4_11char_traitsIcEENS4_9allocatorIcEEEEb
_ZN7android8hardware3drm4V1_014ICryptoFactory13unlinkToDeathERKNS_2spINS0_20hidl_death_recipientEEE
_ZN7android8hardware3drm4V1_014ICryptoFactory14interfaceChainENSt3__18functionIFvRKNS0_8hidl_vecINS0_11hidl_stringEEEEEE
_ZN7android8hardware3drm4V1_014ICryptoFactory17registerAsServiceERKNSt3__112basic_stringIcNS4_11char_traitsIcEENS4_9allocatorIcEEEE
_ZN7android8hardware3drm4V1_014ICryptoFactory19interfaceDescriptorENSt3__18functionIFvRKNS0_11hidl_stringEEEE
_ZN7android8hardware3drm4V1_014ICryptoFactory21notifySyspropsChangedEv
_ZN7android8hardware3drm4V1_014ICryptoFactory21setHALInstrumentationEv
_ZN7android8hardware3drm4V1_014ICryptoFactory24registerForNotificationsERKNSt3__112basic_stringIcNS4_11char_traitsIcEENS4_9allocatorIcEEEERKNS_2spINS_4hidl7manager4V1_020IServiceNotificationEEE
_ZN7android8hardware3drm4V1_014ICryptoFactory4pingEv
_ZN7android8hardware3drm4V1_014ICryptoFactory5debugERKNS0_11hidl_handleERKNS0_8hidl_vecINS0_11hidl_stringEEE
_ZN7android8hardware3drm4V1_014ICryptoFactory8castFromERKNS_2spINS_4hidl4base4V1_05IBaseEEEb
_ZN7android8hardware3drm4V1_014ICryptoFactory8castFromERKNS_2spIS3_EEb
_ZN7android8hardware3drm4V1_015BsCryptoFactory13addOnewayTaskENSt3__18functionIFvvEEE
_ZN7android8hardware3drm4V1_015BsCryptoFactoryC1ENS_2spINS2_14ICryptoFactoryEEE
_ZN7android8hardware3drm4V1_015BsCryptoFactoryC2ENS_2spINS2_14ICryptoFactoryEEE
_ZN7android8hardware3drm4V1_016BnHwCryptoPlugin10onTransactEjRKNS0_6ParcelEPS4_jNSt3__18functionIFvRS4_EEE
_ZN7android8hardware3drm4V1_016BnHwCryptoPlugin12getDebugInfoENSt3__18functionIFvRKNS_4hidl4base4V1_09DebugInfoEEEE
_ZN7android8hardware3drm4V1_016BnHwCryptoPlugin13_hidl_decryptEPNS_4hidl4base4V1_08BnHwBaseERKNS0_6ParcelEPS9_NSt3__18functionIFvRS9_EEE
_ZN7android8hardware3drm4V1_016BnHwCryptoPlugin22_hidl_notifyResolutionEPNS_4hidl4base4V1_08BnHwBaseERKNS0_6ParcelEPS9_NSt3__18functionIFvRS9_EEE
_ZN7android8hardware3drm4V1_016BnHwCryptoPlugin24_hidl_setMediaDrmSessionEPNS_4hidl4base4V1_08BnHwBaseERKNS0_6ParcelEPS9_NSt3__18functionIFvRS9_EEE
_ZN7android8hardware3drm4V1_016BnHwCryptoPlugin25_hidl_setSharedBufferBaseEPNS_4hidl4base4V1_08BnHwBaseERKNS0_6ParcelEPS9_NSt3__18functionIFvRS9_EEE
_ZN7android8hardware3drm4V1_016BnHwCryptoPlugin36_hidl_requiresSecureDecoderComponentEPNS_4hidl4base4V1_08BnHwBaseERKNS0_6ParcelEPS9_NSt3__18functionIFvRS9_EEE
_ZN7android8hardware3drm4V1_016BnHwCryptoPlugin4pingEv
_ZN7android8hardware3drm4V1_016BnHwCryptoPluginC1ERKNS_2spINS2_13ICryptoPluginEEE
_ZN7android8hardware3drm4V1_016BnHwCryptoPluginC2ERKNS_2spINS2_13ICryptoPluginEEE
_ZN7android8hardware3drm4V1_016BnHwCryptoPluginD0Ev
_ZN7android8hardware3drm4V1_016BnHwCryptoPluginD1Ev
_ZN7android8hardware3drm4V1_016BnHwCryptoPluginD2Ev
_ZN7android8hardware3drm4V1_016BpHwCryptoPlugin11linkToDeathERKNS_2spINS0_20hidl_death_recipientEEEy
_ZN7android8hardware3drm4V1_016BpHwCryptoPlugin12getDebugInfoENSt3__18functionIFvRKNS_4hidl4base4V1_09DebugInfoEEEE
_ZN7android8hardware3drm4V1_016BpHwCryptoPlugin12getHashChainENSt3__18functionIFvRKNS0_8hidl_vecINS0_10hidl_arrayIhLj32EJEEEEEEEE
_ZN7android8hardware3drm4V1_016BpHwCryptoPlugin13_hidl_decryptEPNS0_10IInterfaceEPNS0_7details16HidlInstrumentorEbRKNS0_10hidl_arrayIhLj16EJEEESC_NS2_4ModeERKNS2_7PatternERKNS0_8hidl_vecINS2_9SubSampleEEERKNS2_12SharedBufferEyRKNS2_17DestinationBufferENSt3__18functionIFvNS2_6StatusEjRKNS0_11hidl_stringEEEE
_ZN7android8hardware3drm4V1_016BpHwCryptoPlugin13unlinkToDeathERKNS_2spINS0_20hidl_death_recipientEEE
_ZN7android8hardware3drm4V1_016BpHwCryptoPlugin14interfaceChainENSt3__18functionIFvRKNS0_8hidl_vecINS0_11hidl_stringEEEEEE
_ZN7android8hardware3drm4V1_016BpHwCryptoPlugin16notifyResolutionEjj
_ZN7android8hardware3drm4V1_016BpHwCryptoPlugin18setMediaDrmSessionERKNS0_8hidl_vecIhEE
_ZN7android8hardware3drm4V1_016BpHwCryptoPlugin19interfaceDescriptorENSt3__18functionIFvRKNS0_11hidl_stringEEEE
_ZN7android8hardware3drm4V1_016BpHwCryptoPlugin19setSharedBufferBaseERKNS0_11hidl_memoryEj
_ZN7android8hardware3drm4V1_016BpHwCryptoPlugin21notifySyspropsChangedEv
_ZN7android8hardware3drm4V1_016BpHwCryptoPlugin21setHALInstrumentationEv
_ZN7android8hardware3drm4V1_016BpHwCryptoPlugin22_hidl_notifyResolutionEPNS0_10IInterfaceEPNS0_7details16HidlInstrumentorEjj
_ZN7android8hardware3drm4V1_016BpHwCryptoPlugin24_hidl_setMediaDrmSessionEPNS0_10IInterfaceEPNS0_7details16HidlInstrumentorERKNS0_8hidl_vecIhEE
_ZN7android8hardware3drm4V1_016BpHwCryptoPlugin25_hidl_setSharedBufferBaseEPNS0_10IInterfaceEPNS0_7details16HidlInstrumentorERKNS0_11hidl_memoryEj
_ZN7android8hardware3drm4V1_016BpHwCryptoPlugin30requiresSecureDecoderComponentERKNS0_11hidl_stringE
_ZN7android8hardware3drm4V1_016BpHwCryptoPlugin36_hidl_requiresSecureDecoderComponentEPNS0_10IInterfaceEPNS0_7details16HidlInstrumentorERKNS0_11hidl_stringE
_ZN7android8hardware3drm4V1_016BpHwCryptoPlugin4pingEv
_ZN7android8hardware3drm4V1_016BpHwCryptoPlugin5debugERKNS0_11hidl_handleERKNS0_8hidl_vecINS0_11hidl_stringEEE
_ZN7android8hardware3drm4V1_016BpHwCryptoPlugin7decryptEbRKNS0_10hidl_arrayIhLj16EJEEES7_NS2_4ModeERKNS2_7PatternERKNS0_8hidl_vecINS2_9SubSampleEEERKNS2_12SharedBufferEyRKNS2_17DestinationBufferENSt3__18functionIFvNS2_6StatusEjRKNS0_11hidl_stringEEEE
_ZN7android8hardware3drm4V1_016BpHwCryptoPluginC1ERKNS_2spINS0_7IBinderEEE
_ZN7android8hardware3drm4V1_016BpHwCryptoPluginC2ERKNS_2spINS0_7IBinderEEE
_ZN7android8hardware3drm4V1_017BnHwCryptoFactory10onTransactEjRKNS0_6ParcelEPS4_jNSt3__18functionIFvRS4_EEE
_ZN7android8hardware3drm4V1_017BnHwCryptoFactory12getDebugInfoENSt3__18functionIFvRKNS_4hidl4base4V1_09DebugInfoEEEE
_ZN7android8hardware3drm4V1_017BnHwCryptoFactory18_hidl_createPluginEPNS_4hidl4base4V1_08BnHwBaseERKNS0_6ParcelEPS9_NSt3__18functionIFvRS9_EEE
_ZN7android8hardware3drm4V1_017BnHwCryptoFactory29_hidl_isCryptoSchemeSupportedEPNS_4hidl4base4V1_08BnHwBaseERKNS0_6ParcelEPS9_NSt3__18functionIFvRS9_EEE
_ZN7android8hardware3drm4V1_017BnHwCryptoFactory4pingEv
_ZN7android8hardware3drm4V1_017BnHwCryptoFactoryC1ERKNS_2spINS2_14ICryptoFactoryEEE
_ZN7android8hardware3drm4V1_017BnHwCryptoFactoryC2ERKNS_2spINS2_14ICryptoFactoryEEE
_ZN7android8hardware3drm4V1_017BnHwCryptoFactoryD0Ev
_ZN7android8hardware3drm4V1_017BnHwCryptoFactoryD1Ev
_ZN7android8hardware3drm4V1_017BnHwCryptoFactoryD2Ev
_ZN7android8hardware3drm4V1_017BpHwCryptoFactory11linkToDeathERKNS_2spINS0_20hidl_death_recipientEEEy
_ZN7android8hardware3drm4V1_017BpHwCryptoFactory12createPluginERKNS0_10hidl_arrayIhLj16EJEEERKNS0_8hidl_vecIhEENSt3__18functionIFvNS2_6StatusERKNS_2spINS2_13ICryptoPluginEEEEEE
_ZN7android8hardware3drm4V1_017BpHwCryptoFactory12getDebugInfoENSt3__18functionIFvRKNS_4hidl4base4V1_09DebugInfoEEEE
_ZN7android8hardware3drm4V1_017BpHwCryptoFactory12getHashChainENSt3__18functionIFvRKNS0_8hidl_vecINS0_10hidl_arrayIhLj32EJEEEEEEEE
_ZN7android8hardware3drm4V1_017BpHwCryptoFactory13unlinkToDeathERKNS_2spINS0_20hidl_death_recipientEEE
_ZN7android8hardware3drm4V1_017BpHwCryptoFactory14interfaceChainENSt3__18functionIFvRKNS0_8hidl_vecINS0_11hidl_stringEEEEEE
_ZN7android8hardware3drm4V1_017BpHwCryptoFactory18_hidl_createPluginEPNS0_10IInterfaceEPNS0_7details16HidlInstrumentorERKNS0_10hidl_arrayIhLj16EJEEERKNS0_8hidl_vecIhEENSt3__18functionIFvNS2_6StatusERKNS_2spINS2_13ICryptoPluginEEEEEE
_ZN7android8hardware3drm4V1_017BpHwCryptoFactory19interfaceDescriptorENSt3__18functionIFvRKNS0_11hidl_stringEEEE
_ZN7android8hardware3drm4V1_017BpHwCryptoFactory21notifySyspropsChangedEv
_ZN7android8hardware3drm4V1_017BpHwCryptoFactory21setHALInstrumentationEv
_ZN7android8hardware3drm4V1_017BpHwCryptoFactory23isCryptoSchemeSupportedERKNS0_10hidl_arrayIhLj16EJEEE
_ZN7android8hardware3drm4V1_017BpHwCryptoFactory29_hidl_isCryptoSchemeSupportedEPNS0_10IInterfaceEPNS0_7details16HidlInstrumentorERKNS0_10hidl_arrayIhLj16EJEEE
_ZN7android8hardware3drm4V1_017BpHwCryptoFactory4pingEv
_ZN7android8hardware3drm4V1_017BpHwCryptoFactory5debugERKNS0_11hidl_handleERKNS0_8hidl_vecINS0_11hidl_stringEEE
_ZN7android8hardware3drm4V1_017BpHwCryptoFactoryC1ERKNS_2spINS0_7IBinderEEE
_ZN7android8hardware3drm4V1_017BpHwCryptoFactoryC2ERKNS_2spINS0_7IBinderEEE
_ZN7android8hardware3drm4V1_018IDrmPluginListener10descriptorE
_ZN7android8hardware3drm4V1_018IDrmPluginListener10getServiceERKNSt3__112basic_stringIcNS4_11char_traitsIcEENS4_9allocatorIcEEEEb
_ZN7android8hardware3drm4V1_018IDrmPluginListener11linkToDeathERKNS_2spINS0_20hidl_death_recipientEEEy
_ZN7android8hardware3drm4V1_018IDrmPluginListener12getDebugInfoENSt3__18functionIFvRKNS_4hidl4base4V1_09DebugInfoEEEE
_ZN7android8hardware3drm4V1_018IDrmPluginListener12getHashChainENSt3__18functionIFvRKNS0_8hidl_vecINS0_10hidl_arrayIhLj32EJEEEEEEEE
_ZN7android8hardware3drm4V1_018IDrmPluginListener13tryGetServiceERKNSt3__112basic_stringIcNS4_11char_traitsIcEENS4_9allocatorIcEEEEb
_ZN7android8hardware3drm4V1_018IDrmPluginListener13unlinkToDeathERKNS_2spINS0_20hidl_death_recipientEEE
_ZN7android8hardware3drm4V1_018IDrmPluginListener14interfaceChainENSt3__18functionIFvRKNS0_8hidl_vecINS0_11hidl_stringEEEEEE
_ZN7android8hardware3drm4V1_018IDrmPluginListener17registerAsServiceERKNSt3__112basic_stringIcNS4_11char_traitsIcEENS4_9allocatorIcEEEE
_ZN7android8hardware3drm4V1_018IDrmPluginListener19interfaceDescriptorENSt3__18functionIFvRKNS0_11hidl_stringEEEE
_ZN7android8hardware3drm4V1_018IDrmPluginListener21notifySyspropsChangedEv
_ZN7android8hardware3drm4V1_018IDrmPluginListener21setHALInstrumentationEv
_ZN7android8hardware3drm4V1_018IDrmPluginListener24registerForNotificationsERKNSt3__112basic_stringIcNS4_11char_traitsIcEENS4_9allocatorIcEEEERKNS_2spINS_4hidl7manager4V1_020IServiceNotificationEEE
_ZN7android8hardware3drm4V1_018IDrmPluginListener4pingEv
_ZN7android8hardware3drm4V1_018IDrmPluginListener5debugERKNS0_11hidl_handleERKNS0_8hidl_vecINS0_11hidl_stringEEE
_ZN7android8hardware3drm4V1_018IDrmPluginListener8castFromERKNS_2spINS_4hidl4base4V1_05IBaseEEEb
_ZN7android8hardware3drm4V1_018IDrmPluginListener8castFromERKNS_2spIS3_EEb
_ZN7android8hardware3drm4V1_019BsDrmPluginListener13addOnewayTaskENSt3__18functionIFvvEEE
_ZN7android8hardware3drm4V1_019BsDrmPluginListenerC1ENS_2spINS2_18IDrmPluginListenerEEE
_ZN7android8hardware3drm4V1_019BsDrmPluginListenerC2ENS_2spINS2_18IDrmPluginListenerEEE
_ZN7android8hardware3drm4V1_021BnHwDrmPluginListener10onTransactEjRKNS0_6ParcelEPS4_jNSt3__18functionIFvRS4_EEE
_ZN7android8hardware3drm4V1_021BnHwDrmPluginListener12getDebugInfoENSt3__18functionIFvRKNS_4hidl4base4V1_09DebugInfoEEEE
_ZN7android8hardware3drm4V1_021BnHwDrmPluginListener15_hidl_sendEventEPNS_4hidl4base4V1_08BnHwBaseERKNS0_6ParcelEPS9_NSt3__18functionIFvRS9_EEE
_ZN7android8hardware3drm4V1_021BnHwDrmPluginListener20_hidl_sendKeysChangeEPNS_4hidl4base4V1_08BnHwBaseERKNS0_6ParcelEPS9_NSt3__18functionIFvRS9_EEE
_ZN7android8hardware3drm4V1_021BnHwDrmPluginListener26_hidl_sendExpirationUpdateEPNS_4hidl4base4V1_08BnHwBaseERKNS0_6ParcelEPS9_NSt3__18functionIFvRS9_EEE
_ZN7android8hardware3drm4V1_021BnHwDrmPluginListener4pingEv
_ZN7android8hardware3drm4V1_021BnHwDrmPluginListenerC1ERKNS_2spINS2_18IDrmPluginListenerEEE
_ZN7android8hardware3drm4V1_021BnHwDrmPluginListenerC2ERKNS_2spINS2_18IDrmPluginListenerEEE
_ZN7android8hardware3drm4V1_021BnHwDrmPluginListenerD0Ev
_ZN7android8hardware3drm4V1_021BnHwDrmPluginListenerD1Ev
_ZN7android8hardware3drm4V1_021BnHwDrmPluginListenerD2Ev
_ZN7android8hardware3drm4V1_021BpHwDrmPluginListener11linkToDeathERKNS_2spINS0_20hidl_death_recipientEEEy
_ZN7android8hardware3drm4V1_021BpHwDrmPluginListener12getDebugInfoENSt3__18functionIFvRKNS_4hidl4base4V1_09DebugInfoEEEE
_ZN7android8hardware3drm4V1_021BpHwDrmPluginListener12getHashChainENSt3__18functionIFvRKNS0_8hidl_vecINS0_10hidl_arrayIhLj32EJEEEEEEEE
_ZN7android8hardware3drm4V1_021BpHwDrmPluginListener13unlinkToDeathERKNS_2spINS0_20hidl_death_recipientEEE
_ZN7android8hardware3drm4V1_021BpHwDrmPluginListener14interfaceChainENSt3__18functionIFvRKNS0_8hidl_vecINS0_11hidl_stringEEEEEE
_ZN7android8hardware3drm4V1_021BpHwDrmPluginListener14sendKeysChangeERKNS0_8hidl_vecIhEERKNS4_INS2_9KeyStatusEEEb
_ZN7android8hardware3drm4V1_021BpHwDrmPluginListener15_hidl_sendEventEPNS0_10IInterfaceEPNS0_7details16HidlInstrumentorENS2_9EventTypeERKNS0_8hidl_vecIhEESD_
_ZN7android8hardware3drm4V1_021BpHwDrmPluginListener19interfaceDescriptorENSt3__18functionIFvRKNS0_11hidl_stringEEEE
_ZN7android8hardware3drm4V1_021BpHwDrmPluginListener20_hidl_sendKeysChangeEPNS0_10IInterfaceEPNS0_7details16HidlInstrumentorERKNS0_8hidl_vecIhEERKNS9_INS2_9KeyStatusEEEb
_ZN7android8hardware3drm4V1_021BpHwDrmPluginListener20sendExpirationUpdateERKNS0_8hidl_vecIhEEx
_ZN7android8hardware3drm4V1_021BpHwDrmPluginListener21notifySyspropsChangedEv
_ZN7android8hardware3drm4V1_021BpHwDrmPluginListener21setHALInstrumentationEv
_ZN7android8hardware3drm4V1_021BpHwDrmPluginListener26_hidl_sendExpirationUpdateEPNS0_10IInterfaceEPNS0_7details16HidlInstrumentorERKNS0_8hidl_vecIhEEx
_ZN7android8hardware3drm4V1_021BpHwDrmPluginListener4pingEv
_ZN7android8hardware3drm4V1_021BpHwDrmPluginListener5debugERKNS0_11hidl_handleERKNS0_8hidl_vecINS0_11hidl_stringEEE
_ZN7android8hardware3drm4V1_021BpHwDrmPluginListener9sendEventENS2_9EventTypeERKNS0_8hidl_vecIhEES8_
_ZN7android8hardware3drm4V1_021BpHwDrmPluginListenerC1ERKNS_2spINS0_7IBinderEEE
_ZN7android8hardware3drm4V1_021BpHwDrmPluginListenerC2ERKNS_2spINS0_7IBinderEEE
_ZN7android8hardware3drm4V1_021writeEmbeddedToParcelERKNS2_10SecureStopEPNS0_6ParcelEjj
_ZN7android8hardware3drm4V1_021writeEmbeddedToParcelERKNS2_17DestinationBufferEPNS0_6ParcelEjj
_ZN7android8hardware3drm4V1_021writeEmbeddedToParcelERKNS2_8KeyValueEPNS0_6ParcelEjj
_ZN7android8hardware3drm4V1_021writeEmbeddedToParcelERKNS2_9KeyStatusEPNS0_6ParcelEjj
_ZN7android8hardware3drm4V1_022readEmbeddedFromParcelERKNS2_10SecureStopERKNS0_6ParcelEjj
_ZN7android8hardware3drm4V1_022readEmbeddedFromParcelERKNS2_17DestinationBufferERKNS0_6ParcelEjj
_ZN7android8hardware3drm4V1_022readEmbeddedFromParcelERKNS2_8KeyValueERKNS0_6ParcelEjj
_ZN7android8hardware3drm4V1_022readEmbeddedFromParcelERKNS2_9KeyStatusERKNS0_6ParcelEjj
_ZTCN7android8hardware3drm4V1_010IDrmPluginE0_NS_4hidl4base4V1_05IBaseE
_ZTCN7android8hardware3drm4V1_011IDrmFactoryE0_NS_4hidl4base4V1_05IBaseE
_ZTCN7android8hardware3drm4V1_013BnHwDrmPluginE0_NS0_7IBinderE
_ZTCN7android8hardware3drm4V1_013BnHwDrmPluginE0_NS0_9BHwBinderE
_ZTCN7android8hardware3drm4V1_013BnHwDrmPluginE0_NS_4hidl4base4V1_08BnHwBaseE
_ZTCN7android8hardware3drm4V1_013BpHwDrmPluginE0_NS0_11BpInterfaceINS2_10IDrmPluginEEE
_ZTCN7android8hardware3drm4V1_013BpHwDrmPluginE0_NS2_10IDrmPluginE
_ZTCN7android8hardware3drm4V1_013BpHwDrmPluginE0_NS_4hidl4base4V1_05IBaseE
_ZTCN7android8hardware3drm4V1_013BpHwDrmPluginE4_NS0_10IInterfaceE
_ZTCN7android8hardware3drm4V1_013BpHwDrmPluginE8_NS0_11BpHwRefBaseE
_ZTCN7android8hardware3drm4V1_013ICryptoPluginE0_NS_4hidl4base4V1_05IBaseE
_ZTCN7android8hardware3drm4V1_014BnHwDrmFactoryE0_NS0_7IBinderE
_ZTCN7android8hardware3drm4V1_014BnHwDrmFactoryE0_NS0_9BHwBinderE
_ZTCN7android8hardware3drm4V1_014BnHwDrmFactoryE0_NS_4hidl4base4V1_08BnHwBaseE
_ZTCN7android8hardware3drm4V1_014BpHwDrmFactoryE0_NS0_11BpInterfaceINS2_11IDrmFactoryEEE
_ZTCN7android8hardware3drm4V1_014BpHwDrmFactoryE0_NS2_11IDrmFactoryE
_ZTCN7android8hardware3drm4V1_014BpHwDrmFactoryE0_NS_4hidl4base4V1_05IBaseE
_ZTCN7android8hardware3drm4V1_014BpHwDrmFactoryE4_NS0_10IInterfaceE
_ZTCN7android8hardware3drm4V1_014BpHwDrmFactoryE8_NS0_11BpHwRefBaseE
_ZTCN7android8hardware3drm4V1_014ICryptoFactoryE0_NS_4hidl4base4V1_05IBaseE
_ZTCN7android8hardware3drm4V1_016BnHwCryptoPluginE0_NS0_7IBinderE
_ZTCN7android8hardware3drm4V1_016BnHwCryptoPluginE0_NS0_9BHwBinderE
_ZTCN7android8hardware3drm4V1_016BnHwCryptoPluginE0_NS_4hidl4base4V1_08BnHwBaseE
_ZTCN7android8hardware3drm4V1_016BpHwCryptoPluginE0_NS0_11BpInterfaceINS2_13ICryptoPluginEEE
_ZTCN7android8hardware3drm4V1_016BpHwCryptoPluginE0_NS2_13ICryptoPluginE
_ZTCN7android8hardware3drm4V1_016BpHwCryptoPluginE0_NS_4hidl4base4V1_05IBaseE
_ZTCN7android8hardware3drm4V1_016BpHwCryptoPluginE4_NS0_10IInterfaceE
_ZTCN7android8hardware3drm4V1_016BpHwCryptoPluginE8_NS0_11BpHwRefBaseE
_ZTCN7android8hardware3drm4V1_017BnHwCryptoFactoryE0_NS0_7IBinderE
_ZTCN7android8hardware3drm4V1_017BnHwCryptoFactoryE0_NS0_9BHwBinderE
_ZTCN7android8hardware3drm4V1_017BnHwCryptoFactoryE0_NS_4hidl4base4V1_08BnHwBaseE
_ZTCN7android8hardware3drm4V1_017BpHwCryptoFactoryE0_NS0_11BpInterfaceINS2_14ICryptoFactoryEEE
_ZTCN7android8hardware3drm4V1_017BpHwCryptoFactoryE0_NS2_14ICryptoFactoryE
_ZTCN7android8hardware3drm4V1_017BpHwCryptoFactoryE0_NS_4hidl4base4V1_05IBaseE
_ZTCN7android8hardware3drm4V1_017BpHwCryptoFactoryE4_NS0_10IInterfaceE
_ZTCN7android8hardware3drm4V1_017BpHwCryptoFactoryE8_NS0_11BpHwRefBaseE
_ZTCN7android8hardware3drm4V1_018IDrmPluginListenerE0_NS_4hidl4base4V1_05IBaseE
_ZTCN7android8hardware3drm4V1_021BnHwDrmPluginListenerE0_NS0_7IBinderE
_ZTCN7android8hardware3drm4V1_021BnHwDrmPluginListenerE0_NS0_9BHwBinderE
_ZTCN7android8hardware3drm4V1_021BnHwDrmPluginListenerE0_NS_4hidl4base4V1_08BnHwBaseE
_ZTCN7android8hardware3drm4V1_021BpHwDrmPluginListenerE0_NS0_11BpInterfaceINS2_18IDrmPluginListenerEEE
_ZTCN7android8hardware3drm4V1_021BpHwDrmPluginListenerE0_NS2_18IDrmPluginListenerE
_ZTCN7android8hardware3drm4V1_021BpHwDrmPluginListenerE0_NS_4hidl4base4V1_05IBaseE
_ZTCN7android8hardware3drm4V1_021BpHwDrmPluginListenerE4_NS0_10IInterfaceE
_ZTCN7android8hardware3drm4V1_021BpHwDrmPluginListenerE8_NS0_11BpHwRefBaseE
_ZTTN7android8hardware3drm4V1_010IDrmPluginE
_ZTTN7android8hardware3drm4V1_011IDrmFactoryE
_ZTTN7android8hardware3drm4V1_013BnHwDrmPluginE
_ZTTN7android8hardware3drm4V1_013BpHwDrmPluginE
_ZTTN7android8hardware3drm4V1_013ICryptoPluginE
_ZTTN7android8hardware3drm4V1_014BnHwDrmFactoryE
_ZTTN7android8hardware3drm4V1_014BpHwDrmFactoryE
_ZTTN7android8hardware3drm4V1_014ICryptoFactoryE
_ZTTN7android8hardware3drm4V1_016BnHwCryptoPluginE
_ZTTN7android8hardware3drm4V1_016BpHwCryptoPluginE
_ZTTN7android8hardware3drm4V1_017BnHwCryptoFactoryE
_ZTTN7android8hardware3drm4V1_017BpHwCryptoFactoryE
_ZTTN7android8hardware3drm4V1_018IDrmPluginListenerE
_ZTTN7android8hardware3drm4V1_021BnHwDrmPluginListenerE
_ZTTN7android8hardware3drm4V1_021BpHwDrmPluginListenerE
_ZTVN7android8hardware3drm4V1_010IDrmPluginE
_ZTVN7android8hardware3drm4V1_011IDrmFactoryE
_ZTVN7android8hardware3drm4V1_013BnHwDrmPluginE
_ZTVN7android8hardware3drm4V1_013BpHwDrmPluginE
_ZTVN7android8hardware3drm4V1_013ICryptoPluginE
_ZTVN7android8hardware3drm4V1_014BnHwDrmFactoryE
_ZTVN7android8hardware3drm4V1_014BpHwDrmFactoryE
_ZTVN7android8hardware3drm4V1_014ICryptoFactoryE
_ZTVN7android8hardware3drm4V1_016BnHwCryptoPluginE
_ZTVN7android8hardware3drm4V1_016BpHwCryptoPluginE
_ZTVN7android8hardware3drm4V1_017BnHwCryptoFactoryE
_ZTVN7android8hardware3drm4V1_017BpHwCryptoFactoryE
_ZTVN7android8hardware3drm4V1_018IDrmPluginListenerE
_ZTVN7android8hardware3drm4V1_021BnHwDrmPluginListenerE
_ZTVN7android8hardware3drm4V1_021BpHwDrmPluginListenerE
_ZThn20_N7android8hardware3drm4V1_013BnHwDrmPluginD0Ev
_ZThn20_N7android8hardware3drm4V1_013BnHwDrmPluginD1Ev
_ZThn20_N7android8hardware3drm4V1_014BnHwDrmFactoryD0Ev
_ZThn20_N7android8hardware3drm4V1_014BnHwDrmFactoryD1Ev
_ZThn20_N7android8hardware3drm4V1_016BnHwCryptoPluginD0Ev
_ZThn20_N7android8hardware3drm4V1_016BnHwCryptoPluginD1Ev
_ZThn20_N7android8hardware3drm4V1_017BnHwCryptoFactoryD0Ev
_ZThn20_N7android8hardware3drm4V1_017BnHwCryptoFactoryD1Ev
_ZThn20_N7android8hardware3drm4V1_021BnHwDrmPluginListenerD0Ev
_ZThn20_N7android8hardware3drm4V1_021BnHwDrmPluginListenerD1Ev
_ZTv0_n12_N7android8hardware3drm4V1_013BnHwDrmPluginD0Ev
_ZTv0_n12_N7android8hardware3drm4V1_013BnHwDrmPluginD1Ev
_ZTv0_n12_N7android8hardware3drm4V1_014BnHwDrmFactoryD0Ev
_ZTv0_n12_N7android8hardware3drm4V1_014BnHwDrmFactoryD1Ev
_ZTv0_n12_N7android8hardware3drm4V1_016BnHwCryptoPluginD0Ev
_ZTv0_n12_N7android8hardware3drm4V1_016BnHwCryptoPluginD1Ev
_ZTv0_n12_N7android8hardware3drm4V1_017BnHwCryptoFactoryD0Ev
_ZTv0_n12_N7android8hardware3drm4V1_017BnHwCryptoFactoryD1Ev
_ZTv0_n12_N7android8hardware3drm4V1_021BnHwDrmPluginListenerD0Ev
_ZTv0_n12_N7android8hardware3drm4V1_021BnHwDrmPluginListenerD1Ev
