_ZN7android8hardware9bluetooth4a2dp4V1_019IBluetoothAudioHost10descriptorE
_ZN7android8hardware9bluetooth4a2dp4V1_019IBluetoothAudioHost10getServiceERKNSt3__112basic_stringIcNS5_11char_traitsIcEENS5_9allocatorIcEEEEb
_ZN7android8hardware9bluetooth4a2dp4V1_019IBluetoothAudioHost11linkToDeathERKNS_2spINS0_20hidl_death_recipientEEEy
_ZN7android8hardware9bluetooth4a2dp4V1_019IBluetoothAudioHost12getDebugInfoENSt3__18functionIFvRKNS_4hidl4base4V1_09DebugInfoEEEE
_ZN7android8hardware9bluetooth4a2dp4V1_019IBluetoothAudioHost12getHashChainENSt3__18functionIFvRKNS0_8hidl_vecINS0_10hidl_arrayIhLj32EJEEEEEEEE
_ZN7android8hardware9bluetooth4a2dp4V1_019IBluetoothAudioHost13tryGetServiceERKNSt3__112basic_stringIcNS5_11char_traitsIcEENS5_9allocatorIcEEEEb
_ZN7android8hardware9bluetooth4a2dp4V1_019IBluetoothAudioHost13unlinkToDeathERKNS_2spINS0_20hidl_death_recipientEEE
_ZN7android8hardware9bluetooth4a2dp4V1_019IBluetoothAudioHost14interfaceChainENSt3__18functionIFvRKNS0_8hidl_vecINS0_11hidl_stringEEEEEE
_ZN7android8hardware9bluetooth4a2dp4V1_019IBluetoothAudioHost17registerAsServiceERKNSt3__112basic_stringIcNS5_11char_traitsIcEENS5_9allocatorIcEEEE
_ZN7android8hardware9bluetooth4a2dp4V1_019IBluetoothAudioHost19interfaceDescriptorENSt3__18functionIFvRKNS0_11hidl_stringEEEE
_ZN7android8hardware9bluetooth4a2dp4V1_019IBluetoothAudioHost21notifySyspropsChangedEv
_ZN7android8hardware9bluetooth4a2dp4V1_019IBluetoothAudioHost21setHALInstrumentationEv
_ZN7android8hardware9bluetooth4a2dp4V1_019IBluetoothAudioHost24registerForNotificationsERKNSt3__112basic_stringIcNS5_11char_traitsIcEENS5_9allocatorIcEEEERKNS_2spINS_4hidl7manager4V1_020IServiceNotificationEEE
_ZN7android8hardware9bluetooth4a2dp4V1_019IBluetoothAudioHost4pingEv
_ZN7android8hardware9bluetooth4a2dp4V1_019IBluetoothAudioHost5debugERKNS0_11hidl_handleERKNS0_8hidl_vecINS0_11hidl_stringEEE
_ZN7android8hardware9bluetooth4a2dp4V1_019IBluetoothAudioHost8castFromERKNS_2spINS_4hidl4base4V1_05IBaseEEEb
_ZN7android8hardware9bluetooth4a2dp4V1_019IBluetoothAudioHost8castFromERKNS_2spIS4_EEb
_ZN7android8hardware9bluetooth4a2dp4V1_020BsBluetoothAudioHost13addOnewayTaskENSt3__18functionIFvvEEE
_ZN7android8hardware9bluetooth4a2dp4V1_020BsBluetoothAudioHostC1ENS_2spINS3_19IBluetoothAudioHostEEE
_ZN7android8hardware9bluetooth4a2dp4V1_020BsBluetoothAudioHostC2ENS_2spINS3_19IBluetoothAudioHostEEE
_ZN7android8hardware9bluetooth4a2dp4V1_022BnHwBluetoothAudioHost10onTransactEjRKNS0_6ParcelEPS5_jNSt3__18functionIFvRS5_EEE
_ZN7android8hardware9bluetooth4a2dp4V1_022BnHwBluetoothAudioHost12getDebugInfoENSt3__18functionIFvRKNS_4hidl4base4V1_09DebugInfoEEEE
_ZN7android8hardware9bluetooth4a2dp4V1_022BnHwBluetoothAudioHost16_hidl_stopStreamEPNS_4hidl4base4V1_08BnHwBaseERKNS0_6ParcelEPSA_NSt3__18functionIFvRSA_EEE
_ZN7android8hardware9bluetooth4a2dp4V1_022BnHwBluetoothAudioHost17_hidl_startStreamEPNS_4hidl4base4V1_08BnHwBaseERKNS0_6ParcelEPSA_NSt3__18functionIFvRSA_EEE
_ZN7android8hardware9bluetooth4a2dp4V1_022BnHwBluetoothAudioHost19_hidl_suspendStreamEPNS_4hidl4base4V1_08BnHwBaseERKNS0_6ParcelEPSA_NSt3__18functionIFvRSA_EEE
_ZN7android8hardware9bluetooth4a2dp4V1_022BnHwBluetoothAudioHost4pingEv
_ZN7android8hardware9bluetooth4a2dp4V1_022BnHwBluetoothAudioHostC1ERKNS_2spINS3_19IBluetoothAudioHostEEE
_ZN7android8hardware9bluetooth4a2dp4V1_022BnHwBluetoothAudioHostC2ERKNS_2spINS3_19IBluetoothAudioHostEEE
_ZN7android8hardware9bluetooth4a2dp4V1_022BnHwBluetoothAudioHostD0Ev
_ZN7android8hardware9bluetooth4a2dp4V1_022BnHwBluetoothAudioHostD1Ev
_ZN7android8hardware9bluetooth4a2dp4V1_022BnHwBluetoothAudioHostD2Ev
_ZN7android8hardware9bluetooth4a2dp4V1_022BpHwBluetoothAudioHost10stopStreamEv
_ZN7android8hardware9bluetooth4a2dp4V1_022BpHwBluetoothAudioHost11linkToDeathERKNS_2spINS0_20hidl_death_recipientEEEy
_ZN7android8hardware9bluetooth4a2dp4V1_022BpHwBluetoothAudioHost11startStreamEv
_ZN7android8hardware9bluetooth4a2dp4V1_022BpHwBluetoothAudioHost12getDebugInfoENSt3__18functionIFvRKNS_4hidl4base4V1_09DebugInfoEEEE
_ZN7android8hardware9bluetooth4a2dp4V1_022BpHwBluetoothAudioHost12getHashChainENSt3__18functionIFvRKNS0_8hidl_vecINS0_10hidl_arrayIhLj32EJEEEEEEEE
_ZN7android8hardware9bluetooth4a2dp4V1_022BpHwBluetoothAudioHost13suspendStreamEv
_ZN7android8hardware9bluetooth4a2dp4V1_022BpHwBluetoothAudioHost13unlinkToDeathERKNS_2spINS0_20hidl_death_recipientEEE
_ZN7android8hardware9bluetooth4a2dp4V1_022BpHwBluetoothAudioHost14interfaceChainENSt3__18functionIFvRKNS0_8hidl_vecINS0_11hidl_stringEEEEEE
_ZN7android8hardware9bluetooth4a2dp4V1_022BpHwBluetoothAudioHost16_hidl_stopStreamEPNS0_10IInterfaceEPNS0_7details16HidlInstrumentorE
_ZN7android8hardware9bluetooth4a2dp4V1_022BpHwBluetoothAudioHost17_hidl_startStreamEPNS0_10IInterfaceEPNS0_7details16HidlInstrumentorE
_ZN7android8hardware9bluetooth4a2dp4V1_022BpHwBluetoothAudioHost19_hidl_suspendStreamEPNS0_10IInterfaceEPNS0_7details16HidlInstrumentorE
_ZN7android8hardware9bluetooth4a2dp4V1_022BpHwBluetoothAudioHost19interfaceDescriptorENSt3__18functionIFvRKNS0_11hidl_stringEEEE
_ZN7android8hardware9bluetooth4a2dp4V1_022BpHwBluetoothAudioHost21notifySyspropsChangedEv
_ZN7android8hardware9bluetooth4a2dp4V1_022BpHwBluetoothAudioHost21setHALInstrumentationEv
_ZN7android8hardware9bluetooth4a2dp4V1_022BpHwBluetoothAudioHost4pingEv
_ZN7android8hardware9bluetooth4a2dp4V1_022BpHwBluetoothAudioHost5debugERKNS0_11hidl_handleERKNS0_8hidl_vecINS0_11hidl_stringEEE
_ZN7android8hardware9bluetooth4a2dp4V1_022BpHwBluetoothAudioHostC1ERKNS_2spINS0_7IBinderEEE
_ZN7android8hardware9bluetooth4a2dp4V1_022BpHwBluetoothAudioHostC2ERKNS_2spINS0_7IBinderEEE
_ZN7android8hardware9bluetooth4a2dp4V1_022IBluetoothAudioOffload10descriptorE
_ZN7android8hardware9bluetooth4a2dp4V1_022IBluetoothAudioOffload10getServiceERKNSt3__112basic_stringIcNS5_11char_traitsIcEENS5_9allocatorIcEEEEb
_ZN7android8hardware9bluetooth4a2dp4V1_022IBluetoothAudioOffload11linkToDeathERKNS_2spINS0_20hidl_death_recipientEEEy
_ZN7android8hardware9bluetooth4a2dp4V1_022IBluetoothAudioOffload12getDebugInfoENSt3__18functionIFvRKNS_4hidl4base4V1_09DebugInfoEEEE
_ZN7android8hardware9bluetooth4a2dp4V1_022IBluetoothAudioOffload12getHashChainENSt3__18functionIFvRKNS0_8hidl_vecINS0_10hidl_arrayIhLj32EJEEEEEEEE
_ZN7android8hardware9bluetooth4a2dp4V1_022IBluetoothAudioOffload13tryGetServiceERKNSt3__112basic_stringIcNS5_11char_traitsIcEENS5_9allocatorIcEEEEb
_ZN7android8hardware9bluetooth4a2dp4V1_022IBluetoothAudioOffload13unlinkToDeathERKNS_2spINS0_20hidl_death_recipientEEE
_ZN7android8hardware9bluetooth4a2dp4V1_022IBluetoothAudioOffload14interfaceChainENSt3__18functionIFvRKNS0_8hidl_vecINS0_11hidl_stringEEEEEE
_ZN7android8hardware9bluetooth4a2dp4V1_022IBluetoothAudioOffload17registerAsServiceERKNSt3__112basic_stringIcNS5_11char_traitsIcEENS5_9allocatorIcEEEE
_ZN7android8hardware9bluetooth4a2dp4V1_022IBluetoothAudioOffload19interfaceDescriptorENSt3__18functionIFvRKNS0_11hidl_stringEEEE
_ZN7android8hardware9bluetooth4a2dp4V1_022IBluetoothAudioOffload21notifySyspropsChangedEv
_ZN7android8hardware9bluetooth4a2dp4V1_022IBluetoothAudioOffload21setHALInstrumentationEv
_ZN7android8hardware9bluetooth4a2dp4V1_022IBluetoothAudioOffload24registerForNotificationsERKNSt3__112basic_stringIcNS5_11char_traitsIcEENS5_9allocatorIcEEEERKNS_2spINS_4hidl7manager4V1_020IServiceNotificationEEE
_ZN7android8hardware9bluetooth4a2dp4V1_022IBluetoothAudioOffload4pingEv
_ZN7android8hardware9bluetooth4a2dp4V1_022IBluetoothAudioOffload5debugERKNS0_11hidl_handleERKNS0_8hidl_vecINS0_11hidl_stringEEE
_ZN7android8hardware9bluetooth4a2dp4V1_022IBluetoothAudioOffload8castFromERKNS_2spINS_4hidl4base4V1_05IBaseEEEb
_ZN7android8hardware9bluetooth4a2dp4V1_022IBluetoothAudioOffload8castFromERKNS_2spIS4_EEb
_ZN7android8hardware9bluetooth4a2dp4V1_023BsBluetoothAudioOffload13addOnewayTaskENSt3__18functionIFvvEEE
_ZN7android8hardware9bluetooth4a2dp4V1_023BsBluetoothAudioOffloadC1ENS_2spINS3_22IBluetoothAudioOffloadEEE
_ZN7android8hardware9bluetooth4a2dp4V1_023BsBluetoothAudioOffloadC2ENS_2spINS3_22IBluetoothAudioOffloadEEE
_ZN7android8hardware9bluetooth4a2dp4V1_025BnHwBluetoothAudioOffload10onTransactEjRKNS0_6ParcelEPS5_jNSt3__18functionIFvRS5_EEE
_ZN7android8hardware9bluetooth4a2dp4V1_025BnHwBluetoothAudioOffload12getDebugInfoENSt3__18functionIFvRKNS_4hidl4base4V1_09DebugInfoEEEE
_ZN7android8hardware9bluetooth4a2dp4V1_025BnHwBluetoothAudioOffload16_hidl_endSessionEPNS_4hidl4base4V1_08BnHwBaseERKNS0_6ParcelEPSA_NSt3__18functionIFvRSA_EEE
_ZN7android8hardware9bluetooth4a2dp4V1_025BnHwBluetoothAudioOffload18_hidl_startSessionEPNS_4hidl4base4V1_08BnHwBaseERKNS0_6ParcelEPSA_NSt3__18functionIFvRSA_EEE
_ZN7android8hardware9bluetooth4a2dp4V1_025BnHwBluetoothAudioOffload19_hidl_streamStartedEPNS_4hidl4base4V1_08BnHwBaseERKNS0_6ParcelEPSA_NSt3__18functionIFvRSA_EEE
_ZN7android8hardware9bluetooth4a2dp4V1_025BnHwBluetoothAudioOffload21_hidl_streamSuspendedEPNS_4hidl4base4V1_08BnHwBaseERKNS0_6ParcelEPSA_NSt3__18functionIFvRSA_EEE
_ZN7android8hardware9bluetooth4a2dp4V1_025BnHwBluetoothAudioOffload4pingEv
_ZN7android8hardware9bluetooth4a2dp4V1_025BnHwBluetoothAudioOffloadC1ERKNS_2spINS3_22IBluetoothAudioOffloadEEE
_ZN7android8hardware9bluetooth4a2dp4V1_025BnHwBluetoothAudioOffloadC2ERKNS_2spINS3_22IBluetoothAudioOffloadEEE
_ZN7android8hardware9bluetooth4a2dp4V1_025BnHwBluetoothAudioOffloadD0Ev
_ZN7android8hardware9bluetooth4a2dp4V1_025BnHwBluetoothAudioOffloadD1Ev
_ZN7android8hardware9bluetooth4a2dp4V1_025BnHwBluetoothAudioOffloadD2Ev
_ZN7android8hardware9bluetooth4a2dp4V1_025BpHwBluetoothAudioOffload10endSessionEv
_ZN7android8hardware9bluetooth4a2dp4V1_025BpHwBluetoothAudioOffload11linkToDeathERKNS_2spINS0_20hidl_death_recipientEEEy
_ZN7android8hardware9bluetooth4a2dp4V1_025BpHwBluetoothAudioOffload12getDebugInfoENSt3__18functionIFvRKNS_4hidl4base4V1_09DebugInfoEEEE
_ZN7android8hardware9bluetooth4a2dp4V1_025BpHwBluetoothAudioOffload12getHashChainENSt3__18functionIFvRKNS0_8hidl_vecINS0_10hidl_arrayIhLj32EJEEEEEEEE
_ZN7android8hardware9bluetooth4a2dp4V1_025BpHwBluetoothAudioOffload12startSessionERKNS_2spINS3_19IBluetoothAudioHostEEERKNS3_18CodecConfigurationE
_ZN7android8hardware9bluetooth4a2dp4V1_025BpHwBluetoothAudioOffload13streamStartedENS3_6StatusE
_ZN7android8hardware9bluetooth4a2dp4V1_025BpHwBluetoothAudioOffload13unlinkToDeathERKNS_2spINS0_20hidl_death_recipientEEE
_ZN7android8hardware9bluetooth4a2dp4V1_025BpHwBluetoothAudioOffload14interfaceChainENSt3__18functionIFvRKNS0_8hidl_vecINS0_11hidl_stringEEEEEE
_ZN7android8hardware9bluetooth4a2dp4V1_025BpHwBluetoothAudioOffload15streamSuspendedENS3_6StatusE
_ZN7android8hardware9bluetooth4a2dp4V1_025BpHwBluetoothAudioOffload16_hidl_endSessionEPNS0_10IInterfaceEPNS0_7details16HidlInstrumentorE
_ZN7android8hardware9bluetooth4a2dp4V1_025BpHwBluetoothAudioOffload18_hidl_startSessionEPNS0_10IInterfaceEPNS0_7details16HidlInstrumentorERKNS_2spINS3_19IBluetoothAudioHostEEERKNS3_18CodecConfigurationE
_ZN7android8hardware9bluetooth4a2dp4V1_025BpHwBluetoothAudioOffload19_hidl_streamStartedEPNS0_10IInterfaceEPNS0_7details16HidlInstrumentorENS3_6StatusE
_ZN7android8hardware9bluetooth4a2dp4V1_025BpHwBluetoothAudioOffload19interfaceDescriptorENSt3__18functionIFvRKNS0_11hidl_stringEEEE
_ZN7android8hardware9bluetooth4a2dp4V1_025BpHwBluetoothAudioOffload21_hidl_streamSuspendedEPNS0_10IInterfaceEPNS0_7details16HidlInstrumentorENS3_6StatusE
_ZN7android8hardware9bluetooth4a2dp4V1_025BpHwBluetoothAudioOffload21notifySyspropsChangedEv
_ZN7android8hardware9bluetooth4a2dp4V1_025BpHwBluetoothAudioOffload21setHALInstrumentationEv
_ZN7android8hardware9bluetooth4a2dp4V1_025BpHwBluetoothAudioOffload4pingEv
_ZN7android8hardware9bluetooth4a2dp4V1_025BpHwBluetoothAudioOffload5debugERKNS0_11hidl_handleERKNS0_8hidl_vecINS0_11hidl_stringEEE
_ZN7android8hardware9bluetooth4a2dp4V1_025BpHwBluetoothAudioOffloadC1ERKNS_2spINS0_7IBinderEEE
_ZN7android8hardware9bluetooth4a2dp4V1_025BpHwBluetoothAudioOffloadC2ERKNS_2spINS0_7IBinderEEE
_ZTCN7android8hardware9bluetooth4a2dp4V1_019IBluetoothAudioHostE0_NS_4hidl4base4V1_05IBaseE
_ZTCN7android8hardware9bluetooth4a2dp4V1_022BnHwBluetoothAudioHostE0_NS0_7IBinderE
_ZTCN7android8hardware9bluetooth4a2dp4V1_022BnHwBluetoothAudioHostE0_NS0_9BHwBinderE
_ZTCN7android8hardware9bluetooth4a2dp4V1_022BnHwBluetoothAudioHostE0_NS_4hidl4base4V1_08BnHwBaseE
_ZTCN7android8hardware9bluetooth4a2dp4V1_022BpHwBluetoothAudioHostE0_NS0_11BpInterfaceINS3_19IBluetoothAudioHostEEE
_ZTCN7android8hardware9bluetooth4a2dp4V1_022BpHwBluetoothAudioHostE0_NS3_19IBluetoothAudioHostE
_ZTCN7android8hardware9bluetooth4a2dp4V1_022BpHwBluetoothAudioHostE0_NS_4hidl4base4V1_05IBaseE
_ZTCN7android8hardware9bluetooth4a2dp4V1_022BpHwBluetoothAudioHostE4_NS0_10IInterfaceE
_ZTCN7android8hardware9bluetooth4a2dp4V1_022BpHwBluetoothAudioHostE8_NS0_11BpHwRefBaseE
_ZTCN7android8hardware9bluetooth4a2dp4V1_022IBluetoothAudioOffloadE0_NS_4hidl4base4V1_05IBaseE
_ZTCN7android8hardware9bluetooth4a2dp4V1_025BnHwBluetoothAudioOffloadE0_NS0_7IBinderE
_ZTCN7android8hardware9bluetooth4a2dp4V1_025BnHwBluetoothAudioOffloadE0_NS0_9BHwBinderE
_ZTCN7android8hardware9bluetooth4a2dp4V1_025BnHwBluetoothAudioOffloadE0_NS_4hidl4base4V1_08BnHwBaseE
_ZTCN7android8hardware9bluetooth4a2dp4V1_025BpHwBluetoothAudioOffloadE0_NS0_11BpInterfaceINS3_22IBluetoothAudioOffloadEEE
_ZTCN7android8hardware9bluetooth4a2dp4V1_025BpHwBluetoothAudioOffloadE0_NS3_22IBluetoothAudioOffloadE
_ZTCN7android8hardware9bluetooth4a2dp4V1_025BpHwBluetoothAudioOffloadE0_NS_4hidl4base4V1_05IBaseE
_ZTCN7android8hardware9bluetooth4a2dp4V1_025BpHwBluetoothAudioOffloadE4_NS0_10IInterfaceE
_ZTCN7android8hardware9bluetooth4a2dp4V1_025BpHwBluetoothAudioOffloadE8_NS0_11BpHwRefBaseE
_ZTTN7android8hardware9bluetooth4a2dp4V1_019IBluetoothAudioHostE
_ZTTN7android8hardware9bluetooth4a2dp4V1_022BnHwBluetoothAudioHostE
_ZTTN7android8hardware9bluetooth4a2dp4V1_022BpHwBluetoothAudioHostE
_ZTTN7android8hardware9bluetooth4a2dp4V1_022IBluetoothAudioOffloadE
_ZTTN7android8hardware9bluetooth4a2dp4V1_025BnHwBluetoothAudioOffloadE
_ZTTN7android8hardware9bluetooth4a2dp4V1_025BpHwBluetoothAudioOffloadE
_ZTVN7android8hardware9bluetooth4a2dp4V1_019IBluetoothAudioHostE
_ZTVN7android8hardware9bluetooth4a2dp4V1_022BnHwBluetoothAudioHostE
_ZTVN7android8hardware9bluetooth4a2dp4V1_022BpHwBluetoothAudioHostE
_ZTVN7android8hardware9bluetooth4a2dp4V1_022IBluetoothAudioOffloadE
_ZTVN7android8hardware9bluetooth4a2dp4V1_025BnHwBluetoothAudioOffloadE
_ZTVN7android8hardware9bluetooth4a2dp4V1_025BpHwBluetoothAudioOffloadE
_ZThn20_N7android8hardware9bluetooth4a2dp4V1_022BnHwBluetoothAudioHostD0Ev
_ZThn20_N7android8hardware9bluetooth4a2dp4V1_022BnHwBluetoothAudioHostD1Ev
_ZThn20_N7android8hardware9bluetooth4a2dp4V1_025BnHwBluetoothAudioOffloadD0Ev
_ZThn20_N7android8hardware9bluetooth4a2dp4V1_025BnHwBluetoothAudioOffloadD1Ev
_ZTv0_n12_N7android8hardware9bluetooth4a2dp4V1_022BnHwBluetoothAudioHostD0Ev
_ZTv0_n12_N7android8hardware9bluetooth4a2dp4V1_022BnHwBluetoothAudioHostD1Ev
_ZTv0_n12_N7android8hardware9bluetooth4a2dp4V1_025BnHwBluetoothAudioOffloadD0Ev
_ZTv0_n12_N7android8hardware9bluetooth4a2dp4V1_025BnHwBluetoothAudioOffloadD1Ev
