_ZN7android8hardware5radio10deprecated4V1_011BnHwOemHook10onTransactEjRKNS0_6ParcelEPS5_jNSt3__18functionIFvRS5_EEE
_ZN7android8hardware5radio10deprecated4V1_011BnHwOemHook12getDebugInfoENSt3__18functionIFvRKNS_4hidl4base4V1_09DebugInfoEEEE
_ZN7android8hardware5radio10deprecated4V1_011BnHwOemHook20_hidl_sendRequestRawEPNS_4hidl4base4V1_08BnHwBaseERKNS0_6ParcelEPSA_NSt3__18functionIFvRSA_EEE
_ZN7android8hardware5radio10deprecated4V1_011BnHwOemHook24_hidl_sendRequestStringsEPNS_4hidl4base4V1_08BnHwBaseERKNS0_6ParcelEPSA_NSt3__18functionIFvRSA_EEE
_ZN7android8hardware5radio10deprecated4V1_011BnHwOemHook26_hidl_setResponseFunctionsEPNS_4hidl4base4V1_08BnHwBaseERKNS0_6ParcelEPSA_NSt3__18functionIFvRSA_EEE
_ZN7android8hardware5radio10deprecated4V1_011BnHwOemHook4pingEv
_ZN7android8hardware5radio10deprecated4V1_011BnHwOemHookC1ERKNS_2spINS3_8IOemHookEEE
_ZN7android8hardware5radio10deprecated4V1_011BnHwOemHookC2ERKNS_2spINS3_8IOemHookEEE
_ZN7android8hardware5radio10deprecated4V1_011BnHwOemHookD0Ev
_ZN7android8hardware5radio10deprecated4V1_011BnHwOemHookD1Ev
_ZN7android8hardware5radio10deprecated4V1_011BnHwOemHookD2Ev
_ZN7android8hardware5radio10deprecated4V1_011BpHwOemHook11linkToDeathERKNS_2spINS0_20hidl_death_recipientEEEy
_ZN7android8hardware5radio10deprecated4V1_011BpHwOemHook12getDebugInfoENSt3__18functionIFvRKNS_4hidl4base4V1_09DebugInfoEEEE
_ZN7android8hardware5radio10deprecated4V1_011BpHwOemHook12getHashChainENSt3__18functionIFvRKNS0_8hidl_vecINS0_10hidl_arrayIhLj32EJEEEEEEEE
_ZN7android8hardware5radio10deprecated4V1_011BpHwOemHook13unlinkToDeathERKNS_2spINS0_20hidl_death_recipientEEE
_ZN7android8hardware5radio10deprecated4V1_011BpHwOemHook14interfaceChainENSt3__18functionIFvRKNS0_8hidl_vecINS0_11hidl_stringEEEEEE
_ZN7android8hardware5radio10deprecated4V1_011BpHwOemHook14sendRequestRawEiRKNS0_8hidl_vecIhEE
_ZN7android8hardware5radio10deprecated4V1_011BpHwOemHook18sendRequestStringsEiRKNS0_8hidl_vecINS0_11hidl_stringEEE
_ZN7android8hardware5radio10deprecated4V1_011BpHwOemHook19interfaceDescriptorENSt3__18functionIFvRKNS0_11hidl_stringEEEE
_ZN7android8hardware5radio10deprecated4V1_011BpHwOemHook20_hidl_sendRequestRawEPNS0_10IInterfaceEPNS0_7details16HidlInstrumentorEiRKNS0_8hidl_vecIhEE
_ZN7android8hardware5radio10deprecated4V1_011BpHwOemHook20setResponseFunctionsERKNS_2spINS3_16IOemHookResponseEEERKNS5_INS3_18IOemHookIndicationEEE
_ZN7android8hardware5radio10deprecated4V1_011BpHwOemHook21notifySyspropsChangedEv
_ZN7android8hardware5radio10deprecated4V1_011BpHwOemHook21setHALInstrumentationEv
_ZN7android8hardware5radio10deprecated4V1_011BpHwOemHook24_hidl_sendRequestStringsEPNS0_10IInterfaceEPNS0_7details16HidlInstrumentorEiRKNS0_8hidl_vecINS0_11hidl_stringEEE
_ZN7android8hardware5radio10deprecated4V1_011BpHwOemHook26_hidl_setResponseFunctionsEPNS0_10IInterfaceEPNS0_7details16HidlInstrumentorERKNS_2spINS3_16IOemHookResponseEEERKNSA_INS3_18IOemHookIndicationEEE
_ZN7android8hardware5radio10deprecated4V1_011BpHwOemHook4pingEv
_ZN7android8hardware5radio10deprecated4V1_011BpHwOemHook5debugERKNS0_11hidl_handleERKNS0_8hidl_vecINS0_11hidl_stringEEE
_ZN7android8hardware5radio10deprecated4V1_011BpHwOemHookC1ERKNS_2spINS0_7IBinderEEE
_ZN7android8hardware5radio10deprecated4V1_011BpHwOemHookC2ERKNS_2spINS0_7IBinderEEE
_ZN7android8hardware5radio10deprecated4V1_016IOemHookResponse10descriptorE
_ZN7android8hardware5radio10deprecated4V1_016IOemHookResponse10getServiceERKNSt3__112basic_stringIcNS5_11char_traitsIcEENS5_9allocatorIcEEEEb
_ZN7android8hardware5radio10deprecated4V1_016IOemHookResponse11linkToDeathERKNS_2spINS0_20hidl_death_recipientEEEy
_ZN7android8hardware5radio10deprecated4V1_016IOemHookResponse12getDebugInfoENSt3__18functionIFvRKNS_4hidl4base4V1_09DebugInfoEEEE
_ZN7android8hardware5radio10deprecated4V1_016IOemHookResponse12getHashChainENSt3__18functionIFvRKNS0_8hidl_vecINS0_10hidl_arrayIhLj32EJEEEEEEEE
_ZN7android8hardware5radio10deprecated4V1_016IOemHookResponse13tryGetServiceERKNSt3__112basic_stringIcNS5_11char_traitsIcEENS5_9allocatorIcEEEEb
_ZN7android8hardware5radio10deprecated4V1_016IOemHookResponse13unlinkToDeathERKNS_2spINS0_20hidl_death_recipientEEE
_ZN7android8hardware5radio10deprecated4V1_016IOemHookResponse14interfaceChainENSt3__18functionIFvRKNS0_8hidl_vecINS0_11hidl_stringEEEEEE
_ZN7android8hardware5radio10deprecated4V1_016IOemHookResponse17registerAsServiceERKNSt3__112basic_stringIcNS5_11char_traitsIcEENS5_9allocatorIcEEEE
_ZN7android8hardware5radio10deprecated4V1_016IOemHookResponse19interfaceDescriptorENSt3__18functionIFvRKNS0_11hidl_stringEEEE
_ZN7android8hardware5radio10deprecated4V1_016IOemHookResponse21notifySyspropsChangedEv
_ZN7android8hardware5radio10deprecated4V1_016IOemHookResponse21setHALInstrumentationEv
_ZN7android8hardware5radio10deprecated4V1_016IOemHookResponse24registerForNotificationsERKNSt3__112basic_stringIcNS5_11char_traitsIcEENS5_9allocatorIcEEEERKNS_2spINS_4hidl7manager4V1_020IServiceNotificationEEE
_ZN7android8hardware5radio10deprecated4V1_016IOemHookResponse4pingEv
_ZN7android8hardware5radio10deprecated4V1_016IOemHookResponse5debugERKNS0_11hidl_handleERKNS0_8hidl_vecINS0_11hidl_stringEEE
_ZN7android8hardware5radio10deprecated4V1_016IOemHookResponse8castFromERKNS_2spINS_4hidl4base4V1_05IBaseEEEb
_ZN7android8hardware5radio10deprecated4V1_016IOemHookResponse8castFromERKNS_2spIS4_EEb
_ZN7android8hardware5radio10deprecated4V1_017BsOemHookResponse13addOnewayTaskENSt3__18functionIFvvEEE
_ZN7android8hardware5radio10deprecated4V1_017BsOemHookResponseC1ENS_2spINS3_16IOemHookResponseEEE
_ZN7android8hardware5radio10deprecated4V1_017BsOemHookResponseC2ENS_2spINS3_16IOemHookResponseEEE
_ZN7android8hardware5radio10deprecated4V1_018IOemHookIndication10descriptorE
_ZN7android8hardware5radio10deprecated4V1_018IOemHookIndication10getServiceERKNSt3__112basic_stringIcNS5_11char_traitsIcEENS5_9allocatorIcEEEEb
_ZN7android8hardware5radio10deprecated4V1_018IOemHookIndication11linkToDeathERKNS_2spINS0_20hidl_death_recipientEEEy
_ZN7android8hardware5radio10deprecated4V1_018IOemHookIndication12getDebugInfoENSt3__18functionIFvRKNS_4hidl4base4V1_09DebugInfoEEEE
_ZN7android8hardware5radio10deprecated4V1_018IOemHookIndication12getHashChainENSt3__18functionIFvRKNS0_8hidl_vecINS0_10hidl_arrayIhLj32EJEEEEEEEE
_ZN7android8hardware5radio10deprecated4V1_018IOemHookIndication13tryGetServiceERKNSt3__112basic_stringIcNS5_11char_traitsIcEENS5_9allocatorIcEEEEb
_ZN7android8hardware5radio10deprecated4V1_018IOemHookIndication13unlinkToDeathERKNS_2spINS0_20hidl_death_recipientEEE
_ZN7android8hardware5radio10deprecated4V1_018IOemHookIndication14interfaceChainENSt3__18functionIFvRKNS0_8hidl_vecINS0_11hidl_stringEEEEEE
_ZN7android8hardware5radio10deprecated4V1_018IOemHookIndication17registerAsServiceERKNSt3__112basic_stringIcNS5_11char_traitsIcEENS5_9allocatorIcEEEE
_ZN7android8hardware5radio10deprecated4V1_018IOemHookIndication19interfaceDescriptorENSt3__18functionIFvRKNS0_11hidl_stringEEEE
_ZN7android8hardware5radio10deprecated4V1_018IOemHookIndication21notifySyspropsChangedEv
_ZN7android8hardware5radio10deprecated4V1_018IOemHookIndication21setHALInstrumentationEv
_ZN7android8hardware5radio10deprecated4V1_018IOemHookIndication24registerForNotificationsERKNSt3__112basic_stringIcNS5_11char_traitsIcEENS5_9allocatorIcEEEERKNS_2spINS_4hidl7manager4V1_020IServiceNotificationEEE
_ZN7android8hardware5radio10deprecated4V1_018IOemHookIndication4pingEv
_ZN7android8hardware5radio10deprecated4V1_018IOemHookIndication5debugERKNS0_11hidl_handleERKNS0_8hidl_vecINS0_11hidl_stringEEE
_ZN7android8hardware5radio10deprecated4V1_018IOemHookIndication8castFromERKNS_2spINS_4hidl4base4V1_05IBaseEEEb
_ZN7android8hardware5radio10deprecated4V1_018IOemHookIndication8castFromERKNS_2spIS4_EEb
_ZN7android8hardware5radio10deprecated4V1_019BnHwOemHookResponse10onTransactEjRKNS0_6ParcelEPS5_jNSt3__18functionIFvRS5_EEE
_ZN7android8hardware5radio10deprecated4V1_019BnHwOemHookResponse12getDebugInfoENSt3__18functionIFvRKNS_4hidl4base4V1_09DebugInfoEEEE
_ZN7android8hardware5radio10deprecated4V1_019BnHwOemHookResponse28_hidl_sendRequestRawResponseEPNS_4hidl4base4V1_08BnHwBaseERKNS0_6ParcelEPSA_NSt3__18functionIFvRSA_EEE
_ZN7android8hardware5radio10deprecated4V1_019BnHwOemHookResponse32_hidl_sendRequestStringsResponseEPNS_4hidl4base4V1_08BnHwBaseERKNS0_6ParcelEPSA_NSt3__18functionIFvRSA_EEE
_ZN7android8hardware5radio10deprecated4V1_019BnHwOemHookResponse4pingEv
_ZN7android8hardware5radio10deprecated4V1_019BnHwOemHookResponseC1ERKNS_2spINS3_16IOemHookResponseEEE
_ZN7android8hardware5radio10deprecated4V1_019BnHwOemHookResponseC2ERKNS_2spINS3_16IOemHookResponseEEE
_ZN7android8hardware5radio10deprecated4V1_019BnHwOemHookResponseD0Ev
_ZN7android8hardware5radio10deprecated4V1_019BnHwOemHookResponseD1Ev
_ZN7android8hardware5radio10deprecated4V1_019BnHwOemHookResponseD2Ev
_ZN7android8hardware5radio10deprecated4V1_019BpHwOemHookResponse11linkToDeathERKNS_2spINS0_20hidl_death_recipientEEEy
_ZN7android8hardware5radio10deprecated4V1_019BpHwOemHookResponse12getDebugInfoENSt3__18functionIFvRKNS_4hidl4base4V1_09DebugInfoEEEE
_ZN7android8hardware5radio10deprecated4V1_019BpHwOemHookResponse12getHashChainENSt3__18functionIFvRKNS0_8hidl_vecINS0_10hidl_arrayIhLj32EJEEEEEEEE
_ZN7android8hardware5radio10deprecated4V1_019BpHwOemHookResponse13unlinkToDeathERKNS_2spINS0_20hidl_death_recipientEEE
_ZN7android8hardware5radio10deprecated4V1_019BpHwOemHookResponse14interfaceChainENSt3__18functionIFvRKNS0_8hidl_vecINS0_11hidl_stringEEEEEE
_ZN7android8hardware5radio10deprecated4V1_019BpHwOemHookResponse19interfaceDescriptorENSt3__18functionIFvRKNS0_11hidl_stringEEEE
_ZN7android8hardware5radio10deprecated4V1_019BpHwOemHookResponse21notifySyspropsChangedEv
_ZN7android8hardware5radio10deprecated4V1_019BpHwOemHookResponse21setHALInstrumentationEv
_ZN7android8hardware5radio10deprecated4V1_019BpHwOemHookResponse22sendRequestRawResponseERKNS1_4V1_017RadioResponseInfoERKNS0_8hidl_vecIhEE
_ZN7android8hardware5radio10deprecated4V1_019BpHwOemHookResponse26sendRequestStringsResponseERKNS1_4V1_017RadioResponseInfoERKNS0_8hidl_vecINS0_11hidl_stringEEE
_ZN7android8hardware5radio10deprecated4V1_019BpHwOemHookResponse28_hidl_sendRequestRawResponseEPNS0_10IInterfaceEPNS0_7details16HidlInstrumentorERKNS1_4V1_017RadioResponseInfoERKNS0_8hidl_vecIhEE
_ZN7android8hardware5radio10deprecated4V1_019BpHwOemHookResponse32_hidl_sendRequestStringsResponseEPNS0_10IInterfaceEPNS0_7details16HidlInstrumentorERKNS1_4V1_017RadioResponseInfoERKNS0_8hidl_vecINS0_11hidl_stringEEE
_ZN7android8hardware5radio10deprecated4V1_019BpHwOemHookResponse4pingEv
_ZN7android8hardware5radio10deprecated4V1_019BpHwOemHookResponse5debugERKNS0_11hidl_handleERKNS0_8hidl_vecINS0_11hidl_stringEEE
_ZN7android8hardware5radio10deprecated4V1_019BpHwOemHookResponseC1ERKNS_2spINS0_7IBinderEEE
_ZN7android8hardware5radio10deprecated4V1_019BpHwOemHookResponseC2ERKNS_2spINS0_7IBinderEEE
_ZN7android8hardware5radio10deprecated4V1_019BsOemHookIndication13addOnewayTaskENSt3__18functionIFvvEEE
_ZN7android8hardware5radio10deprecated4V1_019BsOemHookIndicationC1ENS_2spINS3_18IOemHookIndicationEEE
_ZN7android8hardware5radio10deprecated4V1_019BsOemHookIndicationC2ENS_2spINS3_18IOemHookIndicationEEE
_ZN7android8hardware5radio10deprecated4V1_021BnHwOemHookIndication10onTransactEjRKNS0_6ParcelEPS5_jNSt3__18functionIFvRS5_EEE
_ZN7android8hardware5radio10deprecated4V1_021BnHwOemHookIndication12getDebugInfoENSt3__18functionIFvRKNS_4hidl4base4V1_09DebugInfoEEEE
_ZN7android8hardware5radio10deprecated4V1_021BnHwOemHookIndication16_hidl_oemHookRawEPNS_4hidl4base4V1_08BnHwBaseERKNS0_6ParcelEPSA_NSt3__18functionIFvRSA_EEE
_ZN7android8hardware5radio10deprecated4V1_021BnHwOemHookIndication4pingEv
_ZN7android8hardware5radio10deprecated4V1_021BnHwOemHookIndicationC1ERKNS_2spINS3_18IOemHookIndicationEEE
_ZN7android8hardware5radio10deprecated4V1_021BnHwOemHookIndicationC2ERKNS_2spINS3_18IOemHookIndicationEEE
_ZN7android8hardware5radio10deprecated4V1_021BnHwOemHookIndicationD0Ev
_ZN7android8hardware5radio10deprecated4V1_021BnHwOemHookIndicationD1Ev
_ZN7android8hardware5radio10deprecated4V1_021BnHwOemHookIndicationD2Ev
_ZN7android8hardware5radio10deprecated4V1_021BpHwOemHookIndication10oemHookRawENS1_4V1_019RadioIndicationTypeERKNS0_8hidl_vecIhEE
_ZN7android8hardware5radio10deprecated4V1_021BpHwOemHookIndication11linkToDeathERKNS_2spINS0_20hidl_death_recipientEEEy
_ZN7android8hardware5radio10deprecated4V1_021BpHwOemHookIndication12getDebugInfoENSt3__18functionIFvRKNS_4hidl4base4V1_09DebugInfoEEEE
_ZN7android8hardware5radio10deprecated4V1_021BpHwOemHookIndication12getHashChainENSt3__18functionIFvRKNS0_8hidl_vecINS0_10hidl_arrayIhLj32EJEEEEEEEE
_ZN7android8hardware5radio10deprecated4V1_021BpHwOemHookIndication13unlinkToDeathERKNS_2spINS0_20hidl_death_recipientEEE
_ZN7android8hardware5radio10deprecated4V1_021BpHwOemHookIndication14interfaceChainENSt3__18functionIFvRKNS0_8hidl_vecINS0_11hidl_stringEEEEEE
_ZN7android8hardware5radio10deprecated4V1_021BpHwOemHookIndication16_hidl_oemHookRawEPNS0_10IInterfaceEPNS0_7details16HidlInstrumentorENS1_4V1_019RadioIndicationTypeERKNS0_8hidl_vecIhEE
_ZN7android8hardware5radio10deprecated4V1_021BpHwOemHookIndication19interfaceDescriptorENSt3__18functionIFvRKNS0_11hidl_stringEEEE
_ZN7android8hardware5radio10deprecated4V1_021BpHwOemHookIndication21notifySyspropsChangedEv
_ZN7android8hardware5radio10deprecated4V1_021BpHwOemHookIndication21setHALInstrumentationEv
_ZN7android8hardware5radio10deprecated4V1_021BpHwOemHookIndication4pingEv
_ZN7android8hardware5radio10deprecated4V1_021BpHwOemHookIndication5debugERKNS0_11hidl_handleERKNS0_8hidl_vecINS0_11hidl_stringEEE
_ZN7android8hardware5radio10deprecated4V1_021BpHwOemHookIndicationC1ERKNS_2spINS0_7IBinderEEE
_ZN7android8hardware5radio10deprecated4V1_021BpHwOemHookIndicationC2ERKNS_2spINS0_7IBinderEEE
_ZN7android8hardware5radio10deprecated4V1_08IOemHook10descriptorE
_ZN7android8hardware5radio10deprecated4V1_08IOemHook10getServiceERKNSt3__112basic_stringIcNS5_11char_traitsIcEENS5_9allocatorIcEEEEb
_ZN7android8hardware5radio10deprecated4V1_08IOemHook11linkToDeathERKNS_2spINS0_20hidl_death_recipientEEEy
_ZN7android8hardware5radio10deprecated4V1_08IOemHook12getDebugInfoENSt3__18functionIFvRKNS_4hidl4base4V1_09DebugInfoEEEE
_ZN7android8hardware5radio10deprecated4V1_08IOemHook12getHashChainENSt3__18functionIFvRKNS0_8hidl_vecINS0_10hidl_arrayIhLj32EJEEEEEEEE
_ZN7android8hardware5radio10deprecated4V1_08IOemHook13tryGetServiceERKNSt3__112basic_stringIcNS5_11char_traitsIcEENS5_9allocatorIcEEEEb
_ZN7android8hardware5radio10deprecated4V1_08IOemHook13unlinkToDeathERKNS_2spINS0_20hidl_death_recipientEEE
_ZN7android8hardware5radio10deprecated4V1_08IOemHook14interfaceChainENSt3__18functionIFvRKNS0_8hidl_vecINS0_11hidl_stringEEEEEE
_ZN7android8hardware5radio10deprecated4V1_08IOemHook17registerAsServiceERKNSt3__112basic_stringIcNS5_11char_traitsIcEENS5_9allocatorIcEEEE
_ZN7android8hardware5radio10deprecated4V1_08IOemHook19interfaceDescriptorENSt3__18functionIFvRKNS0_11hidl_stringEEEE
_ZN7android8hardware5radio10deprecated4V1_08IOemHook21notifySyspropsChangedEv
_ZN7android8hardware5radio10deprecated4V1_08IOemHook21setHALInstrumentationEv
_ZN7android8hardware5radio10deprecated4V1_08IOemHook24registerForNotificationsERKNSt3__112basic_stringIcNS5_11char_traitsIcEENS5_9allocatorIcEEEERKNS_2spINS_4hidl7manager4V1_020IServiceNotificationEEE
_ZN7android8hardware5radio10deprecated4V1_08IOemHook4pingEv
_ZN7android8hardware5radio10deprecated4V1_08IOemHook5debugERKNS0_11hidl_handleERKNS0_8hidl_vecINS0_11hidl_stringEEE
_ZN7android8hardware5radio10deprecated4V1_08IOemHook8castFromERKNS_2spINS_4hidl4base4V1_05IBaseEEEb
_ZN7android8hardware5radio10deprecated4V1_08IOemHook8castFromERKNS_2spIS4_EEb
_ZN7android8hardware5radio10deprecated4V1_09BsOemHook13addOnewayTaskENSt3__18functionIFvvEEE
_ZN7android8hardware5radio10deprecated4V1_09BsOemHookC1ENS_2spINS3_8IOemHookEEE
_ZN7android8hardware5radio10deprecated4V1_09BsOemHookC2ENS_2spINS3_8IOemHookEEE
_ZTCN7android8hardware5radio10deprecated4V1_011BnHwOemHookE0_NS0_7IBinderE
_ZTCN7android8hardware5radio10deprecated4V1_011BnHwOemHookE0_NS0_9BHwBinderE
_ZTCN7android8hardware5radio10deprecated4V1_011BnHwOemHookE0_NS_4hidl4base4V1_08BnHwBaseE
_ZTCN7android8hardware5radio10deprecated4V1_011BpHwOemHookE0_NS0_11BpInterfaceINS3_8IOemHookEEE
_ZTCN7android8hardware5radio10deprecated4V1_011BpHwOemHookE0_NS3_8IOemHookE
_ZTCN7android8hardware5radio10deprecated4V1_011BpHwOemHookE0_NS_4hidl4base4V1_05IBaseE
_ZTCN7android8hardware5radio10deprecated4V1_011BpHwOemHookE4_NS0_10IInterfaceE
_ZTCN7android8hardware5radio10deprecated4V1_011BpHwOemHookE8_NS0_11BpHwRefBaseE
_ZTCN7android8hardware5radio10deprecated4V1_016IOemHookResponseE0_NS_4hidl4base4V1_05IBaseE
_ZTCN7android8hardware5radio10deprecated4V1_018IOemHookIndicationE0_NS_4hidl4base4V1_05IBaseE
_ZTCN7android8hardware5radio10deprecated4V1_019BnHwOemHookResponseE0_NS0_7IBinderE
_ZTCN7android8hardware5radio10deprecated4V1_019BnHwOemHookResponseE0_NS0_9BHwBinderE
_ZTCN7android8hardware5radio10deprecated4V1_019BnHwOemHookResponseE0_NS_4hidl4base4V1_08BnHwBaseE
_ZTCN7android8hardware5radio10deprecated4V1_019BpHwOemHookResponseE0_NS0_11BpInterfaceINS3_16IOemHookResponseEEE
_ZTCN7android8hardware5radio10deprecated4V1_019BpHwOemHookResponseE0_NS3_16IOemHookResponseE
_ZTCN7android8hardware5radio10deprecated4V1_019BpHwOemHookResponseE0_NS_4hidl4base4V1_05IBaseE
_ZTCN7android8hardware5radio10deprecated4V1_019BpHwOemHookResponseE4_NS0_10IInterfaceE
_ZTCN7android8hardware5radio10deprecated4V1_019BpHwOemHookResponseE8_NS0_11BpHwRefBaseE
_ZTCN7android8hardware5radio10deprecated4V1_021BnHwOemHookIndicationE0_NS0_7IBinderE
_ZTCN7android8hardware5radio10deprecated4V1_021BnHwOemHookIndicationE0_NS0_9BHwBinderE
_ZTCN7android8hardware5radio10deprecated4V1_021BnHwOemHookIndicationE0_NS_4hidl4base4V1_08BnHwBaseE
_ZTCN7android8hardware5radio10deprecated4V1_021BpHwOemHookIndicationE0_NS0_11BpInterfaceINS3_18IOemHookIndicationEEE
_ZTCN7android8hardware5radio10deprecated4V1_021BpHwOemHookIndicationE0_NS3_18IOemHookIndicationE
_ZTCN7android8hardware5radio10deprecated4V1_021BpHwOemHookIndicationE0_NS_4hidl4base4V1_05IBaseE
_ZTCN7android8hardware5radio10deprecated4V1_021BpHwOemHookIndicationE4_NS0_10IInterfaceE
_ZTCN7android8hardware5radio10deprecated4V1_021BpHwOemHookIndicationE8_NS0_11BpHwRefBaseE
_ZTCN7android8hardware5radio10deprecated4V1_08IOemHookE0_NS_4hidl4base4V1_05IBaseE
_ZTTN7android8hardware5radio10deprecated4V1_011BnHwOemHookE
_ZTTN7android8hardware5radio10deprecated4V1_011BpHwOemHookE
_ZTTN7android8hardware5radio10deprecated4V1_016IOemHookResponseE
_ZTTN7android8hardware5radio10deprecated4V1_018IOemHookIndicationE
_ZTTN7android8hardware5radio10deprecated4V1_019BnHwOemHookResponseE
_ZTTN7android8hardware5radio10deprecated4V1_019BpHwOemHookResponseE
_ZTTN7android8hardware5radio10deprecated4V1_021BnHwOemHookIndicationE
_ZTTN7android8hardware5radio10deprecated4V1_021BpHwOemHookIndicationE
_ZTTN7android8hardware5radio10deprecated4V1_08IOemHookE
_ZTVN7android8hardware5radio10deprecated4V1_011BnHwOemHookE
_ZTVN7android8hardware5radio10deprecated4V1_011BpHwOemHookE
_ZTVN7android8hardware5radio10deprecated4V1_016IOemHookResponseE
_ZTVN7android8hardware5radio10deprecated4V1_018IOemHookIndicationE
_ZTVN7android8hardware5radio10deprecated4V1_019BnHwOemHookResponseE
_ZTVN7android8hardware5radio10deprecated4V1_019BpHwOemHookResponseE
_ZTVN7android8hardware5radio10deprecated4V1_021BnHwOemHookIndicationE
_ZTVN7android8hardware5radio10deprecated4V1_021BpHwOemHookIndicationE
_ZTVN7android8hardware5radio10deprecated4V1_08IOemHookE
_ZThn20_N7android8hardware5radio10deprecated4V1_011BnHwOemHookD0Ev
_ZThn20_N7android8hardware5radio10deprecated4V1_011BnHwOemHookD1Ev
_ZThn20_N7android8hardware5radio10deprecated4V1_019BnHwOemHookResponseD0Ev
_ZThn20_N7android8hardware5radio10deprecated4V1_019BnHwOemHookResponseD1Ev
_ZThn20_N7android8hardware5radio10deprecated4V1_021BnHwOemHookIndicationD0Ev
_ZThn20_N7android8hardware5radio10deprecated4V1_021BnHwOemHookIndicationD1Ev
_ZTv0_n12_N7android8hardware5radio10deprecated4V1_011BnHwOemHookD0Ev
_ZTv0_n12_N7android8hardware5radio10deprecated4V1_011BnHwOemHookD1Ev
_ZTv0_n12_N7android8hardware5radio10deprecated4V1_019BnHwOemHookResponseD0Ev
_ZTv0_n12_N7android8hardware5radio10deprecated4V1_019BnHwOemHookResponseD1Ev
_ZTv0_n12_N7android8hardware5radio10deprecated4V1_021BnHwOemHookIndicationD0Ev
_ZTv0_n12_N7android8hardware5radio10deprecated4V1_021BnHwOemHookIndicationD1Ev
