_ZN7android8hardware6health4V1_010BnHwHealth10_hidl_initEPNS_4hidl4base4V1_08BnHwBaseERKNS0_6ParcelEPS9_NSt3__18functionIFvRS9_EEE
_ZN7android8hardware6health4V1_010BnHwHealth10onTransactEjRKNS0_6ParcelEPS4_jNSt3__18functionIFvRS4_EEE
_ZN7android8hardware6health4V1_010BnHwHealth12_hidl_updateEPNS_4hidl4base4V1_08BnHwBaseERKNS0_6ParcelEPS9_NSt3__18functionIFvRS9_EEE
_ZN7android8hardware6health4V1_010BnHwHealth12getDebugInfoENSt3__18functionIFvRKNS_4hidl4base4V1_09DebugInfoEEEE
_ZN7android8hardware6health4V1_010BnHwHealth19_hidl_energyCounterEPNS_4hidl4base4V1_08BnHwBaseERKNS0_6ParcelEPS9_NSt3__18functionIFvRS9_EEE
_ZN7android8hardware6health4V1_010BnHwHealth4pingEv
_ZN7android8hardware6health4V1_010BnHwHealthC1ERKNS_2spINS2_7IHealthEEE
_ZN7android8hardware6health4V1_010BnHwHealthC2ERKNS_2spINS2_7IHealthEEE
_ZN7android8hardware6health4V1_010BnHwHealthD0Ev
_ZN7android8hardware6health4V1_010BnHwHealthD1Ev
_ZN7android8hardware6health4V1_010BnHwHealthD2Ev
_ZN7android8hardware6health4V1_010BpHwHealth10_hidl_initEPNS0_10IInterfaceEPNS0_7details16HidlInstrumentorERKNS2_12HealthConfigENSt3__18functionIFvSB_EEE
_ZN7android8hardware6health4V1_010BpHwHealth11linkToDeathERKNS_2spINS0_20hidl_death_recipientEEEy
_ZN7android8hardware6health4V1_010BpHwHealth12_hidl_updateEPNS0_10IInterfaceEPNS0_7details16HidlInstrumentorERKNS2_10HealthInfoENSt3__18functionIFvbSB_EEE
_ZN7android8hardware6health4V1_010BpHwHealth12getDebugInfoENSt3__18functionIFvRKNS_4hidl4base4V1_09DebugInfoEEEE
_ZN7android8hardware6health4V1_010BpHwHealth12getHashChainENSt3__18functionIFvRKNS0_8hidl_vecINS0_10hidl_arrayIhLj32EJEEEEEEEE
_ZN7android8hardware6health4V1_010BpHwHealth13energyCounterENSt3__18functionIFvNS2_6ResultExEEE
_ZN7android8hardware6health4V1_010BpHwHealth13unlinkToDeathERKNS_2spINS0_20hidl_death_recipientEEE
_ZN7android8hardware6health4V1_010BpHwHealth14interfaceChainENSt3__18functionIFvRKNS0_8hidl_vecINS0_11hidl_stringEEEEEE
_ZN7android8hardware6health4V1_010BpHwHealth19_hidl_energyCounterEPNS0_10IInterfaceEPNS0_7details16HidlInstrumentorENSt3__18functionIFvNS2_6ResultExEEE
_ZN7android8hardware6health4V1_010BpHwHealth19interfaceDescriptorENSt3__18functionIFvRKNS0_11hidl_stringEEEE
_ZN7android8hardware6health4V1_010BpHwHealth21notifySyspropsChangedEv
_ZN7android8hardware6health4V1_010BpHwHealth21setHALInstrumentationEv
_ZN7android8hardware6health4V1_010BpHwHealth4initERKNS2_12HealthConfigENSt3__18functionIFvS6_EEE
_ZN7android8hardware6health4V1_010BpHwHealth4pingEv
_ZN7android8hardware6health4V1_010BpHwHealth5debugERKNS0_11hidl_handleERKNS0_8hidl_vecINS0_11hidl_stringEEE
_ZN7android8hardware6health4V1_010BpHwHealth6updateERKNS2_10HealthInfoENSt3__18functionIFvbS6_EEE
_ZN7android8hardware6health4V1_010BpHwHealthC1ERKNS_2spINS0_7IBinderEEE
_ZN7android8hardware6health4V1_010BpHwHealthC2ERKNS_2spINS0_7IBinderEEE
_ZN7android8hardware6health4V1_021writeEmbeddedToParcelERKNS2_10HealthInfoEPNS0_6ParcelEjj
_ZN7android8hardware6health4V1_021writeEmbeddedToParcelERKNS2_12HealthConfigEPNS0_6ParcelEjj
_ZN7android8hardware6health4V1_022readEmbeddedFromParcelERKNS2_10HealthInfoERKNS0_6ParcelEjj
_ZN7android8hardware6health4V1_022readEmbeddedFromParcelERKNS2_12HealthConfigERKNS0_6ParcelEjj
_ZN7android8hardware6health4V1_07IHealth10descriptorE
_ZN7android8hardware6health4V1_07IHealth10getServiceERKNSt3__112basic_stringIcNS4_11char_traitsIcEENS4_9allocatorIcEEEEb
_ZN7android8hardware6health4V1_07IHealth11linkToDeathERKNS_2spINS0_20hidl_death_recipientEEEy
_ZN7android8hardware6health4V1_07IHealth12getDebugInfoENSt3__18functionIFvRKNS_4hidl4base4V1_09DebugInfoEEEE
_ZN7android8hardware6health4V1_07IHealth12getHashChainENSt3__18functionIFvRKNS0_8hidl_vecINS0_10hidl_arrayIhLj32EJEEEEEEEE
_ZN7android8hardware6health4V1_07IHealth13tryGetServiceERKNSt3__112basic_stringIcNS4_11char_traitsIcEENS4_9allocatorIcEEEEb
_ZN7android8hardware6health4V1_07IHealth13unlinkToDeathERKNS_2spINS0_20hidl_death_recipientEEE
_ZN7android8hardware6health4V1_07IHealth14interfaceChainENSt3__18functionIFvRKNS0_8hidl_vecINS0_11hidl_stringEEEEEE
_ZN7android8hardware6health4V1_07IHealth17registerAsServiceERKNSt3__112basic_stringIcNS4_11char_traitsIcEENS4_9allocatorIcEEEE
_ZN7android8hardware6health4V1_07IHealth19interfaceDescriptorENSt3__18functionIFvRKNS0_11hidl_stringEEEE
_ZN7android8hardware6health4V1_07IHealth21notifySyspropsChangedEv
_ZN7android8hardware6health4V1_07IHealth21setHALInstrumentationEv
_ZN7android8hardware6health4V1_07IHealth24registerForNotificationsERKNSt3__112basic_stringIcNS4_11char_traitsIcEENS4_9allocatorIcEEEERKNS_2spINS_4hidl7manager4V1_020IServiceNotificationEEE
_ZN7android8hardware6health4V1_07IHealth4pingEv
_ZN7android8hardware6health4V1_07IHealth5debugERKNS0_11hidl_handleERKNS0_8hidl_vecINS0_11hidl_stringEEE
_ZN7android8hardware6health4V1_07IHealth8castFromERKNS_2spINS_4hidl4base4V1_05IBaseEEEb
_ZN7android8hardware6health4V1_07IHealth8castFromERKNS_2spIS3_EEb
_ZN7android8hardware6health4V1_08BsHealth13addOnewayTaskENSt3__18functionIFvvEEE
_ZN7android8hardware6health4V1_08BsHealthC1ENS_2spINS2_7IHealthEEE
_ZN7android8hardware6health4V1_08BsHealthC2ENS_2spINS2_7IHealthEEE
_ZTCN7android8hardware6health4V1_010BnHwHealthE0_NS0_7IBinderE
_ZTCN7android8hardware6health4V1_010BnHwHealthE0_NS0_9BHwBinderE
_ZTCN7android8hardware6health4V1_010BnHwHealthE0_NS_4hidl4base4V1_08BnHwBaseE
_ZTCN7android8hardware6health4V1_010BpHwHealthE0_NS0_11BpInterfaceINS2_7IHealthEEE
_ZTCN7android8hardware6health4V1_010BpHwHealthE0_NS2_7IHealthE
_ZTCN7android8hardware6health4V1_010BpHwHealthE0_NS_4hidl4base4V1_05IBaseE
_ZTCN7android8hardware6health4V1_010BpHwHealthE4_NS0_10IInterfaceE
_ZTCN7android8hardware6health4V1_010BpHwHealthE8_NS0_11BpHwRefBaseE
_ZTCN7android8hardware6health4V1_07IHealthE0_NS_4hidl4base4V1_05IBaseE
_ZTTN7android8hardware6health4V1_010BnHwHealthE
_ZTTN7android8hardware6health4V1_010BpHwHealthE
_ZTTN7android8hardware6health4V1_07IHealthE
_ZTVN7android8hardware6health4V1_010BnHwHealthE
_ZTVN7android8hardware6health4V1_010BpHwHealthE
_ZTVN7android8hardware6health4V1_07IHealthE
_ZThn20_N7android8hardware6health4V1_010BnHwHealthD0Ev
_ZThn20_N7android8hardware6health4V1_010BnHwHealthD1Ev
_ZTv0_n12_N7android8hardware6health4V1_010BnHwHealthD0Ev
_ZTv0_n12_N7android8hardware6health4V1_010BnHwHealthD1Ev
