_ZN7android8hardware5power4V1_021writeEmbeddedToParcelERKNS2_15PowerStateVoterEPNS0_6ParcelEjj
_ZN7android8hardware5power4V1_021writeEmbeddedToParcelERKNS2_28PowerStatePlatformSleepStateEPNS0_6ParcelEjj
_ZN7android8hardware5power4V1_022readEmbeddedFromParcelERKNS2_15PowerStateVoterERKNS0_6ParcelEjj
_ZN7android8hardware5power4V1_022readEmbeddedFromParcelERKNS2_28PowerStatePlatformSleepStateERKNS0_6ParcelEjj
_ZN7android8hardware5power4V1_06IPower10descriptorE
_ZN7android8hardware5power4V1_06IPower10getServiceERKNSt3__112basic_stringIcNS4_11char_traitsIcEENS4_9allocatorIcEEEEb
_ZN7android8hardware5power4V1_06IPower11linkToDeathERKNS_2spINS0_20hidl_death_recipientEEEy
_ZN7android8hardware5power4V1_06IPower12getDebugInfoENSt3__18functionIFvRKNS_4hidl4base4V1_09DebugInfoEEEE
_ZN7android8hardware5power4V1_06IPower12getHashChainENSt3__18functionIFvRKNS0_8hidl_vecINS0_10hidl_arrayIhLj32EJEEEEEEEE
_ZN7android8hardware5power4V1_06IPower13tryGetServiceERKNSt3__112basic_stringIcNS4_11char_traitsIcEENS4_9allocatorIcEEEEb
_ZN7android8hardware5power4V1_06IPower13unlinkToDeathERKNS_2spINS0_20hidl_death_recipientEEE
_ZN7android8hardware5power4V1_06IPower14interfaceChainENSt3__18functionIFvRKNS0_8hidl_vecINS0_11hidl_stringEEEEEE
_ZN7android8hardware5power4V1_06IPower17registerAsServiceERKNSt3__112basic_stringIcNS4_11char_traitsIcEENS4_9allocatorIcEEEE
_ZN7android8hardware5power4V1_06IPower19interfaceDescriptorENSt3__18functionIFvRKNS0_11hidl_stringEEEE
_ZN7android8hardware5power4V1_06IPower21notifySyspropsChangedEv
_ZN7android8hardware5power4V1_06IPower21setHALInstrumentationEv
_ZN7android8hardware5power4V1_06IPower24registerForNotificationsERKNSt3__112basic_stringIcNS4_11char_traitsIcEENS4_9allocatorIcEEEERKNS_2spINS_4hidl7manager4V1_020IServiceNotificationEEE
_ZN7android8hardware5power4V1_06IPower4pingEv
_ZN7android8hardware5power4V1_06IPower5debugERKNS0_11hidl_handleERKNS0_8hidl_vecINS0_11hidl_stringEEE
_ZN7android8hardware5power4V1_06IPower8castFromERKNS_2spINS_4hidl4base4V1_05IBaseEEEb
_ZN7android8hardware5power4V1_06IPower8castFromERKNS_2spIS3_EEb
_ZN7android8hardware5power4V1_07BsPower13addOnewayTaskENSt3__18functionIFvvEEE
_ZN7android8hardware5power4V1_07BsPowerC1ENS_2spINS2_6IPowerEEE
_ZN7android8hardware5power4V1_07BsPowerC2ENS_2spINS2_6IPowerEEE
_ZN7android8hardware5power4V1_09BnHwPower10onTransactEjRKNS0_6ParcelEPS4_jNSt3__18functionIFvRS4_EEE
_ZN7android8hardware5power4V1_09BnHwPower12getDebugInfoENSt3__18functionIFvRKNS_4hidl4base4V1_09DebugInfoEEEE
_ZN7android8hardware5power4V1_09BnHwPower15_hidl_powerHintEPNS_4hidl4base4V1_08BnHwBaseERKNS0_6ParcelEPS9_NSt3__18functionIFvRS9_EEE
_ZN7android8hardware5power4V1_09BnHwPower16_hidl_setFeatureEPNS_4hidl4base4V1_08BnHwBaseERKNS0_6ParcelEPS9_NSt3__18functionIFvRS9_EEE
_ZN7android8hardware5power4V1_09BnHwPower20_hidl_setInteractiveEPNS_4hidl4base4V1_08BnHwBaseERKNS0_6ParcelEPS9_NSt3__18functionIFvRS9_EEE
_ZN7android8hardware5power4V1_09BnHwPower30_hidl_getPlatformLowPowerStatsEPNS_4hidl4base4V1_08BnHwBaseERKNS0_6ParcelEPS9_NSt3__18functionIFvRS9_EEE
_ZN7android8hardware5power4V1_09BnHwPower4pingEv
_ZN7android8hardware5power4V1_09BnHwPowerC1ERKNS_2spINS2_6IPowerEEE
_ZN7android8hardware5power4V1_09BnHwPowerC2ERKNS_2spINS2_6IPowerEEE
_ZN7android8hardware5power4V1_09BnHwPowerD0Ev
_ZN7android8hardware5power4V1_09BnHwPowerD1Ev
_ZN7android8hardware5power4V1_09BnHwPowerD2Ev
_ZN7android8hardware5power4V1_09BpHwPower10setFeatureENS2_7FeatureEb
_ZN7android8hardware5power4V1_09BpHwPower11linkToDeathERKNS_2spINS0_20hidl_death_recipientEEEy
_ZN7android8hardware5power4V1_09BpHwPower12getDebugInfoENSt3__18functionIFvRKNS_4hidl4base4V1_09DebugInfoEEEE
_ZN7android8hardware5power4V1_09BpHwPower12getHashChainENSt3__18functionIFvRKNS0_8hidl_vecINS0_10hidl_arrayIhLj32EJEEEEEEEE
_ZN7android8hardware5power4V1_09BpHwPower13unlinkToDeathERKNS_2spINS0_20hidl_death_recipientEEE
_ZN7android8hardware5power4V1_09BpHwPower14interfaceChainENSt3__18functionIFvRKNS0_8hidl_vecINS0_11hidl_stringEEEEEE
_ZN7android8hardware5power4V1_09BpHwPower14setInteractiveEb
_ZN7android8hardware5power4V1_09BpHwPower15_hidl_powerHintEPNS0_10IInterfaceEPNS0_7details16HidlInstrumentorENS2_9PowerHintEi
_ZN7android8hardware5power4V1_09BpHwPower16_hidl_setFeatureEPNS0_10IInterfaceEPNS0_7details16HidlInstrumentorENS2_7FeatureEb
_ZN7android8hardware5power4V1_09BpHwPower19interfaceDescriptorENSt3__18functionIFvRKNS0_11hidl_stringEEEE
_ZN7android8hardware5power4V1_09BpHwPower20_hidl_setInteractiveEPNS0_10IInterfaceEPNS0_7details16HidlInstrumentorEb
_ZN7android8hardware5power4V1_09BpHwPower21notifySyspropsChangedEv
_ZN7android8hardware5power4V1_09BpHwPower21setHALInstrumentationEv
_ZN7android8hardware5power4V1_09BpHwPower24getPlatformLowPowerStatsENSt3__18functionIFvRKNS0_8hidl_vecINS2_28PowerStatePlatformSleepStateEEENS2_6StatusEEEE
_ZN7android8hardware5power4V1_09BpHwPower30_hidl_getPlatformLowPowerStatsEPNS0_10IInterfaceEPNS0_7details16HidlInstrumentorENSt3__18functionIFvRKNS0_8hidl_vecINS2_28PowerStatePlatformSleepStateEEENS2_6StatusEEEE
_ZN7android8hardware5power4V1_09BpHwPower4pingEv
_ZN7android8hardware5power4V1_09BpHwPower5debugERKNS0_11hidl_handleERKNS0_8hidl_vecINS0_11hidl_stringEEE
_ZN7android8hardware5power4V1_09BpHwPower9powerHintENS2_9PowerHintEi
_ZN7android8hardware5power4V1_09BpHwPowerC1ERKNS_2spINS0_7IBinderEEE
_ZN7android8hardware5power4V1_09BpHwPowerC2ERKNS_2spINS0_7IBinderEEE
_ZTCN7android8hardware5power4V1_06IPowerE0_NS_4hidl4base4V1_05IBaseE
_ZTCN7android8hardware5power4V1_09BnHwPowerE0_NS0_7IBinderE
_ZTCN7android8hardware5power4V1_09BnHwPowerE0_NS0_9BHwBinderE
_ZTCN7android8hardware5power4V1_09BnHwPowerE0_NS_4hidl4base4V1_08BnHwBaseE
_ZTCN7android8hardware5power4V1_09BpHwPowerE0_NS0_11BpInterfaceINS2_6IPowerEEE
_ZTCN7android8hardware5power4V1_09BpHwPowerE0_NS2_6IPowerE
_ZTCN7android8hardware5power4V1_09BpHwPowerE0_NS_4hidl4base4V1_05IBaseE
_ZTCN7android8hardware5power4V1_09BpHwPowerE4_NS0_10IInterfaceE
_ZTCN7android8hardware5power4V1_09BpHwPowerE8_NS0_11BpHwRefBaseE
_ZTTN7android8hardware5power4V1_06IPowerE
_ZTTN7android8hardware5power4V1_09BnHwPowerE
_ZTTN7android8hardware5power4V1_09BpHwPowerE
_ZTVN7android8hardware5power4V1_06IPowerE
_ZTVN7android8hardware5power4V1_09BnHwPowerE
_ZTVN7android8hardware5power4V1_09BpHwPowerE
_ZThn20_N7android8hardware5power4V1_09BnHwPowerD0Ev
_ZThn20_N7android8hardware5power4V1_09BnHwPowerD1Ev
_ZTv0_n12_N7android8hardware5power4V1_09BnHwPowerD0Ev
_ZTv0_n12_N7android8hardware5power4V1_09BnHwPowerD1Ev
