vtable for android::hardware::authsecret::V1_0::BpHwAuthSecret
_ZTVN7android8hardware10authsecret4V1_014BpHwAuthSecretE: 18 entries
16    (int (*)(...)) _ZN7android8hardware10authsecret4V1_014BpHwAuthSecret14interfaceChainENSt3__18functionIFvRKNS0_8hidl_vecINS0_11hidl_stringEEEEEE
20    (int (*)(...)) _ZN7android8hardware10authsecret4V1_014BpHwAuthSecret5debugERKNS0_11hidl_handleERKNS0_8hidl_vecINS0_11hidl_stringEEE
24    (int (*)(...)) _ZN7android8hardware10authsecret4V1_014BpHwAuthSecret19interfaceDescriptorENSt3__18functionIFvRKNS0_11hidl_stringEEEE
28    (int (*)(...)) _ZN7android8hardware10authsecret4V1_014BpHwAuthSecret12getHashChainENSt3__18functionIFvRKNS0_8hidl_vecINS0_10hidl_arrayIhLj32EJEEEEEEEE
32    (int (*)(...)) _ZN7android8hardware10authsecret4V1_014BpHwAuthSecret21setHALInstrumentationEv
36    (int (*)(...)) _ZN7android8hardware10authsecret4V1_014BpHwAuthSecret11linkToDeathERKNS_2spINS0_20hidl_death_recipientEEEy
40    (int (*)(...)) _ZN7android8hardware10authsecret4V1_014BpHwAuthSecret4pingEv
44    (int (*)(...)) _ZN7android8hardware10authsecret4V1_014BpHwAuthSecret12getDebugInfoENSt3__18functionIFvRKNS_4hidl4base4V1_09DebugInfoEEEE
48    (int (*)(...)) _ZN7android8hardware10authsecret4V1_014BpHwAuthSecret21notifySyspropsChangedEv
52    (int (*)(...)) _ZN7android8hardware10authsecret4V1_014BpHwAuthSecret13unlinkToDeathERKNS_2spINS0_20hidl_death_recipientEEE
64    (int (*)(...)) _ZN7android8hardware10authsecret4V1_014BpHwAuthSecret21primaryUserCredentialERKNS0_8hidl_vecIhEE
116    (int (*)(...)) _ZN7android8hardware11BpHwRefBase10onFirstRefEv
120    (int (*)(...)) _ZN7android8hardware11BpHwRefBase15onLastStrongRefEPKv
124    (int (*)(...)) _ZN7android8hardware11BpHwRefBase20onIncStrongAttemptedEjPKv
180    (int (*)(...)) _ZTv0_n16_N7android8hardware11BpHwRefBase10onFirstRefEv
184    (int (*)(...)) _ZTv0_n20_N7android8hardware11BpHwRefBase15onLastStrongRefEPKv
188    (int (*)(...)) _ZTv0_n24_N7android8hardware11BpHwRefBase20onIncStrongAttemptedEjPKv
192    (int (*)(...)) _ZN7android7RefBase13onLastWeakRefEPKv


vtable for android::hardware::authsecret::V1_0::BnHwAuthSecret
_ZTVN7android8hardware10authsecret4V1_014BnHwAuthSecretE: 21 entries
12    (int (*)(...)) _ZN7android8hardware9BHwBinder8transactEjRKNS0_6ParcelEPS2_jNSt3__18functionIFvRS2_EEE
16    (int (*)(...)) _ZN7android8hardware9BHwBinder11linkToDeathERKNS_2spINS0_7IBinder14DeathRecipientEEEPvj
20    (int (*)(...)) _ZN7android8hardware9BHwBinder13unlinkToDeathERKNS_2wpINS0_7IBinder14DeathRecipientEEEPvjPS5_
24    (int (*)(...)) _ZNK7android8hardware7IBinder13checkSubclassEPKv
28    (int (*)(...)) _ZN7android8hardware9BHwBinder12attachObjectEPKvPvS4_PFvS3_S4_S4_E
32    (int (*)(...)) _ZNK7android8hardware9BHwBinder10findObjectEPKv
36    (int (*)(...)) _ZN7android8hardware9BHwBinder12detachObjectEPKv
40    (int (*)(...)) _ZN7android8hardware9BHwBinder11localBinderEv
44    (int (*)(...)) _ZN7android8hardware7IBinder12remoteBinderEv
48    (int (*)(...)) _ZN7android8hardware10authsecret4V1_014BnHwAuthSecretD1Ev
52    (int (*)(...)) _ZN7android8hardware10authsecret4V1_014BnHwAuthSecretD0Ev
56    (int (*)(...)) _ZN7android8hardware10authsecret4V1_014BnHwAuthSecret10onTransactEjRKNS0_6ParcelEPS4_jNSt3__18functionIFvRS4_EEE
68    (int (*)(...)) _ZThn20_N7android8hardware10authsecret4V1_014BnHwAuthSecretD1Ev
72    (int (*)(...)) _ZThn20_N7android8hardware10authsecret4V1_014BnHwAuthSecretD0Ev
104    (int (*)(...)) _ZTv0_n12_N7android8hardware10authsecret4V1_014BnHwAuthSecretD1Ev
108    (int (*)(...)) _ZTv0_n12_N7android8hardware10authsecret4V1_014BnHwAuthSecretD0Ev
112    (int (*)(...)) _ZN7android7RefBase10onFirstRefEv
116    (int (*)(...)) _ZN7android7RefBase15onLastStrongRefEPKv
120    (int (*)(...)) _ZN7android7RefBase20onIncStrongAttemptedEjPKv
124    (int (*)(...)) _ZN7android7RefBase13onLastWeakRefEPKv
128    (int (*)(...)) _ZTVN7android8hardware10authsecret4V1_014BnHwAuthSecretE


vtable for android::hardware::authsecret::V1_0::IAuthSecret
_ZTVN7android8hardware10authsecret4V1_011IAuthSecretE: 15 entries
16    (int (*)(...)) _ZN7android8hardware10authsecret4V1_011IAuthSecret14interfaceChainENSt3__18functionIFvRKNS0_8hidl_vecINS0_11hidl_stringEEEEEE
20    (int (*)(...)) _ZN7android8hardware10authsecret4V1_011IAuthSecret5debugERKNS0_11hidl_handleERKNS0_8hidl_vecINS0_11hidl_stringEEE
24    (int (*)(...)) _ZN7android8hardware10authsecret4V1_011IAuthSecret19interfaceDescriptorENSt3__18functionIFvRKNS0_11hidl_stringEEEE
28    (int (*)(...)) _ZN7android8hardware10authsecret4V1_011IAuthSecret12getHashChainENSt3__18functionIFvRKNS0_8hidl_vecINS0_10hidl_arrayIhLj32EJEEEEEEEE
32    (int (*)(...)) _ZN7android8hardware10authsecret4V1_011IAuthSecret21setHALInstrumentationEv
36    (int (*)(...)) _ZN7android8hardware10authsecret4V1_011IAuthSecret11linkToDeathERKNS_2spINS0_20hidl_death_recipientEEEy
40    (int (*)(...)) _ZN7android8hardware10authsecret4V1_011IAuthSecret4pingEv
44    (int (*)(...)) _ZN7android8hardware10authsecret4V1_011IAuthSecret12getDebugInfoENSt3__18functionIFvRKNS_4hidl4base4V1_09DebugInfoEEEE
48    (int (*)(...)) _ZN7android8hardware10authsecret4V1_011IAuthSecret21notifySyspropsChangedEv
52    (int (*)(...)) _ZN7android8hardware10authsecret4V1_011IAuthSecret13unlinkToDeathERKNS_2spINS0_20hidl_death_recipientEEE
104    (int (*)(...)) _ZN7android7RefBase10onFirstRefEv
108    (int (*)(...)) _ZN7android7RefBase15onLastStrongRefEPKv
112    (int (*)(...)) _ZN7android7RefBase20onIncStrongAttemptedEjPKv
116    (int (*)(...)) _ZN7android7RefBase13onLastWeakRefEPKv
120    (int (*)(...)) _ZTVN7android8hardware10authsecret4V1_011IAuthSecretE
