vtable for android::hardware::cas::native::V1_0::BpHwDescrambler
_ZTVN7android8hardware3cas6native4V1_015BpHwDescramblerE: 22 entries
16    (int (*)(...)) _ZN7android8hardware3cas6native4V1_015BpHwDescrambler14interfaceChainENSt3__18functionIFvRKNS0_8hidl_vecINS0_11hidl_stringEEEEEE
20    (int (*)(...)) _ZN7android8hardware3cas6native4V1_015BpHwDescrambler5debugERKNS0_11hidl_handleERKNS0_8hidl_vecINS0_11hidl_stringEEE
24    (int (*)(...)) _ZN7android8hardware3cas6native4V1_015BpHwDescrambler19interfaceDescriptorENSt3__18functionIFvRKNS0_11hidl_stringEEEE
28    (int (*)(...)) _ZN7android8hardware3cas6native4V1_015BpHwDescrambler12getHashChainENSt3__18functionIFvRKNS0_8hidl_vecINS0_10hidl_arrayIhLj32EJEEEEEEEE
32    (int (*)(...)) _ZN7android8hardware3cas6native4V1_015BpHwDescrambler21setHALInstrumentationEv
36    (int (*)(...)) _ZN7android8hardware3cas6native4V1_015BpHwDescrambler11linkToDeathERKNS_2spINS0_20hidl_death_recipientEEEy
40    (int (*)(...)) _ZN7android8hardware3cas6native4V1_015BpHwDescrambler4pingEv
44    (int (*)(...)) _ZN7android8hardware3cas6native4V1_015BpHwDescrambler12getDebugInfoENSt3__18functionIFvRKNS_4hidl4base4V1_09DebugInfoEEEE
48    (int (*)(...)) _ZN7android8hardware3cas6native4V1_015BpHwDescrambler21notifySyspropsChangedEv
52    (int (*)(...)) _ZN7android8hardware3cas6native4V1_015BpHwDescrambler13unlinkToDeathERKNS_2spINS0_20hidl_death_recipientEEE
64    (int (*)(...)) _ZN7android8hardware3cas6native4V1_015BpHwDescrambler18setMediaCasSessionERKNS0_8hidl_vecIhEE
68    (int (*)(...)) _ZN7android8hardware3cas6native4V1_015BpHwDescrambler30requiresSecureDecoderComponentERKNS0_11hidl_stringE
72    (int (*)(...)) _ZN7android8hardware3cas6native4V1_015BpHwDescrambler7releaseEv
76    (int (*)(...)) _ZN7android8hardware3cas6native4V1_015BpHwDescrambler10descrambleENS3_17ScramblingControlERKNS0_8hidl_vecINS3_9SubSampleEEERKNS3_12SharedBufferEyRKNS3_17DestinationBufferEyNSt3__18functionIFvNS1_4V1_06StatusEjRKNS0_11hidl_stringEEEE
128    (int (*)(...)) _ZN7android8hardware11BpHwRefBase10onFirstRefEv
132    (int (*)(...)) _ZN7android8hardware11BpHwRefBase15onLastStrongRefEPKv
136    (int (*)(...)) _ZN7android8hardware11BpHwRefBase20onIncStrongAttemptedEjPKv
192    (int (*)(...)) _ZTv0_n16_N7android8hardware11BpHwRefBase10onFirstRefEv
196    (int (*)(...)) _ZTv0_n20_N7android8hardware11BpHwRefBase15onLastStrongRefEPKv
200    (int (*)(...)) _ZTv0_n24_N7android8hardware11BpHwRefBase20onIncStrongAttemptedEjPKv
204    (int (*)(...)) _ZN7android7RefBase13onLastWeakRefEPKv
208    (int (*)(...)) _ZTVN7android8hardware3cas6native4V1_015BpHwDescramblerE


vtable for android::hardware::cas::native::V1_0::BnHwDescrambler
_ZTVN7android8hardware3cas6native4V1_015BnHwDescramblerE: 20 entries
12    (int (*)(...)) _ZN7android8hardware9BHwBinder8transactEjRKNS0_6ParcelEPS2_jNSt3__18functionIFvRS2_EEE
16    (int (*)(...)) _ZN7android8hardware9BHwBinder11linkToDeathERKNS_2spINS0_7IBinder14DeathRecipientEEEPvj
20    (int (*)(...)) _ZN7android8hardware9BHwBinder13unlinkToDeathERKNS_2wpINS0_7IBinder14DeathRecipientEEEPvjPS5_
24    (int (*)(...)) _ZNK7android8hardware7IBinder13checkSubclassEPKv
28    (int (*)(...)) _ZN7android8hardware9BHwBinder12attachObjectEPKvPvS4_PFvS3_S4_S4_E
32    (int (*)(...)) _ZNK7android8hardware9BHwBinder10findObjectEPKv
36    (int (*)(...)) _ZN7android8hardware9BHwBinder12detachObjectEPKv
40    (int (*)(...)) _ZN7android8hardware9BHwBinder11localBinderEv
44    (int (*)(...)) _ZN7android8hardware7IBinder12remoteBinderEv
48    (int (*)(...)) _ZN7android8hardware3cas6native4V1_015BnHwDescramblerD1Ev
52    (int (*)(...)) _ZN7android8hardware3cas6native4V1_015BnHwDescramblerD0Ev
56    (int (*)(...)) _ZN7android8hardware3cas6native4V1_015BnHwDescrambler10onTransactEjRKNS0_6ParcelEPS5_jNSt3__18functionIFvRS5_EEE
68    (int (*)(...)) _ZThn20_N7android8hardware3cas6native4V1_015BnHwDescramblerD1Ev
72    (int (*)(...)) _ZThn20_N7android8hardware3cas6native4V1_015BnHwDescramblerD0Ev
104    (int (*)(...)) _ZTv0_n12_N7android8hardware3cas6native4V1_015BnHwDescramblerD1Ev
108    (int (*)(...)) _ZTv0_n12_N7android8hardware3cas6native4V1_015BnHwDescramblerD0Ev
112    (int (*)(...)) _ZN7android7RefBase10onFirstRefEv
116    (int (*)(...)) _ZN7android7RefBase15onLastStrongRefEPKv
120    (int (*)(...)) _ZN7android7RefBase20onIncStrongAttemptedEjPKv
124    (int (*)(...)) _ZN7android7RefBase13onLastWeakRefEPKv


vtable for android::hardware::cas::native::V1_0::IDescrambler
_ZTVN7android8hardware3cas6native4V1_012IDescramblerE: 14 entries
16    (int (*)(...)) _ZN7android8hardware3cas6native4V1_012IDescrambler14interfaceChainENSt3__18functionIFvRKNS0_8hidl_vecINS0_11hidl_stringEEEEEE
20    (int (*)(...)) _ZN7android8hardware3cas6native4V1_012IDescrambler5debugERKNS0_11hidl_handleERKNS0_8hidl_vecINS0_11hidl_stringEEE
24    (int (*)(...)) _ZN7android8hardware3cas6native4V1_012IDescrambler19interfaceDescriptorENSt3__18functionIFvRKNS0_11hidl_stringEEEE
28    (int (*)(...)) _ZN7android8hardware3cas6native4V1_012IDescrambler12getHashChainENSt3__18functionIFvRKNS0_8hidl_vecINS0_10hidl_arrayIhLj32EJEEEEEEEE
32    (int (*)(...)) _ZN7android8hardware3cas6native4V1_012IDescrambler21setHALInstrumentationEv
36    (int (*)(...)) _ZN7android8hardware3cas6native4V1_012IDescrambler11linkToDeathERKNS_2spINS0_20hidl_death_recipientEEEy
40    (int (*)(...)) _ZN7android8hardware3cas6native4V1_012IDescrambler4pingEv
44    (int (*)(...)) _ZN7android8hardware3cas6native4V1_012IDescrambler12getDebugInfoENSt3__18functionIFvRKNS_4hidl4base4V1_09DebugInfoEEEE
48    (int (*)(...)) _ZN7android8hardware3cas6native4V1_012IDescrambler21notifySyspropsChangedEv
52    (int (*)(...)) _ZN7android8hardware3cas6native4V1_012IDescrambler13unlinkToDeathERKNS_2spINS0_20hidl_death_recipientEEE
116    (int (*)(...)) _ZN7android7RefBase10onFirstRefEv
120    (int (*)(...)) _ZN7android7RefBase15onLastStrongRefEPKv
124    (int (*)(...)) _ZN7android7RefBase20onIncStrongAttemptedEjPKv
128    (int (*)(...)) _ZN7android7RefBase13onLastWeakRefEPKv
