_ZN7android8hardware9keymaster4V4_016IKeymasterDevice10descriptorE
_ZN7android8hardware9keymaster4V4_016IKeymasterDevice10getServiceERKNSt3__112basic_stringIcNS4_11char_traitsIcEENS4_9allocatorIcEEEEb
_ZN7android8hardware9keymaster4V4_016IKeymasterDevice11linkToDeathERKNS_2spINS0_20hidl_death_recipientEEEy
_ZN7android8hardware9keymaster4V4_016IKeymasterDevice12getDebugInfoENSt3__18functionIFvRKNS_4hidl4base4V1_09DebugInfoEEEE
_ZN7android8hardware9keymaster4V4_016IKeymasterDevice12getHashChainENSt3__18functionIFvRKNS0_8hidl_vecINS0_10hidl_arrayIhLj32EJEEEEEEEE
_ZN7android8hardware9keymaster4V4_016IKeymasterDevice13tryGetServiceERKNSt3__112basic_stringIcNS4_11char_traitsIcEENS4_9allocatorIcEEEEb
_ZN7android8hardware9keymaster4V4_016IKeymasterDevice13unlinkToDeathERKNS_2spINS0_20hidl_death_recipientEEE
_ZN7android8hardware9keymaster4V4_016IKeymasterDevice14interfaceChainENSt3__18functionIFvRKNS0_8hidl_vecINS0_11hidl_stringEEEEEE
_ZN7android8hardware9keymaster4V4_016IKeymasterDevice17registerAsServiceERKNSt3__112basic_stringIcNS4_11char_traitsIcEENS4_9allocatorIcEEEE
_ZN7android8hardware9keymaster4V4_016IKeymasterDevice19interfaceDescriptorENSt3__18functionIFvRKNS0_11hidl_stringEEEE
_ZN7android8hardware9keymaster4V4_016IKeymasterDevice21notifySyspropsChangedEv
_ZN7android8hardware9keymaster4V4_016IKeymasterDevice21setHALInstrumentationEv
_ZN7android8hardware9keymaster4V4_016IKeymasterDevice24registerForNotificationsERKNSt3__112basic_stringIcNS4_11char_traitsIcEENS4_9allocatorIcEEEERKNS_2spINS_4hidl7manager4V1_020IServiceNotificationEEE
_ZN7android8hardware9keymaster4V4_016IKeymasterDevice4pingEv
_ZN7android8hardware9keymaster4V4_016IKeymasterDevice5debugERKNS0_11hidl_handleERKNS0_8hidl_vecINS0_11hidl_stringEEE
_ZN7android8hardware9keymaster4V4_016IKeymasterDevice8castFromERKNS_2spINS_4hidl4base4V1_05IBaseEEEb
_ZN7android8hardware9keymaster4V4_016IKeymasterDevice8castFromERKNS_2spIS3_EEb
_ZN7android8hardware9keymaster4V4_017BsKeymasterDevice13addOnewayTaskENSt3__18functionIFvvEEE
_ZN7android8hardware9keymaster4V4_017BsKeymasterDeviceC1ENS_2spINS2_16IKeymasterDeviceEEE
_ZN7android8hardware9keymaster4V4_017BsKeymasterDeviceC2ENS_2spINS2_16IKeymasterDeviceEEE
_ZN7android8hardware9keymaster4V4_019BnHwKeymasterDevice10onTransactEjRKNS0_6ParcelEPS4_jNSt3__18functionIFvRS4_EEE
_ZN7android8hardware9keymaster4V4_019BnHwKeymasterDevice11_hidl_abortEPNS_4hidl4base4V1_08BnHwBaseERKNS0_6ParcelEPS9_NSt3__18functionIFvRS9_EEE
_ZN7android8hardware9keymaster4V4_019BnHwKeymasterDevice11_hidl_beginEPNS_4hidl4base4V1_08BnHwBaseERKNS0_6ParcelEPS9_NSt3__18functionIFvRS9_EEE
_ZN7android8hardware9keymaster4V4_019BnHwKeymasterDevice12_hidl_finishEPNS_4hidl4base4V1_08BnHwBaseERKNS0_6ParcelEPS9_NSt3__18functionIFvRS9_EEE
_ZN7android8hardware9keymaster4V4_019BnHwKeymasterDevice12_hidl_updateEPNS_4hidl4base4V1_08BnHwBaseERKNS0_6ParcelEPS9_NSt3__18functionIFvRS9_EEE
_ZN7android8hardware9keymaster4V4_019BnHwKeymasterDevice12getDebugInfoENSt3__18functionIFvRKNS_4hidl4base4V1_09DebugInfoEEEE
_ZN7android8hardware9keymaster4V4_019BnHwKeymasterDevice15_hidl_attestKeyEPNS_4hidl4base4V1_08BnHwBaseERKNS0_6ParcelEPS9_NSt3__18functionIFvRS9_EEE
_ZN7android8hardware9keymaster4V4_019BnHwKeymasterDevice15_hidl_deleteKeyEPNS_4hidl4base4V1_08BnHwBaseERKNS0_6ParcelEPS9_NSt3__18functionIFvRS9_EEE
_ZN7android8hardware9keymaster4V4_019BnHwKeymasterDevice15_hidl_exportKeyEPNS_4hidl4base4V1_08BnHwBaseERKNS0_6ParcelEPS9_NSt3__18functionIFvRS9_EEE
_ZN7android8hardware9keymaster4V4_019BnHwKeymasterDevice15_hidl_importKeyEPNS_4hidl4base4V1_08BnHwBaseERKNS0_6ParcelEPS9_NSt3__18functionIFvRS9_EEE
_ZN7android8hardware9keymaster4V4_019BnHwKeymasterDevice16_hidl_upgradeKeyEPNS_4hidl4base4V1_08BnHwBaseERKNS0_6ParcelEPS9_NSt3__18functionIFvRS9_EEE
_ZN7android8hardware9keymaster4V4_019BnHwKeymasterDevice17_hidl_generateKeyEPNS_4hidl4base4V1_08BnHwBaseERKNS0_6ParcelEPS9_NSt3__18functionIFvRS9_EEE
_ZN7android8hardware9keymaster4V4_019BnHwKeymasterDevice19_hidl_addRngEntropyEPNS_4hidl4base4V1_08BnHwBaseERKNS0_6ParcelEPS9_NSt3__18functionIFvRS9_EEE
_ZN7android8hardware9keymaster4V4_019BnHwKeymasterDevice19_hidl_deleteAllKeysEPNS_4hidl4base4V1_08BnHwBaseERKNS0_6ParcelEPS9_NSt3__18functionIFvRS9_EEE
_ZN7android8hardware9keymaster4V4_019BnHwKeymasterDevice21_hidl_getHardwareInfoEPNS_4hidl4base4V1_08BnHwBaseERKNS0_6ParcelEPS9_NSt3__18functionIFvRS9_EEE
_ZN7android8hardware9keymaster4V4_019BnHwKeymasterDevice22_hidl_importWrappedKeyEPNS_4hidl4base4V1_08BnHwBaseERKNS0_6ParcelEPS9_NSt3__18functionIFvRS9_EEE
_ZN7android8hardware9keymaster4V4_019BnHwKeymasterDevice23_hidl_computeSharedHmacEPNS_4hidl4base4V1_08BnHwBaseERKNS0_6ParcelEPS9_NSt3__18functionIFvRS9_EEE
_ZN7android8hardware9keymaster4V4_019BnHwKeymasterDevice25_hidl_verifyAuthorizationEPNS_4hidl4base4V1_08BnHwBaseERKNS0_6ParcelEPS9_NSt3__18functionIFvRS9_EEE
_ZN7android8hardware9keymaster4V4_019BnHwKeymasterDevice27_hidl_destroyAttestationIdsEPNS_4hidl4base4V1_08BnHwBaseERKNS0_6ParcelEPS9_NSt3__18functionIFvRS9_EEE
_ZN7android8hardware9keymaster4V4_019BnHwKeymasterDevice27_hidl_getKeyCharacteristicsEPNS_4hidl4base4V1_08BnHwBaseERKNS0_6ParcelEPS9_NSt3__18functionIFvRS9_EEE
_ZN7android8hardware9keymaster4V4_019BnHwKeymasterDevice30_hidl_getHmacSharingParametersEPNS_4hidl4base4V1_08BnHwBaseERKNS0_6ParcelEPS9_NSt3__18functionIFvRS9_EEE
_ZN7android8hardware9keymaster4V4_019BnHwKeymasterDevice4pingEv
_ZN7android8hardware9keymaster4V4_019BnHwKeymasterDeviceC1ERKNS_2spINS2_16IKeymasterDeviceEEE
_ZN7android8hardware9keymaster4V4_019BnHwKeymasterDeviceC2ERKNS_2spINS2_16IKeymasterDeviceEEE
_ZN7android8hardware9keymaster4V4_019BnHwKeymasterDeviceD0Ev
_ZN7android8hardware9keymaster4V4_019BnHwKeymasterDeviceD1Ev
_ZN7android8hardware9keymaster4V4_019BnHwKeymasterDeviceD2Ev
_ZN7android8hardware9keymaster4V4_019BpHwKeymasterDevice10upgradeKeyERKNS0_8hidl_vecIhEERKNS4_INS2_12KeyParameterEEENSt3__18functionIFvNS2_9ErrorCodeES7_EEE
_ZN7android8hardware9keymaster4V4_019BpHwKeymasterDevice11_hidl_abortEPNS0_10IInterfaceEPNS0_7details16HidlInstrumentorEy
_ZN7android8hardware9keymaster4V4_019BpHwKeymasterDevice11_hidl_beginEPNS0_10IInterfaceEPNS0_7details16HidlInstrumentorENS2_10KeyPurposeERKNS0_8hidl_vecIhEERKNSA_INS2_12KeyParameterEEERKNS2_17HardwareAuthTokenENSt3__18functionIFvNS2_9ErrorCodeESH_yEEE
_ZN7android8hardware9keymaster4V4_019BpHwKeymasterDevice11generateKeyERKNS0_8hidl_vecINS2_12KeyParameterEEENSt3__18functionIFvNS2_9ErrorCodeERKNS4_IhEERKNS2_18KeyCharacteristicsEEEE
_ZN7android8hardware9keymaster4V4_019BpHwKeymasterDevice11linkToDeathERKNS_2spINS0_20hidl_death_recipientEEEy
_ZN7android8hardware9keymaster4V4_019BpHwKeymasterDevice12_hidl_finishEPNS0_10IInterfaceEPNS0_7details16HidlInstrumentorEyRKNS0_8hidl_vecINS2_12KeyParameterEEERKNS9_IhEESG_RKNS2_17HardwareAuthTokenERKNS2_17VerificationTokenENSt3__18functionIFvNS2_9ErrorCodeESD_SG_EEE
_ZN7android8hardware9keymaster4V4_019BpHwKeymasterDevice12_hidl_updateEPNS0_10IInterfaceEPNS0_7details16HidlInstrumentorEyRKNS0_8hidl_vecINS2_12KeyParameterEEERKNS9_IhEERKNS2_17HardwareAuthTokenERKNS2_17VerificationTokenENSt3__18functionIFvNS2_9ErrorCodeEjSD_SG_EEE
_ZN7android8hardware9keymaster4V4_019BpHwKeymasterDevice12getDebugInfoENSt3__18functionIFvRKNS_4hidl4base4V1_09DebugInfoEEEE
_ZN7android8hardware9keymaster4V4_019BpHwKeymasterDevice12getHashChainENSt3__18functionIFvRKNS0_8hidl_vecINS0_10hidl_arrayIhLj32EJEEEEEEEE
_ZN7android8hardware9keymaster4V4_019BpHwKeymasterDevice13addRngEntropyERKNS0_8hidl_vecIhEE
_ZN7android8hardware9keymaster4V4_019BpHwKeymasterDevice13deleteAllKeysEv
_ZN7android8hardware9keymaster4V4_019BpHwKeymasterDevice13unlinkToDeathERKNS_2spINS0_20hidl_death_recipientEEE
_ZN7android8hardware9keymaster4V4_019BpHwKeymasterDevice14interfaceChainENSt3__18functionIFvRKNS0_8hidl_vecINS0_11hidl_stringEEEEEE
_ZN7android8hardware9keymaster4V4_019BpHwKeymasterDevice15_hidl_attestKeyEPNS0_10IInterfaceEPNS0_7details16HidlInstrumentorERKNS0_8hidl_vecIhEERKNS9_INS2_12KeyParameterEEENSt3__18functionIFvNS2_9ErrorCodeERKNS9_ISA_EEEEE
_ZN7android8hardware9keymaster4V4_019BpHwKeymasterDevice15_hidl_deleteKeyEPNS0_10IInterfaceEPNS0_7details16HidlInstrumentorERKNS0_8hidl_vecIhEE
_ZN7android8hardware9keymaster4V4_019BpHwKeymasterDevice15_hidl_exportKeyEPNS0_10IInterfaceEPNS0_7details16HidlInstrumentorENS2_9KeyFormatERKNS0_8hidl_vecIhEESD_SD_NSt3__18functionIFvNS2_9ErrorCodeESD_EEE
_ZN7android8hardware9keymaster4V4_019BpHwKeymasterDevice15_hidl_importKeyEPNS0_10IInterfaceEPNS0_7details16HidlInstrumentorERKNS0_8hidl_vecINS2_12KeyParameterEEENS2_9KeyFormatERKNS9_IhEENSt3__18functionIFvNS2_9ErrorCodeESH_RKNS2_18KeyCharacteristicsEEEE
_ZN7android8hardware9keymaster4V4_019BpHwKeymasterDevice15getHardwareInfoENSt3__18functionIFvNS2_13SecurityLevelERKNS0_11hidl_stringES9_EEE
_ZN7android8hardware9keymaster4V4_019BpHwKeymasterDevice16_hidl_upgradeKeyEPNS0_10IInterfaceEPNS0_7details16HidlInstrumentorERKNS0_8hidl_vecIhEERKNS9_INS2_12KeyParameterEEENSt3__18functionIFvNS2_9ErrorCodeESC_EEE
_ZN7android8hardware9keymaster4V4_019BpHwKeymasterDevice16importWrappedKeyERKNS0_8hidl_vecIhEES7_S7_RKNS4_INS2_12KeyParameterEEEyyNSt3__18functionIFvNS2_9ErrorCodeES7_RKNS2_18KeyCharacteristicsEEEE
_ZN7android8hardware9keymaster4V4_019BpHwKeymasterDevice17_hidl_generateKeyEPNS0_10IInterfaceEPNS0_7details16HidlInstrumentorERKNS0_8hidl_vecINS2_12KeyParameterEEENSt3__18functionIFvNS2_9ErrorCodeERKNS9_IhEERKNS2_18KeyCharacteristicsEEEE
_ZN7android8hardware9keymaster4V4_019BpHwKeymasterDevice17computeSharedHmacERKNS0_8hidl_vecINS2_21HmacSharingParametersEEENSt3__18functionIFvNS2_9ErrorCodeERKNS4_IhEEEEE
_ZN7android8hardware9keymaster4V4_019BpHwKeymasterDevice19_hidl_addRngEntropyEPNS0_10IInterfaceEPNS0_7details16HidlInstrumentorERKNS0_8hidl_vecIhEE
_ZN7android8hardware9keymaster4V4_019BpHwKeymasterDevice19_hidl_deleteAllKeysEPNS0_10IInterfaceEPNS0_7details16HidlInstrumentorE
_ZN7android8hardware9keymaster4V4_019BpHwKeymasterDevice19interfaceDescriptorENSt3__18functionIFvRKNS0_11hidl_stringEEEE
_ZN7android8hardware9keymaster4V4_019BpHwKeymasterDevice19verifyAuthorizationEyRKNS0_8hidl_vecINS2_12KeyParameterEEERKNS2_17HardwareAuthTokenENSt3__18functionIFvNS2_9ErrorCodeERKNS2_17VerificationTokenEEEE
_ZN7android8hardware9keymaster4V4_019BpHwKeymasterDevice21_hidl_getHardwareInfoEPNS0_10IInterfaceEPNS0_7details16HidlInstrumentorENSt3__18functionIFvNS2_13SecurityLevelERKNS0_11hidl_stringESE_EEE
_ZN7android8hardware9keymaster4V4_019BpHwKeymasterDevice21destroyAttestationIdsEv
_ZN7android8hardware9keymaster4V4_019BpHwKeymasterDevice21getKeyCharacteristicsERKNS0_8hidl_vecIhEES7_S7_NSt3__18functionIFvNS2_9ErrorCodeERKNS2_18KeyCharacteristicsEEEE
_ZN7android8hardware9keymaster4V4_019BpHwKeymasterDevice21notifySyspropsChangedEv
_ZN7android8hardware9keymaster4V4_019BpHwKeymasterDevice21setHALInstrumentationEv
_ZN7android8hardware9keymaster4V4_019BpHwKeymasterDevice22_hidl_importWrappedKeyEPNS0_10IInterfaceEPNS0_7details16HidlInstrumentorERKNS0_8hidl_vecIhEESC_SC_RKNS9_INS2_12KeyParameterEEEyyNSt3__18functionIFvNS2_9ErrorCodeESC_RKNS2_18KeyCharacteristicsEEEE
_ZN7android8hardware9keymaster4V4_019BpHwKeymasterDevice23_hidl_computeSharedHmacEPNS0_10IInterfaceEPNS0_7details16HidlInstrumentorERKNS0_8hidl_vecINS2_21HmacSharingParametersEEENSt3__18functionIFvNS2_9ErrorCodeERKNS9_IhEEEEE
_ZN7android8hardware9keymaster4V4_019BpHwKeymasterDevice24getHmacSharingParametersENSt3__18functionIFvNS2_9ErrorCodeERKNS2_21HmacSharingParametersEEEE
_ZN7android8hardware9keymaster4V4_019BpHwKeymasterDevice25_hidl_verifyAuthorizationEPNS0_10IInterfaceEPNS0_7details16HidlInstrumentorEyRKNS0_8hidl_vecINS2_12KeyParameterEEERKNS2_17HardwareAuthTokenENSt3__18functionIFvNS2_9ErrorCodeERKNS2_17VerificationTokenEEEE
_ZN7android8hardware9keymaster4V4_019BpHwKeymasterDevice27_hidl_destroyAttestationIdsEPNS0_10IInterfaceEPNS0_7details16HidlInstrumentorE
_ZN7android8hardware9keymaster4V4_019BpHwKeymasterDevice27_hidl_getKeyCharacteristicsEPNS0_10IInterfaceEPNS0_7details16HidlInstrumentorERKNS0_8hidl_vecIhEESC_SC_NSt3__18functionIFvNS2_9ErrorCodeERKNS2_18KeyCharacteristicsEEEE
_ZN7android8hardware9keymaster4V4_019BpHwKeymasterDevice30_hidl_getHmacSharingParametersEPNS0_10IInterfaceEPNS0_7details16HidlInstrumentorENSt3__18functionIFvNS2_9ErrorCodeERKNS2_21HmacSharingParametersEEEE
_ZN7android8hardware9keymaster4V4_019BpHwKeymasterDevice4pingEv
_ZN7android8hardware9keymaster4V4_019BpHwKeymasterDevice5abortEy
_ZN7android8hardware9keymaster4V4_019BpHwKeymasterDevice5beginENS2_10KeyPurposeERKNS0_8hidl_vecIhEERKNS5_INS2_12KeyParameterEEERKNS2_17HardwareAuthTokenENSt3__18functionIFvNS2_9ErrorCodeESC_yEEE
_ZN7android8hardware9keymaster4V4_019BpHwKeymasterDevice5debugERKNS0_11hidl_handleERKNS0_8hidl_vecINS0_11hidl_stringEEE
_ZN7android8hardware9keymaster4V4_019BpHwKeymasterDevice6finishEyRKNS0_8hidl_vecINS2_12KeyParameterEEERKNS4_IhEESB_RKNS2_17HardwareAuthTokenERKNS2_17VerificationTokenENSt3__18functionIFvNS2_9ErrorCodeES8_SB_EEE
_ZN7android8hardware9keymaster4V4_019BpHwKeymasterDevice6updateEyRKNS0_8hidl_vecINS2_12KeyParameterEEERKNS4_IhEERKNS2_17HardwareAuthTokenERKNS2_17VerificationTokenENSt3__18functionIFvNS2_9ErrorCodeEjS8_SB_EEE
_ZN7android8hardware9keymaster4V4_019BpHwKeymasterDevice9attestKeyERKNS0_8hidl_vecIhEERKNS4_INS2_12KeyParameterEEENSt3__18functionIFvNS2_9ErrorCodeERKNS4_IS5_EEEEE
_ZN7android8hardware9keymaster4V4_019BpHwKeymasterDevice9deleteKeyERKNS0_8hidl_vecIhEE
_ZN7android8hardware9keymaster4V4_019BpHwKeymasterDevice9exportKeyENS2_9KeyFormatERKNS0_8hidl_vecIhEES8_S8_NSt3__18functionIFvNS2_9ErrorCodeES8_EEE
_ZN7android8hardware9keymaster4V4_019BpHwKeymasterDevice9importKeyERKNS0_8hidl_vecINS2_12KeyParameterEEENS2_9KeyFormatERKNS4_IhEENSt3__18functionIFvNS2_9ErrorCodeESC_RKNS2_18KeyCharacteristicsEEEE
_ZN7android8hardware9keymaster4V4_019BpHwKeymasterDeviceC1ERKNS_2spINS0_7IBinderEEE
_ZN7android8hardware9keymaster4V4_019BpHwKeymasterDeviceC2ERKNS_2spINS0_7IBinderEEE
_ZN7android8hardware9keymaster4V4_021writeEmbeddedToParcelERKNS2_12KeyParameterEPNS0_6ParcelEjj
_ZN7android8hardware9keymaster4V4_021writeEmbeddedToParcelERKNS2_17HardwareAuthTokenEPNS0_6ParcelEjj
_ZN7android8hardware9keymaster4V4_021writeEmbeddedToParcelERKNS2_17VerificationTokenEPNS0_6ParcelEjj
_ZN7android8hardware9keymaster4V4_021writeEmbeddedToParcelERKNS2_18KeyCharacteristicsEPNS0_6ParcelEjj
_ZN7android8hardware9keymaster4V4_021writeEmbeddedToParcelERKNS2_21HmacSharingParametersEPNS0_6ParcelEjj
_ZN7android8hardware9keymaster4V4_022readEmbeddedFromParcelERKNS2_12KeyParameterERKNS0_6ParcelEjj
_ZN7android8hardware9keymaster4V4_022readEmbeddedFromParcelERKNS2_17HardwareAuthTokenERKNS0_6ParcelEjj
_ZN7android8hardware9keymaster4V4_022readEmbeddedFromParcelERKNS2_17VerificationTokenERKNS0_6ParcelEjj
_ZN7android8hardware9keymaster4V4_022readEmbeddedFromParcelERKNS2_18KeyCharacteristicsERKNS0_6ParcelEjj
_ZN7android8hardware9keymaster4V4_022readEmbeddedFromParcelERKNS2_21HmacSharingParametersERKNS0_6ParcelEjj
_ZTCN7android8hardware9keymaster4V4_016IKeymasterDeviceE0_NS_4hidl4base4V1_05IBaseE
_ZTCN7android8hardware9keymaster4V4_019BnHwKeymasterDeviceE0_NS0_7IBinderE
_ZTCN7android8hardware9keymaster4V4_019BnHwKeymasterDeviceE0_NS0_9BHwBinderE
_ZTCN7android8hardware9keymaster4V4_019BnHwKeymasterDeviceE0_NS_4hidl4base4V1_08BnHwBaseE
_ZTCN7android8hardware9keymaster4V4_019BpHwKeymasterDeviceE0_NS0_11BpInterfaceINS2_16IKeymasterDeviceEEE
_ZTCN7android8hardware9keymaster4V4_019BpHwKeymasterDeviceE0_NS2_16IKeymasterDeviceE
_ZTCN7android8hardware9keymaster4V4_019BpHwKeymasterDeviceE0_NS_4hidl4base4V1_05IBaseE
_ZTCN7android8hardware9keymaster4V4_019BpHwKeymasterDeviceE4_NS0_10IInterfaceE
_ZTCN7android8hardware9keymaster4V4_019BpHwKeymasterDeviceE8_NS0_11BpHwRefBaseE
_ZTTN7android8hardware9keymaster4V4_016IKeymasterDeviceE
_ZTTN7android8hardware9keymaster4V4_019BnHwKeymasterDeviceE
_ZTTN7android8hardware9keymaster4V4_019BpHwKeymasterDeviceE
_ZTVN7android8hardware9keymaster4V4_016IKeymasterDeviceE
_ZTVN7android8hardware9keymaster4V4_019BnHwKeymasterDeviceE
_ZTVN7android8hardware9keymaster4V4_019BpHwKeymasterDeviceE
_ZThn20_N7android8hardware9keymaster4V4_019BnHwKeymasterDeviceD0Ev
_ZThn20_N7android8hardware9keymaster4V4_019BnHwKeymasterDeviceD1Ev
_ZTv0_n12_N7android8hardware9keymaster4V4_019BnHwKeymasterDeviceD0Ev
_ZTv0_n12_N7android8hardware9keymaster4V4_019BnHwKeymasterDeviceD1Ev
