_ZN7android8hardware4gnss4V1_010BnHwGnssNi10onTransactEjRKNS0_6ParcelEPS4_jNSt3__18functionIFvRS4_EEE
_ZN7android8hardware4gnss4V1_010BnHwGnssNi12getDebugInfoENSt3__18functionIFvRKNS_4hidl4base4V1_09DebugInfoEEEE
_ZN7android8hardware4gnss4V1_010BnHwGnssNi13_hidl_respondEPNS_4hidl4base4V1_08BnHwBaseERKNS0_6ParcelEPS9_NSt3__18functionIFvRS9_EEE
_ZN7android8hardware4gnss4V1_010BnHwGnssNi17_hidl_setCallbackEPNS_4hidl4base4V1_08BnHwBaseERKNS0_6ParcelEPS9_NSt3__18functionIFvRS9_EEE
_ZN7android8hardware4gnss4V1_010BnHwGnssNi4pingEv
_ZN7android8hardware4gnss4V1_010BnHwGnssNiC1ERKNS_2spINS2_7IGnssNiEEE
_ZN7android8hardware4gnss4V1_010BnHwGnssNiC2ERKNS_2spINS2_7IGnssNiEEE
_ZN7android8hardware4gnss4V1_010BnHwGnssNiD0Ev
_ZN7android8hardware4gnss4V1_010BnHwGnssNiD1Ev
_ZN7android8hardware4gnss4V1_010BnHwGnssNiD2Ev
_ZN7android8hardware4gnss4V1_010BpHwGnssNi11linkToDeathERKNS_2spINS0_20hidl_death_recipientEEEy
_ZN7android8hardware4gnss4V1_010BpHwGnssNi11setCallbackERKNS_2spINS2_15IGnssNiCallbackEEE
_ZN7android8hardware4gnss4V1_010BpHwGnssNi12getDebugInfoENSt3__18functionIFvRKNS_4hidl4base4V1_09DebugInfoEEEE
_ZN7android8hardware4gnss4V1_010BpHwGnssNi12getHashChainENSt3__18functionIFvRKNS0_8hidl_vecINS0_10hidl_arrayIhLj32EJEEEEEEEE
_ZN7android8hardware4gnss4V1_010BpHwGnssNi13_hidl_respondEPNS0_10IInterfaceEPNS0_7details16HidlInstrumentorEiNS2_15IGnssNiCallback20GnssUserResponseTypeE
_ZN7android8hardware4gnss4V1_010BpHwGnssNi13unlinkToDeathERKNS_2spINS0_20hidl_death_recipientEEE
_ZN7android8hardware4gnss4V1_010BpHwGnssNi14interfaceChainENSt3__18functionIFvRKNS0_8hidl_vecINS0_11hidl_stringEEEEEE
_ZN7android8hardware4gnss4V1_010BpHwGnssNi17_hidl_setCallbackEPNS0_10IInterfaceEPNS0_7details16HidlInstrumentorERKNS_2spINS2_15IGnssNiCallbackEEE
_ZN7android8hardware4gnss4V1_010BpHwGnssNi19interfaceDescriptorENSt3__18functionIFvRKNS0_11hidl_stringEEEE
_ZN7android8hardware4gnss4V1_010BpHwGnssNi21notifySyspropsChangedEv
_ZN7android8hardware4gnss4V1_010BpHwGnssNi21setHALInstrumentationEv
_ZN7android8hardware4gnss4V1_010BpHwGnssNi4pingEv
_ZN7android8hardware4gnss4V1_010BpHwGnssNi5debugERKNS0_11hidl_handleERKNS0_8hidl_vecINS0_11hidl_stringEEE
_ZN7android8hardware4gnss4V1_010BpHwGnssNi7respondEiNS2_15IGnssNiCallback20GnssUserResponseTypeE
_ZN7android8hardware4gnss4V1_010BpHwGnssNiC1ERKNS_2spINS0_7IBinderEEE
_ZN7android8hardware4gnss4V1_010BpHwGnssNiC2ERKNS_2spINS0_7IBinderEEE
_ZN7android8hardware4gnss4V1_010BsAGnssRil13addOnewayTaskENSt3__18functionIFvvEEE
_ZN7android8hardware4gnss4V1_010BsAGnssRilC1ENS_2spINS2_9IAGnssRilEEE
_ZN7android8hardware4gnss4V1_010BsAGnssRilC2ENS_2spINS2_9IAGnssRilEEE
_ZN7android8hardware4gnss4V1_010BsGnssXtra13addOnewayTaskENSt3__18functionIFvvEEE
_ZN7android8hardware4gnss4V1_010BsGnssXtraC1ENS_2spINS2_9IGnssXtraEEE
_ZN7android8hardware4gnss4V1_010BsGnssXtraC2ENS_2spINS2_9IGnssXtraEEE
_ZN7android8hardware4gnss4V1_010IGnssDebug10descriptorE
_ZN7android8hardware4gnss4V1_010IGnssDebug10getServiceERKNSt3__112basic_stringIcNS4_11char_traitsIcEENS4_9allocatorIcEEEEb
_ZN7android8hardware4gnss4V1_010IGnssDebug11linkToDeathERKNS_2spINS0_20hidl_death_recipientEEEy
_ZN7android8hardware4gnss4V1_010IGnssDebug12getDebugInfoENSt3__18functionIFvRKNS_4hidl4base4V1_09DebugInfoEEEE
_ZN7android8hardware4gnss4V1_010IGnssDebug12getHashChainENSt3__18functionIFvRKNS0_8hidl_vecINS0_10hidl_arrayIhLj32EJEEEEEEEE
_ZN7android8hardware4gnss4V1_010IGnssDebug13tryGetServiceERKNSt3__112basic_stringIcNS4_11char_traitsIcEENS4_9allocatorIcEEEEb
_ZN7android8hardware4gnss4V1_010IGnssDebug13unlinkToDeathERKNS_2spINS0_20hidl_death_recipientEEE
_ZN7android8hardware4gnss4V1_010IGnssDebug14interfaceChainENSt3__18functionIFvRKNS0_8hidl_vecINS0_11hidl_stringEEEEEE
_ZN7android8hardware4gnss4V1_010IGnssDebug17registerAsServiceERKNSt3__112basic_stringIcNS4_11char_traitsIcEENS4_9allocatorIcEEEE
_ZN7android8hardware4gnss4V1_010IGnssDebug19interfaceDescriptorENSt3__18functionIFvRKNS0_11hidl_stringEEEE
_ZN7android8hardware4gnss4V1_010IGnssDebug21notifySyspropsChangedEv
_ZN7android8hardware4gnss4V1_010IGnssDebug21setHALInstrumentationEv
_ZN7android8hardware4gnss4V1_010IGnssDebug24registerForNotificationsERKNSt3__112basic_stringIcNS4_11char_traitsIcEENS4_9allocatorIcEEEERKNS_2spINS_4hidl7manager4V1_020IServiceNotificationEEE
_ZN7android8hardware4gnss4V1_010IGnssDebug4pingEv
_ZN7android8hardware4gnss4V1_010IGnssDebug5debugERKNS0_11hidl_handleERKNS0_8hidl_vecINS0_11hidl_stringEEE
_ZN7android8hardware4gnss4V1_010IGnssDebug8castFromERKNS_2spINS_4hidl4base4V1_05IBaseEEEb
_ZN7android8hardware4gnss4V1_010IGnssDebug8castFromERKNS_2spIS3_EEb
_ZN7android8hardware4gnss4V1_011BsGnssDebug13addOnewayTaskENSt3__18functionIFvvEEE
_ZN7android8hardware4gnss4V1_011BsGnssDebugC1ENS_2spINS2_10IGnssDebugEEE
_ZN7android8hardware4gnss4V1_011BsGnssDebugC2ENS_2spINS2_10IGnssDebugEEE
_ZN7android8hardware4gnss4V1_012BnHwAGnssRil10onTransactEjRKNS0_6ParcelEPS4_jNSt3__18functionIFvRS4_EEE
_ZN7android8hardware4gnss4V1_012BnHwAGnssRil12getDebugInfoENSt3__18functionIFvRKNS_4hidl4base4V1_09DebugInfoEEEE
_ZN7android8hardware4gnss4V1_012BnHwAGnssRil14_hidl_setSetIdEPNS_4hidl4base4V1_08BnHwBaseERKNS0_6ParcelEPS9_NSt3__18functionIFvRS9_EEE
_ZN7android8hardware4gnss4V1_012BnHwAGnssRil17_hidl_setCallbackEPNS_4hidl4base4V1_08BnHwBaseERKNS0_6ParcelEPS9_NSt3__18functionIFvRS9_EEE
_ZN7android8hardware4gnss4V1_012BnHwAGnssRil20_hidl_setRefLocationEPNS_4hidl4base4V1_08BnHwBaseERKNS0_6ParcelEPS9_NSt3__18functionIFvRS9_EEE
_ZN7android8hardware4gnss4V1_012BnHwAGnssRil24_hidl_updateNetworkStateEPNS_4hidl4base4V1_08BnHwBaseERKNS0_6ParcelEPS9_NSt3__18functionIFvRS9_EEE
_ZN7android8hardware4gnss4V1_012BnHwAGnssRil31_hidl_updateNetworkAvailabilityEPNS_4hidl4base4V1_08BnHwBaseERKNS0_6ParcelEPS9_NSt3__18functionIFvRS9_EEE
_ZN7android8hardware4gnss4V1_012BnHwAGnssRil4pingEv
_ZN7android8hardware4gnss4V1_012BnHwAGnssRilC1ERKNS_2spINS2_9IAGnssRilEEE
_ZN7android8hardware4gnss4V1_012BnHwAGnssRilC2ERKNS_2spINS2_9IAGnssRilEEE
_ZN7android8hardware4gnss4V1_012BnHwAGnssRilD0Ev
_ZN7android8hardware4gnss4V1_012BnHwAGnssRilD1Ev
_ZN7android8hardware4gnss4V1_012BnHwAGnssRilD2Ev
_ZN7android8hardware4gnss4V1_012BnHwGnssXtra10onTransactEjRKNS0_6ParcelEPS4_jNSt3__18functionIFvRS4_EEE
_ZN7android8hardware4gnss4V1_012BnHwGnssXtra12getDebugInfoENSt3__18functionIFvRKNS_4hidl4base4V1_09DebugInfoEEEE
_ZN7android8hardware4gnss4V1_012BnHwGnssXtra17_hidl_setCallbackEPNS_4hidl4base4V1_08BnHwBaseERKNS0_6ParcelEPS9_NSt3__18functionIFvRS9_EEE
_ZN7android8hardware4gnss4V1_012BnHwGnssXtra20_hidl_injectXtraDataEPNS_4hidl4base4V1_08BnHwBaseERKNS0_6ParcelEPS9_NSt3__18functionIFvRS9_EEE
_ZN7android8hardware4gnss4V1_012BnHwGnssXtra4pingEv
_ZN7android8hardware4gnss4V1_012BnHwGnssXtraC1ERKNS_2spINS2_9IGnssXtraEEE
_ZN7android8hardware4gnss4V1_012BnHwGnssXtraC2ERKNS_2spINS2_9IGnssXtraEEE
_ZN7android8hardware4gnss4V1_012BnHwGnssXtraD0Ev
_ZN7android8hardware4gnss4V1_012BnHwGnssXtraD1Ev
_ZN7android8hardware4gnss4V1_012BnHwGnssXtraD2Ev
_ZN7android8hardware4gnss4V1_012BpHwAGnssRil11linkToDeathERKNS_2spINS0_20hidl_death_recipientEEEy
_ZN7android8hardware4gnss4V1_012BpHwAGnssRil11setCallbackERKNS_2spINS2_17IAGnssRilCallbackEEE
_ZN7android8hardware4gnss4V1_012BpHwAGnssRil12getDebugInfoENSt3__18functionIFvRKNS_4hidl4base4V1_09DebugInfoEEEE
_ZN7android8hardware4gnss4V1_012BpHwAGnssRil12getHashChainENSt3__18functionIFvRKNS0_8hidl_vecINS0_10hidl_arrayIhLj32EJEEEEEEEE
_ZN7android8hardware4gnss4V1_012BpHwAGnssRil13unlinkToDeathERKNS_2spINS0_20hidl_death_recipientEEE
_ZN7android8hardware4gnss4V1_012BpHwAGnssRil14_hidl_setSetIdEPNS0_10IInterfaceEPNS0_7details16HidlInstrumentorENS2_9IAGnssRil9SetIDTypeERKNS0_11hidl_stringE
_ZN7android8hardware4gnss4V1_012BpHwAGnssRil14interfaceChainENSt3__18functionIFvRKNS0_8hidl_vecINS0_11hidl_stringEEEEEE
_ZN7android8hardware4gnss4V1_012BpHwAGnssRil14setRefLocationERKNS2_9IAGnssRil16AGnssRefLocationE
_ZN7android8hardware4gnss4V1_012BpHwAGnssRil17_hidl_setCallbackEPNS0_10IInterfaceEPNS0_7details16HidlInstrumentorERKNS_2spINS2_17IAGnssRilCallbackEEE
_ZN7android8hardware4gnss4V1_012BpHwAGnssRil18updateNetworkStateEbNS2_9IAGnssRil11NetworkTypeEb
_ZN7android8hardware4gnss4V1_012BpHwAGnssRil19interfaceDescriptorENSt3__18functionIFvRKNS0_11hidl_stringEEEE
_ZN7android8hardware4gnss4V1_012BpHwAGnssRil20_hidl_setRefLocationEPNS0_10IInterfaceEPNS0_7details16HidlInstrumentorERKNS2_9IAGnssRil16AGnssRefLocationE
_ZN7android8hardware4gnss4V1_012BpHwAGnssRil21notifySyspropsChangedEv
_ZN7android8hardware4gnss4V1_012BpHwAGnssRil21setHALInstrumentationEv
_ZN7android8hardware4gnss4V1_012BpHwAGnssRil24_hidl_updateNetworkStateEPNS0_10IInterfaceEPNS0_7details16HidlInstrumentorEbNS2_9IAGnssRil11NetworkTypeEb
_ZN7android8hardware4gnss4V1_012BpHwAGnssRil25updateNetworkAvailabilityEbRKNS0_11hidl_stringE
_ZN7android8hardware4gnss4V1_012BpHwAGnssRil31_hidl_updateNetworkAvailabilityEPNS0_10IInterfaceEPNS0_7details16HidlInstrumentorEbRKNS0_11hidl_stringE
_ZN7android8hardware4gnss4V1_012BpHwAGnssRil4pingEv
_ZN7android8hardware4gnss4V1_012BpHwAGnssRil5debugERKNS0_11hidl_handleERKNS0_8hidl_vecINS0_11hidl_stringEEE
_ZN7android8hardware4gnss4V1_012BpHwAGnssRil8setSetIdENS2_9IAGnssRil9SetIDTypeERKNS0_11hidl_stringE
_ZN7android8hardware4gnss4V1_012BpHwAGnssRilC1ERKNS_2spINS0_7IBinderEEE
_ZN7android8hardware4gnss4V1_012BpHwAGnssRilC2ERKNS_2spINS0_7IBinderEEE
_ZN7android8hardware4gnss4V1_012BpHwGnssXtra11linkToDeathERKNS_2spINS0_20hidl_death_recipientEEEy
_ZN7android8hardware4gnss4V1_012BpHwGnssXtra11setCallbackERKNS_2spINS2_17IGnssXtraCallbackEEE
_ZN7android8hardware4gnss4V1_012BpHwGnssXtra12getDebugInfoENSt3__18functionIFvRKNS_4hidl4base4V1_09DebugInfoEEEE
_ZN7android8hardware4gnss4V1_012BpHwGnssXtra12getHashChainENSt3__18functionIFvRKNS0_8hidl_vecINS0_10hidl_arrayIhLj32EJEEEEEEEE
_ZN7android8hardware4gnss4V1_012BpHwGnssXtra13unlinkToDeathERKNS_2spINS0_20hidl_death_recipientEEE
_ZN7android8hardware4gnss4V1_012BpHwGnssXtra14injectXtraDataERKNS0_11hidl_stringE
_ZN7android8hardware4gnss4V1_012BpHwGnssXtra14interfaceChainENSt3__18functionIFvRKNS0_8hidl_vecINS0_11hidl_stringEEEEEE
_ZN7android8hardware4gnss4V1_012BpHwGnssXtra17_hidl_setCallbackEPNS0_10IInterfaceEPNS0_7details16HidlInstrumentorERKNS_2spINS2_17IGnssXtraCallbackEEE
_ZN7android8hardware4gnss4V1_012BpHwGnssXtra19interfaceDescriptorENSt3__18functionIFvRKNS0_11hidl_stringEEEE
_ZN7android8hardware4gnss4V1_012BpHwGnssXtra20_hidl_injectXtraDataEPNS0_10IInterfaceEPNS0_7details16HidlInstrumentorERKNS0_11hidl_stringE
_ZN7android8hardware4gnss4V1_012BpHwGnssXtra21notifySyspropsChangedEv
_ZN7android8hardware4gnss4V1_012BpHwGnssXtra21setHALInstrumentationEv
_ZN7android8hardware4gnss4V1_012BpHwGnssXtra4pingEv
_ZN7android8hardware4gnss4V1_012BpHwGnssXtra5debugERKNS0_11hidl_handleERKNS0_8hidl_vecINS0_11hidl_stringEEE
_ZN7android8hardware4gnss4V1_012BpHwGnssXtraC1ERKNS_2spINS0_7IBinderEEE
_ZN7android8hardware4gnss4V1_012BpHwGnssXtraC2ERKNS_2spINS0_7IBinderEEE
_ZN7android8hardware4gnss4V1_013BnHwGnssDebug10onTransactEjRKNS0_6ParcelEPS4_jNSt3__18functionIFvRS4_EEE
_ZN7android8hardware4gnss4V1_013BnHwGnssDebug12getDebugInfoENSt3__18functionIFvRKNS_4hidl4base4V1_09DebugInfoEEEE
_ZN7android8hardware4gnss4V1_013BnHwGnssDebug18_hidl_getDebugDataEPNS_4hidl4base4V1_08BnHwBaseERKNS0_6ParcelEPS9_NSt3__18functionIFvRS9_EEE
_ZN7android8hardware4gnss4V1_013BnHwGnssDebug4pingEv
_ZN7android8hardware4gnss4V1_013BnHwGnssDebugC1ERKNS_2spINS2_10IGnssDebugEEE
_ZN7android8hardware4gnss4V1_013BnHwGnssDebugC2ERKNS_2spINS2_10IGnssDebugEEE
_ZN7android8hardware4gnss4V1_013BnHwGnssDebugD0Ev
_ZN7android8hardware4gnss4V1_013BnHwGnssDebugD1Ev
_ZN7android8hardware4gnss4V1_013BnHwGnssDebugD2Ev
_ZN7android8hardware4gnss4V1_013BpHwGnssDebug11linkToDeathERKNS_2spINS0_20hidl_death_recipientEEEy
_ZN7android8hardware4gnss4V1_013BpHwGnssDebug12getDebugDataENSt3__18functionIFvRKNS2_10IGnssDebug9DebugDataEEEE
_ZN7android8hardware4gnss4V1_013BpHwGnssDebug12getDebugInfoENSt3__18functionIFvRKNS_4hidl4base4V1_09DebugInfoEEEE
_ZN7android8hardware4gnss4V1_013BpHwGnssDebug12getHashChainENSt3__18functionIFvRKNS0_8hidl_vecINS0_10hidl_arrayIhLj32EJEEEEEEEE
_ZN7android8hardware4gnss4V1_013BpHwGnssDebug13unlinkToDeathERKNS_2spINS0_20hidl_death_recipientEEE
_ZN7android8hardware4gnss4V1_013BpHwGnssDebug14interfaceChainENSt3__18functionIFvRKNS0_8hidl_vecINS0_11hidl_stringEEEEEE
_ZN7android8hardware4gnss4V1_013BpHwGnssDebug18_hidl_getDebugDataEPNS0_10IInterfaceEPNS0_7details16HidlInstrumentorENSt3__18functionIFvRKNS2_10IGnssDebug9DebugDataEEEE
_ZN7android8hardware4gnss4V1_013BpHwGnssDebug19interfaceDescriptorENSt3__18functionIFvRKNS0_11hidl_stringEEEE
_ZN7android8hardware4gnss4V1_013BpHwGnssDebug21notifySyspropsChangedEv
_ZN7android8hardware4gnss4V1_013BpHwGnssDebug21setHALInstrumentationEv
_ZN7android8hardware4gnss4V1_013BpHwGnssDebug4pingEv
_ZN7android8hardware4gnss4V1_013BpHwGnssDebug5debugERKNS0_11hidl_handleERKNS0_8hidl_vecINS0_11hidl_stringEEE
_ZN7android8hardware4gnss4V1_013BpHwGnssDebugC1ERKNS_2spINS0_7IBinderEEE
_ZN7android8hardware4gnss4V1_013BpHwGnssDebugC2ERKNS_2spINS0_7IBinderEEE
_ZN7android8hardware4gnss4V1_013IGnssBatching10descriptorE
_ZN7android8hardware4gnss4V1_013IGnssBatching10getServiceERKNSt3__112basic_stringIcNS4_11char_traitsIcEENS4_9allocatorIcEEEEb
_ZN7android8hardware4gnss4V1_013IGnssBatching11linkToDeathERKNS_2spINS0_20hidl_death_recipientEEEy
_ZN7android8hardware4gnss4V1_013IGnssBatching12getDebugInfoENSt3__18functionIFvRKNS_4hidl4base4V1_09DebugInfoEEEE
_ZN7android8hardware4gnss4V1_013IGnssBatching12getHashChainENSt3__18functionIFvRKNS0_8hidl_vecINS0_10hidl_arrayIhLj32EJEEEEEEEE
_ZN7android8hardware4gnss4V1_013IGnssBatching13tryGetServiceERKNSt3__112basic_stringIcNS4_11char_traitsIcEENS4_9allocatorIcEEEEb
_ZN7android8hardware4gnss4V1_013IGnssBatching13unlinkToDeathERKNS_2spINS0_20hidl_death_recipientEEE
_ZN7android8hardware4gnss4V1_013IGnssBatching14interfaceChainENSt3__18functionIFvRKNS0_8hidl_vecINS0_11hidl_stringEEEEEE
_ZN7android8hardware4gnss4V1_013IGnssBatching17registerAsServiceERKNSt3__112basic_stringIcNS4_11char_traitsIcEENS4_9allocatorIcEEEE
_ZN7android8hardware4gnss4V1_013IGnssBatching19interfaceDescriptorENSt3__18functionIFvRKNS0_11hidl_stringEEEE
_ZN7android8hardware4gnss4V1_013IGnssBatching21notifySyspropsChangedEv
_ZN7android8hardware4gnss4V1_013IGnssBatching21setHALInstrumentationEv
_ZN7android8hardware4gnss4V1_013IGnssBatching24registerForNotificationsERKNSt3__112basic_stringIcNS4_11char_traitsIcEENS4_9allocatorIcEEEERKNS_2spINS_4hidl7manager4V1_020IServiceNotificationEEE
_ZN7android8hardware4gnss4V1_013IGnssBatching4pingEv
_ZN7android8hardware4gnss4V1_013IGnssBatching5debugERKNS0_11hidl_handleERKNS0_8hidl_vecINS0_11hidl_stringEEE
_ZN7android8hardware4gnss4V1_013IGnssBatching8castFromERKNS_2spINS_4hidl4base4V1_05IBaseEEEb
_ZN7android8hardware4gnss4V1_013IGnssBatching8castFromERKNS_2spIS3_EEb
_ZN7android8hardware4gnss4V1_013IGnssCallback10descriptorE
_ZN7android8hardware4gnss4V1_013IGnssCallback10getServiceERKNSt3__112basic_stringIcNS4_11char_traitsIcEENS4_9allocatorIcEEEEb
_ZN7android8hardware4gnss4V1_013IGnssCallback11linkToDeathERKNS_2spINS0_20hidl_death_recipientEEEy
_ZN7android8hardware4gnss4V1_013IGnssCallback12getDebugInfoENSt3__18functionIFvRKNS_4hidl4base4V1_09DebugInfoEEEE
_ZN7android8hardware4gnss4V1_013IGnssCallback12getHashChainENSt3__18functionIFvRKNS0_8hidl_vecINS0_10hidl_arrayIhLj32EJEEEEEEEE
_ZN7android8hardware4gnss4V1_013IGnssCallback13tryGetServiceERKNSt3__112basic_stringIcNS4_11char_traitsIcEENS4_9allocatorIcEEEEb
_ZN7android8hardware4gnss4V1_013IGnssCallback13unlinkToDeathERKNS_2spINS0_20hidl_death_recipientEEE
_ZN7android8hardware4gnss4V1_013IGnssCallback14interfaceChainENSt3__18functionIFvRKNS0_8hidl_vecINS0_11hidl_stringEEEEEE
_ZN7android8hardware4gnss4V1_013IGnssCallback17registerAsServiceERKNSt3__112basic_stringIcNS4_11char_traitsIcEENS4_9allocatorIcEEEE
_ZN7android8hardware4gnss4V1_013IGnssCallback19interfaceDescriptorENSt3__18functionIFvRKNS0_11hidl_stringEEEE
_ZN7android8hardware4gnss4V1_013IGnssCallback21notifySyspropsChangedEv
_ZN7android8hardware4gnss4V1_013IGnssCallback21setHALInstrumentationEv
_ZN7android8hardware4gnss4V1_013IGnssCallback24registerForNotificationsERKNSt3__112basic_stringIcNS4_11char_traitsIcEENS4_9allocatorIcEEEERKNS_2spINS_4hidl7manager4V1_020IServiceNotificationEEE
_ZN7android8hardware4gnss4V1_013IGnssCallback4pingEv
_ZN7android8hardware4gnss4V1_013IGnssCallback5debugERKNS0_11hidl_handleERKNS0_8hidl_vecINS0_11hidl_stringEEE
_ZN7android8hardware4gnss4V1_013IGnssCallback8castFromERKNS_2spINS_4hidl4base4V1_05IBaseEEEb
_ZN7android8hardware4gnss4V1_013IGnssCallback8castFromERKNS_2spIS3_EEb
_ZN7android8hardware4gnss4V1_014BsGnssBatching13addOnewayTaskENSt3__18functionIFvvEEE
_ZN7android8hardware4gnss4V1_014BsGnssBatchingC1ENS_2spINS2_13IGnssBatchingEEE
_ZN7android8hardware4gnss4V1_014BsGnssBatchingC2ENS_2spINS2_13IGnssBatchingEEE
_ZN7android8hardware4gnss4V1_014BsGnssCallback13addOnewayTaskENSt3__18functionIFvvEEE
_ZN7android8hardware4gnss4V1_014BsGnssCallbackC1ENS_2spINS2_13IGnssCallbackEEE
_ZN7android8hardware4gnss4V1_014BsGnssCallbackC2ENS_2spINS2_13IGnssCallbackEEE
_ZN7android8hardware4gnss4V1_014IAGnssCallback10descriptorE
_ZN7android8hardware4gnss4V1_014IAGnssCallback10getServiceERKNSt3__112basic_stringIcNS4_11char_traitsIcEENS4_9allocatorIcEEEEb
_ZN7android8hardware4gnss4V1_014IAGnssCallback11linkToDeathERKNS_2spINS0_20hidl_death_recipientEEEy
_ZN7android8hardware4gnss4V1_014IAGnssCallback12getDebugInfoENSt3__18functionIFvRKNS_4hidl4base4V1_09DebugInfoEEEE
_ZN7android8hardware4gnss4V1_014IAGnssCallback12getHashChainENSt3__18functionIFvRKNS0_8hidl_vecINS0_10hidl_arrayIhLj32EJEEEEEEEE
_ZN7android8hardware4gnss4V1_014IAGnssCallback13tryGetServiceERKNSt3__112basic_stringIcNS4_11char_traitsIcEENS4_9allocatorIcEEEEb
_ZN7android8hardware4gnss4V1_014IAGnssCallback13unlinkToDeathERKNS_2spINS0_20hidl_death_recipientEEE
_ZN7android8hardware4gnss4V1_014IAGnssCallback14interfaceChainENSt3__18functionIFvRKNS0_8hidl_vecINS0_11hidl_stringEEEEEE
_ZN7android8hardware4gnss4V1_014IAGnssCallback17registerAsServiceERKNSt3__112basic_stringIcNS4_11char_traitsIcEENS4_9allocatorIcEEEE
_ZN7android8hardware4gnss4V1_014IAGnssCallback19interfaceDescriptorENSt3__18functionIFvRKNS0_11hidl_stringEEEE
_ZN7android8hardware4gnss4V1_014IAGnssCallback21notifySyspropsChangedEv
_ZN7android8hardware4gnss4V1_014IAGnssCallback21setHALInstrumentationEv
_ZN7android8hardware4gnss4V1_014IAGnssCallback24registerForNotificationsERKNSt3__112basic_stringIcNS4_11char_traitsIcEENS4_9allocatorIcEEEERKNS_2spINS_4hidl7manager4V1_020IServiceNotificationEEE
_ZN7android8hardware4gnss4V1_014IAGnssCallback4pingEv
_ZN7android8hardware4gnss4V1_014IAGnssCallback5debugERKNS0_11hidl_handleERKNS0_8hidl_vecINS0_11hidl_stringEEE
_ZN7android8hardware4gnss4V1_014IAGnssCallback8castFromERKNS_2spINS_4hidl4base4V1_05IBaseEEEb
_ZN7android8hardware4gnss4V1_014IAGnssCallback8castFromERKNS_2spIS3_EEb
_ZN7android8hardware4gnss4V1_015BsAGnssCallback13addOnewayTaskENSt3__18functionIFvvEEE
_ZN7android8hardware4gnss4V1_015BsAGnssCallbackC1ENS_2spINS2_14IAGnssCallbackEEE
_ZN7android8hardware4gnss4V1_015BsAGnssCallbackC2ENS_2spINS2_14IAGnssCallbackEEE
_ZN7android8hardware4gnss4V1_015IGnssGeofencing10descriptorE
_ZN7android8hardware4gnss4V1_015IGnssGeofencing10getServiceERKNSt3__112basic_stringIcNS4_11char_traitsIcEENS4_9allocatorIcEEEEb
_ZN7android8hardware4gnss4V1_015IGnssGeofencing11linkToDeathERKNS_2spINS0_20hidl_death_recipientEEEy
_ZN7android8hardware4gnss4V1_015IGnssGeofencing12getDebugInfoENSt3__18functionIFvRKNS_4hidl4base4V1_09DebugInfoEEEE
_ZN7android8hardware4gnss4V1_015IGnssGeofencing12getHashChainENSt3__18functionIFvRKNS0_8hidl_vecINS0_10hidl_arrayIhLj32EJEEEEEEEE
_ZN7android8hardware4gnss4V1_015IGnssGeofencing13tryGetServiceERKNSt3__112basic_stringIcNS4_11char_traitsIcEENS4_9allocatorIcEEEEb
_ZN7android8hardware4gnss4V1_015IGnssGeofencing13unlinkToDeathERKNS_2spINS0_20hidl_death_recipientEEE
_ZN7android8hardware4gnss4V1_015IGnssGeofencing14interfaceChainENSt3__18functionIFvRKNS0_8hidl_vecINS0_11hidl_stringEEEEEE
_ZN7android8hardware4gnss4V1_015IGnssGeofencing17registerAsServiceERKNSt3__112basic_stringIcNS4_11char_traitsIcEENS4_9allocatorIcEEEE
_ZN7android8hardware4gnss4V1_015IGnssGeofencing19interfaceDescriptorENSt3__18functionIFvRKNS0_11hidl_stringEEEE
_ZN7android8hardware4gnss4V1_015IGnssGeofencing21notifySyspropsChangedEv
_ZN7android8hardware4gnss4V1_015IGnssGeofencing21setHALInstrumentationEv
_ZN7android8hardware4gnss4V1_015IGnssGeofencing24registerForNotificationsERKNSt3__112basic_stringIcNS4_11char_traitsIcEENS4_9allocatorIcEEEERKNS_2spINS_4hidl7manager4V1_020IServiceNotificationEEE
_ZN7android8hardware4gnss4V1_015IGnssGeofencing4pingEv
_ZN7android8hardware4gnss4V1_015IGnssGeofencing5debugERKNS0_11hidl_handleERKNS0_8hidl_vecINS0_11hidl_stringEEE
_ZN7android8hardware4gnss4V1_015IGnssGeofencing8castFromERKNS_2spINS_4hidl4base4V1_05IBaseEEEb
_ZN7android8hardware4gnss4V1_015IGnssGeofencing8castFromERKNS_2spIS3_EEb
_ZN7android8hardware4gnss4V1_015IGnssNiCallback10descriptorE
_ZN7android8hardware4gnss4V1_015IGnssNiCallback10getServiceERKNSt3__112basic_stringIcNS4_11char_traitsIcEENS4_9allocatorIcEEEEb
_ZN7android8hardware4gnss4V1_015IGnssNiCallback11linkToDeathERKNS_2spINS0_20hidl_death_recipientEEEy
_ZN7android8hardware4gnss4V1_015IGnssNiCallback12getDebugInfoENSt3__18functionIFvRKNS_4hidl4base4V1_09DebugInfoEEEE
_ZN7android8hardware4gnss4V1_015IGnssNiCallback12getHashChainENSt3__18functionIFvRKNS0_8hidl_vecINS0_10hidl_arrayIhLj32EJEEEEEEEE
_ZN7android8hardware4gnss4V1_015IGnssNiCallback13tryGetServiceERKNSt3__112basic_stringIcNS4_11char_traitsIcEENS4_9allocatorIcEEEEb
_ZN7android8hardware4gnss4V1_015IGnssNiCallback13unlinkToDeathERKNS_2spINS0_20hidl_death_recipientEEE
_ZN7android8hardware4gnss4V1_015IGnssNiCallback14interfaceChainENSt3__18functionIFvRKNS0_8hidl_vecINS0_11hidl_stringEEEEEE
_ZN7android8hardware4gnss4V1_015IGnssNiCallback17registerAsServiceERKNSt3__112basic_stringIcNS4_11char_traitsIcEENS4_9allocatorIcEEEE
_ZN7android8hardware4gnss4V1_015IGnssNiCallback19interfaceDescriptorENSt3__18functionIFvRKNS0_11hidl_stringEEEE
_ZN7android8hardware4gnss4V1_015IGnssNiCallback21notifySyspropsChangedEv
_ZN7android8hardware4gnss4V1_015IGnssNiCallback21setHALInstrumentationEv
_ZN7android8hardware4gnss4V1_015IGnssNiCallback24registerForNotificationsERKNSt3__112basic_stringIcNS4_11char_traitsIcEENS4_9allocatorIcEEEERKNS_2spINS_4hidl7manager4V1_020IServiceNotificationEEE
_ZN7android8hardware4gnss4V1_015IGnssNiCallback4pingEv
_ZN7android8hardware4gnss4V1_015IGnssNiCallback5debugERKNS0_11hidl_handleERKNS0_8hidl_vecINS0_11hidl_stringEEE
_ZN7android8hardware4gnss4V1_015IGnssNiCallback8castFromERKNS_2spINS_4hidl4base4V1_05IBaseEEEb
_ZN7android8hardware4gnss4V1_015IGnssNiCallback8castFromERKNS_2spIS3_EEb
_ZN7android8hardware4gnss4V1_016BnHwGnssBatching10_hidl_initEPNS_4hidl4base4V1_08BnHwBaseERKNS0_6ParcelEPS9_NSt3__18functionIFvRS9_EEE
_ZN7android8hardware4gnss4V1_016BnHwGnssBatching10_hidl_stopEPNS_4hidl4base4V1_08BnHwBaseERKNS0_6ParcelEPS9_NSt3__18functionIFvRS9_EEE
_ZN7android8hardware4gnss4V1_016BnHwGnssBatching10onTransactEjRKNS0_6ParcelEPS4_jNSt3__18functionIFvRS4_EEE
_ZN7android8hardware4gnss4V1_016BnHwGnssBatching11_hidl_flushEPNS_4hidl4base4V1_08BnHwBaseERKNS0_6ParcelEPS9_NSt3__18functionIFvRS9_EEE
_ZN7android8hardware4gnss4V1_016BnHwGnssBatching11_hidl_startEPNS_4hidl4base4V1_08BnHwBaseERKNS0_6ParcelEPS9_NSt3__18functionIFvRS9_EEE
_ZN7android8hardware4gnss4V1_016BnHwGnssBatching12getDebugInfoENSt3__18functionIFvRKNS_4hidl4base4V1_09DebugInfoEEEE
_ZN7android8hardware4gnss4V1_016BnHwGnssBatching13_hidl_cleanupEPNS_4hidl4base4V1_08BnHwBaseERKNS0_6ParcelEPS9_NSt3__18functionIFvRS9_EEE
_ZN7android8hardware4gnss4V1_016BnHwGnssBatching18_hidl_getBatchSizeEPNS_4hidl4base4V1_08BnHwBaseERKNS0_6ParcelEPS9_NSt3__18functionIFvRS9_EEE
_ZN7android8hardware4gnss4V1_016BnHwGnssBatching4pingEv
_ZN7android8hardware4gnss4V1_016BnHwGnssBatchingC1ERKNS_2spINS2_13IGnssBatchingEEE
_ZN7android8hardware4gnss4V1_016BnHwGnssBatchingC2ERKNS_2spINS2_13IGnssBatchingEEE
_ZN7android8hardware4gnss4V1_016BnHwGnssBatchingD0Ev
_ZN7android8hardware4gnss4V1_016BnHwGnssBatchingD1Ev
_ZN7android8hardware4gnss4V1_016BnHwGnssBatchingD2Ev
_ZN7android8hardware4gnss4V1_016BnHwGnssCallback10onTransactEjRKNS0_6ParcelEPS4_jNSt3__18functionIFvRS4_EEE
_ZN7android8hardware4gnss4V1_016BnHwGnssCallback12getDebugInfoENSt3__18functionIFvRKNS_4hidl4base4V1_09DebugInfoEEEE
_ZN7android8hardware4gnss4V1_016BnHwGnssCallback16_hidl_gnssNmeaCbEPNS_4hidl4base4V1_08BnHwBaseERKNS0_6ParcelEPS9_NSt3__18functionIFvRS9_EEE
_ZN7android8hardware4gnss4V1_016BnHwGnssCallback18_hidl_gnssStatusCbEPNS_4hidl4base4V1_08BnHwBaseERKNS0_6ParcelEPS9_NSt3__18functionIFvRS9_EEE
_ZN7android8hardware4gnss4V1_016BnHwGnssCallback20_hidl_gnssLocationCbEPNS_4hidl4base4V1_08BnHwBaseERKNS0_6ParcelEPS9_NSt3__18functionIFvRS9_EEE
_ZN7android8hardware4gnss4V1_016BnHwGnssCallback20_hidl_gnssSvStatusCbEPNS_4hidl4base4V1_08BnHwBaseERKNS0_6ParcelEPS9_NSt3__18functionIFvRS9_EEE
_ZN7android8hardware4gnss4V1_016BnHwGnssCallback23_hidl_gnssRequestTimeCbEPNS_4hidl4base4V1_08BnHwBaseERKNS0_6ParcelEPS9_NSt3__18functionIFvRS9_EEE
_ZN7android8hardware4gnss4V1_016BnHwGnssCallback25_hidl_gnssSetSystemInfoCbEPNS_4hidl4base4V1_08BnHwBaseERKNS0_6ParcelEPS9_NSt3__18functionIFvRS9_EEE
_ZN7android8hardware4gnss4V1_016BnHwGnssCallback26_hidl_gnssSetCapabilitesCbEPNS_4hidl4base4V1_08BnHwBaseERKNS0_6ParcelEPS9_NSt3__18functionIFvRS9_EEE
_ZN7android8hardware4gnss4V1_016BnHwGnssCallback27_hidl_gnssAcquireWakelockCbEPNS_4hidl4base4V1_08BnHwBaseERKNS0_6ParcelEPS9_NSt3__18functionIFvRS9_EEE
_ZN7android8hardware4gnss4V1_016BnHwGnssCallback27_hidl_gnssReleaseWakelockCbEPNS_4hidl4base4V1_08BnHwBaseERKNS0_6ParcelEPS9_NSt3__18functionIFvRS9_EEE
_ZN7android8hardware4gnss4V1_016BnHwGnssCallback4pingEv
_ZN7android8hardware4gnss4V1_016BnHwGnssCallbackC1ERKNS_2spINS2_13IGnssCallbackEEE
_ZN7android8hardware4gnss4V1_016BnHwGnssCallbackC2ERKNS_2spINS2_13IGnssCallbackEEE
_ZN7android8hardware4gnss4V1_016BnHwGnssCallbackD0Ev
_ZN7android8hardware4gnss4V1_016BnHwGnssCallbackD1Ev
_ZN7android8hardware4gnss4V1_016BnHwGnssCallbackD2Ev
_ZN7android8hardware4gnss4V1_016BpHwGnssBatching10_hidl_initEPNS0_10IInterfaceEPNS0_7details16HidlInstrumentorERKNS_2spINS2_21IGnssBatchingCallbackEEE
_ZN7android8hardware4gnss4V1_016BpHwGnssBatching10_hidl_stopEPNS0_10IInterfaceEPNS0_7details16HidlInstrumentorE
_ZN7android8hardware4gnss4V1_016BpHwGnssBatching11_hidl_flushEPNS0_10IInterfaceEPNS0_7details16HidlInstrumentorE
_ZN7android8hardware4gnss4V1_016BpHwGnssBatching11_hidl_startEPNS0_10IInterfaceEPNS0_7details16HidlInstrumentorERKNS2_13IGnssBatching7OptionsE
_ZN7android8hardware4gnss4V1_016BpHwGnssBatching11linkToDeathERKNS_2spINS0_20hidl_death_recipientEEEy
_ZN7android8hardware4gnss4V1_016BpHwGnssBatching12getBatchSizeEv
_ZN7android8hardware4gnss4V1_016BpHwGnssBatching12getDebugInfoENSt3__18functionIFvRKNS_4hidl4base4V1_09DebugInfoEEEE
_ZN7android8hardware4gnss4V1_016BpHwGnssBatching12getHashChainENSt3__18functionIFvRKNS0_8hidl_vecINS0_10hidl_arrayIhLj32EJEEEEEEEE
_ZN7android8hardware4gnss4V1_016BpHwGnssBatching13_hidl_cleanupEPNS0_10IInterfaceEPNS0_7details16HidlInstrumentorE
_ZN7android8hardware4gnss4V1_016BpHwGnssBatching13unlinkToDeathERKNS_2spINS0_20hidl_death_recipientEEE
_ZN7android8hardware4gnss4V1_016BpHwGnssBatching14interfaceChainENSt3__18functionIFvRKNS0_8hidl_vecINS0_11hidl_stringEEEEEE
_ZN7android8hardware4gnss4V1_016BpHwGnssBatching18_hidl_getBatchSizeEPNS0_10IInterfaceEPNS0_7details16HidlInstrumentorE
_ZN7android8hardware4gnss4V1_016BpHwGnssBatching19interfaceDescriptorENSt3__18functionIFvRKNS0_11hidl_stringEEEE
_ZN7android8hardware4gnss4V1_016BpHwGnssBatching21notifySyspropsChangedEv
_ZN7android8hardware4gnss4V1_016BpHwGnssBatching21setHALInstrumentationEv
_ZN7android8hardware4gnss4V1_016BpHwGnssBatching4initERKNS_2spINS2_21IGnssBatchingCallbackEEE
_ZN7android8hardware4gnss4V1_016BpHwGnssBatching4pingEv
_ZN7android8hardware4gnss4V1_016BpHwGnssBatching4stopEv
_ZN7android8hardware4gnss4V1_016BpHwGnssBatching5debugERKNS0_11hidl_handleERKNS0_8hidl_vecINS0_11hidl_stringEEE
_ZN7android8hardware4gnss4V1_016BpHwGnssBatching5flushEv
_ZN7android8hardware4gnss4V1_016BpHwGnssBatching5startERKNS2_13IGnssBatching7OptionsE
_ZN7android8hardware4gnss4V1_016BpHwGnssBatching7cleanupEv
_ZN7android8hardware4gnss4V1_016BpHwGnssBatchingC1ERKNS_2spINS0_7IBinderEEE
_ZN7android8hardware4gnss4V1_016BpHwGnssBatchingC2ERKNS_2spINS0_7IBinderEEE
_ZN7android8hardware4gnss4V1_016BpHwGnssCallback10gnssNmeaCbExRKNS0_11hidl_stringE
_ZN7android8hardware4gnss4V1_016BpHwGnssCallback11linkToDeathERKNS_2spINS0_20hidl_death_recipientEEEy
_ZN7android8hardware4gnss4V1_016BpHwGnssCallback12getDebugInfoENSt3__18functionIFvRKNS_4hidl4base4V1_09DebugInfoEEEE
_ZN7android8hardware4gnss4V1_016BpHwGnssCallback12getHashChainENSt3__18functionIFvRKNS0_8hidl_vecINS0_10hidl_arrayIhLj32EJEEEEEEEE
_ZN7android8hardware4gnss4V1_016BpHwGnssCallback12gnssStatusCbENS2_13IGnssCallback15GnssStatusValueE
_ZN7android8hardware4gnss4V1_016BpHwGnssCallback13unlinkToDeathERKNS_2spINS0_20hidl_death_recipientEEE
_ZN7android8hardware4gnss4V1_016BpHwGnssCallback14gnssLocationCbERKNS2_12GnssLocationE
_ZN7android8hardware4gnss4V1_016BpHwGnssCallback14gnssSvStatusCbERKNS2_13IGnssCallback12GnssSvStatusE
_ZN7android8hardware4gnss4V1_016BpHwGnssCallback14interfaceChainENSt3__18functionIFvRKNS0_8hidl_vecINS0_11hidl_stringEEEEEE
_ZN7android8hardware4gnss4V1_016BpHwGnssCallback16_hidl_gnssNmeaCbEPNS0_10IInterfaceEPNS0_7details16HidlInstrumentorExRKNS0_11hidl_stringE
_ZN7android8hardware4gnss4V1_016BpHwGnssCallback17gnssRequestTimeCbEv
_ZN7android8hardware4gnss4V1_016BpHwGnssCallback18_hidl_gnssStatusCbEPNS0_10IInterfaceEPNS0_7details16HidlInstrumentorENS2_13IGnssCallback15GnssStatusValueE
_ZN7android8hardware4gnss4V1_016BpHwGnssCallback19gnssSetSystemInfoCbERKNS2_13IGnssCallback14GnssSystemInfoE
_ZN7android8hardware4gnss4V1_016BpHwGnssCallback19interfaceDescriptorENSt3__18functionIFvRKNS0_11hidl_stringEEEE
_ZN7android8hardware4gnss4V1_016BpHwGnssCallback20_hidl_gnssLocationCbEPNS0_10IInterfaceEPNS0_7details16HidlInstrumentorERKNS2_12GnssLocationE
_ZN7android8hardware4gnss4V1_016BpHwGnssCallback20_hidl_gnssSvStatusCbEPNS0_10IInterfaceEPNS0_7details16HidlInstrumentorERKNS2_13IGnssCallback12GnssSvStatusE
_ZN7android8hardware4gnss4V1_016BpHwGnssCallback20gnssSetCapabilitesCbEj
_ZN7android8hardware4gnss4V1_016BpHwGnssCallback21gnssAcquireWakelockCbEv
_ZN7android8hardware4gnss4V1_016BpHwGnssCallback21gnssReleaseWakelockCbEv
_ZN7android8hardware4gnss4V1_016BpHwGnssCallback21notifySyspropsChangedEv
_ZN7android8hardware4gnss4V1_016BpHwGnssCallback21setHALInstrumentationEv
_ZN7android8hardware4gnss4V1_016BpHwGnssCallback23_hidl_gnssRequestTimeCbEPNS0_10IInterfaceEPNS0_7details16HidlInstrumentorE
_ZN7android8hardware4gnss4V1_016BpHwGnssCallback25_hidl_gnssSetSystemInfoCbEPNS0_10IInterfaceEPNS0_7details16HidlInstrumentorERKNS2_13IGnssCallback14GnssSystemInfoE
_ZN7android8hardware4gnss4V1_016BpHwGnssCallback26_hidl_gnssSetCapabilitesCbEPNS0_10IInterfaceEPNS0_7details16HidlInstrumentorEj
_ZN7android8hardware4gnss4V1_016BpHwGnssCallback27_hidl_gnssAcquireWakelockCbEPNS0_10IInterfaceEPNS0_7details16HidlInstrumentorE
_ZN7android8hardware4gnss4V1_016BpHwGnssCallback27_hidl_gnssReleaseWakelockCbEPNS0_10IInterfaceEPNS0_7details16HidlInstrumentorE
_ZN7android8hardware4gnss4V1_016BpHwGnssCallback4pingEv
_ZN7android8hardware4gnss4V1_016BpHwGnssCallback5debugERKNS0_11hidl_handleERKNS0_8hidl_vecINS0_11hidl_stringEEE
_ZN7android8hardware4gnss4V1_016BpHwGnssCallbackC1ERKNS_2spINS0_7IBinderEEE
_ZN7android8hardware4gnss4V1_016BpHwGnssCallbackC2ERKNS_2spINS0_7IBinderEEE
_ZN7android8hardware4gnss4V1_016BsGnssGeofencing13addOnewayTaskENSt3__18functionIFvvEEE
_ZN7android8hardware4gnss4V1_016BsGnssGeofencingC1ENS_2spINS2_15IGnssGeofencingEEE
_ZN7android8hardware4gnss4V1_016BsGnssGeofencingC2ENS_2spINS2_15IGnssGeofencingEEE
_ZN7android8hardware4gnss4V1_016BsGnssNiCallback13addOnewayTaskENSt3__18functionIFvvEEE
_ZN7android8hardware4gnss4V1_016BsGnssNiCallbackC1ENS_2spINS2_15IGnssNiCallbackEEE
_ZN7android8hardware4gnss4V1_016BsGnssNiCallbackC2ENS_2spINS2_15IGnssNiCallbackEEE
_ZN7android8hardware4gnss4V1_016IGnssMeasurement10descriptorE
_ZN7android8hardware4gnss4V1_016IGnssMeasurement10getServiceERKNSt3__112basic_stringIcNS4_11char_traitsIcEENS4_9allocatorIcEEEEb
_ZN7android8hardware4gnss4V1_016IGnssMeasurement11linkToDeathERKNS_2spINS0_20hidl_death_recipientEEEy
_ZN7android8hardware4gnss4V1_016IGnssMeasurement12getDebugInfoENSt3__18functionIFvRKNS_4hidl4base4V1_09DebugInfoEEEE
_ZN7android8hardware4gnss4V1_016IGnssMeasurement12getHashChainENSt3__18functionIFvRKNS0_8hidl_vecINS0_10hidl_arrayIhLj32EJEEEEEEEE
_ZN7android8hardware4gnss4V1_016IGnssMeasurement13tryGetServiceERKNSt3__112basic_stringIcNS4_11char_traitsIcEENS4_9allocatorIcEEEEb
_ZN7android8hardware4gnss4V1_016IGnssMeasurement13unlinkToDeathERKNS_2spINS0_20hidl_death_recipientEEE
_ZN7android8hardware4gnss4V1_016IGnssMeasurement14interfaceChainENSt3__18functionIFvRKNS0_8hidl_vecINS0_11hidl_stringEEEEEE
_ZN7android8hardware4gnss4V1_016IGnssMeasurement17registerAsServiceERKNSt3__112basic_stringIcNS4_11char_traitsIcEENS4_9allocatorIcEEEE
_ZN7android8hardware4gnss4V1_016IGnssMeasurement19interfaceDescriptorENSt3__18functionIFvRKNS0_11hidl_stringEEEE
_ZN7android8hardware4gnss4V1_016IGnssMeasurement21notifySyspropsChangedEv
_ZN7android8hardware4gnss4V1_016IGnssMeasurement21setHALInstrumentationEv
_ZN7android8hardware4gnss4V1_016IGnssMeasurement24registerForNotificationsERKNSt3__112basic_stringIcNS4_11char_traitsIcEENS4_9allocatorIcEEEERKNS_2spINS_4hidl7manager4V1_020IServiceNotificationEEE
_ZN7android8hardware4gnss4V1_016IGnssMeasurement4pingEv
_ZN7android8hardware4gnss4V1_016IGnssMeasurement5debugERKNS0_11hidl_handleERKNS0_8hidl_vecINS0_11hidl_stringEEE
_ZN7android8hardware4gnss4V1_016IGnssMeasurement8castFromERKNS_2spINS_4hidl4base4V1_05IBaseEEEb
_ZN7android8hardware4gnss4V1_016IGnssMeasurement8castFromERKNS_2spIS3_EEb
_ZN7android8hardware4gnss4V1_017BnHwAGnssCallback10onTransactEjRKNS0_6ParcelEPS4_jNSt3__18functionIFvRS4_EEE
_ZN7android8hardware4gnss4V1_017BnHwAGnssCallback12getDebugInfoENSt3__18functionIFvRKNS_4hidl4base4V1_09DebugInfoEEEE
_ZN7android8hardware4gnss4V1_017BnHwAGnssCallback23_hidl_agnssStatusIpV4CbEPNS_4hidl4base4V1_08BnHwBaseERKNS0_6ParcelEPS9_NSt3__18functionIFvRS9_EEE
_ZN7android8hardware4gnss4V1_017BnHwAGnssCallback23_hidl_agnssStatusIpV6CbEPNS_4hidl4base4V1_08BnHwBaseERKNS0_6ParcelEPS9_NSt3__18functionIFvRS9_EEE
_ZN7android8hardware4gnss4V1_017BnHwAGnssCallback4pingEv
_ZN7android8hardware4gnss4V1_017BnHwAGnssCallbackC1ERKNS_2spINS2_14IAGnssCallbackEEE
_ZN7android8hardware4gnss4V1_017BnHwAGnssCallbackC2ERKNS_2spINS2_14IAGnssCallbackEEE
_ZN7android8hardware4gnss4V1_017BnHwAGnssCallbackD0Ev
_ZN7android8hardware4gnss4V1_017BnHwAGnssCallbackD1Ev
_ZN7android8hardware4gnss4V1_017BnHwAGnssCallbackD2Ev
_ZN7android8hardware4gnss4V1_017BpHwAGnssCallback11linkToDeathERKNS_2spINS0_20hidl_death_recipientEEEy
_ZN7android8hardware4gnss4V1_017BpHwAGnssCallback12getDebugInfoENSt3__18functionIFvRKNS_4hidl4base4V1_09DebugInfoEEEE
_ZN7android8hardware4gnss4V1_017BpHwAGnssCallback12getHashChainENSt3__18functionIFvRKNS0_8hidl_vecINS0_10hidl_arrayIhLj32EJEEEEEEEE
_ZN7android8hardware4gnss4V1_017BpHwAGnssCallback13unlinkToDeathERKNS_2spINS0_20hidl_death_recipientEEE
_ZN7android8hardware4gnss4V1_017BpHwAGnssCallback14interfaceChainENSt3__18functionIFvRKNS0_8hidl_vecINS0_11hidl_stringEEEEEE
_ZN7android8hardware4gnss4V1_017BpHwAGnssCallback17agnssStatusIpV4CbERKNS2_14IAGnssCallback15AGnssStatusIpV4E
_ZN7android8hardware4gnss4V1_017BpHwAGnssCallback17agnssStatusIpV6CbERKNS2_14IAGnssCallback15AGnssStatusIpV6E
_ZN7android8hardware4gnss4V1_017BpHwAGnssCallback19interfaceDescriptorENSt3__18functionIFvRKNS0_11hidl_stringEEEE
_ZN7android8hardware4gnss4V1_017BpHwAGnssCallback21notifySyspropsChangedEv
_ZN7android8hardware4gnss4V1_017BpHwAGnssCallback21setHALInstrumentationEv
_ZN7android8hardware4gnss4V1_017BpHwAGnssCallback23_hidl_agnssStatusIpV4CbEPNS0_10IInterfaceEPNS0_7details16HidlInstrumentorERKNS2_14IAGnssCallback15AGnssStatusIpV4E
_ZN7android8hardware4gnss4V1_017BpHwAGnssCallback23_hidl_agnssStatusIpV6CbEPNS0_10IInterfaceEPNS0_7details16HidlInstrumentorERKNS2_14IAGnssCallback15AGnssStatusIpV6E
_ZN7android8hardware4gnss4V1_017BpHwAGnssCallback4pingEv
_ZN7android8hardware4gnss4V1_017BpHwAGnssCallback5debugERKNS0_11hidl_handleERKNS0_8hidl_vecINS0_11hidl_stringEEE
_ZN7android8hardware4gnss4V1_017BpHwAGnssCallbackC1ERKNS_2spINS0_7IBinderEEE
_ZN7android8hardware4gnss4V1_017BpHwAGnssCallbackC2ERKNS_2spINS0_7IBinderEEE
_ZN7android8hardware4gnss4V1_017BsGnssMeasurement13addOnewayTaskENSt3__18functionIFvvEEE
_ZN7android8hardware4gnss4V1_017BsGnssMeasurementC1ENS_2spINS2_16IGnssMeasurementEEE
_ZN7android8hardware4gnss4V1_017BsGnssMeasurementC2ENS_2spINS2_16IGnssMeasurementEEE
_ZN7android8hardware4gnss4V1_017IAGnssRilCallback10descriptorE
_ZN7android8hardware4gnss4V1_017IAGnssRilCallback10getServiceERKNSt3__112basic_stringIcNS4_11char_traitsIcEENS4_9allocatorIcEEEEb
_ZN7android8hardware4gnss4V1_017IAGnssRilCallback11linkToDeathERKNS_2spINS0_20hidl_death_recipientEEEy
_ZN7android8hardware4gnss4V1_017IAGnssRilCallback12getDebugInfoENSt3__18functionIFvRKNS_4hidl4base4V1_09DebugInfoEEEE
_ZN7android8hardware4gnss4V1_017IAGnssRilCallback12getHashChainENSt3__18functionIFvRKNS0_8hidl_vecINS0_10hidl_arrayIhLj32EJEEEEEEEE
_ZN7android8hardware4gnss4V1_017IAGnssRilCallback13tryGetServiceERKNSt3__112basic_stringIcNS4_11char_traitsIcEENS4_9allocatorIcEEEEb
_ZN7android8hardware4gnss4V1_017IAGnssRilCallback13unlinkToDeathERKNS_2spINS0_20hidl_death_recipientEEE
_ZN7android8hardware4gnss4V1_017IAGnssRilCallback14interfaceChainENSt3__18functionIFvRKNS0_8hidl_vecINS0_11hidl_stringEEEEEE
_ZN7android8hardware4gnss4V1_017IAGnssRilCallback17registerAsServiceERKNSt3__112basic_stringIcNS4_11char_traitsIcEENS4_9allocatorIcEEEE
_ZN7android8hardware4gnss4V1_017IAGnssRilCallback19interfaceDescriptorENSt3__18functionIFvRKNS0_11hidl_stringEEEE
_ZN7android8hardware4gnss4V1_017IAGnssRilCallback21notifySyspropsChangedEv
_ZN7android8hardware4gnss4V1_017IAGnssRilCallback21setHALInstrumentationEv
_ZN7android8hardware4gnss4V1_017IAGnssRilCallback24registerForNotificationsERKNSt3__112basic_stringIcNS4_11char_traitsIcEENS4_9allocatorIcEEEERKNS_2spINS_4hidl7manager4V1_020IServiceNotificationEEE
_ZN7android8hardware4gnss4V1_017IAGnssRilCallback4pingEv
_ZN7android8hardware4gnss4V1_017IAGnssRilCallback5debugERKNS0_11hidl_handleERKNS0_8hidl_vecINS0_11hidl_stringEEE
_ZN7android8hardware4gnss4V1_017IAGnssRilCallback8castFromERKNS_2spINS_4hidl4base4V1_05IBaseEEEb
_ZN7android8hardware4gnss4V1_017IAGnssRilCallback8castFromERKNS_2spIS3_EEb
_ZN7android8hardware4gnss4V1_017IGnssXtraCallback10descriptorE
_ZN7android8hardware4gnss4V1_017IGnssXtraCallback10getServiceERKNSt3__112basic_stringIcNS4_11char_traitsIcEENS4_9allocatorIcEEEEb
_ZN7android8hardware4gnss4V1_017IGnssXtraCallback11linkToDeathERKNS_2spINS0_20hidl_death_recipientEEEy
_ZN7android8hardware4gnss4V1_017IGnssXtraCallback12getDebugInfoENSt3__18functionIFvRKNS_4hidl4base4V1_09DebugInfoEEEE
_ZN7android8hardware4gnss4V1_017IGnssXtraCallback12getHashChainENSt3__18functionIFvRKNS0_8hidl_vecINS0_10hidl_arrayIhLj32EJEEEEEEEE
_ZN7android8hardware4gnss4V1_017IGnssXtraCallback13tryGetServiceERKNSt3__112basic_stringIcNS4_11char_traitsIcEENS4_9allocatorIcEEEEb
_ZN7android8hardware4gnss4V1_017IGnssXtraCallback13unlinkToDeathERKNS_2spINS0_20hidl_death_recipientEEE
_ZN7android8hardware4gnss4V1_017IGnssXtraCallback14interfaceChainENSt3__18functionIFvRKNS0_8hidl_vecINS0_11hidl_stringEEEEEE
_ZN7android8hardware4gnss4V1_017IGnssXtraCallback17registerAsServiceERKNSt3__112basic_stringIcNS4_11char_traitsIcEENS4_9allocatorIcEEEE
_ZN7android8hardware4gnss4V1_017IGnssXtraCallback19interfaceDescriptorENSt3__18functionIFvRKNS0_11hidl_stringEEEE
_ZN7android8hardware4gnss4V1_017IGnssXtraCallback21notifySyspropsChangedEv
_ZN7android8hardware4gnss4V1_017IGnssXtraCallback21setHALInstrumentationEv
_ZN7android8hardware4gnss4V1_017IGnssXtraCallback24registerForNotificationsERKNSt3__112basic_stringIcNS4_11char_traitsIcEENS4_9allocatorIcEEEERKNS_2spINS_4hidl7manager4V1_020IServiceNotificationEEE
_ZN7android8hardware4gnss4V1_017IGnssXtraCallback4pingEv
_ZN7android8hardware4gnss4V1_017IGnssXtraCallback5debugERKNS0_11hidl_handleERKNS0_8hidl_vecINS0_11hidl_stringEEE
_ZN7android8hardware4gnss4V1_017IGnssXtraCallback8castFromERKNS_2spINS_4hidl4base4V1_05IBaseEEEb
_ZN7android8hardware4gnss4V1_017IGnssXtraCallback8castFromERKNS_2spIS3_EEb
_ZN7android8hardware4gnss4V1_018BnHwGnssGeofencing10onTransactEjRKNS0_6ParcelEPS4_jNSt3__18functionIFvRS4_EEE
_ZN7android8hardware4gnss4V1_018BnHwGnssGeofencing12getDebugInfoENSt3__18functionIFvRKNS_4hidl4base4V1_09DebugInfoEEEE
_ZN7android8hardware4gnss4V1_018BnHwGnssGeofencing17_hidl_addGeofenceEPNS_4hidl4base4V1_08BnHwBaseERKNS0_6ParcelEPS9_NSt3__18functionIFvRS9_EEE
_ZN7android8hardware4gnss4V1_018BnHwGnssGeofencing17_hidl_setCallbackEPNS_4hidl4base4V1_08BnHwBaseERKNS0_6ParcelEPS9_NSt3__18functionIFvRS9_EEE
_ZN7android8hardware4gnss4V1_018BnHwGnssGeofencing19_hidl_pauseGeofenceEPNS_4hidl4base4V1_08BnHwBaseERKNS0_6ParcelEPS9_NSt3__18functionIFvRS9_EEE
_ZN7android8hardware4gnss4V1_018BnHwGnssGeofencing20_hidl_removeGeofenceEPNS_4hidl4base4V1_08BnHwBaseERKNS0_6ParcelEPS9_NSt3__18functionIFvRS9_EEE
_ZN7android8hardware4gnss4V1_018BnHwGnssGeofencing20_hidl_resumeGeofenceEPNS_4hidl4base4V1_08BnHwBaseERKNS0_6ParcelEPS9_NSt3__18functionIFvRS9_EEE
_ZN7android8hardware4gnss4V1_018BnHwGnssGeofencing4pingEv
_ZN7android8hardware4gnss4V1_018BnHwGnssGeofencingC1ERKNS_2spINS2_15IGnssGeofencingEEE
_ZN7android8hardware4gnss4V1_018BnHwGnssGeofencingC2ERKNS_2spINS2_15IGnssGeofencingEEE
_ZN7android8hardware4gnss4V1_018BnHwGnssGeofencingD0Ev
_ZN7android8hardware4gnss4V1_018BnHwGnssGeofencingD1Ev
_ZN7android8hardware4gnss4V1_018BnHwGnssGeofencingD2Ev
_ZN7android8hardware4gnss4V1_018BnHwGnssNiCallback10onTransactEjRKNS0_6ParcelEPS4_jNSt3__18functionIFvRS4_EEE
_ZN7android8hardware4gnss4V1_018BnHwGnssNiCallback12getDebugInfoENSt3__18functionIFvRKNS_4hidl4base4V1_09DebugInfoEEEE
_ZN7android8hardware4gnss4V1_018BnHwGnssNiCallback16_hidl_niNotifyCbEPNS_4hidl4base4V1_08BnHwBaseERKNS0_6ParcelEPS9_NSt3__18functionIFvRS9_EEE
_ZN7android8hardware4gnss4V1_018BnHwGnssNiCallback4pingEv
_ZN7android8hardware4gnss4V1_018BnHwGnssNiCallbackC1ERKNS_2spINS2_15IGnssNiCallbackEEE
_ZN7android8hardware4gnss4V1_018BnHwGnssNiCallbackC2ERKNS_2spINS2_15IGnssNiCallbackEEE
_ZN7android8hardware4gnss4V1_018BnHwGnssNiCallbackD0Ev
_ZN7android8hardware4gnss4V1_018BnHwGnssNiCallbackD1Ev
_ZN7android8hardware4gnss4V1_018BnHwGnssNiCallbackD2Ev
_ZN7android8hardware4gnss4V1_018BpHwGnssGeofencing11addGeofenceEidddNS2_21IGnssGeofenceCallback18GeofenceTransitionEijj
_ZN7android8hardware4gnss4V1_018BpHwGnssGeofencing11linkToDeathERKNS_2spINS0_20hidl_death_recipientEEEy
_ZN7android8hardware4gnss4V1_018BpHwGnssGeofencing11setCallbackERKNS_2spINS2_21IGnssGeofenceCallbackEEE
_ZN7android8hardware4gnss4V1_018BpHwGnssGeofencing12getDebugInfoENSt3__18functionIFvRKNS_4hidl4base4V1_09DebugInfoEEEE
_ZN7android8hardware4gnss4V1_018BpHwGnssGeofencing12getHashChainENSt3__18functionIFvRKNS0_8hidl_vecINS0_10hidl_arrayIhLj32EJEEEEEEEE
_ZN7android8hardware4gnss4V1_018BpHwGnssGeofencing13pauseGeofenceEi
_ZN7android8hardware4gnss4V1_018BpHwGnssGeofencing13unlinkToDeathERKNS_2spINS0_20hidl_death_recipientEEE
_ZN7android8hardware4gnss4V1_018BpHwGnssGeofencing14interfaceChainENSt3__18functionIFvRKNS0_8hidl_vecINS0_11hidl_stringEEEEEE
_ZN7android8hardware4gnss4V1_018BpHwGnssGeofencing14removeGeofenceEi
_ZN7android8hardware4gnss4V1_018BpHwGnssGeofencing14resumeGeofenceEii
_ZN7android8hardware4gnss4V1_018BpHwGnssGeofencing17_hidl_addGeofenceEPNS0_10IInterfaceEPNS0_7details16HidlInstrumentorEidddNS2_21IGnssGeofenceCallback18GeofenceTransitionEijj
_ZN7android8hardware4gnss4V1_018BpHwGnssGeofencing17_hidl_setCallbackEPNS0_10IInterfaceEPNS0_7details16HidlInstrumentorERKNS_2spINS2_21IGnssGeofenceCallbackEEE
_ZN7android8hardware4gnss4V1_018BpHwGnssGeofencing19_hidl_pauseGeofenceEPNS0_10IInterfaceEPNS0_7details16HidlInstrumentorEi
_ZN7android8hardware4gnss4V1_018BpHwGnssGeofencing19interfaceDescriptorENSt3__18functionIFvRKNS0_11hidl_stringEEEE
_ZN7android8hardware4gnss4V1_018BpHwGnssGeofencing20_hidl_removeGeofenceEPNS0_10IInterfaceEPNS0_7details16HidlInstrumentorEi
_ZN7android8hardware4gnss4V1_018BpHwGnssGeofencing20_hidl_resumeGeofenceEPNS0_10IInterfaceEPNS0_7details16HidlInstrumentorEii
_ZN7android8hardware4gnss4V1_018BpHwGnssGeofencing21notifySyspropsChangedEv
_ZN7android8hardware4gnss4V1_018BpHwGnssGeofencing21setHALInstrumentationEv
_ZN7android8hardware4gnss4V1_018BpHwGnssGeofencing4pingEv
_ZN7android8hardware4gnss4V1_018BpHwGnssGeofencing5debugERKNS0_11hidl_handleERKNS0_8hidl_vecINS0_11hidl_stringEEE
_ZN7android8hardware4gnss4V1_018BpHwGnssGeofencingC1ERKNS_2spINS0_7IBinderEEE
_ZN7android8hardware4gnss4V1_018BpHwGnssGeofencingC2ERKNS_2spINS0_7IBinderEEE
_ZN7android8hardware4gnss4V1_018BpHwGnssNiCallback10niNotifyCbERKNS2_15IGnssNiCallback18GnssNiNotificationE
_ZN7android8hardware4gnss4V1_018BpHwGnssNiCallback11linkToDeathERKNS_2spINS0_20hidl_death_recipientEEEy
_ZN7android8hardware4gnss4V1_018BpHwGnssNiCallback12getDebugInfoENSt3__18functionIFvRKNS_4hidl4base4V1_09DebugInfoEEEE
_ZN7android8hardware4gnss4V1_018BpHwGnssNiCallback12getHashChainENSt3__18functionIFvRKNS0_8hidl_vecINS0_10hidl_arrayIhLj32EJEEEEEEEE
_ZN7android8hardware4gnss4V1_018BpHwGnssNiCallback13unlinkToDeathERKNS_2spINS0_20hidl_death_recipientEEE
_ZN7android8hardware4gnss4V1_018BpHwGnssNiCallback14interfaceChainENSt3__18functionIFvRKNS0_8hidl_vecINS0_11hidl_stringEEEEEE
_ZN7android8hardware4gnss4V1_018BpHwGnssNiCallback16_hidl_niNotifyCbEPNS0_10IInterfaceEPNS0_7details16HidlInstrumentorERKNS2_15IGnssNiCallback18GnssNiNotificationE
_ZN7android8hardware4gnss4V1_018BpHwGnssNiCallback19interfaceDescriptorENSt3__18functionIFvRKNS0_11hidl_stringEEEE
_ZN7android8hardware4gnss4V1_018BpHwGnssNiCallback21notifySyspropsChangedEv
_ZN7android8hardware4gnss4V1_018BpHwGnssNiCallback21setHALInstrumentationEv
_ZN7android8hardware4gnss4V1_018BpHwGnssNiCallback4pingEv
_ZN7android8hardware4gnss4V1_018BpHwGnssNiCallback5debugERKNS0_11hidl_handleERKNS0_8hidl_vecINS0_11hidl_stringEEE
_ZN7android8hardware4gnss4V1_018BpHwGnssNiCallbackC1ERKNS_2spINS0_7IBinderEEE
_ZN7android8hardware4gnss4V1_018BpHwGnssNiCallbackC2ERKNS_2spINS0_7IBinderEEE
_ZN7android8hardware4gnss4V1_018BsAGnssRilCallback13addOnewayTaskENSt3__18functionIFvvEEE
_ZN7android8hardware4gnss4V1_018BsAGnssRilCallbackC1ENS_2spINS2_17IAGnssRilCallbackEEE
_ZN7android8hardware4gnss4V1_018BsAGnssRilCallbackC2ENS_2spINS2_17IAGnssRilCallbackEEE
_ZN7android8hardware4gnss4V1_018BsGnssXtraCallback13addOnewayTaskENSt3__18functionIFvvEEE
_ZN7android8hardware4gnss4V1_018BsGnssXtraCallbackC1ENS_2spINS2_17IGnssXtraCallbackEEE
_ZN7android8hardware4gnss4V1_018BsGnssXtraCallbackC2ENS_2spINS2_17IGnssXtraCallbackEEE
_ZN7android8hardware4gnss4V1_018IGnssConfiguration10descriptorE
_ZN7android8hardware4gnss4V1_018IGnssConfiguration10getServiceERKNSt3__112basic_stringIcNS4_11char_traitsIcEENS4_9allocatorIcEEEEb
_ZN7android8hardware4gnss4V1_018IGnssConfiguration11linkToDeathERKNS_2spINS0_20hidl_death_recipientEEEy
_ZN7android8hardware4gnss4V1_018IGnssConfiguration12getDebugInfoENSt3__18functionIFvRKNS_4hidl4base4V1_09DebugInfoEEEE
_ZN7android8hardware4gnss4V1_018IGnssConfiguration12getHashChainENSt3__18functionIFvRKNS0_8hidl_vecINS0_10hidl_arrayIhLj32EJEEEEEEEE
_ZN7android8hardware4gnss4V1_018IGnssConfiguration13tryGetServiceERKNSt3__112basic_stringIcNS4_11char_traitsIcEENS4_9allocatorIcEEEEb
_ZN7android8hardware4gnss4V1_018IGnssConfiguration13unlinkToDeathERKNS_2spINS0_20hidl_death_recipientEEE
_ZN7android8hardware4gnss4V1_018IGnssConfiguration14interfaceChainENSt3__18functionIFvRKNS0_8hidl_vecINS0_11hidl_stringEEEEEE
_ZN7android8hardware4gnss4V1_018IGnssConfiguration17registerAsServiceERKNSt3__112basic_stringIcNS4_11char_traitsIcEENS4_9allocatorIcEEEE
_ZN7android8hardware4gnss4V1_018IGnssConfiguration19interfaceDescriptorENSt3__18functionIFvRKNS0_11hidl_stringEEEE
_ZN7android8hardware4gnss4V1_018IGnssConfiguration21notifySyspropsChangedEv
_ZN7android8hardware4gnss4V1_018IGnssConfiguration21setHALInstrumentationEv
_ZN7android8hardware4gnss4V1_018IGnssConfiguration24registerForNotificationsERKNSt3__112basic_stringIcNS4_11char_traitsIcEENS4_9allocatorIcEEEERKNS_2spINS_4hidl7manager4V1_020IServiceNotificationEEE
_ZN7android8hardware4gnss4V1_018IGnssConfiguration4pingEv
_ZN7android8hardware4gnss4V1_018IGnssConfiguration5debugERKNS0_11hidl_handleERKNS0_8hidl_vecINS0_11hidl_stringEEE
_ZN7android8hardware4gnss4V1_018IGnssConfiguration8castFromERKNS_2spINS_4hidl4base4V1_05IBaseEEEb
_ZN7android8hardware4gnss4V1_018IGnssConfiguration8castFromERKNS_2spIS3_EEb
_ZN7android8hardware4gnss4V1_019BnHwGnssMeasurement10onTransactEjRKNS0_6ParcelEPS4_jNSt3__18functionIFvRS4_EEE
_ZN7android8hardware4gnss4V1_019BnHwGnssMeasurement11_hidl_closeEPNS_4hidl4base4V1_08BnHwBaseERKNS0_6ParcelEPS9_NSt3__18functionIFvRS9_EEE
_ZN7android8hardware4gnss4V1_019BnHwGnssMeasurement12getDebugInfoENSt3__18functionIFvRKNS_4hidl4base4V1_09DebugInfoEEEE
_ZN7android8hardware4gnss4V1_019BnHwGnssMeasurement17_hidl_setCallbackEPNS_4hidl4base4V1_08BnHwBaseERKNS0_6ParcelEPS9_NSt3__18functionIFvRS9_EEE
_ZN7android8hardware4gnss4V1_019BnHwGnssMeasurement4pingEv
_ZN7android8hardware4gnss4V1_019BnHwGnssMeasurementC1ERKNS_2spINS2_16IGnssMeasurementEEE
_ZN7android8hardware4gnss4V1_019BnHwGnssMeasurementC2ERKNS_2spINS2_16IGnssMeasurementEEE
_ZN7android8hardware4gnss4V1_019BnHwGnssMeasurementD0Ev
_ZN7android8hardware4gnss4V1_019BnHwGnssMeasurementD1Ev
_ZN7android8hardware4gnss4V1_019BnHwGnssMeasurementD2Ev
_ZN7android8hardware4gnss4V1_019BpHwGnssMeasurement11_hidl_closeEPNS0_10IInterfaceEPNS0_7details16HidlInstrumentorE
_ZN7android8hardware4gnss4V1_019BpHwGnssMeasurement11linkToDeathERKNS_2spINS0_20hidl_death_recipientEEEy
_ZN7android8hardware4gnss4V1_019BpHwGnssMeasurement11setCallbackERKNS_2spINS2_24IGnssMeasurementCallbackEEE
_ZN7android8hardware4gnss4V1_019BpHwGnssMeasurement12getDebugInfoENSt3__18functionIFvRKNS_4hidl4base4V1_09DebugInfoEEEE
_ZN7android8hardware4gnss4V1_019BpHwGnssMeasurement12getHashChainENSt3__18functionIFvRKNS0_8hidl_vecINS0_10hidl_arrayIhLj32EJEEEEEEEE
_ZN7android8hardware4gnss4V1_019BpHwGnssMeasurement13unlinkToDeathERKNS_2spINS0_20hidl_death_recipientEEE
_ZN7android8hardware4gnss4V1_019BpHwGnssMeasurement14interfaceChainENSt3__18functionIFvRKNS0_8hidl_vecINS0_11hidl_stringEEEEEE
_ZN7android8hardware4gnss4V1_019BpHwGnssMeasurement17_hidl_setCallbackEPNS0_10IInterfaceEPNS0_7details16HidlInstrumentorERKNS_2spINS2_24IGnssMeasurementCallbackEEE
_ZN7android8hardware4gnss4V1_019BpHwGnssMeasurement19interfaceDescriptorENSt3__18functionIFvRKNS0_11hidl_stringEEEE
_ZN7android8hardware4gnss4V1_019BpHwGnssMeasurement21notifySyspropsChangedEv
_ZN7android8hardware4gnss4V1_019BpHwGnssMeasurement21setHALInstrumentationEv
_ZN7android8hardware4gnss4V1_019BpHwGnssMeasurement4pingEv
_ZN7android8hardware4gnss4V1_019BpHwGnssMeasurement5closeEv
_ZN7android8hardware4gnss4V1_019BpHwGnssMeasurement5debugERKNS0_11hidl_handleERKNS0_8hidl_vecINS0_11hidl_stringEEE
_ZN7android8hardware4gnss4V1_019BpHwGnssMeasurementC1ERKNS_2spINS0_7IBinderEEE
_ZN7android8hardware4gnss4V1_019BpHwGnssMeasurementC2ERKNS_2spINS0_7IBinderEEE
_ZN7android8hardware4gnss4V1_019BsGnssConfiguration13addOnewayTaskENSt3__18functionIFvvEEE
_ZN7android8hardware4gnss4V1_019BsGnssConfigurationC1ENS_2spINS2_18IGnssConfigurationEEE
_ZN7android8hardware4gnss4V1_019BsGnssConfigurationC2ENS_2spINS2_18IGnssConfigurationEEE
_ZN7android8hardware4gnss4V1_020BnHwAGnssRilCallback10onTransactEjRKNS0_6ParcelEPS4_jNSt3__18functionIFvRS4_EEE
_ZN7android8hardware4gnss4V1_020BnHwAGnssRilCallback12getDebugInfoENSt3__18functionIFvRKNS_4hidl4base4V1_09DebugInfoEEEE
_ZN7android8hardware4gnss4V1_020BnHwAGnssRilCallback20_hidl_requestSetIdCbEPNS_4hidl4base4V1_08BnHwBaseERKNS0_6ParcelEPS9_NSt3__18functionIFvRS9_EEE
_ZN7android8hardware4gnss4V1_020BnHwAGnssRilCallback21_hidl_requestRefLocCbEPNS_4hidl4base4V1_08BnHwBaseERKNS0_6ParcelEPS9_NSt3__18functionIFvRS9_EEE
_ZN7android8hardware4gnss4V1_020BnHwAGnssRilCallback4pingEv
_ZN7android8hardware4gnss4V1_020BnHwAGnssRilCallbackC1ERKNS_2spINS2_17IAGnssRilCallbackEEE
_ZN7android8hardware4gnss4V1_020BnHwAGnssRilCallbackC2ERKNS_2spINS2_17IAGnssRilCallbackEEE
_ZN7android8hardware4gnss4V1_020BnHwAGnssRilCallbackD0Ev
_ZN7android8hardware4gnss4V1_020BnHwAGnssRilCallbackD1Ev
_ZN7android8hardware4gnss4V1_020BnHwAGnssRilCallbackD2Ev
_ZN7android8hardware4gnss4V1_020BnHwGnssXtraCallback10onTransactEjRKNS0_6ParcelEPS4_jNSt3__18functionIFvRS4_EEE
_ZN7android8hardware4gnss4V1_020BnHwGnssXtraCallback12getDebugInfoENSt3__18functionIFvRKNS_4hidl4base4V1_09DebugInfoEEEE
_ZN7android8hardware4gnss4V1_020BnHwGnssXtraCallback23_hidl_downloadRequestCbEPNS_4hidl4base4V1_08BnHwBaseERKNS0_6ParcelEPS9_NSt3__18functionIFvRS9_EEE
_ZN7android8hardware4gnss4V1_020BnHwGnssXtraCallback4pingEv
_ZN7android8hardware4gnss4V1_020BnHwGnssXtraCallbackC1ERKNS_2spINS2_17IGnssXtraCallbackEEE
_ZN7android8hardware4gnss4V1_020BnHwGnssXtraCallbackC2ERKNS_2spINS2_17IGnssXtraCallbackEEE
_ZN7android8hardware4gnss4V1_020BnHwGnssXtraCallbackD0Ev
_ZN7android8hardware4gnss4V1_020BnHwGnssXtraCallbackD1Ev
_ZN7android8hardware4gnss4V1_020BnHwGnssXtraCallbackD2Ev
_ZN7android8hardware4gnss4V1_020BpHwAGnssRilCallback11linkToDeathERKNS_2spINS0_20hidl_death_recipientEEEy
_ZN7android8hardware4gnss4V1_020BpHwAGnssRilCallback12getDebugInfoENSt3__18functionIFvRKNS_4hidl4base4V1_09DebugInfoEEEE
_ZN7android8hardware4gnss4V1_020BpHwAGnssRilCallback12getHashChainENSt3__18functionIFvRKNS0_8hidl_vecINS0_10hidl_arrayIhLj32EJEEEEEEEE
_ZN7android8hardware4gnss4V1_020BpHwAGnssRilCallback13unlinkToDeathERKNS_2spINS0_20hidl_death_recipientEEE
_ZN7android8hardware4gnss4V1_020BpHwAGnssRilCallback14interfaceChainENSt3__18functionIFvRKNS0_8hidl_vecINS0_11hidl_stringEEEEEE
_ZN7android8hardware4gnss4V1_020BpHwAGnssRilCallback14requestSetIdCbEj
_ZN7android8hardware4gnss4V1_020BpHwAGnssRilCallback15requestRefLocCbEv
_ZN7android8hardware4gnss4V1_020BpHwAGnssRilCallback19interfaceDescriptorENSt3__18functionIFvRKNS0_11hidl_stringEEEE
_ZN7android8hardware4gnss4V1_020BpHwAGnssRilCallback20_hidl_requestSetIdCbEPNS0_10IInterfaceEPNS0_7details16HidlInstrumentorEj
_ZN7android8hardware4gnss4V1_020BpHwAGnssRilCallback21_hidl_requestRefLocCbEPNS0_10IInterfaceEPNS0_7details16HidlInstrumentorE
_ZN7android8hardware4gnss4V1_020BpHwAGnssRilCallback21notifySyspropsChangedEv
_ZN7android8hardware4gnss4V1_020BpHwAGnssRilCallback21setHALInstrumentationEv
_ZN7android8hardware4gnss4V1_020BpHwAGnssRilCallback4pingEv
_ZN7android8hardware4gnss4V1_020BpHwAGnssRilCallback5debugERKNS0_11hidl_handleERKNS0_8hidl_vecINS0_11hidl_stringEEE
_ZN7android8hardware4gnss4V1_020BpHwAGnssRilCallbackC1ERKNS_2spINS0_7IBinderEEE
_ZN7android8hardware4gnss4V1_020BpHwAGnssRilCallbackC2ERKNS_2spINS0_7IBinderEEE
_ZN7android8hardware4gnss4V1_020BpHwGnssXtraCallback11linkToDeathERKNS_2spINS0_20hidl_death_recipientEEEy
_ZN7android8hardware4gnss4V1_020BpHwGnssXtraCallback12getDebugInfoENSt3__18functionIFvRKNS_4hidl4base4V1_09DebugInfoEEEE
_ZN7android8hardware4gnss4V1_020BpHwGnssXtraCallback12getHashChainENSt3__18functionIFvRKNS0_8hidl_vecINS0_10hidl_arrayIhLj32EJEEEEEEEE
_ZN7android8hardware4gnss4V1_020BpHwGnssXtraCallback13unlinkToDeathERKNS_2spINS0_20hidl_death_recipientEEE
_ZN7android8hardware4gnss4V1_020BpHwGnssXtraCallback14interfaceChainENSt3__18functionIFvRKNS0_8hidl_vecINS0_11hidl_stringEEEEEE
_ZN7android8hardware4gnss4V1_020BpHwGnssXtraCallback17downloadRequestCbEv
_ZN7android8hardware4gnss4V1_020BpHwGnssXtraCallback19interfaceDescriptorENSt3__18functionIFvRKNS0_11hidl_stringEEEE
_ZN7android8hardware4gnss4V1_020BpHwGnssXtraCallback21notifySyspropsChangedEv
_ZN7android8hardware4gnss4V1_020BpHwGnssXtraCallback21setHALInstrumentationEv
_ZN7android8hardware4gnss4V1_020BpHwGnssXtraCallback23_hidl_downloadRequestCbEPNS0_10IInterfaceEPNS0_7details16HidlInstrumentorE
_ZN7android8hardware4gnss4V1_020BpHwGnssXtraCallback4pingEv
_ZN7android8hardware4gnss4V1_020BpHwGnssXtraCallback5debugERKNS0_11hidl_handleERKNS0_8hidl_vecINS0_11hidl_stringEEE
_ZN7android8hardware4gnss4V1_020BpHwGnssXtraCallbackC1ERKNS_2spINS0_7IBinderEEE
_ZN7android8hardware4gnss4V1_020BpHwGnssXtraCallbackC2ERKNS_2spINS0_7IBinderEEE
_ZN7android8hardware4gnss4V1_021BnHwGnssConfiguration10onTransactEjRKNS0_6ParcelEPS4_jNSt3__18functionIFvRS4_EEE
_ZN7android8hardware4gnss4V1_021BnHwGnssConfiguration12getDebugInfoENSt3__18functionIFvRKNS_4hidl4base4V1_09DebugInfoEEEE
_ZN7android8hardware4gnss4V1_021BnHwGnssConfiguration15_hidl_setSuplEsEPNS_4hidl4base4V1_08BnHwBaseERKNS0_6ParcelEPS9_NSt3__18functionIFvRS9_EEE
_ZN7android8hardware4gnss4V1_021BnHwGnssConfiguration16_hidl_setGpsLockEPNS_4hidl4base4V1_08BnHwBaseERKNS0_6ParcelEPS9_NSt3__18functionIFvRS9_EEE
_ZN7android8hardware4gnss4V1_021BnHwGnssConfiguration17_hidl_setSuplModeEPNS_4hidl4base4V1_08BnHwBaseERKNS0_6ParcelEPS9_NSt3__18functionIFvRS9_EEE
_ZN7android8hardware4gnss4V1_021BnHwGnssConfiguration19_hidl_setLppProfileEPNS_4hidl4base4V1_08BnHwBaseERKNS0_6ParcelEPS9_NSt3__18functionIFvRS9_EEE
_ZN7android8hardware4gnss4V1_021BnHwGnssConfiguration20_hidl_setSuplVersionEPNS_4hidl4base4V1_08BnHwBaseERKNS0_6ParcelEPS9_NSt3__18functionIFvRS9_EEE
_ZN7android8hardware4gnss4V1_021BnHwGnssConfiguration25_hidl_setEmergencySuplPdnEPNS_4hidl4base4V1_08BnHwBaseERKNS0_6ParcelEPS9_NSt3__18functionIFvRS9_EEE
_ZN7android8hardware4gnss4V1_021BnHwGnssConfiguration35_hidl_setGlonassPositioningProtocolEPNS_4hidl4base4V1_08BnHwBaseERKNS0_6ParcelEPS9_NSt3__18functionIFvRS9_EEE
_ZN7android8hardware4gnss4V1_021BnHwGnssConfiguration4pingEv
_ZN7android8hardware4gnss4V1_021BnHwGnssConfigurationC1ERKNS_2spINS2_18IGnssConfigurationEEE
_ZN7android8hardware4gnss4V1_021BnHwGnssConfigurationC2ERKNS_2spINS2_18IGnssConfigurationEEE
_ZN7android8hardware4gnss4V1_021BnHwGnssConfigurationD0Ev
_ZN7android8hardware4gnss4V1_021BnHwGnssConfigurationD1Ev
_ZN7android8hardware4gnss4V1_021BnHwGnssConfigurationD2Ev
_ZN7android8hardware4gnss4V1_021BpHwGnssConfiguration10setGpsLockEh
_ZN7android8hardware4gnss4V1_021BpHwGnssConfiguration11linkToDeathERKNS_2spINS0_20hidl_death_recipientEEEy
_ZN7android8hardware4gnss4V1_021BpHwGnssConfiguration11setSuplModeEh
_ZN7android8hardware4gnss4V1_021BpHwGnssConfiguration12getDebugInfoENSt3__18functionIFvRKNS_4hidl4base4V1_09DebugInfoEEEE
_ZN7android8hardware4gnss4V1_021BpHwGnssConfiguration12getHashChainENSt3__18functionIFvRKNS0_8hidl_vecINS0_10hidl_arrayIhLj32EJEEEEEEEE
_ZN7android8hardware4gnss4V1_021BpHwGnssConfiguration13setLppProfileEh
_ZN7android8hardware4gnss4V1_021BpHwGnssConfiguration13unlinkToDeathERKNS_2spINS0_20hidl_death_recipientEEE
_ZN7android8hardware4gnss4V1_021BpHwGnssConfiguration14interfaceChainENSt3__18functionIFvRKNS0_8hidl_vecINS0_11hidl_stringEEEEEE
_ZN7android8hardware4gnss4V1_021BpHwGnssConfiguration14setSuplVersionEj
_ZN7android8hardware4gnss4V1_021BpHwGnssConfiguration15_hidl_setSuplEsEPNS0_10IInterfaceEPNS0_7details16HidlInstrumentorEb
_ZN7android8hardware4gnss4V1_021BpHwGnssConfiguration16_hidl_setGpsLockEPNS0_10IInterfaceEPNS0_7details16HidlInstrumentorEh
_ZN7android8hardware4gnss4V1_021BpHwGnssConfiguration17_hidl_setSuplModeEPNS0_10IInterfaceEPNS0_7details16HidlInstrumentorEh
_ZN7android8hardware4gnss4V1_021BpHwGnssConfiguration19_hidl_setLppProfileEPNS0_10IInterfaceEPNS0_7details16HidlInstrumentorEh
_ZN7android8hardware4gnss4V1_021BpHwGnssConfiguration19interfaceDescriptorENSt3__18functionIFvRKNS0_11hidl_stringEEEE
_ZN7android8hardware4gnss4V1_021BpHwGnssConfiguration19setEmergencySuplPdnEb
_ZN7android8hardware4gnss4V1_021BpHwGnssConfiguration20_hidl_setSuplVersionEPNS0_10IInterfaceEPNS0_7details16HidlInstrumentorEj
_ZN7android8hardware4gnss4V1_021BpHwGnssConfiguration21notifySyspropsChangedEv
_ZN7android8hardware4gnss4V1_021BpHwGnssConfiguration21setHALInstrumentationEv
_ZN7android8hardware4gnss4V1_021BpHwGnssConfiguration25_hidl_setEmergencySuplPdnEPNS0_10IInterfaceEPNS0_7details16HidlInstrumentorEb
_ZN7android8hardware4gnss4V1_021BpHwGnssConfiguration29setGlonassPositioningProtocolEh
_ZN7android8hardware4gnss4V1_021BpHwGnssConfiguration35_hidl_setGlonassPositioningProtocolEPNS0_10IInterfaceEPNS0_7details16HidlInstrumentorEh
_ZN7android8hardware4gnss4V1_021BpHwGnssConfiguration4pingEv
_ZN7android8hardware4gnss4V1_021BpHwGnssConfiguration5debugERKNS0_11hidl_handleERKNS0_8hidl_vecINS0_11hidl_stringEEE
_ZN7android8hardware4gnss4V1_021BpHwGnssConfiguration9setSuplEsEb
_ZN7android8hardware4gnss4V1_021BpHwGnssConfigurationC1ERKNS_2spINS0_7IBinderEEE
_ZN7android8hardware4gnss4V1_021BpHwGnssConfigurationC2ERKNS_2spINS0_7IBinderEEE
_ZN7android8hardware4gnss4V1_021IGnssBatchingCallback10descriptorE
_ZN7android8hardware4gnss4V1_021IGnssBatchingCallback10getServiceERKNSt3__112basic_stringIcNS4_11char_traitsIcEENS4_9allocatorIcEEEEb
_ZN7android8hardware4gnss4V1_021IGnssBatchingCallback11linkToDeathERKNS_2spINS0_20hidl_death_recipientEEEy
_ZN7android8hardware4gnss4V1_021IGnssBatchingCallback12getDebugInfoENSt3__18functionIFvRKNS_4hidl4base4V1_09DebugInfoEEEE
_ZN7android8hardware4gnss4V1_021IGnssBatchingCallback12getHashChainENSt3__18functionIFvRKNS0_8hidl_vecINS0_10hidl_arrayIhLj32EJEEEEEEEE
_ZN7android8hardware4gnss4V1_021IGnssBatchingCallback13tryGetServiceERKNSt3__112basic_stringIcNS4_11char_traitsIcEENS4_9allocatorIcEEEEb
_ZN7android8hardware4gnss4V1_021IGnssBatchingCallback13unlinkToDeathERKNS_2spINS0_20hidl_death_recipientEEE
_ZN7android8hardware4gnss4V1_021IGnssBatchingCallback14interfaceChainENSt3__18functionIFvRKNS0_8hidl_vecINS0_11hidl_stringEEEEEE
_ZN7android8hardware4gnss4V1_021IGnssBatchingCallback17registerAsServiceERKNSt3__112basic_stringIcNS4_11char_traitsIcEENS4_9allocatorIcEEEE
_ZN7android8hardware4gnss4V1_021IGnssBatchingCallback19interfaceDescriptorENSt3__18functionIFvRKNS0_11hidl_stringEEEE
_ZN7android8hardware4gnss4V1_021IGnssBatchingCallback21notifySyspropsChangedEv
_ZN7android8hardware4gnss4V1_021IGnssBatchingCallback21setHALInstrumentationEv
_ZN7android8hardware4gnss4V1_021IGnssBatchingCallback24registerForNotificationsERKNSt3__112basic_stringIcNS4_11char_traitsIcEENS4_9allocatorIcEEEERKNS_2spINS_4hidl7manager4V1_020IServiceNotificationEEE
_ZN7android8hardware4gnss4V1_021IGnssBatchingCallback4pingEv
_ZN7android8hardware4gnss4V1_021IGnssBatchingCallback5debugERKNS0_11hidl_handleERKNS0_8hidl_vecINS0_11hidl_stringEEE
_ZN7android8hardware4gnss4V1_021IGnssBatchingCallback8castFromERKNS_2spINS_4hidl4base4V1_05IBaseEEEb
_ZN7android8hardware4gnss4V1_021IGnssBatchingCallback8castFromERKNS_2spIS3_EEb
_ZN7android8hardware4gnss4V1_021IGnssGeofenceCallback10descriptorE
_ZN7android8hardware4gnss4V1_021IGnssGeofenceCallback10getServiceERKNSt3__112basic_stringIcNS4_11char_traitsIcEENS4_9allocatorIcEEEEb
_ZN7android8hardware4gnss4V1_021IGnssGeofenceCallback11linkToDeathERKNS_2spINS0_20hidl_death_recipientEEEy
_ZN7android8hardware4gnss4V1_021IGnssGeofenceCallback12getDebugInfoENSt3__18functionIFvRKNS_4hidl4base4V1_09DebugInfoEEEE
_ZN7android8hardware4gnss4V1_021IGnssGeofenceCallback12getHashChainENSt3__18functionIFvRKNS0_8hidl_vecINS0_10hidl_arrayIhLj32EJEEEEEEEE
_ZN7android8hardware4gnss4V1_021IGnssGeofenceCallback13tryGetServiceERKNSt3__112basic_stringIcNS4_11char_traitsIcEENS4_9allocatorIcEEEEb
_ZN7android8hardware4gnss4V1_021IGnssGeofenceCallback13unlinkToDeathERKNS_2spINS0_20hidl_death_recipientEEE
_ZN7android8hardware4gnss4V1_021IGnssGeofenceCallback14interfaceChainENSt3__18functionIFvRKNS0_8hidl_vecINS0_11hidl_stringEEEEEE
_ZN7android8hardware4gnss4V1_021IGnssGeofenceCallback17registerAsServiceERKNSt3__112basic_stringIcNS4_11char_traitsIcEENS4_9allocatorIcEEEE
_ZN7android8hardware4gnss4V1_021IGnssGeofenceCallback19interfaceDescriptorENSt3__18functionIFvRKNS0_11hidl_stringEEEE
_ZN7android8hardware4gnss4V1_021IGnssGeofenceCallback21notifySyspropsChangedEv
_ZN7android8hardware4gnss4V1_021IGnssGeofenceCallback21setHALInstrumentationEv
_ZN7android8hardware4gnss4V1_021IGnssGeofenceCallback24registerForNotificationsERKNSt3__112basic_stringIcNS4_11char_traitsIcEENS4_9allocatorIcEEEERKNS_2spINS_4hidl7manager4V1_020IServiceNotificationEEE
_ZN7android8hardware4gnss4V1_021IGnssGeofenceCallback4pingEv
_ZN7android8hardware4gnss4V1_021IGnssGeofenceCallback5debugERKNS0_11hidl_handleERKNS0_8hidl_vecINS0_11hidl_stringEEE
_ZN7android8hardware4gnss4V1_021IGnssGeofenceCallback8castFromERKNS_2spINS_4hidl4base4V1_05IBaseEEEb
_ZN7android8hardware4gnss4V1_021IGnssGeofenceCallback8castFromERKNS_2spIS3_EEb
_ZN7android8hardware4gnss4V1_021writeEmbeddedToParcelERKNS2_10IGnssDebug9DebugDataEPNS0_6ParcelEjj
_ZN7android8hardware4gnss4V1_021writeEmbeddedToParcelERKNS2_15IGnssNiCallback18GnssNiNotificationEPNS0_6ParcelEjj
_ZN7android8hardware4gnss4V1_021writeEmbeddedToParcelERKNS2_30IGnssNavigationMessageCallback21GnssNavigationMessageEPNS0_6ParcelEjj
_ZN7android8hardware4gnss4V1_022BsGnssBatchingCallback13addOnewayTaskENSt3__18functionIFvvEEE
_ZN7android8hardware4gnss4V1_022BsGnssBatchingCallbackC1ENS_2spINS2_21IGnssBatchingCallbackEEE
_ZN7android8hardware4gnss4V1_022BsGnssBatchingCallbackC2ENS_2spINS2_21IGnssBatchingCallbackEEE
_ZN7android8hardware4gnss4V1_022BsGnssGeofenceCallback13addOnewayTaskENSt3__18functionIFvvEEE
_ZN7android8hardware4gnss4V1_022BsGnssGeofenceCallbackC1ENS_2spINS2_21IGnssGeofenceCallbackEEE
_ZN7android8hardware4gnss4V1_022BsGnssGeofenceCallbackC2ENS_2spINS2_21IGnssGeofenceCallbackEEE
_ZN7android8hardware4gnss4V1_022IGnssNavigationMessage10descriptorE
_ZN7android8hardware4gnss4V1_022IGnssNavigationMessage10getServiceERKNSt3__112basic_stringIcNS4_11char_traitsIcEENS4_9allocatorIcEEEEb
_ZN7android8hardware4gnss4V1_022IGnssNavigationMessage11linkToDeathERKNS_2spINS0_20hidl_death_recipientEEEy
_ZN7android8hardware4gnss4V1_022IGnssNavigationMessage12getDebugInfoENSt3__18functionIFvRKNS_4hidl4base4V1_09DebugInfoEEEE
_ZN7android8hardware4gnss4V1_022IGnssNavigationMessage12getHashChainENSt3__18functionIFvRKNS0_8hidl_vecINS0_10hidl_arrayIhLj32EJEEEEEEEE
_ZN7android8hardware4gnss4V1_022IGnssNavigationMessage13tryGetServiceERKNSt3__112basic_stringIcNS4_11char_traitsIcEENS4_9allocatorIcEEEEb
_ZN7android8hardware4gnss4V1_022IGnssNavigationMessage13unlinkToDeathERKNS_2spINS0_20hidl_death_recipientEEE
_ZN7android8hardware4gnss4V1_022IGnssNavigationMessage14interfaceChainENSt3__18functionIFvRKNS0_8hidl_vecINS0_11hidl_stringEEEEEE
_ZN7android8hardware4gnss4V1_022IGnssNavigationMessage17registerAsServiceERKNSt3__112basic_stringIcNS4_11char_traitsIcEENS4_9allocatorIcEEEE
_ZN7android8hardware4gnss4V1_022IGnssNavigationMessage19interfaceDescriptorENSt3__18functionIFvRKNS0_11hidl_stringEEEE
_ZN7android8hardware4gnss4V1_022IGnssNavigationMessage21notifySyspropsChangedEv
_ZN7android8hardware4gnss4V1_022IGnssNavigationMessage21setHALInstrumentationEv
_ZN7android8hardware4gnss4V1_022IGnssNavigationMessage24registerForNotificationsERKNSt3__112basic_stringIcNS4_11char_traitsIcEENS4_9allocatorIcEEEERKNS_2spINS_4hidl7manager4V1_020IServiceNotificationEEE
_ZN7android8hardware4gnss4V1_022IGnssNavigationMessage4pingEv
_ZN7android8hardware4gnss4V1_022IGnssNavigationMessage5debugERKNS0_11hidl_handleERKNS0_8hidl_vecINS0_11hidl_stringEEE
_ZN7android8hardware4gnss4V1_022IGnssNavigationMessage8castFromERKNS_2spINS_4hidl4base4V1_05IBaseEEEb
_ZN7android8hardware4gnss4V1_022IGnssNavigationMessage8castFromERKNS_2spIS3_EEb
_ZN7android8hardware4gnss4V1_022readEmbeddedFromParcelERKNS2_10IGnssDebug9DebugDataERKNS0_6ParcelEjj
_ZN7android8hardware4gnss4V1_022readEmbeddedFromParcelERKNS2_15IGnssNiCallback18GnssNiNotificationERKNS0_6ParcelEjj
_ZN7android8hardware4gnss4V1_022readEmbeddedFromParcelERKNS2_30IGnssNavigationMessageCallback21GnssNavigationMessageERKNS0_6ParcelEjj
_ZN7android8hardware4gnss4V1_023BsGnssNavigationMessage13addOnewayTaskENSt3__18functionIFvvEEE
_ZN7android8hardware4gnss4V1_023BsGnssNavigationMessageC1ENS_2spINS2_22IGnssNavigationMessageEEE
_ZN7android8hardware4gnss4V1_023BsGnssNavigationMessageC2ENS_2spINS2_22IGnssNavigationMessageEEE
_ZN7android8hardware4gnss4V1_024BnHwGnssBatchingCallback10onTransactEjRKNS0_6ParcelEPS4_jNSt3__18functionIFvRS4_EEE
_ZN7android8hardware4gnss4V1_024BnHwGnssBatchingCallback12getDebugInfoENSt3__18functionIFvRKNS_4hidl4base4V1_09DebugInfoEEEE
_ZN7android8hardware4gnss4V1_024BnHwGnssBatchingCallback25_hidl_gnssLocationBatchCbEPNS_4hidl4base4V1_08BnHwBaseERKNS0_6ParcelEPS9_NSt3__18functionIFvRS9_EEE
_ZN7android8hardware4gnss4V1_024BnHwGnssBatchingCallback4pingEv
_ZN7android8hardware4gnss4V1_024BnHwGnssBatchingCallbackC1ERKNS_2spINS2_21IGnssBatchingCallbackEEE
_ZN7android8hardware4gnss4V1_024BnHwGnssBatchingCallbackC2ERKNS_2spINS2_21IGnssBatchingCallbackEEE
_ZN7android8hardware4gnss4V1_024BnHwGnssBatchingCallbackD0Ev
_ZN7android8hardware4gnss4V1_024BnHwGnssBatchingCallbackD1Ev
_ZN7android8hardware4gnss4V1_024BnHwGnssBatchingCallbackD2Ev
_ZN7android8hardware4gnss4V1_024BnHwGnssGeofenceCallback10onTransactEjRKNS0_6ParcelEPS4_jNSt3__18functionIFvRS4_EEE
_ZN7android8hardware4gnss4V1_024BnHwGnssGeofenceCallback12getDebugInfoENSt3__18functionIFvRKNS_4hidl4base4V1_09DebugInfoEEEE
_ZN7android8hardware4gnss4V1_024BnHwGnssGeofenceCallback23_hidl_gnssGeofenceAddCbEPNS_4hidl4base4V1_08BnHwBaseERKNS0_6ParcelEPS9_NSt3__18functionIFvRS9_EEE
_ZN7android8hardware4gnss4V1_024BnHwGnssGeofenceCallback25_hidl_gnssGeofencePauseCbEPNS_4hidl4base4V1_08BnHwBaseERKNS0_6ParcelEPS9_NSt3__18functionIFvRS9_EEE
_ZN7android8hardware4gnss4V1_024BnHwGnssGeofenceCallback26_hidl_gnssGeofenceRemoveCbEPNS_4hidl4base4V1_08BnHwBaseERKNS0_6ParcelEPS9_NSt3__18functionIFvRS9_EEE
_ZN7android8hardware4gnss4V1_024BnHwGnssGeofenceCallback26_hidl_gnssGeofenceResumeCbEPNS_4hidl4base4V1_08BnHwBaseERKNS0_6ParcelEPS9_NSt3__18functionIFvRS9_EEE
_ZN7android8hardware4gnss4V1_024BnHwGnssGeofenceCallback26_hidl_gnssGeofenceStatusCbEPNS_4hidl4base4V1_08BnHwBaseERKNS0_6ParcelEPS9_NSt3__18functionIFvRS9_EEE
_ZN7android8hardware4gnss4V1_024BnHwGnssGeofenceCallback30_hidl_gnssGeofenceTransitionCbEPNS_4hidl4base4V1_08BnHwBaseERKNS0_6ParcelEPS9_NSt3__18functionIFvRS9_EEE
_ZN7android8hardware4gnss4V1_024BnHwGnssGeofenceCallback4pingEv
_ZN7android8hardware4gnss4V1_024BnHwGnssGeofenceCallbackC1ERKNS_2spINS2_21IGnssGeofenceCallbackEEE
_ZN7android8hardware4gnss4V1_024BnHwGnssGeofenceCallbackC2ERKNS_2spINS2_21IGnssGeofenceCallbackEEE
_ZN7android8hardware4gnss4V1_024BnHwGnssGeofenceCallbackD0Ev
_ZN7android8hardware4gnss4V1_024BnHwGnssGeofenceCallbackD1Ev
_ZN7android8hardware4gnss4V1_024BnHwGnssGeofenceCallbackD2Ev
_ZN7android8hardware4gnss4V1_024BpHwGnssBatchingCallback11linkToDeathERKNS_2spINS0_20hidl_death_recipientEEEy
_ZN7android8hardware4gnss4V1_024BpHwGnssBatchingCallback12getDebugInfoENSt3__18functionIFvRKNS_4hidl4base4V1_09DebugInfoEEEE
_ZN7android8hardware4gnss4V1_024BpHwGnssBatchingCallback12getHashChainENSt3__18functionIFvRKNS0_8hidl_vecINS0_10hidl_arrayIhLj32EJEEEEEEEE
_ZN7android8hardware4gnss4V1_024BpHwGnssBatchingCallback13unlinkToDeathERKNS_2spINS0_20hidl_death_recipientEEE
_ZN7android8hardware4gnss4V1_024BpHwGnssBatchingCallback14interfaceChainENSt3__18functionIFvRKNS0_8hidl_vecINS0_11hidl_stringEEEEEE
_ZN7android8hardware4gnss4V1_024BpHwGnssBatchingCallback19gnssLocationBatchCbERKNS0_8hidl_vecINS2_12GnssLocationEEE
_ZN7android8hardware4gnss4V1_024BpHwGnssBatchingCallback19interfaceDescriptorENSt3__18functionIFvRKNS0_11hidl_stringEEEE
_ZN7android8hardware4gnss4V1_024BpHwGnssBatchingCallback21notifySyspropsChangedEv
_ZN7android8hardware4gnss4V1_024BpHwGnssBatchingCallback21setHALInstrumentationEv
_ZN7android8hardware4gnss4V1_024BpHwGnssBatchingCallback25_hidl_gnssLocationBatchCbEPNS0_10IInterfaceEPNS0_7details16HidlInstrumentorERKNS0_8hidl_vecINS2_12GnssLocationEEE
_ZN7android8hardware4gnss4V1_024BpHwGnssBatchingCallback4pingEv
_ZN7android8hardware4gnss4V1_024BpHwGnssBatchingCallback5debugERKNS0_11hidl_handleERKNS0_8hidl_vecINS0_11hidl_stringEEE
_ZN7android8hardware4gnss4V1_024BpHwGnssBatchingCallbackC1ERKNS_2spINS0_7IBinderEEE
_ZN7android8hardware4gnss4V1_024BpHwGnssBatchingCallbackC2ERKNS_2spINS0_7IBinderEEE
_ZN7android8hardware4gnss4V1_024BpHwGnssGeofenceCallback11linkToDeathERKNS_2spINS0_20hidl_death_recipientEEEy
_ZN7android8hardware4gnss4V1_024BpHwGnssGeofenceCallback12getDebugInfoENSt3__18functionIFvRKNS_4hidl4base4V1_09DebugInfoEEEE
_ZN7android8hardware4gnss4V1_024BpHwGnssGeofenceCallback12getHashChainENSt3__18functionIFvRKNS0_8hidl_vecINS0_10hidl_arrayIhLj32EJEEEEEEEE
_ZN7android8hardware4gnss4V1_024BpHwGnssGeofenceCallback13unlinkToDeathERKNS_2spINS0_20hidl_death_recipientEEE
_ZN7android8hardware4gnss4V1_024BpHwGnssGeofenceCallback14interfaceChainENSt3__18functionIFvRKNS0_8hidl_vecINS0_11hidl_stringEEEEEE
_ZN7android8hardware4gnss4V1_024BpHwGnssGeofenceCallback17gnssGeofenceAddCbEiNS2_21IGnssGeofenceCallback14GeofenceStatusE
_ZN7android8hardware4gnss4V1_024BpHwGnssGeofenceCallback19gnssGeofencePauseCbEiNS2_21IGnssGeofenceCallback14GeofenceStatusE
_ZN7android8hardware4gnss4V1_024BpHwGnssGeofenceCallback19interfaceDescriptorENSt3__18functionIFvRKNS0_11hidl_stringEEEE
_ZN7android8hardware4gnss4V1_024BpHwGnssGeofenceCallback20gnssGeofenceRemoveCbEiNS2_21IGnssGeofenceCallback14GeofenceStatusE
_ZN7android8hardware4gnss4V1_024BpHwGnssGeofenceCallback20gnssGeofenceResumeCbEiNS2_21IGnssGeofenceCallback14GeofenceStatusE
_ZN7android8hardware4gnss4V1_024BpHwGnssGeofenceCallback20gnssGeofenceStatusCbENS2_21IGnssGeofenceCallback20GeofenceAvailabilityERKNS2_12GnssLocationE
_ZN7android8hardware4gnss4V1_024BpHwGnssGeofenceCallback21notifySyspropsChangedEv
_ZN7android8hardware4gnss4V1_024BpHwGnssGeofenceCallback21setHALInstrumentationEv
_ZN7android8hardware4gnss4V1_024BpHwGnssGeofenceCallback23_hidl_gnssGeofenceAddCbEPNS0_10IInterfaceEPNS0_7details16HidlInstrumentorEiNS2_21IGnssGeofenceCallback14GeofenceStatusE
_ZN7android8hardware4gnss4V1_024BpHwGnssGeofenceCallback24gnssGeofenceTransitionCbEiRKNS2_12GnssLocationENS2_21IGnssGeofenceCallback18GeofenceTransitionEx
_ZN7android8hardware4gnss4V1_024BpHwGnssGeofenceCallback25_hidl_gnssGeofencePauseCbEPNS0_10IInterfaceEPNS0_7details16HidlInstrumentorEiNS2_21IGnssGeofenceCallback14GeofenceStatusE
_ZN7android8hardware4gnss4V1_024BpHwGnssGeofenceCallback26_hidl_gnssGeofenceRemoveCbEPNS0_10IInterfaceEPNS0_7details16HidlInstrumentorEiNS2_21IGnssGeofenceCallback14GeofenceStatusE
_ZN7android8hardware4gnss4V1_024BpHwGnssGeofenceCallback26_hidl_gnssGeofenceResumeCbEPNS0_10IInterfaceEPNS0_7details16HidlInstrumentorEiNS2_21IGnssGeofenceCallback14GeofenceStatusE
_ZN7android8hardware4gnss4V1_024BpHwGnssGeofenceCallback26_hidl_gnssGeofenceStatusCbEPNS0_10IInterfaceEPNS0_7details16HidlInstrumentorENS2_21IGnssGeofenceCallback20GeofenceAvailabilityERKNS2_12GnssLocationE
_ZN7android8hardware4gnss4V1_024BpHwGnssGeofenceCallback30_hidl_gnssGeofenceTransitionCbEPNS0_10IInterfaceEPNS0_7details16HidlInstrumentorEiRKNS2_12GnssLocationENS2_21IGnssGeofenceCallback18GeofenceTransitionEx
_ZN7android8hardware4gnss4V1_024BpHwGnssGeofenceCallback4pingEv
_ZN7android8hardware4gnss4V1_024BpHwGnssGeofenceCallback5debugERKNS0_11hidl_handleERKNS0_8hidl_vecINS0_11hidl_stringEEE
_ZN7android8hardware4gnss4V1_024BpHwGnssGeofenceCallbackC1ERKNS_2spINS0_7IBinderEEE
_ZN7android8hardware4gnss4V1_024BpHwGnssGeofenceCallbackC2ERKNS_2spINS0_7IBinderEEE
_ZN7android8hardware4gnss4V1_024IGnssMeasurementCallback10descriptorE
_ZN7android8hardware4gnss4V1_024IGnssMeasurementCallback10getServiceERKNSt3__112basic_stringIcNS4_11char_traitsIcEENS4_9allocatorIcEEEEb
_ZN7android8hardware4gnss4V1_024IGnssMeasurementCallback11linkToDeathERKNS_2spINS0_20hidl_death_recipientEEEy
_ZN7android8hardware4gnss4V1_024IGnssMeasurementCallback12getDebugInfoENSt3__18functionIFvRKNS_4hidl4base4V1_09DebugInfoEEEE
_ZN7android8hardware4gnss4V1_024IGnssMeasurementCallback12getHashChainENSt3__18functionIFvRKNS0_8hidl_vecINS0_10hidl_arrayIhLj32EJEEEEEEEE
_ZN7android8hardware4gnss4V1_024IGnssMeasurementCallback13tryGetServiceERKNSt3__112basic_stringIcNS4_11char_traitsIcEENS4_9allocatorIcEEEEb
_ZN7android8hardware4gnss4V1_024IGnssMeasurementCallback13unlinkToDeathERKNS_2spINS0_20hidl_death_recipientEEE
_ZN7android8hardware4gnss4V1_024IGnssMeasurementCallback14interfaceChainENSt3__18functionIFvRKNS0_8hidl_vecINS0_11hidl_stringEEEEEE
_ZN7android8hardware4gnss4V1_024IGnssMeasurementCallback17registerAsServiceERKNSt3__112basic_stringIcNS4_11char_traitsIcEENS4_9allocatorIcEEEE
_ZN7android8hardware4gnss4V1_024IGnssMeasurementCallback19interfaceDescriptorENSt3__18functionIFvRKNS0_11hidl_stringEEEE
_ZN7android8hardware4gnss4V1_024IGnssMeasurementCallback21notifySyspropsChangedEv
_ZN7android8hardware4gnss4V1_024IGnssMeasurementCallback21setHALInstrumentationEv
_ZN7android8hardware4gnss4V1_024IGnssMeasurementCallback24registerForNotificationsERKNSt3__112basic_stringIcNS4_11char_traitsIcEENS4_9allocatorIcEEEERKNS_2spINS_4hidl7manager4V1_020IServiceNotificationEEE
_ZN7android8hardware4gnss4V1_024IGnssMeasurementCallback4pingEv
_ZN7android8hardware4gnss4V1_024IGnssMeasurementCallback5debugERKNS0_11hidl_handleERKNS0_8hidl_vecINS0_11hidl_stringEEE
_ZN7android8hardware4gnss4V1_024IGnssMeasurementCallback8castFromERKNS_2spINS_4hidl4base4V1_05IBaseEEEb
_ZN7android8hardware4gnss4V1_024IGnssMeasurementCallback8castFromERKNS_2spIS3_EEb
_ZN7android8hardware4gnss4V1_025BnHwGnssNavigationMessage10onTransactEjRKNS0_6ParcelEPS4_jNSt3__18functionIFvRS4_EEE
_ZN7android8hardware4gnss4V1_025BnHwGnssNavigationMessage11_hidl_closeEPNS_4hidl4base4V1_08BnHwBaseERKNS0_6ParcelEPS9_NSt3__18functionIFvRS9_EEE
_ZN7android8hardware4gnss4V1_025BnHwGnssNavigationMessage12getDebugInfoENSt3__18functionIFvRKNS_4hidl4base4V1_09DebugInfoEEEE
_ZN7android8hardware4gnss4V1_025BnHwGnssNavigationMessage17_hidl_setCallbackEPNS_4hidl4base4V1_08BnHwBaseERKNS0_6ParcelEPS9_NSt3__18functionIFvRS9_EEE
_ZN7android8hardware4gnss4V1_025BnHwGnssNavigationMessage4pingEv
_ZN7android8hardware4gnss4V1_025BnHwGnssNavigationMessageC1ERKNS_2spINS2_22IGnssNavigationMessageEEE
_ZN7android8hardware4gnss4V1_025BnHwGnssNavigationMessageC2ERKNS_2spINS2_22IGnssNavigationMessageEEE
_ZN7android8hardware4gnss4V1_025BnHwGnssNavigationMessageD0Ev
_ZN7android8hardware4gnss4V1_025BnHwGnssNavigationMessageD1Ev
_ZN7android8hardware4gnss4V1_025BnHwGnssNavigationMessageD2Ev
_ZN7android8hardware4gnss4V1_025BpHwGnssNavigationMessage11_hidl_closeEPNS0_10IInterfaceEPNS0_7details16HidlInstrumentorE
_ZN7android8hardware4gnss4V1_025BpHwGnssNavigationMessage11linkToDeathERKNS_2spINS0_20hidl_death_recipientEEEy
_ZN7android8hardware4gnss4V1_025BpHwGnssNavigationMessage11setCallbackERKNS_2spINS2_30IGnssNavigationMessageCallbackEEE
_ZN7android8hardware4gnss4V1_025BpHwGnssNavigationMessage12getDebugInfoENSt3__18functionIFvRKNS_4hidl4base4V1_09DebugInfoEEEE
_ZN7android8hardware4gnss4V1_025BpHwGnssNavigationMessage12getHashChainENSt3__18functionIFvRKNS0_8hidl_vecINS0_10hidl_arrayIhLj32EJEEEEEEEE
_ZN7android8hardware4gnss4V1_025BpHwGnssNavigationMessage13unlinkToDeathERKNS_2spINS0_20hidl_death_recipientEEE
_ZN7android8hardware4gnss4V1_025BpHwGnssNavigationMessage14interfaceChainENSt3__18functionIFvRKNS0_8hidl_vecINS0_11hidl_stringEEEEEE
_ZN7android8hardware4gnss4V1_025BpHwGnssNavigationMessage17_hidl_setCallbackEPNS0_10IInterfaceEPNS0_7details16HidlInstrumentorERKNS_2spINS2_30IGnssNavigationMessageCallbackEEE
_ZN7android8hardware4gnss4V1_025BpHwGnssNavigationMessage19interfaceDescriptorENSt3__18functionIFvRKNS0_11hidl_stringEEEE
_ZN7android8hardware4gnss4V1_025BpHwGnssNavigationMessage21notifySyspropsChangedEv
_ZN7android8hardware4gnss4V1_025BpHwGnssNavigationMessage21setHALInstrumentationEv
_ZN7android8hardware4gnss4V1_025BpHwGnssNavigationMessage4pingEv
_ZN7android8hardware4gnss4V1_025BpHwGnssNavigationMessage5closeEv
_ZN7android8hardware4gnss4V1_025BpHwGnssNavigationMessage5debugERKNS0_11hidl_handleERKNS0_8hidl_vecINS0_11hidl_stringEEE
_ZN7android8hardware4gnss4V1_025BpHwGnssNavigationMessageC1ERKNS_2spINS0_7IBinderEEE
_ZN7android8hardware4gnss4V1_025BpHwGnssNavigationMessageC2ERKNS_2spINS0_7IBinderEEE
_ZN7android8hardware4gnss4V1_025BsGnssMeasurementCallback13addOnewayTaskENSt3__18functionIFvvEEE
_ZN7android8hardware4gnss4V1_025BsGnssMeasurementCallbackC1ENS_2spINS2_24IGnssMeasurementCallbackEEE
_ZN7android8hardware4gnss4V1_025BsGnssMeasurementCallbackC2ENS_2spINS2_24IGnssMeasurementCallbackEEE
_ZN7android8hardware4gnss4V1_027BnHwGnssMeasurementCallback10onTransactEjRKNS0_6ParcelEPS4_jNSt3__18functionIFvRS4_EEE
_ZN7android8hardware4gnss4V1_027BnHwGnssMeasurementCallback12getDebugInfoENSt3__18functionIFvRKNS_4hidl4base4V1_09DebugInfoEEEE
_ZN7android8hardware4gnss4V1_027BnHwGnssMeasurementCallback23_hidl_GnssMeasurementCbEPNS_4hidl4base4V1_08BnHwBaseERKNS0_6ParcelEPS9_NSt3__18functionIFvRS9_EEE
_ZN7android8hardware4gnss4V1_027BnHwGnssMeasurementCallback4pingEv
_ZN7android8hardware4gnss4V1_027BnHwGnssMeasurementCallbackC1ERKNS_2spINS2_24IGnssMeasurementCallbackEEE
_ZN7android8hardware4gnss4V1_027BnHwGnssMeasurementCallbackC2ERKNS_2spINS2_24IGnssMeasurementCallbackEEE
_ZN7android8hardware4gnss4V1_027BnHwGnssMeasurementCallbackD0Ev
_ZN7android8hardware4gnss4V1_027BnHwGnssMeasurementCallbackD1Ev
_ZN7android8hardware4gnss4V1_027BnHwGnssMeasurementCallbackD2Ev
_ZN7android8hardware4gnss4V1_027BpHwGnssMeasurementCallback11linkToDeathERKNS_2spINS0_20hidl_death_recipientEEEy
_ZN7android8hardware4gnss4V1_027BpHwGnssMeasurementCallback12getDebugInfoENSt3__18functionIFvRKNS_4hidl4base4V1_09DebugInfoEEEE
_ZN7android8hardware4gnss4V1_027BpHwGnssMeasurementCallback12getHashChainENSt3__18functionIFvRKNS0_8hidl_vecINS0_10hidl_arrayIhLj32EJEEEEEEEE
_ZN7android8hardware4gnss4V1_027BpHwGnssMeasurementCallback13unlinkToDeathERKNS_2spINS0_20hidl_death_recipientEEE
_ZN7android8hardware4gnss4V1_027BpHwGnssMeasurementCallback14interfaceChainENSt3__18functionIFvRKNS0_8hidl_vecINS0_11hidl_stringEEEEEE
_ZN7android8hardware4gnss4V1_027BpHwGnssMeasurementCallback17GnssMeasurementCbERKNS2_24IGnssMeasurementCallback8GnssDataE
_ZN7android8hardware4gnss4V1_027BpHwGnssMeasurementCallback19interfaceDescriptorENSt3__18functionIFvRKNS0_11hidl_stringEEEE
_ZN7android8hardware4gnss4V1_027BpHwGnssMeasurementCallback21notifySyspropsChangedEv
_ZN7android8hardware4gnss4V1_027BpHwGnssMeasurementCallback21setHALInstrumentationEv
_ZN7android8hardware4gnss4V1_027BpHwGnssMeasurementCallback23_hidl_GnssMeasurementCbEPNS0_10IInterfaceEPNS0_7details16HidlInstrumentorERKNS2_24IGnssMeasurementCallback8GnssDataE
_ZN7android8hardware4gnss4V1_027BpHwGnssMeasurementCallback4pingEv
_ZN7android8hardware4gnss4V1_027BpHwGnssMeasurementCallback5debugERKNS0_11hidl_handleERKNS0_8hidl_vecINS0_11hidl_stringEEE
_ZN7android8hardware4gnss4V1_027BpHwGnssMeasurementCallbackC1ERKNS_2spINS0_7IBinderEEE
_ZN7android8hardware4gnss4V1_027BpHwGnssMeasurementCallbackC2ERKNS_2spINS0_7IBinderEEE
_ZN7android8hardware4gnss4V1_030IGnssNavigationMessageCallback10descriptorE
_ZN7android8hardware4gnss4V1_030IGnssNavigationMessageCallback10getServiceERKNSt3__112basic_stringIcNS4_11char_traitsIcEENS4_9allocatorIcEEEEb
_ZN7android8hardware4gnss4V1_030IGnssNavigationMessageCallback11linkToDeathERKNS_2spINS0_20hidl_death_recipientEEEy
_ZN7android8hardware4gnss4V1_030IGnssNavigationMessageCallback12getDebugInfoENSt3__18functionIFvRKNS_4hidl4base4V1_09DebugInfoEEEE
_ZN7android8hardware4gnss4V1_030IGnssNavigationMessageCallback12getHashChainENSt3__18functionIFvRKNS0_8hidl_vecINS0_10hidl_arrayIhLj32EJEEEEEEEE
_ZN7android8hardware4gnss4V1_030IGnssNavigationMessageCallback13tryGetServiceERKNSt3__112basic_stringIcNS4_11char_traitsIcEENS4_9allocatorIcEEEEb
_ZN7android8hardware4gnss4V1_030IGnssNavigationMessageCallback13unlinkToDeathERKNS_2spINS0_20hidl_death_recipientEEE
_ZN7android8hardware4gnss4V1_030IGnssNavigationMessageCallback14interfaceChainENSt3__18functionIFvRKNS0_8hidl_vecINS0_11hidl_stringEEEEEE
_ZN7android8hardware4gnss4V1_030IGnssNavigationMessageCallback17registerAsServiceERKNSt3__112basic_stringIcNS4_11char_traitsIcEENS4_9allocatorIcEEEE
_ZN7android8hardware4gnss4V1_030IGnssNavigationMessageCallback19interfaceDescriptorENSt3__18functionIFvRKNS0_11hidl_stringEEEE
_ZN7android8hardware4gnss4V1_030IGnssNavigationMessageCallback21notifySyspropsChangedEv
_ZN7android8hardware4gnss4V1_030IGnssNavigationMessageCallback21setHALInstrumentationEv
_ZN7android8hardware4gnss4V1_030IGnssNavigationMessageCallback24registerForNotificationsERKNSt3__112basic_stringIcNS4_11char_traitsIcEENS4_9allocatorIcEEEERKNS_2spINS_4hidl7manager4V1_020IServiceNotificationEEE
_ZN7android8hardware4gnss4V1_030IGnssNavigationMessageCallback4pingEv
_ZN7android8hardware4gnss4V1_030IGnssNavigationMessageCallback5debugERKNS0_11hidl_handleERKNS0_8hidl_vecINS0_11hidl_stringEEE
_ZN7android8hardware4gnss4V1_030IGnssNavigationMessageCallback8castFromERKNS_2spINS_4hidl4base4V1_05IBaseEEEb
_ZN7android8hardware4gnss4V1_030IGnssNavigationMessageCallback8castFromERKNS_2spIS3_EEb
_ZN7android8hardware4gnss4V1_031BsGnssNavigationMessageCallback13addOnewayTaskENSt3__18functionIFvvEEE
_ZN7android8hardware4gnss4V1_031BsGnssNavigationMessageCallbackC1ENS_2spINS2_30IGnssNavigationMessageCallbackEEE
_ZN7android8hardware4gnss4V1_031BsGnssNavigationMessageCallbackC2ENS_2spINS2_30IGnssNavigationMessageCallbackEEE
_ZN7android8hardware4gnss4V1_033BnHwGnssNavigationMessageCallback10onTransactEjRKNS0_6ParcelEPS4_jNSt3__18functionIFvRS4_EEE
_ZN7android8hardware4gnss4V1_033BnHwGnssNavigationMessageCallback12getDebugInfoENSt3__18functionIFvRKNS_4hidl4base4V1_09DebugInfoEEEE
_ZN7android8hardware4gnss4V1_033BnHwGnssNavigationMessageCallback29_hidl_gnssNavigationMessageCbEPNS_4hidl4base4V1_08BnHwBaseERKNS0_6ParcelEPS9_NSt3__18functionIFvRS9_EEE
_ZN7android8hardware4gnss4V1_033BnHwGnssNavigationMessageCallback4pingEv
_ZN7android8hardware4gnss4V1_033BnHwGnssNavigationMessageCallbackC1ERKNS_2spINS2_30IGnssNavigationMessageCallbackEEE
_ZN7android8hardware4gnss4V1_033BnHwGnssNavigationMessageCallbackC2ERKNS_2spINS2_30IGnssNavigationMessageCallbackEEE
_ZN7android8hardware4gnss4V1_033BnHwGnssNavigationMessageCallbackD0Ev
_ZN7android8hardware4gnss4V1_033BnHwGnssNavigationMessageCallbackD1Ev
_ZN7android8hardware4gnss4V1_033BnHwGnssNavigationMessageCallbackD2Ev
_ZN7android8hardware4gnss4V1_033BpHwGnssNavigationMessageCallback11linkToDeathERKNS_2spINS0_20hidl_death_recipientEEEy
_ZN7android8hardware4gnss4V1_033BpHwGnssNavigationMessageCallback12getDebugInfoENSt3__18functionIFvRKNS_4hidl4base4V1_09DebugInfoEEEE
_ZN7android8hardware4gnss4V1_033BpHwGnssNavigationMessageCallback12getHashChainENSt3__18functionIFvRKNS0_8hidl_vecINS0_10hidl_arrayIhLj32EJEEEEEEEE
_ZN7android8hardware4gnss4V1_033BpHwGnssNavigationMessageCallback13unlinkToDeathERKNS_2spINS0_20hidl_death_recipientEEE
_ZN7android8hardware4gnss4V1_033BpHwGnssNavigationMessageCallback14interfaceChainENSt3__18functionIFvRKNS0_8hidl_vecINS0_11hidl_stringEEEEEE
_ZN7android8hardware4gnss4V1_033BpHwGnssNavigationMessageCallback19interfaceDescriptorENSt3__18functionIFvRKNS0_11hidl_stringEEEE
_ZN7android8hardware4gnss4V1_033BpHwGnssNavigationMessageCallback21notifySyspropsChangedEv
_ZN7android8hardware4gnss4V1_033BpHwGnssNavigationMessageCallback21setHALInstrumentationEv
_ZN7android8hardware4gnss4V1_033BpHwGnssNavigationMessageCallback23gnssNavigationMessageCbERKNS2_30IGnssNavigationMessageCallback21GnssNavigationMessageE
_ZN7android8hardware4gnss4V1_033BpHwGnssNavigationMessageCallback29_hidl_gnssNavigationMessageCbEPNS0_10IInterfaceEPNS0_7details16HidlInstrumentorERKNS2_30IGnssNavigationMessageCallback21GnssNavigationMessageE
_ZN7android8hardware4gnss4V1_033BpHwGnssNavigationMessageCallback4pingEv
_ZN7android8hardware4gnss4V1_033BpHwGnssNavigationMessageCallback5debugERKNS0_11hidl_handleERKNS0_8hidl_vecINS0_11hidl_stringEEE
_ZN7android8hardware4gnss4V1_033BpHwGnssNavigationMessageCallbackC1ERKNS_2spINS0_7IBinderEEE
_ZN7android8hardware4gnss4V1_033BpHwGnssNavigationMessageCallbackC2ERKNS_2spINS0_7IBinderEEE
_ZN7android8hardware4gnss4V1_05IGnss10descriptorE
_ZN7android8hardware4gnss4V1_05IGnss10getServiceERKNSt3__112basic_stringIcNS4_11char_traitsIcEENS4_9allocatorIcEEEEb
_ZN7android8hardware4gnss4V1_05IGnss11linkToDeathERKNS_2spINS0_20hidl_death_recipientEEEy
_ZN7android8hardware4gnss4V1_05IGnss12getDebugInfoENSt3__18functionIFvRKNS_4hidl4base4V1_09DebugInfoEEEE
_ZN7android8hardware4gnss4V1_05IGnss12getHashChainENSt3__18functionIFvRKNS0_8hidl_vecINS0_10hidl_arrayIhLj32EJEEEEEEEE
_ZN7android8hardware4gnss4V1_05IGnss13tryGetServiceERKNSt3__112basic_stringIcNS4_11char_traitsIcEENS4_9allocatorIcEEEEb
_ZN7android8hardware4gnss4V1_05IGnss13unlinkToDeathERKNS_2spINS0_20hidl_death_recipientEEE
_ZN7android8hardware4gnss4V1_05IGnss14interfaceChainENSt3__18functionIFvRKNS0_8hidl_vecINS0_11hidl_stringEEEEEE
_ZN7android8hardware4gnss4V1_05IGnss17registerAsServiceERKNSt3__112basic_stringIcNS4_11char_traitsIcEENS4_9allocatorIcEEEE
_ZN7android8hardware4gnss4V1_05IGnss19interfaceDescriptorENSt3__18functionIFvRKNS0_11hidl_stringEEEE
_ZN7android8hardware4gnss4V1_05IGnss21notifySyspropsChangedEv
_ZN7android8hardware4gnss4V1_05IGnss21setHALInstrumentationEv
_ZN7android8hardware4gnss4V1_05IGnss24registerForNotificationsERKNSt3__112basic_stringIcNS4_11char_traitsIcEENS4_9allocatorIcEEEERKNS_2spINS_4hidl7manager4V1_020IServiceNotificationEEE
_ZN7android8hardware4gnss4V1_05IGnss4pingEv
_ZN7android8hardware4gnss4V1_05IGnss5debugERKNS0_11hidl_handleERKNS0_8hidl_vecINS0_11hidl_stringEEE
_ZN7android8hardware4gnss4V1_05IGnss8castFromERKNS_2spINS_4hidl4base4V1_05IBaseEEEb
_ZN7android8hardware4gnss4V1_05IGnss8castFromERKNS_2spIS3_EEb
_ZN7android8hardware4gnss4V1_06BsGnss13addOnewayTaskENSt3__18functionIFvvEEE
_ZN7android8hardware4gnss4V1_06BsGnssC1ENS_2spINS2_5IGnssEEE
_ZN7android8hardware4gnss4V1_06BsGnssC2ENS_2spINS2_5IGnssEEE
_ZN7android8hardware4gnss4V1_06IAGnss10descriptorE
_ZN7android8hardware4gnss4V1_06IAGnss10getServiceERKNSt3__112basic_stringIcNS4_11char_traitsIcEENS4_9allocatorIcEEEEb
_ZN7android8hardware4gnss4V1_06IAGnss11linkToDeathERKNS_2spINS0_20hidl_death_recipientEEEy
_ZN7android8hardware4gnss4V1_06IAGnss12getDebugInfoENSt3__18functionIFvRKNS_4hidl4base4V1_09DebugInfoEEEE
_ZN7android8hardware4gnss4V1_06IAGnss12getHashChainENSt3__18functionIFvRKNS0_8hidl_vecINS0_10hidl_arrayIhLj32EJEEEEEEEE
_ZN7android8hardware4gnss4V1_06IAGnss13tryGetServiceERKNSt3__112basic_stringIcNS4_11char_traitsIcEENS4_9allocatorIcEEEEb
_ZN7android8hardware4gnss4V1_06IAGnss13unlinkToDeathERKNS_2spINS0_20hidl_death_recipientEEE
_ZN7android8hardware4gnss4V1_06IAGnss14interfaceChainENSt3__18functionIFvRKNS0_8hidl_vecINS0_11hidl_stringEEEEEE
_ZN7android8hardware4gnss4V1_06IAGnss17registerAsServiceERKNSt3__112basic_stringIcNS4_11char_traitsIcEENS4_9allocatorIcEEEE
_ZN7android8hardware4gnss4V1_06IAGnss19interfaceDescriptorENSt3__18functionIFvRKNS0_11hidl_stringEEEE
_ZN7android8hardware4gnss4V1_06IAGnss21notifySyspropsChangedEv
_ZN7android8hardware4gnss4V1_06IAGnss21setHALInstrumentationEv
_ZN7android8hardware4gnss4V1_06IAGnss24registerForNotificationsERKNSt3__112basic_stringIcNS4_11char_traitsIcEENS4_9allocatorIcEEEERKNS_2spINS_4hidl7manager4V1_020IServiceNotificationEEE
_ZN7android8hardware4gnss4V1_06IAGnss4pingEv
_ZN7android8hardware4gnss4V1_06IAGnss5debugERKNS0_11hidl_handleERKNS0_8hidl_vecINS0_11hidl_stringEEE
_ZN7android8hardware4gnss4V1_06IAGnss8castFromERKNS_2spINS_4hidl4base4V1_05IBaseEEEb
_ZN7android8hardware4gnss4V1_06IAGnss8castFromERKNS_2spIS3_EEb
_ZN7android8hardware4gnss4V1_07BsAGnss13addOnewayTaskENSt3__18functionIFvvEEE
_ZN7android8hardware4gnss4V1_07BsAGnssC1ENS_2spINS2_6IAGnssEEE
_ZN7android8hardware4gnss4V1_07BsAGnssC2ENS_2spINS2_6IAGnssEEE
_ZN7android8hardware4gnss4V1_07IGnssNi10descriptorE
_ZN7android8hardware4gnss4V1_07IGnssNi10getServiceERKNSt3__112basic_stringIcNS4_11char_traitsIcEENS4_9allocatorIcEEEEb
_ZN7android8hardware4gnss4V1_07IGnssNi11linkToDeathERKNS_2spINS0_20hidl_death_recipientEEEy
_ZN7android8hardware4gnss4V1_07IGnssNi12getDebugInfoENSt3__18functionIFvRKNS_4hidl4base4V1_09DebugInfoEEEE
_ZN7android8hardware4gnss4V1_07IGnssNi12getHashChainENSt3__18functionIFvRKNS0_8hidl_vecINS0_10hidl_arrayIhLj32EJEEEEEEEE
_ZN7android8hardware4gnss4V1_07IGnssNi13tryGetServiceERKNSt3__112basic_stringIcNS4_11char_traitsIcEENS4_9allocatorIcEEEEb
_ZN7android8hardware4gnss4V1_07IGnssNi13unlinkToDeathERKNS_2spINS0_20hidl_death_recipientEEE
_ZN7android8hardware4gnss4V1_07IGnssNi14interfaceChainENSt3__18functionIFvRKNS0_8hidl_vecINS0_11hidl_stringEEEEEE
_ZN7android8hardware4gnss4V1_07IGnssNi17registerAsServiceERKNSt3__112basic_stringIcNS4_11char_traitsIcEENS4_9allocatorIcEEEE
_ZN7android8hardware4gnss4V1_07IGnssNi19interfaceDescriptorENSt3__18functionIFvRKNS0_11hidl_stringEEEE
_ZN7android8hardware4gnss4V1_07IGnssNi21notifySyspropsChangedEv
_ZN7android8hardware4gnss4V1_07IGnssNi21setHALInstrumentationEv
_ZN7android8hardware4gnss4V1_07IGnssNi24registerForNotificationsERKNSt3__112basic_stringIcNS4_11char_traitsIcEENS4_9allocatorIcEEEERKNS_2spINS_4hidl7manager4V1_020IServiceNotificationEEE
_ZN7android8hardware4gnss4V1_07IGnssNi4pingEv
_ZN7android8hardware4gnss4V1_07IGnssNi5debugERKNS0_11hidl_handleERKNS0_8hidl_vecINS0_11hidl_stringEEE
_ZN7android8hardware4gnss4V1_07IGnssNi8castFromERKNS_2spINS_4hidl4base4V1_05IBaseEEEb
_ZN7android8hardware4gnss4V1_07IGnssNi8castFromERKNS_2spIS3_EEb
_ZN7android8hardware4gnss4V1_08BnHwGnss10_hidl_stopEPNS_4hidl4base4V1_08BnHwBaseERKNS0_6ParcelEPS9_NSt3__18functionIFvRS9_EEE
_ZN7android8hardware4gnss4V1_08BnHwGnss10onTransactEjRKNS0_6ParcelEPS4_jNSt3__18functionIFvRS4_EEE
_ZN7android8hardware4gnss4V1_08BnHwGnss11_hidl_startEPNS_4hidl4base4V1_08BnHwBaseERKNS0_6ParcelEPS9_NSt3__18functionIFvRS9_EEE
_ZN7android8hardware4gnss4V1_08BnHwGnss12getDebugInfoENSt3__18functionIFvRKNS_4hidl4base4V1_09DebugInfoEEEE
_ZN7android8hardware4gnss4V1_08BnHwGnss13_hidl_cleanupEPNS_4hidl4base4V1_08BnHwBaseERKNS0_6ParcelEPS9_NSt3__18functionIFvRS9_EEE
_ZN7android8hardware4gnss4V1_08BnHwGnss16_hidl_injectTimeEPNS_4hidl4base4V1_08BnHwBaseERKNS0_6ParcelEPS9_NSt3__18functionIFvRS9_EEE
_ZN7android8hardware4gnss4V1_08BnHwGnss17_hidl_setCallbackEPNS_4hidl4base4V1_08BnHwBaseERKNS0_6ParcelEPS9_NSt3__18functionIFvRS9_EEE
_ZN7android8hardware4gnss4V1_08BnHwGnss20_hidl_injectLocationEPNS_4hidl4base4V1_08BnHwBaseERKNS0_6ParcelEPS9_NSt3__18functionIFvRS9_EEE
_ZN7android8hardware4gnss4V1_08BnHwGnss21_hidl_setPositionModeEPNS_4hidl4base4V1_08BnHwBaseERKNS0_6ParcelEPS9_NSt3__18functionIFvRS9_EEE
_ZN7android8hardware4gnss4V1_08BnHwGnss22_hidl_deleteAidingDataEPNS_4hidl4base4V1_08BnHwBaseERKNS0_6ParcelEPS9_NSt3__18functionIFvRS9_EEE
_ZN7android8hardware4gnss4V1_08BnHwGnss22_hidl_getExtensionXtraEPNS_4hidl4base4V1_08BnHwBaseERKNS0_6ParcelEPS9_NSt3__18functionIFvRS9_EEE
_ZN7android8hardware4gnss4V1_08BnHwGnss23_hidl_getExtensionAGnssEPNS_4hidl4base4V1_08BnHwBaseERKNS0_6ParcelEPS9_NSt3__18functionIFvRS9_EEE
_ZN7android8hardware4gnss4V1_08BnHwGnss24_hidl_getExtensionGnssNiEPNS_4hidl4base4V1_08BnHwBaseERKNS0_6ParcelEPS9_NSt3__18functionIFvRS9_EEE
_ZN7android8hardware4gnss4V1_08BnHwGnss26_hidl_getExtensionAGnssRilEPNS_4hidl4base4V1_08BnHwBaseERKNS0_6ParcelEPS9_NSt3__18functionIFvRS9_EEE
_ZN7android8hardware4gnss4V1_08BnHwGnss27_hidl_getExtensionGnssDebugEPNS_4hidl4base4V1_08BnHwBaseERKNS0_6ParcelEPS9_NSt3__18functionIFvRS9_EEE
_ZN7android8hardware4gnss4V1_08BnHwGnss30_hidl_getExtensionGnssBatchingEPNS_4hidl4base4V1_08BnHwBaseERKNS0_6ParcelEPS9_NSt3__18functionIFvRS9_EEE
_ZN7android8hardware4gnss4V1_08BnHwGnss32_hidl_getExtensionGnssGeofencingEPNS_4hidl4base4V1_08BnHwBaseERKNS0_6ParcelEPS9_NSt3__18functionIFvRS9_EEE
_ZN7android8hardware4gnss4V1_08BnHwGnss33_hidl_getExtensionGnssMeasurementEPNS_4hidl4base4V1_08BnHwBaseERKNS0_6ParcelEPS9_NSt3__18functionIFvRS9_EEE
_ZN7android8hardware4gnss4V1_08BnHwGnss35_hidl_getExtensionGnssConfigurationEPNS_4hidl4base4V1_08BnHwBaseERKNS0_6ParcelEPS9_NSt3__18functionIFvRS9_EEE
_ZN7android8hardware4gnss4V1_08BnHwGnss39_hidl_getExtensionGnssNavigationMessageEPNS_4hidl4base4V1_08BnHwBaseERKNS0_6ParcelEPS9_NSt3__18functionIFvRS9_EEE
_ZN7android8hardware4gnss4V1_08BnHwGnss4pingEv
_ZN7android8hardware4gnss4V1_08BnHwGnssC1ERKNS_2spINS2_5IGnssEEE
_ZN7android8hardware4gnss4V1_08BnHwGnssC2ERKNS_2spINS2_5IGnssEEE
_ZN7android8hardware4gnss4V1_08BnHwGnssD0Ev
_ZN7android8hardware4gnss4V1_08BnHwGnssD1Ev
_ZN7android8hardware4gnss4V1_08BnHwGnssD2Ev
_ZN7android8hardware4gnss4V1_08BpHwGnss10_hidl_stopEPNS0_10IInterfaceEPNS0_7details16HidlInstrumentorE
_ZN7android8hardware4gnss4V1_08BpHwGnss10injectTimeExxi
_ZN7android8hardware4gnss4V1_08BpHwGnss11_hidl_startEPNS0_10IInterfaceEPNS0_7details16HidlInstrumentorE
_ZN7android8hardware4gnss4V1_08BpHwGnss11linkToDeathERKNS_2spINS0_20hidl_death_recipientEEEy
_ZN7android8hardware4gnss4V1_08BpHwGnss11setCallbackERKNS_2spINS2_13IGnssCallbackEEE
_ZN7android8hardware4gnss4V1_08BpHwGnss12getDebugInfoENSt3__18functionIFvRKNS_4hidl4base4V1_09DebugInfoEEEE
_ZN7android8hardware4gnss4V1_08BpHwGnss12getHashChainENSt3__18functionIFvRKNS0_8hidl_vecINS0_10hidl_arrayIhLj32EJEEEEEEEE
_ZN7android8hardware4gnss4V1_08BpHwGnss13_hidl_cleanupEPNS0_10IInterfaceEPNS0_7details16HidlInstrumentorE
_ZN7android8hardware4gnss4V1_08BpHwGnss13unlinkToDeathERKNS_2spINS0_20hidl_death_recipientEEE
_ZN7android8hardware4gnss4V1_08BpHwGnss14injectLocationEddf
_ZN7android8hardware4gnss4V1_08BpHwGnss14interfaceChainENSt3__18functionIFvRKNS0_8hidl_vecINS0_11hidl_stringEEEEEE
_ZN7android8hardware4gnss4V1_08BpHwGnss15setPositionModeENS2_5IGnss16GnssPositionModeENS4_22GnssPositionRecurrenceEjjj
_ZN7android8hardware4gnss4V1_08BpHwGnss16_hidl_injectTimeEPNS0_10IInterfaceEPNS0_7details16HidlInstrumentorExxi
_ZN7android8hardware4gnss4V1_08BpHwGnss16deleteAidingDataENS2_5IGnss14GnssAidingDataE
_ZN7android8hardware4gnss4V1_08BpHwGnss16getExtensionXtraEv
_ZN7android8hardware4gnss4V1_08BpHwGnss17_hidl_setCallbackEPNS0_10IInterfaceEPNS0_7details16HidlInstrumentorERKNS_2spINS2_13IGnssCallbackEEE
_ZN7android8hardware4gnss4V1_08BpHwGnss17getExtensionAGnssEv
_ZN7android8hardware4gnss4V1_08BpHwGnss18getExtensionGnssNiEv
_ZN7android8hardware4gnss4V1_08BpHwGnss19interfaceDescriptorENSt3__18functionIFvRKNS0_11hidl_stringEEEE
_ZN7android8hardware4gnss4V1_08BpHwGnss20_hidl_injectLocationEPNS0_10IInterfaceEPNS0_7details16HidlInstrumentorEddf
_ZN7android8hardware4gnss4V1_08BpHwGnss20getExtensionAGnssRilEv
_ZN7android8hardware4gnss4V1_08BpHwGnss21_hidl_setPositionModeEPNS0_10IInterfaceEPNS0_7details16HidlInstrumentorENS2_5IGnss16GnssPositionModeENS9_22GnssPositionRecurrenceEjjj
_ZN7android8hardware4gnss4V1_08BpHwGnss21getExtensionGnssDebugEv
_ZN7android8hardware4gnss4V1_08BpHwGnss21notifySyspropsChangedEv
_ZN7android8hardware4gnss4V1_08BpHwGnss21setHALInstrumentationEv
_ZN7android8hardware4gnss4V1_08BpHwGnss22_hidl_deleteAidingDataEPNS0_10IInterfaceEPNS0_7details16HidlInstrumentorENS2_5IGnss14GnssAidingDataE
_ZN7android8hardware4gnss4V1_08BpHwGnss22_hidl_getExtensionXtraEPNS0_10IInterfaceEPNS0_7details16HidlInstrumentorE
_ZN7android8hardware4gnss4V1_08BpHwGnss23_hidl_getExtensionAGnssEPNS0_10IInterfaceEPNS0_7details16HidlInstrumentorE
_ZN7android8hardware4gnss4V1_08BpHwGnss24_hidl_getExtensionGnssNiEPNS0_10IInterfaceEPNS0_7details16HidlInstrumentorE
_ZN7android8hardware4gnss4V1_08BpHwGnss24getExtensionGnssBatchingEv
_ZN7android8hardware4gnss4V1_08BpHwGnss26_hidl_getExtensionAGnssRilEPNS0_10IInterfaceEPNS0_7details16HidlInstrumentorE
_ZN7android8hardware4gnss4V1_08BpHwGnss26getExtensionGnssGeofencingEv
_ZN7android8hardware4gnss4V1_08BpHwGnss27_hidl_getExtensionGnssDebugEPNS0_10IInterfaceEPNS0_7details16HidlInstrumentorE
_ZN7android8hardware4gnss4V1_08BpHwGnss27getExtensionGnssMeasurementEv
_ZN7android8hardware4gnss4V1_08BpHwGnss29getExtensionGnssConfigurationEv
_ZN7android8hardware4gnss4V1_08BpHwGnss30_hidl_getExtensionGnssBatchingEPNS0_10IInterfaceEPNS0_7details16HidlInstrumentorE
_ZN7android8hardware4gnss4V1_08BpHwGnss32_hidl_getExtensionGnssGeofencingEPNS0_10IInterfaceEPNS0_7details16HidlInstrumentorE
_ZN7android8hardware4gnss4V1_08BpHwGnss33_hidl_getExtensionGnssMeasurementEPNS0_10IInterfaceEPNS0_7details16HidlInstrumentorE
_ZN7android8hardware4gnss4V1_08BpHwGnss33getExtensionGnssNavigationMessageEv
_ZN7android8hardware4gnss4V1_08BpHwGnss35_hidl_getExtensionGnssConfigurationEPNS0_10IInterfaceEPNS0_7details16HidlInstrumentorE
_ZN7android8hardware4gnss4V1_08BpHwGnss39_hidl_getExtensionGnssNavigationMessageEPNS0_10IInterfaceEPNS0_7details16HidlInstrumentorE
_ZN7android8hardware4gnss4V1_08BpHwGnss4pingEv
_ZN7android8hardware4gnss4V1_08BpHwGnss4stopEv
_ZN7android8hardware4gnss4V1_08BpHwGnss5debugERKNS0_11hidl_handleERKNS0_8hidl_vecINS0_11hidl_stringEEE
_ZN7android8hardware4gnss4V1_08BpHwGnss5startEv
_ZN7android8hardware4gnss4V1_08BpHwGnss7cleanupEv
_ZN7android8hardware4gnss4V1_08BpHwGnssC1ERKNS_2spINS0_7IBinderEEE
_ZN7android8hardware4gnss4V1_08BpHwGnssC2ERKNS_2spINS0_7IBinderEEE
_ZN7android8hardware4gnss4V1_08BsGnssNi13addOnewayTaskENSt3__18functionIFvvEEE
_ZN7android8hardware4gnss4V1_08BsGnssNiC1ENS_2spINS2_7IGnssNiEEE
_ZN7android8hardware4gnss4V1_08BsGnssNiC2ENS_2spINS2_7IGnssNiEEE
_ZN7android8hardware4gnss4V1_09BnHwAGnss10onTransactEjRKNS0_6ParcelEPS4_jNSt3__18functionIFvRS4_EEE
_ZN7android8hardware4gnss4V1_09BnHwAGnss12getDebugInfoENSt3__18functionIFvRKNS_4hidl4base4V1_09DebugInfoEEEE
_ZN7android8hardware4gnss4V1_09BnHwAGnss15_hidl_setServerEPNS_4hidl4base4V1_08BnHwBaseERKNS0_6ParcelEPS9_NSt3__18functionIFvRS9_EEE
_ZN7android8hardware4gnss4V1_09BnHwAGnss17_hidl_setCallbackEPNS_4hidl4base4V1_08BnHwBaseERKNS0_6ParcelEPS9_NSt3__18functionIFvRS9_EEE
_ZN7android8hardware4gnss4V1_09BnHwAGnss18_hidl_dataConnOpenEPNS_4hidl4base4V1_08BnHwBaseERKNS0_6ParcelEPS9_NSt3__18functionIFvRS9_EEE
_ZN7android8hardware4gnss4V1_09BnHwAGnss20_hidl_dataConnClosedEPNS_4hidl4base4V1_08BnHwBaseERKNS0_6ParcelEPS9_NSt3__18functionIFvRS9_EEE
_ZN7android8hardware4gnss4V1_09BnHwAGnss20_hidl_dataConnFailedEPNS_4hidl4base4V1_08BnHwBaseERKNS0_6ParcelEPS9_NSt3__18functionIFvRS9_EEE
_ZN7android8hardware4gnss4V1_09BnHwAGnss4pingEv
_ZN7android8hardware4gnss4V1_09BnHwAGnssC1ERKNS_2spINS2_6IAGnssEEE
_ZN7android8hardware4gnss4V1_09BnHwAGnssC2ERKNS_2spINS2_6IAGnssEEE
_ZN7android8hardware4gnss4V1_09BnHwAGnssD0Ev
_ZN7android8hardware4gnss4V1_09BnHwAGnssD1Ev
_ZN7android8hardware4gnss4V1_09BnHwAGnssD2Ev
_ZN7android8hardware4gnss4V1_09BpHwAGnss11linkToDeathERKNS_2spINS0_20hidl_death_recipientEEEy
_ZN7android8hardware4gnss4V1_09BpHwAGnss11setCallbackERKNS_2spINS2_14IAGnssCallbackEEE
_ZN7android8hardware4gnss4V1_09BpHwAGnss12dataConnOpenERKNS0_11hidl_stringENS2_6IAGnss9ApnIpTypeE
_ZN7android8hardware4gnss4V1_09BpHwAGnss12getDebugInfoENSt3__18functionIFvRKNS_4hidl4base4V1_09DebugInfoEEEE
_ZN7android8hardware4gnss4V1_09BpHwAGnss12getHashChainENSt3__18functionIFvRKNS0_8hidl_vecINS0_10hidl_arrayIhLj32EJEEEEEEEE
_ZN7android8hardware4gnss4V1_09BpHwAGnss13unlinkToDeathERKNS_2spINS0_20hidl_death_recipientEEE
_ZN7android8hardware4gnss4V1_09BpHwAGnss14dataConnClosedEv
_ZN7android8hardware4gnss4V1_09BpHwAGnss14dataConnFailedEv
_ZN7android8hardware4gnss4V1_09BpHwAGnss14interfaceChainENSt3__18functionIFvRKNS0_8hidl_vecINS0_11hidl_stringEEEEEE
_ZN7android8hardware4gnss4V1_09BpHwAGnss15_hidl_setServerEPNS0_10IInterfaceEPNS0_7details16HidlInstrumentorENS2_14IAGnssCallback9AGnssTypeERKNS0_11hidl_stringEi
_ZN7android8hardware4gnss4V1_09BpHwAGnss17_hidl_setCallbackEPNS0_10IInterfaceEPNS0_7details16HidlInstrumentorERKNS_2spINS2_14IAGnssCallbackEEE
_ZN7android8hardware4gnss4V1_09BpHwAGnss18_hidl_dataConnOpenEPNS0_10IInterfaceEPNS0_7details16HidlInstrumentorERKNS0_11hidl_stringENS2_6IAGnss9ApnIpTypeE
_ZN7android8hardware4gnss4V1_09BpHwAGnss19interfaceDescriptorENSt3__18functionIFvRKNS0_11hidl_stringEEEE
_ZN7android8hardware4gnss4V1_09BpHwAGnss20_hidl_dataConnClosedEPNS0_10IInterfaceEPNS0_7details16HidlInstrumentorE
_ZN7android8hardware4gnss4V1_09BpHwAGnss20_hidl_dataConnFailedEPNS0_10IInterfaceEPNS0_7details16HidlInstrumentorE
_ZN7android8hardware4gnss4V1_09BpHwAGnss21notifySyspropsChangedEv
_ZN7android8hardware4gnss4V1_09BpHwAGnss21setHALInstrumentationEv
_ZN7android8hardware4gnss4V1_09BpHwAGnss4pingEv
_ZN7android8hardware4gnss4V1_09BpHwAGnss5debugERKNS0_11hidl_handleERKNS0_8hidl_vecINS0_11hidl_stringEEE
_ZN7android8hardware4gnss4V1_09BpHwAGnss9setServerENS2_14IAGnssCallback9AGnssTypeERKNS0_11hidl_stringEi
_ZN7android8hardware4gnss4V1_09BpHwAGnssC1ERKNS_2spINS0_7IBinderEEE
_ZN7android8hardware4gnss4V1_09BpHwAGnssC2ERKNS_2spINS0_7IBinderEEE
_ZN7android8hardware4gnss4V1_09IAGnssRil10descriptorE
_ZN7android8hardware4gnss4V1_09IAGnssRil10getServiceERKNSt3__112basic_stringIcNS4_11char_traitsIcEENS4_9allocatorIcEEEEb
_ZN7android8hardware4gnss4V1_09IAGnssRil11linkToDeathERKNS_2spINS0_20hidl_death_recipientEEEy
_ZN7android8hardware4gnss4V1_09IAGnssRil12getDebugInfoENSt3__18functionIFvRKNS_4hidl4base4V1_09DebugInfoEEEE
_ZN7android8hardware4gnss4V1_09IAGnssRil12getHashChainENSt3__18functionIFvRKNS0_8hidl_vecINS0_10hidl_arrayIhLj32EJEEEEEEEE
_ZN7android8hardware4gnss4V1_09IAGnssRil13tryGetServiceERKNSt3__112basic_stringIcNS4_11char_traitsIcEENS4_9allocatorIcEEEEb
_ZN7android8hardware4gnss4V1_09IAGnssRil13unlinkToDeathERKNS_2spINS0_20hidl_death_recipientEEE
_ZN7android8hardware4gnss4V1_09IAGnssRil14interfaceChainENSt3__18functionIFvRKNS0_8hidl_vecINS0_11hidl_stringEEEEEE
_ZN7android8hardware4gnss4V1_09IAGnssRil17registerAsServiceERKNSt3__112basic_stringIcNS4_11char_traitsIcEENS4_9allocatorIcEEEE
_ZN7android8hardware4gnss4V1_09IAGnssRil19interfaceDescriptorENSt3__18functionIFvRKNS0_11hidl_stringEEEE
_ZN7android8hardware4gnss4V1_09IAGnssRil21notifySyspropsChangedEv
_ZN7android8hardware4gnss4V1_09IAGnssRil21setHALInstrumentationEv
_ZN7android8hardware4gnss4V1_09IAGnssRil24registerForNotificationsERKNSt3__112basic_stringIcNS4_11char_traitsIcEENS4_9allocatorIcEEEERKNS_2spINS_4hidl7manager4V1_020IServiceNotificationEEE
_ZN7android8hardware4gnss4V1_09IAGnssRil4pingEv
_ZN7android8hardware4gnss4V1_09IAGnssRil5debugERKNS0_11hidl_handleERKNS0_8hidl_vecINS0_11hidl_stringEEE
_ZN7android8hardware4gnss4V1_09IAGnssRil8castFromERKNS_2spINS_4hidl4base4V1_05IBaseEEEb
_ZN7android8hardware4gnss4V1_09IAGnssRil8castFromERKNS_2spIS3_EEb
_ZN7android8hardware4gnss4V1_09IGnssXtra10descriptorE
_ZN7android8hardware4gnss4V1_09IGnssXtra10getServiceERKNSt3__112basic_stringIcNS4_11char_traitsIcEENS4_9allocatorIcEEEEb
_ZN7android8hardware4gnss4V1_09IGnssXtra11linkToDeathERKNS_2spINS0_20hidl_death_recipientEEEy
_ZN7android8hardware4gnss4V1_09IGnssXtra12getDebugInfoENSt3__18functionIFvRKNS_4hidl4base4V1_09DebugInfoEEEE
_ZN7android8hardware4gnss4V1_09IGnssXtra12getHashChainENSt3__18functionIFvRKNS0_8hidl_vecINS0_10hidl_arrayIhLj32EJEEEEEEEE
_ZN7android8hardware4gnss4V1_09IGnssXtra13tryGetServiceERKNSt3__112basic_stringIcNS4_11char_traitsIcEENS4_9allocatorIcEEEEb
_ZN7android8hardware4gnss4V1_09IGnssXtra13unlinkToDeathERKNS_2spINS0_20hidl_death_recipientEEE
_ZN7android8hardware4gnss4V1_09IGnssXtra14interfaceChainENSt3__18functionIFvRKNS0_8hidl_vecINS0_11hidl_stringEEEEEE
_ZN7android8hardware4gnss4V1_09IGnssXtra17registerAsServiceERKNSt3__112basic_stringIcNS4_11char_traitsIcEENS4_9allocatorIcEEEE
_ZN7android8hardware4gnss4V1_09IGnssXtra19interfaceDescriptorENSt3__18functionIFvRKNS0_11hidl_stringEEEE
_ZN7android8hardware4gnss4V1_09IGnssXtra21notifySyspropsChangedEv
_ZN7android8hardware4gnss4V1_09IGnssXtra21setHALInstrumentationEv
_ZN7android8hardware4gnss4V1_09IGnssXtra24registerForNotificationsERKNSt3__112basic_stringIcNS4_11char_traitsIcEENS4_9allocatorIcEEEERKNS_2spINS_4hidl7manager4V1_020IServiceNotificationEEE
_ZN7android8hardware4gnss4V1_09IGnssXtra4pingEv
_ZN7android8hardware4gnss4V1_09IGnssXtra5debugERKNS0_11hidl_handleERKNS0_8hidl_vecINS0_11hidl_stringEEE
_ZN7android8hardware4gnss4V1_09IGnssXtra8castFromERKNS_2spINS_4hidl4base4V1_05IBaseEEEb
_ZN7android8hardware4gnss4V1_09IGnssXtra8castFromERKNS_2spIS3_EEb
_ZTCN7android8hardware4gnss4V1_010BnHwGnssNiE0_NS0_7IBinderE
_ZTCN7android8hardware4gnss4V1_010BnHwGnssNiE0_NS0_9BHwBinderE
_ZTCN7android8hardware4gnss4V1_010BnHwGnssNiE0_NS_4hidl4base4V1_08BnHwBaseE
_ZTCN7android8hardware4gnss4V1_010BpHwGnssNiE0_NS0_11BpInterfaceINS2_7IGnssNiEEE
_ZTCN7android8hardware4gnss4V1_010BpHwGnssNiE0_NS2_7IGnssNiE
_ZTCN7android8hardware4gnss4V1_010BpHwGnssNiE0_NS_4hidl4base4V1_05IBaseE
_ZTCN7android8hardware4gnss4V1_010BpHwGnssNiE4_NS0_10IInterfaceE
_ZTCN7android8hardware4gnss4V1_010BpHwGnssNiE8_NS0_11BpHwRefBaseE
_ZTCN7android8hardware4gnss4V1_010IGnssDebugE0_NS_4hidl4base4V1_05IBaseE
_ZTCN7android8hardware4gnss4V1_012BnHwAGnssRilE0_NS0_7IBinderE
_ZTCN7android8hardware4gnss4V1_012BnHwAGnssRilE0_NS0_9BHwBinderE
_ZTCN7android8hardware4gnss4V1_012BnHwAGnssRilE0_NS_4hidl4base4V1_08BnHwBaseE
_ZTCN7android8hardware4gnss4V1_012BnHwGnssXtraE0_NS0_7IBinderE
_ZTCN7android8hardware4gnss4V1_012BnHwGnssXtraE0_NS0_9BHwBinderE
_ZTCN7android8hardware4gnss4V1_012BnHwGnssXtraE0_NS_4hidl4base4V1_08BnHwBaseE
_ZTCN7android8hardware4gnss4V1_012BpHwAGnssRilE0_NS0_11BpInterfaceINS2_9IAGnssRilEEE
_ZTCN7android8hardware4gnss4V1_012BpHwAGnssRilE0_NS2_9IAGnssRilE
_ZTCN7android8hardware4gnss4V1_012BpHwAGnssRilE0_NS_4hidl4base4V1_05IBaseE
_ZTCN7android8hardware4gnss4V1_012BpHwAGnssRilE4_NS0_10IInterfaceE
_ZTCN7android8hardware4gnss4V1_012BpHwAGnssRilE8_NS0_11BpHwRefBaseE
_ZTCN7android8hardware4gnss4V1_012BpHwGnssXtraE0_NS0_11BpInterfaceINS2_9IGnssXtraEEE
_ZTCN7android8hardware4gnss4V1_012BpHwGnssXtraE0_NS2_9IGnssXtraE
_ZTCN7android8hardware4gnss4V1_012BpHwGnssXtraE0_NS_4hidl4base4V1_05IBaseE
_ZTCN7android8hardware4gnss4V1_012BpHwGnssXtraE4_NS0_10IInterfaceE
_ZTCN7android8hardware4gnss4V1_012BpHwGnssXtraE8_NS0_11BpHwRefBaseE
_ZTCN7android8hardware4gnss4V1_013BnHwGnssDebugE0_NS0_7IBinderE
_ZTCN7android8hardware4gnss4V1_013BnHwGnssDebugE0_NS0_9BHwBinderE
_ZTCN7android8hardware4gnss4V1_013BnHwGnssDebugE0_NS_4hidl4base4V1_08BnHwBaseE
_ZTCN7android8hardware4gnss4V1_013BpHwGnssDebugE0_NS0_11BpInterfaceINS2_10IGnssDebugEEE
_ZTCN7android8hardware4gnss4V1_013BpHwGnssDebugE0_NS2_10IGnssDebugE
_ZTCN7android8hardware4gnss4V1_013BpHwGnssDebugE0_NS_4hidl4base4V1_05IBaseE
_ZTCN7android8hardware4gnss4V1_013BpHwGnssDebugE4_NS0_10IInterfaceE
_ZTCN7android8hardware4gnss4V1_013BpHwGnssDebugE8_NS0_11BpHwRefBaseE
_ZTCN7android8hardware4gnss4V1_013IGnssBatchingE0_NS_4hidl4base4V1_05IBaseE
_ZTCN7android8hardware4gnss4V1_013IGnssCallbackE0_NS_4hidl4base4V1_05IBaseE
_ZTCN7android8hardware4gnss4V1_014IAGnssCallbackE0_NS_4hidl4base4V1_05IBaseE
_ZTCN7android8hardware4gnss4V1_015IGnssGeofencingE0_NS_4hidl4base4V1_05IBaseE
_ZTCN7android8hardware4gnss4V1_015IGnssNiCallbackE0_NS_4hidl4base4V1_05IBaseE
_ZTCN7android8hardware4gnss4V1_016BnHwGnssBatchingE0_NS0_7IBinderE
_ZTCN7android8hardware4gnss4V1_016BnHwGnssBatchingE0_NS0_9BHwBinderE
_ZTCN7android8hardware4gnss4V1_016BnHwGnssBatchingE0_NS_4hidl4base4V1_08BnHwBaseE
_ZTCN7android8hardware4gnss4V1_016BnHwGnssCallbackE0_NS0_7IBinderE
_ZTCN7android8hardware4gnss4V1_016BnHwGnssCallbackE0_NS0_9BHwBinderE
_ZTCN7android8hardware4gnss4V1_016BnHwGnssCallbackE0_NS_4hidl4base4V1_08BnHwBaseE
_ZTCN7android8hardware4gnss4V1_016BpHwGnssBatchingE0_NS0_11BpInterfaceINS2_13IGnssBatchingEEE
_ZTCN7android8hardware4gnss4V1_016BpHwGnssBatchingE0_NS2_13IGnssBatchingE
_ZTCN7android8hardware4gnss4V1_016BpHwGnssBatchingE0_NS_4hidl4base4V1_05IBaseE
_ZTCN7android8hardware4gnss4V1_016BpHwGnssBatchingE4_NS0_10IInterfaceE
_ZTCN7android8hardware4gnss4V1_016BpHwGnssBatchingE8_NS0_11BpHwRefBaseE
_ZTCN7android8hardware4gnss4V1_016BpHwGnssCallbackE0_NS0_11BpInterfaceINS2_13IGnssCallbackEEE
_ZTCN7android8hardware4gnss4V1_016BpHwGnssCallbackE0_NS2_13IGnssCallbackE
_ZTCN7android8hardware4gnss4V1_016BpHwGnssCallbackE0_NS_4hidl4base4V1_05IBaseE
_ZTCN7android8hardware4gnss4V1_016BpHwGnssCallbackE4_NS0_10IInterfaceE
_ZTCN7android8hardware4gnss4V1_016BpHwGnssCallbackE8_NS0_11BpHwRefBaseE
_ZTCN7android8hardware4gnss4V1_016IGnssMeasurementE0_NS_4hidl4base4V1_05IBaseE
_ZTCN7android8hardware4gnss4V1_017BnHwAGnssCallbackE0_NS0_7IBinderE
_ZTCN7android8hardware4gnss4V1_017BnHwAGnssCallbackE0_NS0_9BHwBinderE
_ZTCN7android8hardware4gnss4V1_017BnHwAGnssCallbackE0_NS_4hidl4base4V1_08BnHwBaseE
_ZTCN7android8hardware4gnss4V1_017BpHwAGnssCallbackE0_NS0_11BpInterfaceINS2_14IAGnssCallbackEEE
_ZTCN7android8hardware4gnss4V1_017BpHwAGnssCallbackE0_NS2_14IAGnssCallbackE
_ZTCN7android8hardware4gnss4V1_017BpHwAGnssCallbackE0_NS_4hidl4base4V1_05IBaseE
_ZTCN7android8hardware4gnss4V1_017BpHwAGnssCallbackE4_NS0_10IInterfaceE
_ZTCN7android8hardware4gnss4V1_017BpHwAGnssCallbackE8_NS0_11BpHwRefBaseE
_ZTCN7android8hardware4gnss4V1_017IAGnssRilCallbackE0_NS_4hidl4base4V1_05IBaseE
_ZTCN7android8hardware4gnss4V1_017IGnssXtraCallbackE0_NS_4hidl4base4V1_05IBaseE
_ZTCN7android8hardware4gnss4V1_018BnHwGnssGeofencingE0_NS0_7IBinderE
_ZTCN7android8hardware4gnss4V1_018BnHwGnssGeofencingE0_NS0_9BHwBinderE
_ZTCN7android8hardware4gnss4V1_018BnHwGnssGeofencingE0_NS_4hidl4base4V1_08BnHwBaseE
_ZTCN7android8hardware4gnss4V1_018BnHwGnssNiCallbackE0_NS0_7IBinderE
_ZTCN7android8hardware4gnss4V1_018BnHwGnssNiCallbackE0_NS0_9BHwBinderE
_ZTCN7android8hardware4gnss4V1_018BnHwGnssNiCallbackE0_NS_4hidl4base4V1_08BnHwBaseE
_ZTCN7android8hardware4gnss4V1_018BpHwGnssGeofencingE0_NS0_11BpInterfaceINS2_15IGnssGeofencingEEE
_ZTCN7android8hardware4gnss4V1_018BpHwGnssGeofencingE0_NS2_15IGnssGeofencingE
_ZTCN7android8hardware4gnss4V1_018BpHwGnssGeofencingE0_NS_4hidl4base4V1_05IBaseE
_ZTCN7android8hardware4gnss4V1_018BpHwGnssGeofencingE4_NS0_10IInterfaceE
_ZTCN7android8hardware4gnss4V1_018BpHwGnssGeofencingE8_NS0_11BpHwRefBaseE
_ZTCN7android8hardware4gnss4V1_018BpHwGnssNiCallbackE0_NS0_11BpInterfaceINS2_15IGnssNiCallbackEEE
_ZTCN7android8hardware4gnss4V1_018BpHwGnssNiCallbackE0_NS2_15IGnssNiCallbackE
_ZTCN7android8hardware4gnss4V1_018BpHwGnssNiCallbackE0_NS_4hidl4base4V1_05IBaseE
_ZTCN7android8hardware4gnss4V1_018BpHwGnssNiCallbackE4_NS0_10IInterfaceE
_ZTCN7android8hardware4gnss4V1_018BpHwGnssNiCallbackE8_NS0_11BpHwRefBaseE
_ZTCN7android8hardware4gnss4V1_018IGnssConfigurationE0_NS_4hidl4base4V1_05IBaseE
_ZTCN7android8hardware4gnss4V1_019BnHwGnssMeasurementE0_NS0_7IBinderE
_ZTCN7android8hardware4gnss4V1_019BnHwGnssMeasurementE0_NS0_9BHwBinderE
_ZTCN7android8hardware4gnss4V1_019BnHwGnssMeasurementE0_NS_4hidl4base4V1_08BnHwBaseE
_ZTCN7android8hardware4gnss4V1_019BpHwGnssMeasurementE0_NS0_11BpInterfaceINS2_16IGnssMeasurementEEE
_ZTCN7android8hardware4gnss4V1_019BpHwGnssMeasurementE0_NS2_16IGnssMeasurementE
_ZTCN7android8hardware4gnss4V1_019BpHwGnssMeasurementE0_NS_4hidl4base4V1_05IBaseE
_ZTCN7android8hardware4gnss4V1_019BpHwGnssMeasurementE4_NS0_10IInterfaceE
_ZTCN7android8hardware4gnss4V1_019BpHwGnssMeasurementE8_NS0_11BpHwRefBaseE
_ZTCN7android8hardware4gnss4V1_020BnHwAGnssRilCallbackE0_NS0_7IBinderE
_ZTCN7android8hardware4gnss4V1_020BnHwAGnssRilCallbackE0_NS0_9BHwBinderE
_ZTCN7android8hardware4gnss4V1_020BnHwAGnssRilCallbackE0_NS_4hidl4base4V1_08BnHwBaseE
_ZTCN7android8hardware4gnss4V1_020BnHwGnssXtraCallbackE0_NS0_7IBinderE
_ZTCN7android8hardware4gnss4V1_020BnHwGnssXtraCallbackE0_NS0_9BHwBinderE
_ZTCN7android8hardware4gnss4V1_020BnHwGnssXtraCallbackE0_NS_4hidl4base4V1_08BnHwBaseE
_ZTCN7android8hardware4gnss4V1_020BpHwAGnssRilCallbackE0_NS0_11BpInterfaceINS2_17IAGnssRilCallbackEEE
_ZTCN7android8hardware4gnss4V1_020BpHwAGnssRilCallbackE0_NS2_17IAGnssRilCallbackE
_ZTCN7android8hardware4gnss4V1_020BpHwAGnssRilCallbackE0_NS_4hidl4base4V1_05IBaseE
_ZTCN7android8hardware4gnss4V1_020BpHwAGnssRilCallbackE4_NS0_10IInterfaceE
_ZTCN7android8hardware4gnss4V1_020BpHwAGnssRilCallbackE8_NS0_11BpHwRefBaseE
_ZTCN7android8hardware4gnss4V1_020BpHwGnssXtraCallbackE0_NS0_11BpInterfaceINS2_17IGnssXtraCallbackEEE
_ZTCN7android8hardware4gnss4V1_020BpHwGnssXtraCallbackE0_NS2_17IGnssXtraCallbackE
_ZTCN7android8hardware4gnss4V1_020BpHwGnssXtraCallbackE0_NS_4hidl4base4V1_05IBaseE
_ZTCN7android8hardware4gnss4V1_020BpHwGnssXtraCallbackE4_NS0_10IInterfaceE
_ZTCN7android8hardware4gnss4V1_020BpHwGnssXtraCallbackE8_NS0_11BpHwRefBaseE
_ZTCN7android8hardware4gnss4V1_021BnHwGnssConfigurationE0_NS0_7IBinderE
_ZTCN7android8hardware4gnss4V1_021BnHwGnssConfigurationE0_NS0_9BHwBinderE
_ZTCN7android8hardware4gnss4V1_021BnHwGnssConfigurationE0_NS_4hidl4base4V1_08BnHwBaseE
_ZTCN7android8hardware4gnss4V1_021BpHwGnssConfigurationE0_NS0_11BpInterfaceINS2_18IGnssConfigurationEEE
_ZTCN7android8hardware4gnss4V1_021BpHwGnssConfigurationE0_NS2_18IGnssConfigurationE
_ZTCN7android8hardware4gnss4V1_021BpHwGnssConfigurationE0_NS_4hidl4base4V1_05IBaseE
_ZTCN7android8hardware4gnss4V1_021BpHwGnssConfigurationE4_NS0_10IInterfaceE
_ZTCN7android8hardware4gnss4V1_021BpHwGnssConfigurationE8_NS0_11BpHwRefBaseE
_ZTCN7android8hardware4gnss4V1_021IGnssBatchingCallbackE0_NS_4hidl4base4V1_05IBaseE
_ZTCN7android8hardware4gnss4V1_021IGnssGeofenceCallbackE0_NS_4hidl4base4V1_05IBaseE
_ZTCN7android8hardware4gnss4V1_022IGnssNavigationMessageE0_NS_4hidl4base4V1_05IBaseE
_ZTCN7android8hardware4gnss4V1_024BnHwGnssBatchingCallbackE0_NS0_7IBinderE
_ZTCN7android8hardware4gnss4V1_024BnHwGnssBatchingCallbackE0_NS0_9BHwBinderE
_ZTCN7android8hardware4gnss4V1_024BnHwGnssBatchingCallbackE0_NS_4hidl4base4V1_08BnHwBaseE
_ZTCN7android8hardware4gnss4V1_024BnHwGnssGeofenceCallbackE0_NS0_7IBinderE
_ZTCN7android8hardware4gnss4V1_024BnHwGnssGeofenceCallbackE0_NS0_9BHwBinderE
_ZTCN7android8hardware4gnss4V1_024BnHwGnssGeofenceCallbackE0_NS_4hidl4base4V1_08BnHwBaseE
_ZTCN7android8hardware4gnss4V1_024BpHwGnssBatchingCallbackE0_NS0_11BpInterfaceINS2_21IGnssBatchingCallbackEEE
_ZTCN7android8hardware4gnss4V1_024BpHwGnssBatchingCallbackE0_NS2_21IGnssBatchingCallbackE
_ZTCN7android8hardware4gnss4V1_024BpHwGnssBatchingCallbackE0_NS_4hidl4base4V1_05IBaseE
_ZTCN7android8hardware4gnss4V1_024BpHwGnssBatchingCallbackE4_NS0_10IInterfaceE
_ZTCN7android8hardware4gnss4V1_024BpHwGnssBatchingCallbackE8_NS0_11BpHwRefBaseE
_ZTCN7android8hardware4gnss4V1_024BpHwGnssGeofenceCallbackE0_NS0_11BpInterfaceINS2_21IGnssGeofenceCallbackEEE
_ZTCN7android8hardware4gnss4V1_024BpHwGnssGeofenceCallbackE0_NS2_21IGnssGeofenceCallbackE
_ZTCN7android8hardware4gnss4V1_024BpHwGnssGeofenceCallbackE0_NS_4hidl4base4V1_05IBaseE
_ZTCN7android8hardware4gnss4V1_024BpHwGnssGeofenceCallbackE4_NS0_10IInterfaceE
_ZTCN7android8hardware4gnss4V1_024BpHwGnssGeofenceCallbackE8_NS0_11BpHwRefBaseE
_ZTCN7android8hardware4gnss4V1_024IGnssMeasurementCallbackE0_NS_4hidl4base4V1_05IBaseE
_ZTCN7android8hardware4gnss4V1_025BnHwGnssNavigationMessageE0_NS0_7IBinderE
_ZTCN7android8hardware4gnss4V1_025BnHwGnssNavigationMessageE0_NS0_9BHwBinderE
_ZTCN7android8hardware4gnss4V1_025BnHwGnssNavigationMessageE0_NS_4hidl4base4V1_08BnHwBaseE
_ZTCN7android8hardware4gnss4V1_025BpHwGnssNavigationMessageE0_NS0_11BpInterfaceINS2_22IGnssNavigationMessageEEE
_ZTCN7android8hardware4gnss4V1_025BpHwGnssNavigationMessageE0_NS2_22IGnssNavigationMessageE
_ZTCN7android8hardware4gnss4V1_025BpHwGnssNavigationMessageE0_NS_4hidl4base4V1_05IBaseE
_ZTCN7android8hardware4gnss4V1_025BpHwGnssNavigationMessageE4_NS0_10IInterfaceE
_ZTCN7android8hardware4gnss4V1_025BpHwGnssNavigationMessageE8_NS0_11BpHwRefBaseE
_ZTCN7android8hardware4gnss4V1_027BnHwGnssMeasurementCallbackE0_NS0_7IBinderE
_ZTCN7android8hardware4gnss4V1_027BnHwGnssMeasurementCallbackE0_NS0_9BHwBinderE
_ZTCN7android8hardware4gnss4V1_027BnHwGnssMeasurementCallbackE0_NS_4hidl4base4V1_08BnHwBaseE
_ZTCN7android8hardware4gnss4V1_027BpHwGnssMeasurementCallbackE0_NS0_11BpInterfaceINS2_24IGnssMeasurementCallbackEEE
_ZTCN7android8hardware4gnss4V1_027BpHwGnssMeasurementCallbackE0_NS2_24IGnssMeasurementCallbackE
_ZTCN7android8hardware4gnss4V1_027BpHwGnssMeasurementCallbackE0_NS_4hidl4base4V1_05IBaseE
_ZTCN7android8hardware4gnss4V1_027BpHwGnssMeasurementCallbackE4_NS0_10IInterfaceE
_ZTCN7android8hardware4gnss4V1_027BpHwGnssMeasurementCallbackE8_NS0_11BpHwRefBaseE
_ZTCN7android8hardware4gnss4V1_030IGnssNavigationMessageCallbackE0_NS_4hidl4base4V1_05IBaseE
_ZTCN7android8hardware4gnss4V1_033BnHwGnssNavigationMessageCallbackE0_NS0_7IBinderE
_ZTCN7android8hardware4gnss4V1_033BnHwGnssNavigationMessageCallbackE0_NS0_9BHwBinderE
_ZTCN7android8hardware4gnss4V1_033BnHwGnssNavigationMessageCallbackE0_NS_4hidl4base4V1_08BnHwBaseE
_ZTCN7android8hardware4gnss4V1_033BpHwGnssNavigationMessageCallbackE0_NS0_11BpInterfaceINS2_30IGnssNavigationMessageCallbackEEE
_ZTCN7android8hardware4gnss4V1_033BpHwGnssNavigationMessageCallbackE0_NS2_30IGnssNavigationMessageCallbackE
_ZTCN7android8hardware4gnss4V1_033BpHwGnssNavigationMessageCallbackE0_NS_4hidl4base4V1_05IBaseE
_ZTCN7android8hardware4gnss4V1_033BpHwGnssNavigationMessageCallbackE4_NS0_10IInterfaceE
_ZTCN7android8hardware4gnss4V1_033BpHwGnssNavigationMessageCallbackE8_NS0_11BpHwRefBaseE
_ZTCN7android8hardware4gnss4V1_05IGnssE0_NS_4hidl4base4V1_05IBaseE
_ZTCN7android8hardware4gnss4V1_06IAGnssE0_NS_4hidl4base4V1_05IBaseE
_ZTCN7android8hardware4gnss4V1_07IGnssNiE0_NS_4hidl4base4V1_05IBaseE
_ZTCN7android8hardware4gnss4V1_08BnHwGnssE0_NS0_7IBinderE
_ZTCN7android8hardware4gnss4V1_08BnHwGnssE0_NS0_9BHwBinderE
_ZTCN7android8hardware4gnss4V1_08BnHwGnssE0_NS_4hidl4base4V1_08BnHwBaseE
_ZTCN7android8hardware4gnss4V1_08BpHwGnssE0_NS0_11BpInterfaceINS2_5IGnssEEE
_ZTCN7android8hardware4gnss4V1_08BpHwGnssE0_NS2_5IGnssE
_ZTCN7android8hardware4gnss4V1_08BpHwGnssE0_NS_4hidl4base4V1_05IBaseE
_ZTCN7android8hardware4gnss4V1_08BpHwGnssE4_NS0_10IInterfaceE
_ZTCN7android8hardware4gnss4V1_08BpHwGnssE8_NS0_11BpHwRefBaseE
_ZTCN7android8hardware4gnss4V1_09BnHwAGnssE0_NS0_7IBinderE
_ZTCN7android8hardware4gnss4V1_09BnHwAGnssE0_NS0_9BHwBinderE
_ZTCN7android8hardware4gnss4V1_09BnHwAGnssE0_NS_4hidl4base4V1_08BnHwBaseE
_ZTCN7android8hardware4gnss4V1_09BpHwAGnssE0_NS0_11BpInterfaceINS2_6IAGnssEEE
_ZTCN7android8hardware4gnss4V1_09BpHwAGnssE0_NS2_6IAGnssE
_ZTCN7android8hardware4gnss4V1_09BpHwAGnssE0_NS_4hidl4base4V1_05IBaseE
_ZTCN7android8hardware4gnss4V1_09BpHwAGnssE4_NS0_10IInterfaceE
_ZTCN7android8hardware4gnss4V1_09BpHwAGnssE8_NS0_11BpHwRefBaseE
_ZTCN7android8hardware4gnss4V1_09IAGnssRilE0_NS_4hidl4base4V1_05IBaseE
_ZTCN7android8hardware4gnss4V1_09IGnssXtraE0_NS_4hidl4base4V1_05IBaseE
_ZTTN7android8hardware4gnss4V1_010BnHwGnssNiE
_ZTTN7android8hardware4gnss4V1_010BpHwGnssNiE
_ZTTN7android8hardware4gnss4V1_010IGnssDebugE
_ZTTN7android8hardware4gnss4V1_012BnHwAGnssRilE
_ZTTN7android8hardware4gnss4V1_012BnHwGnssXtraE
_ZTTN7android8hardware4gnss4V1_012BpHwAGnssRilE
_ZTTN7android8hardware4gnss4V1_012BpHwGnssXtraE
_ZTTN7android8hardware4gnss4V1_013BnHwGnssDebugE
_ZTTN7android8hardware4gnss4V1_013BpHwGnssDebugE
_ZTTN7android8hardware4gnss4V1_013IGnssBatchingE
_ZTTN7android8hardware4gnss4V1_013IGnssCallbackE
_ZTTN7android8hardware4gnss4V1_014IAGnssCallbackE
_ZTTN7android8hardware4gnss4V1_015IGnssGeofencingE
_ZTTN7android8hardware4gnss4V1_015IGnssNiCallbackE
_ZTTN7android8hardware4gnss4V1_016BnHwGnssBatchingE
_ZTTN7android8hardware4gnss4V1_016BnHwGnssCallbackE
_ZTTN7android8hardware4gnss4V1_016BpHwGnssBatchingE
_ZTTN7android8hardware4gnss4V1_016BpHwGnssCallbackE
_ZTTN7android8hardware4gnss4V1_016IGnssMeasurementE
_ZTTN7android8hardware4gnss4V1_017BnHwAGnssCallbackE
_ZTTN7android8hardware4gnss4V1_017BpHwAGnssCallbackE
_ZTTN7android8hardware4gnss4V1_017IAGnssRilCallbackE
_ZTTN7android8hardware4gnss4V1_017IGnssXtraCallbackE
_ZTTN7android8hardware4gnss4V1_018BnHwGnssGeofencingE
_ZTTN7android8hardware4gnss4V1_018BnHwGnssNiCallbackE
_ZTTN7android8hardware4gnss4V1_018BpHwGnssGeofencingE
_ZTTN7android8hardware4gnss4V1_018BpHwGnssNiCallbackE
_ZTTN7android8hardware4gnss4V1_018IGnssConfigurationE
_ZTTN7android8hardware4gnss4V1_019BnHwGnssMeasurementE
_ZTTN7android8hardware4gnss4V1_019BpHwGnssMeasurementE
_ZTTN7android8hardware4gnss4V1_020BnHwAGnssRilCallbackE
_ZTTN7android8hardware4gnss4V1_020BnHwGnssXtraCallbackE
_ZTTN7android8hardware4gnss4V1_020BpHwAGnssRilCallbackE
_ZTTN7android8hardware4gnss4V1_020BpHwGnssXtraCallbackE
_ZTTN7android8hardware4gnss4V1_021BnHwGnssConfigurationE
_ZTTN7android8hardware4gnss4V1_021BpHwGnssConfigurationE
_ZTTN7android8hardware4gnss4V1_021IGnssBatchingCallbackE
_ZTTN7android8hardware4gnss4V1_021IGnssGeofenceCallbackE
_ZTTN7android8hardware4gnss4V1_022IGnssNavigationMessageE
_ZTTN7android8hardware4gnss4V1_024BnHwGnssBatchingCallbackE
_ZTTN7android8hardware4gnss4V1_024BnHwGnssGeofenceCallbackE
_ZTTN7android8hardware4gnss4V1_024BpHwGnssBatchingCallbackE
_ZTTN7android8hardware4gnss4V1_024BpHwGnssGeofenceCallbackE
_ZTTN7android8hardware4gnss4V1_024IGnssMeasurementCallbackE
_ZTTN7android8hardware4gnss4V1_025BnHwGnssNavigationMessageE
_ZTTN7android8hardware4gnss4V1_025BpHwGnssNavigationMessageE
_ZTTN7android8hardware4gnss4V1_027BnHwGnssMeasurementCallbackE
_ZTTN7android8hardware4gnss4V1_027BpHwGnssMeasurementCallbackE
_ZTTN7android8hardware4gnss4V1_030IGnssNavigationMessageCallbackE
_ZTTN7android8hardware4gnss4V1_033BnHwGnssNavigationMessageCallbackE
_ZTTN7android8hardware4gnss4V1_033BpHwGnssNavigationMessageCallbackE
_ZTTN7android8hardware4gnss4V1_05IGnssE
_ZTTN7android8hardware4gnss4V1_06IAGnssE
_ZTTN7android8hardware4gnss4V1_07IGnssNiE
_ZTTN7android8hardware4gnss4V1_08BnHwGnssE
_ZTTN7android8hardware4gnss4V1_08BpHwGnssE
_ZTTN7android8hardware4gnss4V1_09BnHwAGnssE
_ZTTN7android8hardware4gnss4V1_09BpHwAGnssE
_ZTTN7android8hardware4gnss4V1_09IAGnssRilE
_ZTTN7android8hardware4gnss4V1_09IGnssXtraE
_ZTVN7android8hardware4gnss4V1_010BnHwGnssNiE
_ZTVN7android8hardware4gnss4V1_010BpHwGnssNiE
_ZTVN7android8hardware4gnss4V1_010IGnssDebugE
_ZTVN7android8hardware4gnss4V1_012BnHwAGnssRilE
_ZTVN7android8hardware4gnss4V1_012BnHwGnssXtraE
_ZTVN7android8hardware4gnss4V1_012BpHwAGnssRilE
_ZTVN7android8hardware4gnss4V1_012BpHwGnssXtraE
_ZTVN7android8hardware4gnss4V1_013BnHwGnssDebugE
_ZTVN7android8hardware4gnss4V1_013BpHwGnssDebugE
_ZTVN7android8hardware4gnss4V1_013IGnssBatchingE
_ZTVN7android8hardware4gnss4V1_013IGnssCallbackE
_ZTVN7android8hardware4gnss4V1_014IAGnssCallbackE
_ZTVN7android8hardware4gnss4V1_015IGnssGeofencingE
_ZTVN7android8hardware4gnss4V1_015IGnssNiCallbackE
_ZTVN7android8hardware4gnss4V1_016BnHwGnssBatchingE
_ZTVN7android8hardware4gnss4V1_016BnHwGnssCallbackE
_ZTVN7android8hardware4gnss4V1_016BpHwGnssBatchingE
_ZTVN7android8hardware4gnss4V1_016BpHwGnssCallbackE
_ZTVN7android8hardware4gnss4V1_016IGnssMeasurementE
_ZTVN7android8hardware4gnss4V1_017BnHwAGnssCallbackE
_ZTVN7android8hardware4gnss4V1_017BpHwAGnssCallbackE
_ZTVN7android8hardware4gnss4V1_017IAGnssRilCallbackE
_ZTVN7android8hardware4gnss4V1_017IGnssXtraCallbackE
_ZTVN7android8hardware4gnss4V1_018BnHwGnssGeofencingE
_ZTVN7android8hardware4gnss4V1_018BnHwGnssNiCallbackE
_ZTVN7android8hardware4gnss4V1_018BpHwGnssGeofencingE
_ZTVN7android8hardware4gnss4V1_018BpHwGnssNiCallbackE
_ZTVN7android8hardware4gnss4V1_018IGnssConfigurationE
_ZTVN7android8hardware4gnss4V1_019BnHwGnssMeasurementE
_ZTVN7android8hardware4gnss4V1_019BpHwGnssMeasurementE
_ZTVN7android8hardware4gnss4V1_020BnHwAGnssRilCallbackE
_ZTVN7android8hardware4gnss4V1_020BnHwGnssXtraCallbackE
_ZTVN7android8hardware4gnss4V1_020BpHwAGnssRilCallbackE
_ZTVN7android8hardware4gnss4V1_020BpHwGnssXtraCallbackE
_ZTVN7android8hardware4gnss4V1_021BnHwGnssConfigurationE
_ZTVN7android8hardware4gnss4V1_021BpHwGnssConfigurationE
_ZTVN7android8hardware4gnss4V1_021IGnssBatchingCallbackE
_ZTVN7android8hardware4gnss4V1_021IGnssGeofenceCallbackE
_ZTVN7android8hardware4gnss4V1_022IGnssNavigationMessageE
_ZTVN7android8hardware4gnss4V1_024BnHwGnssBatchingCallbackE
_ZTVN7android8hardware4gnss4V1_024BnHwGnssGeofenceCallbackE
_ZTVN7android8hardware4gnss4V1_024BpHwGnssBatchingCallbackE
_ZTVN7android8hardware4gnss4V1_024BpHwGnssGeofenceCallbackE
_ZTVN7android8hardware4gnss4V1_024IGnssMeasurementCallbackE
_ZTVN7android8hardware4gnss4V1_025BnHwGnssNavigationMessageE
_ZTVN7android8hardware4gnss4V1_025BpHwGnssNavigationMessageE
_ZTVN7android8hardware4gnss4V1_027BnHwGnssMeasurementCallbackE
_ZTVN7android8hardware4gnss4V1_027BpHwGnssMeasurementCallbackE
_ZTVN7android8hardware4gnss4V1_030IGnssNavigationMessageCallbackE
_ZTVN7android8hardware4gnss4V1_033BnHwGnssNavigationMessageCallbackE
_ZTVN7android8hardware4gnss4V1_033BpHwGnssNavigationMessageCallbackE
_ZTVN7android8hardware4gnss4V1_05IGnssE
_ZTVN7android8hardware4gnss4V1_06IAGnssE
_ZTVN7android8hardware4gnss4V1_07IGnssNiE
_ZTVN7android8hardware4gnss4V1_08BnHwGnssE
_ZTVN7android8hardware4gnss4V1_08BpHwGnssE
_ZTVN7android8hardware4gnss4V1_09BnHwAGnssE
_ZTVN7android8hardware4gnss4V1_09BpHwAGnssE
_ZTVN7android8hardware4gnss4V1_09IAGnssRilE
_ZTVN7android8hardware4gnss4V1_09IGnssXtraE
_ZThn20_N7android8hardware4gnss4V1_010BnHwGnssNiD0Ev
_ZThn20_N7android8hardware4gnss4V1_010BnHwGnssNiD1Ev
_ZThn20_N7android8hardware4gnss4V1_012BnHwAGnssRilD0Ev
_ZThn20_N7android8hardware4gnss4V1_012BnHwAGnssRilD1Ev
_ZThn20_N7android8hardware4gnss4V1_012BnHwGnssXtraD0Ev
_ZThn20_N7android8hardware4gnss4V1_012BnHwGnssXtraD1Ev
_ZThn20_N7android8hardware4gnss4V1_013BnHwGnssDebugD0Ev
_ZThn20_N7android8hardware4gnss4V1_013BnHwGnssDebugD1Ev
_ZThn20_N7android8hardware4gnss4V1_016BnHwGnssBatchingD0Ev
_ZThn20_N7android8hardware4gnss4V1_016BnHwGnssBatchingD1Ev
_ZThn20_N7android8hardware4gnss4V1_016BnHwGnssCallbackD0Ev
_ZThn20_N7android8hardware4gnss4V1_016BnHwGnssCallbackD1Ev
_ZThn20_N7android8hardware4gnss4V1_017BnHwAGnssCallbackD0Ev
_ZThn20_N7android8hardware4gnss4V1_017BnHwAGnssCallbackD1Ev
_ZThn20_N7android8hardware4gnss4V1_018BnHwGnssGeofencingD0Ev
_ZThn20_N7android8hardware4gnss4V1_018BnHwGnssGeofencingD1Ev
_ZThn20_N7android8hardware4gnss4V1_018BnHwGnssNiCallbackD0Ev
_ZThn20_N7android8hardware4gnss4V1_018BnHwGnssNiCallbackD1Ev
_ZThn20_N7android8hardware4gnss4V1_019BnHwGnssMeasurementD0Ev
_ZThn20_N7android8hardware4gnss4V1_019BnHwGnssMeasurementD1Ev
_ZThn20_N7android8hardware4gnss4V1_020BnHwAGnssRilCallbackD0Ev
_ZThn20_N7android8hardware4gnss4V1_020BnHwAGnssRilCallbackD1Ev
_ZThn20_N7android8hardware4gnss4V1_020BnHwGnssXtraCallbackD0Ev
_ZThn20_N7android8hardware4gnss4V1_020BnHwGnssXtraCallbackD1Ev
_ZThn20_N7android8hardware4gnss4V1_021BnHwGnssConfigurationD0Ev
_ZThn20_N7android8hardware4gnss4V1_021BnHwGnssConfigurationD1Ev
_ZThn20_N7android8hardware4gnss4V1_024BnHwGnssBatchingCallbackD0Ev
_ZThn20_N7android8hardware4gnss4V1_024BnHwGnssBatchingCallbackD1Ev
_ZThn20_N7android8hardware4gnss4V1_024BnHwGnssGeofenceCallbackD0Ev
_ZThn20_N7android8hardware4gnss4V1_024BnHwGnssGeofenceCallbackD1Ev
_ZThn20_N7android8hardware4gnss4V1_025BnHwGnssNavigationMessageD0Ev
_ZThn20_N7android8hardware4gnss4V1_025BnHwGnssNavigationMessageD1Ev
_ZThn20_N7android8hardware4gnss4V1_027BnHwGnssMeasurementCallbackD0Ev
_ZThn20_N7android8hardware4gnss4V1_027BnHwGnssMeasurementCallbackD1Ev
_ZThn20_N7android8hardware4gnss4V1_033BnHwGnssNavigationMessageCallbackD0Ev
_ZThn20_N7android8hardware4gnss4V1_033BnHwGnssNavigationMessageCallbackD1Ev
_ZThn20_N7android8hardware4gnss4V1_08BnHwGnssD0Ev
_ZThn20_N7android8hardware4gnss4V1_08BnHwGnssD1Ev
_ZThn20_N7android8hardware4gnss4V1_09BnHwAGnssD0Ev
_ZThn20_N7android8hardware4gnss4V1_09BnHwAGnssD1Ev
_ZTv0_n12_N7android8hardware4gnss4V1_010BnHwGnssNiD0Ev
_ZTv0_n12_N7android8hardware4gnss4V1_010BnHwGnssNiD1Ev
_ZTv0_n12_N7android8hardware4gnss4V1_012BnHwAGnssRilD0Ev
_ZTv0_n12_N7android8hardware4gnss4V1_012BnHwAGnssRilD1Ev
_ZTv0_n12_N7android8hardware4gnss4V1_012BnHwGnssXtraD0Ev
_ZTv0_n12_N7android8hardware4gnss4V1_012BnHwGnssXtraD1Ev
_ZTv0_n12_N7android8hardware4gnss4V1_013BnHwGnssDebugD0Ev
_ZTv0_n12_N7android8hardware4gnss4V1_013BnHwGnssDebugD1Ev
_ZTv0_n12_N7android8hardware4gnss4V1_016BnHwGnssBatchingD0Ev
_ZTv0_n12_N7android8hardware4gnss4V1_016BnHwGnssBatchingD1Ev
_ZTv0_n12_N7android8hardware4gnss4V1_016BnHwGnssCallbackD0Ev
_ZTv0_n12_N7android8hardware4gnss4V1_016BnHwGnssCallbackD1Ev
_ZTv0_n12_N7android8hardware4gnss4V1_017BnHwAGnssCallbackD0Ev
_ZTv0_n12_N7android8hardware4gnss4V1_017BnHwAGnssCallbackD1Ev
_ZTv0_n12_N7android8hardware4gnss4V1_018BnHwGnssGeofencingD0Ev
_ZTv0_n12_N7android8hardware4gnss4V1_018BnHwGnssGeofencingD1Ev
_ZTv0_n12_N7android8hardware4gnss4V1_018BnHwGnssNiCallbackD0Ev
_ZTv0_n12_N7android8hardware4gnss4V1_018BnHwGnssNiCallbackD1Ev
_ZTv0_n12_N7android8hardware4gnss4V1_019BnHwGnssMeasurementD0Ev
_ZTv0_n12_N7android8hardware4gnss4V1_019BnHwGnssMeasurementD1Ev
_ZTv0_n12_N7android8hardware4gnss4V1_020BnHwAGnssRilCallbackD0Ev
_ZTv0_n12_N7android8hardware4gnss4V1_020BnHwAGnssRilCallbackD1Ev
_ZTv0_n12_N7android8hardware4gnss4V1_020BnHwGnssXtraCallbackD0Ev
_ZTv0_n12_N7android8hardware4gnss4V1_020BnHwGnssXtraCallbackD1Ev
_ZTv0_n12_N7android8hardware4gnss4V1_021BnHwGnssConfigurationD0Ev
_ZTv0_n12_N7android8hardware4gnss4V1_021BnHwGnssConfigurationD1Ev
_ZTv0_n12_N7android8hardware4gnss4V1_024BnHwGnssBatchingCallbackD0Ev
_ZTv0_n12_N7android8hardware4gnss4V1_024BnHwGnssBatchingCallbackD1Ev
_ZTv0_n12_N7android8hardware4gnss4V1_024BnHwGnssGeofenceCallbackD0Ev
_ZTv0_n12_N7android8hardware4gnss4V1_024BnHwGnssGeofenceCallbackD1Ev
_ZTv0_n12_N7android8hardware4gnss4V1_025BnHwGnssNavigationMessageD0Ev
_ZTv0_n12_N7android8hardware4gnss4V1_025BnHwGnssNavigationMessageD1Ev
_ZTv0_n12_N7android8hardware4gnss4V1_027BnHwGnssMeasurementCallbackD0Ev
_ZTv0_n12_N7android8hardware4gnss4V1_027BnHwGnssMeasurementCallbackD1Ev
_ZTv0_n12_N7android8hardware4gnss4V1_033BnHwGnssNavigationMessageCallbackD0Ev
_ZTv0_n12_N7android8hardware4gnss4V1_033BnHwGnssNavigationMessageCallbackD1Ev
_ZTv0_n12_N7android8hardware4gnss4V1_08BnHwGnssD0Ev
_ZTv0_n12_N7android8hardware4gnss4V1_08BnHwGnssD1Ev
_ZTv0_n12_N7android8hardware4gnss4V1_09BnHwAGnssD0Ev
_ZTv0_n12_N7android8hardware4gnss4V1_09BnHwAGnssD1Ev
