_ZN7android12IOMXObserver10descriptorE
_ZN7android12IOMXObserver11asInterfaceERKNS_2spINS_7IBinderEEE
_ZN7android12IOMXObserverC2Ev
_ZN7android12IOMXObserverD0Ev
_ZN7android12IOMXObserverD1Ev
_ZN7android12IOMXObserverD2Ev
_ZN7android13BnOMXObserver10onTransactEjRKNS_6ParcelEPS1_j
_ZN7android14MediaCodecInfo10FromParcelERKNS_6ParcelE
_ZN7android14MediaCodecInfo12Capabilities10FromParcelERKNS_6ParcelE
_ZN7android14MediaCodecInfo12CapabilitiesC1Ev
_ZN7android14MediaCodecInfo12CapabilitiesC2Ev
_ZN7android14MediaCodecInfo18CapabilitiesWriter14addColorFormatEj
_ZN7android14MediaCodecInfo18CapabilitiesWriter15addProfileLevelEjj
_ZN7android14MediaCodecInfo18CapabilitiesWriter8addFlagsEj
_ZN7android14MediaCodecInfo18CapabilitiesWriter9addDetailEPKcS3_
_ZN7android14MediaCodecInfo18CapabilitiesWriter9addDetailEPKci
_ZN7android14MediaCodecInfo18CapabilitiesWriterC1EPNS0_12CapabilitiesE
_ZN7android14MediaCodecInfo18CapabilitiesWriterC2EPNS0_12CapabilitiesE
_ZN7android14MediaCodecInfoC1Ev
_ZN7android14MediaCodecInfoC2Ev
_ZN7android15IMediaCodecList10descriptorE
_ZN7android15IMediaCodecList11asInterfaceERKNS_2spINS_7IBinderEEE
_ZN7android15IMediaCodecListC2Ev
_ZN7android15IMediaCodecListD0Ev
_ZN7android15IMediaCodecListD1Ev
_ZN7android15IMediaCodecListD2Ev
_ZN7android16BnMediaCodecList10onTransactEjRKNS_6ParcelEPS1_j
_ZN7android16IOMXBufferSource10descriptorE
_ZN7android16IOMXBufferSource11asInterfaceERKNS_2spINS_7IBinderEEE
_ZN7android16IOMXBufferSourceC2Ev
_ZN7android16IOMXBufferSourceD0Ev
_ZN7android16IOMXBufferSourceD1Ev
_ZN7android16IOMXBufferSourceD2Ev
_ZN7android16MediaCodecBuffer4baseEv
_ZN7android16MediaCodecBuffer4dataEv
_ZN7android16MediaCodecBuffer4metaEv
_ZN7android16MediaCodecBuffer6formatEv
_ZN7android16MediaCodecBuffer8setRangeEjj
_ZN7android16MediaCodecBuffer9setFormatERKNS_2spINS_8AMessageEEE
_ZN7android16MediaCodecBufferC1ERKNS_2spINS_8AMessageEEERKNS1_INS_7ABufferEEE
_ZN7android16MediaCodecBufferC2ERKNS_2spINS_8AMessageEEERKNS1_INS_7ABufferEEE
_ZN7android17BnOMXBufferSource10onTransactEjRKNS_6ParcelEPS1_j
_ZN7android17BpOMXBufferSource11onOmxLoadedEv
_ZN7android17BpOMXBufferSource14onOmxExecutingEv
_ZN7android17BpOMXBufferSource18onInputBufferAddedEi
_ZN7android17BpOMXBufferSource20onInputBufferEmptiedEiRKNS_18OMXFenceParcelableE
_ZN7android17BpOMXBufferSource9onOmxIdleEv
_ZN7android17BpOMXBufferSourceC1ERKNS_2spINS_7IBinderEEE
_ZN7android17BpOMXBufferSourceC2ERKNS_2spINS_7IBinderEEE
_ZN7android20IGraphicBufferSource10descriptorE
_ZN7android20IGraphicBufferSource11asInterfaceERKNS_2spINS_7IBinderEEE
_ZN7android20IGraphicBufferSourceC2Ev
_ZN7android20IGraphicBufferSourceD0Ev
_ZN7android20IGraphicBufferSourceD1Ev
_ZN7android20IGraphicBufferSourceD2Ev
_ZN7android20MediaCodecInfoWriter10removeMimeEPKc
_ZN7android20MediaCodecInfoWriter10setEncoderEb
_ZN7android20MediaCodecInfoWriter7addMimeEPKc
_ZN7android20MediaCodecInfoWriter7setNameEPKc
_ZN7android20MediaCodecInfoWriter7setRankEj
_ZN7android20MediaCodecInfoWriter8setOwnerEPKc
_ZN7android20MediaCodecInfoWriterC1EPNS_14MediaCodecInfoE
_ZN7android20MediaCodecInfoWriterC2EPNS_14MediaCodecInfoE
_ZN7android21BnGraphicBufferSource10onTransactEjRKNS_6ParcelEPS1_j
_ZN7android21BpGraphicBufferSource10setSuspendEbx
_ZN7android21BpGraphicBufferSource13setStopTimeUsEx
_ZN7android21BpGraphicBufferSource14setStartTimeUsEx
_ZN7android21BpGraphicBufferSource15setColorAspectsEi
_ZN7android21BpGraphicBufferSource15setTimeOffsetUsEx
_ZN7android21BpGraphicBufferSource18setTimeLapseConfigEdd
_ZN7android21BpGraphicBufferSource19getStopTimeOffsetUsEPx
_ZN7android21BpGraphicBufferSource22signalEndOfInputStreamEv
_ZN7android21BpGraphicBufferSource29setRepeatPreviousFrameDelayUsEx
_ZN7android21BpGraphicBufferSource9configureERKNS_2spINS_8IOMXNodeEEEi
_ZN7android21BpGraphicBufferSource9setMaxFpsEf
_ZN7android21BpGraphicBufferSourceC1ERKNS_2spINS_7IBinderEEE
_ZN7android21BpGraphicBufferSourceC2ERKNS_2spINS_7IBinderEEE
_ZN7android4IOMX10descriptorE
_ZN7android4IOMX11asInterfaceERKNS_2spINS_7IBinderEEE
_ZN7android4IOMXC2Ev
_ZN7android4IOMXD0Ev
_ZN7android4IOMXD1Ev
_ZN7android4IOMXD2Ev
_ZN7android5BnOMX10onTransactEjRKNS_6ParcelEPS1_j
_ZN7android8IOMXNode10descriptorE
_ZN7android8IOMXNode11asInterfaceERKNS_2spINS_7IBinderEEE
_ZN7android8IOMXNode15getHalInterfaceEv
_ZN7android8IOMXNodeC2Ev
_ZN7android8IOMXNodeD0Ev
_ZN7android8IOMXNodeD1Ev
_ZN7android8IOMXNodeD2Ev
_ZN7android8hardware5media3omx4V1_05utils13LWOmxObserver10onMessagesERKNSt3__14listINS_11omx_messageENS6_9allocatorIS8_EEEE
_ZN7android8hardware5media3omx4V1_05utils13LWOmxObserverC1ERKNS_2spINS3_12IOmxObserverEEE
_ZN7android8hardware5media3omx4V1_05utils13LWOmxObserverC2ERKNS_2spINS3_12IOmxObserverEEE
_ZN7android8hardware5media3omx4V1_05utils13TWOmxObserver10onMessagesERKNS0_8hidl_vecINS3_7MessageEEE
_ZN7android8hardware5media3omx4V1_05utils13TWOmxObserverC1ERKNS_2spINS_12IOMXObserverEEE
_ZN7android8hardware5media3omx4V1_05utils13TWOmxObserverC2ERKNS_2spINS_12IOMXObserverEEE
_ZN7android8hardware5media3omx4V1_05utils17LWOmxBufferSource11onOmxLoadedEv
_ZN7android8hardware5media3omx4V1_05utils17LWOmxBufferSource14onOmxExecutingEv
_ZN7android8hardware5media3omx4V1_05utils17LWOmxBufferSource18onInputBufferAddedEi
_ZN7android8hardware5media3omx4V1_05utils17LWOmxBufferSource20onInputBufferEmptiedEiRKNS_18OMXFenceParcelableE
_ZN7android8hardware5media3omx4V1_05utils17LWOmxBufferSource9onOmxIdleEv
_ZN7android8hardware5media3omx4V1_05utils17LWOmxBufferSourceC1ERKNS_2spINS3_16IOmxBufferSourceEEE
_ZN7android8hardware5media3omx4V1_05utils17LWOmxBufferSourceC2ERKNS_2spINS3_16IOmxBufferSourceEEE
_ZN7android8hardware5media3omx4V1_05utils17TWOmxBufferSource11onOmxLoadedEv
_ZN7android8hardware5media3omx4V1_05utils17TWOmxBufferSource14onOmxExecutingEv
_ZN7android8hardware5media3omx4V1_05utils17TWOmxBufferSource18onInputBufferAddedEj
_ZN7android8hardware5media3omx4V1_05utils17TWOmxBufferSource20onInputBufferEmptiedEjRKNS0_11hidl_handleE
_ZN7android8hardware5media3omx4V1_05utils17TWOmxBufferSource9onOmxIdleEv
_ZN7android8hardware5media3omx4V1_05utils17TWOmxBufferSourceC1ERKNS_2spINS_16IOMXBufferSourceEEE
_ZN7android8hardware5media3omx4V1_05utils17TWOmxBufferSourceC2ERKNS_2spINS_16IOMXBufferSourceEEE
_ZN7android8hardware5media3omx4V1_05utils21LWGraphicBufferSource10setSuspendEbx
_ZN7android8hardware5media3omx4V1_05utils21LWGraphicBufferSource13setStopTimeUsEx
_ZN7android8hardware5media3omx4V1_05utils21LWGraphicBufferSource14setStartTimeUsEx
_ZN7android8hardware5media3omx4V1_05utils21LWGraphicBufferSource15setColorAspectsEi
_ZN7android8hardware5media3omx4V1_05utils21LWGraphicBufferSource15setTimeOffsetUsEx
_ZN7android8hardware5media3omx4V1_05utils21LWGraphicBufferSource18setTimeLapseConfigEdd
_ZN7android8hardware5media3omx4V1_05utils21LWGraphicBufferSource19getStopTimeOffsetUsEPx
_ZN7android8hardware5media3omx4V1_05utils21LWGraphicBufferSource22signalEndOfInputStreamEv
_ZN7android8hardware5media3omx4V1_05utils21LWGraphicBufferSource29setRepeatPreviousFrameDelayUsEx
_ZN7android8hardware5media3omx4V1_05utils21LWGraphicBufferSource9configureERKNS_2spINS_8IOMXNodeEEEi
_ZN7android8hardware5media3omx4V1_05utils21LWGraphicBufferSource9setMaxFpsEf
_ZN7android8hardware5media3omx4V1_05utils21LWGraphicBufferSourceC1ERKNS_2spINS3_20IGraphicBufferSourceEEE
_ZN7android8hardware5media3omx4V1_05utils21LWGraphicBufferSourceC2ERKNS_2spINS3_20IGraphicBufferSourceEEE
_ZN7android8hardware5media3omx4V1_05utils5LWOmx12allocateNodeEPKcRKNS_2spINS_12IOMXObserverEEEPNS8_INS_8IOMXNodeEEE
_ZN7android8hardware5media3omx4V1_05utils5LWOmx18createInputSurfaceEPNS_2spINS_22IGraphicBufferProducerEEEPNS6_INS_20IGraphicBufferSourceEEE
_ZN7android8hardware5media3omx4V1_05utils5LWOmx9listNodesEPNS_4ListINS_4IOMX13ComponentInfoEEE
_ZN7android8hardware5media3omx4V1_05utils5LWOmxC1ERKNS_2spINS3_4IOmxEEE
_ZN7android8hardware5media3omx4V1_05utils5LWOmxC2ERKNS_2spINS3_4IOmxEEE
_ZN7android8hardware5media3omx4V1_05utils9LWOmxNode10fillBufferEjRKNS_9OMXBufferEi
_ZN7android8hardware5media3omx4V1_05utils9LWOmxNode10freeBufferEjj
_ZN7android8hardware5media3omx4V1_05utils9LWOmxNode11emptyBufferEjRKNS_9OMXBufferEjxi
_ZN7android8hardware5media3omx4V1_05utils9LWOmxNode11sendCommandE15OMX_COMMANDTYPEi
_ZN7android8hardware5media3omx4V1_05utils9LWOmxNode11setPortModeEjNS_4IOMX8PortModeE
_ZN7android8hardware5media3omx4V1_05utils9LWOmxNode12getParameterE13OMX_INDEXTYPEPvj
_ZN7android8hardware5media3omx4V1_05utils9LWOmxNode12setParameterE13OMX_INDEXTYPEPKvj
_ZN7android8hardware5media3omx4V1_05utils9LWOmxNode15dispatchMessageERKNS_11omx_messageE
_ZN7android8hardware5media3omx4V1_05utils9LWOmxNode15setInputSurfaceERKNS_2spINS_16IOMXBufferSourceEEE
_ZN7android8hardware5media3omx4V1_05utils9LWOmxNode17getExtensionIndexEPKcP13OMX_INDEXTYPE
_ZN7android8hardware5media3omx4V1_05utils9LWOmxNode20allocateSecureBufferEjjPjPPvPNS_2spINS_12NativeHandleEEE
_ZN7android8hardware5media3omx4V1_05utils9LWOmxNode21getGraphicBufferUsageEjPj
_ZN7android8hardware5media3omx4V1_05utils9LWOmxNode24configureVideoTunnelModeEj8OMX_BOOLjPP13native_handle
_ZN7android8hardware5media3omx4V1_05utils9LWOmxNode26prepareForAdaptivePlaybackEj8OMX_BOOLjj
_ZN7android8hardware5media3omx4V1_05utils9LWOmxNode8freeNodeEv
_ZN7android8hardware5media3omx4V1_05utils9LWOmxNode9getConfigE13OMX_INDEXTYPEPvj
_ZN7android8hardware5media3omx4V1_05utils9LWOmxNode9setConfigE13OMX_INDEXTYPEPKvj
_ZN7android8hardware5media3omx4V1_05utils9LWOmxNode9useBufferEjRKNS_9OMXBufferEPj
_ZN7android8hardware5media3omx4V1_05utils9TWOmxNode10fillBufferEjRKNS3_11CodecBufferERKNS0_11hidl_handleE
_ZN7android8hardware5media3omx4V1_05utils9TWOmxNode10freeBufferEjj
_ZN7android8hardware5media3omx4V1_05utils9TWOmxNode11emptyBufferEjRKNS3_11CodecBufferEjyRKNS0_11hidl_handleE
_ZN7android8hardware5media3omx4V1_05utils9TWOmxNode11sendCommandEji
_ZN7android8hardware5media3omx4V1_05utils9TWOmxNode11setPortModeEjNS3_8PortModeE
_ZN7android8hardware5media3omx4V1_05utils9TWOmxNode12getParameterEjRKNS0_8hidl_vecIhEENSt3__18functionIFvNS3_6StatusES9_EEE
_ZN7android8hardware5media3omx4V1_05utils9TWOmxNode12setParameterEjRKNS0_8hidl_vecIhEE
_ZN7android8hardware5media3omx4V1_05utils9TWOmxNode15dispatchMessageERKNS3_7MessageE
_ZN7android8hardware5media3omx4V1_05utils9TWOmxNode15setInputSurfaceERKNS_2spINS3_16IOmxBufferSourceEEE
_ZN7android8hardware5media3omx4V1_05utils9TWOmxNode17getExtensionIndexERKNS0_11hidl_stringENSt3__18functionIFvNS3_6StatusEjEEE
_ZN7android8hardware5media3omx4V1_05utils9TWOmxNode20allocateSecureBufferEjyNSt3__18functionIFvNS3_6StatusEjRKNS0_11hidl_handleEEEE
_ZN7android8hardware5media3omx4V1_05utils9TWOmxNode21getGraphicBufferUsageEjNSt3__18functionIFvNS3_6StatusEjEEE
_ZN7android8hardware5media3omx4V1_05utils9TWOmxNode24configureVideoTunnelModeEjbjNSt3__18functionIFvNS3_6StatusERKNS0_11hidl_handleEEEE
_ZN7android8hardware5media3omx4V1_05utils9TWOmxNode26prepareForAdaptivePlaybackEjbjj
_ZN7android8hardware5media3omx4V1_05utils9TWOmxNode8freeNodeEv
_ZN7android8hardware5media3omx4V1_05utils9TWOmxNode9getConfigEjRKNS0_8hidl_vecIhEENSt3__18functionIFvNS3_6StatusES9_EEE
_ZN7android8hardware5media3omx4V1_05utils9TWOmxNode9setConfigEjRKNS0_8hidl_vecIhEE
_ZN7android8hardware5media3omx4V1_05utils9TWOmxNode9useBufferEjRKNS3_11CodecBufferENSt3__18functionIFvNS3_6StatusEjEEE
_ZN7android8hardware5media3omx4V1_05utils9TWOmxNodeC1ERKNS_2spINS_8IOMXNodeEEE
_ZN7android8hardware5media3omx4V1_05utils9TWOmxNodeC2ERKNS_2spINS_8IOMXNodeEEE
_ZN7android9BnOMXNode10onTransactEjRKNS_6ParcelEPS1_j
_ZN7android9OMXBuffer14readFromParcelEPKNS_6ParcelE
_ZN7android9OMXBuffer7sPresetE
_ZN7android9OMXBufferC1ERKNS_2spINS_12NativeHandleEEE
_ZN7android9OMXBufferC1ERKNS_2spINS_13GraphicBufferEEE
_ZN7android9OMXBufferC1ERKNS_2spINS_16MediaCodecBufferEEE
_ZN7android9OMXBufferC1ERKNS_2spINS_7IMemoryEEE
_ZN7android9OMXBufferC1ERKNS_8hardware11hidl_memoryE
_ZN7android9OMXBufferC1Ejj
_ZN7android9OMXBufferC1Ev
_ZN7android9OMXBufferC2ERKNS_2spINS_12NativeHandleEEE
_ZN7android9OMXBufferC2ERKNS_2spINS_13GraphicBufferEEE
_ZN7android9OMXBufferC2ERKNS_2spINS_16MediaCodecBufferEEE
_ZN7android9OMXBufferC2ERKNS_2spINS_7IMemoryEEE
_ZN7android9OMXBufferC2ERKNS_8hardware11hidl_memoryE
_ZN7android9OMXBufferC2Ejj
_ZN7android9OMXBufferC2Ev
_ZN7android9OMXBufferD1Ev
_ZN7android9OMXBufferD2Ev
_ZN7android9OMXBufferaSEOS0_
_ZNK7android12IOMXObserver22getInterfaceDescriptorEv
_ZNK7android14MediaCodecInfo12Capabilities10getDetailsEv
_ZNK7android14MediaCodecInfo12Capabilities13writeToParcelEPNS_6ParcelE
_ZNK7android14MediaCodecInfo12Capabilities24getSupportedColorFormatsEPNS_6VectorIjEE
_ZNK7android14MediaCodecInfo12Capabilities25getSupportedProfileLevelsEPNS_6VectorINS0_12ProfileLevelEEE
_ZNK7android14MediaCodecInfo12Capabilities8getFlagsEv
_ZNK7android14MediaCodecInfo12getCodecNameEv
_ZNK7android14MediaCodecInfo12getOwnerNameEv
_ZNK7android14MediaCodecInfo13writeToParcelEPNS_6ParcelE
_ZNK7android14MediaCodecInfo17getSupportedMimesEPNS_6VectorINS_7AStringEEE
_ZNK7android14MediaCodecInfo18getCapabilitiesForEPKc
_ZNK7android14MediaCodecInfo18getCapabilityIndexEPKc
_ZNK7android14MediaCodecInfo4rankEv
_ZNK7android14MediaCodecInfo9isEncoderEv
_ZNK7android15IMediaCodecList22getInterfaceDescriptorEv
_ZNK7android16IOMXBufferSource22getInterfaceDescriptorEv
_ZNK7android16MediaCodecBuffer4sizeEv
_ZNK7android16MediaCodecBuffer6offsetEv
_ZNK7android16MediaCodecBuffer8capacityEv
_ZNK7android20IGraphicBufferSource22getInterfaceDescriptorEv
_ZNK7android4IOMX22getInterfaceDescriptorEv
_ZNK7android8IOMXNode22getInterfaceDescriptorEv
_ZNK7android9OMXBuffer13writeToParcelEPNS_6ParcelE
_ZTCN7android12IOMXObserverE0_NS_10IInterfaceE
_ZTCN7android13BnOMXObserverE0_NS_10IInterfaceE
_ZTCN7android13BnOMXObserverE0_NS_11BnInterfaceINS_12IOMXObserverEEE
_ZTCN7android13BnOMXObserverE0_NS_12IOMXObserverE
_ZTCN7android13BnOMXObserverE4_NS_7BBinderE
_ZTCN7android13BnOMXObserverE4_NS_7IBinderE
_ZTCN7android15IMediaCodecListE0_NS_10IInterfaceE
_ZTCN7android16BnMediaCodecListE0_NS_10IInterfaceE
_ZTCN7android16BnMediaCodecListE0_NS_11BnInterfaceINS_15IMediaCodecListEEE
_ZTCN7android16BnMediaCodecListE0_NS_15IMediaCodecListE
_ZTCN7android16BnMediaCodecListE4_NS_7BBinderE
_ZTCN7android16BnMediaCodecListE4_NS_7IBinderE
_ZTCN7android16IOMXBufferSourceE0_NS_10IInterfaceE
_ZTCN7android17BnOMXBufferSourceE0_NS_10IInterfaceE
_ZTCN7android17BnOMXBufferSourceE0_NS_11BnInterfaceINS_16IOMXBufferSourceEEE
_ZTCN7android17BnOMXBufferSourceE0_NS_16IOMXBufferSourceE
_ZTCN7android17BnOMXBufferSourceE4_NS_7BBinderE
_ZTCN7android17BnOMXBufferSourceE4_NS_7IBinderE
_ZTCN7android17BpOMXBufferSourceE0_NS_10IInterfaceE
_ZTCN7android17BpOMXBufferSourceE0_NS_11BpInterfaceINS_16IOMXBufferSourceEEE
_ZTCN7android17BpOMXBufferSourceE0_NS_16IOMXBufferSourceE
_ZTCN7android17BpOMXBufferSourceE4_NS_9BpRefBaseE
_ZTCN7android20IGraphicBufferSourceE0_NS_10IInterfaceE
_ZTCN7android21BnGraphicBufferSourceE0_NS_10IInterfaceE
_ZTCN7android21BnGraphicBufferSourceE0_NS_11BnInterfaceINS_20IGraphicBufferSourceEEE
_ZTCN7android21BnGraphicBufferSourceE0_NS_20IGraphicBufferSourceE
_ZTCN7android21BnGraphicBufferSourceE4_NS_7BBinderE
_ZTCN7android21BnGraphicBufferSourceE4_NS_7IBinderE
_ZTCN7android21BpGraphicBufferSourceE0_NS_10IInterfaceE
_ZTCN7android21BpGraphicBufferSourceE0_NS_11BpInterfaceINS_20IGraphicBufferSourceEEE
_ZTCN7android21BpGraphicBufferSourceE0_NS_20IGraphicBufferSourceE
_ZTCN7android21BpGraphicBufferSourceE4_NS_9BpRefBaseE
_ZTCN7android4IOMXE0_NS_10IInterfaceE
_ZTCN7android5BnOMXE0_NS_10IInterfaceE
_ZTCN7android5BnOMXE0_NS_11BnInterfaceINS_4IOMXEEE
_ZTCN7android5BnOMXE0_NS_4IOMXE
_ZTCN7android5BnOMXE4_NS_7BBinderE
_ZTCN7android5BnOMXE4_NS_7IBinderE
_ZTCN7android8IOMXNodeE0_NS_10IInterfaceE
_ZTCN7android8hardware5media3omx4V1_05utils13LWOmxObserverE0_NS_10IInterfaceE
_ZTCN7android8hardware5media3omx4V1_05utils13LWOmxObserverE0_NS_11BnInterfaceINS_12IOMXObserverEEE
_ZTCN7android8hardware5media3omx4V1_05utils13LWOmxObserverE0_NS_12IOMXObserverE
_ZTCN7android8hardware5media3omx4V1_05utils13LWOmxObserverE0_NS_13BnOMXObserverE
_ZTCN7android8hardware5media3omx4V1_05utils13LWOmxObserverE4_NS_7BBinderE
_ZTCN7android8hardware5media3omx4V1_05utils13LWOmxObserverE4_NS_7IBinderE
_ZTCN7android8hardware5media3omx4V1_05utils13TWOmxObserverE0_NS3_12IOmxObserverE
_ZTCN7android8hardware5media3omx4V1_05utils13TWOmxObserverE0_NS_4hidl4base4V1_05IBaseE
_ZTCN7android8hardware5media3omx4V1_05utils17LWOmxBufferSourceE0_NS_10IInterfaceE
_ZTCN7android8hardware5media3omx4V1_05utils17LWOmxBufferSourceE0_NS_11BnInterfaceINS_16IOMXBufferSourceEEE
_ZTCN7android8hardware5media3omx4V1_05utils17LWOmxBufferSourceE0_NS_16IOMXBufferSourceE
_ZTCN7android8hardware5media3omx4V1_05utils17LWOmxBufferSourceE0_NS_17BnOMXBufferSourceE
_ZTCN7android8hardware5media3omx4V1_05utils17LWOmxBufferSourceE4_NS_7BBinderE
_ZTCN7android8hardware5media3omx4V1_05utils17LWOmxBufferSourceE4_NS_7IBinderE
_ZTCN7android8hardware5media3omx4V1_05utils17TWOmxBufferSourceE0_NS3_16IOmxBufferSourceE
_ZTCN7android8hardware5media3omx4V1_05utils17TWOmxBufferSourceE0_NS_4hidl4base4V1_05IBaseE
_ZTCN7android8hardware5media3omx4V1_05utils21LWGraphicBufferSourceE0_NS_10IInterfaceE
_ZTCN7android8hardware5media3omx4V1_05utils21LWGraphicBufferSourceE0_NS_11BnInterfaceINS_20IGraphicBufferSourceEEE
_ZTCN7android8hardware5media3omx4V1_05utils21LWGraphicBufferSourceE0_NS_20IGraphicBufferSourceE
_ZTCN7android8hardware5media3omx4V1_05utils21LWGraphicBufferSourceE0_NS_21BnGraphicBufferSourceE
_ZTCN7android8hardware5media3omx4V1_05utils21LWGraphicBufferSourceE4_NS_7BBinderE
_ZTCN7android8hardware5media3omx4V1_05utils21LWGraphicBufferSourceE4_NS_7IBinderE
_ZTCN7android8hardware5media3omx4V1_05utils5LWOmxE0_NS_10IInterfaceE
_ZTCN7android8hardware5media3omx4V1_05utils5LWOmxE0_NS_11BnInterfaceINS_4IOMXEEE
_ZTCN7android8hardware5media3omx4V1_05utils5LWOmxE0_NS_4IOMXE
_ZTCN7android8hardware5media3omx4V1_05utils5LWOmxE0_NS_5BnOMXE
_ZTCN7android8hardware5media3omx4V1_05utils5LWOmxE4_NS_7BBinderE
_ZTCN7android8hardware5media3omx4V1_05utils5LWOmxE4_NS_7IBinderE
_ZTCN7android8hardware5media3omx4V1_05utils9LWOmxNodeE0_NS_10IInterfaceE
_ZTCN7android8hardware5media3omx4V1_05utils9LWOmxNodeE0_NS_11BnInterfaceINS_8IOMXNodeEEE
_ZTCN7android8hardware5media3omx4V1_05utils9LWOmxNodeE0_NS_12H2BConverterINS3_8IOmxNodeENS_8IOMXNodeENS_9BnOMXNodeELj1598507092EEE
_ZTCN7android8hardware5media3omx4V1_05utils9LWOmxNodeE0_NS_8IOMXNodeE
_ZTCN7android8hardware5media3omx4V1_05utils9LWOmxNodeE0_NS_9BnOMXNodeE
_ZTCN7android8hardware5media3omx4V1_05utils9LWOmxNodeE4_NS_7BBinderE
_ZTCN7android8hardware5media3omx4V1_05utils9LWOmxNodeE4_NS_7IBinderE
_ZTCN7android8hardware5media3omx4V1_05utils9TWOmxNodeE0_NS3_8IOmxNodeE
_ZTCN7android8hardware5media3omx4V1_05utils9TWOmxNodeE0_NS_4hidl4base4V1_05IBaseE
_ZTCN7android9BnOMXNodeE0_NS_10IInterfaceE
_ZTCN7android9BnOMXNodeE0_NS_11BnInterfaceINS_8IOMXNodeEEE
_ZTCN7android9BnOMXNodeE0_NS_8IOMXNodeE
_ZTCN7android9BnOMXNodeE4_NS_7BBinderE
_ZTCN7android9BnOMXNodeE4_NS_7IBinderE
_ZTTN7android12IOMXObserverE
_ZTTN7android13BnOMXObserverE
_ZTTN7android15IMediaCodecListE
_ZTTN7android16BnMediaCodecListE
_ZTTN7android16IOMXBufferSourceE
_ZTTN7android17BnOMXBufferSourceE
_ZTTN7android17BpOMXBufferSourceE
_ZTTN7android20IGraphicBufferSourceE
_ZTTN7android21BnGraphicBufferSourceE
_ZTTN7android21BpGraphicBufferSourceE
_ZTTN7android4IOMXE
_ZTTN7android5BnOMXE
_ZTTN7android8IOMXNodeE
_ZTTN7android8hardware5media3omx4V1_05utils13LWOmxObserverE
_ZTTN7android8hardware5media3omx4V1_05utils13TWOmxObserverE
_ZTTN7android8hardware5media3omx4V1_05utils17LWOmxBufferSourceE
_ZTTN7android8hardware5media3omx4V1_05utils17TWOmxBufferSourceE
_ZTTN7android8hardware5media3omx4V1_05utils21LWGraphicBufferSourceE
_ZTTN7android8hardware5media3omx4V1_05utils5LWOmxE
_ZTTN7android8hardware5media3omx4V1_05utils9LWOmxNodeE
_ZTTN7android8hardware5media3omx4V1_05utils9TWOmxNodeE
_ZTTN7android9BnOMXNodeE
_ZTVN7android12IOMXObserverE
_ZTVN7android13BnOMXObserverE
_ZTVN7android15IMediaCodecListE
_ZTVN7android16BnMediaCodecListE
_ZTVN7android16IOMXBufferSourceE
_ZTVN7android16MediaCodecBufferE
_ZTVN7android17BnOMXBufferSourceE
_ZTVN7android17BpOMXBufferSourceE
_ZTVN7android20IGraphicBufferSourceE
_ZTVN7android21BnGraphicBufferSourceE
_ZTVN7android21BpGraphicBufferSourceE
_ZTVN7android4IOMXE
_ZTVN7android5BnOMXE
_ZTVN7android8IOMXNodeE
_ZTVN7android8hardware5media3omx4V1_05utils13LWOmxObserverE
_ZTVN7android8hardware5media3omx4V1_05utils13TWOmxObserverE
_ZTVN7android8hardware5media3omx4V1_05utils17LWOmxBufferSourceE
_ZTVN7android8hardware5media3omx4V1_05utils17TWOmxBufferSourceE
_ZTVN7android8hardware5media3omx4V1_05utils21LWGraphicBufferSourceE
_ZTVN7android8hardware5media3omx4V1_05utils5LWOmxE
_ZTVN7android8hardware5media3omx4V1_05utils9LWOmxNodeE
_ZTVN7android8hardware5media3omx4V1_05utils9TWOmxNodeE
_ZTVN7android9BnOMXNodeE
_ZThn4_N7android13BnOMXObserver10onTransactEjRKNS_6ParcelEPS1_j
_ZThn4_N7android16BnMediaCodecList10onTransactEjRKNS_6ParcelEPS1_j
_ZThn4_N7android17BnOMXBufferSource10onTransactEjRKNS_6ParcelEPS1_j
_ZThn4_N7android21BnGraphicBufferSource10onTransactEjRKNS_6ParcelEPS1_j
_ZThn4_N7android5BnOMX10onTransactEjRKNS_6ParcelEPS1_j
_ZThn4_N7android9BnOMXNode10onTransactEjRKNS_6ParcelEPS1_j
_ZTv0_n12_N7android12IOMXObserverD0Ev
_ZTv0_n12_N7android12IOMXObserverD1Ev
_ZTv0_n12_N7android15IMediaCodecListD0Ev
_ZTv0_n12_N7android15IMediaCodecListD1Ev
_ZTv0_n12_N7android16IOMXBufferSourceD0Ev
_ZTv0_n12_N7android16IOMXBufferSourceD1Ev
_ZTv0_n12_N7android20IGraphicBufferSourceD0Ev
_ZTv0_n12_N7android20IGraphicBufferSourceD1Ev
_ZTv0_n12_N7android4IOMXD0Ev
_ZTv0_n12_N7android4IOMXD1Ev
_ZTv0_n12_N7android8IOMXNodeD0Ev
_ZTv0_n12_N7android8IOMXNodeD1Ev
