_Z11OpenArchivePKcPPv
_Z12CloseArchivePv
_Z12EndIterationPv
_Z13OpenArchiveFdiPKcPPvb
_Z14StartIterationPvPS_PK9ZipStringS3_
_Z15ErrorCodeStringi
_Z15ExtractToMemoryPvP8ZipEntryPhj
_Z15ExtractToWriterPvP8ZipEntryPN11zip_archive6WriterE
_Z17GetFileDescriptorPv
_Z18ExtractEntryToFilePvP8ZipEntryi
_Z21OpenArchiveFromMemoryPvjPKcPS_
_Z23ProcessZipEntryContentsPvP8ZipEntryPFbPKhjS_ES_
_Z4NextPvP8ZipEntryP9ZipString
_Z9FindEntryPvRK9ZipStringP8ZipEntry
_ZN10ZipArchive26InitializeCentralDirectoryEPKcxj
_ZN11zip_archive6ReaderD0Ev
_ZN11zip_archive6ReaderD1Ev
_ZN11zip_archive6ReaderD2Ev
_ZN11zip_archive6WriterD0Ev
_ZN11zip_archive6WriterD1Ev
_ZN11zip_archive6WriterD2Ev
_ZN11zip_archive7InflateERKNS_6ReaderEjjPNS_6WriterEPy
_ZN16CentralDirectory10InitializeEPvxj
_ZN21ZipArchiveStreamEntry4InitERK8ZipEntry
_ZN21ZipArchiveStreamEntry6CreateEPvRK8ZipEntry
_ZN21ZipArchiveStreamEntry9CreateRawEPvRK8ZipEntry
_ZN31ZipArchiveStreamEntryCompressed4InitERK8ZipEntry
_ZN31ZipArchiveStreamEntryCompressed4ReadEv
_ZN31ZipArchiveStreamEntryCompressed6VerifyEv
_ZN31ZipArchiveStreamEntryCompressedD0Ev
_ZN31ZipArchiveStreamEntryCompressedD1Ev
_ZN31ZipArchiveStreamEntryCompressedD2Ev
_ZN33ZipArchiveStreamEntryUncompressed4InitERK8ZipEntry
_ZN33ZipArchiveStreamEntryUncompressed4ReadEv
_ZN33ZipArchiveStreamEntryUncompressed6VerifyEv
_ZN34ZipArchiveStreamEntryRawCompressed4InitERK8ZipEntry
_ZN34ZipArchiveStreamEntryRawCompressed6VerifyEv
_ZN9ZipStringC1EPKc
_ZN9ZipStringC2EPKc
_ZN9ZipWriter10StartEntryEPKcj
_ZN9ZipWriter10StoreBytesEPNS_9FileEntryEPKvj
_ZN9ZipWriter10WriteBytesEPKvj
_ZN9ZipWriter11FinishEntryEv
_ZN9ZipWriter11HandleErrorEi
_ZN9ZipWriter12GetLastEntryEPNS_9FileEntryE
_ZN9ZipWriter13CompressBytesEPNS_9FileEntryEPKvj
_ZN9ZipWriter14PrepareDeflateEv
_ZN9ZipWriter15ErrorCodeStringEi
_ZN9ZipWriter16DiscardLastEntryEv
_ZN9ZipWriter17StartAlignedEntryEPKcjj
_ZN9ZipWriter18StartEntryWithTimeEPKcjl
_ZN9ZipWriter20FlushCompressedBytesEPNS_9FileEntryE
_ZN9ZipWriter25StartAlignedEntryWithTimeEPKcjlj
_ZN9ZipWriter6FinishEv
_ZN9ZipWriterC1EOS_
_ZN9ZipWriterC1EP7__sFILE
_ZN9ZipWriterC2EOS_
_ZN9ZipWriterC2EP7__sFILE
_ZN9ZipWriteraSEOS_
_ZNK13MappedZipFile10GetBasePtrEv
_ZNK13MappedZipFile12ReadAtOffsetEPhjx
_ZNK13MappedZipFile13GetFileLengthEv
_ZNK13MappedZipFile17GetFileDescriptorEv
_ZNK8ZipEntry19GetModificationTimeEv
_ZTV21ZipArchiveStreamEntry
_ZTV31ZipArchiveStreamEntryCompressed
_ZTV33ZipArchiveStreamEntryUncompressed
_ZTV34ZipArchiveStreamEntryRawCompressed
_ZTVN11zip_archive6ReaderE
_ZTVN11zip_archive6WriterE
