_ZN6bcinfo14BitcodeWrapper6unwrapEv
_ZN6bcinfo14BitcodeWrapperC1EPKcj
_ZN6bcinfo14BitcodeWrapperC2EPKcj
_ZN6bcinfo14BitcodeWrapperD1Ev
_ZN6bcinfo14BitcodeWrapperD2Ev
_ZN6bcinfo17BitcodeTranslator9translateEv
_ZN6bcinfo17BitcodeTranslatorC1EPKcjj
_ZN6bcinfo17BitcodeTranslatorC2EPKcjj
_ZN6bcinfo17BitcodeTranslatorD1Ev
_ZN6bcinfo17BitcodeTranslatorD2Ev
_ZN6bcinfo17MetadataExtractor18calculateNumInputsEPKN4llvm8FunctionEj
_ZN6bcinfo17MetadataExtractor18readThreadableFlagEPKN4llvm11NamedMDNodeE
_ZN6bcinfo17MetadataExtractor20kWrapperMetadataNameE
_ZN6bcinfo17MetadataExtractor22populatePragmaMetadataEPKN4llvm11NamedMDNodeE
_ZN6bcinfo17MetadataExtractor22populateReduceMetadataEPKN4llvm11NamedMDNodeE
_ZN6bcinfo17MetadataExtractor23populateForEachMetadataEPKN4llvm11NamedMDNodeES4_
_ZN6bcinfo17MetadataExtractor25readBuildChecksumMetadataEPKN4llvm11NamedMDNodeE
_ZN6bcinfo17MetadataExtractor26populateObjectSlotMetadataEPKN4llvm11NamedMDNodeE
_ZN6bcinfo17MetadataExtractor7extractEv
_ZN6bcinfo17MetadataExtractorC1EPKN4llvm6ModuleE
_ZN6bcinfo17MetadataExtractorC1EPKcj
_ZN6bcinfo17MetadataExtractorC2EPKN4llvm6ModuleE
_ZN6bcinfo17MetadataExtractorC2EPKcj
_ZN6bcinfo17MetadataExtractorD1Ev
_ZN6bcinfo17MetadataExtractorD2Ev
_ZN8llvm_3_218WriteBitcodeToFileEPKN4llvm6ModuleERNS0_11raw_ostreamE
libbcinfo
