_Z17rsaMeshGetIndicesPvS_PS_Pjj
_Z18rsaMeshGetVerticesPvS_PS_j
_Z20rsaMeshGetIndexCountPvS_Pi
_Z24rsaFileA3DCreateFromFilePvPKc
_Z25rsaFileA3DCreateFromAssetPvS_
_Z25rsaFileA3DGetEntryByIndexPvjS_
_Z25rsaFileA3DGetIndexEntriesPvP16RsFileIndexEntryjS_
_Z26rsaFileA3DCreateFromMemoryPvPKvj
_Z27rsaMeshGetVertexBufferCountPvS_Pi
_Z28rsaFileA3DGetNumIndexEntriesPvPiS_
_ZN7android12renderscript10Allocation10getPointerEPKNS0_7ContextEj23RsAllocationCubemapFacejjPj
_ZN7android12renderscript10Allocation10getSurfaceEPKNS0_7ContextE
_ZN7android12renderscript10Allocation10setSurfaceEPKNS0_7ContextEPv
_ZN7android12renderscript10Allocation11copyRange1DEPNS0_7ContextEPKS1_iii
_ZN7android12renderscript10Allocation11elementDataEPNS0_7ContextEjjjPKvjj
_ZN7android12renderscript10Allocation11elementReadEPNS0_7ContextEjjjPvjj
_ZN7android12renderscript10Allocation11updateCacheEv
_ZN7android12renderscript10Allocation12freeChildrenEv
_ZN7android12renderscript10Allocation13adapterOffsetEPNS0_7ContextEPKjj
_ZN7android12renderscript10Allocation13createAdapterEPNS0_7ContextEPKS1_PKNS0_4TypeE
_ZN7android12renderscript10Allocation15writePackedDataEPNS0_7ContextEPKNS0_4TypeEPhPKhb
_ZN7android12renderscript10Allocation16createAllocationEPNS0_7ContextEPKNS0_4TypeEj25RsAllocationMipmapControlPv
_ZN7android12renderscript10Allocation16createFromStreamEPNS0_7ContextEPNS0_7IStreamE
_ZN7android12renderscript10Allocation16shareBufferQueueEPKNS0_7ContextEPKS1_
_ZN7android12renderscript10Allocation17addProgramToDirtyEPKNS0_7ProgramE
_ZN7android12renderscript10Allocation20freeChildrenUnlockedEv
_ZN7android12renderscript10Allocation20removeProgramToDirtyEPKNS0_7ProgramE
_ZN7android12renderscript10Allocation20setupGrallocConsumerEPKNS0_7ContextEj
_ZN7android12renderscript10Allocation20unpackVec3AllocationEPNS0_7ContextEPKvj
_ZN7android12renderscript10Allocation23createAllocationStridedEPNS0_7ContextEPKNS0_4TypeEj25RsAllocationMipmapControlPvj
_ZN7android12renderscript10Allocation4dataEPNS0_7ContextEjjj23RsAllocationCubemapFacejjPKvjj
_ZN7android12renderscript10Allocation4dataEPNS0_7ContextEjjjPKvj
_ZN7android12renderscript10Allocation4dataEPNS0_7ContextEjjjjjjjPKvjj
_ZN7android12renderscript10Allocation4readEPNS0_7ContextEjjj23RsAllocationCubemapFacejjPvjj
_ZN7android12renderscript10Allocation4readEPNS0_7ContextEjjjPvj
_ZN7android12renderscript10Allocation4readEPNS0_7ContextEjjjjjjjPvjj
_ZN7android12renderscript10Allocation6ioSendEPKNS0_7ContextE
_ZN7android12renderscript10Allocation7syncAllEPNS0_7ContextE21RsAllocationUsageType
_ZN7android12renderscript10Allocation8resize1DEPNS0_7ContextEj
_ZN7android12renderscript10Allocation8resize2DEPNS0_7ContextEjj
_ZN7android12renderscript10Allocation9ioReceiveEPKNS0_7ContextE
_ZN7android12renderscript10AllocationC1EPNS0_7ContextEPKNS0_4TypeEj25RsAllocationMipmapControlPv
_ZN7android12renderscript10AllocationC1EPNS0_7ContextEPKS1_PKNS0_4TypeE
_ZN7android12renderscript10AllocationC2EPNS0_7ContextEPKNS0_4TypeEj25RsAllocationMipmapControlPv
_ZN7android12renderscript10AllocationC2EPNS0_7ContextEPKS1_PKNS0_4TypeE
_ZN7android12renderscript10AllocationD0Ev
_ZN7android12renderscript10AllocationD1Ev
_ZN7android12renderscript10AllocationD2Ev
_ZN7android12renderscript10AllocationdlEPv
_ZN7android12renderscript10FifoSocket10readReturnEPKvj
_ZN7android12renderscript10FifoSocket10writeAsyncEPKvjb
_ZN7android12renderscript10FifoSocket15writeWaitReturnEPvj
_ZN7android12renderscript10FifoSocket4initEbbj
_ZN7android12renderscript10FifoSocket4readEPvj
_ZN7android12renderscript10FifoSocket7isEmptyEv
_ZN7android12renderscript10FifoSocket8shutdownEv
_ZN7android12renderscript10FifoSocketC1Ev
_ZN7android12renderscript10FifoSocketC2Ev
_ZN7android12renderscript10FifoSocketD0Ev
_ZN7android12renderscript10FifoSocketD1Ev
_ZN7android12renderscript10FifoSocketD2Ev
_ZN7android12renderscript10ObjectBase11asyncUnlockEv
_ZN7android12renderscript10ObjectBase11checkDeleteEPKS1_
_ZN7android12renderscript10ObjectBase12freeChildrenEv
_ZN7android12renderscript10ObjectBase14zeroAllUserRefEPNS0_7ContextE
_ZN7android12renderscript10ObjectBase15freeAllChildrenEPNS0_7ContextE
_ZN7android12renderscript10ObjectBase16gObjectInitMutexE
_ZN7android12renderscript10ObjectBase7dumpAllEPNS0_7ContextE
_ZN7android12renderscript10ObjectBase7isValidEPKNS0_7ContextEPKS1_
_ZN7android12renderscript10ObjectBase7setNameEPKc
_ZN7android12renderscript10ObjectBase7setNameEPKcj
_ZN7android12renderscript10ObjectBase9asyncLockEv
_ZN7android12renderscript10ObjectBaseC2EPNS0_7ContextE
_ZN7android12renderscript10ObjectBaseD0Ev
_ZN7android12renderscript10ObjectBaseD1Ev
_ZN7android12renderscript10ObjectBaseD2Ev
_ZN7android12renderscript10rsrForEachEPNS0_7ContextEPNS0_6ScriptEjjPPNS0_10AllocationES6_PKvjPK12RsScriptCall
_ZN7android12renderscript11ScriptGroup16calcOrderRecurseEPNS1_4NodeEi
_ZN7android12renderscript11ScriptGroup22validateInputAndOutputEPNS0_7ContextE
_ZN7android12renderscript11ScriptGroup2IOC1EPKNS0_14ScriptKernelIDE
_ZN7android12renderscript11ScriptGroup2IOC2EPKNS0_14ScriptKernelIDE
_ZN7android12renderscript11ScriptGroup4LinkC1Ev
_ZN7android12renderscript11ScriptGroup4LinkC2Ev
_ZN7android12renderscript11ScriptGroup4LinkD1Ev
_ZN7android12renderscript11ScriptGroup4LinkD2Ev
_ZN7android12renderscript11ScriptGroup4NodeC1EPNS0_6ScriptE
_ZN7android12renderscript11ScriptGroup4NodeC2EPNS0_6ScriptE
_ZN7android12renderscript11ScriptGroup6createEPNS0_7ContextEPPNS0_14ScriptKernelIDEjS6_jS6_jPPNS0_13ScriptFieldIDEjPPKNS0_4TypeEj
_ZN7android12renderscript11ScriptGroup7executeEPNS0_7ContextE
_ZN7android12renderscript11ScriptGroup8setInputEPNS0_7ContextEPNS0_14ScriptKernelIDEPNS0_10AllocationE
_ZN7android12renderscript11ScriptGroup9calcOrderEv
_ZN7android12renderscript11ScriptGroup9setOutputEPNS0_7ContextEPNS0_14ScriptKernelIDEPNS0_10AllocationE
_ZN7android12renderscript11ScriptGroupC1EPNS0_7ContextE
_ZN7android12renderscript11ScriptGroupC2EPNS0_7ContextE
_ZN7android12renderscript11ScriptGroupD0Ev
_ZN7android12renderscript11ScriptGroupD1Ev
_ZN7android12renderscript11ScriptGroupD2Ev
_ZN7android12renderscript11rsrBindFontEPNS0_7ContextEPNS0_4FontE
_ZN7android12renderscript11rsrDrawMeshEPNS0_7ContextEPNS0_4MeshE
_ZN7android12renderscript11rsrDrawPathEPNS0_7ContextEPNS0_4PathE
_ZN7android12renderscript11rsrDrawTextEPNS0_7ContextEPKcii
_ZN7android12renderscript11rsrGetWidthEPNS0_7ContextE
_ZN7android12renderscript11rsrIsObjectEPKNS0_7ContextENS0_14rs_object_baseE
_ZN7android12renderscript11rsrIsObjectEPKNS0_7ContextEPNS0_10ObjectBaseE
_ZN7android12renderscript11rsrToClientEPNS0_7ContextEiPKvi
_ZN7android12renderscript11rsrToClientEPNS0_7ContextEiPvi
_ZN7android12renderscript12ElementStateC1Ev
_ZN7android12renderscript12ElementStateC2Ev
_ZN7android12renderscript12ElementStateD1Ev
_ZN7android12renderscript12ElementStateD2Ev
_ZN7android12renderscript12ProgramStore15getProgramStoreEPNS0_7ContextEbbbbbb14RsBlendSrcFunc14RsBlendDstFunc11RsDepthFunc
_ZN7android12renderscript12ProgramStore16createFromStreamEPNS0_7ContextEPNS0_7IStreamE
_ZN7android12renderscript12ProgramStore4initEv
_ZN7android12renderscript12ProgramStore5setupEPKNS0_7ContextEPNS0_17ProgramStoreStateE
_ZN7android12renderscript12ProgramStoreC1EPNS0_7ContextEbbbbbb14RsBlendSrcFunc14RsBlendDstFunc11RsDepthFunc
_ZN7android12renderscript12ProgramStoreC2EPNS0_7ContextEbbbbbb14RsBlendSrcFunc14RsBlendDstFunc11RsDepthFunc
_ZN7android12renderscript12ProgramStoreD0Ev
_ZN7android12renderscript12ProgramStoreD1Ev
_ZN7android12renderscript12ProgramStoreD2Ev
_ZN7android12renderscript12ScriptGroup27executeEPNS0_7ContextE
_ZN7android12renderscript12ScriptGroup2D0Ev
_ZN7android12renderscript12ScriptGroup2D1Ev
_ZN7android12renderscript12ScriptGroup2D2Ev
_ZN7android12renderscript12property_getEPKcPcS2_
_ZN7android12renderscript12rsrFontColorEPNS0_7ContextEffff
_ZN7android12renderscript12rsrGetHeightEPNS0_7ContextE
_ZN7android12renderscript12rsrLocalTimeEPNS0_7ContextEP2tmPl
_ZN7android12renderscript12rsrSetObjectEPKNS0_7ContextEPNS0_14rs_object_baseEPKNS0_10ObjectBaseE
_ZN7android12renderscript12rsrSetObjectEPKNS0_7ContextEPvPNS0_10ObjectBaseE
_ZN7android12renderscript13ProgramRaster16createFromStreamEPNS0_7ContextEPNS0_7IStreamE
_ZN7android12renderscript13ProgramRaster16getProgramRasterEPNS0_7ContextEb10RsCullMode
_ZN7android12renderscript13ProgramRaster5setupEPKNS0_7ContextEPNS0_18ProgramRasterStateE
_ZN7android12renderscript13ProgramRasterC1EPNS0_7ContextEb10RsCullMode
_ZN7android12renderscript13ProgramRasterC2EPNS0_7ContextEb10RsCullMode
_ZN7android12renderscript13ProgramRasterD0Ev
_ZN7android12renderscript13ProgramRasterD1Ev
_ZN7android12renderscript13ProgramRasterD2Ev
_ZN7android12renderscript13ProgramVertex16createFromStreamEPNS0_7ContextEPNS0_7IStreamE
_ZN7android12renderscript13ProgramVertex5setupEPNS0_7ContextEPNS0_18ProgramVertexStateE
_ZN7android12renderscript13ProgramVertexC1EPNS0_7ContextEPKcjPS5_jPKjS8_j
_ZN7android12renderscript13ProgramVertexC2EPNS0_7ContextEPKcjPS5_jPKjS8_j
_ZN7android12renderscript13ProgramVertexD0Ev
_ZN7android12renderscript13ProgramVertexD1Ev
_ZN7android12renderscript13ProgramVertexD2Ev
_ZN7android12renderscript13ScriptFieldIDC1EPNS0_7ContextEPNS0_6ScriptEi
_ZN7android12renderscript13ScriptFieldIDC2EPNS0_7ContextEPNS0_6ScriptEi
_ZN7android12renderscript13rsrTypeCreateEPNS0_7ContextEPvjjjbbj
_ZN7android12renderscript13rsuCopyStringEPKc
_ZN7android12renderscript13rsuCopyStringEPKcj
_ZN7android12renderscript14ScriptInvokeIDC1EPNS0_7ContextEPNS0_6ScriptEi
_ZN7android12renderscript14ScriptInvokeIDC2EPNS0_7ContextEPNS0_6ScriptEi
_ZN7android12renderscript14ScriptKernelIDC1EPNS0_7ContextEPNS0_6ScriptEii
_ZN7android12renderscript14ScriptKernelIDC2EPNS0_7ContextEPNS0_6ScriptEii
_ZN7android12renderscript14gPlaybackFuncsE
_ZN7android12renderscript14rsi_AssignNameEPNS0_7ContextEPvPKcj
_ZN7android12renderscript14rsi_MeshCreateEPNS0_7ContextEPPvjS4_jPjj
_ZN7android12renderscript14rsi_ObjDestroyEPNS0_7ContextEPv
_ZN7android12renderscript14rsi_TypeCreateEPNS0_7ContextEPvjjjbbj
_ZN7android12renderscript14rsp_AssignNameEPNS0_7ContextEPKvj
_ZN7android12renderscript14rsp_MeshCreateEPNS0_7ContextEPKvj
_ZN7android12renderscript14rsp_ObjDestroyEPNS0_7ContextEPKvj
_ZN7android12renderscript14rsrBindSamplerEPNS0_7ContextEPNS0_15ProgramFragmentEjPNS0_7SamplerE
_ZN7android12renderscript14rsrBindTextureEPNS0_7ContextEPNS0_15ProgramFragmentEjPNS0_10AllocationE
_ZN7android12renderscript14rsrClearObjectEPKNS0_7ContextEPNS0_14rs_object_baseE
_ZN7android12renderscript14rsrClearObjectEPKNS0_7ContextEPv
_ZN7android12renderscript14rsrClearObjectEPNS0_14rs_object_baseE
_ZN7android12renderscript14rsrMeasureTextEPNS0_7ContextEPKcPiS5_S5_S5_
_ZN7android12renderscript14rsrUptimeNanosEPNS0_7ContextE
_ZN7android12renderscript14rsuJoinStringsEiPKPKc
_ZN7android12renderscript15GrallocConsumer10releaseIdxEj
_ZN7android12renderscript15GrallocConsumer12unlockBufferEj
_ZN7android12renderscript15GrallocConsumer14lockNextBufferEj
_ZN7android12renderscript15GrallocConsumer15getNativeWindowEv
_ZN7android12renderscript15GrallocConsumer16onFrameAvailableEPvP12AImageReader
_ZN7android12renderscript15GrallocConsumer19getNextAvailableIdxEPNS0_10AllocationE
_ZN7android12renderscript15GrallocConsumer8isActiveEv
_ZN7android12renderscript15GrallocConsumerC1EPKNS0_7ContextEPNS0_10AllocationEj
_ZN7android12renderscript15GrallocConsumerC2EPKNS0_7ContextEPNS0_10AllocationEj
_ZN7android12renderscript15GrallocConsumerD0Ev
_ZN7android12renderscript15GrallocConsumerD1Ev
_ZN7android12renderscript15GrallocConsumerD2Ev
_ZN7android12renderscript15ProgramFragment16createFromStreamEPNS0_7ContextEPNS0_7IStreamE
_ZN7android12renderscript15ProgramFragment16setConstantColorEPNS0_7ContextEffff
_ZN7android12renderscript15ProgramFragment5setupEPNS0_7ContextEPNS0_20ProgramFragmentStateE
_ZN7android12renderscript15ProgramFragmentC1EPNS0_7ContextEPKcjPS5_jPKjS8_j
_ZN7android12renderscript15ProgramFragmentC2EPNS0_7ContextEPKcjPS5_jPKjS8_j
_ZN7android12renderscript15ProgramFragmentD0Ev
_ZN7android12renderscript15ProgramFragmentD1Ev
_ZN7android12renderscript15ProgramFragmentD2Ev
_ZN7android12renderscript15ScriptIntrinsic10runForEachEPNS0_7ContextEjPPKNS0_10AllocationEjPS4_PKvjPK12RsScriptCall
_ZN7android12renderscript15ScriptIntrinsic11setupScriptEPNS0_7ContextE
_ZN7android12renderscript15ScriptIntrinsic12freeChildrenEv
_ZN7android12renderscript15ScriptIntrinsic3runEPNS0_7ContextE
_ZN7android12renderscript15ScriptIntrinsic4initEPNS0_7ContextE19RsScriptIntrinsicIDPNS0_7ElementE
_ZN7android12renderscript15ScriptIntrinsic6InvokeEPNS0_7ContextEjPKvj
_ZN7android12renderscript15ScriptIntrinsic9runReduceEPNS0_7ContextEjPPKNS0_10AllocationEjPS4_PK12RsScriptCall
_ZN7android12renderscript15ScriptIntrinsicC1EPNS0_7ContextE
_ZN7android12renderscript15ScriptIntrinsicC2EPNS0_7ContextE
_ZN7android12renderscript15ScriptIntrinsicD0Ev
_ZN7android12renderscript15ScriptIntrinsicD1Ev
_ZN7android12renderscript15ScriptIntrinsicD2Ev
_ZN7android12renderscript15rsi_ContextDumpEPNS0_7ContextEi
_ZN7android12renderscript15rsi_TypeCreate2EPNS0_7ContextEPK18RsTypeCreateParamsj
_ZN7android12renderscript15rsp_ContextDumpEPNS0_7ContextEPKvj
_ZN7android12renderscript15rsrBindConstantEPNS0_7ContextEPNS0_13ProgramVertexEjPNS0_10AllocationE
_ZN7android12renderscript15rsrBindConstantEPNS0_7ContextEPNS0_15ProgramFragmentEjPNS0_10AllocationE
_ZN7android12renderscript15rsrPrepareClearEPNS0_7ContextE
_ZN7android12renderscript15rsrUptimeMillisEPNS0_7ContextE
_ZN7android12renderscript16rsi_ContextPauseEPNS0_7ContextE
_ZN7android12renderscript16rsi_ScriptInvokeEPNS0_7ContextEPvj
_ZN7android12renderscript16rsi_ScriptReduceEPNS0_7ContextEPvjPS3_jS3_PK12RsScriptCallj
_ZN7android12renderscript16rsp_ContextPauseEPNS0_7ContextEPKvj
_ZN7android12renderscript16rsp_ScriptInvokeEPNS0_7ContextEPKvj
_ZN7android12renderscript16rsp_ScriptReduceEPNS0_7ContextEPKvj
_ZN7android12renderscript16rsrDrawTextAllocEPNS0_7ContextEPNS0_10AllocationEii
_ZN7android12renderscript16rsrElementCreateEPNS0_7ContextE10RsDataType10RsDataKindbj
_ZN7android12renderscript17ProgramStoreState4initEPNS0_7ContextE
_ZN7android12renderscript17ProgramStoreState6deinitEPNS0_7ContextE
_ZN7android12renderscript17ProgramStoreStateC1Ev
_ZN7android12renderscript17ProgramStoreStateC2Ev
_ZN7android12renderscript17ProgramStoreStateD1Ev
_ZN7android12renderscript17ProgramStoreStateD2Ev
_ZN7android12renderscript17rsi_ClosureCreateEPNS0_7ContextEPvS3_PS3_jPKxjPKijS4_jS4_j
_ZN7android12renderscript17rsi_ClosureSetArgEPNS0_7ContextEPvjji
_ZN7android12renderscript17rsi_ContextFinishEPNS0_7ContextE
_ZN7android12renderscript17rsi_ContextResumeEPNS0_7ContextE
_ZN7android12renderscript17rsi_ElementCreateEPNS0_7ContextE10RsDataType10RsDataKindbj
_ZN7android12renderscript17rsi_SamplerCreateEPNS0_7ContextE14RsSamplerValueS3_S3_S3_S3_f
_ZN7android12renderscript17rsi_ScriptCCreateEPNS0_7ContextEPKcjS4_jS4_j
_ZN7android12renderscript17rsi_ScriptForEachEPNS0_7ContextEPvjS3_S3_PKvjPK12RsScriptCallj
_ZN7android12renderscript17rsi_ScriptGetVarVEPNS0_7ContextEPvjS3_j
_ZN7android12renderscript17rsi_ScriptInvokeVEPNS0_7ContextEPvjPKvj
_ZN7android12renderscript17rsi_ScriptSetVarDEPNS0_7ContextEPvjd
_ZN7android12renderscript17rsi_ScriptSetVarFEPNS0_7ContextEPvjf
_ZN7android12renderscript17rsi_ScriptSetVarIEPNS0_7ContextEPvji
_ZN7android12renderscript17rsi_ScriptSetVarJEPNS0_7ContextEPvjx
_ZN7android12renderscript17rsi_ScriptSetVarVEPNS0_7ContextEPvjPKvj
_ZN7android12renderscript17rsp_ClosureSetArgEPNS0_7ContextEPKvj
_ZN7android12renderscript17rsp_ContextFinishEPNS0_7ContextEPKvj
_ZN7android12renderscript17rsp_ContextResumeEPNS0_7ContextEPKvj
_ZN7android12renderscript17rsp_ScriptCCreateEPNS0_7ContextEPKvj
_ZN7android12renderscript17rsp_ScriptForEachEPNS0_7ContextEPKvj
_ZN7android12renderscript17rsp_ScriptGetVarVEPNS0_7ContextEPKvj
_ZN7android12renderscript17rsp_ScriptInvokeVEPNS0_7ContextEPKvj
_ZN7android12renderscript17rsp_ScriptSetVarDEPNS0_7ContextEPKvj
_ZN7android12renderscript17rsp_ScriptSetVarFEPNS0_7ContextEPKvj
_ZN7android12renderscript17rsp_ScriptSetVarIEPNS0_7ContextEPKvj
_ZN7android12renderscript17rsp_ScriptSetVarJEPNS0_7ContextEPKvj
_ZN7android12renderscript17rsp_ScriptSetVarVEPNS0_7ContextEPKvj
_ZN7android12renderscript17rsuExecuteCommandEPKciPKS2_
_ZN7android12renderscript18ProgramRasterState4initEPNS0_7ContextE
_ZN7android12renderscript18ProgramRasterState6deinitEPNS0_7ContextE
_ZN7android12renderscript18ProgramRasterStateC1Ev
_ZN7android12renderscript18ProgramRasterStateC2Ev
_ZN7android12renderscript18ProgramRasterStateD1Ev
_ZN7android12renderscript18ProgramRasterStateD2Ev
_ZN7android12renderscript18ProgramVertexState10updateSizeEPNS0_7ContextE
_ZN7android12renderscript18ProgramVertexState4initEPNS0_7ContextE
_ZN7android12renderscript18ProgramVertexState6deinitEPNS0_7ContextE
_ZN7android12renderscript18ProgramVertexStateC1Ev
_ZN7android12renderscript18ProgramVertexStateC2Ev
_ZN7android12renderscript18ProgramVertexStateD1Ev
_ZN7android12renderscript18ProgramVertexStateD2Ev
_ZN7android12renderscript18rsi_AllocationReadEPNS0_7ContextEPvS3_j
_ZN7android12renderscript18rsi_ContextDestroyEPNS0_7ContextE
_ZN7android12renderscript18rsi_ElementCreate2EPNS0_7ContextEPKPvjPPKcjPKjSA_j
_ZN7android12renderscript18rsi_ScriptSetVarVEEPNS0_7ContextEPvjPKvjS3_PKjj
_ZN7android12renderscript18rsp_AllocationReadEPNS0_7ContextEPKvj
_ZN7android12renderscript18rsp_ScriptSetVarVEEPNS0_7ContextEPKvj
_ZN7android12renderscript18rsrPfConstantColorEPNS0_7ContextEPNS0_15ProgramFragmentEffff
_ZN7android12renderscript19rsi_AnimationCreateEPNS0_7ContextEPKfS4_j24RsAnimationInterpolation15RsAnimationEdgeS6_
_ZN7android12renderscript19rsi_ContextBindFontEPNS0_7ContextEPv
_ZN7android12renderscript19rsi_ScriptSetVarObjEPNS0_7ContextEPvjS3_
_ZN7android12renderscript19rsp_ContextBindFontEPNS0_7ContextEPKvj
_ZN7android12renderscript19rsp_ScriptSetVarObjEPNS0_7ContextEPKvj
_ZN7android12renderscript19rsrAllocationIoSendEPNS0_7ContextEPNS0_10AllocationE
_ZN7android12renderscript19rsrBindProgramStoreEPNS0_7ContextEPNS0_12ProgramStoreE
_ZN7android12renderscript19rsrMeasureTextAllocEPNS0_7ContextEPNS0_10AllocationEPiS5_S5_S5_
_ZN7android12renderscript19rsrToClientBlockingEPNS0_7ContextEiPKvi
_ZN7android12renderscript19rsrToClientBlockingEPNS0_7ContextEiPvi
_ZN7android12renderscript20ProgramFragmentState4initEPNS0_7ContextE
_ZN7android12renderscript20ProgramFragmentState6deinitEPNS0_7ContextE
_ZN7android12renderscript20ProgramFragmentStateC1Ev
_ZN7android12renderscript20ProgramFragmentStateC2Ev
_ZN7android12renderscript20ProgramFragmentStateD1Ev
_ZN7android12renderscript20ProgramFragmentStateD2Ev
_ZN7android12renderscript20rsi_Allocation1DDataEPNS0_7ContextEPvjjjPKvj
_ZN7android12renderscript20rsi_Allocation1DReadEPNS0_7ContextEPvjjjS3_j
_ZN7android12renderscript20rsi_Allocation2DDataEPNS0_7ContextEPvjjj23RsAllocationCubemapFacejjPKvjj
_ZN7android12renderscript20rsi_Allocation2DReadEPNS0_7ContextEPvjjj23RsAllocationCubemapFacejjS3_jj
_ZN7android12renderscript20rsi_Allocation3DDataEPNS0_7ContextEPvjjjjjjjPKvjj
_ZN7android12renderscript20rsi_Allocation3DReadEPNS0_7ContextEPvjjjjjjjS3_jj
_ZN7android12renderscript20rsi_AllocationIoSendEPNS0_7ContextEPv
_ZN7android12renderscript20rsi_ClosureSetGlobalEPNS0_7ContextEPvS3_xi
_ZN7android12renderscript20rsi_ScriptInvokeDataEPNS0_7ContextEPvjS3_
_ZN7android12renderscript20rsp_Allocation1DDataEPNS0_7ContextEPKvj
_ZN7android12renderscript20rsp_Allocation1DReadEPNS0_7ContextEPKvj
_ZN7android12renderscript20rsp_Allocation2DDataEPNS0_7ContextEPKvj
_ZN7android12renderscript20rsp_Allocation2DReadEPNS0_7ContextEPKvj
_ZN7android12renderscript20rsp_Allocation3DDataEPNS0_7ContextEPKvj
_ZN7android12renderscript20rsp_Allocation3DReadEPNS0_7ContextEPKvj
_ZN7android12renderscript20rsp_AllocationIoSendEPNS0_7ContextEPKvj
_ZN7android12renderscript20rsp_ClosureSetGlobalEPNS0_7ContextEPKvj
_ZN7android12renderscript20rsrAllocationSyncAllEPNS0_7ContextEPNS0_10AllocationE21RsAllocationUsageType
_ZN7android12renderscript20rsrBindProgramRasterEPNS0_7ContextEPNS0_13ProgramRasterE
_ZN7android12renderscript20rsrBindProgramVertexEPNS0_7ContextEPNS0_13ProgramVertexE
_ZN7android12renderscript20rsrDrawMeshPrimitiveEPNS0_7ContextEPNS0_4MeshEj
_ZN7android12renderscript20rsrVpLoadModelMatrixEPNS0_7ContextEPK10rsc_Matrix
_ZN7android12renderscript21rsi_AllocationSyncAllEPNS0_7ContextEPv21RsAllocationUsageType
_ZN7android12renderscript21rsi_ContextGetMessageEPNS0_7ContextEPvjPjjS4_j
_ZN7android12renderscript21rsi_ContextSetSurfaceEPNS0_7ContextEjjPv
_ZN7android12renderscript21rsi_ScriptGroupCreateEPNS0_7ContextEPPvjS4_jS4_jS4_jPKS3_j
_ZN7android12renderscript21rsi_ScriptSetTimeZoneEPNS0_7ContextEPvPKcj
_ZN7android12renderscript21rsp_AllocationSyncAllEPNS0_7ContextEPKvj
_ZN7android12renderscript21rsp_ContextSetSurfaceEPNS0_7ContextEPKvj
_ZN7android12renderscript21rsp_ScriptSetTimeZoneEPNS0_7ContextEPKvj
_ZN7android12renderscript22LF_ObjDestroy_handcodeEPKNS0_7ContextEPv
_ZN7android12renderscript22rsi_AllocationResize1DEPNS0_7ContextEPvj
_ZN7android12renderscript22rsi_AllocationResize2DEPNS0_7ContextEPvjj
_ZN7android12renderscript22rsi_ContextBindSamplerEPNS0_7ContextEjPv
_ZN7android12renderscript22rsi_ContextPeekMessageEPNS0_7ContextEPjjS3_j
_ZN7android12renderscript22rsi_ContextSendMessageEPNS0_7ContextEjPKhj
_ZN7android12renderscript22rsi_ContextSetCacheDirEPNS0_7ContextEPKcj
_ZN7android12renderscript22rsi_ContextSetPriorityEPNS0_7ContextEi
_ZN7android12renderscript22rsi_FontCreateFromFileEPNS0_7ContextEPKcjfj
_ZN7android12renderscript22rsi_ProgramBindSamplerEPNS0_7ContextEPvjS3_
_ZN7android12renderscript22rsi_ProgramBindTextureEPNS0_7ContextEPvjS3_
_ZN7android12renderscript22rsi_ProgramStoreCreateEPNS0_7ContextEbbbbbb14RsBlendSrcFunc14RsBlendDstFunc11RsDepthFunc
_ZN7android12renderscript22rsi_ScriptForEachMultiEPNS0_7ContextEPvjPS3_jS3_PKvjPK12RsScriptCallj
_ZN7android12renderscript22rsi_ScriptGroup2CreateEPNS0_7ContextEPKcjS4_jPPvj
_ZN7android12renderscript22rsi_ScriptGroupExecuteEPNS0_7ContextEPv
_ZN7android12renderscript22rsp_AllocationResize1DEPNS0_7ContextEPKvj
_ZN7android12renderscript22rsp_ContextSendMessageEPNS0_7ContextEPKvj
_ZN7android12renderscript22rsp_ContextSetPriorityEPNS0_7ContextEPKvj
_ZN7android12renderscript22rsp_FontCreateFromFileEPNS0_7ContextEPKvj
_ZN7android12renderscript22rsp_ProgramBindSamplerEPNS0_7ContextEPKvj
_ZN7android12renderscript22rsp_ProgramBindTextureEPNS0_7ContextEPKvj
_ZN7android12renderscript22rsp_ScriptForEachMultiEPNS0_7ContextEPKvj
_ZN7android12renderscript22rsp_ScriptGroupExecuteEPNS0_7ContextEPKvj
_ZN7android12renderscript22rsrAllocationIoReceiveEPNS0_7ContextEPNS0_10AllocationE
_ZN7android12renderscript22rsrBindProgramFragmentEPNS0_7ContextEPNS0_15ProgramFragmentE
_ZN7android12renderscript22rsrVpLoadTextureMatrixEPNS0_7ContextEPK10rsc_Matrix
_ZN7android12renderscript23rsi_AllocationIoReceiveEPNS0_7ContextEPv
_ZN7android12renderscript23rsi_ContextInitToClientEPNS0_7ContextE
_ZN7android12renderscript23rsi_InvokeClosureCreateEPNS0_7ContextEPvPKvjPKS3_jPKxjPKij
_ZN7android12renderscript23rsi_ProgramRasterCreateEPNS0_7ContextEb10RsCullMode
_ZN7android12renderscript23rsi_ProgramVertexCreateEPNS0_7ContextEPKcjPS4_jPKjS7_j
_ZN7android12renderscript23rsi_ScriptFieldIDCreateEPNS0_7ContextEPvi
_ZN7android12renderscript23rsi_ScriptGroupSetInputEPNS0_7ContextEPvS3_S3_
_ZN7android12renderscript23rsp_AllocationIoReceiveEPNS0_7ContextEPKvj
_ZN7android12renderscript23rsp_ScriptGroupSetInputEPNS0_7ContextEPKvj
_ZN7android12renderscript24rsi_AllocationGetPointerEPNS0_7ContextEPvj23RsAllocationCubemapFacejjPjj
_ZN7android12renderscript24rsi_AllocationGetSurfaceEPNS0_7ContextEPv
_ZN7android12renderscript24rsi_AllocationSetSurfaceEPNS0_7ContextEPvS3_
_ZN7android12renderscript24rsi_ContextDestroyWorkerEPNS0_7ContextE
_ZN7android12renderscript24rsi_FontCreateFromMemoryEPNS0_7ContextEPKcjfjPKvj
_ZN7android12renderscript24rsi_ProgramBindConstantsEPNS0_7ContextEPvjS3_
_ZN7android12renderscript24rsi_ScriptBindAllocationEPNS0_7ContextEPvS3_j
_ZN7android12renderscript24rsi_ScriptGroupSetOutputEPNS0_7ContextEPvS3_S3_
_ZN7android12renderscript24rsi_ScriptInvokeIDCreateEPNS0_7ContextEPvj
_ZN7android12renderscript24rsi_ScriptKernelIDCreateEPNS0_7ContextEPvii
_ZN7android12renderscript24rsp_AllocationGetPointerEPNS0_7ContextEPKvj
_ZN7android12renderscript24rsp_AllocationGetSurfaceEPNS0_7ContextEPKvj
_ZN7android12renderscript24rsp_AllocationSetSurfaceEPNS0_7ContextEPKvj
_ZN7android12renderscript24rsp_ContextDestroyWorkerEPNS0_7ContextEPKvj
_ZN7android12renderscript24rsp_FontCreateFromMemoryEPNS0_7ContextEPKvj
_ZN7android12renderscript24rsp_ProgramBindConstantsEPNS0_7ContextEPKvj
_ZN7android12renderscript24rsp_ScriptBindAllocationEPNS0_7ContextEPKvj
_ZN7android12renderscript24rsp_ScriptGroupSetOutputEPNS0_7ContextEPKvj
_ZN7android12renderscript24rsp_ScriptInvokeIDCreateEPNS0_7ContextEPKvj
_ZN7android12renderscript24rsrAllocationCopy1DRangeEPNS0_7ContextEPNS0_10AllocationEjjjS4_jj
_ZN7android12renderscript24rsrAllocationCopy2DRangeEPNS0_7ContextEPNS0_10AllocationEjjjjjjS4_jjjj
_ZN7android12renderscript24rsrAllocationCreateTypedEPNS0_7ContextEPv25RsAllocationMipmapControljj
_ZN7android12renderscript24rsrVpGetProjectionMatrixEPNS0_7ContextEP10rsc_Matrix
_ZN7android12renderscript25rsi_AllocationCopy2DRangeEPNS0_7ContextEPvjjjjjjS3_jjjj
_ZN7android12renderscript25rsi_AllocationCopy3DRangeEPNS0_7ContextEPvjjjjjjjS3_jjjj
_ZN7android12renderscript25rsi_AllocationCreateTypedEPNS0_7ContextEPv25RsAllocationMipmapControljj
_ZN7android12renderscript25rsi_AllocationElementDataEPNS0_7ContextEPvjjjjPKvjj
_ZN7android12renderscript25rsi_AllocationElementReadEPNS0_7ContextEPvjjjjS3_jj
_ZN7android12renderscript25rsi_ContextBindRootScriptEPNS0_7ContextEPv
_ZN7android12renderscript25rsi_ContextDeinitToClientEPNS0_7ContextE
_ZN7android12renderscript25rsi_ProgramFragmentCreateEPNS0_7ContextEPKcjPS4_jPKjS7_j
_ZN7android12renderscript25rsi_ScriptIntrinsicCreateEPNS0_7ContextEjPv
_ZN7android12renderscript25rsp_AllocationCopy2DRangeEPNS0_7ContextEPKvj
_ZN7android12renderscript25rsp_AllocationCopy3DRangeEPNS0_7ContextEPKvj
_ZN7android12renderscript25rsp_AllocationElementDataEPNS0_7ContextEPKvj
_ZN7android12renderscript25rsp_AllocationElementReadEPNS0_7ContextEPKvj
_ZN7android12renderscript25rsp_ContextBindRootScriptEPNS0_7ContextEPKvj
_ZN7android12renderscript25rsp_ScriptIntrinsicCreateEPNS0_7ContextEPKvj
_ZN7android12renderscript25rsrDrawMeshPrimitiveRangeEPNS0_7ContextEPNS0_4MeshEjjj
_ZN7android12renderscript25rsrMeshComputeBoundingBoxEPNS0_7ContextEPNS0_4MeshEPfS5_S5_S5_S5_S5_
_ZN7android12renderscript25rsrVpLoadProjectionMatrixEPNS0_7ContextEPK10rsc_Matrix
_ZN7android12renderscript26rsi_AllocationCopyToBitmapEPNS0_7ContextEPvS3_j
_ZN7android12renderscript26rsp_AllocationCopyToBitmapEPNS0_7ContextEPKvj
_ZN7android12renderscript27rsi_Allocation1DElementDataEPNS0_7ContextEPvjjPKvjj
_ZN7android12renderscript27rsi_AllocationAdapterCreateEPNS0_7ContextEPvS3_
_ZN7android12renderscript27rsi_AllocationAdapterOffsetEPNS0_7ContextEPvPKjj
_ZN7android12renderscript27rsi_AllocationCreateStridedEPNS0_7ContextEPv25RsAllocationMipmapControljjj
_ZN7android12renderscript27rsi_ContextBindProgramStoreEPNS0_7ContextEPv
_ZN7android12renderscript27rsp_Allocation1DElementDataEPNS0_7ContextEPKvj
_ZN7android12renderscript27rsp_AllocationAdapterOffsetEPNS0_7ContextEPKvj
_ZN7android12renderscript27rsp_ContextBindProgramStoreEPNS0_7ContextEPKvj
_ZN7android12renderscript28rsi_ContextBindProgramRasterEPNS0_7ContextEPv
_ZN7android12renderscript28rsi_ContextBindProgramVertexEPNS0_7ContextEPv
_ZN7android12renderscript28rsp_ContextBindProgramRasterEPNS0_7ContextEPKvj
_ZN7android12renderscript28rsp_ContextBindProgramVertexEPNS0_7ContextEPKvj
_ZN7android12renderscript29rsi_AllocationGenerateMipmapsEPNS0_7ContextEPv
_ZN7android12renderscript29rsp_AllocationGenerateMipmapsEPNS0_7ContextEPKvj
_ZN7android12renderscript30rsi_AllocationCreateFromBitmapEPNS0_7ContextEPv25RsAllocationMipmapControlPKvjj
_ZN7android12renderscript30rsi_AllocationSetupBufferQueueEPNS0_7ContextEPvj
_ZN7android12renderscript30rsi_AllocationShareBufferQueueEPNS0_7ContextEPvS3_
_ZN7android12renderscript30rsi_ContextBindProgramFragmentEPNS0_7ContextEPv
_ZN7android12renderscript30rsp_AllocationSetupBufferQueueEPNS0_7ContextEPKvj
_ZN7android12renderscript30rsp_AllocationShareBufferQueueEPNS0_7ContextEPKvj
_ZN7android12renderscript30rsp_ContextBindProgramFragmentEPNS0_7ContextEPKvj
_ZN7android12renderscript32rsrClearFrameBufferObjectTargetsEPNS0_7ContextE
_ZN7android12renderscript34rsi_AllocationCubeCreateFromBitmapEPNS0_7ContextEPv25RsAllocationMipmapControlPKvjj
_ZN7android12renderscript35rsrBindFrameBufferObjectColorTargetEPNS0_7ContextEPNS0_10AllocationEj
_ZN7android12renderscript35rsrBindFrameBufferObjectDepthTargetEPNS0_7ContextEPNS0_10AllocationE
_ZN7android12renderscript36rsrClearFrameBufferObjectColorTargetEPNS0_7ContextEj
_ZN7android12renderscript36rsrClearFrameBufferObjectDepthTargetEPNS0_7ContextE
_ZN7android12renderscript4Font10cacheGlyphEj
_ZN7android12renderscript4Font15drawCachedGlyphEPNS1_15CachedGlyphInfoEii
_ZN7android12renderscript4Font15drawCachedGlyphEPNS1_15CachedGlyphInfoEiiPhjj
_ZN7android12renderscript4Font16getCachedUTFCharEi
_ZN7android12renderscript4Font16updateGlyphCacheEPNS1_15CachedGlyphInfoE
_ZN7android12renderscript4Font18measureCachedGlyphEPNS1_15CachedGlyphInfoEiiPNS1_4RectE
_ZN7android12renderscript4Font22invalidateTextureCacheEv
_ZN7android12renderscript4Font4initEPKcfjPKvj
_ZN7android12renderscript4Font6createEPNS0_7ContextEPKcfjPKvj
_ZN7android12renderscript4Font9renderUTFEPKcjiijiNS1_10RenderModeEPNS1_4RectEPhjj
_ZN7android12renderscript4FontC1EPNS0_7ContextE
_ZN7android12renderscript4FontC2EPNS0_7ContextE
_ZN7android12renderscript4FontD0Ev
_ZN7android12renderscript4FontD1Ev
_ZN7android12renderscript4FontD2Ev
_ZN7android12renderscript4Mesh11computeBBoxEPNS0_7ContextE
_ZN7android12renderscript4Mesh16createFromStreamEPNS0_7ContextEPNS0_7IStreamE
_ZN7android12renderscript4Mesh4initEv
_ZN7android12renderscript4Mesh9uploadAllEPNS0_7ContextE
_ZN7android12renderscript4MeshC1EPNS0_7ContextE
_ZN7android12renderscript4MeshC1EPNS0_7ContextEjj
_ZN7android12renderscript4MeshC2EPNS0_7ContextE
_ZN7android12renderscript4MeshC2EPNS0_7ContextEjj
_ZN7android12renderscript4MeshD0Ev
_ZN7android12renderscript4MeshD1Ev
_ZN7android12renderscript4MeshD2Ev
_ZN7android12renderscript4Type10getTypeRefEPNS0_7ContextEPKNS0_7ElementEPK18RsTypeCreateParamsj
_ZN7android12renderscript4Type16createFromStreamEPNS0_7ContextEPNS0_7IStreamE
_ZN7android12renderscript4Type5clearEv
_ZN7android12renderscript4Type7computeEv
_ZN7android12renderscript4TypeC1EPNS0_7ContextE
_ZN7android12renderscript4TypeC2EPNS0_7ContextE
_ZN7android12renderscript4TypeD0Ev
_ZN7android12renderscript4TypeD1Ev
_ZN7android12renderscript4TypeD2Ev
_ZN7android12renderscript4TypedlEPv
_ZN7android12renderscript5Mutex4initEv
_ZN7android12renderscript5Mutex4lockEv
_ZN7android12renderscript5Mutex6unlockEv
_ZN7android12renderscript5MutexC1Ev
_ZN7android12renderscript5MutexC2Ev
_ZN7android12renderscript5MutexD1Ev
_ZN7android12renderscript5MutexD2Ev
_ZN7android12renderscript6Device10addContextEPNS0_7ContextE
_ZN7android12renderscript6Device13removeContextEPNS0_7ContextE
_ZN7android12renderscript6DeviceC1Ev
_ZN7android12renderscript6DeviceC2Ev
_ZN7android12renderscript6DeviceD1Ev
_ZN7android12renderscript6DeviceD2Ev
_ZN7android12renderscript6Script12freeChildrenEv
_ZN7android12renderscript6Script6getVarEjPKvj
_ZN7android12renderscript6Script6setVarEjPKvj
_ZN7android12renderscript6Script6setVarEjPKvjPNS0_7ElementEPKjj
_ZN7android12renderscript6Script7setSlotEjPNS0_10AllocationE
_ZN7android12renderscript6Script9setVarObjEjPNS0_10ObjectBaseE
_ZN7android12renderscript6ScriptC2EPNS0_7ContextE
_ZN7android12renderscript6ScriptD0Ev
_ZN7android12renderscript6ScriptD1Ev
_ZN7android12renderscript6ScriptD2Ev
_ZN7android12renderscript6Signal3setEv
_ZN7android12renderscript6Signal4initEv
_ZN7android12renderscript6Signal4waitEv
_ZN7android12renderscript6SignalC1Ev
_ZN7android12renderscript6SignalC2Ev
_ZN7android12renderscript6SignalD1Ev
_ZN7android12renderscript6SignalD2Ev
_ZN7android12renderscript7Closure6setArgEjPKvi
_ZN7android12renderscript7Closure9setGlobalEPKNS0_13ScriptFieldIDExi
_ZN7android12renderscript7ClosureC1EPNS0_7ContextEPKNS0_14ScriptInvokeIDEPKvjjPPKNS0_13ScriptFieldIDEPKxPKi
_ZN7android12renderscript7ClosureC1EPNS0_7ContextEPKNS0_14ScriptKernelIDEPNS0_10AllocationEiPPKNS0_13ScriptFieldIDEPKxPKiPPKS1_SC_
_ZN7android12renderscript7ClosureC2EPNS0_7ContextEPKNS0_14ScriptInvokeIDEPKvjjPPKNS0_13ScriptFieldIDEPKxPKi
_ZN7android12renderscript7ClosureC2EPNS0_7ContextEPKNS0_14ScriptKernelIDEPNS0_10AllocationEiPPKNS0_13ScriptFieldIDEPKxPKiPPKS1_SC_
_ZN7android12renderscript7ClosureD0Ev
_ZN7android12renderscript7ClosureD1Ev
_ZN7android12renderscript7ClosureD2Ev
_ZN7android12renderscript7Context10assignNameEPNS0_10ObjectBaseEPKcj
_ZN7android12renderscript7Context10gInitMutexE
_ZN7android12renderscript7Context10loadDriverEbb
_ZN7android12renderscript7Context10removeNameEPNS0_10ObjectBaseE
_ZN7android12renderscript7Context10setSurfaceEjjPv
_ZN7android12renderscript7Context10setupCheckEv
_ZN7android12renderscript7Context10threadProcEPv
_ZN7android12renderscript7Context10timerFrameEv
_ZN7android12renderscript7Context10timerPrintEv
_ZN7android12renderscript7Context10timerResetEv
_ZN7android12renderscript7Context11initContextEPNS0_6DeviceEPK15RsSurfaceConfig
_ZN7android12renderscript7Context11loadRuntimeEPKc
_ZN7android12renderscript7Context11setCacheDirEPKcj
_ZN7android12renderscript7Context11setPriorityEi
_ZN7android12renderscript7Context12initGLThreadEv
_ZN7android12renderscript7Context12initToClientEv
_ZN7android12renderscript7Context13createContextEPNS0_6DeviceEPK15RsSurfaceConfig13RsContextTypejPKc
_ZN7android12renderscript7Context13gMessageMutexE
_ZN7android12renderscript7Context13runRootScriptEv
_ZN7android12renderscript7Context13setRootScriptEPNS0_6ScriptE
_ZN7android12renderscript7Context14deinitToClientEv
_ZN7android12renderscript7Context15setProgramStoreEPNS0_12ProgramStoreE
_ZN7android12renderscript7Context16setProgramRasterEPNS0_13ProgramRasterE
_ZN7android12renderscript7Context16setProgramVertexEPNS0_13ProgramVertexE
_ZN7android12renderscript7Context17createContextLiteEv
_ZN7android12renderscript7Context17displayDebugStatsEv
_ZN7android12renderscript7Context17printWatchdogInfoEPv
_ZN7android12renderscript7Context17setupProgramStoreEv
_ZN7android12renderscript7Context18getMessageToClientEPvPjS3_j
_ZN7android12renderscript7Context18setProgramFragmentEPNS0_15ProgramFragmentE
_ZN7android12renderscript7Context19peekMessageToClientEPjS2_
_ZN7android12renderscript7Context28destroyWorkerThreadResourcesEv
_ZN7android12renderscript7Context5pauseEv
_ZN7android12renderscript7Context6finishEv
_ZN7android12renderscript7Context6resumeEv
_ZN7android12renderscript7Context7setFontEPNS0_4FontE
_ZN7android12renderscript7Context8timerSetENS1_6TimersE
_ZN7android12renderscript7Context9PushStateC1EPS1_
_ZN7android12renderscript7Context9PushStateC2EPS1_
_ZN7android12renderscript7Context9PushStateD1Ev
_ZN7android12renderscript7Context9PushStateD2Ev
_ZN7android12renderscript7Context9deinitEGLEv
_ZN7android12renderscript7Context9gLibMutexE
_ZN7android12renderscript7Context9runScriptEPNS0_6ScriptE
_ZN7android12renderscript7Context9timerInitEv
_ZN7android12renderscript7ContextC1Ev
_ZN7android12renderscript7ContextC2Ev
_ZN7android12renderscript7ContextD1Ev
_ZN7android12renderscript7ContextD2Ev
_ZN7android12renderscript7Element16createFromStreamEPNS0_7ContextEPNS0_7IStreamE
_ZN7android12renderscript7Element5clearEv
_ZN7android12renderscript7Element7computeEv
_ZN7android12renderscript7Element9createRefEPNS0_7ContextE10RsDataType10RsDataKindbj
_ZN7android12renderscript7Element9createRefEPNS0_7ContextEjPPKS1_PPKcPKjSB_
_ZN7android12renderscript7ElementC1EPNS0_7ContextE
_ZN7android12renderscript7ElementC2EPNS0_7ContextE
_ZN7android12renderscript7ElementD0Ev
_ZN7android12renderscript7ElementD1Ev
_ZN7android12renderscript7ElementD2Ev
_ZN7android12renderscript7ElementdlEPv
_ZN7android12renderscript7FileA3D11parseHeaderEPNS0_7IStreamE
_ZN7android12renderscript7FileA3D12appendToFileEPNS0_7ContextEPNS0_10ObjectBaseE
_ZN7android12renderscript7FileA3D13A3DIndexEntryD1Ev
_ZN7android12renderscript7FileA3D13A3DIndexEntryD2Ev
_ZN7android12renderscript7FileA3D19initializeFromEntryEj
_ZN7android12renderscript7FileA3D4loadEP7__sFILE
_ZN7android12renderscript7FileA3D4loadEPKvj
_ZN7android12renderscript7FileA3D4loadEPNS_5AssetE
_ZN7android12renderscript7FileA3D9writeFileEPKc
_ZN7android12renderscript7FileA3DC1EPNS0_7ContextE
_ZN7android12renderscript7FileA3DC2EPNS0_7ContextE
_ZN7android12renderscript7FileA3DD0Ev
_ZN7android12renderscript7FileA3DD1Ev
_ZN7android12renderscript7FileA3DD2Ev
_ZN7android12renderscript7IStream10loadOffsetEv
_ZN7android12renderscript7IStream10loadStringEv
_ZN7android12renderscript7IStream13loadByteArrayEPvj
_ZN7android12renderscript7IStreamC1EPKhb
_ZN7android12renderscript7IStreamC2EPKhb
_ZN7android12renderscript7OStream12addByteArrayEPKvj
_ZN7android12renderscript7OStream8growSizeEv
_ZN7android12renderscript7OStream9addOffsetEy
_ZN7android12renderscript7OStream9addStringEPKc
_ZN7android12renderscript7OStream9addStringEPKcj
_ZN7android12renderscript7OStreamC1Eyb
_ZN7android12renderscript7OStreamC2Eyb
_ZN7android12renderscript7OStreamD1Ev
_ZN7android12renderscript7OStreamD2Ev
_ZN7android12renderscript7Program11bindSamplerEPNS0_7ContextEjPNS0_7SamplerE
_ZN7android12renderscript7Program11bindTextureEPNS0_7ContextEjPNS0_10AllocationE
_ZN7android12renderscript7Program12freeChildrenEv
_ZN7android12renderscript7Program14bindAllocationEPNS0_7ContextEPNS0_10AllocationEj
_ZN7android12renderscript7Program14initMemberVarsEv
_ZN7android12renderscript7ProgramC2EPNS0_7ContextEPKcjPKjj
_ZN7android12renderscript7ProgramD0Ev
_ZN7android12renderscript7ProgramD1Ev
_ZN7android12renderscript7ProgramD2Ev
_ZN7android12renderscript7Sampler10getSamplerEPNS0_7ContextE14RsSamplerValueS4_S4_S4_S4_f
_ZN7android12renderscript7Sampler13bindToContextEPNS0_12SamplerStateEj
_ZN7android12renderscript7Sampler16createFromStreamEPNS0_7ContextEPNS0_7IStreamE
_ZN7android12renderscript7Sampler17unbindFromContextEPNS0_12SamplerStateE
_ZN7android12renderscript7SamplerC1EPNS0_7ContextE
_ZN7android12renderscript7SamplerC1EPNS0_7ContextE14RsSamplerValueS4_S4_S4_S4_f
_ZN7android12renderscript7SamplerC2EPNS0_7ContextE
_ZN7android12renderscript7SamplerC2EPNS0_7ContextE14RsSamplerValueS4_S4_S4_S4_f
_ZN7android12renderscript7SamplerD0Ev
_ZN7android12renderscript7SamplerD1Ev
_ZN7android12renderscript7SamplerD2Ev
_ZN7android12renderscript7SamplerdlEPv
_ZN7android12renderscript7ScriptC10runForEachEPNS0_7ContextEjPPKNS0_10AllocationEjPS4_PKvjPK12RsScriptCall
_ZN7android12renderscript7ScriptC11runCompilerEPNS0_7ContextEPKcS5_PKhj
_ZN7android12renderscript7ScriptC11setupScriptEPNS0_7ContextE
_ZN7android12renderscript7ScriptC12setupGLStateEPNS0_7ContextE
_ZN7android12renderscript7ScriptC14createCacheDirEPKc
_ZN7android12renderscript7ScriptC3runEPNS0_7ContextE
_ZN7android12renderscript7ScriptC6InvokeEPNS0_7ContextEjPKvj
_ZN7android12renderscript7ScriptC9runReduceEPNS0_7ContextEjPPKNS0_10AllocationEjPS4_PK12RsScriptCall
_ZN7android12renderscript7ScriptCC1EPNS0_7ContextE
_ZN7android12renderscript7ScriptCC2EPNS0_7ContextE
_ZN7android12renderscript7ScriptCD0Ev
_ZN7android12renderscript7ScriptCD1Ev
_ZN7android12renderscript7ScriptCD2Ev
_ZN7android12renderscript7rsrTimeEPNS0_7ContextEPl
_ZN7android12renderscript8FBOCache15bindColorTargetEPNS0_7ContextEPNS0_10AllocationEj
_ZN7android12renderscript8FBOCache15bindDepthTargetEPNS0_7ContextEPNS0_10AllocationE
_ZN7android12renderscript8FBOCache4initEPNS0_7ContextE
_ZN7android12renderscript8FBOCache5setupEPNS0_7ContextE
_ZN7android12renderscript8FBOCache6deinitEPNS0_7ContextE
_ZN7android12renderscript8FBOCache8resetAllEPNS0_7ContextE
_ZN7android12renderscript8FBOCacheC1Ev
_ZN7android12renderscript8FBOCacheC2Ev
_ZN7android12renderscript8FBOCacheD1Ev
_ZN7android12renderscript8FBOCacheD2Ev
_ZN7android12renderscript8ThreadIO10coreCommitEv
_ZN7android12renderscript8ThreadIO10coreHeaderEjj
_ZN7android12renderscript8ThreadIO12sendToClientE21RsMessageToClientTypejPKvjb
_ZN7android12renderscript8ThreadIO13coreGetReturnEPvj
_ZN7android12renderscript8ThreadIO13coreSetReturnEPKvj
_ZN7android12renderscript8ThreadIO14clientShutdownEv
_ZN7android12renderscript8ThreadIO15getClientHeaderEPjS2_
_ZN7android12renderscript8ThreadIO16getClientPayloadEPvPjS3_j
_ZN7android12renderscript8ThreadIO16playCoreCommandsEPNS0_7ContextEi
_ZN7android12renderscript8ThreadIO18setTimeoutCallbackEPFvPvES2_y
_ZN7android12renderscript8ThreadIO4initEv
_ZN7android12renderscript8ThreadIO8coreReadEPvj
_ZN7android12renderscript8ThreadIO8shutdownEv
_ZN7android12renderscript8ThreadIO9coreWriteEPKvj
_ZN7android12renderscript8ThreadIOC1Ev
_ZN7android12renderscript8ThreadIOC2Ev
_ZN7android12renderscript8ThreadIOD1Ev
_ZN7android12renderscript8ThreadIOD2Ev
_ZN7android12renderscript8rsrColorEPNS0_7ContextEffff
_ZN7android12renderscript8rsrGetDtEPNS0_7ContextEPKNS0_6ScriptE
_ZN7android12renderscript9Animation16createFromStreamEPNS0_7ContextEPNS0_7IStreamE
_ZN7android12renderscript9Component14loadFromStreamEPNS0_7IStreamE
_ZN7android12renderscript9Component3setE10RsDataType10RsDataKindbj
_ZN7android12renderscript9ComponentC1Ev
_ZN7android12renderscript9ComponentC2Ev
_ZN7android12renderscript9ComponentD1Ev
_ZN7android12renderscript9ComponentD2Ev
_ZN7android12renderscript9FontState10renderTextEPKcjiijiNS0_4Font10RenderModeEPNS4_4RectEPhjj
_ZN7android12renderscript9FontState11cacheBitmapEP10FT_Bitmap_PjS4_
_ZN7android12renderscript9FontState11measureTextEPKcjPNS0_4Font4RectE
_ZN7android12renderscript9FontState12setFontColorEffff
_ZN7android12renderscript9FontState13precacheLatinEPNS0_4FontE
_ZN7android12renderscript9FontState14appendMeshQuadEffffffffffffffffffff
_ZN7android12renderscript9FontState15initRenderStateEv
_ZN7android12renderscript9FontState15initTextTextureEv
_ZN7android12renderscript9FontState16CacheTextureLine9fitBitmapEP10FT_Bitmap_PjS5_
_ZN7android12renderscript9FontState16issueDrawCommandEv
_ZN7android12renderscript9FontState21flushAllAndInvalidateEv
_ZN7android12renderscript9FontState22initVertexArrayBuffersEv
_ZN7android12renderscript9FontState25getRemainingCacheCapacityEv
_ZN7android12renderscript9FontState4initEPNS0_7ContextE
_ZN7android12renderscript9FontState6deinitEPNS0_7ContextE
_ZN7android12renderscript9FontState6getLibEv
_ZN7android12renderscript9FontState9checkInitEv
_ZN7android12renderscript9FontStateC1Ev
_ZN7android12renderscript9FontStateC2Ev
_ZN7android12renderscript9FontStateD1Ev
_ZN7android12renderscript9FontStateD2Ev
_ZN7android12renderscript9Matrix2x212loadIdentityEv
_ZN7android12renderscript9Matrix2x212loadMultiplyEPK12rs_matrix2x2S4_
_ZN7android12renderscript9Matrix2x24loadEPK12rs_matrix2x2
_ZN7android12renderscript9Matrix2x24loadEPKf
_ZN7android12renderscript9Matrix2x29transposeEv
_ZN7android12renderscript9Matrix3x312loadIdentityEv
_ZN7android12renderscript9Matrix3x312loadMultiplyEPK12rs_matrix3x3S4_
_ZN7android12renderscript9Matrix3x34loadEPK12rs_matrix3x3
_ZN7android12renderscript9Matrix3x34loadEPKf
_ZN7android12renderscript9Matrix3x39transposeEv
_ZN7android12renderscript9Matrix4x410loadRotateEffff
_ZN7android12renderscript9Matrix4x411loadFrustumEffffff
_ZN7android12renderscript9Matrix4x412loadIdentityEv
_ZN7android12renderscript9Matrix4x412loadMultiplyEPK12rs_matrix4x4S4_
_ZN7android12renderscript9Matrix4x413loadTranslateEfff
_ZN7android12renderscript9Matrix4x415loadPerspectiveEffff
_ZN7android12renderscript9Matrix4x416inverseTransposeEv
_ZN7android12renderscript9Matrix4x44loadEPK12rs_matrix2x2
_ZN7android12renderscript9Matrix4x44loadEPK12rs_matrix3x3
_ZN7android12renderscript9Matrix4x44loadEPK12rs_matrix4x4
_ZN7android12renderscript9Matrix4x44loadEPKf
_ZN7android12renderscript9Matrix4x47inverseEv
_ZN7android12renderscript9Matrix4x49loadOrthoEffffff
_ZN7android12renderscript9Matrix4x49loadScaleEfff
_ZN7android12renderscript9Matrix4x49transposeEv
_ZN7android12renderscript9TypeStateC1Ev
_ZN7android12renderscript9TypeStateC2Ev
_ZN7android12renderscript9TypeStateD1Ev
_ZN7android12renderscript9TypeStateD2Ev
_ZNK7android12renderscript10Allocation11hasSameDimsEPKS1_
_ZNK7android12renderscript10Allocation13getPackedSizeEv
_ZNK7android12renderscript10Allocation18packVec3AllocationEPNS0_7ContextEPNS0_7OStreamE
_ZNK7android12renderscript10Allocation21callUpdateCacheObjectEPKNS0_7ContextEPv
_ZNK7android12renderscript10Allocation7decRefsEPKvjj
_ZNK7android12renderscript10Allocation7incRefsEPKvjj
_ZNK7android12renderscript10Allocation8dumpLOGVEPKc
_ZNK7android12renderscript10Allocation9sendDirtyEPKNS0_7ContextE
_ZNK7android12renderscript10Allocation9serializeEPNS0_7ContextEPNS0_7OStreamE
_ZNK7android12renderscript10ObjectBase10decUserRefEv
_ZNK7android12renderscript10ObjectBase10incUserRefEv
_ZNK7android12renderscript10ObjectBase10preDestroyEv
_ZNK7android12renderscript10ObjectBase11zeroUserRefEv
_ZNK7android12renderscript10ObjectBase21callUpdateCacheObjectEPKNS0_7ContextEPv
_ZNK7android12renderscript10ObjectBase3addEv
_ZNK7android12renderscript10ObjectBase6removeEv
_ZNK7android12renderscript10ObjectBase8dumpLOGVEPKc
_ZNK7android12renderscript10ObjectBase9decSysRefEv
_ZNK7android12renderscript10ObjectBase9incSysRefEv
_ZNK7android12renderscript11ScriptGroup8findNodeEPNS0_6ScriptE
_ZNK7android12renderscript12ProgramStore10preDestroyEv
_ZNK7android12renderscript12ProgramStore9serializeEPNS0_7ContextEPNS0_7OStreamE
_ZNK7android12renderscript13ProgramRaster10preDestroyEv
_ZNK7android12renderscript13ProgramRaster9serializeEPNS0_7ContextEPNS0_7OStreamE
_ZNK7android12renderscript13ProgramVertex16setTextureMatrixEPNS0_7ContextEPK10rsc_Matrix
_ZNK7android12renderscript13ProgramVertex17transformToScreenEPNS0_7ContextEPfPKf
_ZNK7android12renderscript13ProgramVertex18setModelviewMatrixEPNS0_7ContextEPK10rsc_Matrix
_ZNK7android12renderscript13ProgramVertex19getProjectionMatrixEPNS0_7ContextEP10rsc_Matrix
_ZNK7android12renderscript13ProgramVertex19setProjectionMatrixEPNS0_7ContextEPK10rsc_Matrix
_ZNK7android12renderscript13ProgramVertex9serializeEPNS0_7ContextEPNS0_7OStreamE
_ZNK7android12renderscript13ScriptFieldID10getClassIdEv
_ZNK7android12renderscript14ScriptInvokeID10getClassIdEv
_ZNK7android12renderscript14ScriptKernelID10getClassIdEv
_ZNK7android12renderscript15ProgramFragment9serializeEPNS0_7ContextEPNS0_7OStreamE
_ZNK7android12renderscript15ScriptIntrinsic10getClassIdEv
_ZNK7android12renderscript15ScriptIntrinsic9serializeEPNS0_7ContextEPNS0_7OStreamE
_ZNK7android12renderscript4Font10preDestroyEv
_ZNK7android12renderscript4Mesh15renderPrimitiveEPNS0_7ContextEj
_ZNK7android12renderscript4Mesh20renderPrimitiveRangeEPNS0_7ContextEjjj
_ZNK7android12renderscript4Mesh6renderEPNS0_7ContextE
_ZNK7android12renderscript4Mesh9serializeEPNS0_7ContextEPNS0_7OStreamE
_ZNK7android12renderscript4Type10preDestroyEv
_ZNK7android12renderscript4Type16cloneAndResize1DEPNS0_7ContextEj
_ZNK7android12renderscript4Type16cloneAndResize2DEPNS0_7ContextEjj
_ZNK7android12renderscript4Type21callUpdateCacheObjectEPKNS0_7ContextEPv
_ZNK7android12renderscript4Type7decRefsEPKvjj
_ZNK7android12renderscript4Type7incRefsEPKvjj
_ZNK7android12renderscript4Type8dumpLOGVEPKc
_ZNK7android12renderscript4Type8getIsNp2Ev
_ZNK7android12renderscript4Type9serializeEPNS0_7ContextEPNS0_7OStreamE
_ZNK7android12renderscript6Script21callUpdateCacheObjectEPKNS0_7ContextEPv
_ZNK7android12renderscript7Context19sendMessageToClientEPKv21RsMessageToClientTypejjb
_ZNK7android12renderscript7Context22getCurrentSurfaceWidthEv
_ZNK7android12renderscript7Context23getCurrentSurfaceHeightEv
_ZNK7android12renderscript7Context7getTimeEv
_ZNK7android12renderscript7Context8setErrorE7RsErrorPKc
_ZNK7android12renderscript7Context9dumpDebugEv
_ZNK7android12renderscript7Element10preDestroyEv
_ZNK7android12renderscript7Element11getSizeBitsEv
_ZNK7android12renderscript7Element19getSizeBitsUnpaddedEv
_ZNK7android12renderscript7Element21callUpdateCacheObjectEPKNS0_7ContextEPv
_ZNK7android12renderscript7Element7decRefsEPKv
_ZNK7android12renderscript7Element7incRefsEPKv
_ZNK7android12renderscript7Element8dumpLOGVEPKc
_ZNK7android12renderscript7Element9serializeEPNS0_7ContextEPNS0_7OStreamE
_ZNK7android12renderscript7FileA3D13getIndexEntryEj
_ZNK7android12renderscript7FileA3D18getNumIndexEntriesEv
_ZNK7android12renderscript7Sampler10preDestroyEv
_ZNK7android12renderscript7Sampler9serializeEPNS0_7ContextEPNS0_7OStreamE
_ZNK7android12renderscript9Animation9serializeEPNS0_7ContextEPNS0_7OStreamE
_ZNK7android12renderscript9Component11isReferenceEv
_ZNK7android12renderscript9Component8dumpLOGVEPKc
_ZNK7android12renderscript9Component9serializeEPNS0_7OStreamE
_ZNK7android12renderscript9FontState12getFontColorEPfS2_S2_S2_
_ZNK7android12renderscript9Matrix4x414vectorMultiplyEPfPKf
_ZNK7android12renderscript9Matrix4x44logvEPKc
_ZTVN7android12renderscript10AllocationE
_ZTVN7android12renderscript10FifoSocketE
_ZTVN7android12renderscript10ObjectBaseE
_ZTVN7android12renderscript11ScriptGroupE
_ZTVN7android12renderscript12ProgramStoreE
_ZTVN7android12renderscript12ScriptGroup2E
_ZTVN7android12renderscript13ProgramRasterE
_ZTVN7android12renderscript13ProgramVertexE
_ZTVN7android12renderscript13ScriptFieldIDE
_ZTVN7android12renderscript14ScriptInvokeIDE
_ZTVN7android12renderscript14ScriptKernelIDE
_ZTVN7android12renderscript15GrallocConsumerE
_ZTVN7android12renderscript15ProgramFragmentE
_ZTVN7android12renderscript15ScriptIntrinsicE
_ZTVN7android12renderscript4FontE
_ZTVN7android12renderscript4MeshE
_ZTVN7android12renderscript4TypeE
_ZTVN7android12renderscript6ScriptE
_ZTVN7android12renderscript7ClosureE
_ZTVN7android12renderscript7ElementE
_ZTVN7android12renderscript7FileA3DE
_ZTVN7android12renderscript7ProgramE
_ZTVN7android12renderscript7SamplerE
_ZTVN7android12renderscript7ScriptCE
rsAllocation1DData
rsAllocation1DElementData
rsAllocation1DRead
rsAllocation2DData
rsAllocation2DRead
rsAllocation3DData
rsAllocation3DRead
rsAllocationAdapterCreate
rsAllocationAdapterOffset
rsAllocationCopy2DRange
rsAllocationCopy3DRange
rsAllocationCopyToBitmap
rsAllocationCreateFromBitmap
rsAllocationCreateTyped
rsAllocationCubeCreateFromBitmap
rsAllocationElementData
rsAllocationElementRead
rsAllocationGenerateMipmaps
rsAllocationGetPointer
rsAllocationGetSurface
rsAllocationIoReceive
rsAllocationIoSend
rsAllocationRead
rsAllocationResize1D
rsAllocationSetSurface
rsAllocationSetupBufferQueue
rsAllocationShareBufferQueue
rsAllocationSyncAll
rsAssignName
rsClosureCreate
rsClosureSetArg
rsClosureSetGlobal
rsContextBindFont
rsContextBindProgramFragment
rsContextBindProgramRaster
rsContextBindProgramStore
rsContextBindProgramVertex
rsContextBindRootScript
rsContextCreate
rsContextCreateGL
rsContextCreateVendor
rsContextDeinitToClient
rsContextDestroy
rsContextDestroyWorker
rsContextDump
rsContextFinish
rsContextGetMessage
rsContextInitToClient
rsContextPause
rsContextPeekMessage
rsContextResume
rsContextSendMessage
rsContextSetCacheDir
rsContextSetPriority
rsContextSetSurface
rsDeviceCreate
rsDeviceDestroy
rsDeviceSetConfig
rsElementCreate
rsElementCreate2
rsFontCreateFromFile
rsFontCreateFromMemory
rsInvokeClosureCreate
rsMeshCreate
rsObjDestroy
rsProgramBindConstants
rsProgramBindSampler
rsProgramBindTexture
rsProgramFragmentCreate
rsProgramRasterCreate
rsProgramStoreCreate
rsProgramVertexCreate
rsSamplerCreate
rsScriptBindAllocation
rsScriptCCreate
rsScriptFieldIDCreate
rsScriptForEach
rsScriptForEachMulti
rsScriptGetVarV
rsScriptGroup2Create
rsScriptGroupCreate
rsScriptGroupExecute
rsScriptGroupSetInput
rsScriptGroupSetOutput
rsScriptIntrinsicCreate
rsScriptInvoke
rsScriptInvokeIDCreate
rsScriptInvokeV
rsScriptKernelIDCreate
rsScriptReduce
rsScriptSetTimeZone
rsScriptSetVarD
rsScriptSetVarF
rsScriptSetVarI
rsScriptSetVarJ
rsScriptSetVarObj
rsScriptSetVarV
rsScriptSetVarVE
rsTypeCreate
rsTypeCreate2
rsaAllocationGetType
rsaContextSetNativeLibDir
rsaElementGetNativeData
rsaElementGetSubElements
rsaGetName
rsaTypeGetNativeData
