_ZN7android8hardware10automotive12audiocontrol4V1_013IAudioControl10descriptorE
_ZN7android8hardware10automotive12audiocontrol4V1_013IAudioControl10getServiceERKNSt3__112basic_stringIcNS5_11char_traitsIcEENS5_9allocatorIcEEEEb
_ZN7android8hardware10automotive12audiocontrol4V1_013IAudioControl11linkToDeathERKNS_2spINS0_20hidl_death_recipientEEEy
_ZN7android8hardware10automotive12audiocontrol4V1_013IAudioControl12getDebugInfoENSt3__18functionIFvRKNS_4hidl4base4V1_09DebugInfoEEEE
_ZN7android8hardware10automotive12audiocontrol4V1_013IAudioControl12getHashChainENSt3__18functionIFvRKNS0_8hidl_vecINS0_10hidl_arrayIhLj32EJEEEEEEEE
_ZN7android8hardware10automotive12audiocontrol4V1_013IAudioControl13tryGetServiceERKNSt3__112basic_stringIcNS5_11char_traitsIcEENS5_9allocatorIcEEEEb
_ZN7android8hardware10automotive12audiocontrol4V1_013IAudioControl13unlinkToDeathERKNS_2spINS0_20hidl_death_recipientEEE
_ZN7android8hardware10automotive12audiocontrol4V1_013IAudioControl14interfaceChainENSt3__18functionIFvRKNS0_8hidl_vecINS0_11hidl_stringEEEEEE
_ZN7android8hardware10automotive12audiocontrol4V1_013IAudioControl17registerAsServiceERKNSt3__112basic_stringIcNS5_11char_traitsIcEENS5_9allocatorIcEEEE
_ZN7android8hardware10automotive12audiocontrol4V1_013IAudioControl19interfaceDescriptorENSt3__18functionIFvRKNS0_11hidl_stringEEEE
_ZN7android8hardware10automotive12audiocontrol4V1_013IAudioControl21notifySyspropsChangedEv
_ZN7android8hardware10automotive12audiocontrol4V1_013IAudioControl21setHALInstrumentationEv
_ZN7android8hardware10automotive12audiocontrol4V1_013IAudioControl24registerForNotificationsERKNSt3__112basic_stringIcNS5_11char_traitsIcEENS5_9allocatorIcEEEERKNS_2spINS_4hidl7manager4V1_020IServiceNotificationEEE
_ZN7android8hardware10automotive12audiocontrol4V1_013IAudioControl4pingEv
_ZN7android8hardware10automotive12audiocontrol4V1_013IAudioControl5debugERKNS0_11hidl_handleERKNS0_8hidl_vecINS0_11hidl_stringEEE
_ZN7android8hardware10automotive12audiocontrol4V1_013IAudioControl8castFromERKNS_2spINS_4hidl4base4V1_05IBaseEEEb
_ZN7android8hardware10automotive12audiocontrol4V1_013IAudioControl8castFromERKNS_2spIS4_EEb
_ZN7android8hardware10automotive12audiocontrol4V1_014BsAudioControl13addOnewayTaskENSt3__18functionIFvvEEE
_ZN7android8hardware10automotive12audiocontrol4V1_014BsAudioControlC1ENS_2spINS3_13IAudioControlEEE
_ZN7android8hardware10automotive12audiocontrol4V1_014BsAudioControlC2ENS_2spINS3_13IAudioControlEEE
_ZN7android8hardware10automotive12audiocontrol4V1_016BnHwAudioControl10onTransactEjRKNS0_6ParcelEPS5_jNSt3__18functionIFvRS5_EEE
_ZN7android8hardware10automotive12audiocontrol4V1_016BnHwAudioControl12getDebugInfoENSt3__18functionIFvRKNS_4hidl4base4V1_09DebugInfoEEEE
_ZN7android8hardware10automotive12audiocontrol4V1_016BnHwAudioControl22_hidl_getBusForContextEPNS_4hidl4base4V1_08BnHwBaseERKNS0_6ParcelEPSA_NSt3__18functionIFvRSA_EEE
_ZN7android8hardware10automotive12audiocontrol4V1_016BnHwAudioControl24_hidl_setFadeTowardFrontEPNS_4hidl4base4V1_08BnHwBaseERKNS0_6ParcelEPSA_NSt3__18functionIFvRSA_EEE
_ZN7android8hardware10automotive12audiocontrol4V1_016BnHwAudioControl27_hidl_setBalanceTowardRightEPNS_4hidl4base4V1_08BnHwBaseERKNS0_6ParcelEPSA_NSt3__18functionIFvRSA_EEE
_ZN7android8hardware10automotive12audiocontrol4V1_016BnHwAudioControl4pingEv
_ZN7android8hardware10automotive12audiocontrol4V1_016BnHwAudioControlC1ERKNS_2spINS3_13IAudioControlEEE
_ZN7android8hardware10automotive12audiocontrol4V1_016BnHwAudioControlC2ERKNS_2spINS3_13IAudioControlEEE
_ZN7android8hardware10automotive12audiocontrol4V1_016BnHwAudioControlD0Ev
_ZN7android8hardware10automotive12audiocontrol4V1_016BnHwAudioControlD1Ev
_ZN7android8hardware10automotive12audiocontrol4V1_016BnHwAudioControlD2Ev
_ZN7android8hardware10automotive12audiocontrol4V1_016BpHwAudioControl11linkToDeathERKNS_2spINS0_20hidl_death_recipientEEEy
_ZN7android8hardware10automotive12audiocontrol4V1_016BpHwAudioControl12getDebugInfoENSt3__18functionIFvRKNS_4hidl4base4V1_09DebugInfoEEEE
_ZN7android8hardware10automotive12audiocontrol4V1_016BpHwAudioControl12getHashChainENSt3__18functionIFvRKNS0_8hidl_vecINS0_10hidl_arrayIhLj32EJEEEEEEEE
_ZN7android8hardware10automotive12audiocontrol4V1_016BpHwAudioControl13unlinkToDeathERKNS_2spINS0_20hidl_death_recipientEEE
_ZN7android8hardware10automotive12audiocontrol4V1_016BpHwAudioControl14interfaceChainENSt3__18functionIFvRKNS0_8hidl_vecINS0_11hidl_stringEEEEEE
_ZN7android8hardware10automotive12audiocontrol4V1_016BpHwAudioControl16getBusForContextENS3_13ContextNumberE
_ZN7android8hardware10automotive12audiocontrol4V1_016BpHwAudioControl18setFadeTowardFrontEf
_ZN7android8hardware10automotive12audiocontrol4V1_016BpHwAudioControl19interfaceDescriptorENSt3__18functionIFvRKNS0_11hidl_stringEEEE
_ZN7android8hardware10automotive12audiocontrol4V1_016BpHwAudioControl21notifySyspropsChangedEv
_ZN7android8hardware10automotive12audiocontrol4V1_016BpHwAudioControl21setBalanceTowardRightEf
_ZN7android8hardware10automotive12audiocontrol4V1_016BpHwAudioControl21setHALInstrumentationEv
_ZN7android8hardware10automotive12audiocontrol4V1_016BpHwAudioControl22_hidl_getBusForContextEPNS0_10IInterfaceEPNS0_7details16HidlInstrumentorENS3_13ContextNumberE
_ZN7android8hardware10automotive12audiocontrol4V1_016BpHwAudioControl24_hidl_setFadeTowardFrontEPNS0_10IInterfaceEPNS0_7details16HidlInstrumentorEf
_ZN7android8hardware10automotive12audiocontrol4V1_016BpHwAudioControl27_hidl_setBalanceTowardRightEPNS0_10IInterfaceEPNS0_7details16HidlInstrumentorEf
_ZN7android8hardware10automotive12audiocontrol4V1_016BpHwAudioControl4pingEv
_ZN7android8hardware10automotive12audiocontrol4V1_016BpHwAudioControl5debugERKNS0_11hidl_handleERKNS0_8hidl_vecINS0_11hidl_stringEEE
_ZN7android8hardware10automotive12audiocontrol4V1_016BpHwAudioControlC1ERKNS_2spINS0_7IBinderEEE
_ZN7android8hardware10automotive12audiocontrol4V1_016BpHwAudioControlC2ERKNS_2spINS0_7IBinderEEE
_ZTCN7android8hardware10automotive12audiocontrol4V1_013IAudioControlE0_NS_4hidl4base4V1_05IBaseE
_ZTCN7android8hardware10automotive12audiocontrol4V1_016BnHwAudioControlE0_NS0_7IBinderE
_ZTCN7android8hardware10automotive12audiocontrol4V1_016BnHwAudioControlE0_NS0_9BHwBinderE
_ZTCN7android8hardware10automotive12audiocontrol4V1_016BnHwAudioControlE0_NS_4hidl4base4V1_08BnHwBaseE
_ZTCN7android8hardware10automotive12audiocontrol4V1_016BpHwAudioControlE0_NS0_11BpInterfaceINS3_13IAudioControlEEE
_ZTCN7android8hardware10automotive12audiocontrol4V1_016BpHwAudioControlE0_NS3_13IAudioControlE
_ZTCN7android8hardware10automotive12audiocontrol4V1_016BpHwAudioControlE0_NS_4hidl4base4V1_05IBaseE
_ZTCN7android8hardware10automotive12audiocontrol4V1_016BpHwAudioControlE4_NS0_10IInterfaceE
_ZTCN7android8hardware10automotive12audiocontrol4V1_016BpHwAudioControlE8_NS0_11BpHwRefBaseE
_ZTTN7android8hardware10automotive12audiocontrol4V1_013IAudioControlE
_ZTTN7android8hardware10automotive12audiocontrol4V1_016BnHwAudioControlE
_ZTTN7android8hardware10automotive12audiocontrol4V1_016BpHwAudioControlE
_ZTVN7android8hardware10automotive12audiocontrol4V1_013IAudioControlE
_ZTVN7android8hardware10automotive12audiocontrol4V1_016BnHwAudioControlE
_ZTVN7android8hardware10automotive12audiocontrol4V1_016BpHwAudioControlE
_ZThn20_N7android8hardware10automotive12audiocontrol4V1_016BnHwAudioControlD0Ev
_ZThn20_N7android8hardware10automotive12audiocontrol4V1_016BnHwAudioControlD1Ev
_ZTv0_n12_N7android8hardware10automotive12audiocontrol4V1_016BnHwAudioControlD0Ev
_ZTv0_n12_N7android8hardware10automotive12audiocontrol4V1_016BnHwAudioControlD1Ev
