_ZN7android8hardware9dumpstate4V1_016IDumpstateDevice10descriptorE
_ZN7android8hardware9dumpstate4V1_016IDumpstateDevice10getServiceERKNSt3__112basic_stringIcNS4_11char_traitsIcEENS4_9allocatorIcEEEEb
_ZN7android8hardware9dumpstate4V1_016IDumpstateDevice11linkToDeathERKNS_2spINS0_20hidl_death_recipientEEEy
_ZN7android8hardware9dumpstate4V1_016IDumpstateDevice12getDebugInfoENSt3__18functionIFvRKNS_4hidl4base4V1_09DebugInfoEEEE
_ZN7android8hardware9dumpstate4V1_016IDumpstateDevice12getHashChainENSt3__18functionIFvRKNS0_8hidl_vecINS0_10hidl_arrayIhLj32EJEEEEEEEE
_ZN7android8hardware9dumpstate4V1_016IDumpstateDevice13tryGetServiceERKNSt3__112basic_stringIcNS4_11char_traitsIcEENS4_9allocatorIcEEEEb
_ZN7android8hardware9dumpstate4V1_016IDumpstateDevice13unlinkToDeathERKNS_2spINS0_20hidl_death_recipientEEE
_ZN7android8hardware9dumpstate4V1_016IDumpstateDevice14interfaceChainENSt3__18functionIFvRKNS0_8hidl_vecINS0_11hidl_stringEEEEEE
_ZN7android8hardware9dumpstate4V1_016IDumpstateDevice17registerAsServiceERKNSt3__112basic_stringIcNS4_11char_traitsIcEENS4_9allocatorIcEEEE
_ZN7android8hardware9dumpstate4V1_016IDumpstateDevice19interfaceDescriptorENSt3__18functionIFvRKNS0_11hidl_stringEEEE
_ZN7android8hardware9dumpstate4V1_016IDumpstateDevice21notifySyspropsChangedEv
_ZN7android8hardware9dumpstate4V1_016IDumpstateDevice21setHALInstrumentationEv
_ZN7android8hardware9dumpstate4V1_016IDumpstateDevice24registerForNotificationsERKNSt3__112basic_stringIcNS4_11char_traitsIcEENS4_9allocatorIcEEEERKNS_2spINS_4hidl7manager4V1_020IServiceNotificationEEE
_ZN7android8hardware9dumpstate4V1_016IDumpstateDevice4pingEv
_ZN7android8hardware9dumpstate4V1_016IDumpstateDevice5debugERKNS0_11hidl_handleERKNS0_8hidl_vecINS0_11hidl_stringEEE
_ZN7android8hardware9dumpstate4V1_016IDumpstateDevice8castFromERKNS_2spINS_4hidl4base4V1_05IBaseEEEb
_ZN7android8hardware9dumpstate4V1_016IDumpstateDevice8castFromERKNS_2spIS3_EEb
_ZN7android8hardware9dumpstate4V1_017BsDumpstateDevice13addOnewayTaskENSt3__18functionIFvvEEE
_ZN7android8hardware9dumpstate4V1_017BsDumpstateDeviceC1ENS_2spINS2_16IDumpstateDeviceEEE
_ZN7android8hardware9dumpstate4V1_017BsDumpstateDeviceC2ENS_2spINS2_16IDumpstateDeviceEEE
_ZN7android8hardware9dumpstate4V1_019BnHwDumpstateDevice10onTransactEjRKNS0_6ParcelEPS4_jNSt3__18functionIFvRS4_EEE
_ZN7android8hardware9dumpstate4V1_019BnHwDumpstateDevice12getDebugInfoENSt3__18functionIFvRKNS_4hidl4base4V1_09DebugInfoEEEE
_ZN7android8hardware9dumpstate4V1_019BnHwDumpstateDevice20_hidl_dumpstateBoardEPNS_4hidl4base4V1_08BnHwBaseERKNS0_6ParcelEPS9_NSt3__18functionIFvRS9_EEE
_ZN7android8hardware9dumpstate4V1_019BnHwDumpstateDevice4pingEv
_ZN7android8hardware9dumpstate4V1_019BnHwDumpstateDeviceC1ERKNS_2spINS2_16IDumpstateDeviceEEE
_ZN7android8hardware9dumpstate4V1_019BnHwDumpstateDeviceC2ERKNS_2spINS2_16IDumpstateDeviceEEE
_ZN7android8hardware9dumpstate4V1_019BnHwDumpstateDeviceD0Ev
_ZN7android8hardware9dumpstate4V1_019BnHwDumpstateDeviceD1Ev
_ZN7android8hardware9dumpstate4V1_019BnHwDumpstateDeviceD2Ev
_ZN7android8hardware9dumpstate4V1_019BpHwDumpstateDevice11linkToDeathERKNS_2spINS0_20hidl_death_recipientEEEy
_ZN7android8hardware9dumpstate4V1_019BpHwDumpstateDevice12getDebugInfoENSt3__18functionIFvRKNS_4hidl4base4V1_09DebugInfoEEEE
_ZN7android8hardware9dumpstate4V1_019BpHwDumpstateDevice12getHashChainENSt3__18functionIFvRKNS0_8hidl_vecINS0_10hidl_arrayIhLj32EJEEEEEEEE
_ZN7android8hardware9dumpstate4V1_019BpHwDumpstateDevice13unlinkToDeathERKNS_2spINS0_20hidl_death_recipientEEE
_ZN7android8hardware9dumpstate4V1_019BpHwDumpstateDevice14dumpstateBoardERKNS0_11hidl_handleE
_ZN7android8hardware9dumpstate4V1_019BpHwDumpstateDevice14interfaceChainENSt3__18functionIFvRKNS0_8hidl_vecINS0_11hidl_stringEEEEEE
_ZN7android8hardware9dumpstate4V1_019BpHwDumpstateDevice19interfaceDescriptorENSt3__18functionIFvRKNS0_11hidl_stringEEEE
_ZN7android8hardware9dumpstate4V1_019BpHwDumpstateDevice20_hidl_dumpstateBoardEPNS0_10IInterfaceEPNS0_7details16HidlInstrumentorERKNS0_11hidl_handleE
_ZN7android8hardware9dumpstate4V1_019BpHwDumpstateDevice21notifySyspropsChangedEv
_ZN7android8hardware9dumpstate4V1_019BpHwDumpstateDevice21setHALInstrumentationEv
_ZN7android8hardware9dumpstate4V1_019BpHwDumpstateDevice4pingEv
_ZN7android8hardware9dumpstate4V1_019BpHwDumpstateDevice5debugERKNS0_11hidl_handleERKNS0_8hidl_vecINS0_11hidl_stringEEE
_ZN7android8hardware9dumpstate4V1_019BpHwDumpstateDeviceC1ERKNS_2spINS0_7IBinderEEE
_ZN7android8hardware9dumpstate4V1_019BpHwDumpstateDeviceC2ERKNS_2spINS0_7IBinderEEE
_ZTCN7android8hardware9dumpstate4V1_016IDumpstateDeviceE0_NS_4hidl4base4V1_05IBaseE
_ZTCN7android8hardware9dumpstate4V1_019BnHwDumpstateDeviceE0_NS0_7IBinderE
_ZTCN7android8hardware9dumpstate4V1_019BnHwDumpstateDeviceE0_NS0_9BHwBinderE
_ZTCN7android8hardware9dumpstate4V1_019BnHwDumpstateDeviceE0_NS_4hidl4base4V1_08BnHwBaseE
_ZTCN7android8hardware9dumpstate4V1_019BpHwDumpstateDeviceE0_NS0_11BpInterfaceINS2_16IDumpstateDeviceEEE
_ZTCN7android8hardware9dumpstate4V1_019BpHwDumpstateDeviceE0_NS2_16IDumpstateDeviceE
_ZTCN7android8hardware9dumpstate4V1_019BpHwDumpstateDeviceE0_NS_4hidl4base4V1_05IBaseE
_ZTCN7android8hardware9dumpstate4V1_019BpHwDumpstateDeviceE4_NS0_10IInterfaceE
_ZTCN7android8hardware9dumpstate4V1_019BpHwDumpstateDeviceE8_NS0_11BpHwRefBaseE
_ZTTN7android8hardware9dumpstate4V1_016IDumpstateDeviceE
_ZTTN7android8hardware9dumpstate4V1_019BnHwDumpstateDeviceE
_ZTTN7android8hardware9dumpstate4V1_019BpHwDumpstateDeviceE
_ZTVN7android8hardware9dumpstate4V1_016IDumpstateDeviceE
_ZTVN7android8hardware9dumpstate4V1_019BnHwDumpstateDeviceE
_ZTVN7android8hardware9dumpstate4V1_019BpHwDumpstateDeviceE
_ZThn20_N7android8hardware9dumpstate4V1_019BnHwDumpstateDeviceD0Ev
_ZThn20_N7android8hardware9dumpstate4V1_019BnHwDumpstateDeviceD1Ev
_ZTv0_n12_N7android8hardware9dumpstate4V1_019BnHwDumpstateDeviceD0Ev
_ZTv0_n12_N7android8hardware9dumpstate4V1_019BnHwDumpstateDeviceD1Ev
