vtable for android::hardware::neuralnetworks::V1_1::BpHwDevice
_ZTVN7android8hardware14neuralnetworks4V1_110BpHwDeviceE: 24 entries
16    (int (*)(...)) _ZN7android8hardware14neuralnetworks4V1_110BpHwDevice14interfaceChainENSt3__18functionIFvRKNS0_8hidl_vecINS0_11hidl_stringEEEEEE
20    (int (*)(...)) _ZN7android8hardware14neuralnetworks4V1_110BpHwDevice5debugERKNS0_11hidl_handleERKNS0_8hidl_vecINS0_11hidl_stringEEE
24    (int (*)(...)) _ZN7android8hardware14neuralnetworks4V1_110BpHwDevice19interfaceDescriptorENSt3__18functionIFvRKNS0_11hidl_stringEEEE
28    (int (*)(...)) _ZN7android8hardware14neuralnetworks4V1_110BpHwDevice12getHashChainENSt3__18functionIFvRKNS0_8hidl_vecINS0_10hidl_arrayIhLj32EJEEEEEEEE
32    (int (*)(...)) _ZN7android8hardware14neuralnetworks4V1_110BpHwDevice21setHALInstrumentationEv
36    (int (*)(...)) _ZN7android8hardware14neuralnetworks4V1_110BpHwDevice11linkToDeathERKNS_2spINS0_20hidl_death_recipientEEEy
40    (int (*)(...)) _ZN7android8hardware14neuralnetworks4V1_110BpHwDevice4pingEv
44    (int (*)(...)) _ZN7android8hardware14neuralnetworks4V1_110BpHwDevice12getDebugInfoENSt3__18functionIFvRKNS_4hidl4base4V1_09DebugInfoEEEE
48    (int (*)(...)) _ZN7android8hardware14neuralnetworks4V1_110BpHwDevice21notifySyspropsChangedEv
52    (int (*)(...)) _ZN7android8hardware14neuralnetworks4V1_110BpHwDevice13unlinkToDeathERKNS_2spINS0_20hidl_death_recipientEEE
64    (int (*)(...)) _ZN7android8hardware14neuralnetworks4V1_110BpHwDevice15getCapabilitiesENSt3__18functionIFvNS1_4V1_011ErrorStatusERKNS6_12CapabilitiesEEEE
68    (int (*)(...)) _ZN7android8hardware14neuralnetworks4V1_110BpHwDevice22getSupportedOperationsERKNS1_4V1_05ModelENSt3__18functionIFvNS4_11ErrorStatusERKNS0_8hidl_vecIbEEEEE
72    (int (*)(...)) _ZN7android8hardware14neuralnetworks4V1_110BpHwDevice12prepareModelERKNS1_4V1_05ModelERKNS_2spINS4_22IPreparedModelCallbackEEE
76    (int (*)(...)) _ZN7android8hardware14neuralnetworks4V1_110BpHwDevice9getStatusEv
80    (int (*)(...)) _ZN7android8hardware14neuralnetworks4V1_110BpHwDevice19getCapabilities_1_1ENSt3__18functionIFvNS1_4V1_011ErrorStatusERKNS2_12CapabilitiesEEEE
84    (int (*)(...)) _ZN7android8hardware14neuralnetworks4V1_110BpHwDevice26getSupportedOperations_1_1ERKNS2_5ModelENSt3__18functionIFvNS1_4V1_011ErrorStatusERKNS0_8hidl_vecIbEEEEE
88    (int (*)(...)) _ZN7android8hardware14neuralnetworks4V1_110BpHwDevice16prepareModel_1_1ERKNS2_5ModelENS2_19ExecutionPreferenceERKNS_2spINS1_4V1_022IPreparedModelCallbackEEE
140    (int (*)(...)) _ZN7android8hardware11BpHwRefBase10onFirstRefEv
144    (int (*)(...)) _ZN7android8hardware11BpHwRefBase15onLastStrongRefEPKv
148    (int (*)(...)) _ZN7android8hardware11BpHwRefBase20onIncStrongAttemptedEjPKv
204    (int (*)(...)) _ZTv0_n16_N7android8hardware11BpHwRefBase10onFirstRefEv
208    (int (*)(...)) _ZTv0_n20_N7android8hardware11BpHwRefBase15onLastStrongRefEPKv
212    (int (*)(...)) _ZTv0_n24_N7android8hardware11BpHwRefBase20onIncStrongAttemptedEjPKv
216    (int (*)(...)) _ZN7android7RefBase13onLastWeakRefEPKv


vtable for android::hardware::neuralnetworks::V1_1::BnHwDevice
_ZTVN7android8hardware14neuralnetworks4V1_110BnHwDeviceE: 20 entries
12    (int (*)(...)) _ZN7android8hardware9BHwBinder8transactEjRKNS0_6ParcelEPS2_jNSt3__18functionIFvRS2_EEE
16    (int (*)(...)) _ZN7android8hardware9BHwBinder11linkToDeathERKNS_2spINS0_7IBinder14DeathRecipientEEEPvj
20    (int (*)(...)) _ZN7android8hardware9BHwBinder13unlinkToDeathERKNS_2wpINS0_7IBinder14DeathRecipientEEEPvjPS5_
24    (int (*)(...)) _ZNK7android8hardware7IBinder13checkSubclassEPKv
28    (int (*)(...)) _ZN7android8hardware9BHwBinder12attachObjectEPKvPvS4_PFvS3_S4_S4_E
32    (int (*)(...)) _ZNK7android8hardware9BHwBinder10findObjectEPKv
36    (int (*)(...)) _ZN7android8hardware9BHwBinder12detachObjectEPKv
40    (int (*)(...)) _ZN7android8hardware9BHwBinder11localBinderEv
44    (int (*)(...)) _ZN7android8hardware7IBinder12remoteBinderEv
48    (int (*)(...)) _ZN7android8hardware14neuralnetworks4V1_110BnHwDeviceD1Ev
52    (int (*)(...)) _ZN7android8hardware14neuralnetworks4V1_110BnHwDeviceD0Ev
56    (int (*)(...)) _ZN7android8hardware14neuralnetworks4V1_110BnHwDevice10onTransactEjRKNS0_6ParcelEPS4_jNSt3__18functionIFvRS4_EEE
68    (int (*)(...)) _ZThn20_N7android8hardware14neuralnetworks4V1_110BnHwDeviceD1Ev
72    (int (*)(...)) _ZThn20_N7android8hardware14neuralnetworks4V1_110BnHwDeviceD0Ev
104    (int (*)(...)) _ZTv0_n12_N7android8hardware14neuralnetworks4V1_110BnHwDeviceD1Ev
108    (int (*)(...)) _ZTv0_n12_N7android8hardware14neuralnetworks4V1_110BnHwDeviceD0Ev
112    (int (*)(...)) _ZN7android7RefBase10onFirstRefEv
116    (int (*)(...)) _ZN7android7RefBase15onLastStrongRefEPKv
120    (int (*)(...)) _ZN7android7RefBase20onIncStrongAttemptedEjPKv
124    (int (*)(...)) _ZN7android7RefBase13onLastWeakRefEPKv


vtable for android::hardware::neuralnetworks::V1_1::IDevice
_ZTVN7android8hardware14neuralnetworks4V1_17IDeviceE: 15 entries
16    (int (*)(...)) _ZN7android8hardware14neuralnetworks4V1_17IDevice14interfaceChainENSt3__18functionIFvRKNS0_8hidl_vecINS0_11hidl_stringEEEEEE
20    (int (*)(...)) _ZN7android8hardware14neuralnetworks4V1_17IDevice5debugERKNS0_11hidl_handleERKNS0_8hidl_vecINS0_11hidl_stringEEE
24    (int (*)(...)) _ZN7android8hardware14neuralnetworks4V1_17IDevice19interfaceDescriptorENSt3__18functionIFvRKNS0_11hidl_stringEEEE
28    (int (*)(...)) _ZN7android8hardware14neuralnetworks4V1_17IDevice12getHashChainENSt3__18functionIFvRKNS0_8hidl_vecINS0_10hidl_arrayIhLj32EJEEEEEEEE
32    (int (*)(...)) _ZN7android8hardware14neuralnetworks4V1_17IDevice21setHALInstrumentationEv
36    (int (*)(...)) _ZN7android8hardware14neuralnetworks4V1_17IDevice11linkToDeathERKNS_2spINS0_20hidl_death_recipientEEEy
40    (int (*)(...)) _ZN7android8hardware14neuralnetworks4V1_17IDevice4pingEv
44    (int (*)(...)) _ZN7android8hardware14neuralnetworks4V1_17IDevice12getDebugInfoENSt3__18functionIFvRKNS_4hidl4base4V1_09DebugInfoEEEE
48    (int (*)(...)) _ZN7android8hardware14neuralnetworks4V1_17IDevice21notifySyspropsChangedEv
52    (int (*)(...)) _ZN7android8hardware14neuralnetworks4V1_17IDevice13unlinkToDeathERKNS_2spINS0_20hidl_death_recipientEEE
128    (int (*)(...)) _ZN7android7RefBase10onFirstRefEv
132    (int (*)(...)) _ZN7android7RefBase15onLastStrongRefEPKv
136    (int (*)(...)) _ZN7android7RefBase20onIncStrongAttemptedEjPKv
140    (int (*)(...)) _ZN7android7RefBase13onLastWeakRefEPKv
144    (int (*)(...)) _ZTVN7android8hardware14neuralnetworks4V1_17IDeviceE
