_ZN7android8hardware2tv5input4V1_011BnHwTvInput10onTransactEjRKNS0_6ParcelEPS5_jNSt3__18functionIFvRS5_EEE
_ZN7android8hardware2tv5input4V1_011BnHwTvInput12getDebugInfoENSt3__18functionIFvRKNS_4hidl4base4V1_09DebugInfoEEEE
_ZN7android8hardware2tv5input4V1_011BnHwTvInput16_hidl_openStreamEPNS_4hidl4base4V1_08BnHwBaseERKNS0_6ParcelEPSA_NSt3__18functionIFvRSA_EEE
_ZN7android8hardware2tv5input4V1_011BnHwTvInput17_hidl_closeStreamEPNS_4hidl4base4V1_08BnHwBaseERKNS0_6ParcelEPSA_NSt3__18functionIFvRSA_EEE
_ZN7android8hardware2tv5input4V1_011BnHwTvInput17_hidl_setCallbackEPNS_4hidl4base4V1_08BnHwBaseERKNS0_6ParcelEPSA_NSt3__18functionIFvRSA_EEE
_ZN7android8hardware2tv5input4V1_011BnHwTvInput29_hidl_getStreamConfigurationsEPNS_4hidl4base4V1_08BnHwBaseERKNS0_6ParcelEPSA_NSt3__18functionIFvRSA_EEE
_ZN7android8hardware2tv5input4V1_011BnHwTvInput4pingEv
_ZN7android8hardware2tv5input4V1_011BnHwTvInputC1ERKNS_2spINS3_8ITvInputEEE
_ZN7android8hardware2tv5input4V1_011BnHwTvInputC2ERKNS_2spINS3_8ITvInputEEE
_ZN7android8hardware2tv5input4V1_011BnHwTvInputD0Ev
_ZN7android8hardware2tv5input4V1_011BnHwTvInputD1Ev
_ZN7android8hardware2tv5input4V1_011BnHwTvInputD2Ev
_ZN7android8hardware2tv5input4V1_011BpHwTvInput10openStreamEiiNSt3__18functionIFvNS3_6ResultERKNS0_11hidl_handleEEEE
_ZN7android8hardware2tv5input4V1_011BpHwTvInput11closeStreamEii
_ZN7android8hardware2tv5input4V1_011BpHwTvInput11linkToDeathERKNS_2spINS0_20hidl_death_recipientEEEy
_ZN7android8hardware2tv5input4V1_011BpHwTvInput11setCallbackERKNS_2spINS3_16ITvInputCallbackEEE
_ZN7android8hardware2tv5input4V1_011BpHwTvInput12getDebugInfoENSt3__18functionIFvRKNS_4hidl4base4V1_09DebugInfoEEEE
_ZN7android8hardware2tv5input4V1_011BpHwTvInput12getHashChainENSt3__18functionIFvRKNS0_8hidl_vecINS0_10hidl_arrayIhLj32EJEEEEEEEE
_ZN7android8hardware2tv5input4V1_011BpHwTvInput13unlinkToDeathERKNS_2spINS0_20hidl_death_recipientEEE
_ZN7android8hardware2tv5input4V1_011BpHwTvInput14interfaceChainENSt3__18functionIFvRKNS0_8hidl_vecINS0_11hidl_stringEEEEEE
_ZN7android8hardware2tv5input4V1_011BpHwTvInput16_hidl_openStreamEPNS0_10IInterfaceEPNS0_7details16HidlInstrumentorEiiNSt3__18functionIFvNS3_6ResultERKNS0_11hidl_handleEEEE
_ZN7android8hardware2tv5input4V1_011BpHwTvInput17_hidl_closeStreamEPNS0_10IInterfaceEPNS0_7details16HidlInstrumentorEii
_ZN7android8hardware2tv5input4V1_011BpHwTvInput17_hidl_setCallbackEPNS0_10IInterfaceEPNS0_7details16HidlInstrumentorERKNS_2spINS3_16ITvInputCallbackEEE
_ZN7android8hardware2tv5input4V1_011BpHwTvInput19interfaceDescriptorENSt3__18functionIFvRKNS0_11hidl_stringEEEE
_ZN7android8hardware2tv5input4V1_011BpHwTvInput21notifySyspropsChangedEv
_ZN7android8hardware2tv5input4V1_011BpHwTvInput21setHALInstrumentationEv
_ZN7android8hardware2tv5input4V1_011BpHwTvInput23getStreamConfigurationsEiNSt3__18functionIFvNS3_6ResultERKNS0_8hidl_vecINS3_14TvStreamConfigEEEEEE
_ZN7android8hardware2tv5input4V1_011BpHwTvInput29_hidl_getStreamConfigurationsEPNS0_10IInterfaceEPNS0_7details16HidlInstrumentorEiNSt3__18functionIFvNS3_6ResultERKNS0_8hidl_vecINS3_14TvStreamConfigEEEEEE
_ZN7android8hardware2tv5input4V1_011BpHwTvInput4pingEv
_ZN7android8hardware2tv5input4V1_011BpHwTvInput5debugERKNS0_11hidl_handleERKNS0_8hidl_vecINS0_11hidl_stringEEE
_ZN7android8hardware2tv5input4V1_011BpHwTvInputC1ERKNS_2spINS0_7IBinderEEE
_ZN7android8hardware2tv5input4V1_011BpHwTvInputC2ERKNS_2spINS0_7IBinderEEE
_ZN7android8hardware2tv5input4V1_016ITvInputCallback10descriptorE
_ZN7android8hardware2tv5input4V1_016ITvInputCallback10getServiceERKNSt3__112basic_stringIcNS5_11char_traitsIcEENS5_9allocatorIcEEEEb
_ZN7android8hardware2tv5input4V1_016ITvInputCallback11linkToDeathERKNS_2spINS0_20hidl_death_recipientEEEy
_ZN7android8hardware2tv5input4V1_016ITvInputCallback12getDebugInfoENSt3__18functionIFvRKNS_4hidl4base4V1_09DebugInfoEEEE
_ZN7android8hardware2tv5input4V1_016ITvInputCallback12getHashChainENSt3__18functionIFvRKNS0_8hidl_vecINS0_10hidl_arrayIhLj32EJEEEEEEEE
_ZN7android8hardware2tv5input4V1_016ITvInputCallback13tryGetServiceERKNSt3__112basic_stringIcNS5_11char_traitsIcEENS5_9allocatorIcEEEEb
_ZN7android8hardware2tv5input4V1_016ITvInputCallback13unlinkToDeathERKNS_2spINS0_20hidl_death_recipientEEE
_ZN7android8hardware2tv5input4V1_016ITvInputCallback14interfaceChainENSt3__18functionIFvRKNS0_8hidl_vecINS0_11hidl_stringEEEEEE
_ZN7android8hardware2tv5input4V1_016ITvInputCallback17registerAsServiceERKNSt3__112basic_stringIcNS5_11char_traitsIcEENS5_9allocatorIcEEEE
_ZN7android8hardware2tv5input4V1_016ITvInputCallback19interfaceDescriptorENSt3__18functionIFvRKNS0_11hidl_stringEEEE
_ZN7android8hardware2tv5input4V1_016ITvInputCallback21notifySyspropsChangedEv
_ZN7android8hardware2tv5input4V1_016ITvInputCallback21setHALInstrumentationEv
_ZN7android8hardware2tv5input4V1_016ITvInputCallback24registerForNotificationsERKNSt3__112basic_stringIcNS5_11char_traitsIcEENS5_9allocatorIcEEEERKNS_2spINS_4hidl7manager4V1_020IServiceNotificationEEE
_ZN7android8hardware2tv5input4V1_016ITvInputCallback4pingEv
_ZN7android8hardware2tv5input4V1_016ITvInputCallback5debugERKNS0_11hidl_handleERKNS0_8hidl_vecINS0_11hidl_stringEEE
_ZN7android8hardware2tv5input4V1_016ITvInputCallback8castFromERKNS_2spINS_4hidl4base4V1_05IBaseEEEb
_ZN7android8hardware2tv5input4V1_016ITvInputCallback8castFromERKNS_2spIS4_EEb
_ZN7android8hardware2tv5input4V1_017BsTvInputCallback13addOnewayTaskENSt3__18functionIFvvEEE
_ZN7android8hardware2tv5input4V1_017BsTvInputCallbackC1ENS_2spINS3_16ITvInputCallbackEEE
_ZN7android8hardware2tv5input4V1_017BsTvInputCallbackC2ENS_2spINS3_16ITvInputCallbackEEE
_ZN7android8hardware2tv5input4V1_019BnHwTvInputCallback10onTransactEjRKNS0_6ParcelEPS5_jNSt3__18functionIFvRS5_EEE
_ZN7android8hardware2tv5input4V1_019BnHwTvInputCallback12_hidl_notifyEPNS_4hidl4base4V1_08BnHwBaseERKNS0_6ParcelEPSA_NSt3__18functionIFvRSA_EEE
_ZN7android8hardware2tv5input4V1_019BnHwTvInputCallback12getDebugInfoENSt3__18functionIFvRKNS_4hidl4base4V1_09DebugInfoEEEE
_ZN7android8hardware2tv5input4V1_019BnHwTvInputCallback4pingEv
_ZN7android8hardware2tv5input4V1_019BnHwTvInputCallbackC1ERKNS_2spINS3_16ITvInputCallbackEEE
_ZN7android8hardware2tv5input4V1_019BnHwTvInputCallbackC2ERKNS_2spINS3_16ITvInputCallbackEEE
_ZN7android8hardware2tv5input4V1_019BnHwTvInputCallbackD0Ev
_ZN7android8hardware2tv5input4V1_019BnHwTvInputCallbackD1Ev
_ZN7android8hardware2tv5input4V1_019BnHwTvInputCallbackD2Ev
_ZN7android8hardware2tv5input4V1_019BpHwTvInputCallback11linkToDeathERKNS_2spINS0_20hidl_death_recipientEEEy
_ZN7android8hardware2tv5input4V1_019BpHwTvInputCallback12_hidl_notifyEPNS0_10IInterfaceEPNS0_7details16HidlInstrumentorERKNS3_12TvInputEventE
_ZN7android8hardware2tv5input4V1_019BpHwTvInputCallback12getDebugInfoENSt3__18functionIFvRKNS_4hidl4base4V1_09DebugInfoEEEE
_ZN7android8hardware2tv5input4V1_019BpHwTvInputCallback12getHashChainENSt3__18functionIFvRKNS0_8hidl_vecINS0_10hidl_arrayIhLj32EJEEEEEEEE
_ZN7android8hardware2tv5input4V1_019BpHwTvInputCallback13unlinkToDeathERKNS_2spINS0_20hidl_death_recipientEEE
_ZN7android8hardware2tv5input4V1_019BpHwTvInputCallback14interfaceChainENSt3__18functionIFvRKNS0_8hidl_vecINS0_11hidl_stringEEEEEE
_ZN7android8hardware2tv5input4V1_019BpHwTvInputCallback19interfaceDescriptorENSt3__18functionIFvRKNS0_11hidl_stringEEEE
_ZN7android8hardware2tv5input4V1_019BpHwTvInputCallback21notifySyspropsChangedEv
_ZN7android8hardware2tv5input4V1_019BpHwTvInputCallback21setHALInstrumentationEv
_ZN7android8hardware2tv5input4V1_019BpHwTvInputCallback4pingEv
_ZN7android8hardware2tv5input4V1_019BpHwTvInputCallback5debugERKNS0_11hidl_handleERKNS0_8hidl_vecINS0_11hidl_stringEEE
_ZN7android8hardware2tv5input4V1_019BpHwTvInputCallback6notifyERKNS3_12TvInputEventE
_ZN7android8hardware2tv5input4V1_019BpHwTvInputCallbackC1ERKNS_2spINS0_7IBinderEEE
_ZN7android8hardware2tv5input4V1_019BpHwTvInputCallbackC2ERKNS_2spINS0_7IBinderEEE
_ZN7android8hardware2tv5input4V1_08ITvInput10descriptorE
_ZN7android8hardware2tv5input4V1_08ITvInput10getServiceERKNSt3__112basic_stringIcNS5_11char_traitsIcEENS5_9allocatorIcEEEEb
_ZN7android8hardware2tv5input4V1_08ITvInput11linkToDeathERKNS_2spINS0_20hidl_death_recipientEEEy
_ZN7android8hardware2tv5input4V1_08ITvInput12getDebugInfoENSt3__18functionIFvRKNS_4hidl4base4V1_09DebugInfoEEEE
_ZN7android8hardware2tv5input4V1_08ITvInput12getHashChainENSt3__18functionIFvRKNS0_8hidl_vecINS0_10hidl_arrayIhLj32EJEEEEEEEE
_ZN7android8hardware2tv5input4V1_08ITvInput13tryGetServiceERKNSt3__112basic_stringIcNS5_11char_traitsIcEENS5_9allocatorIcEEEEb
_ZN7android8hardware2tv5input4V1_08ITvInput13unlinkToDeathERKNS_2spINS0_20hidl_death_recipientEEE
_ZN7android8hardware2tv5input4V1_08ITvInput14interfaceChainENSt3__18functionIFvRKNS0_8hidl_vecINS0_11hidl_stringEEEEEE
_ZN7android8hardware2tv5input4V1_08ITvInput17registerAsServiceERKNSt3__112basic_stringIcNS5_11char_traitsIcEENS5_9allocatorIcEEEE
_ZN7android8hardware2tv5input4V1_08ITvInput19interfaceDescriptorENSt3__18functionIFvRKNS0_11hidl_stringEEEE
_ZN7android8hardware2tv5input4V1_08ITvInput21notifySyspropsChangedEv
_ZN7android8hardware2tv5input4V1_08ITvInput21setHALInstrumentationEv
_ZN7android8hardware2tv5input4V1_08ITvInput24registerForNotificationsERKNSt3__112basic_stringIcNS5_11char_traitsIcEENS5_9allocatorIcEEEERKNS_2spINS_4hidl7manager4V1_020IServiceNotificationEEE
_ZN7android8hardware2tv5input4V1_08ITvInput4pingEv
_ZN7android8hardware2tv5input4V1_08ITvInput5debugERKNS0_11hidl_handleERKNS0_8hidl_vecINS0_11hidl_stringEEE
_ZN7android8hardware2tv5input4V1_08ITvInput8castFromERKNS_2spINS_4hidl4base4V1_05IBaseEEEb
_ZN7android8hardware2tv5input4V1_08ITvInput8castFromERKNS_2spIS4_EEb
_ZN7android8hardware2tv5input4V1_09BsTvInput13addOnewayTaskENSt3__18functionIFvvEEE
_ZN7android8hardware2tv5input4V1_09BsTvInputC1ENS_2spINS3_8ITvInputEEE
_ZN7android8hardware2tv5input4V1_09BsTvInputC2ENS_2spINS3_8ITvInputEEE
_ZTCN7android8hardware2tv5input4V1_011BnHwTvInputE0_NS0_7IBinderE
_ZTCN7android8hardware2tv5input4V1_011BnHwTvInputE0_NS0_9BHwBinderE
_ZTCN7android8hardware2tv5input4V1_011BnHwTvInputE0_NS_4hidl4base4V1_08BnHwBaseE
_ZTCN7android8hardware2tv5input4V1_011BpHwTvInputE0_NS0_11BpInterfaceINS3_8ITvInputEEE
_ZTCN7android8hardware2tv5input4V1_011BpHwTvInputE0_NS3_8ITvInputE
_ZTCN7android8hardware2tv5input4V1_011BpHwTvInputE0_NS_4hidl4base4V1_05IBaseE
_ZTCN7android8hardware2tv5input4V1_011BpHwTvInputE4_NS0_10IInterfaceE
_ZTCN7android8hardware2tv5input4V1_011BpHwTvInputE8_NS0_11BpHwRefBaseE
_ZTCN7android8hardware2tv5input4V1_016ITvInputCallbackE0_NS_4hidl4base4V1_05IBaseE
_ZTCN7android8hardware2tv5input4V1_019BnHwTvInputCallbackE0_NS0_7IBinderE
_ZTCN7android8hardware2tv5input4V1_019BnHwTvInputCallbackE0_NS0_9BHwBinderE
_ZTCN7android8hardware2tv5input4V1_019BnHwTvInputCallbackE0_NS_4hidl4base4V1_08BnHwBaseE
_ZTCN7android8hardware2tv5input4V1_019BpHwTvInputCallbackE0_NS0_11BpInterfaceINS3_16ITvInputCallbackEEE
_ZTCN7android8hardware2tv5input4V1_019BpHwTvInputCallbackE0_NS3_16ITvInputCallbackE
_ZTCN7android8hardware2tv5input4V1_019BpHwTvInputCallbackE0_NS_4hidl4base4V1_05IBaseE
_ZTCN7android8hardware2tv5input4V1_019BpHwTvInputCallbackE4_NS0_10IInterfaceE
_ZTCN7android8hardware2tv5input4V1_019BpHwTvInputCallbackE8_NS0_11BpHwRefBaseE
_ZTCN7android8hardware2tv5input4V1_08ITvInputE0_NS_4hidl4base4V1_05IBaseE
_ZTTN7android8hardware2tv5input4V1_011BnHwTvInputE
_ZTTN7android8hardware2tv5input4V1_011BpHwTvInputE
_ZTTN7android8hardware2tv5input4V1_016ITvInputCallbackE
_ZTTN7android8hardware2tv5input4V1_019BnHwTvInputCallbackE
_ZTTN7android8hardware2tv5input4V1_019BpHwTvInputCallbackE
_ZTTN7android8hardware2tv5input4V1_08ITvInputE
_ZTVN7android8hardware2tv5input4V1_011BnHwTvInputE
_ZTVN7android8hardware2tv5input4V1_011BpHwTvInputE
_ZTVN7android8hardware2tv5input4V1_016ITvInputCallbackE
_ZTVN7android8hardware2tv5input4V1_019BnHwTvInputCallbackE
_ZTVN7android8hardware2tv5input4V1_019BpHwTvInputCallbackE
_ZTVN7android8hardware2tv5input4V1_08ITvInputE
_ZThn20_N7android8hardware2tv5input4V1_011BnHwTvInputD0Ev
_ZThn20_N7android8hardware2tv5input4V1_011BnHwTvInputD1Ev
_ZThn20_N7android8hardware2tv5input4V1_019BnHwTvInputCallbackD0Ev
_ZThn20_N7android8hardware2tv5input4V1_019BnHwTvInputCallbackD1Ev
_ZTv0_n12_N7android8hardware2tv5input4V1_011BnHwTvInputD0Ev
_ZTv0_n12_N7android8hardware2tv5input4V1_011BnHwTvInputD1Ev
_ZTv0_n12_N7android8hardware2tv5input4V1_019BnHwTvInputCallbackD0Ev
_ZTv0_n12_N7android8hardware2tv5input4V1_019BnHwTvInputCallbackD1Ev
