_ZN7android8hardware6camera6device4V3_213ICameraDevice10descriptorE
_ZN7android8hardware6camera6device4V3_213ICameraDevice10getServiceERKNSt3__112basic_stringIcNS5_11char_traitsIcEENS5_9allocatorIcEEEEb
_ZN7android8hardware6camera6device4V3_213ICameraDevice11linkToDeathERKNS_2spINS0_20hidl_death_recipientEEEy
_ZN7android8hardware6camera6device4V3_213ICameraDevice12getDebugInfoENSt3__18functionIFvRKNS_4hidl4base4V1_09DebugInfoEEEE
_ZN7android8hardware6camera6device4V3_213ICameraDevice12getHashChainENSt3__18functionIFvRKNS0_8hidl_vecINS0_10hidl_arrayIhLj32EJEEEEEEEE
_ZN7android8hardware6camera6device4V3_213ICameraDevice13tryGetServiceERKNSt3__112basic_stringIcNS5_11char_traitsIcEENS5_9allocatorIcEEEEb
_ZN7android8hardware6camera6device4V3_213ICameraDevice13unlinkToDeathERKNS_2spINS0_20hidl_death_recipientEEE
_ZN7android8hardware6camera6device4V3_213ICameraDevice14interfaceChainENSt3__18functionIFvRKNS0_8hidl_vecINS0_11hidl_stringEEEEEE
_ZN7android8hardware6camera6device4V3_213ICameraDevice17registerAsServiceERKNSt3__112basic_stringIcNS5_11char_traitsIcEENS5_9allocatorIcEEEE
_ZN7android8hardware6camera6device4V3_213ICameraDevice19interfaceDescriptorENSt3__18functionIFvRKNS0_11hidl_stringEEEE
_ZN7android8hardware6camera6device4V3_213ICameraDevice21notifySyspropsChangedEv
_ZN7android8hardware6camera6device4V3_213ICameraDevice21setHALInstrumentationEv
_ZN7android8hardware6camera6device4V3_213ICameraDevice24registerForNotificationsERKNSt3__112basic_stringIcNS5_11char_traitsIcEENS5_9allocatorIcEEEERKNS_2spINS_4hidl7manager4V1_020IServiceNotificationEEE
_ZN7android8hardware6camera6device4V3_213ICameraDevice4pingEv
_ZN7android8hardware6camera6device4V3_213ICameraDevice5debugERKNS0_11hidl_handleERKNS0_8hidl_vecINS0_11hidl_stringEEE
_ZN7android8hardware6camera6device4V3_213ICameraDevice8castFromERKNS_2spINS_4hidl4base4V1_05IBaseEEEb
_ZN7android8hardware6camera6device4V3_213ICameraDevice8castFromERKNS_2spIS4_EEb
_ZN7android8hardware6camera6device4V3_214BsCameraDevice13addOnewayTaskENSt3__18functionIFvvEEE
_ZN7android8hardware6camera6device4V3_214BsCameraDeviceC1ENS_2spINS3_13ICameraDeviceEEE
_ZN7android8hardware6camera6device4V3_214BsCameraDeviceC2ENS_2spINS3_13ICameraDeviceEEE
_ZN7android8hardware6camera6device4V3_216BnHwCameraDevice10_hidl_openEPNS_4hidl4base4V1_08BnHwBaseERKNS0_6ParcelEPSA_NSt3__18functionIFvRSA_EEE
_ZN7android8hardware6camera6device4V3_216BnHwCameraDevice10onTransactEjRKNS0_6ParcelEPS5_jNSt3__18functionIFvRS5_EEE
_ZN7android8hardware6camera6device4V3_216BnHwCameraDevice12getDebugInfoENSt3__18functionIFvRKNS_4hidl4base4V1_09DebugInfoEEEE
_ZN7android8hardware6camera6device4V3_216BnHwCameraDevice15_hidl_dumpStateEPNS_4hidl4base4V1_08BnHwBaseERKNS0_6ParcelEPSA_NSt3__18functionIFvRSA_EEE
_ZN7android8hardware6camera6device4V3_216BnHwCameraDevice18_hidl_setTorchModeEPNS_4hidl4base4V1_08BnHwBaseERKNS0_6ParcelEPSA_NSt3__18functionIFvRSA_EEE
_ZN7android8hardware6camera6device4V3_216BnHwCameraDevice21_hidl_getResourceCostEPNS_4hidl4base4V1_08BnHwBaseERKNS0_6ParcelEPSA_NSt3__18functionIFvRSA_EEE
_ZN7android8hardware6camera6device4V3_216BnHwCameraDevice30_hidl_getCameraCharacteristicsEPNS_4hidl4base4V1_08BnHwBaseERKNS0_6ParcelEPSA_NSt3__18functionIFvRSA_EEE
_ZN7android8hardware6camera6device4V3_216BnHwCameraDevice4pingEv
_ZN7android8hardware6camera6device4V3_216BnHwCameraDeviceC1ERKNS_2spINS3_13ICameraDeviceEEE
_ZN7android8hardware6camera6device4V3_216BnHwCameraDeviceC2ERKNS_2spINS3_13ICameraDeviceEEE
_ZN7android8hardware6camera6device4V3_216BnHwCameraDeviceD0Ev
_ZN7android8hardware6camera6device4V3_216BnHwCameraDeviceD1Ev
_ZN7android8hardware6camera6device4V3_216BnHwCameraDeviceD2Ev
_ZN7android8hardware6camera6device4V3_216BpHwCameraDevice10_hidl_openEPNS0_10IInterfaceEPNS0_7details16HidlInstrumentorERKNS_2spINS3_21ICameraDeviceCallbackEEENSt3__18functionIFvNS1_6common4V1_06StatusERKNSA_INS3_20ICameraDeviceSessionEEEEEE
_ZN7android8hardware6camera6device4V3_216BpHwCameraDevice11linkToDeathERKNS_2spINS0_20hidl_death_recipientEEEy
_ZN7android8hardware6camera6device4V3_216BpHwCameraDevice12getDebugInfoENSt3__18functionIFvRKNS_4hidl4base4V1_09DebugInfoEEEE
_ZN7android8hardware6camera6device4V3_216BpHwCameraDevice12getHashChainENSt3__18functionIFvRKNS0_8hidl_vecINS0_10hidl_arrayIhLj32EJEEEEEEEE
_ZN7android8hardware6camera6device4V3_216BpHwCameraDevice12setTorchModeENS1_6common4V1_09TorchModeE
_ZN7android8hardware6camera6device4V3_216BpHwCameraDevice13unlinkToDeathERKNS_2spINS0_20hidl_death_recipientEEE
_ZN7android8hardware6camera6device4V3_216BpHwCameraDevice14interfaceChainENSt3__18functionIFvRKNS0_8hidl_vecINS0_11hidl_stringEEEEEE
_ZN7android8hardware6camera6device4V3_216BpHwCameraDevice15_hidl_dumpStateEPNS0_10IInterfaceEPNS0_7details16HidlInstrumentorERKNS0_11hidl_handleE
_ZN7android8hardware6camera6device4V3_216BpHwCameraDevice15getResourceCostENSt3__18functionIFvNS1_6common4V1_06StatusERKNS8_18CameraResourceCostEEEE
_ZN7android8hardware6camera6device4V3_216BpHwCameraDevice18_hidl_setTorchModeEPNS0_10IInterfaceEPNS0_7details16HidlInstrumentorENS1_6common4V1_09TorchModeE
_ZN7android8hardware6camera6device4V3_216BpHwCameraDevice19interfaceDescriptorENSt3__18functionIFvRKNS0_11hidl_stringEEEE
_ZN7android8hardware6camera6device4V3_216BpHwCameraDevice21_hidl_getResourceCostEPNS0_10IInterfaceEPNS0_7details16HidlInstrumentorENSt3__18functionIFvNS1_6common4V1_06StatusERKNSD_18CameraResourceCostEEEE
_ZN7android8hardware6camera6device4V3_216BpHwCameraDevice21notifySyspropsChangedEv
_ZN7android8hardware6camera6device4V3_216BpHwCameraDevice21setHALInstrumentationEv
_ZN7android8hardware6camera6device4V3_216BpHwCameraDevice24getCameraCharacteristicsENSt3__18functionIFvNS1_6common4V1_06StatusERKNS0_8hidl_vecIhEEEEE
_ZN7android8hardware6camera6device4V3_216BpHwCameraDevice30_hidl_getCameraCharacteristicsEPNS0_10IInterfaceEPNS0_7details16HidlInstrumentorENSt3__18functionIFvNS1_6common4V1_06StatusERKNS0_8hidl_vecIhEEEEE
_ZN7android8hardware6camera6device4V3_216BpHwCameraDevice4openERKNS_2spINS3_21ICameraDeviceCallbackEEENSt3__18functionIFvNS1_6common4V1_06StatusERKNS5_INS3_20ICameraDeviceSessionEEEEEE
_ZN7android8hardware6camera6device4V3_216BpHwCameraDevice4pingEv
_ZN7android8hardware6camera6device4V3_216BpHwCameraDevice5debugERKNS0_11hidl_handleERKNS0_8hidl_vecINS0_11hidl_stringEEE
_ZN7android8hardware6camera6device4V3_216BpHwCameraDevice9dumpStateERKNS0_11hidl_handleE
_ZN7android8hardware6camera6device4V3_216BpHwCameraDeviceC1ERKNS_2spINS0_7IBinderEEE
_ZN7android8hardware6camera6device4V3_216BpHwCameraDeviceC2ERKNS_2spINS0_7IBinderEEE
_ZN7android8hardware6camera6device4V3_220ICameraDeviceSession10descriptorE
_ZN7android8hardware6camera6device4V3_220ICameraDeviceSession10getServiceERKNSt3__112basic_stringIcNS5_11char_traitsIcEENS5_9allocatorIcEEEEb
_ZN7android8hardware6camera6device4V3_220ICameraDeviceSession11linkToDeathERKNS_2spINS0_20hidl_death_recipientEEEy
_ZN7android8hardware6camera6device4V3_220ICameraDeviceSession12getDebugInfoENSt3__18functionIFvRKNS_4hidl4base4V1_09DebugInfoEEEE
_ZN7android8hardware6camera6device4V3_220ICameraDeviceSession12getHashChainENSt3__18functionIFvRKNS0_8hidl_vecINS0_10hidl_arrayIhLj32EJEEEEEEEE
_ZN7android8hardware6camera6device4V3_220ICameraDeviceSession13tryGetServiceERKNSt3__112basic_stringIcNS5_11char_traitsIcEENS5_9allocatorIcEEEEb
_ZN7android8hardware6camera6device4V3_220ICameraDeviceSession13unlinkToDeathERKNS_2spINS0_20hidl_death_recipientEEE
_ZN7android8hardware6camera6device4V3_220ICameraDeviceSession14interfaceChainENSt3__18functionIFvRKNS0_8hidl_vecINS0_11hidl_stringEEEEEE
_ZN7android8hardware6camera6device4V3_220ICameraDeviceSession17registerAsServiceERKNSt3__112basic_stringIcNS5_11char_traitsIcEENS5_9allocatorIcEEEE
_ZN7android8hardware6camera6device4V3_220ICameraDeviceSession19interfaceDescriptorENSt3__18functionIFvRKNS0_11hidl_stringEEEE
_ZN7android8hardware6camera6device4V3_220ICameraDeviceSession21notifySyspropsChangedEv
_ZN7android8hardware6camera6device4V3_220ICameraDeviceSession21setHALInstrumentationEv
_ZN7android8hardware6camera6device4V3_220ICameraDeviceSession24registerForNotificationsERKNSt3__112basic_stringIcNS5_11char_traitsIcEENS5_9allocatorIcEEEERKNS_2spINS_4hidl7manager4V1_020IServiceNotificationEEE
_ZN7android8hardware6camera6device4V3_220ICameraDeviceSession4pingEv
_ZN7android8hardware6camera6device4V3_220ICameraDeviceSession5debugERKNS0_11hidl_handleERKNS0_8hidl_vecINS0_11hidl_stringEEE
_ZN7android8hardware6camera6device4V3_220ICameraDeviceSession8castFromERKNS_2spINS_4hidl4base4V1_05IBaseEEEb
_ZN7android8hardware6camera6device4V3_220ICameraDeviceSession8castFromERKNS_2spIS4_EEb
_ZN7android8hardware6camera6device4V3_221BsCameraDeviceSession13addOnewayTaskENSt3__18functionIFvvEEE
_ZN7android8hardware6camera6device4V3_221BsCameraDeviceSessionC1ENS_2spINS3_20ICameraDeviceSessionEEE
_ZN7android8hardware6camera6device4V3_221BsCameraDeviceSessionC2ENS_2spINS3_20ICameraDeviceSessionEEE
_ZN7android8hardware6camera6device4V3_221ICameraDeviceCallback10descriptorE
_ZN7android8hardware6camera6device4V3_221ICameraDeviceCallback10getServiceERKNSt3__112basic_stringIcNS5_11char_traitsIcEENS5_9allocatorIcEEEEb
_ZN7android8hardware6camera6device4V3_221ICameraDeviceCallback11linkToDeathERKNS_2spINS0_20hidl_death_recipientEEEy
_ZN7android8hardware6camera6device4V3_221ICameraDeviceCallback12getDebugInfoENSt3__18functionIFvRKNS_4hidl4base4V1_09DebugInfoEEEE
_ZN7android8hardware6camera6device4V3_221ICameraDeviceCallback12getHashChainENSt3__18functionIFvRKNS0_8hidl_vecINS0_10hidl_arrayIhLj32EJEEEEEEEE
_ZN7android8hardware6camera6device4V3_221ICameraDeviceCallback13tryGetServiceERKNSt3__112basic_stringIcNS5_11char_traitsIcEENS5_9allocatorIcEEEEb
_ZN7android8hardware6camera6device4V3_221ICameraDeviceCallback13unlinkToDeathERKNS_2spINS0_20hidl_death_recipientEEE
_ZN7android8hardware6camera6device4V3_221ICameraDeviceCallback14interfaceChainENSt3__18functionIFvRKNS0_8hidl_vecINS0_11hidl_stringEEEEEE
_ZN7android8hardware6camera6device4V3_221ICameraDeviceCallback17registerAsServiceERKNSt3__112basic_stringIcNS5_11char_traitsIcEENS5_9allocatorIcEEEE
_ZN7android8hardware6camera6device4V3_221ICameraDeviceCallback19interfaceDescriptorENSt3__18functionIFvRKNS0_11hidl_stringEEEE
_ZN7android8hardware6camera6device4V3_221ICameraDeviceCallback21notifySyspropsChangedEv
_ZN7android8hardware6camera6device4V3_221ICameraDeviceCallback21setHALInstrumentationEv
_ZN7android8hardware6camera6device4V3_221ICameraDeviceCallback24registerForNotificationsERKNSt3__112basic_stringIcNS5_11char_traitsIcEENS5_9allocatorIcEEEERKNS_2spINS_4hidl7manager4V1_020IServiceNotificationEEE
_ZN7android8hardware6camera6device4V3_221ICameraDeviceCallback4pingEv
_ZN7android8hardware6camera6device4V3_221ICameraDeviceCallback5debugERKNS0_11hidl_handleERKNS0_8hidl_vecINS0_11hidl_stringEEE
_ZN7android8hardware6camera6device4V3_221ICameraDeviceCallback8castFromERKNS_2spINS_4hidl4base4V1_05IBaseEEEb
_ZN7android8hardware6camera6device4V3_221ICameraDeviceCallback8castFromERKNS_2spIS4_EEb
_ZN7android8hardware6camera6device4V3_221writeEmbeddedToParcelERKNS3_12StreamBufferEPNS0_6ParcelEjj
_ZN7android8hardware6camera6device4V3_221writeEmbeddedToParcelERKNS3_13CaptureResultEPNS0_6ParcelEjj
_ZN7android8hardware6camera6device4V3_221writeEmbeddedToParcelERKNS3_14CaptureRequestEPNS0_6ParcelEjj
_ZN7android8hardware6camera6device4V3_221writeEmbeddedToParcelERKNS3_19StreamConfigurationEPNS0_6ParcelEjj
_ZN7android8hardware6camera6device4V3_221writeEmbeddedToParcelERKNS3_22HalStreamConfigurationEPNS0_6ParcelEjj
_ZN7android8hardware6camera6device4V3_222BsCameraDeviceCallback13addOnewayTaskENSt3__18functionIFvvEEE
_ZN7android8hardware6camera6device4V3_222BsCameraDeviceCallbackC1ENS_2spINS3_21ICameraDeviceCallbackEEE
_ZN7android8hardware6camera6device4V3_222BsCameraDeviceCallbackC2ENS_2spINS3_21ICameraDeviceCallbackEEE
_ZN7android8hardware6camera6device4V3_222readEmbeddedFromParcelERKNS3_12StreamBufferERKNS0_6ParcelEjj
_ZN7android8hardware6camera6device4V3_222readEmbeddedFromParcelERKNS3_13CaptureResultERKNS0_6ParcelEjj
_ZN7android8hardware6camera6device4V3_222readEmbeddedFromParcelERKNS3_14CaptureRequestERKNS0_6ParcelEjj
_ZN7android8hardware6camera6device4V3_222readEmbeddedFromParcelERKNS3_19StreamConfigurationERKNS0_6ParcelEjj
_ZN7android8hardware6camera6device4V3_222readEmbeddedFromParcelERKNS3_22HalStreamConfigurationERKNS0_6ParcelEjj
_ZN7android8hardware6camera6device4V3_223BnHwCameraDeviceSession10onTransactEjRKNS0_6ParcelEPS5_jNSt3__18functionIFvRS5_EEE
_ZN7android8hardware6camera6device4V3_223BnHwCameraDeviceSession11_hidl_closeEPNS_4hidl4base4V1_08BnHwBaseERKNS0_6ParcelEPSA_NSt3__18functionIFvRSA_EEE
_ZN7android8hardware6camera6device4V3_223BnHwCameraDeviceSession11_hidl_flushEPNS_4hidl4base4V1_08BnHwBaseERKNS0_6ParcelEPSA_NSt3__18functionIFvRSA_EEE
_ZN7android8hardware6camera6device4V3_223BnHwCameraDeviceSession12getDebugInfoENSt3__18functionIFvRKNS_4hidl4base4V1_09DebugInfoEEEE
_ZN7android8hardware6camera6device4V3_223BnHwCameraDeviceSession22_hidl_configureStreamsEPNS_4hidl4base4V1_08BnHwBaseERKNS0_6ParcelEPSA_NSt3__18functionIFvRSA_EEE
_ZN7android8hardware6camera6device4V3_223BnHwCameraDeviceSession27_hidl_processCaptureRequestEPNS_4hidl4base4V1_08BnHwBaseERKNS0_6ParcelEPSA_NSt3__18functionIFvRSA_EEE
_ZN7android8hardware6camera6device4V3_223BnHwCameraDeviceSession35_hidl_getCaptureResultMetadataQueueEPNS_4hidl4base4V1_08BnHwBaseERKNS0_6ParcelEPSA_NSt3__18functionIFvRSA_EEE
_ZN7android8hardware6camera6device4V3_223BnHwCameraDeviceSession36_hidl_getCaptureRequestMetadataQueueEPNS_4hidl4base4V1_08BnHwBaseERKNS0_6ParcelEPSA_NSt3__18functionIFvRSA_EEE
_ZN7android8hardware6camera6device4V3_223BnHwCameraDeviceSession37_hidl_constructDefaultRequestSettingsEPNS_4hidl4base4V1_08BnHwBaseERKNS0_6ParcelEPSA_NSt3__18functionIFvRSA_EEE
_ZN7android8hardware6camera6device4V3_223BnHwCameraDeviceSession4pingEv
_ZN7android8hardware6camera6device4V3_223BnHwCameraDeviceSessionC1ERKNS_2spINS3_20ICameraDeviceSessionEEE
_ZN7android8hardware6camera6device4V3_223BnHwCameraDeviceSessionC2ERKNS_2spINS3_20ICameraDeviceSessionEEE
_ZN7android8hardware6camera6device4V3_223BnHwCameraDeviceSessionD0Ev
_ZN7android8hardware6camera6device4V3_223BnHwCameraDeviceSessionD1Ev
_ZN7android8hardware6camera6device4V3_223BnHwCameraDeviceSessionD2Ev
_ZN7android8hardware6camera6device4V3_223BpHwCameraDeviceSession11_hidl_closeEPNS0_10IInterfaceEPNS0_7details16HidlInstrumentorE
_ZN7android8hardware6camera6device4V3_223BpHwCameraDeviceSession11_hidl_flushEPNS0_10IInterfaceEPNS0_7details16HidlInstrumentorE
_ZN7android8hardware6camera6device4V3_223BpHwCameraDeviceSession11linkToDeathERKNS_2spINS0_20hidl_death_recipientEEEy
_ZN7android8hardware6camera6device4V3_223BpHwCameraDeviceSession12getDebugInfoENSt3__18functionIFvRKNS_4hidl4base4V1_09DebugInfoEEEE
_ZN7android8hardware6camera6device4V3_223BpHwCameraDeviceSession12getHashChainENSt3__18functionIFvRKNS0_8hidl_vecINS0_10hidl_arrayIhLj32EJEEEEEEEE
_ZN7android8hardware6camera6device4V3_223BpHwCameraDeviceSession13unlinkToDeathERKNS_2spINS0_20hidl_death_recipientEEE
_ZN7android8hardware6camera6device4V3_223BpHwCameraDeviceSession14interfaceChainENSt3__18functionIFvRKNS0_8hidl_vecINS0_11hidl_stringEEEEEE
_ZN7android8hardware6camera6device4V3_223BpHwCameraDeviceSession16configureStreamsERKNS3_19StreamConfigurationENSt3__18functionIFvNS1_6common4V1_06StatusERKNS3_22HalStreamConfigurationEEEE
_ZN7android8hardware6camera6device4V3_223BpHwCameraDeviceSession19interfaceDescriptorENSt3__18functionIFvRKNS0_11hidl_stringEEEE
_ZN7android8hardware6camera6device4V3_223BpHwCameraDeviceSession21notifySyspropsChangedEv
_ZN7android8hardware6camera6device4V3_223BpHwCameraDeviceSession21processCaptureRequestERKNS0_8hidl_vecINS3_14CaptureRequestEEERKNS5_INS3_11BufferCacheEEENSt3__18functionIFvNS1_6common4V1_06StatusEjEEE
_ZN7android8hardware6camera6device4V3_223BpHwCameraDeviceSession21setHALInstrumentationEv
_ZN7android8hardware6camera6device4V3_223BpHwCameraDeviceSession22_hidl_configureStreamsEPNS0_10IInterfaceEPNS0_7details16HidlInstrumentorERKNS3_19StreamConfigurationENSt3__18functionIFvNS1_6common4V1_06StatusERKNS3_22HalStreamConfigurationEEEE
_ZN7android8hardware6camera6device4V3_223BpHwCameraDeviceSession27_hidl_processCaptureRequestEPNS0_10IInterfaceEPNS0_7details16HidlInstrumentorERKNS0_8hidl_vecINS3_14CaptureRequestEEERKNSA_INS3_11BufferCacheEEENSt3__18functionIFvNS1_6common4V1_06StatusEjEEE
_ZN7android8hardware6camera6device4V3_223BpHwCameraDeviceSession29getCaptureResultMetadataQueueENSt3__18functionIFvRKNS0_12MQDescriptorIhLNS0_8MQFlavorE1EEEEEE
_ZN7android8hardware6camera6device4V3_223BpHwCameraDeviceSession30getCaptureRequestMetadataQueueENSt3__18functionIFvRKNS0_12MQDescriptorIhLNS0_8MQFlavorE1EEEEEE
_ZN7android8hardware6camera6device4V3_223BpHwCameraDeviceSession31constructDefaultRequestSettingsENS3_15RequestTemplateENSt3__18functionIFvNS1_6common4V1_06StatusERKNS0_8hidl_vecIhEEEEE
_ZN7android8hardware6camera6device4V3_223BpHwCameraDeviceSession35_hidl_getCaptureResultMetadataQueueEPNS0_10IInterfaceEPNS0_7details16HidlInstrumentorENSt3__18functionIFvRKNS0_12MQDescriptorIhLNS0_8MQFlavorE1EEEEEE
_ZN7android8hardware6camera6device4V3_223BpHwCameraDeviceSession36_hidl_getCaptureRequestMetadataQueueEPNS0_10IInterfaceEPNS0_7details16HidlInstrumentorENSt3__18functionIFvRKNS0_12MQDescriptorIhLNS0_8MQFlavorE1EEEEEE
_ZN7android8hardware6camera6device4V3_223BpHwCameraDeviceSession37_hidl_constructDefaultRequestSettingsEPNS0_10IInterfaceEPNS0_7details16HidlInstrumentorENS3_15RequestTemplateENSt3__18functionIFvNS1_6common4V1_06StatusERKNS0_8hidl_vecIhEEEEE
_ZN7android8hardware6camera6device4V3_223BpHwCameraDeviceSession4pingEv
_ZN7android8hardware6camera6device4V3_223BpHwCameraDeviceSession5closeEv
_ZN7android8hardware6camera6device4V3_223BpHwCameraDeviceSession5debugERKNS0_11hidl_handleERKNS0_8hidl_vecINS0_11hidl_stringEEE
_ZN7android8hardware6camera6device4V3_223BpHwCameraDeviceSession5flushEv
_ZN7android8hardware6camera6device4V3_223BpHwCameraDeviceSessionC1ERKNS_2spINS0_7IBinderEEE
_ZN7android8hardware6camera6device4V3_223BpHwCameraDeviceSessionC2ERKNS_2spINS0_7IBinderEEE
_ZN7android8hardware6camera6device4V3_224BnHwCameraDeviceCallback10onTransactEjRKNS0_6ParcelEPS5_jNSt3__18functionIFvRS5_EEE
_ZN7android8hardware6camera6device4V3_224BnHwCameraDeviceCallback12_hidl_notifyEPNS_4hidl4base4V1_08BnHwBaseERKNS0_6ParcelEPSA_NSt3__18functionIFvRSA_EEE
_ZN7android8hardware6camera6device4V3_224BnHwCameraDeviceCallback12getDebugInfoENSt3__18functionIFvRKNS_4hidl4base4V1_09DebugInfoEEEE
_ZN7android8hardware6camera6device4V3_224BnHwCameraDeviceCallback26_hidl_processCaptureResultEPNS_4hidl4base4V1_08BnHwBaseERKNS0_6ParcelEPSA_NSt3__18functionIFvRSA_EEE
_ZN7android8hardware6camera6device4V3_224BnHwCameraDeviceCallback4pingEv
_ZN7android8hardware6camera6device4V3_224BnHwCameraDeviceCallbackC1ERKNS_2spINS3_21ICameraDeviceCallbackEEE
_ZN7android8hardware6camera6device4V3_224BnHwCameraDeviceCallbackC2ERKNS_2spINS3_21ICameraDeviceCallbackEEE
_ZN7android8hardware6camera6device4V3_224BnHwCameraDeviceCallbackD0Ev
_ZN7android8hardware6camera6device4V3_224BnHwCameraDeviceCallbackD1Ev
_ZN7android8hardware6camera6device4V3_224BnHwCameraDeviceCallbackD2Ev
_ZN7android8hardware6camera6device4V3_224BpHwCameraDeviceCallback11linkToDeathERKNS_2spINS0_20hidl_death_recipientEEEy
_ZN7android8hardware6camera6device4V3_224BpHwCameraDeviceCallback12_hidl_notifyEPNS0_10IInterfaceEPNS0_7details16HidlInstrumentorERKNS0_8hidl_vecINS3_9NotifyMsgEEE
_ZN7android8hardware6camera6device4V3_224BpHwCameraDeviceCallback12getDebugInfoENSt3__18functionIFvRKNS_4hidl4base4V1_09DebugInfoEEEE
_ZN7android8hardware6camera6device4V3_224BpHwCameraDeviceCallback12getHashChainENSt3__18functionIFvRKNS0_8hidl_vecINS0_10hidl_arrayIhLj32EJEEEEEEEE
_ZN7android8hardware6camera6device4V3_224BpHwCameraDeviceCallback13unlinkToDeathERKNS_2spINS0_20hidl_death_recipientEEE
_ZN7android8hardware6camera6device4V3_224BpHwCameraDeviceCallback14interfaceChainENSt3__18functionIFvRKNS0_8hidl_vecINS0_11hidl_stringEEEEEE
_ZN7android8hardware6camera6device4V3_224BpHwCameraDeviceCallback19interfaceDescriptorENSt3__18functionIFvRKNS0_11hidl_stringEEEE
_ZN7android8hardware6camera6device4V3_224BpHwCameraDeviceCallback20processCaptureResultERKNS0_8hidl_vecINS3_13CaptureResultEEE
_ZN7android8hardware6camera6device4V3_224BpHwCameraDeviceCallback21notifySyspropsChangedEv
_ZN7android8hardware6camera6device4V3_224BpHwCameraDeviceCallback21setHALInstrumentationEv
_ZN7android8hardware6camera6device4V3_224BpHwCameraDeviceCallback26_hidl_processCaptureResultEPNS0_10IInterfaceEPNS0_7details16HidlInstrumentorERKNS0_8hidl_vecINS3_13CaptureResultEEE
_ZN7android8hardware6camera6device4V3_224BpHwCameraDeviceCallback4pingEv
_ZN7android8hardware6camera6device4V3_224BpHwCameraDeviceCallback5debugERKNS0_11hidl_handleERKNS0_8hidl_vecINS0_11hidl_stringEEE
_ZN7android8hardware6camera6device4V3_224BpHwCameraDeviceCallback6notifyERKNS0_8hidl_vecINS3_9NotifyMsgEEE
_ZN7android8hardware6camera6device4V3_224BpHwCameraDeviceCallbackC1ERKNS_2spINS0_7IBinderEEE
_ZN7android8hardware6camera6device4V3_224BpHwCameraDeviceCallbackC2ERKNS_2spINS0_7IBinderEEE
_ZTCN7android8hardware6camera6device4V3_213ICameraDeviceE0_NS_4hidl4base4V1_05IBaseE
_ZTCN7android8hardware6camera6device4V3_216BnHwCameraDeviceE0_NS0_7IBinderE
_ZTCN7android8hardware6camera6device4V3_216BnHwCameraDeviceE0_NS0_9BHwBinderE
_ZTCN7android8hardware6camera6device4V3_216BnHwCameraDeviceE0_NS_4hidl4base4V1_08BnHwBaseE
_ZTCN7android8hardware6camera6device4V3_216BpHwCameraDeviceE0_NS0_11BpInterfaceINS3_13ICameraDeviceEEE
_ZTCN7android8hardware6camera6device4V3_216BpHwCameraDeviceE0_NS3_13ICameraDeviceE
_ZTCN7android8hardware6camera6device4V3_216BpHwCameraDeviceE0_NS_4hidl4base4V1_05IBaseE
_ZTCN7android8hardware6camera6device4V3_216BpHwCameraDeviceE4_NS0_10IInterfaceE
_ZTCN7android8hardware6camera6device4V3_216BpHwCameraDeviceE8_NS0_11BpHwRefBaseE
_ZTCN7android8hardware6camera6device4V3_220ICameraDeviceSessionE0_NS_4hidl4base4V1_05IBaseE
_ZTCN7android8hardware6camera6device4V3_221ICameraDeviceCallbackE0_NS_4hidl4base4V1_05IBaseE
_ZTCN7android8hardware6camera6device4V3_223BnHwCameraDeviceSessionE0_NS0_7IBinderE
_ZTCN7android8hardware6camera6device4V3_223BnHwCameraDeviceSessionE0_NS0_9BHwBinderE
_ZTCN7android8hardware6camera6device4V3_223BnHwCameraDeviceSessionE0_NS_4hidl4base4V1_08BnHwBaseE
_ZTCN7android8hardware6camera6device4V3_223BpHwCameraDeviceSessionE0_NS0_11BpInterfaceINS3_20ICameraDeviceSessionEEE
_ZTCN7android8hardware6camera6device4V3_223BpHwCameraDeviceSessionE0_NS3_20ICameraDeviceSessionE
_ZTCN7android8hardware6camera6device4V3_223BpHwCameraDeviceSessionE0_NS_4hidl4base4V1_05IBaseE
_ZTCN7android8hardware6camera6device4V3_223BpHwCameraDeviceSessionE4_NS0_10IInterfaceE
_ZTCN7android8hardware6camera6device4V3_223BpHwCameraDeviceSessionE8_NS0_11BpHwRefBaseE
_ZTCN7android8hardware6camera6device4V3_224BnHwCameraDeviceCallbackE0_NS0_7IBinderE
_ZTCN7android8hardware6camera6device4V3_224BnHwCameraDeviceCallbackE0_NS0_9BHwBinderE
_ZTCN7android8hardware6camera6device4V3_224BnHwCameraDeviceCallbackE0_NS_4hidl4base4V1_08BnHwBaseE
_ZTCN7android8hardware6camera6device4V3_224BpHwCameraDeviceCallbackE0_NS0_11BpInterfaceINS3_21ICameraDeviceCallbackEEE
_ZTCN7android8hardware6camera6device4V3_224BpHwCameraDeviceCallbackE0_NS3_21ICameraDeviceCallbackE
_ZTCN7android8hardware6camera6device4V3_224BpHwCameraDeviceCallbackE0_NS_4hidl4base4V1_05IBaseE
_ZTCN7android8hardware6camera6device4V3_224BpHwCameraDeviceCallbackE4_NS0_10IInterfaceE
_ZTCN7android8hardware6camera6device4V3_224BpHwCameraDeviceCallbackE8_NS0_11BpHwRefBaseE
_ZTTN7android8hardware6camera6device4V3_213ICameraDeviceE
_ZTTN7android8hardware6camera6device4V3_216BnHwCameraDeviceE
_ZTTN7android8hardware6camera6device4V3_216BpHwCameraDeviceE
_ZTTN7android8hardware6camera6device4V3_220ICameraDeviceSessionE
_ZTTN7android8hardware6camera6device4V3_221ICameraDeviceCallbackE
_ZTTN7android8hardware6camera6device4V3_223BnHwCameraDeviceSessionE
_ZTTN7android8hardware6camera6device4V3_223BpHwCameraDeviceSessionE
_ZTTN7android8hardware6camera6device4V3_224BnHwCameraDeviceCallbackE
_ZTTN7android8hardware6camera6device4V3_224BpHwCameraDeviceCallbackE
_ZTVN7android8hardware6camera6device4V3_213ICameraDeviceE
_ZTVN7android8hardware6camera6device4V3_216BnHwCameraDeviceE
_ZTVN7android8hardware6camera6device4V3_216BpHwCameraDeviceE
_ZTVN7android8hardware6camera6device4V3_220ICameraDeviceSessionE
_ZTVN7android8hardware6camera6device4V3_221ICameraDeviceCallbackE
_ZTVN7android8hardware6camera6device4V3_223BnHwCameraDeviceSessionE
_ZTVN7android8hardware6camera6device4V3_223BpHwCameraDeviceSessionE
_ZTVN7android8hardware6camera6device4V3_224BnHwCameraDeviceCallbackE
_ZTVN7android8hardware6camera6device4V3_224BpHwCameraDeviceCallbackE
_ZThn20_N7android8hardware6camera6device4V3_216BnHwCameraDeviceD0Ev
_ZThn20_N7android8hardware6camera6device4V3_216BnHwCameraDeviceD1Ev
_ZThn20_N7android8hardware6camera6device4V3_223BnHwCameraDeviceSessionD0Ev
_ZThn20_N7android8hardware6camera6device4V3_223BnHwCameraDeviceSessionD1Ev
_ZThn20_N7android8hardware6camera6device4V3_224BnHwCameraDeviceCallbackD0Ev
_ZThn20_N7android8hardware6camera6device4V3_224BnHwCameraDeviceCallbackD1Ev
_ZTv0_n12_N7android8hardware6camera6device4V3_216BnHwCameraDeviceD0Ev
_ZTv0_n12_N7android8hardware6camera6device4V3_216BnHwCameraDeviceD1Ev
_ZTv0_n12_N7android8hardware6camera6device4V3_223BnHwCameraDeviceSessionD0Ev
_ZTv0_n12_N7android8hardware6camera6device4V3_223BnHwCameraDeviceSessionD1Ev
_ZTv0_n12_N7android8hardware6camera6device4V3_224BnHwCameraDeviceCallbackD0Ev
_ZTv0_n12_N7android8hardware6camera6device4V3_224BnHwCameraDeviceCallbackD1Ev
