_ZN7android8hardware10biometrics11fingerprint4V2_122IBiometricsFingerprint10descriptorE
_ZN7android8hardware10biometrics11fingerprint4V2_122IBiometricsFingerprint10getServiceERKNSt3__112basic_stringIcNS5_11char_traitsIcEENS5_9allocatorIcEEEEb
_ZN7android8hardware10biometrics11fingerprint4V2_122IBiometricsFingerprint11linkToDeathERKNS_2spINS0_20hidl_death_recipientEEEy
_ZN7android8hardware10biometrics11fingerprint4V2_122IBiometricsFingerprint12getDebugInfoENSt3__18functionIFvRKNS_4hidl4base4V1_09DebugInfoEEEE
_ZN7android8hardware10biometrics11fingerprint4V2_122IBiometricsFingerprint12getHashChainENSt3__18functionIFvRKNS0_8hidl_vecINS0_10hidl_arrayIhLj32EJEEEEEEEE
_ZN7android8hardware10biometrics11fingerprint4V2_122IBiometricsFingerprint13tryGetServiceERKNSt3__112basic_stringIcNS5_11char_traitsIcEENS5_9allocatorIcEEEEb
_ZN7android8hardware10biometrics11fingerprint4V2_122IBiometricsFingerprint13unlinkToDeathERKNS_2spINS0_20hidl_death_recipientEEE
_ZN7android8hardware10biometrics11fingerprint4V2_122IBiometricsFingerprint14interfaceChainENSt3__18functionIFvRKNS0_8hidl_vecINS0_11hidl_stringEEEEEE
_ZN7android8hardware10biometrics11fingerprint4V2_122IBiometricsFingerprint17registerAsServiceERKNSt3__112basic_stringIcNS5_11char_traitsIcEENS5_9allocatorIcEEEE
_ZN7android8hardware10biometrics11fingerprint4V2_122IBiometricsFingerprint19interfaceDescriptorENSt3__18functionIFvRKNS0_11hidl_stringEEEE
_ZN7android8hardware10biometrics11fingerprint4V2_122IBiometricsFingerprint21notifySyspropsChangedEv
_ZN7android8hardware10biometrics11fingerprint4V2_122IBiometricsFingerprint21setHALInstrumentationEv
_ZN7android8hardware10biometrics11fingerprint4V2_122IBiometricsFingerprint24registerForNotificationsERKNSt3__112basic_stringIcNS5_11char_traitsIcEENS5_9allocatorIcEEEERKNS_2spINS_4hidl7manager4V1_020IServiceNotificationEEE
_ZN7android8hardware10biometrics11fingerprint4V2_122IBiometricsFingerprint4pingEv
_ZN7android8hardware10biometrics11fingerprint4V2_122IBiometricsFingerprint5debugERKNS0_11hidl_handleERKNS0_8hidl_vecINS0_11hidl_stringEEE
_ZN7android8hardware10biometrics11fingerprint4V2_122IBiometricsFingerprint8castFromERKNS_2spINS_4hidl4base4V1_05IBaseEEEb
_ZN7android8hardware10biometrics11fingerprint4V2_122IBiometricsFingerprint8castFromERKNS_2spIS4_EEb
_ZN7android8hardware10biometrics11fingerprint4V2_123BsBiometricsFingerprint13addOnewayTaskENSt3__18functionIFvvEEE
_ZN7android8hardware10biometrics11fingerprint4V2_123BsBiometricsFingerprintC1ENS_2spINS3_22IBiometricsFingerprintEEE
_ZN7android8hardware10biometrics11fingerprint4V2_123BsBiometricsFingerprintC2ENS_2spINS3_22IBiometricsFingerprintEEE
_ZN7android8hardware10biometrics11fingerprint4V2_125BnHwBiometricsFingerprint10onTransactEjRKNS0_6ParcelEPS5_jNSt3__18functionIFvRS5_EEE
_ZN7android8hardware10biometrics11fingerprint4V2_125BnHwBiometricsFingerprint12_hidl_cancelEPNS_4hidl4base4V1_08BnHwBaseERKNS0_6ParcelEPSA_NSt3__18functionIFvRSA_EEE
_ZN7android8hardware10biometrics11fingerprint4V2_125BnHwBiometricsFingerprint12_hidl_enrollEPNS_4hidl4base4V1_08BnHwBaseERKNS0_6ParcelEPSA_NSt3__18functionIFvRSA_EEE
_ZN7android8hardware10biometrics11fingerprint4V2_125BnHwBiometricsFingerprint12_hidl_removeEPNS_4hidl4base4V1_08BnHwBaseERKNS0_6ParcelEPSA_NSt3__18functionIFvRSA_EEE
_ZN7android8hardware10biometrics11fingerprint4V2_125BnHwBiometricsFingerprint12getDebugInfoENSt3__18functionIFvRKNS_4hidl4base4V1_09DebugInfoEEEE
_ZN7android8hardware10biometrics11fingerprint4V2_125BnHwBiometricsFingerprint15_hidl_enumerateEPNS_4hidl4base4V1_08BnHwBaseERKNS0_6ParcelEPSA_NSt3__18functionIFvRSA_EEE
_ZN7android8hardware10biometrics11fingerprint4V2_125BnHwBiometricsFingerprint15_hidl_preEnrollEPNS_4hidl4base4V1_08BnHwBaseERKNS0_6ParcelEPSA_NSt3__18functionIFvRSA_EEE
_ZN7android8hardware10biometrics11fingerprint4V2_125BnHwBiometricsFingerprint15_hidl_setNotifyEPNS_4hidl4base4V1_08BnHwBaseERKNS0_6ParcelEPSA_NSt3__18functionIFvRSA_EEE
_ZN7android8hardware10biometrics11fingerprint4V2_125BnHwBiometricsFingerprint16_hidl_postEnrollEPNS_4hidl4base4V1_08BnHwBaseERKNS0_6ParcelEPSA_NSt3__18functionIFvRSA_EEE
_ZN7android8hardware10biometrics11fingerprint4V2_125BnHwBiometricsFingerprint18_hidl_authenticateEPNS_4hidl4base4V1_08BnHwBaseERKNS0_6ParcelEPSA_NSt3__18functionIFvRSA_EEE
_ZN7android8hardware10biometrics11fingerprint4V2_125BnHwBiometricsFingerprint20_hidl_setActiveGroupEPNS_4hidl4base4V1_08BnHwBaseERKNS0_6ParcelEPSA_NSt3__18functionIFvRSA_EEE
_ZN7android8hardware10biometrics11fingerprint4V2_125BnHwBiometricsFingerprint24_hidl_getAuthenticatorIdEPNS_4hidl4base4V1_08BnHwBaseERKNS0_6ParcelEPSA_NSt3__18functionIFvRSA_EEE
_ZN7android8hardware10biometrics11fingerprint4V2_125BnHwBiometricsFingerprint4pingEv
_ZN7android8hardware10biometrics11fingerprint4V2_125BnHwBiometricsFingerprintC1ERKNS_2spINS3_22IBiometricsFingerprintEEE
_ZN7android8hardware10biometrics11fingerprint4V2_125BnHwBiometricsFingerprintC2ERKNS_2spINS3_22IBiometricsFingerprintEEE
_ZN7android8hardware10biometrics11fingerprint4V2_125BnHwBiometricsFingerprintD0Ev
_ZN7android8hardware10biometrics11fingerprint4V2_125BnHwBiometricsFingerprintD1Ev
_ZN7android8hardware10biometrics11fingerprint4V2_125BnHwBiometricsFingerprintD2Ev
_ZN7android8hardware10biometrics11fingerprint4V2_125BpHwBiometricsFingerprint10postEnrollEv
_ZN7android8hardware10biometrics11fingerprint4V2_125BpHwBiometricsFingerprint11linkToDeathERKNS_2spINS0_20hidl_death_recipientEEEy
_ZN7android8hardware10biometrics11fingerprint4V2_125BpHwBiometricsFingerprint12_hidl_cancelEPNS0_10IInterfaceEPNS0_7details16HidlInstrumentorE
_ZN7android8hardware10biometrics11fingerprint4V2_125BpHwBiometricsFingerprint12_hidl_enrollEPNS0_10IInterfaceEPNS0_7details16HidlInstrumentorERKNS0_10hidl_arrayIhLj69EJEEEjj
_ZN7android8hardware10biometrics11fingerprint4V2_125BpHwBiometricsFingerprint12_hidl_removeEPNS0_10IInterfaceEPNS0_7details16HidlInstrumentorEjj
_ZN7android8hardware10biometrics11fingerprint4V2_125BpHwBiometricsFingerprint12authenticateEyj
_ZN7android8hardware10biometrics11fingerprint4V2_125BpHwBiometricsFingerprint12getDebugInfoENSt3__18functionIFvRKNS_4hidl4base4V1_09DebugInfoEEEE
_ZN7android8hardware10biometrics11fingerprint4V2_125BpHwBiometricsFingerprint12getHashChainENSt3__18functionIFvRKNS0_8hidl_vecINS0_10hidl_arrayIhLj32EJEEEEEEEE
_ZN7android8hardware10biometrics11fingerprint4V2_125BpHwBiometricsFingerprint13unlinkToDeathERKNS_2spINS0_20hidl_death_recipientEEE
_ZN7android8hardware10biometrics11fingerprint4V2_125BpHwBiometricsFingerprint14interfaceChainENSt3__18functionIFvRKNS0_8hidl_vecINS0_11hidl_stringEEEEEE
_ZN7android8hardware10biometrics11fingerprint4V2_125BpHwBiometricsFingerprint14setActiveGroupEjRKNS0_11hidl_stringE
_ZN7android8hardware10biometrics11fingerprint4V2_125BpHwBiometricsFingerprint15_hidl_enumerateEPNS0_10IInterfaceEPNS0_7details16HidlInstrumentorE
_ZN7android8hardware10biometrics11fingerprint4V2_125BpHwBiometricsFingerprint15_hidl_preEnrollEPNS0_10IInterfaceEPNS0_7details16HidlInstrumentorE
_ZN7android8hardware10biometrics11fingerprint4V2_125BpHwBiometricsFingerprint15_hidl_setNotifyEPNS0_10IInterfaceEPNS0_7details16HidlInstrumentorERKNS_2spINS3_36IBiometricsFingerprintClientCallbackEEE
_ZN7android8hardware10biometrics11fingerprint4V2_125BpHwBiometricsFingerprint16_hidl_postEnrollEPNS0_10IInterfaceEPNS0_7details16HidlInstrumentorE
_ZN7android8hardware10biometrics11fingerprint4V2_125BpHwBiometricsFingerprint18_hidl_authenticateEPNS0_10IInterfaceEPNS0_7details16HidlInstrumentorEyj
_ZN7android8hardware10biometrics11fingerprint4V2_125BpHwBiometricsFingerprint18getAuthenticatorIdEv
_ZN7android8hardware10biometrics11fingerprint4V2_125BpHwBiometricsFingerprint19interfaceDescriptorENSt3__18functionIFvRKNS0_11hidl_stringEEEE
_ZN7android8hardware10biometrics11fingerprint4V2_125BpHwBiometricsFingerprint20_hidl_setActiveGroupEPNS0_10IInterfaceEPNS0_7details16HidlInstrumentorEjRKNS0_11hidl_stringE
_ZN7android8hardware10biometrics11fingerprint4V2_125BpHwBiometricsFingerprint21notifySyspropsChangedEv
_ZN7android8hardware10biometrics11fingerprint4V2_125BpHwBiometricsFingerprint21setHALInstrumentationEv
_ZN7android8hardware10biometrics11fingerprint4V2_125BpHwBiometricsFingerprint24_hidl_getAuthenticatorIdEPNS0_10IInterfaceEPNS0_7details16HidlInstrumentorE
_ZN7android8hardware10biometrics11fingerprint4V2_125BpHwBiometricsFingerprint4pingEv
_ZN7android8hardware10biometrics11fingerprint4V2_125BpHwBiometricsFingerprint5debugERKNS0_11hidl_handleERKNS0_8hidl_vecINS0_11hidl_stringEEE
_ZN7android8hardware10biometrics11fingerprint4V2_125BpHwBiometricsFingerprint6cancelEv
_ZN7android8hardware10biometrics11fingerprint4V2_125BpHwBiometricsFingerprint6enrollERKNS0_10hidl_arrayIhLj69EJEEEjj
_ZN7android8hardware10biometrics11fingerprint4V2_125BpHwBiometricsFingerprint6removeEjj
_ZN7android8hardware10biometrics11fingerprint4V2_125BpHwBiometricsFingerprint9enumerateEv
_ZN7android8hardware10biometrics11fingerprint4V2_125BpHwBiometricsFingerprint9preEnrollEv
_ZN7android8hardware10biometrics11fingerprint4V2_125BpHwBiometricsFingerprint9setNotifyERKNS_2spINS3_36IBiometricsFingerprintClientCallbackEEE
_ZN7android8hardware10biometrics11fingerprint4V2_125BpHwBiometricsFingerprintC1ERKNS_2spINS0_7IBinderEEE
_ZN7android8hardware10biometrics11fingerprint4V2_125BpHwBiometricsFingerprintC2ERKNS_2spINS0_7IBinderEEE
_ZN7android8hardware10biometrics11fingerprint4V2_136IBiometricsFingerprintClientCallback10descriptorE
_ZN7android8hardware10biometrics11fingerprint4V2_136IBiometricsFingerprintClientCallback10getServiceERKNSt3__112basic_stringIcNS5_11char_traitsIcEENS5_9allocatorIcEEEEb
_ZN7android8hardware10biometrics11fingerprint4V2_136IBiometricsFingerprintClientCallback11linkToDeathERKNS_2spINS0_20hidl_death_recipientEEEy
_ZN7android8hardware10biometrics11fingerprint4V2_136IBiometricsFingerprintClientCallback12getDebugInfoENSt3__18functionIFvRKNS_4hidl4base4V1_09DebugInfoEEEE
_ZN7android8hardware10biometrics11fingerprint4V2_136IBiometricsFingerprintClientCallback12getHashChainENSt3__18functionIFvRKNS0_8hidl_vecINS0_10hidl_arrayIhLj32EJEEEEEEEE
_ZN7android8hardware10biometrics11fingerprint4V2_136IBiometricsFingerprintClientCallback13tryGetServiceERKNSt3__112basic_stringIcNS5_11char_traitsIcEENS5_9allocatorIcEEEEb
_ZN7android8hardware10biometrics11fingerprint4V2_136IBiometricsFingerprintClientCallback13unlinkToDeathERKNS_2spINS0_20hidl_death_recipientEEE
_ZN7android8hardware10biometrics11fingerprint4V2_136IBiometricsFingerprintClientCallback14interfaceChainENSt3__18functionIFvRKNS0_8hidl_vecINS0_11hidl_stringEEEEEE
_ZN7android8hardware10biometrics11fingerprint4V2_136IBiometricsFingerprintClientCallback17registerAsServiceERKNSt3__112basic_stringIcNS5_11char_traitsIcEENS5_9allocatorIcEEEE
_ZN7android8hardware10biometrics11fingerprint4V2_136IBiometricsFingerprintClientCallback19interfaceDescriptorENSt3__18functionIFvRKNS0_11hidl_stringEEEE
_ZN7android8hardware10biometrics11fingerprint4V2_136IBiometricsFingerprintClientCallback21notifySyspropsChangedEv
_ZN7android8hardware10biometrics11fingerprint4V2_136IBiometricsFingerprintClientCallback21setHALInstrumentationEv
_ZN7android8hardware10biometrics11fingerprint4V2_136IBiometricsFingerprintClientCallback24registerForNotificationsERKNSt3__112basic_stringIcNS5_11char_traitsIcEENS5_9allocatorIcEEEERKNS_2spINS_4hidl7manager4V1_020IServiceNotificationEEE
_ZN7android8hardware10biometrics11fingerprint4V2_136IBiometricsFingerprintClientCallback4pingEv
_ZN7android8hardware10biometrics11fingerprint4V2_136IBiometricsFingerprintClientCallback5debugERKNS0_11hidl_handleERKNS0_8hidl_vecINS0_11hidl_stringEEE
_ZN7android8hardware10biometrics11fingerprint4V2_136IBiometricsFingerprintClientCallback8castFromERKNS_2spINS_4hidl4base4V1_05IBaseEEEb
_ZN7android8hardware10biometrics11fingerprint4V2_136IBiometricsFingerprintClientCallback8castFromERKNS_2spIS4_EEb
_ZN7android8hardware10biometrics11fingerprint4V2_137BsBiometricsFingerprintClientCallback13addOnewayTaskENSt3__18functionIFvvEEE
_ZN7android8hardware10biometrics11fingerprint4V2_137BsBiometricsFingerprintClientCallbackC1ENS_2spINS3_36IBiometricsFingerprintClientCallbackEEE
_ZN7android8hardware10biometrics11fingerprint4V2_137BsBiometricsFingerprintClientCallbackC2ENS_2spINS3_36IBiometricsFingerprintClientCallbackEEE
_ZN7android8hardware10biometrics11fingerprint4V2_139BnHwBiometricsFingerprintClientCallback10onTransactEjRKNS0_6ParcelEPS5_jNSt3__18functionIFvRS5_EEE
_ZN7android8hardware10biometrics11fingerprint4V2_139BnHwBiometricsFingerprintClientCallback12getDebugInfoENSt3__18functionIFvRKNS_4hidl4base4V1_09DebugInfoEEEE
_ZN7android8hardware10biometrics11fingerprint4V2_139BnHwBiometricsFingerprintClientCallback13_hidl_onErrorEPNS_4hidl4base4V1_08BnHwBaseERKNS0_6ParcelEPSA_NSt3__18functionIFvRSA_EEE
_ZN7android8hardware10biometrics11fingerprint4V2_139BnHwBiometricsFingerprintClientCallback15_hidl_onRemovedEPNS_4hidl4base4V1_08BnHwBaseERKNS0_6ParcelEPSA_NSt3__18functionIFvRSA_EEE
_ZN7android8hardware10biometrics11fingerprint4V2_139BnHwBiometricsFingerprintClientCallback16_hidl_onAcquiredEPNS_4hidl4base4V1_08BnHwBaseERKNS0_6ParcelEPSA_NSt3__18functionIFvRSA_EEE
_ZN7android8hardware10biometrics11fingerprint4V2_139BnHwBiometricsFingerprintClientCallback17_hidl_onEnumerateEPNS_4hidl4base4V1_08BnHwBaseERKNS0_6ParcelEPSA_NSt3__18functionIFvRSA_EEE
_ZN7android8hardware10biometrics11fingerprint4V2_139BnHwBiometricsFingerprintClientCallback20_hidl_onEnrollResultEPNS_4hidl4base4V1_08BnHwBaseERKNS0_6ParcelEPSA_NSt3__18functionIFvRSA_EEE
_ZN7android8hardware10biometrics11fingerprint4V2_139BnHwBiometricsFingerprintClientCallback21_hidl_onAuthenticatedEPNS_4hidl4base4V1_08BnHwBaseERKNS0_6ParcelEPSA_NSt3__18functionIFvRSA_EEE
_ZN7android8hardware10biometrics11fingerprint4V2_139BnHwBiometricsFingerprintClientCallback4pingEv
_ZN7android8hardware10biometrics11fingerprint4V2_139BnHwBiometricsFingerprintClientCallbackC1ERKNS_2spINS3_36IBiometricsFingerprintClientCallbackEEE
_ZN7android8hardware10biometrics11fingerprint4V2_139BnHwBiometricsFingerprintClientCallbackC2ERKNS_2spINS3_36IBiometricsFingerprintClientCallbackEEE
_ZN7android8hardware10biometrics11fingerprint4V2_139BnHwBiometricsFingerprintClientCallbackD0Ev
_ZN7android8hardware10biometrics11fingerprint4V2_139BnHwBiometricsFingerprintClientCallbackD1Ev
_ZN7android8hardware10biometrics11fingerprint4V2_139BnHwBiometricsFingerprintClientCallbackD2Ev
_ZN7android8hardware10biometrics11fingerprint4V2_139BpHwBiometricsFingerprintClientCallback10onAcquiredEyNS3_23FingerprintAcquiredInfoEi
_ZN7android8hardware10biometrics11fingerprint4V2_139BpHwBiometricsFingerprintClientCallback11linkToDeathERKNS_2spINS0_20hidl_death_recipientEEEy
_ZN7android8hardware10biometrics11fingerprint4V2_139BpHwBiometricsFingerprintClientCallback11onEnumerateEyjjj
_ZN7android8hardware10biometrics11fingerprint4V2_139BpHwBiometricsFingerprintClientCallback12getDebugInfoENSt3__18functionIFvRKNS_4hidl4base4V1_09DebugInfoEEEE
_ZN7android8hardware10biometrics11fingerprint4V2_139BpHwBiometricsFingerprintClientCallback12getHashChainENSt3__18functionIFvRKNS0_8hidl_vecINS0_10hidl_arrayIhLj32EJEEEEEEEE
_ZN7android8hardware10biometrics11fingerprint4V2_139BpHwBiometricsFingerprintClientCallback13_hidl_onErrorEPNS0_10IInterfaceEPNS0_7details16HidlInstrumentorEyNS3_16FingerprintErrorEi
_ZN7android8hardware10biometrics11fingerprint4V2_139BpHwBiometricsFingerprintClientCallback13unlinkToDeathERKNS_2spINS0_20hidl_death_recipientEEE
_ZN7android8hardware10biometrics11fingerprint4V2_139BpHwBiometricsFingerprintClientCallback14interfaceChainENSt3__18functionIFvRKNS0_8hidl_vecINS0_11hidl_stringEEEEEE
_ZN7android8hardware10biometrics11fingerprint4V2_139BpHwBiometricsFingerprintClientCallback14onEnrollResultEyjjj
_ZN7android8hardware10biometrics11fingerprint4V2_139BpHwBiometricsFingerprintClientCallback15_hidl_onRemovedEPNS0_10IInterfaceEPNS0_7details16HidlInstrumentorEyjjj
_ZN7android8hardware10biometrics11fingerprint4V2_139BpHwBiometricsFingerprintClientCallback15onAuthenticatedEyjjRKNS0_8hidl_vecIhEE
_ZN7android8hardware10biometrics11fingerprint4V2_139BpHwBiometricsFingerprintClientCallback16_hidl_onAcquiredEPNS0_10IInterfaceEPNS0_7details16HidlInstrumentorEyNS3_23FingerprintAcquiredInfoEi
_ZN7android8hardware10biometrics11fingerprint4V2_139BpHwBiometricsFingerprintClientCallback17_hidl_onEnumerateEPNS0_10IInterfaceEPNS0_7details16HidlInstrumentorEyjjj
_ZN7android8hardware10biometrics11fingerprint4V2_139BpHwBiometricsFingerprintClientCallback19interfaceDescriptorENSt3__18functionIFvRKNS0_11hidl_stringEEEE
_ZN7android8hardware10biometrics11fingerprint4V2_139BpHwBiometricsFingerprintClientCallback20_hidl_onEnrollResultEPNS0_10IInterfaceEPNS0_7details16HidlInstrumentorEyjjj
_ZN7android8hardware10biometrics11fingerprint4V2_139BpHwBiometricsFingerprintClientCallback21_hidl_onAuthenticatedEPNS0_10IInterfaceEPNS0_7details16HidlInstrumentorEyjjRKNS0_8hidl_vecIhEE
_ZN7android8hardware10biometrics11fingerprint4V2_139BpHwBiometricsFingerprintClientCallback21notifySyspropsChangedEv
_ZN7android8hardware10biometrics11fingerprint4V2_139BpHwBiometricsFingerprintClientCallback21setHALInstrumentationEv
_ZN7android8hardware10biometrics11fingerprint4V2_139BpHwBiometricsFingerprintClientCallback4pingEv
_ZN7android8hardware10biometrics11fingerprint4V2_139BpHwBiometricsFingerprintClientCallback5debugERKNS0_11hidl_handleERKNS0_8hidl_vecINS0_11hidl_stringEEE
_ZN7android8hardware10biometrics11fingerprint4V2_139BpHwBiometricsFingerprintClientCallback7onErrorEyNS3_16FingerprintErrorEi
_ZN7android8hardware10biometrics11fingerprint4V2_139BpHwBiometricsFingerprintClientCallback9onRemovedEyjjj
_ZN7android8hardware10biometrics11fingerprint4V2_139BpHwBiometricsFingerprintClientCallbackC1ERKNS_2spINS0_7IBinderEEE
_ZN7android8hardware10biometrics11fingerprint4V2_139BpHwBiometricsFingerprintClientCallbackC2ERKNS_2spINS0_7IBinderEEE
_ZTCN7android8hardware10biometrics11fingerprint4V2_122IBiometricsFingerprintE0_NS_4hidl4base4V1_05IBaseE
_ZTCN7android8hardware10biometrics11fingerprint4V2_125BnHwBiometricsFingerprintE0_NS0_7IBinderE
_ZTCN7android8hardware10biometrics11fingerprint4V2_125BnHwBiometricsFingerprintE0_NS0_9BHwBinderE
_ZTCN7android8hardware10biometrics11fingerprint4V2_125BnHwBiometricsFingerprintE0_NS_4hidl4base4V1_08BnHwBaseE
_ZTCN7android8hardware10biometrics11fingerprint4V2_125BpHwBiometricsFingerprintE0_NS0_11BpInterfaceINS3_22IBiometricsFingerprintEEE
_ZTCN7android8hardware10biometrics11fingerprint4V2_125BpHwBiometricsFingerprintE0_NS3_22IBiometricsFingerprintE
_ZTCN7android8hardware10biometrics11fingerprint4V2_125BpHwBiometricsFingerprintE0_NS_4hidl4base4V1_05IBaseE
_ZTCN7android8hardware10biometrics11fingerprint4V2_125BpHwBiometricsFingerprintE4_NS0_10IInterfaceE
_ZTCN7android8hardware10biometrics11fingerprint4V2_125BpHwBiometricsFingerprintE8_NS0_11BpHwRefBaseE
_ZTCN7android8hardware10biometrics11fingerprint4V2_136IBiometricsFingerprintClientCallbackE0_NS_4hidl4base4V1_05IBaseE
_ZTCN7android8hardware10biometrics11fingerprint4V2_139BnHwBiometricsFingerprintClientCallbackE0_NS0_7IBinderE
_ZTCN7android8hardware10biometrics11fingerprint4V2_139BnHwBiometricsFingerprintClientCallbackE0_NS0_9BHwBinderE
_ZTCN7android8hardware10biometrics11fingerprint4V2_139BnHwBiometricsFingerprintClientCallbackE0_NS_4hidl4base4V1_08BnHwBaseE
_ZTCN7android8hardware10biometrics11fingerprint4V2_139BpHwBiometricsFingerprintClientCallbackE0_NS0_11BpInterfaceINS3_36IBiometricsFingerprintClientCallbackEEE
_ZTCN7android8hardware10biometrics11fingerprint4V2_139BpHwBiometricsFingerprintClientCallbackE0_NS3_36IBiometricsFingerprintClientCallbackE
_ZTCN7android8hardware10biometrics11fingerprint4V2_139BpHwBiometricsFingerprintClientCallbackE0_NS_4hidl4base4V1_05IBaseE
_ZTCN7android8hardware10biometrics11fingerprint4V2_139BpHwBiometricsFingerprintClientCallbackE4_NS0_10IInterfaceE
_ZTCN7android8hardware10biometrics11fingerprint4V2_139BpHwBiometricsFingerprintClientCallbackE8_NS0_11BpHwRefBaseE
_ZTTN7android8hardware10biometrics11fingerprint4V2_122IBiometricsFingerprintE
_ZTTN7android8hardware10biometrics11fingerprint4V2_125BnHwBiometricsFingerprintE
_ZTTN7android8hardware10biometrics11fingerprint4V2_125BpHwBiometricsFingerprintE
_ZTTN7android8hardware10biometrics11fingerprint4V2_136IBiometricsFingerprintClientCallbackE
_ZTTN7android8hardware10biometrics11fingerprint4V2_139BnHwBiometricsFingerprintClientCallbackE
_ZTTN7android8hardware10biometrics11fingerprint4V2_139BpHwBiometricsFingerprintClientCallbackE
_ZTVN7android8hardware10biometrics11fingerprint4V2_122IBiometricsFingerprintE
_ZTVN7android8hardware10biometrics11fingerprint4V2_125BnHwBiometricsFingerprintE
_ZTVN7android8hardware10biometrics11fingerprint4V2_125BpHwBiometricsFingerprintE
_ZTVN7android8hardware10biometrics11fingerprint4V2_136IBiometricsFingerprintClientCallbackE
_ZTVN7android8hardware10biometrics11fingerprint4V2_139BnHwBiometricsFingerprintClientCallbackE
_ZTVN7android8hardware10biometrics11fingerprint4V2_139BpHwBiometricsFingerprintClientCallbackE
_ZThn20_N7android8hardware10biometrics11fingerprint4V2_125BnHwBiometricsFingerprintD0Ev
_ZThn20_N7android8hardware10biometrics11fingerprint4V2_125BnHwBiometricsFingerprintD1Ev
_ZThn20_N7android8hardware10biometrics11fingerprint4V2_139BnHwBiometricsFingerprintClientCallbackD0Ev
_ZThn20_N7android8hardware10biometrics11fingerprint4V2_139BnHwBiometricsFingerprintClientCallbackD1Ev
_ZTv0_n12_N7android8hardware10biometrics11fingerprint4V2_125BnHwBiometricsFingerprintD0Ev
_ZTv0_n12_N7android8hardware10biometrics11fingerprint4V2_125BnHwBiometricsFingerprintD1Ev
_ZTv0_n12_N7android8hardware10biometrics11fingerprint4V2_139BnHwBiometricsFingerprintClientCallbackD0Ev
_ZTv0_n12_N7android8hardware10biometrics11fingerprint4V2_139BnHwBiometricsFingerprintClientCallbackD1Ev
