_ZN7android10frameworks14displayservice4V1_014IEventCallback10descriptorE
_ZN7android10frameworks14displayservice4V1_014IEventCallback10getServiceERKNSt3__112basic_stringIcNS4_11char_traitsIcEENS4_9allocatorIcEEEEb
_ZN7android10frameworks14displayservice4V1_014IEventCallback11linkToDeathERKNS_2spINS_8hardware20hidl_death_recipientEEEy
_ZN7android10frameworks14displayservice4V1_014IEventCallback12getDebugInfoENSt3__18functionIFvRKNS_4hidl4base4V1_09DebugInfoEEEE
_ZN7android10frameworks14displayservice4V1_014IEventCallback12getHashChainENSt3__18functionIFvRKNS_8hardware8hidl_vecINS6_10hidl_arrayIhLj32EJEEEEEEEE
_ZN7android10frameworks14displayservice4V1_014IEventCallback13tryGetServiceERKNSt3__112basic_stringIcNS4_11char_traitsIcEENS4_9allocatorIcEEEEb
_ZN7android10frameworks14displayservice4V1_014IEventCallback13unlinkToDeathERKNS_2spINS_8hardware20hidl_death_recipientEEE
_ZN7android10frameworks14displayservice4V1_014IEventCallback14interfaceChainENSt3__18functionIFvRKNS_8hardware8hidl_vecINS6_11hidl_stringEEEEEE
_ZN7android10frameworks14displayservice4V1_014IEventCallback17registerAsServiceERKNSt3__112basic_stringIcNS4_11char_traitsIcEENS4_9allocatorIcEEEE
_ZN7android10frameworks14displayservice4V1_014IEventCallback19interfaceDescriptorENSt3__18functionIFvRKNS_8hardware11hidl_stringEEEE
_ZN7android10frameworks14displayservice4V1_014IEventCallback21notifySyspropsChangedEv
_ZN7android10frameworks14displayservice4V1_014IEventCallback21setHALInstrumentationEv
_ZN7android10frameworks14displayservice4V1_014IEventCallback24registerForNotificationsERKNSt3__112basic_stringIcNS4_11char_traitsIcEENS4_9allocatorIcEEEERKNS_2spINS_4hidl7manager4V1_020IServiceNotificationEEE
_ZN7android10frameworks14displayservice4V1_014IEventCallback4pingEv
_ZN7android10frameworks14displayservice4V1_014IEventCallback5debugERKNS_8hardware11hidl_handleERKNS4_8hidl_vecINS4_11hidl_stringEEE
_ZN7android10frameworks14displayservice4V1_014IEventCallback8castFromERKNS_2spINS_4hidl4base4V1_05IBaseEEEb
_ZN7android10frameworks14displayservice4V1_014IEventCallback8castFromERKNS_2spIS3_EEb
_ZN7android10frameworks14displayservice4V1_015BsEventCallback13addOnewayTaskENSt3__18functionIFvvEEE
_ZN7android10frameworks14displayservice4V1_015BsEventCallbackC1ENS_2spINS2_14IEventCallbackEEE
_ZN7android10frameworks14displayservice4V1_015BsEventCallbackC2ENS_2spINS2_14IEventCallbackEEE
_ZN7android10frameworks14displayservice4V1_015IDisplayService10descriptorE
_ZN7android10frameworks14displayservice4V1_015IDisplayService10getServiceERKNSt3__112basic_stringIcNS4_11char_traitsIcEENS4_9allocatorIcEEEEb
_ZN7android10frameworks14displayservice4V1_015IDisplayService11linkToDeathERKNS_2spINS_8hardware20hidl_death_recipientEEEy
_ZN7android10frameworks14displayservice4V1_015IDisplayService12getDebugInfoENSt3__18functionIFvRKNS_4hidl4base4V1_09DebugInfoEEEE
_ZN7android10frameworks14displayservice4V1_015IDisplayService12getHashChainENSt3__18functionIFvRKNS_8hardware8hidl_vecINS6_10hidl_arrayIhLj32EJEEEEEEEE
_ZN7android10frameworks14displayservice4V1_015IDisplayService13tryGetServiceERKNSt3__112basic_stringIcNS4_11char_traitsIcEENS4_9allocatorIcEEEEb
_ZN7android10frameworks14displayservice4V1_015IDisplayService13unlinkToDeathERKNS_2spINS_8hardware20hidl_death_recipientEEE
_ZN7android10frameworks14displayservice4V1_015IDisplayService14interfaceChainENSt3__18functionIFvRKNS_8hardware8hidl_vecINS6_11hidl_stringEEEEEE
_ZN7android10frameworks14displayservice4V1_015IDisplayService17registerAsServiceERKNSt3__112basic_stringIcNS4_11char_traitsIcEENS4_9allocatorIcEEEE
_ZN7android10frameworks14displayservice4V1_015IDisplayService19interfaceDescriptorENSt3__18functionIFvRKNS_8hardware11hidl_stringEEEE
_ZN7android10frameworks14displayservice4V1_015IDisplayService21notifySyspropsChangedEv
_ZN7android10frameworks14displayservice4V1_015IDisplayService21setHALInstrumentationEv
_ZN7android10frameworks14displayservice4V1_015IDisplayService24registerForNotificationsERKNSt3__112basic_stringIcNS4_11char_traitsIcEENS4_9allocatorIcEEEERKNS_2spINS_4hidl7manager4V1_020IServiceNotificationEEE
_ZN7android10frameworks14displayservice4V1_015IDisplayService4pingEv
_ZN7android10frameworks14displayservice4V1_015IDisplayService5debugERKNS_8hardware11hidl_handleERKNS4_8hidl_vecINS4_11hidl_stringEEE
_ZN7android10frameworks14displayservice4V1_015IDisplayService8castFromERKNS_2spINS_4hidl4base4V1_05IBaseEEEb
_ZN7android10frameworks14displayservice4V1_015IDisplayService8castFromERKNS_2spIS3_EEb
_ZN7android10frameworks14displayservice4V1_016BsDisplayService13addOnewayTaskENSt3__18functionIFvvEEE
_ZN7android10frameworks14displayservice4V1_016BsDisplayServiceC1ENS_2spINS2_15IDisplayServiceEEE
_ZN7android10frameworks14displayservice4V1_016BsDisplayServiceC2ENS_2spINS2_15IDisplayServiceEEE
_ZN7android10frameworks14displayservice4V1_017BnHwEventCallback10onTransactEjRKNS_8hardware6ParcelEPS5_jNSt3__18functionIFvRS5_EEE
_ZN7android10frameworks14displayservice4V1_017BnHwEventCallback12getDebugInfoENSt3__18functionIFvRKNS_4hidl4base4V1_09DebugInfoEEEE
_ZN7android10frameworks14displayservice4V1_017BnHwEventCallback13_hidl_onVsyncEPNS_4hidl4base4V1_08BnHwBaseERKNS_8hardware6ParcelEPSA_NSt3__18functionIFvRSA_EEE
_ZN7android10frameworks14displayservice4V1_017BnHwEventCallback15_hidl_onHotplugEPNS_4hidl4base4V1_08BnHwBaseERKNS_8hardware6ParcelEPSA_NSt3__18functionIFvRSA_EEE
_ZN7android10frameworks14displayservice4V1_017BnHwEventCallback4pingEv
_ZN7android10frameworks14displayservice4V1_017BnHwEventCallbackC1ERKNS_2spINS2_14IEventCallbackEEE
_ZN7android10frameworks14displayservice4V1_017BnHwEventCallbackC2ERKNS_2spINS2_14IEventCallbackEEE
_ZN7android10frameworks14displayservice4V1_017BnHwEventCallbackD0Ev
_ZN7android10frameworks14displayservice4V1_017BnHwEventCallbackD1Ev
_ZN7android10frameworks14displayservice4V1_017BnHwEventCallbackD2Ev
_ZN7android10frameworks14displayservice4V1_017BpHwEventCallback11linkToDeathERKNS_2spINS_8hardware20hidl_death_recipientEEEy
_ZN7android10frameworks14displayservice4V1_017BpHwEventCallback12getDebugInfoENSt3__18functionIFvRKNS_4hidl4base4V1_09DebugInfoEEEE
_ZN7android10frameworks14displayservice4V1_017BpHwEventCallback12getHashChainENSt3__18functionIFvRKNS_8hardware8hidl_vecINS6_10hidl_arrayIhLj32EJEEEEEEEE
_ZN7android10frameworks14displayservice4V1_017BpHwEventCallback13_hidl_onVsyncEPNS_8hardware10IInterfaceEPNS4_7details16HidlInstrumentorEyj
_ZN7android10frameworks14displayservice4V1_017BpHwEventCallback13unlinkToDeathERKNS_2spINS_8hardware20hidl_death_recipientEEE
_ZN7android10frameworks14displayservice4V1_017BpHwEventCallback14interfaceChainENSt3__18functionIFvRKNS_8hardware8hidl_vecINS6_11hidl_stringEEEEEE
_ZN7android10frameworks14displayservice4V1_017BpHwEventCallback15_hidl_onHotplugEPNS_8hardware10IInterfaceEPNS4_7details16HidlInstrumentorEyb
_ZN7android10frameworks14displayservice4V1_017BpHwEventCallback19interfaceDescriptorENSt3__18functionIFvRKNS_8hardware11hidl_stringEEEE
_ZN7android10frameworks14displayservice4V1_017BpHwEventCallback21notifySyspropsChangedEv
_ZN7android10frameworks14displayservice4V1_017BpHwEventCallback21setHALInstrumentationEv
_ZN7android10frameworks14displayservice4V1_017BpHwEventCallback4pingEv
_ZN7android10frameworks14displayservice4V1_017BpHwEventCallback5debugERKNS_8hardware11hidl_handleERKNS4_8hidl_vecINS4_11hidl_stringEEE
_ZN7android10frameworks14displayservice4V1_017BpHwEventCallback7onVsyncEyj
_ZN7android10frameworks14displayservice4V1_017BpHwEventCallback9onHotplugEyb
_ZN7android10frameworks14displayservice4V1_017BpHwEventCallbackC1ERKNS_2spINS_8hardware7IBinderEEE
_ZN7android10frameworks14displayservice4V1_017BpHwEventCallbackC2ERKNS_2spINS_8hardware7IBinderEEE
_ZN7android10frameworks14displayservice4V1_018BnHwDisplayService10onTransactEjRKNS_8hardware6ParcelEPS5_jNSt3__18functionIFvRS5_EEE
_ZN7android10frameworks14displayservice4V1_018BnHwDisplayService12getDebugInfoENSt3__18functionIFvRKNS_4hidl4base4V1_09DebugInfoEEEE
_ZN7android10frameworks14displayservice4V1_018BnHwDisplayService22_hidl_getEventReceiverEPNS_4hidl4base4V1_08BnHwBaseERKNS_8hardware6ParcelEPSA_NSt3__18functionIFvRSA_EEE
_ZN7android10frameworks14displayservice4V1_018BnHwDisplayService4pingEv
_ZN7android10frameworks14displayservice4V1_018BnHwDisplayServiceC1ERKNS_2spINS2_15IDisplayServiceEEE
_ZN7android10frameworks14displayservice4V1_018BnHwDisplayServiceC2ERKNS_2spINS2_15IDisplayServiceEEE
_ZN7android10frameworks14displayservice4V1_018BnHwDisplayServiceD0Ev
_ZN7android10frameworks14displayservice4V1_018BnHwDisplayServiceD1Ev
_ZN7android10frameworks14displayservice4V1_018BnHwDisplayServiceD2Ev
_ZN7android10frameworks14displayservice4V1_018BpHwDisplayService11linkToDeathERKNS_2spINS_8hardware20hidl_death_recipientEEEy
_ZN7android10frameworks14displayservice4V1_018BpHwDisplayService12getDebugInfoENSt3__18functionIFvRKNS_4hidl4base4V1_09DebugInfoEEEE
_ZN7android10frameworks14displayservice4V1_018BpHwDisplayService12getHashChainENSt3__18functionIFvRKNS_8hardware8hidl_vecINS6_10hidl_arrayIhLj32EJEEEEEEEE
_ZN7android10frameworks14displayservice4V1_018BpHwDisplayService13unlinkToDeathERKNS_2spINS_8hardware20hidl_death_recipientEEE
_ZN7android10frameworks14displayservice4V1_018BpHwDisplayService14interfaceChainENSt3__18functionIFvRKNS_8hardware8hidl_vecINS6_11hidl_stringEEEEEE
_ZN7android10frameworks14displayservice4V1_018BpHwDisplayService16getEventReceiverEv
_ZN7android10frameworks14displayservice4V1_018BpHwDisplayService19interfaceDescriptorENSt3__18functionIFvRKNS_8hardware11hidl_stringEEEE
_ZN7android10frameworks14displayservice4V1_018BpHwDisplayService21notifySyspropsChangedEv
_ZN7android10frameworks14displayservice4V1_018BpHwDisplayService21setHALInstrumentationEv
_ZN7android10frameworks14displayservice4V1_018BpHwDisplayService22_hidl_getEventReceiverEPNS_8hardware10IInterfaceEPNS4_7details16HidlInstrumentorE
_ZN7android10frameworks14displayservice4V1_018BpHwDisplayService4pingEv
_ZN7android10frameworks14displayservice4V1_018BpHwDisplayService5debugERKNS_8hardware11hidl_handleERKNS4_8hidl_vecINS4_11hidl_stringEEE
_ZN7android10frameworks14displayservice4V1_018BpHwDisplayServiceC1ERKNS_2spINS_8hardware7IBinderEEE
_ZN7android10frameworks14displayservice4V1_018BpHwDisplayServiceC2ERKNS_2spINS_8hardware7IBinderEEE
_ZN7android10frameworks14displayservice4V1_021IDisplayEventReceiver10descriptorE
_ZN7android10frameworks14displayservice4V1_021IDisplayEventReceiver10getServiceERKNSt3__112basic_stringIcNS4_11char_traitsIcEENS4_9allocatorIcEEEEb
_ZN7android10frameworks14displayservice4V1_021IDisplayEventReceiver11linkToDeathERKNS_2spINS_8hardware20hidl_death_recipientEEEy
_ZN7android10frameworks14displayservice4V1_021IDisplayEventReceiver12getDebugInfoENSt3__18functionIFvRKNS_4hidl4base4V1_09DebugInfoEEEE
_ZN7android10frameworks14displayservice4V1_021IDisplayEventReceiver12getHashChainENSt3__18functionIFvRKNS_8hardware8hidl_vecINS6_10hidl_arrayIhLj32EJEEEEEEEE
_ZN7android10frameworks14displayservice4V1_021IDisplayEventReceiver13tryGetServiceERKNSt3__112basic_stringIcNS4_11char_traitsIcEENS4_9allocatorIcEEEEb
_ZN7android10frameworks14displayservice4V1_021IDisplayEventReceiver13unlinkToDeathERKNS_2spINS_8hardware20hidl_death_recipientEEE
_ZN7android10frameworks14displayservice4V1_021IDisplayEventReceiver14interfaceChainENSt3__18functionIFvRKNS_8hardware8hidl_vecINS6_11hidl_stringEEEEEE
_ZN7android10frameworks14displayservice4V1_021IDisplayEventReceiver17registerAsServiceERKNSt3__112basic_stringIcNS4_11char_traitsIcEENS4_9allocatorIcEEEE
_ZN7android10frameworks14displayservice4V1_021IDisplayEventReceiver19interfaceDescriptorENSt3__18functionIFvRKNS_8hardware11hidl_stringEEEE
_ZN7android10frameworks14displayservice4V1_021IDisplayEventReceiver21notifySyspropsChangedEv
_ZN7android10frameworks14displayservice4V1_021IDisplayEventReceiver21setHALInstrumentationEv
_ZN7android10frameworks14displayservice4V1_021IDisplayEventReceiver24registerForNotificationsERKNSt3__112basic_stringIcNS4_11char_traitsIcEENS4_9allocatorIcEEEERKNS_2spINS_4hidl7manager4V1_020IServiceNotificationEEE
_ZN7android10frameworks14displayservice4V1_021IDisplayEventReceiver4pingEv
_ZN7android10frameworks14displayservice4V1_021IDisplayEventReceiver5debugERKNS_8hardware11hidl_handleERKNS4_8hidl_vecINS4_11hidl_stringEEE
_ZN7android10frameworks14displayservice4V1_021IDisplayEventReceiver8castFromERKNS_2spINS_4hidl4base4V1_05IBaseEEEb
_ZN7android10frameworks14displayservice4V1_021IDisplayEventReceiver8castFromERKNS_2spIS3_EEb
_ZN7android10frameworks14displayservice4V1_022BsDisplayEventReceiver13addOnewayTaskENSt3__18functionIFvvEEE
_ZN7android10frameworks14displayservice4V1_022BsDisplayEventReceiverC1ENS_2spINS2_21IDisplayEventReceiverEEE
_ZN7android10frameworks14displayservice4V1_022BsDisplayEventReceiverC2ENS_2spINS2_21IDisplayEventReceiverEEE
_ZN7android10frameworks14displayservice4V1_024BnHwDisplayEventReceiver10_hidl_initEPNS_4hidl4base4V1_08BnHwBaseERKNS_8hardware6ParcelEPSA_NSt3__18functionIFvRSA_EEE
_ZN7android10frameworks14displayservice4V1_024BnHwDisplayEventReceiver10onTransactEjRKNS_8hardware6ParcelEPS5_jNSt3__18functionIFvRS5_EEE
_ZN7android10frameworks14displayservice4V1_024BnHwDisplayEventReceiver11_hidl_closeEPNS_4hidl4base4V1_08BnHwBaseERKNS_8hardware6ParcelEPSA_NSt3__18functionIFvRSA_EEE
_ZN7android10frameworks14displayservice4V1_024BnHwDisplayEventReceiver12getDebugInfoENSt3__18functionIFvRKNS_4hidl4base4V1_09DebugInfoEEEE
_ZN7android10frameworks14displayservice4V1_024BnHwDisplayEventReceiver18_hidl_setVsyncRateEPNS_4hidl4base4V1_08BnHwBaseERKNS_8hardware6ParcelEPSA_NSt3__18functionIFvRSA_EEE
_ZN7android10frameworks14displayservice4V1_024BnHwDisplayEventReceiver22_hidl_requestNextVsyncEPNS_4hidl4base4V1_08BnHwBaseERKNS_8hardware6ParcelEPSA_NSt3__18functionIFvRSA_EEE
_ZN7android10frameworks14displayservice4V1_024BnHwDisplayEventReceiver4pingEv
_ZN7android10frameworks14displayservice4V1_024BnHwDisplayEventReceiverC1ERKNS_2spINS2_21IDisplayEventReceiverEEE
_ZN7android10frameworks14displayservice4V1_024BnHwDisplayEventReceiverC2ERKNS_2spINS2_21IDisplayEventReceiverEEE
_ZN7android10frameworks14displayservice4V1_024BnHwDisplayEventReceiverD0Ev
_ZN7android10frameworks14displayservice4V1_024BnHwDisplayEventReceiverD1Ev
_ZN7android10frameworks14displayservice4V1_024BnHwDisplayEventReceiverD2Ev
_ZN7android10frameworks14displayservice4V1_024BpHwDisplayEventReceiver10_hidl_initEPNS_8hardware10IInterfaceEPNS4_7details16HidlInstrumentorERKNS_2spINS2_14IEventCallbackEEE
_ZN7android10frameworks14displayservice4V1_024BpHwDisplayEventReceiver11_hidl_closeEPNS_8hardware10IInterfaceEPNS4_7details16HidlInstrumentorE
_ZN7android10frameworks14displayservice4V1_024BpHwDisplayEventReceiver11linkToDeathERKNS_2spINS_8hardware20hidl_death_recipientEEEy
_ZN7android10frameworks14displayservice4V1_024BpHwDisplayEventReceiver12getDebugInfoENSt3__18functionIFvRKNS_4hidl4base4V1_09DebugInfoEEEE
_ZN7android10frameworks14displayservice4V1_024BpHwDisplayEventReceiver12getHashChainENSt3__18functionIFvRKNS_8hardware8hidl_vecINS6_10hidl_arrayIhLj32EJEEEEEEEE
_ZN7android10frameworks14displayservice4V1_024BpHwDisplayEventReceiver12setVsyncRateEi
_ZN7android10frameworks14displayservice4V1_024BpHwDisplayEventReceiver13unlinkToDeathERKNS_2spINS_8hardware20hidl_death_recipientEEE
_ZN7android10frameworks14displayservice4V1_024BpHwDisplayEventReceiver14interfaceChainENSt3__18functionIFvRKNS_8hardware8hidl_vecINS6_11hidl_stringEEEEEE
_ZN7android10frameworks14displayservice4V1_024BpHwDisplayEventReceiver16requestNextVsyncEv
_ZN7android10frameworks14displayservice4V1_024BpHwDisplayEventReceiver18_hidl_setVsyncRateEPNS_8hardware10IInterfaceEPNS4_7details16HidlInstrumentorEi
_ZN7android10frameworks14displayservice4V1_024BpHwDisplayEventReceiver19interfaceDescriptorENSt3__18functionIFvRKNS_8hardware11hidl_stringEEEE
_ZN7android10frameworks14displayservice4V1_024BpHwDisplayEventReceiver21notifySyspropsChangedEv
_ZN7android10frameworks14displayservice4V1_024BpHwDisplayEventReceiver21setHALInstrumentationEv
_ZN7android10frameworks14displayservice4V1_024BpHwDisplayEventReceiver22_hidl_requestNextVsyncEPNS_8hardware10IInterfaceEPNS4_7details16HidlInstrumentorE
_ZN7android10frameworks14displayservice4V1_024BpHwDisplayEventReceiver4initERKNS_2spINS2_14IEventCallbackEEE
_ZN7android10frameworks14displayservice4V1_024BpHwDisplayEventReceiver4pingEv
_ZN7android10frameworks14displayservice4V1_024BpHwDisplayEventReceiver5closeEv
_ZN7android10frameworks14displayservice4V1_024BpHwDisplayEventReceiver5debugERKNS_8hardware11hidl_handleERKNS4_8hidl_vecINS4_11hidl_stringEEE
_ZN7android10frameworks14displayservice4V1_024BpHwDisplayEventReceiverC1ERKNS_2spINS_8hardware7IBinderEEE
_ZN7android10frameworks14displayservice4V1_024BpHwDisplayEventReceiverC2ERKNS_2spINS_8hardware7IBinderEEE
_ZTCN7android10frameworks14displayservice4V1_014IEventCallbackE0_NS_4hidl4base4V1_05IBaseE
_ZTCN7android10frameworks14displayservice4V1_015IDisplayServiceE0_NS_4hidl4base4V1_05IBaseE
_ZTCN7android10frameworks14displayservice4V1_017BnHwEventCallbackE0_NS_4hidl4base4V1_08BnHwBaseE
_ZTCN7android10frameworks14displayservice4V1_017BnHwEventCallbackE0_NS_8hardware7IBinderE
_ZTCN7android10frameworks14displayservice4V1_017BnHwEventCallbackE0_NS_8hardware9BHwBinderE
_ZTCN7android10frameworks14displayservice4V1_017BpHwEventCallbackE0_NS2_14IEventCallbackE
_ZTCN7android10frameworks14displayservice4V1_017BpHwEventCallbackE0_NS_4hidl4base4V1_05IBaseE
_ZTCN7android10frameworks14displayservice4V1_017BpHwEventCallbackE0_NS_8hardware11BpInterfaceINS2_14IEventCallbackEEE
_ZTCN7android10frameworks14displayservice4V1_017BpHwEventCallbackE4_NS_8hardware10IInterfaceE
_ZTCN7android10frameworks14displayservice4V1_017BpHwEventCallbackE8_NS_8hardware11BpHwRefBaseE
_ZTCN7android10frameworks14displayservice4V1_018BnHwDisplayServiceE0_NS_4hidl4base4V1_08BnHwBaseE
_ZTCN7android10frameworks14displayservice4V1_018BnHwDisplayServiceE0_NS_8hardware7IBinderE
_ZTCN7android10frameworks14displayservice4V1_018BnHwDisplayServiceE0_NS_8hardware9BHwBinderE
_ZTCN7android10frameworks14displayservice4V1_018BpHwDisplayServiceE0_NS2_15IDisplayServiceE
_ZTCN7android10frameworks14displayservice4V1_018BpHwDisplayServiceE0_NS_4hidl4base4V1_05IBaseE
_ZTCN7android10frameworks14displayservice4V1_018BpHwDisplayServiceE0_NS_8hardware11BpInterfaceINS2_15IDisplayServiceEEE
_ZTCN7android10frameworks14displayservice4V1_018BpHwDisplayServiceE4_NS_8hardware10IInterfaceE
_ZTCN7android10frameworks14displayservice4V1_018BpHwDisplayServiceE8_NS_8hardware11BpHwRefBaseE
_ZTCN7android10frameworks14displayservice4V1_021IDisplayEventReceiverE0_NS_4hidl4base4V1_05IBaseE
_ZTCN7android10frameworks14displayservice4V1_024BnHwDisplayEventReceiverE0_NS_4hidl4base4V1_08BnHwBaseE
_ZTCN7android10frameworks14displayservice4V1_024BnHwDisplayEventReceiverE0_NS_8hardware7IBinderE
_ZTCN7android10frameworks14displayservice4V1_024BnHwDisplayEventReceiverE0_NS_8hardware9BHwBinderE
_ZTCN7android10frameworks14displayservice4V1_024BpHwDisplayEventReceiverE0_NS2_21IDisplayEventReceiverE
_ZTCN7android10frameworks14displayservice4V1_024BpHwDisplayEventReceiverE0_NS_4hidl4base4V1_05IBaseE
_ZTCN7android10frameworks14displayservice4V1_024BpHwDisplayEventReceiverE0_NS_8hardware11BpInterfaceINS2_21IDisplayEventReceiverEEE
_ZTCN7android10frameworks14displayservice4V1_024BpHwDisplayEventReceiverE4_NS_8hardware10IInterfaceE
_ZTCN7android10frameworks14displayservice4V1_024BpHwDisplayEventReceiverE8_NS_8hardware11BpHwRefBaseE
_ZTTN7android10frameworks14displayservice4V1_014IEventCallbackE
_ZTTN7android10frameworks14displayservice4V1_015IDisplayServiceE
_ZTTN7android10frameworks14displayservice4V1_017BnHwEventCallbackE
_ZTTN7android10frameworks14displayservice4V1_017BpHwEventCallbackE
_ZTTN7android10frameworks14displayservice4V1_018BnHwDisplayServiceE
_ZTTN7android10frameworks14displayservice4V1_018BpHwDisplayServiceE
_ZTTN7android10frameworks14displayservice4V1_021IDisplayEventReceiverE
_ZTTN7android10frameworks14displayservice4V1_024BnHwDisplayEventReceiverE
_ZTTN7android10frameworks14displayservice4V1_024BpHwDisplayEventReceiverE
_ZTVN7android10frameworks14displayservice4V1_014IEventCallbackE
_ZTVN7android10frameworks14displayservice4V1_015IDisplayServiceE
_ZTVN7android10frameworks14displayservice4V1_017BnHwEventCallbackE
_ZTVN7android10frameworks14displayservice4V1_017BpHwEventCallbackE
_ZTVN7android10frameworks14displayservice4V1_018BnHwDisplayServiceE
_ZTVN7android10frameworks14displayservice4V1_018BpHwDisplayServiceE
_ZTVN7android10frameworks14displayservice4V1_021IDisplayEventReceiverE
_ZTVN7android10frameworks14displayservice4V1_024BnHwDisplayEventReceiverE
_ZTVN7android10frameworks14displayservice4V1_024BpHwDisplayEventReceiverE
_ZThn20_N7android10frameworks14displayservice4V1_017BnHwEventCallbackD0Ev
_ZThn20_N7android10frameworks14displayservice4V1_017BnHwEventCallbackD1Ev
_ZThn20_N7android10frameworks14displayservice4V1_018BnHwDisplayServiceD0Ev
_ZThn20_N7android10frameworks14displayservice4V1_018BnHwDisplayServiceD1Ev
_ZThn20_N7android10frameworks14displayservice4V1_024BnHwDisplayEventReceiverD0Ev
_ZThn20_N7android10frameworks14displayservice4V1_024BnHwDisplayEventReceiverD1Ev
_ZTv0_n12_N7android10frameworks14displayservice4V1_017BnHwEventCallbackD0Ev
_ZTv0_n12_N7android10frameworks14displayservice4V1_017BnHwEventCallbackD1Ev
_ZTv0_n12_N7android10frameworks14displayservice4V1_018BnHwDisplayServiceD0Ev
_ZTv0_n12_N7android10frameworks14displayservice4V1_018BnHwDisplayServiceD1Ev
_ZTv0_n12_N7android10frameworks14displayservice4V1_024BnHwDisplayEventReceiverD0Ev
_ZTv0_n12_N7android10frameworks14displayservice4V1_024BnHwDisplayEventReceiverD1Ev
