vtable for android::hardware::automotive::audiocontrol::V1_0::BpHwAudioControl
_ZTVN7android8hardware10automotive12audiocontrol4V1_016BpHwAudioControlE: 20 entries
16    (int (*)(...)) _ZN7android8hardware10automotive12audiocontrol4V1_016BpHwAudioControl14interfaceChainENSt3__18functionIFvRKNS0_8hidl_vecINS0_11hidl_stringEEEEEE
20    (int (*)(...)) _ZN7android8hardware10automotive12audiocontrol4V1_016BpHwAudioControl5debugERKNS0_11hidl_handleERKNS0_8hidl_vecINS0_11hidl_stringEEE
24    (int (*)(...)) _ZN7android8hardware10automotive12audiocontrol4V1_016BpHwAudioControl19interfaceDescriptorENSt3__18functionIFvRKNS0_11hidl_stringEEEE
28    (int (*)(...)) _ZN7android8hardware10automotive12audiocontrol4V1_016BpHwAudioControl12getHashChainENSt3__18functionIFvRKNS0_8hidl_vecINS0_10hidl_arrayIhLj32EJEEEEEEEE
32    (int (*)(...)) _ZN7android8hardware10automotive12audiocontrol4V1_016BpHwAudioControl21setHALInstrumentationEv
36    (int (*)(...)) _ZN7android8hardware10automotive12audiocontrol4V1_016BpHwAudioControl11linkToDeathERKNS_2spINS0_20hidl_death_recipientEEEy
40    (int (*)(...)) _ZN7android8hardware10automotive12audiocontrol4V1_016BpHwAudioControl4pingEv
44    (int (*)(...)) _ZN7android8hardware10automotive12audiocontrol4V1_016BpHwAudioControl12getDebugInfoENSt3__18functionIFvRKNS_4hidl4base4V1_09DebugInfoEEEE
48    (int (*)(...)) _ZN7android8hardware10automotive12audiocontrol4V1_016BpHwAudioControl21notifySyspropsChangedEv
52    (int (*)(...)) _ZN7android8hardware10automotive12audiocontrol4V1_016BpHwAudioControl13unlinkToDeathERKNS_2spINS0_20hidl_death_recipientEEE
64    (int (*)(...)) _ZN7android8hardware10automotive12audiocontrol4V1_016BpHwAudioControl16getBusForContextENS3_13ContextNumberE
68    (int (*)(...)) _ZN7android8hardware10automotive12audiocontrol4V1_016BpHwAudioControl21setBalanceTowardRightEf
72    (int (*)(...)) _ZN7android8hardware10automotive12audiocontrol4V1_016BpHwAudioControl18setFadeTowardFrontEf
124    (int (*)(...)) _ZN7android8hardware11BpHwRefBase10onFirstRefEv
128    (int (*)(...)) _ZN7android8hardware11BpHwRefBase15onLastStrongRefEPKv
132    (int (*)(...)) _ZN7android8hardware11BpHwRefBase20onIncStrongAttemptedEjPKv
188    (int (*)(...)) _ZTv0_n16_N7android8hardware11BpHwRefBase10onFirstRefEv
192    (int (*)(...)) _ZTv0_n20_N7android8hardware11BpHwRefBase15onLastStrongRefEPKv
196    (int (*)(...)) _ZTv0_n24_N7android8hardware11BpHwRefBase20onIncStrongAttemptedEjPKv
200    (int (*)(...)) _ZN7android7RefBase13onLastWeakRefEPKv


vtable for android::hardware::automotive::audiocontrol::V1_0::BnHwAudioControl
_ZTVN7android8hardware10automotive12audiocontrol4V1_016BnHwAudioControlE: 21 entries
12    (int (*)(...)) _ZN7android8hardware9BHwBinder8transactEjRKNS0_6ParcelEPS2_jNSt3__18functionIFvRS2_EEE
16    (int (*)(...)) _ZN7android8hardware9BHwBinder11linkToDeathERKNS_2spINS0_7IBinder14DeathRecipientEEEPvj
20    (int (*)(...)) _ZN7android8hardware9BHwBinder13unlinkToDeathERKNS_2wpINS0_7IBinder14DeathRecipientEEEPvjPS5_
24    (int (*)(...)) _ZNK7android8hardware7IBinder13checkSubclassEPKv
28    (int (*)(...)) _ZN7android8hardware9BHwBinder12attachObjectEPKvPvS4_PFvS3_S4_S4_E
32    (int (*)(...)) _ZNK7android8hardware9BHwBinder10findObjectEPKv
36    (int (*)(...)) _ZN7android8hardware9BHwBinder12detachObjectEPKv
40    (int (*)(...)) _ZN7android8hardware9BHwBinder11localBinderEv
44    (int (*)(...)) _ZN7android8hardware7IBinder12remoteBinderEv
48    (int (*)(...)) _ZN7android8hardware10automotive12audiocontrol4V1_016BnHwAudioControlD1Ev
52    (int (*)(...)) _ZN7android8hardware10automotive12audiocontrol4V1_016BnHwAudioControlD0Ev
56    (int (*)(...)) _ZN7android8hardware10automotive12audiocontrol4V1_016BnHwAudioControl10onTransactEjRKNS0_6ParcelEPS5_jNSt3__18functionIFvRS5_EEE
68    (int (*)(...)) _ZThn20_N7android8hardware10automotive12audiocontrol4V1_016BnHwAudioControlD1Ev
72    (int (*)(...)) _ZThn20_N7android8hardware10automotive12audiocontrol4V1_016BnHwAudioControlD0Ev
104    (int (*)(...)) _ZTv0_n12_N7android8hardware10automotive12audiocontrol4V1_016BnHwAudioControlD1Ev
108    (int (*)(...)) _ZTv0_n12_N7android8hardware10automotive12audiocontrol4V1_016BnHwAudioControlD0Ev
112    (int (*)(...)) _ZN7android7RefBase10onFirstRefEv
116    (int (*)(...)) _ZN7android7RefBase15onLastStrongRefEPKv
120    (int (*)(...)) _ZN7android7RefBase20onIncStrongAttemptedEjPKv
124    (int (*)(...)) _ZN7android7RefBase13onLastWeakRefEPKv
128    (int (*)(...)) _ZTVN7android8hardware10automotive12audiocontrol4V1_016BnHwAudioControlE


vtable for android::hardware::automotive::audiocontrol::V1_0::IAudioControl
_ZTVN7android8hardware10automotive12audiocontrol4V1_013IAudioControlE: 15 entries
16    (int (*)(...)) _ZN7android8hardware10automotive12audiocontrol4V1_013IAudioControl14interfaceChainENSt3__18functionIFvRKNS0_8hidl_vecINS0_11hidl_stringEEEEEE
20    (int (*)(...)) _ZN7android8hardware10automotive12audiocontrol4V1_013IAudioControl5debugERKNS0_11hidl_handleERKNS0_8hidl_vecINS0_11hidl_stringEEE
24    (int (*)(...)) _ZN7android8hardware10automotive12audiocontrol4V1_013IAudioControl19interfaceDescriptorENSt3__18functionIFvRKNS0_11hidl_stringEEEE
28    (int (*)(...)) _ZN7android8hardware10automotive12audiocontrol4V1_013IAudioControl12getHashChainENSt3__18functionIFvRKNS0_8hidl_vecINS0_10hidl_arrayIhLj32EJEEEEEEEE
32    (int (*)(...)) _ZN7android8hardware10automotive12audiocontrol4V1_013IAudioControl21setHALInstrumentationEv
36    (int (*)(...)) _ZN7android8hardware10automotive12audiocontrol4V1_013IAudioControl11linkToDeathERKNS_2spINS0_20hidl_death_recipientEEEy
40    (int (*)(...)) _ZN7android8hardware10automotive12audiocontrol4V1_013IAudioControl4pingEv
44    (int (*)(...)) _ZN7android8hardware10automotive12audiocontrol4V1_013IAudioControl12getDebugInfoENSt3__18functionIFvRKNS_4hidl4base4V1_09DebugInfoEEEE
48    (int (*)(...)) _ZN7android8hardware10automotive12audiocontrol4V1_013IAudioControl21notifySyspropsChangedEv
52    (int (*)(...)) _ZN7android8hardware10automotive12audiocontrol4V1_013IAudioControl13unlinkToDeathERKNS_2spINS0_20hidl_death_recipientEEE
112    (int (*)(...)) _ZN7android7RefBase10onFirstRefEv
116    (int (*)(...)) _ZN7android7RefBase15onLastStrongRefEPKv
120    (int (*)(...)) _ZN7android7RefBase20onIncStrongAttemptedEjPKv
124    (int (*)(...)) _ZN7android7RefBase13onLastWeakRefEPKv
128    (int (*)(...)) _ZTVN7android8hardware10automotive12audiocontrol4V1_013IAudioControlE
