_ZN7android8hardware3cas4V1_012ICasListener10descriptorE
_ZN7android8hardware3cas4V1_012ICasListener10getServiceERKNSt3__112basic_stringIcNS4_11char_traitsIcEENS4_9allocatorIcEEEEb
_ZN7android8hardware3cas4V1_012ICasListener11linkToDeathERKNS_2spINS0_20hidl_death_recipientEEEy
_ZN7android8hardware3cas4V1_012ICasListener12getDebugInfoENSt3__18functionIFvRKNS_4hidl4base4V1_09DebugInfoEEEE
_ZN7android8hardware3cas4V1_012ICasListener12getHashChainENSt3__18functionIFvRKNS0_8hidl_vecINS0_10hidl_arrayIhLj32EJEEEEEEEE
_ZN7android8hardware3cas4V1_012ICasListener13tryGetServiceERKNSt3__112basic_stringIcNS4_11char_traitsIcEENS4_9allocatorIcEEEEb
_ZN7android8hardware3cas4V1_012ICasListener13unlinkToDeathERKNS_2spINS0_20hidl_death_recipientEEE
_ZN7android8hardware3cas4V1_012ICasListener14interfaceChainENSt3__18functionIFvRKNS0_8hidl_vecINS0_11hidl_stringEEEEEE
_ZN7android8hardware3cas4V1_012ICasListener17registerAsServiceERKNSt3__112basic_stringIcNS4_11char_traitsIcEENS4_9allocatorIcEEEE
_ZN7android8hardware3cas4V1_012ICasListener19interfaceDescriptorENSt3__18functionIFvRKNS0_11hidl_stringEEEE
_ZN7android8hardware3cas4V1_012ICasListener21notifySyspropsChangedEv
_ZN7android8hardware3cas4V1_012ICasListener21setHALInstrumentationEv
_ZN7android8hardware3cas4V1_012ICasListener24registerForNotificationsERKNSt3__112basic_stringIcNS4_11char_traitsIcEENS4_9allocatorIcEEEERKNS_2spINS_4hidl7manager4V1_020IServiceNotificationEEE
_ZN7android8hardware3cas4V1_012ICasListener4pingEv
_ZN7android8hardware3cas4V1_012ICasListener5debugERKNS0_11hidl_handleERKNS0_8hidl_vecINS0_11hidl_stringEEE
_ZN7android8hardware3cas4V1_012ICasListener8castFromERKNS_2spINS_4hidl4base4V1_05IBaseEEEb
_ZN7android8hardware3cas4V1_012ICasListener8castFromERKNS_2spIS3_EEb
_ZN7android8hardware3cas4V1_013BsCasListener13addOnewayTaskENSt3__18functionIFvvEEE
_ZN7android8hardware3cas4V1_013BsCasListenerC1ENS_2spINS2_12ICasListenerEEE
_ZN7android8hardware3cas4V1_013BsCasListenerC2ENS_2spINS2_12ICasListenerEEE
_ZN7android8hardware3cas4V1_015BnHwCasListener10onTransactEjRKNS0_6ParcelEPS4_jNSt3__18functionIFvRS4_EEE
_ZN7android8hardware3cas4V1_015BnHwCasListener12getDebugInfoENSt3__18functionIFvRKNS_4hidl4base4V1_09DebugInfoEEEE
_ZN7android8hardware3cas4V1_015BnHwCasListener13_hidl_onEventEPNS_4hidl4base4V1_08BnHwBaseERKNS0_6ParcelEPS9_NSt3__18functionIFvRS9_EEE
_ZN7android8hardware3cas4V1_015BnHwCasListener4pingEv
_ZN7android8hardware3cas4V1_015BnHwCasListenerC1ERKNS_2spINS2_12ICasListenerEEE
_ZN7android8hardware3cas4V1_015BnHwCasListenerC2ERKNS_2spINS2_12ICasListenerEEE
_ZN7android8hardware3cas4V1_015BnHwCasListenerD0Ev
_ZN7android8hardware3cas4V1_015BnHwCasListenerD1Ev
_ZN7android8hardware3cas4V1_015BnHwCasListenerD2Ev
_ZN7android8hardware3cas4V1_015BpHwCasListener11linkToDeathERKNS_2spINS0_20hidl_death_recipientEEEy
_ZN7android8hardware3cas4V1_015BpHwCasListener12getDebugInfoENSt3__18functionIFvRKNS_4hidl4base4V1_09DebugInfoEEEE
_ZN7android8hardware3cas4V1_015BpHwCasListener12getHashChainENSt3__18functionIFvRKNS0_8hidl_vecINS0_10hidl_arrayIhLj32EJEEEEEEEE
_ZN7android8hardware3cas4V1_015BpHwCasListener13_hidl_onEventEPNS0_10IInterfaceEPNS0_7details16HidlInstrumentorEiiRKNS0_8hidl_vecIhEE
_ZN7android8hardware3cas4V1_015BpHwCasListener13unlinkToDeathERKNS_2spINS0_20hidl_death_recipientEEE
_ZN7android8hardware3cas4V1_015BpHwCasListener14interfaceChainENSt3__18functionIFvRKNS0_8hidl_vecINS0_11hidl_stringEEEEEE
_ZN7android8hardware3cas4V1_015BpHwCasListener19interfaceDescriptorENSt3__18functionIFvRKNS0_11hidl_stringEEEE
_ZN7android8hardware3cas4V1_015BpHwCasListener21notifySyspropsChangedEv
_ZN7android8hardware3cas4V1_015BpHwCasListener21setHALInstrumentationEv
_ZN7android8hardware3cas4V1_015BpHwCasListener4pingEv
_ZN7android8hardware3cas4V1_015BpHwCasListener5debugERKNS0_11hidl_handleERKNS0_8hidl_vecINS0_11hidl_stringEEE
_ZN7android8hardware3cas4V1_015BpHwCasListener7onEventEiiRKNS0_8hidl_vecIhEE
_ZN7android8hardware3cas4V1_015BpHwCasListenerC1ERKNS_2spINS0_7IBinderEEE
_ZN7android8hardware3cas4V1_015BpHwCasListenerC2ERKNS_2spINS0_7IBinderEEE
_ZN7android8hardware3cas4V1_016IDescramblerBase10descriptorE
_ZN7android8hardware3cas4V1_016IDescramblerBase10getServiceERKNSt3__112basic_stringIcNS4_11char_traitsIcEENS4_9allocatorIcEEEEb
_ZN7android8hardware3cas4V1_016IDescramblerBase11linkToDeathERKNS_2spINS0_20hidl_death_recipientEEEy
_ZN7android8hardware3cas4V1_016IDescramblerBase12getDebugInfoENSt3__18functionIFvRKNS_4hidl4base4V1_09DebugInfoEEEE
_ZN7android8hardware3cas4V1_016IDescramblerBase12getHashChainENSt3__18functionIFvRKNS0_8hidl_vecINS0_10hidl_arrayIhLj32EJEEEEEEEE
_ZN7android8hardware3cas4V1_016IDescramblerBase13tryGetServiceERKNSt3__112basic_stringIcNS4_11char_traitsIcEENS4_9allocatorIcEEEEb
_ZN7android8hardware3cas4V1_016IDescramblerBase13unlinkToDeathERKNS_2spINS0_20hidl_death_recipientEEE
_ZN7android8hardware3cas4V1_016IDescramblerBase14interfaceChainENSt3__18functionIFvRKNS0_8hidl_vecINS0_11hidl_stringEEEEEE
_ZN7android8hardware3cas4V1_016IDescramblerBase17registerAsServiceERKNSt3__112basic_stringIcNS4_11char_traitsIcEENS4_9allocatorIcEEEE
_ZN7android8hardware3cas4V1_016IDescramblerBase19interfaceDescriptorENSt3__18functionIFvRKNS0_11hidl_stringEEEE
_ZN7android8hardware3cas4V1_016IDescramblerBase21notifySyspropsChangedEv
_ZN7android8hardware3cas4V1_016IDescramblerBase21setHALInstrumentationEv
_ZN7android8hardware3cas4V1_016IDescramblerBase24registerForNotificationsERKNSt3__112basic_stringIcNS4_11char_traitsIcEENS4_9allocatorIcEEEERKNS_2spINS_4hidl7manager4V1_020IServiceNotificationEEE
_ZN7android8hardware3cas4V1_016IDescramblerBase4pingEv
_ZN7android8hardware3cas4V1_016IDescramblerBase5debugERKNS0_11hidl_handleERKNS0_8hidl_vecINS0_11hidl_stringEEE
_ZN7android8hardware3cas4V1_016IDescramblerBase8castFromERKNS_2spINS_4hidl4base4V1_05IBaseEEEb
_ZN7android8hardware3cas4V1_016IDescramblerBase8castFromERKNS_2spIS3_EEb
_ZN7android8hardware3cas4V1_016IMediaCasService10descriptorE
_ZN7android8hardware3cas4V1_016IMediaCasService10getServiceERKNSt3__112basic_stringIcNS4_11char_traitsIcEENS4_9allocatorIcEEEEb
_ZN7android8hardware3cas4V1_016IMediaCasService11linkToDeathERKNS_2spINS0_20hidl_death_recipientEEEy
_ZN7android8hardware3cas4V1_016IMediaCasService12getDebugInfoENSt3__18functionIFvRKNS_4hidl4base4V1_09DebugInfoEEEE
_ZN7android8hardware3cas4V1_016IMediaCasService12getHashChainENSt3__18functionIFvRKNS0_8hidl_vecINS0_10hidl_arrayIhLj32EJEEEEEEEE
_ZN7android8hardware3cas4V1_016IMediaCasService13tryGetServiceERKNSt3__112basic_stringIcNS4_11char_traitsIcEENS4_9allocatorIcEEEEb
_ZN7android8hardware3cas4V1_016IMediaCasService13unlinkToDeathERKNS_2spINS0_20hidl_death_recipientEEE
_ZN7android8hardware3cas4V1_016IMediaCasService14interfaceChainENSt3__18functionIFvRKNS0_8hidl_vecINS0_11hidl_stringEEEEEE
_ZN7android8hardware3cas4V1_016IMediaCasService17registerAsServiceERKNSt3__112basic_stringIcNS4_11char_traitsIcEENS4_9allocatorIcEEEE
_ZN7android8hardware3cas4V1_016IMediaCasService19interfaceDescriptorENSt3__18functionIFvRKNS0_11hidl_stringEEEE
_ZN7android8hardware3cas4V1_016IMediaCasService21notifySyspropsChangedEv
_ZN7android8hardware3cas4V1_016IMediaCasService21setHALInstrumentationEv
_ZN7android8hardware3cas4V1_016IMediaCasService24registerForNotificationsERKNSt3__112basic_stringIcNS4_11char_traitsIcEENS4_9allocatorIcEEEERKNS_2spINS_4hidl7manager4V1_020IServiceNotificationEEE
_ZN7android8hardware3cas4V1_016IMediaCasService4pingEv
_ZN7android8hardware3cas4V1_016IMediaCasService5debugERKNS0_11hidl_handleERKNS0_8hidl_vecINS0_11hidl_stringEEE
_ZN7android8hardware3cas4V1_016IMediaCasService8castFromERKNS_2spINS_4hidl4base4V1_05IBaseEEEb
_ZN7android8hardware3cas4V1_016IMediaCasService8castFromERKNS_2spIS3_EEb
_ZN7android8hardware3cas4V1_017BsDescramblerBase13addOnewayTaskENSt3__18functionIFvvEEE
_ZN7android8hardware3cas4V1_017BsDescramblerBaseC1ENS_2spINS2_16IDescramblerBaseEEE
_ZN7android8hardware3cas4V1_017BsDescramblerBaseC2ENS_2spINS2_16IDescramblerBaseEEE
_ZN7android8hardware3cas4V1_017BsMediaCasService13addOnewayTaskENSt3__18functionIFvvEEE
_ZN7android8hardware3cas4V1_017BsMediaCasServiceC1ENS_2spINS2_16IMediaCasServiceEEE
_ZN7android8hardware3cas4V1_017BsMediaCasServiceC2ENS_2spINS2_16IMediaCasServiceEEE
_ZN7android8hardware3cas4V1_019BnHwDescramblerBase10onTransactEjRKNS0_6ParcelEPS4_jNSt3__18functionIFvRS4_EEE
_ZN7android8hardware3cas4V1_019BnHwDescramblerBase12getDebugInfoENSt3__18functionIFvRKNS_4hidl4base4V1_09DebugInfoEEEE
_ZN7android8hardware3cas4V1_019BnHwDescramblerBase13_hidl_releaseEPNS_4hidl4base4V1_08BnHwBaseERKNS0_6ParcelEPS9_NSt3__18functionIFvRS9_EEE
_ZN7android8hardware3cas4V1_019BnHwDescramblerBase24_hidl_setMediaCasSessionEPNS_4hidl4base4V1_08BnHwBaseERKNS0_6ParcelEPS9_NSt3__18functionIFvRS9_EEE
_ZN7android8hardware3cas4V1_019BnHwDescramblerBase36_hidl_requiresSecureDecoderComponentEPNS_4hidl4base4V1_08BnHwBaseERKNS0_6ParcelEPS9_NSt3__18functionIFvRS9_EEE
_ZN7android8hardware3cas4V1_019BnHwDescramblerBase4pingEv
_ZN7android8hardware3cas4V1_019BnHwDescramblerBaseC1ERKNS_2spINS2_16IDescramblerBaseEEE
_ZN7android8hardware3cas4V1_019BnHwDescramblerBaseC2ERKNS_2spINS2_16IDescramblerBaseEEE
_ZN7android8hardware3cas4V1_019BnHwDescramblerBaseD0Ev
_ZN7android8hardware3cas4V1_019BnHwDescramblerBaseD1Ev
_ZN7android8hardware3cas4V1_019BnHwDescramblerBaseD2Ev
_ZN7android8hardware3cas4V1_019BnHwMediaCasService10onTransactEjRKNS0_6ParcelEPS4_jNSt3__18functionIFvRS4_EEE
_ZN7android8hardware3cas4V1_019BnHwMediaCasService12getDebugInfoENSt3__18functionIFvRKNS_4hidl4base4V1_09DebugInfoEEEE
_ZN7android8hardware3cas4V1_019BnHwMediaCasService18_hidl_createPluginEPNS_4hidl4base4V1_08BnHwBaseERKNS0_6ParcelEPS9_NSt3__18functionIFvRS9_EEE
_ZN7android8hardware3cas4V1_019BnHwMediaCasService22_hidl_enumeratePluginsEPNS_4hidl4base4V1_08BnHwBaseERKNS0_6ParcelEPS9_NSt3__18functionIFvRS9_EEE
_ZN7android8hardware3cas4V1_019BnHwMediaCasService23_hidl_createDescramblerEPNS_4hidl4base4V1_08BnHwBaseERKNS0_6ParcelEPS9_NSt3__18functionIFvRS9_EEE
_ZN7android8hardware3cas4V1_019BnHwMediaCasService25_hidl_isSystemIdSupportedEPNS_4hidl4base4V1_08BnHwBaseERKNS0_6ParcelEPS9_NSt3__18functionIFvRS9_EEE
_ZN7android8hardware3cas4V1_019BnHwMediaCasService28_hidl_isDescramblerSupportedEPNS_4hidl4base4V1_08BnHwBaseERKNS0_6ParcelEPS9_NSt3__18functionIFvRS9_EEE
_ZN7android8hardware3cas4V1_019BnHwMediaCasService4pingEv
_ZN7android8hardware3cas4V1_019BnHwMediaCasServiceC1ERKNS_2spINS2_16IMediaCasServiceEEE
_ZN7android8hardware3cas4V1_019BnHwMediaCasServiceC2ERKNS_2spINS2_16IMediaCasServiceEEE
_ZN7android8hardware3cas4V1_019BnHwMediaCasServiceD0Ev
_ZN7android8hardware3cas4V1_019BnHwMediaCasServiceD1Ev
_ZN7android8hardware3cas4V1_019BnHwMediaCasServiceD2Ev
_ZN7android8hardware3cas4V1_019BpHwDescramblerBase11linkToDeathERKNS_2spINS0_20hidl_death_recipientEEEy
_ZN7android8hardware3cas4V1_019BpHwDescramblerBase12getDebugInfoENSt3__18functionIFvRKNS_4hidl4base4V1_09DebugInfoEEEE
_ZN7android8hardware3cas4V1_019BpHwDescramblerBase12getHashChainENSt3__18functionIFvRKNS0_8hidl_vecINS0_10hidl_arrayIhLj32EJEEEEEEEE
_ZN7android8hardware3cas4V1_019BpHwDescramblerBase13_hidl_releaseEPNS0_10IInterfaceEPNS0_7details16HidlInstrumentorE
_ZN7android8hardware3cas4V1_019BpHwDescramblerBase13unlinkToDeathERKNS_2spINS0_20hidl_death_recipientEEE
_ZN7android8hardware3cas4V1_019BpHwDescramblerBase14interfaceChainENSt3__18functionIFvRKNS0_8hidl_vecINS0_11hidl_stringEEEEEE
_ZN7android8hardware3cas4V1_019BpHwDescramblerBase18setMediaCasSessionERKNS0_8hidl_vecIhEE
_ZN7android8hardware3cas4V1_019BpHwDescramblerBase19interfaceDescriptorENSt3__18functionIFvRKNS0_11hidl_stringEEEE
_ZN7android8hardware3cas4V1_019BpHwDescramblerBase21notifySyspropsChangedEv
_ZN7android8hardware3cas4V1_019BpHwDescramblerBase21setHALInstrumentationEv
_ZN7android8hardware3cas4V1_019BpHwDescramblerBase24_hidl_setMediaCasSessionEPNS0_10IInterfaceEPNS0_7details16HidlInstrumentorERKNS0_8hidl_vecIhEE
_ZN7android8hardware3cas4V1_019BpHwDescramblerBase30requiresSecureDecoderComponentERKNS0_11hidl_stringE
_ZN7android8hardware3cas4V1_019BpHwDescramblerBase36_hidl_requiresSecureDecoderComponentEPNS0_10IInterfaceEPNS0_7details16HidlInstrumentorERKNS0_11hidl_stringE
_ZN7android8hardware3cas4V1_019BpHwDescramblerBase4pingEv
_ZN7android8hardware3cas4V1_019BpHwDescramblerBase5debugERKNS0_11hidl_handleERKNS0_8hidl_vecINS0_11hidl_stringEEE
_ZN7android8hardware3cas4V1_019BpHwDescramblerBase7releaseEv
_ZN7android8hardware3cas4V1_019BpHwDescramblerBaseC1ERKNS_2spINS0_7IBinderEEE
_ZN7android8hardware3cas4V1_019BpHwDescramblerBaseC2ERKNS_2spINS0_7IBinderEEE
_ZN7android8hardware3cas4V1_019BpHwMediaCasService11linkToDeathERKNS_2spINS0_20hidl_death_recipientEEEy
_ZN7android8hardware3cas4V1_019BpHwMediaCasService12createPluginEiRKNS_2spINS2_12ICasListenerEEE
_ZN7android8hardware3cas4V1_019BpHwMediaCasService12getDebugInfoENSt3__18functionIFvRKNS_4hidl4base4V1_09DebugInfoEEEE
_ZN7android8hardware3cas4V1_019BpHwMediaCasService12getHashChainENSt3__18functionIFvRKNS0_8hidl_vecINS0_10hidl_arrayIhLj32EJEEEEEEEE
_ZN7android8hardware3cas4V1_019BpHwMediaCasService13unlinkToDeathERKNS_2spINS0_20hidl_death_recipientEEE
_ZN7android8hardware3cas4V1_019BpHwMediaCasService14interfaceChainENSt3__18functionIFvRKNS0_8hidl_vecINS0_11hidl_stringEEEEEE
_ZN7android8hardware3cas4V1_019BpHwMediaCasService16enumeratePluginsENSt3__18functionIFvRKNS0_8hidl_vecINS2_23HidlCasPluginDescriptorEEEEEE
_ZN7android8hardware3cas4V1_019BpHwMediaCasService17createDescramblerEi
_ZN7android8hardware3cas4V1_019BpHwMediaCasService18_hidl_createPluginEPNS0_10IInterfaceEPNS0_7details16HidlInstrumentorEiRKNS_2spINS2_12ICasListenerEEE
_ZN7android8hardware3cas4V1_019BpHwMediaCasService19interfaceDescriptorENSt3__18functionIFvRKNS0_11hidl_stringEEEE
_ZN7android8hardware3cas4V1_019BpHwMediaCasService19isSystemIdSupportedEi
_ZN7android8hardware3cas4V1_019BpHwMediaCasService21notifySyspropsChangedEv
_ZN7android8hardware3cas4V1_019BpHwMediaCasService21setHALInstrumentationEv
_ZN7android8hardware3cas4V1_019BpHwMediaCasService22_hidl_enumeratePluginsEPNS0_10IInterfaceEPNS0_7details16HidlInstrumentorENSt3__18functionIFvRKNS0_8hidl_vecINS2_23HidlCasPluginDescriptorEEEEEE
_ZN7android8hardware3cas4V1_019BpHwMediaCasService22isDescramblerSupportedEi
_ZN7android8hardware3cas4V1_019BpHwMediaCasService23_hidl_createDescramblerEPNS0_10IInterfaceEPNS0_7details16HidlInstrumentorEi
_ZN7android8hardware3cas4V1_019BpHwMediaCasService25_hidl_isSystemIdSupportedEPNS0_10IInterfaceEPNS0_7details16HidlInstrumentorEi
_ZN7android8hardware3cas4V1_019BpHwMediaCasService28_hidl_isDescramblerSupportedEPNS0_10IInterfaceEPNS0_7details16HidlInstrumentorEi
_ZN7android8hardware3cas4V1_019BpHwMediaCasService4pingEv
_ZN7android8hardware3cas4V1_019BpHwMediaCasService5debugERKNS0_11hidl_handleERKNS0_8hidl_vecINS0_11hidl_stringEEE
_ZN7android8hardware3cas4V1_019BpHwMediaCasServiceC1ERKNS_2spINS0_7IBinderEEE
_ZN7android8hardware3cas4V1_019BpHwMediaCasServiceC2ERKNS_2spINS0_7IBinderEEE
_ZN7android8hardware3cas4V1_021writeEmbeddedToParcelERKNS2_23HidlCasPluginDescriptorEPNS0_6ParcelEjj
_ZN7android8hardware3cas4V1_022readEmbeddedFromParcelERKNS2_23HidlCasPluginDescriptorERKNS0_6ParcelEjj
_ZN7android8hardware3cas4V1_04ICas10descriptorE
_ZN7android8hardware3cas4V1_04ICas10getServiceERKNSt3__112basic_stringIcNS4_11char_traitsIcEENS4_9allocatorIcEEEEb
_ZN7android8hardware3cas4V1_04ICas11linkToDeathERKNS_2spINS0_20hidl_death_recipientEEEy
_ZN7android8hardware3cas4V1_04ICas12getDebugInfoENSt3__18functionIFvRKNS_4hidl4base4V1_09DebugInfoEEEE
_ZN7android8hardware3cas4V1_04ICas12getHashChainENSt3__18functionIFvRKNS0_8hidl_vecINS0_10hidl_arrayIhLj32EJEEEEEEEE
_ZN7android8hardware3cas4V1_04ICas13tryGetServiceERKNSt3__112basic_stringIcNS4_11char_traitsIcEENS4_9allocatorIcEEEEb
_ZN7android8hardware3cas4V1_04ICas13unlinkToDeathERKNS_2spINS0_20hidl_death_recipientEEE
_ZN7android8hardware3cas4V1_04ICas14interfaceChainENSt3__18functionIFvRKNS0_8hidl_vecINS0_11hidl_stringEEEEEE
_ZN7android8hardware3cas4V1_04ICas17registerAsServiceERKNSt3__112basic_stringIcNS4_11char_traitsIcEENS4_9allocatorIcEEEE
_ZN7android8hardware3cas4V1_04ICas19interfaceDescriptorENSt3__18functionIFvRKNS0_11hidl_stringEEEE
_ZN7android8hardware3cas4V1_04ICas21notifySyspropsChangedEv
_ZN7android8hardware3cas4V1_04ICas21setHALInstrumentationEv
_ZN7android8hardware3cas4V1_04ICas24registerForNotificationsERKNSt3__112basic_stringIcNS4_11char_traitsIcEENS4_9allocatorIcEEEERKNS_2spINS_4hidl7manager4V1_020IServiceNotificationEEE
_ZN7android8hardware3cas4V1_04ICas4pingEv
_ZN7android8hardware3cas4V1_04ICas5debugERKNS0_11hidl_handleERKNS0_8hidl_vecINS0_11hidl_stringEEE
_ZN7android8hardware3cas4V1_04ICas8castFromERKNS_2spINS_4hidl4base4V1_05IBaseEEEb
_ZN7android8hardware3cas4V1_04ICas8castFromERKNS_2spIS3_EEb
_ZN7android8hardware3cas4V1_05BsCas13addOnewayTaskENSt3__18functionIFvvEEE
_ZN7android8hardware3cas4V1_05BsCasC1ENS_2spINS2_4ICasEEE
_ZN7android8hardware3cas4V1_05BsCasC2ENS_2spINS2_4ICasEEE
_ZN7android8hardware3cas4V1_07BnHwCas10onTransactEjRKNS0_6ParcelEPS4_jNSt3__18functionIFvRS4_EEE
_ZN7android8hardware3cas4V1_07BnHwCas12getDebugInfoENSt3__18functionIFvRKNS_4hidl4base4V1_09DebugInfoEEEE
_ZN7android8hardware3cas4V1_07BnHwCas13_hidl_releaseEPNS_4hidl4base4V1_08BnHwBaseERKNS0_6ParcelEPS9_NSt3__18functionIFvRS9_EEE
_ZN7android8hardware3cas4V1_07BnHwCas15_hidl_provisionEPNS_4hidl4base4V1_08BnHwBaseERKNS0_6ParcelEPS9_NSt3__18functionIFvRS9_EEE
_ZN7android8hardware3cas4V1_07BnHwCas15_hidl_sendEventEPNS_4hidl4base4V1_08BnHwBaseERKNS0_6ParcelEPS9_NSt3__18functionIFvRS9_EEE
_ZN7android8hardware3cas4V1_07BnHwCas16_hidl_processEcmEPNS_4hidl4base4V1_08BnHwBaseERKNS0_6ParcelEPS9_NSt3__18functionIFvRS9_EEE
_ZN7android8hardware3cas4V1_07BnHwCas16_hidl_processEmmEPNS_4hidl4base4V1_08BnHwBaseERKNS0_6ParcelEPS9_NSt3__18functionIFvRS9_EEE
_ZN7android8hardware3cas4V1_07BnHwCas17_hidl_openSessionEPNS_4hidl4base4V1_08BnHwBaseERKNS0_6ParcelEPS9_NSt3__18functionIFvRS9_EEE
_ZN7android8hardware3cas4V1_07BnHwCas18_hidl_closeSessionEPNS_4hidl4base4V1_08BnHwBaseERKNS0_6ParcelEPS9_NSt3__18functionIFvRS9_EEE
_ZN7android8hardware3cas4V1_07BnHwCas20_hidl_setPrivateDataEPNS_4hidl4base4V1_08BnHwBaseERKNS0_6ParcelEPS9_NSt3__18functionIFvRS9_EEE
_ZN7android8hardware3cas4V1_07BnHwCas25_hidl_refreshEntitlementsEPNS_4hidl4base4V1_08BnHwBaseERKNS0_6ParcelEPS9_NSt3__18functionIFvRS9_EEE
_ZN7android8hardware3cas4V1_07BnHwCas27_hidl_setSessionPrivateDataEPNS_4hidl4base4V1_08BnHwBaseERKNS0_6ParcelEPS9_NSt3__18functionIFvRS9_EEE
_ZN7android8hardware3cas4V1_07BnHwCas4pingEv
_ZN7android8hardware3cas4V1_07BnHwCasC1ERKNS_2spINS2_4ICasEEE
_ZN7android8hardware3cas4V1_07BnHwCasC2ERKNS_2spINS2_4ICasEEE
_ZN7android8hardware3cas4V1_07BnHwCasD0Ev
_ZN7android8hardware3cas4V1_07BnHwCasD1Ev
_ZN7android8hardware3cas4V1_07BnHwCasD2Ev
_ZN7android8hardware3cas4V1_07BpHwCas10processEcmERKNS0_8hidl_vecIhEES7_
_ZN7android8hardware3cas4V1_07BpHwCas10processEmmERKNS0_8hidl_vecIhEE
_ZN7android8hardware3cas4V1_07BpHwCas11linkToDeathERKNS_2spINS0_20hidl_death_recipientEEEy
_ZN7android8hardware3cas4V1_07BpHwCas11openSessionENSt3__18functionIFvNS2_6StatusERKNS0_8hidl_vecIhEEEEE
_ZN7android8hardware3cas4V1_07BpHwCas12closeSessionERKNS0_8hidl_vecIhEE
_ZN7android8hardware3cas4V1_07BpHwCas12getDebugInfoENSt3__18functionIFvRKNS_4hidl4base4V1_09DebugInfoEEEE
_ZN7android8hardware3cas4V1_07BpHwCas12getHashChainENSt3__18functionIFvRKNS0_8hidl_vecINS0_10hidl_arrayIhLj32EJEEEEEEEE
_ZN7android8hardware3cas4V1_07BpHwCas13_hidl_releaseEPNS0_10IInterfaceEPNS0_7details16HidlInstrumentorE
_ZN7android8hardware3cas4V1_07BpHwCas13unlinkToDeathERKNS_2spINS0_20hidl_death_recipientEEE
_ZN7android8hardware3cas4V1_07BpHwCas14interfaceChainENSt3__18functionIFvRKNS0_8hidl_vecINS0_11hidl_stringEEEEEE
_ZN7android8hardware3cas4V1_07BpHwCas14setPrivateDataERKNS0_8hidl_vecIhEE
_ZN7android8hardware3cas4V1_07BpHwCas15_hidl_provisionEPNS0_10IInterfaceEPNS0_7details16HidlInstrumentorERKNS0_11hidl_stringE
_ZN7android8hardware3cas4V1_07BpHwCas15_hidl_sendEventEPNS0_10IInterfaceEPNS0_7details16HidlInstrumentorEiiRKNS0_8hidl_vecIhEE
_ZN7android8hardware3cas4V1_07BpHwCas16_hidl_processEcmEPNS0_10IInterfaceEPNS0_7details16HidlInstrumentorERKNS0_8hidl_vecIhEESC_
_ZN7android8hardware3cas4V1_07BpHwCas16_hidl_processEmmEPNS0_10IInterfaceEPNS0_7details16HidlInstrumentorERKNS0_8hidl_vecIhEE
_ZN7android8hardware3cas4V1_07BpHwCas17_hidl_openSessionEPNS0_10IInterfaceEPNS0_7details16HidlInstrumentorENSt3__18functionIFvNS2_6StatusERKNS0_8hidl_vecIhEEEEE
_ZN7android8hardware3cas4V1_07BpHwCas18_hidl_closeSessionEPNS0_10IInterfaceEPNS0_7details16HidlInstrumentorERKNS0_8hidl_vecIhEE
_ZN7android8hardware3cas4V1_07BpHwCas19interfaceDescriptorENSt3__18functionIFvRKNS0_11hidl_stringEEEE
_ZN7android8hardware3cas4V1_07BpHwCas19refreshEntitlementsEiRKNS0_8hidl_vecIhEE
_ZN7android8hardware3cas4V1_07BpHwCas20_hidl_setPrivateDataEPNS0_10IInterfaceEPNS0_7details16HidlInstrumentorERKNS0_8hidl_vecIhEE
_ZN7android8hardware3cas4V1_07BpHwCas21notifySyspropsChangedEv
_ZN7android8hardware3cas4V1_07BpHwCas21setHALInstrumentationEv
_ZN7android8hardware3cas4V1_07BpHwCas21setSessionPrivateDataERKNS0_8hidl_vecIhEES7_
_ZN7android8hardware3cas4V1_07BpHwCas25_hidl_refreshEntitlementsEPNS0_10IInterfaceEPNS0_7details16HidlInstrumentorEiRKNS0_8hidl_vecIhEE
_ZN7android8hardware3cas4V1_07BpHwCas27_hidl_setSessionPrivateDataEPNS0_10IInterfaceEPNS0_7details16HidlInstrumentorERKNS0_8hidl_vecIhEESC_
_ZN7android8hardware3cas4V1_07BpHwCas4pingEv
_ZN7android8hardware3cas4V1_07BpHwCas5debugERKNS0_11hidl_handleERKNS0_8hidl_vecINS0_11hidl_stringEEE
_ZN7android8hardware3cas4V1_07BpHwCas7releaseEv
_ZN7android8hardware3cas4V1_07BpHwCas9provisionERKNS0_11hidl_stringE
_ZN7android8hardware3cas4V1_07BpHwCas9sendEventEiiRKNS0_8hidl_vecIhEE
_ZN7android8hardware3cas4V1_07BpHwCasC1ERKNS_2spINS0_7IBinderEEE
_ZN7android8hardware3cas4V1_07BpHwCasC2ERKNS_2spINS0_7IBinderEEE
_ZTCN7android8hardware3cas4V1_012ICasListenerE0_NS_4hidl4base4V1_05IBaseE
_ZTCN7android8hardware3cas4V1_015BnHwCasListenerE0_NS0_7IBinderE
_ZTCN7android8hardware3cas4V1_015BnHwCasListenerE0_NS0_9BHwBinderE
_ZTCN7android8hardware3cas4V1_015BnHwCasListenerE0_NS_4hidl4base4V1_08BnHwBaseE
_ZTCN7android8hardware3cas4V1_015BpHwCasListenerE0_NS0_11BpInterfaceINS2_12ICasListenerEEE
_ZTCN7android8hardware3cas4V1_015BpHwCasListenerE0_NS2_12ICasListenerE
_ZTCN7android8hardware3cas4V1_015BpHwCasListenerE0_NS_4hidl4base4V1_05IBaseE
_ZTCN7android8hardware3cas4V1_015BpHwCasListenerE4_NS0_10IInterfaceE
_ZTCN7android8hardware3cas4V1_015BpHwCasListenerE8_NS0_11BpHwRefBaseE
_ZTCN7android8hardware3cas4V1_016IDescramblerBaseE0_NS_4hidl4base4V1_05IBaseE
_ZTCN7android8hardware3cas4V1_016IMediaCasServiceE0_NS_4hidl4base4V1_05IBaseE
_ZTCN7android8hardware3cas4V1_019BnHwDescramblerBaseE0_NS0_7IBinderE
_ZTCN7android8hardware3cas4V1_019BnHwDescramblerBaseE0_NS0_9BHwBinderE
_ZTCN7android8hardware3cas4V1_019BnHwDescramblerBaseE0_NS_4hidl4base4V1_08BnHwBaseE
_ZTCN7android8hardware3cas4V1_019BnHwMediaCasServiceE0_NS0_7IBinderE
_ZTCN7android8hardware3cas4V1_019BnHwMediaCasServiceE0_NS0_9BHwBinderE
_ZTCN7android8hardware3cas4V1_019BnHwMediaCasServiceE0_NS_4hidl4base4V1_08BnHwBaseE
_ZTCN7android8hardware3cas4V1_019BpHwDescramblerBaseE0_NS0_11BpInterfaceINS2_16IDescramblerBaseEEE
_ZTCN7android8hardware3cas4V1_019BpHwDescramblerBaseE0_NS2_16IDescramblerBaseE
_ZTCN7android8hardware3cas4V1_019BpHwDescramblerBaseE0_NS_4hidl4base4V1_05IBaseE
_ZTCN7android8hardware3cas4V1_019BpHwDescramblerBaseE4_NS0_10IInterfaceE
_ZTCN7android8hardware3cas4V1_019BpHwDescramblerBaseE8_NS0_11BpHwRefBaseE
_ZTCN7android8hardware3cas4V1_019BpHwMediaCasServiceE0_NS0_11BpInterfaceINS2_16IMediaCasServiceEEE
_ZTCN7android8hardware3cas4V1_019BpHwMediaCasServiceE0_NS2_16IMediaCasServiceE
_ZTCN7android8hardware3cas4V1_019BpHwMediaCasServiceE0_NS_4hidl4base4V1_05IBaseE
_ZTCN7android8hardware3cas4V1_019BpHwMediaCasServiceE4_NS0_10IInterfaceE
_ZTCN7android8hardware3cas4V1_019BpHwMediaCasServiceE8_NS0_11BpHwRefBaseE
_ZTCN7android8hardware3cas4V1_04ICasE0_NS_4hidl4base4V1_05IBaseE
_ZTCN7android8hardware3cas4V1_07BnHwCasE0_NS0_7IBinderE
_ZTCN7android8hardware3cas4V1_07BnHwCasE0_NS0_9BHwBinderE
_ZTCN7android8hardware3cas4V1_07BnHwCasE0_NS_4hidl4base4V1_08BnHwBaseE
_ZTCN7android8hardware3cas4V1_07BpHwCasE0_NS0_11BpInterfaceINS2_4ICasEEE
_ZTCN7android8hardware3cas4V1_07BpHwCasE0_NS2_4ICasE
_ZTCN7android8hardware3cas4V1_07BpHwCasE0_NS_4hidl4base4V1_05IBaseE
_ZTCN7android8hardware3cas4V1_07BpHwCasE4_NS0_10IInterfaceE
_ZTCN7android8hardware3cas4V1_07BpHwCasE8_NS0_11BpHwRefBaseE
_ZTTN7android8hardware3cas4V1_012ICasListenerE
_ZTTN7android8hardware3cas4V1_015BnHwCasListenerE
_ZTTN7android8hardware3cas4V1_015BpHwCasListenerE
_ZTTN7android8hardware3cas4V1_016IDescramblerBaseE
_ZTTN7android8hardware3cas4V1_016IMediaCasServiceE
_ZTTN7android8hardware3cas4V1_019BnHwDescramblerBaseE
_ZTTN7android8hardware3cas4V1_019BnHwMediaCasServiceE
_ZTTN7android8hardware3cas4V1_019BpHwDescramblerBaseE
_ZTTN7android8hardware3cas4V1_019BpHwMediaCasServiceE
_ZTTN7android8hardware3cas4V1_04ICasE
_ZTTN7android8hardware3cas4V1_07BnHwCasE
_ZTTN7android8hardware3cas4V1_07BpHwCasE
_ZTVN7android8hardware3cas4V1_012ICasListenerE
_ZTVN7android8hardware3cas4V1_015BnHwCasListenerE
_ZTVN7android8hardware3cas4V1_015BpHwCasListenerE
_ZTVN7android8hardware3cas4V1_016IDescramblerBaseE
_ZTVN7android8hardware3cas4V1_016IMediaCasServiceE
_ZTVN7android8hardware3cas4V1_019BnHwDescramblerBaseE
_ZTVN7android8hardware3cas4V1_019BnHwMediaCasServiceE
_ZTVN7android8hardware3cas4V1_019BpHwDescramblerBaseE
_ZTVN7android8hardware3cas4V1_019BpHwMediaCasServiceE
_ZTVN7android8hardware3cas4V1_04ICasE
_ZTVN7android8hardware3cas4V1_07BnHwCasE
_ZTVN7android8hardware3cas4V1_07BpHwCasE
_ZThn20_N7android8hardware3cas4V1_015BnHwCasListenerD0Ev
_ZThn20_N7android8hardware3cas4V1_015BnHwCasListenerD1Ev
_ZThn20_N7android8hardware3cas4V1_019BnHwDescramblerBaseD0Ev
_ZThn20_N7android8hardware3cas4V1_019BnHwDescramblerBaseD1Ev
_ZThn20_N7android8hardware3cas4V1_019BnHwMediaCasServiceD0Ev
_ZThn20_N7android8hardware3cas4V1_019BnHwMediaCasServiceD1Ev
_ZThn20_N7android8hardware3cas4V1_07BnHwCasD0Ev
_ZThn20_N7android8hardware3cas4V1_07BnHwCasD1Ev
_ZTv0_n12_N7android8hardware3cas4V1_015BnHwCasListenerD0Ev
_ZTv0_n12_N7android8hardware3cas4V1_015BnHwCasListenerD1Ev
_ZTv0_n12_N7android8hardware3cas4V1_019BnHwDescramblerBaseD0Ev
_ZTv0_n12_N7android8hardware3cas4V1_019BnHwDescramblerBaseD1Ev
_ZTv0_n12_N7android8hardware3cas4V1_019BnHwMediaCasServiceD0Ev
_ZTv0_n12_N7android8hardware3cas4V1_019BnHwMediaCasServiceD1Ev
_ZTv0_n12_N7android8hardware3cas4V1_07BnHwCasD0Ev
_ZTv0_n12_N7android8hardware3cas4V1_07BnHwCasD1Ev
