_ZN7android8hardware3nfc4V1_118INfcClientCallback10descriptorE
_ZN7android8hardware3nfc4V1_118INfcClientCallback10getServiceERKNSt3__112basic_stringIcNS4_11char_traitsIcEENS4_9allocatorIcEEEEb
_ZN7android8hardware3nfc4V1_118INfcClientCallback11linkToDeathERKNS_2spINS0_20hidl_death_recipientEEEy
_ZN7android8hardware3nfc4V1_118INfcClientCallback12getDebugInfoENSt3__18functionIFvRKNS_4hidl4base4V1_09DebugInfoEEEE
_ZN7android8hardware3nfc4V1_118INfcClientCallback12getHashChainENSt3__18functionIFvRKNS0_8hidl_vecINS0_10hidl_arrayIhLj32EJEEEEEEEE
_ZN7android8hardware3nfc4V1_118INfcClientCallback13tryGetServiceERKNSt3__112basic_stringIcNS4_11char_traitsIcEENS4_9allocatorIcEEEEb
_ZN7android8hardware3nfc4V1_118INfcClientCallback13unlinkToDeathERKNS_2spINS0_20hidl_death_recipientEEE
_ZN7android8hardware3nfc4V1_118INfcClientCallback14interfaceChainENSt3__18functionIFvRKNS0_8hidl_vecINS0_11hidl_stringEEEEEE
_ZN7android8hardware3nfc4V1_118INfcClientCallback17registerAsServiceERKNSt3__112basic_stringIcNS4_11char_traitsIcEENS4_9allocatorIcEEEE
_ZN7android8hardware3nfc4V1_118INfcClientCallback19interfaceDescriptorENSt3__18functionIFvRKNS0_11hidl_stringEEEE
_ZN7android8hardware3nfc4V1_118INfcClientCallback21notifySyspropsChangedEv
_ZN7android8hardware3nfc4V1_118INfcClientCallback21setHALInstrumentationEv
_ZN7android8hardware3nfc4V1_118INfcClientCallback24registerForNotificationsERKNSt3__112basic_stringIcNS4_11char_traitsIcEENS4_9allocatorIcEEEERKNS_2spINS_4hidl7manager4V1_020IServiceNotificationEEE
_ZN7android8hardware3nfc4V1_118INfcClientCallback4pingEv
_ZN7android8hardware3nfc4V1_118INfcClientCallback5debugERKNS0_11hidl_handleERKNS0_8hidl_vecINS0_11hidl_stringEEE
_ZN7android8hardware3nfc4V1_118INfcClientCallback8castFromERKNS_2spINS1_4V1_018INfcClientCallbackEEEb
_ZN7android8hardware3nfc4V1_118INfcClientCallback8castFromERKNS_2spINS_4hidl4base4V1_05IBaseEEEb
_ZN7android8hardware3nfc4V1_118INfcClientCallback8castFromERKNS_2spIS3_EEb
_ZN7android8hardware3nfc4V1_119BsNfcClientCallback13addOnewayTaskENSt3__18functionIFvvEEE
_ZN7android8hardware3nfc4V1_119BsNfcClientCallbackC1ENS_2spINS2_18INfcClientCallbackEEE
_ZN7android8hardware3nfc4V1_119BsNfcClientCallbackC2ENS_2spINS2_18INfcClientCallbackEEE
_ZN7android8hardware3nfc4V1_121BnHwNfcClientCallback10onTransactEjRKNS0_6ParcelEPS4_jNSt3__18functionIFvRS4_EEE
_ZN7android8hardware3nfc4V1_121BnHwNfcClientCallback12getDebugInfoENSt3__18functionIFvRKNS_4hidl4base4V1_09DebugInfoEEEE
_ZN7android8hardware3nfc4V1_121BnHwNfcClientCallback19_hidl_sendEvent_1_1EPNS_4hidl4base4V1_08BnHwBaseERKNS0_6ParcelEPS9_NSt3__18functionIFvRS9_EEE
_ZN7android8hardware3nfc4V1_121BnHwNfcClientCallback4pingEv
_ZN7android8hardware3nfc4V1_121BnHwNfcClientCallbackC1ERKNS_2spINS2_18INfcClientCallbackEEE
_ZN7android8hardware3nfc4V1_121BnHwNfcClientCallbackC2ERKNS_2spINS2_18INfcClientCallbackEEE
_ZN7android8hardware3nfc4V1_121BnHwNfcClientCallbackD0Ev
_ZN7android8hardware3nfc4V1_121BnHwNfcClientCallbackD1Ev
_ZN7android8hardware3nfc4V1_121BnHwNfcClientCallbackD2Ev
_ZN7android8hardware3nfc4V1_121BpHwNfcClientCallback11linkToDeathERKNS_2spINS0_20hidl_death_recipientEEEy
_ZN7android8hardware3nfc4V1_121BpHwNfcClientCallback12getDebugInfoENSt3__18functionIFvRKNS_4hidl4base4V1_09DebugInfoEEEE
_ZN7android8hardware3nfc4V1_121BpHwNfcClientCallback12getHashChainENSt3__18functionIFvRKNS0_8hidl_vecINS0_10hidl_arrayIhLj32EJEEEEEEEE
_ZN7android8hardware3nfc4V1_121BpHwNfcClientCallback13sendEvent_1_1ENS2_8NfcEventENS1_4V1_09NfcStatusE
_ZN7android8hardware3nfc4V1_121BpHwNfcClientCallback13unlinkToDeathERKNS_2spINS0_20hidl_death_recipientEEE
_ZN7android8hardware3nfc4V1_121BpHwNfcClientCallback14interfaceChainENSt3__18functionIFvRKNS0_8hidl_vecINS0_11hidl_stringEEEEEE
_ZN7android8hardware3nfc4V1_121BpHwNfcClientCallback19_hidl_sendEvent_1_1EPNS0_10IInterfaceEPNS0_7details16HidlInstrumentorENS2_8NfcEventENS1_4V1_09NfcStatusE
_ZN7android8hardware3nfc4V1_121BpHwNfcClientCallback19interfaceDescriptorENSt3__18functionIFvRKNS0_11hidl_stringEEEE
_ZN7android8hardware3nfc4V1_121BpHwNfcClientCallback21notifySyspropsChangedEv
_ZN7android8hardware3nfc4V1_121BpHwNfcClientCallback21setHALInstrumentationEv
_ZN7android8hardware3nfc4V1_121BpHwNfcClientCallback4pingEv
_ZN7android8hardware3nfc4V1_121BpHwNfcClientCallback5debugERKNS0_11hidl_handleERKNS0_8hidl_vecINS0_11hidl_stringEEE
_ZN7android8hardware3nfc4V1_121BpHwNfcClientCallback8sendDataERKNS0_8hidl_vecIhEE
_ZN7android8hardware3nfc4V1_121BpHwNfcClientCallback9sendEventENS1_4V1_08NfcEventENS4_9NfcStatusE
_ZN7android8hardware3nfc4V1_121BpHwNfcClientCallbackC1ERKNS_2spINS0_7IBinderEEE
_ZN7android8hardware3nfc4V1_121BpHwNfcClientCallbackC2ERKNS_2spINS0_7IBinderEEE
_ZN7android8hardware3nfc4V1_121writeEmbeddedToParcelERKNS2_9NfcConfigEPNS0_6ParcelEjj
_ZN7android8hardware3nfc4V1_122readEmbeddedFromParcelERKNS2_9NfcConfigERKNS0_6ParcelEjj
_ZN7android8hardware3nfc4V1_14INfc10descriptorE
_ZN7android8hardware3nfc4V1_14INfc10getServiceERKNSt3__112basic_stringIcNS4_11char_traitsIcEENS4_9allocatorIcEEEEb
_ZN7android8hardware3nfc4V1_14INfc11linkToDeathERKNS_2spINS0_20hidl_death_recipientEEEy
_ZN7android8hardware3nfc4V1_14INfc12getDebugInfoENSt3__18functionIFvRKNS_4hidl4base4V1_09DebugInfoEEEE
_ZN7android8hardware3nfc4V1_14INfc12getHashChainENSt3__18functionIFvRKNS0_8hidl_vecINS0_10hidl_arrayIhLj32EJEEEEEEEE
_ZN7android8hardware3nfc4V1_14INfc13tryGetServiceERKNSt3__112basic_stringIcNS4_11char_traitsIcEENS4_9allocatorIcEEEEb
_ZN7android8hardware3nfc4V1_14INfc13unlinkToDeathERKNS_2spINS0_20hidl_death_recipientEEE
_ZN7android8hardware3nfc4V1_14INfc14interfaceChainENSt3__18functionIFvRKNS0_8hidl_vecINS0_11hidl_stringEEEEEE
_ZN7android8hardware3nfc4V1_14INfc17registerAsServiceERKNSt3__112basic_stringIcNS4_11char_traitsIcEENS4_9allocatorIcEEEE
_ZN7android8hardware3nfc4V1_14INfc19interfaceDescriptorENSt3__18functionIFvRKNS0_11hidl_stringEEEE
_ZN7android8hardware3nfc4V1_14INfc21notifySyspropsChangedEv
_ZN7android8hardware3nfc4V1_14INfc21setHALInstrumentationEv
_ZN7android8hardware3nfc4V1_14INfc24registerForNotificationsERKNSt3__112basic_stringIcNS4_11char_traitsIcEENS4_9allocatorIcEEEERKNS_2spINS_4hidl7manager4V1_020IServiceNotificationEEE
_ZN7android8hardware3nfc4V1_14INfc4pingEv
_ZN7android8hardware3nfc4V1_14INfc5debugERKNS0_11hidl_handleERKNS0_8hidl_vecINS0_11hidl_stringEEE
_ZN7android8hardware3nfc4V1_14INfc8castFromERKNS_2spINS1_4V1_04INfcEEEb
_ZN7android8hardware3nfc4V1_14INfc8castFromERKNS_2spINS_4hidl4base4V1_05IBaseEEEb
_ZN7android8hardware3nfc4V1_14INfc8castFromERKNS_2spIS3_EEb
_ZN7android8hardware3nfc4V1_15BsNfc13addOnewayTaskENSt3__18functionIFvvEEE
_ZN7android8hardware3nfc4V1_15BsNfcC1ENS_2spINS2_4INfcEEE
_ZN7android8hardware3nfc4V1_15BsNfcC2ENS_2spINS2_4INfcEEE
_ZN7android8hardware3nfc4V1_17BnHwNfc10onTransactEjRKNS0_6ParcelEPS4_jNSt3__18functionIFvRS4_EEE
_ZN7android8hardware3nfc4V1_17BnHwNfc12getDebugInfoENSt3__18functionIFvRKNS_4hidl4base4V1_09DebugInfoEEEE
_ZN7android8hardware3nfc4V1_17BnHwNfc14_hidl_open_1_1EPNS_4hidl4base4V1_08BnHwBaseERKNS0_6ParcelEPS9_NSt3__18functionIFvRS9_EEE
_ZN7android8hardware3nfc4V1_17BnHwNfc15_hidl_getConfigEPNS_4hidl4base4V1_08BnHwBaseERKNS0_6ParcelEPS9_NSt3__18functionIFvRS9_EEE
_ZN7android8hardware3nfc4V1_17BnHwNfc18_hidl_factoryResetEPNS_4hidl4base4V1_08BnHwBaseERKNS0_6ParcelEPS9_NSt3__18functionIFvRS9_EEE
_ZN7android8hardware3nfc4V1_17BnHwNfc26_hidl_closeForPowerOffCaseEPNS_4hidl4base4V1_08BnHwBaseERKNS0_6ParcelEPS9_NSt3__18functionIFvRS9_EEE
_ZN7android8hardware3nfc4V1_17BnHwNfc4pingEv
_ZN7android8hardware3nfc4V1_17BnHwNfcC1ERKNS_2spINS2_4INfcEEE
_ZN7android8hardware3nfc4V1_17BnHwNfcC2ERKNS_2spINS2_4INfcEEE
_ZN7android8hardware3nfc4V1_17BnHwNfcD0Ev
_ZN7android8hardware3nfc4V1_17BnHwNfcD1Ev
_ZN7android8hardware3nfc4V1_17BnHwNfcD2Ev
_ZN7android8hardware3nfc4V1_17BpHwNfc10powerCycleEv
_ZN7android8hardware3nfc4V1_17BpHwNfc11linkToDeathERKNS_2spINS0_20hidl_death_recipientEEEy
_ZN7android8hardware3nfc4V1_17BpHwNfc11prediscoverEv
_ZN7android8hardware3nfc4V1_17BpHwNfc12factoryResetEv
_ZN7android8hardware3nfc4V1_17BpHwNfc12getDebugInfoENSt3__18functionIFvRKNS_4hidl4base4V1_09DebugInfoEEEE
_ZN7android8hardware3nfc4V1_17BpHwNfc12getHashChainENSt3__18functionIFvRKNS0_8hidl_vecINS0_10hidl_arrayIhLj32EJEEEEEEEE
_ZN7android8hardware3nfc4V1_17BpHwNfc13unlinkToDeathERKNS_2spINS0_20hidl_death_recipientEEE
_ZN7android8hardware3nfc4V1_17BpHwNfc14_hidl_open_1_1EPNS0_10IInterfaceEPNS0_7details16HidlInstrumentorERKNS_2spINS2_18INfcClientCallbackEEE
_ZN7android8hardware3nfc4V1_17BpHwNfc14controlGrantedEv
_ZN7android8hardware3nfc4V1_17BpHwNfc14interfaceChainENSt3__18functionIFvRKNS0_8hidl_vecINS0_11hidl_stringEEEEEE
_ZN7android8hardware3nfc4V1_17BpHwNfc15_hidl_getConfigEPNS0_10IInterfaceEPNS0_7details16HidlInstrumentorENSt3__18functionIFvRKNS2_9NfcConfigEEEE
_ZN7android8hardware3nfc4V1_17BpHwNfc15coreInitializedERKNS0_8hidl_vecIhEE
_ZN7android8hardware3nfc4V1_17BpHwNfc18_hidl_factoryResetEPNS0_10IInterfaceEPNS0_7details16HidlInstrumentorE
_ZN7android8hardware3nfc4V1_17BpHwNfc19interfaceDescriptorENSt3__18functionIFvRKNS0_11hidl_stringEEEE
_ZN7android8hardware3nfc4V1_17BpHwNfc20closeForPowerOffCaseEv
_ZN7android8hardware3nfc4V1_17BpHwNfc21notifySyspropsChangedEv
_ZN7android8hardware3nfc4V1_17BpHwNfc21setHALInstrumentationEv
_ZN7android8hardware3nfc4V1_17BpHwNfc26_hidl_closeForPowerOffCaseEPNS0_10IInterfaceEPNS0_7details16HidlInstrumentorE
_ZN7android8hardware3nfc4V1_17BpHwNfc4openERKNS_2spINS1_4V1_018INfcClientCallbackEEE
_ZN7android8hardware3nfc4V1_17BpHwNfc4pingEv
_ZN7android8hardware3nfc4V1_17BpHwNfc5closeEv
_ZN7android8hardware3nfc4V1_17BpHwNfc5debugERKNS0_11hidl_handleERKNS0_8hidl_vecINS0_11hidl_stringEEE
_ZN7android8hardware3nfc4V1_17BpHwNfc5writeERKNS0_8hidl_vecIhEE
_ZN7android8hardware3nfc4V1_17BpHwNfc8open_1_1ERKNS_2spINS2_18INfcClientCallbackEEE
_ZN7android8hardware3nfc4V1_17BpHwNfc9getConfigENSt3__18functionIFvRKNS2_9NfcConfigEEEE
_ZN7android8hardware3nfc4V1_17BpHwNfcC1ERKNS_2spINS0_7IBinderEEE
_ZN7android8hardware3nfc4V1_17BpHwNfcC2ERKNS_2spINS0_7IBinderEEE
_ZTCN7android8hardware3nfc4V1_118INfcClientCallbackE0_NS1_4V1_018INfcClientCallbackE
_ZTCN7android8hardware3nfc4V1_118INfcClientCallbackE0_NS_4hidl4base4V1_05IBaseE
_ZTCN7android8hardware3nfc4V1_121BnHwNfcClientCallbackE0_NS0_7IBinderE
_ZTCN7android8hardware3nfc4V1_121BnHwNfcClientCallbackE0_NS0_9BHwBinderE
_ZTCN7android8hardware3nfc4V1_121BnHwNfcClientCallbackE0_NS_4hidl4base4V1_08BnHwBaseE
_ZTCN7android8hardware3nfc4V1_121BpHwNfcClientCallbackE0_NS0_11BpInterfaceINS2_18INfcClientCallbackEEE
_ZTCN7android8hardware3nfc4V1_121BpHwNfcClientCallbackE0_NS1_4V1_018INfcClientCallbackE
_ZTCN7android8hardware3nfc4V1_121BpHwNfcClientCallbackE0_NS2_18INfcClientCallbackE
_ZTCN7android8hardware3nfc4V1_121BpHwNfcClientCallbackE0_NS_4hidl4base4V1_05IBaseE
_ZTCN7android8hardware3nfc4V1_121BpHwNfcClientCallbackE4_NS0_10IInterfaceE
_ZTCN7android8hardware3nfc4V1_121BpHwNfcClientCallbackE8_NS0_11BpHwRefBaseE
_ZTCN7android8hardware3nfc4V1_14INfcE0_NS1_4V1_04INfcE
_ZTCN7android8hardware3nfc4V1_14INfcE0_NS_4hidl4base4V1_05IBaseE
_ZTCN7android8hardware3nfc4V1_17BnHwNfcE0_NS0_7IBinderE
_ZTCN7android8hardware3nfc4V1_17BnHwNfcE0_NS0_9BHwBinderE
_ZTCN7android8hardware3nfc4V1_17BnHwNfcE0_NS_4hidl4base4V1_08BnHwBaseE
_ZTCN7android8hardware3nfc4V1_17BpHwNfcE0_NS0_11BpInterfaceINS2_4INfcEEE
_ZTCN7android8hardware3nfc4V1_17BpHwNfcE0_NS1_4V1_04INfcE
_ZTCN7android8hardware3nfc4V1_17BpHwNfcE0_NS2_4INfcE
_ZTCN7android8hardware3nfc4V1_17BpHwNfcE0_NS_4hidl4base4V1_05IBaseE
_ZTCN7android8hardware3nfc4V1_17BpHwNfcE4_NS0_10IInterfaceE
_ZTCN7android8hardware3nfc4V1_17BpHwNfcE8_NS0_11BpHwRefBaseE
_ZTTN7android8hardware3nfc4V1_118INfcClientCallbackE
_ZTTN7android8hardware3nfc4V1_121BnHwNfcClientCallbackE
_ZTTN7android8hardware3nfc4V1_121BpHwNfcClientCallbackE
_ZTTN7android8hardware3nfc4V1_14INfcE
_ZTTN7android8hardware3nfc4V1_17BnHwNfcE
_ZTTN7android8hardware3nfc4V1_17BpHwNfcE
_ZTVN7android8hardware3nfc4V1_118INfcClientCallbackE
_ZTVN7android8hardware3nfc4V1_121BnHwNfcClientCallbackE
_ZTVN7android8hardware3nfc4V1_121BpHwNfcClientCallbackE
_ZTVN7android8hardware3nfc4V1_14INfcE
_ZTVN7android8hardware3nfc4V1_17BnHwNfcE
_ZTVN7android8hardware3nfc4V1_17BpHwNfcE
_ZThn20_N7android8hardware3nfc4V1_121BnHwNfcClientCallbackD0Ev
_ZThn20_N7android8hardware3nfc4V1_121BnHwNfcClientCallbackD1Ev
_ZThn20_N7android8hardware3nfc4V1_17BnHwNfcD0Ev
_ZThn20_N7android8hardware3nfc4V1_17BnHwNfcD1Ev
_ZTv0_n12_N7android8hardware3nfc4V1_121BnHwNfcClientCallbackD0Ev
_ZTv0_n12_N7android8hardware3nfc4V1_121BnHwNfcClientCallbackD1Ev
_ZTv0_n12_N7android8hardware3nfc4V1_17BnHwNfcD0Ev
_ZTv0_n12_N7android8hardware3nfc4V1_17BnHwNfcD1Ev
