_ZN7android8hardware2tv3cec4V1_011BnHwHdmiCec10onTransactEjRKNS0_6ParcelEPS5_jNSt3__18functionIFvRS5_EEE
_ZN7android8hardware2tv3cec4V1_011BnHwHdmiCec12getDebugInfoENSt3__18functionIFvRKNS_4hidl4base4V1_09DebugInfoEEEE
_ZN7android8hardware2tv3cec4V1_011BnHwHdmiCec15_hidl_setOptionEPNS_4hidl4base4V1_08BnHwBaseERKNS0_6ParcelEPSA_NSt3__18functionIFvRSA_EEE
_ZN7android8hardware2tv3cec4V1_011BnHwHdmiCec17_hidl_getPortInfoEPNS_4hidl4base4V1_08BnHwBaseERKNS0_6ParcelEPSA_NSt3__18functionIFvRSA_EEE
_ZN7android8hardware2tv3cec4V1_011BnHwHdmiCec17_hidl_getVendorIdEPNS_4hidl4base4V1_08BnHwBaseERKNS0_6ParcelEPSA_NSt3__18functionIFvRSA_EEE
_ZN7android8hardware2tv3cec4V1_011BnHwHdmiCec17_hidl_isConnectedEPNS_4hidl4base4V1_08BnHwBaseERKNS0_6ParcelEPSA_NSt3__18functionIFvRSA_EEE
_ZN7android8hardware2tv3cec4V1_011BnHwHdmiCec17_hidl_sendMessageEPNS_4hidl4base4V1_08BnHwBaseERKNS0_6ParcelEPSA_NSt3__18functionIFvRSA_EEE
_ZN7android8hardware2tv3cec4V1_011BnHwHdmiCec17_hidl_setCallbackEPNS_4hidl4base4V1_08BnHwBaseERKNS0_6ParcelEPSA_NSt3__18functionIFvRSA_EEE
_ZN7android8hardware2tv3cec4V1_011BnHwHdmiCec17_hidl_setLanguageEPNS_4hidl4base4V1_08BnHwBaseERKNS0_6ParcelEPSA_NSt3__18functionIFvRSA_EEE
_ZN7android8hardware2tv3cec4V1_011BnHwHdmiCec19_hidl_getCecVersionEPNS_4hidl4base4V1_08BnHwBaseERKNS0_6ParcelEPSA_NSt3__18functionIFvRSA_EEE
_ZN7android8hardware2tv3cec4V1_011BnHwHdmiCec23_hidl_addLogicalAddressEPNS_4hidl4base4V1_08BnHwBaseERKNS0_6ParcelEPSA_NSt3__18functionIFvRSA_EEE
_ZN7android8hardware2tv3cec4V1_011BnHwHdmiCec24_hidl_getPhysicalAddressEPNS_4hidl4base4V1_08BnHwBaseERKNS0_6ParcelEPSA_NSt3__18functionIFvRSA_EEE
_ZN7android8hardware2tv3cec4V1_011BnHwHdmiCec25_hidl_clearLogicalAddressEPNS_4hidl4base4V1_08BnHwBaseERKNS0_6ParcelEPSA_NSt3__18functionIFvRSA_EEE
_ZN7android8hardware2tv3cec4V1_011BnHwHdmiCec30_hidl_enableAudioReturnChannelEPNS_4hidl4base4V1_08BnHwBaseERKNS0_6ParcelEPSA_NSt3__18functionIFvRSA_EEE
_ZN7android8hardware2tv3cec4V1_011BnHwHdmiCec4pingEv
_ZN7android8hardware2tv3cec4V1_011BnHwHdmiCecC1ERKNS_2spINS3_8IHdmiCecEEE
_ZN7android8hardware2tv3cec4V1_011BnHwHdmiCecC2ERKNS_2spINS3_8IHdmiCecEEE
_ZN7android8hardware2tv3cec4V1_011BnHwHdmiCecD0Ev
_ZN7android8hardware2tv3cec4V1_011BnHwHdmiCecD1Ev
_ZN7android8hardware2tv3cec4V1_011BnHwHdmiCecD2Ev
_ZN7android8hardware2tv3cec4V1_011BpHwHdmiCec11getPortInfoENSt3__18functionIFvRKNS0_8hidl_vecINS3_12HdmiPortInfoEEEEEE
_ZN7android8hardware2tv3cec4V1_011BpHwHdmiCec11getVendorIdEv
_ZN7android8hardware2tv3cec4V1_011BpHwHdmiCec11isConnectedEi
_ZN7android8hardware2tv3cec4V1_011BpHwHdmiCec11linkToDeathERKNS_2spINS0_20hidl_death_recipientEEEy
_ZN7android8hardware2tv3cec4V1_011BpHwHdmiCec11sendMessageERKNS3_10CecMessageE
_ZN7android8hardware2tv3cec4V1_011BpHwHdmiCec11setCallbackERKNS_2spINS3_16IHdmiCecCallbackEEE
_ZN7android8hardware2tv3cec4V1_011BpHwHdmiCec11setLanguageERKNS0_11hidl_stringE
_ZN7android8hardware2tv3cec4V1_011BpHwHdmiCec12getDebugInfoENSt3__18functionIFvRKNS_4hidl4base4V1_09DebugInfoEEEE
_ZN7android8hardware2tv3cec4V1_011BpHwHdmiCec12getHashChainENSt3__18functionIFvRKNS0_8hidl_vecINS0_10hidl_arrayIhLj32EJEEEEEEEE
_ZN7android8hardware2tv3cec4V1_011BpHwHdmiCec13getCecVersionEv
_ZN7android8hardware2tv3cec4V1_011BpHwHdmiCec13unlinkToDeathERKNS_2spINS0_20hidl_death_recipientEEE
_ZN7android8hardware2tv3cec4V1_011BpHwHdmiCec14interfaceChainENSt3__18functionIFvRKNS0_8hidl_vecINS0_11hidl_stringEEEEEE
_ZN7android8hardware2tv3cec4V1_011BpHwHdmiCec15_hidl_setOptionEPNS0_10IInterfaceEPNS0_7details16HidlInstrumentorENS3_9OptionKeyEb
_ZN7android8hardware2tv3cec4V1_011BpHwHdmiCec17_hidl_getPortInfoEPNS0_10IInterfaceEPNS0_7details16HidlInstrumentorENSt3__18functionIFvRKNS0_8hidl_vecINS3_12HdmiPortInfoEEEEEE
_ZN7android8hardware2tv3cec4V1_011BpHwHdmiCec17_hidl_getVendorIdEPNS0_10IInterfaceEPNS0_7details16HidlInstrumentorE
_ZN7android8hardware2tv3cec4V1_011BpHwHdmiCec17_hidl_isConnectedEPNS0_10IInterfaceEPNS0_7details16HidlInstrumentorEi
_ZN7android8hardware2tv3cec4V1_011BpHwHdmiCec17_hidl_sendMessageEPNS0_10IInterfaceEPNS0_7details16HidlInstrumentorERKNS3_10CecMessageE
_ZN7android8hardware2tv3cec4V1_011BpHwHdmiCec17_hidl_setCallbackEPNS0_10IInterfaceEPNS0_7details16HidlInstrumentorERKNS_2spINS3_16IHdmiCecCallbackEEE
_ZN7android8hardware2tv3cec4V1_011BpHwHdmiCec17_hidl_setLanguageEPNS0_10IInterfaceEPNS0_7details16HidlInstrumentorERKNS0_11hidl_stringE
_ZN7android8hardware2tv3cec4V1_011BpHwHdmiCec17addLogicalAddressENS3_17CecLogicalAddressE
_ZN7android8hardware2tv3cec4V1_011BpHwHdmiCec18getPhysicalAddressENSt3__18functionIFvNS3_6ResultEtEEE
_ZN7android8hardware2tv3cec4V1_011BpHwHdmiCec19_hidl_getCecVersionEPNS0_10IInterfaceEPNS0_7details16HidlInstrumentorE
_ZN7android8hardware2tv3cec4V1_011BpHwHdmiCec19clearLogicalAddressEv
_ZN7android8hardware2tv3cec4V1_011BpHwHdmiCec19interfaceDescriptorENSt3__18functionIFvRKNS0_11hidl_stringEEEE
_ZN7android8hardware2tv3cec4V1_011BpHwHdmiCec21notifySyspropsChangedEv
_ZN7android8hardware2tv3cec4V1_011BpHwHdmiCec21setHALInstrumentationEv
_ZN7android8hardware2tv3cec4V1_011BpHwHdmiCec23_hidl_addLogicalAddressEPNS0_10IInterfaceEPNS0_7details16HidlInstrumentorENS3_17CecLogicalAddressE
_ZN7android8hardware2tv3cec4V1_011BpHwHdmiCec24_hidl_getPhysicalAddressEPNS0_10IInterfaceEPNS0_7details16HidlInstrumentorENSt3__18functionIFvNS3_6ResultEtEEE
_ZN7android8hardware2tv3cec4V1_011BpHwHdmiCec24enableAudioReturnChannelEib
_ZN7android8hardware2tv3cec4V1_011BpHwHdmiCec25_hidl_clearLogicalAddressEPNS0_10IInterfaceEPNS0_7details16HidlInstrumentorE
_ZN7android8hardware2tv3cec4V1_011BpHwHdmiCec30_hidl_enableAudioReturnChannelEPNS0_10IInterfaceEPNS0_7details16HidlInstrumentorEib
_ZN7android8hardware2tv3cec4V1_011BpHwHdmiCec4pingEv
_ZN7android8hardware2tv3cec4V1_011BpHwHdmiCec5debugERKNS0_11hidl_handleERKNS0_8hidl_vecINS0_11hidl_stringEEE
_ZN7android8hardware2tv3cec4V1_011BpHwHdmiCec9setOptionENS3_9OptionKeyEb
_ZN7android8hardware2tv3cec4V1_011BpHwHdmiCecC1ERKNS_2spINS0_7IBinderEEE
_ZN7android8hardware2tv3cec4V1_011BpHwHdmiCecC2ERKNS_2spINS0_7IBinderEEE
_ZN7android8hardware2tv3cec4V1_016IHdmiCecCallback10descriptorE
_ZN7android8hardware2tv3cec4V1_016IHdmiCecCallback10getServiceERKNSt3__112basic_stringIcNS5_11char_traitsIcEENS5_9allocatorIcEEEEb
_ZN7android8hardware2tv3cec4V1_016IHdmiCecCallback11linkToDeathERKNS_2spINS0_20hidl_death_recipientEEEy
_ZN7android8hardware2tv3cec4V1_016IHdmiCecCallback12getDebugInfoENSt3__18functionIFvRKNS_4hidl4base4V1_09DebugInfoEEEE
_ZN7android8hardware2tv3cec4V1_016IHdmiCecCallback12getHashChainENSt3__18functionIFvRKNS0_8hidl_vecINS0_10hidl_arrayIhLj32EJEEEEEEEE
_ZN7android8hardware2tv3cec4V1_016IHdmiCecCallback13tryGetServiceERKNSt3__112basic_stringIcNS5_11char_traitsIcEENS5_9allocatorIcEEEEb
_ZN7android8hardware2tv3cec4V1_016IHdmiCecCallback13unlinkToDeathERKNS_2spINS0_20hidl_death_recipientEEE
_ZN7android8hardware2tv3cec4V1_016IHdmiCecCallback14interfaceChainENSt3__18functionIFvRKNS0_8hidl_vecINS0_11hidl_stringEEEEEE
_ZN7android8hardware2tv3cec4V1_016IHdmiCecCallback17registerAsServiceERKNSt3__112basic_stringIcNS5_11char_traitsIcEENS5_9allocatorIcEEEE
_ZN7android8hardware2tv3cec4V1_016IHdmiCecCallback19interfaceDescriptorENSt3__18functionIFvRKNS0_11hidl_stringEEEE
_ZN7android8hardware2tv3cec4V1_016IHdmiCecCallback21notifySyspropsChangedEv
_ZN7android8hardware2tv3cec4V1_016IHdmiCecCallback21setHALInstrumentationEv
_ZN7android8hardware2tv3cec4V1_016IHdmiCecCallback24registerForNotificationsERKNSt3__112basic_stringIcNS5_11char_traitsIcEENS5_9allocatorIcEEEERKNS_2spINS_4hidl7manager4V1_020IServiceNotificationEEE
_ZN7android8hardware2tv3cec4V1_016IHdmiCecCallback4pingEv
_ZN7android8hardware2tv3cec4V1_016IHdmiCecCallback5debugERKNS0_11hidl_handleERKNS0_8hidl_vecINS0_11hidl_stringEEE
_ZN7android8hardware2tv3cec4V1_016IHdmiCecCallback8castFromERKNS_2spINS_4hidl4base4V1_05IBaseEEEb
_ZN7android8hardware2tv3cec4V1_016IHdmiCecCallback8castFromERKNS_2spIS4_EEb
_ZN7android8hardware2tv3cec4V1_017BsHdmiCecCallback13addOnewayTaskENSt3__18functionIFvvEEE
_ZN7android8hardware2tv3cec4V1_017BsHdmiCecCallbackC1ENS_2spINS3_16IHdmiCecCallbackEEE
_ZN7android8hardware2tv3cec4V1_017BsHdmiCecCallbackC2ENS_2spINS3_16IHdmiCecCallbackEEE
_ZN7android8hardware2tv3cec4V1_019BnHwHdmiCecCallback10onTransactEjRKNS0_6ParcelEPS5_jNSt3__18functionIFvRS5_EEE
_ZN7android8hardware2tv3cec4V1_019BnHwHdmiCecCallback12getDebugInfoENSt3__18functionIFvRKNS_4hidl4base4V1_09DebugInfoEEEE
_ZN7android8hardware2tv3cec4V1_019BnHwHdmiCecCallback18_hidl_onCecMessageEPNS_4hidl4base4V1_08BnHwBaseERKNS0_6ParcelEPSA_NSt3__18functionIFvRSA_EEE
_ZN7android8hardware2tv3cec4V1_019BnHwHdmiCecCallback20_hidl_onHotplugEventEPNS_4hidl4base4V1_08BnHwBaseERKNS0_6ParcelEPSA_NSt3__18functionIFvRSA_EEE
_ZN7android8hardware2tv3cec4V1_019BnHwHdmiCecCallback4pingEv
_ZN7android8hardware2tv3cec4V1_019BnHwHdmiCecCallbackC1ERKNS_2spINS3_16IHdmiCecCallbackEEE
_ZN7android8hardware2tv3cec4V1_019BnHwHdmiCecCallbackC2ERKNS_2spINS3_16IHdmiCecCallbackEEE
_ZN7android8hardware2tv3cec4V1_019BnHwHdmiCecCallbackD0Ev
_ZN7android8hardware2tv3cec4V1_019BnHwHdmiCecCallbackD1Ev
_ZN7android8hardware2tv3cec4V1_019BnHwHdmiCecCallbackD2Ev
_ZN7android8hardware2tv3cec4V1_019BpHwHdmiCecCallback11linkToDeathERKNS_2spINS0_20hidl_death_recipientEEEy
_ZN7android8hardware2tv3cec4V1_019BpHwHdmiCecCallback12getDebugInfoENSt3__18functionIFvRKNS_4hidl4base4V1_09DebugInfoEEEE
_ZN7android8hardware2tv3cec4V1_019BpHwHdmiCecCallback12getHashChainENSt3__18functionIFvRKNS0_8hidl_vecINS0_10hidl_arrayIhLj32EJEEEEEEEE
_ZN7android8hardware2tv3cec4V1_019BpHwHdmiCecCallback12onCecMessageERKNS3_10CecMessageE
_ZN7android8hardware2tv3cec4V1_019BpHwHdmiCecCallback13unlinkToDeathERKNS_2spINS0_20hidl_death_recipientEEE
_ZN7android8hardware2tv3cec4V1_019BpHwHdmiCecCallback14interfaceChainENSt3__18functionIFvRKNS0_8hidl_vecINS0_11hidl_stringEEEEEE
_ZN7android8hardware2tv3cec4V1_019BpHwHdmiCecCallback14onHotplugEventERKNS3_12HotplugEventE
_ZN7android8hardware2tv3cec4V1_019BpHwHdmiCecCallback18_hidl_onCecMessageEPNS0_10IInterfaceEPNS0_7details16HidlInstrumentorERKNS3_10CecMessageE
_ZN7android8hardware2tv3cec4V1_019BpHwHdmiCecCallback19interfaceDescriptorENSt3__18functionIFvRKNS0_11hidl_stringEEEE
_ZN7android8hardware2tv3cec4V1_019BpHwHdmiCecCallback20_hidl_onHotplugEventEPNS0_10IInterfaceEPNS0_7details16HidlInstrumentorERKNS3_12HotplugEventE
_ZN7android8hardware2tv3cec4V1_019BpHwHdmiCecCallback21notifySyspropsChangedEv
_ZN7android8hardware2tv3cec4V1_019BpHwHdmiCecCallback21setHALInstrumentationEv
_ZN7android8hardware2tv3cec4V1_019BpHwHdmiCecCallback4pingEv
_ZN7android8hardware2tv3cec4V1_019BpHwHdmiCecCallback5debugERKNS0_11hidl_handleERKNS0_8hidl_vecINS0_11hidl_stringEEE
_ZN7android8hardware2tv3cec4V1_019BpHwHdmiCecCallbackC1ERKNS_2spINS0_7IBinderEEE
_ZN7android8hardware2tv3cec4V1_019BpHwHdmiCecCallbackC2ERKNS_2spINS0_7IBinderEEE
_ZN7android8hardware2tv3cec4V1_021writeEmbeddedToParcelERKNS3_10CecMessageEPNS0_6ParcelEjj
_ZN7android8hardware2tv3cec4V1_022readEmbeddedFromParcelERKNS3_10CecMessageERKNS0_6ParcelEjj
_ZN7android8hardware2tv3cec4V1_08IHdmiCec10descriptorE
_ZN7android8hardware2tv3cec4V1_08IHdmiCec10getServiceERKNSt3__112basic_stringIcNS5_11char_traitsIcEENS5_9allocatorIcEEEEb
_ZN7android8hardware2tv3cec4V1_08IHdmiCec11linkToDeathERKNS_2spINS0_20hidl_death_recipientEEEy
_ZN7android8hardware2tv3cec4V1_08IHdmiCec12getDebugInfoENSt3__18functionIFvRKNS_4hidl4base4V1_09DebugInfoEEEE
_ZN7android8hardware2tv3cec4V1_08IHdmiCec12getHashChainENSt3__18functionIFvRKNS0_8hidl_vecINS0_10hidl_arrayIhLj32EJEEEEEEEE
_ZN7android8hardware2tv3cec4V1_08IHdmiCec13tryGetServiceERKNSt3__112basic_stringIcNS5_11char_traitsIcEENS5_9allocatorIcEEEEb
_ZN7android8hardware2tv3cec4V1_08IHdmiCec13unlinkToDeathERKNS_2spINS0_20hidl_death_recipientEEE
_ZN7android8hardware2tv3cec4V1_08IHdmiCec14interfaceChainENSt3__18functionIFvRKNS0_8hidl_vecINS0_11hidl_stringEEEEEE
_ZN7android8hardware2tv3cec4V1_08IHdmiCec17registerAsServiceERKNSt3__112basic_stringIcNS5_11char_traitsIcEENS5_9allocatorIcEEEE
_ZN7android8hardware2tv3cec4V1_08IHdmiCec19interfaceDescriptorENSt3__18functionIFvRKNS0_11hidl_stringEEEE
_ZN7android8hardware2tv3cec4V1_08IHdmiCec21notifySyspropsChangedEv
_ZN7android8hardware2tv3cec4V1_08IHdmiCec21setHALInstrumentationEv
_ZN7android8hardware2tv3cec4V1_08IHdmiCec24registerForNotificationsERKNSt3__112basic_stringIcNS5_11char_traitsIcEENS5_9allocatorIcEEEERKNS_2spINS_4hidl7manager4V1_020IServiceNotificationEEE
_ZN7android8hardware2tv3cec4V1_08IHdmiCec4pingEv
_ZN7android8hardware2tv3cec4V1_08IHdmiCec5debugERKNS0_11hidl_handleERKNS0_8hidl_vecINS0_11hidl_stringEEE
_ZN7android8hardware2tv3cec4V1_08IHdmiCec8castFromERKNS_2spINS_4hidl4base4V1_05IBaseEEEb
_ZN7android8hardware2tv3cec4V1_08IHdmiCec8castFromERKNS_2spIS4_EEb
_ZN7android8hardware2tv3cec4V1_09BsHdmiCec13addOnewayTaskENSt3__18functionIFvvEEE
_ZN7android8hardware2tv3cec4V1_09BsHdmiCecC1ENS_2spINS3_8IHdmiCecEEE
_ZN7android8hardware2tv3cec4V1_09BsHdmiCecC2ENS_2spINS3_8IHdmiCecEEE
_ZTCN7android8hardware2tv3cec4V1_011BnHwHdmiCecE0_NS0_7IBinderE
_ZTCN7android8hardware2tv3cec4V1_011BnHwHdmiCecE0_NS0_9BHwBinderE
_ZTCN7android8hardware2tv3cec4V1_011BnHwHdmiCecE0_NS_4hidl4base4V1_08BnHwBaseE
_ZTCN7android8hardware2tv3cec4V1_011BpHwHdmiCecE0_NS0_11BpInterfaceINS3_8IHdmiCecEEE
_ZTCN7android8hardware2tv3cec4V1_011BpHwHdmiCecE0_NS3_8IHdmiCecE
_ZTCN7android8hardware2tv3cec4V1_011BpHwHdmiCecE0_NS_4hidl4base4V1_05IBaseE
_ZTCN7android8hardware2tv3cec4V1_011BpHwHdmiCecE4_NS0_10IInterfaceE
_ZTCN7android8hardware2tv3cec4V1_011BpHwHdmiCecE8_NS0_11BpHwRefBaseE
_ZTCN7android8hardware2tv3cec4V1_016IHdmiCecCallbackE0_NS_4hidl4base4V1_05IBaseE
_ZTCN7android8hardware2tv3cec4V1_019BnHwHdmiCecCallbackE0_NS0_7IBinderE
_ZTCN7android8hardware2tv3cec4V1_019BnHwHdmiCecCallbackE0_NS0_9BHwBinderE
_ZTCN7android8hardware2tv3cec4V1_019BnHwHdmiCecCallbackE0_NS_4hidl4base4V1_08BnHwBaseE
_ZTCN7android8hardware2tv3cec4V1_019BpHwHdmiCecCallbackE0_NS0_11BpInterfaceINS3_16IHdmiCecCallbackEEE
_ZTCN7android8hardware2tv3cec4V1_019BpHwHdmiCecCallbackE0_NS3_16IHdmiCecCallbackE
_ZTCN7android8hardware2tv3cec4V1_019BpHwHdmiCecCallbackE0_NS_4hidl4base4V1_05IBaseE
_ZTCN7android8hardware2tv3cec4V1_019BpHwHdmiCecCallbackE4_NS0_10IInterfaceE
_ZTCN7android8hardware2tv3cec4V1_019BpHwHdmiCecCallbackE8_NS0_11BpHwRefBaseE
_ZTCN7android8hardware2tv3cec4V1_08IHdmiCecE0_NS_4hidl4base4V1_05IBaseE
_ZTTN7android8hardware2tv3cec4V1_011BnHwHdmiCecE
_ZTTN7android8hardware2tv3cec4V1_011BpHwHdmiCecE
_ZTTN7android8hardware2tv3cec4V1_016IHdmiCecCallbackE
_ZTTN7android8hardware2tv3cec4V1_019BnHwHdmiCecCallbackE
_ZTTN7android8hardware2tv3cec4V1_019BpHwHdmiCecCallbackE
_ZTTN7android8hardware2tv3cec4V1_08IHdmiCecE
_ZTVN7android8hardware2tv3cec4V1_011BnHwHdmiCecE
_ZTVN7android8hardware2tv3cec4V1_011BpHwHdmiCecE
_ZTVN7android8hardware2tv3cec4V1_016IHdmiCecCallbackE
_ZTVN7android8hardware2tv3cec4V1_019BnHwHdmiCecCallbackE
_ZTVN7android8hardware2tv3cec4V1_019BpHwHdmiCecCallbackE
_ZTVN7android8hardware2tv3cec4V1_08IHdmiCecE
_ZThn20_N7android8hardware2tv3cec4V1_011BnHwHdmiCecD0Ev
_ZThn20_N7android8hardware2tv3cec4V1_011BnHwHdmiCecD1Ev
_ZThn20_N7android8hardware2tv3cec4V1_019BnHwHdmiCecCallbackD0Ev
_ZThn20_N7android8hardware2tv3cec4V1_019BnHwHdmiCecCallbackD1Ev
_ZTv0_n12_N7android8hardware2tv3cec4V1_011BnHwHdmiCecD0Ev
_ZTv0_n12_N7android8hardware2tv3cec4V1_011BnHwHdmiCecD1Ev
_ZTv0_n12_N7android8hardware2tv3cec4V1_019BnHwHdmiCecCallbackD0Ev
_ZTv0_n12_N7android8hardware2tv3cec4V1_019BnHwHdmiCecCallbackD1Ev
