_ZN7android8hardware8vibrator4V1_110BsVibrator13addOnewayTaskENSt3__18functionIFvvEEE
_ZN7android8hardware8vibrator4V1_110BsVibratorC1ENS_2spINS2_9IVibratorEEE
_ZN7android8hardware8vibrator4V1_110BsVibratorC2ENS_2spINS2_9IVibratorEEE
_ZN7android8hardware8vibrator4V1_112BnHwVibrator10onTransactEjRKNS0_6ParcelEPS4_jNSt3__18functionIFvRS4_EEE
_ZN7android8hardware8vibrator4V1_112BnHwVibrator12getDebugInfoENSt3__18functionIFvRKNS_4hidl4base4V1_09DebugInfoEEEE
_ZN7android8hardware8vibrator4V1_112BnHwVibrator17_hidl_perform_1_1EPNS_4hidl4base4V1_08BnHwBaseERKNS0_6ParcelEPS9_NSt3__18functionIFvRS9_EEE
_ZN7android8hardware8vibrator4V1_112BnHwVibrator4pingEv
_ZN7android8hardware8vibrator4V1_112BnHwVibratorC1ERKNS_2spINS2_9IVibratorEEE
_ZN7android8hardware8vibrator4V1_112BnHwVibratorC2ERKNS_2spINS2_9IVibratorEEE
_ZN7android8hardware8vibrator4V1_112BnHwVibratorD0Ev
_ZN7android8hardware8vibrator4V1_112BnHwVibratorD1Ev
_ZN7android8hardware8vibrator4V1_112BnHwVibratorD2Ev
_ZN7android8hardware8vibrator4V1_112BpHwVibrator11linkToDeathERKNS_2spINS0_20hidl_death_recipientEEEy
_ZN7android8hardware8vibrator4V1_112BpHwVibrator11perform_1_1ENS2_10Effect_1_1ENS1_4V1_014EffectStrengthENSt3__18functionIFvNS5_6StatusEjEEE
_ZN7android8hardware8vibrator4V1_112BpHwVibrator12getDebugInfoENSt3__18functionIFvRKNS_4hidl4base4V1_09DebugInfoEEEE
_ZN7android8hardware8vibrator4V1_112BpHwVibrator12getHashChainENSt3__18functionIFvRKNS0_8hidl_vecINS0_10hidl_arrayIhLj32EJEEEEEEEE
_ZN7android8hardware8vibrator4V1_112BpHwVibrator12setAmplitudeEh
_ZN7android8hardware8vibrator4V1_112BpHwVibrator13unlinkToDeathERKNS_2spINS0_20hidl_death_recipientEEE
_ZN7android8hardware8vibrator4V1_112BpHwVibrator14interfaceChainENSt3__18functionIFvRKNS0_8hidl_vecINS0_11hidl_stringEEEEEE
_ZN7android8hardware8vibrator4V1_112BpHwVibrator17_hidl_perform_1_1EPNS0_10IInterfaceEPNS0_7details16HidlInstrumentorENS2_10Effect_1_1ENS1_4V1_014EffectStrengthENSt3__18functionIFvNSA_6StatusEjEEE
_ZN7android8hardware8vibrator4V1_112BpHwVibrator19interfaceDescriptorENSt3__18functionIFvRKNS0_11hidl_stringEEEE
_ZN7android8hardware8vibrator4V1_112BpHwVibrator21notifySyspropsChangedEv
_ZN7android8hardware8vibrator4V1_112BpHwVibrator21setHALInstrumentationEv
_ZN7android8hardware8vibrator4V1_112BpHwVibrator24supportsAmplitudeControlEv
_ZN7android8hardware8vibrator4V1_112BpHwVibrator2onEj
_ZN7android8hardware8vibrator4V1_112BpHwVibrator3offEv
_ZN7android8hardware8vibrator4V1_112BpHwVibrator4pingEv
_ZN7android8hardware8vibrator4V1_112BpHwVibrator5debugERKNS0_11hidl_handleERKNS0_8hidl_vecINS0_11hidl_stringEEE
_ZN7android8hardware8vibrator4V1_112BpHwVibrator7performENS1_4V1_06EffectENS4_14EffectStrengthENSt3__18functionIFvNS4_6StatusEjEEE
_ZN7android8hardware8vibrator4V1_112BpHwVibratorC1ERKNS_2spINS0_7IBinderEEE
_ZN7android8hardware8vibrator4V1_112BpHwVibratorC2ERKNS_2spINS0_7IBinderEEE
_ZN7android8hardware8vibrator4V1_19IVibrator10descriptorE
_ZN7android8hardware8vibrator4V1_19IVibrator10getServiceERKNSt3__112basic_stringIcNS4_11char_traitsIcEENS4_9allocatorIcEEEEb
_ZN7android8hardware8vibrator4V1_19IVibrator11linkToDeathERKNS_2spINS0_20hidl_death_recipientEEEy
_ZN7android8hardware8vibrator4V1_19IVibrator12getDebugInfoENSt3__18functionIFvRKNS_4hidl4base4V1_09DebugInfoEEEE
_ZN7android8hardware8vibrator4V1_19IVibrator12getHashChainENSt3__18functionIFvRKNS0_8hidl_vecINS0_10hidl_arrayIhLj32EJEEEEEEEE
_ZN7android8hardware8vibrator4V1_19IVibrator13tryGetServiceERKNSt3__112basic_stringIcNS4_11char_traitsIcEENS4_9allocatorIcEEEEb
_ZN7android8hardware8vibrator4V1_19IVibrator13unlinkToDeathERKNS_2spINS0_20hidl_death_recipientEEE
_ZN7android8hardware8vibrator4V1_19IVibrator14interfaceChainENSt3__18functionIFvRKNS0_8hidl_vecINS0_11hidl_stringEEEEEE
_ZN7android8hardware8vibrator4V1_19IVibrator17registerAsServiceERKNSt3__112basic_stringIcNS4_11char_traitsIcEENS4_9allocatorIcEEEE
_ZN7android8hardware8vibrator4V1_19IVibrator19interfaceDescriptorENSt3__18functionIFvRKNS0_11hidl_stringEEEE
_ZN7android8hardware8vibrator4V1_19IVibrator21notifySyspropsChangedEv
_ZN7android8hardware8vibrator4V1_19IVibrator21setHALInstrumentationEv
_ZN7android8hardware8vibrator4V1_19IVibrator24registerForNotificationsERKNSt3__112basic_stringIcNS4_11char_traitsIcEENS4_9allocatorIcEEEERKNS_2spINS_4hidl7manager4V1_020IServiceNotificationEEE
_ZN7android8hardware8vibrator4V1_19IVibrator4pingEv
_ZN7android8hardware8vibrator4V1_19IVibrator5debugERKNS0_11hidl_handleERKNS0_8hidl_vecINS0_11hidl_stringEEE
_ZN7android8hardware8vibrator4V1_19IVibrator8castFromERKNS_2spINS1_4V1_09IVibratorEEEb
_ZN7android8hardware8vibrator4V1_19IVibrator8castFromERKNS_2spINS_4hidl4base4V1_05IBaseEEEb
_ZN7android8hardware8vibrator4V1_19IVibrator8castFromERKNS_2spIS3_EEb
_ZTCN7android8hardware8vibrator4V1_112BnHwVibratorE0_NS0_7IBinderE
_ZTCN7android8hardware8vibrator4V1_112BnHwVibratorE0_NS0_9BHwBinderE
_ZTCN7android8hardware8vibrator4V1_112BnHwVibratorE0_NS_4hidl4base4V1_08BnHwBaseE
_ZTCN7android8hardware8vibrator4V1_112BpHwVibratorE0_NS0_11BpInterfaceINS2_9IVibratorEEE
_ZTCN7android8hardware8vibrator4V1_112BpHwVibratorE0_NS1_4V1_09IVibratorE
_ZTCN7android8hardware8vibrator4V1_112BpHwVibratorE0_NS2_9IVibratorE
_ZTCN7android8hardware8vibrator4V1_112BpHwVibratorE0_NS_4hidl4base4V1_05IBaseE
_ZTCN7android8hardware8vibrator4V1_112BpHwVibratorE4_NS0_10IInterfaceE
_ZTCN7android8hardware8vibrator4V1_112BpHwVibratorE8_NS0_11BpHwRefBaseE
_ZTCN7android8hardware8vibrator4V1_19IVibratorE0_NS1_4V1_09IVibratorE
_ZTCN7android8hardware8vibrator4V1_19IVibratorE0_NS_4hidl4base4V1_05IBaseE
_ZTTN7android8hardware8vibrator4V1_112BnHwVibratorE
_ZTTN7android8hardware8vibrator4V1_112BpHwVibratorE
_ZTTN7android8hardware8vibrator4V1_19IVibratorE
_ZTVN7android8hardware8vibrator4V1_112BnHwVibratorE
_ZTVN7android8hardware8vibrator4V1_112BpHwVibratorE
_ZTVN7android8hardware8vibrator4V1_19IVibratorE
_ZThn20_N7android8hardware8vibrator4V1_112BnHwVibratorD0Ev
_ZThn20_N7android8hardware8vibrator4V1_112BnHwVibratorD1Ev
_ZTv0_n12_N7android8hardware8vibrator4V1_112BnHwVibratorD0Ev
_ZTv0_n12_N7android8hardware8vibrator4V1_112BnHwVibratorD1Ev
