_ZN7android8hardware9bluetooth4V1_013IBluetoothHci10descriptorE
_ZN7android8hardware9bluetooth4V1_013IBluetoothHci10getServiceERKNSt3__112basic_stringIcNS4_11char_traitsIcEENS4_9allocatorIcEEEEb
_ZN7android8hardware9bluetooth4V1_013IBluetoothHci11linkToDeathERKNS_2spINS0_20hidl_death_recipientEEEy
_ZN7android8hardware9bluetooth4V1_013IBluetoothHci12getDebugInfoENSt3__18functionIFvRKNS_4hidl4base4V1_09DebugInfoEEEE
_ZN7android8hardware9bluetooth4V1_013IBluetoothHci12getHashChainENSt3__18functionIFvRKNS0_8hidl_vecINS0_10hidl_arrayIhLj32EJEEEEEEEE
_ZN7android8hardware9bluetooth4V1_013IBluetoothHci13tryGetServiceERKNSt3__112basic_stringIcNS4_11char_traitsIcEENS4_9allocatorIcEEEEb
_ZN7android8hardware9bluetooth4V1_013IBluetoothHci13unlinkToDeathERKNS_2spINS0_20hidl_death_recipientEEE
_ZN7android8hardware9bluetooth4V1_013IBluetoothHci14interfaceChainENSt3__18functionIFvRKNS0_8hidl_vecINS0_11hidl_stringEEEEEE
_ZN7android8hardware9bluetooth4V1_013IBluetoothHci17registerAsServiceERKNSt3__112basic_stringIcNS4_11char_traitsIcEENS4_9allocatorIcEEEE
_ZN7android8hardware9bluetooth4V1_013IBluetoothHci19interfaceDescriptorENSt3__18functionIFvRKNS0_11hidl_stringEEEE
_ZN7android8hardware9bluetooth4V1_013IBluetoothHci21notifySyspropsChangedEv
_ZN7android8hardware9bluetooth4V1_013IBluetoothHci21setHALInstrumentationEv
_ZN7android8hardware9bluetooth4V1_013IBluetoothHci24registerForNotificationsERKNSt3__112basic_stringIcNS4_11char_traitsIcEENS4_9allocatorIcEEEERKNS_2spINS_4hidl7manager4V1_020IServiceNotificationEEE
_ZN7android8hardware9bluetooth4V1_013IBluetoothHci4pingEv
_ZN7android8hardware9bluetooth4V1_013IBluetoothHci5debugERKNS0_11hidl_handleERKNS0_8hidl_vecINS0_11hidl_stringEEE
_ZN7android8hardware9bluetooth4V1_013IBluetoothHci8castFromERKNS_2spINS_4hidl4base4V1_05IBaseEEEb
_ZN7android8hardware9bluetooth4V1_013IBluetoothHci8castFromERKNS_2spIS3_EEb
_ZN7android8hardware9bluetooth4V1_014BsBluetoothHci13addOnewayTaskENSt3__18functionIFvvEEE
_ZN7android8hardware9bluetooth4V1_014BsBluetoothHciC1ENS_2spINS2_13IBluetoothHciEEE
_ZN7android8hardware9bluetooth4V1_014BsBluetoothHciC2ENS_2spINS2_13IBluetoothHciEEE
_ZN7android8hardware9bluetooth4V1_016BnHwBluetoothHci10onTransactEjRKNS0_6ParcelEPS4_jNSt3__18functionIFvRS4_EEE
_ZN7android8hardware9bluetooth4V1_016BnHwBluetoothHci11_hidl_closeEPNS_4hidl4base4V1_08BnHwBaseERKNS0_6ParcelEPS9_NSt3__18functionIFvRS9_EEE
_ZN7android8hardware9bluetooth4V1_016BnHwBluetoothHci12getDebugInfoENSt3__18functionIFvRKNS_4hidl4base4V1_09DebugInfoEEEE
_ZN7android8hardware9bluetooth4V1_016BnHwBluetoothHci16_hidl_initializeEPNS_4hidl4base4V1_08BnHwBaseERKNS0_6ParcelEPS9_NSt3__18functionIFvRS9_EEE
_ZN7android8hardware9bluetooth4V1_016BnHwBluetoothHci17_hidl_sendAclDataEPNS_4hidl4base4V1_08BnHwBaseERKNS0_6ParcelEPS9_NSt3__18functionIFvRS9_EEE
_ZN7android8hardware9bluetooth4V1_016BnHwBluetoothHci17_hidl_sendScoDataEPNS_4hidl4base4V1_08BnHwBaseERKNS0_6ParcelEPS9_NSt3__18functionIFvRS9_EEE
_ZN7android8hardware9bluetooth4V1_016BnHwBluetoothHci20_hidl_sendHciCommandEPNS_4hidl4base4V1_08BnHwBaseERKNS0_6ParcelEPS9_NSt3__18functionIFvRS9_EEE
_ZN7android8hardware9bluetooth4V1_016BnHwBluetoothHci4pingEv
_ZN7android8hardware9bluetooth4V1_016BnHwBluetoothHciC1ERKNS_2spINS2_13IBluetoothHciEEE
_ZN7android8hardware9bluetooth4V1_016BnHwBluetoothHciC2ERKNS_2spINS2_13IBluetoothHciEEE
_ZN7android8hardware9bluetooth4V1_016BnHwBluetoothHciD0Ev
_ZN7android8hardware9bluetooth4V1_016BnHwBluetoothHciD1Ev
_ZN7android8hardware9bluetooth4V1_016BnHwBluetoothHciD2Ev
_ZN7android8hardware9bluetooth4V1_016BpHwBluetoothHci10initializeERKNS_2spINS2_22IBluetoothHciCallbacksEEE
_ZN7android8hardware9bluetooth4V1_016BpHwBluetoothHci11_hidl_closeEPNS0_10IInterfaceEPNS0_7details16HidlInstrumentorE
_ZN7android8hardware9bluetooth4V1_016BpHwBluetoothHci11linkToDeathERKNS_2spINS0_20hidl_death_recipientEEEy
_ZN7android8hardware9bluetooth4V1_016BpHwBluetoothHci11sendAclDataERKNS0_8hidl_vecIhEE
_ZN7android8hardware9bluetooth4V1_016BpHwBluetoothHci11sendScoDataERKNS0_8hidl_vecIhEE
_ZN7android8hardware9bluetooth4V1_016BpHwBluetoothHci12getDebugInfoENSt3__18functionIFvRKNS_4hidl4base4V1_09DebugInfoEEEE
_ZN7android8hardware9bluetooth4V1_016BpHwBluetoothHci12getHashChainENSt3__18functionIFvRKNS0_8hidl_vecINS0_10hidl_arrayIhLj32EJEEEEEEEE
_ZN7android8hardware9bluetooth4V1_016BpHwBluetoothHci13unlinkToDeathERKNS_2spINS0_20hidl_death_recipientEEE
_ZN7android8hardware9bluetooth4V1_016BpHwBluetoothHci14interfaceChainENSt3__18functionIFvRKNS0_8hidl_vecINS0_11hidl_stringEEEEEE
_ZN7android8hardware9bluetooth4V1_016BpHwBluetoothHci14sendHciCommandERKNS0_8hidl_vecIhEE
_ZN7android8hardware9bluetooth4V1_016BpHwBluetoothHci16_hidl_initializeEPNS0_10IInterfaceEPNS0_7details16HidlInstrumentorERKNS_2spINS2_22IBluetoothHciCallbacksEEE
_ZN7android8hardware9bluetooth4V1_016BpHwBluetoothHci17_hidl_sendAclDataEPNS0_10IInterfaceEPNS0_7details16HidlInstrumentorERKNS0_8hidl_vecIhEE
_ZN7android8hardware9bluetooth4V1_016BpHwBluetoothHci17_hidl_sendScoDataEPNS0_10IInterfaceEPNS0_7details16HidlInstrumentorERKNS0_8hidl_vecIhEE
_ZN7android8hardware9bluetooth4V1_016BpHwBluetoothHci19interfaceDescriptorENSt3__18functionIFvRKNS0_11hidl_stringEEEE
_ZN7android8hardware9bluetooth4V1_016BpHwBluetoothHci20_hidl_sendHciCommandEPNS0_10IInterfaceEPNS0_7details16HidlInstrumentorERKNS0_8hidl_vecIhEE
_ZN7android8hardware9bluetooth4V1_016BpHwBluetoothHci21notifySyspropsChangedEv
_ZN7android8hardware9bluetooth4V1_016BpHwBluetoothHci21setHALInstrumentationEv
_ZN7android8hardware9bluetooth4V1_016BpHwBluetoothHci4pingEv
_ZN7android8hardware9bluetooth4V1_016BpHwBluetoothHci5closeEv
_ZN7android8hardware9bluetooth4V1_016BpHwBluetoothHci5debugERKNS0_11hidl_handleERKNS0_8hidl_vecINS0_11hidl_stringEEE
_ZN7android8hardware9bluetooth4V1_016BpHwBluetoothHciC1ERKNS_2spINS0_7IBinderEEE
_ZN7android8hardware9bluetooth4V1_016BpHwBluetoothHciC2ERKNS_2spINS0_7IBinderEEE
_ZN7android8hardware9bluetooth4V1_022IBluetoothHciCallbacks10descriptorE
_ZN7android8hardware9bluetooth4V1_022IBluetoothHciCallbacks10getServiceERKNSt3__112basic_stringIcNS4_11char_traitsIcEENS4_9allocatorIcEEEEb
_ZN7android8hardware9bluetooth4V1_022IBluetoothHciCallbacks11linkToDeathERKNS_2spINS0_20hidl_death_recipientEEEy
_ZN7android8hardware9bluetooth4V1_022IBluetoothHciCallbacks12getDebugInfoENSt3__18functionIFvRKNS_4hidl4base4V1_09DebugInfoEEEE
_ZN7android8hardware9bluetooth4V1_022IBluetoothHciCallbacks12getHashChainENSt3__18functionIFvRKNS0_8hidl_vecINS0_10hidl_arrayIhLj32EJEEEEEEEE
_ZN7android8hardware9bluetooth4V1_022IBluetoothHciCallbacks13tryGetServiceERKNSt3__112basic_stringIcNS4_11char_traitsIcEENS4_9allocatorIcEEEEb
_ZN7android8hardware9bluetooth4V1_022IBluetoothHciCallbacks13unlinkToDeathERKNS_2spINS0_20hidl_death_recipientEEE
_ZN7android8hardware9bluetooth4V1_022IBluetoothHciCallbacks14interfaceChainENSt3__18functionIFvRKNS0_8hidl_vecINS0_11hidl_stringEEEEEE
_ZN7android8hardware9bluetooth4V1_022IBluetoothHciCallbacks17registerAsServiceERKNSt3__112basic_stringIcNS4_11char_traitsIcEENS4_9allocatorIcEEEE
_ZN7android8hardware9bluetooth4V1_022IBluetoothHciCallbacks19interfaceDescriptorENSt3__18functionIFvRKNS0_11hidl_stringEEEE
_ZN7android8hardware9bluetooth4V1_022IBluetoothHciCallbacks21notifySyspropsChangedEv
_ZN7android8hardware9bluetooth4V1_022IBluetoothHciCallbacks21setHALInstrumentationEv
_ZN7android8hardware9bluetooth4V1_022IBluetoothHciCallbacks24registerForNotificationsERKNSt3__112basic_stringIcNS4_11char_traitsIcEENS4_9allocatorIcEEEERKNS_2spINS_4hidl7manager4V1_020IServiceNotificationEEE
_ZN7android8hardware9bluetooth4V1_022IBluetoothHciCallbacks4pingEv
_ZN7android8hardware9bluetooth4V1_022IBluetoothHciCallbacks5debugERKNS0_11hidl_handleERKNS0_8hidl_vecINS0_11hidl_stringEEE
_ZN7android8hardware9bluetooth4V1_022IBluetoothHciCallbacks8castFromERKNS_2spINS_4hidl4base4V1_05IBaseEEEb
_ZN7android8hardware9bluetooth4V1_022IBluetoothHciCallbacks8castFromERKNS_2spIS3_EEb
_ZN7android8hardware9bluetooth4V1_023BsBluetoothHciCallbacks13addOnewayTaskENSt3__18functionIFvvEEE
_ZN7android8hardware9bluetooth4V1_023BsBluetoothHciCallbacksC1ENS_2spINS2_22IBluetoothHciCallbacksEEE
_ZN7android8hardware9bluetooth4V1_023BsBluetoothHciCallbacksC2ENS_2spINS2_22IBluetoothHciCallbacksEEE
_ZN7android8hardware9bluetooth4V1_025BnHwBluetoothHciCallbacks10onTransactEjRKNS0_6ParcelEPS4_jNSt3__18functionIFvRS4_EEE
_ZN7android8hardware9bluetooth4V1_025BnHwBluetoothHciCallbacks12getDebugInfoENSt3__18functionIFvRKNS_4hidl4base4V1_09DebugInfoEEEE
_ZN7android8hardware9bluetooth4V1_025BnHwBluetoothHciCallbacks21_hidl_aclDataReceivedEPNS_4hidl4base4V1_08BnHwBaseERKNS0_6ParcelEPS9_NSt3__18functionIFvRS9_EEE
_ZN7android8hardware9bluetooth4V1_025BnHwBluetoothHciCallbacks21_hidl_scoDataReceivedEPNS_4hidl4base4V1_08BnHwBaseERKNS0_6ParcelEPS9_NSt3__18functionIFvRS9_EEE
_ZN7android8hardware9bluetooth4V1_025BnHwBluetoothHciCallbacks22_hidl_hciEventReceivedEPNS_4hidl4base4V1_08BnHwBaseERKNS0_6ParcelEPS9_NSt3__18functionIFvRS9_EEE
_ZN7android8hardware9bluetooth4V1_025BnHwBluetoothHciCallbacks28_hidl_initializationCompleteEPNS_4hidl4base4V1_08BnHwBaseERKNS0_6ParcelEPS9_NSt3__18functionIFvRS9_EEE
_ZN7android8hardware9bluetooth4V1_025BnHwBluetoothHciCallbacks4pingEv
_ZN7android8hardware9bluetooth4V1_025BnHwBluetoothHciCallbacksC1ERKNS_2spINS2_22IBluetoothHciCallbacksEEE
_ZN7android8hardware9bluetooth4V1_025BnHwBluetoothHciCallbacksC2ERKNS_2spINS2_22IBluetoothHciCallbacksEEE
_ZN7android8hardware9bluetooth4V1_025BnHwBluetoothHciCallbacksD0Ev
_ZN7android8hardware9bluetooth4V1_025BnHwBluetoothHciCallbacksD1Ev
_ZN7android8hardware9bluetooth4V1_025BnHwBluetoothHciCallbacksD2Ev
_ZN7android8hardware9bluetooth4V1_025BpHwBluetoothHciCallbacks11linkToDeathERKNS_2spINS0_20hidl_death_recipientEEEy
_ZN7android8hardware9bluetooth4V1_025BpHwBluetoothHciCallbacks12getDebugInfoENSt3__18functionIFvRKNS_4hidl4base4V1_09DebugInfoEEEE
_ZN7android8hardware9bluetooth4V1_025BpHwBluetoothHciCallbacks12getHashChainENSt3__18functionIFvRKNS0_8hidl_vecINS0_10hidl_arrayIhLj32EJEEEEEEEE
_ZN7android8hardware9bluetooth4V1_025BpHwBluetoothHciCallbacks13unlinkToDeathERKNS_2spINS0_20hidl_death_recipientEEE
_ZN7android8hardware9bluetooth4V1_025BpHwBluetoothHciCallbacks14interfaceChainENSt3__18functionIFvRKNS0_8hidl_vecINS0_11hidl_stringEEEEEE
_ZN7android8hardware9bluetooth4V1_025BpHwBluetoothHciCallbacks15aclDataReceivedERKNS0_8hidl_vecIhEE
_ZN7android8hardware9bluetooth4V1_025BpHwBluetoothHciCallbacks15scoDataReceivedERKNS0_8hidl_vecIhEE
_ZN7android8hardware9bluetooth4V1_025BpHwBluetoothHciCallbacks16hciEventReceivedERKNS0_8hidl_vecIhEE
_ZN7android8hardware9bluetooth4V1_025BpHwBluetoothHciCallbacks19interfaceDescriptorENSt3__18functionIFvRKNS0_11hidl_stringEEEE
_ZN7android8hardware9bluetooth4V1_025BpHwBluetoothHciCallbacks21_hidl_aclDataReceivedEPNS0_10IInterfaceEPNS0_7details16HidlInstrumentorERKNS0_8hidl_vecIhEE
_ZN7android8hardware9bluetooth4V1_025BpHwBluetoothHciCallbacks21_hidl_scoDataReceivedEPNS0_10IInterfaceEPNS0_7details16HidlInstrumentorERKNS0_8hidl_vecIhEE
_ZN7android8hardware9bluetooth4V1_025BpHwBluetoothHciCallbacks21notifySyspropsChangedEv
_ZN7android8hardware9bluetooth4V1_025BpHwBluetoothHciCallbacks21setHALInstrumentationEv
_ZN7android8hardware9bluetooth4V1_025BpHwBluetoothHciCallbacks22_hidl_hciEventReceivedEPNS0_10IInterfaceEPNS0_7details16HidlInstrumentorERKNS0_8hidl_vecIhEE
_ZN7android8hardware9bluetooth4V1_025BpHwBluetoothHciCallbacks22initializationCompleteENS2_6StatusE
_ZN7android8hardware9bluetooth4V1_025BpHwBluetoothHciCallbacks28_hidl_initializationCompleteEPNS0_10IInterfaceEPNS0_7details16HidlInstrumentorENS2_6StatusE
_ZN7android8hardware9bluetooth4V1_025BpHwBluetoothHciCallbacks4pingEv
_ZN7android8hardware9bluetooth4V1_025BpHwBluetoothHciCallbacks5debugERKNS0_11hidl_handleERKNS0_8hidl_vecINS0_11hidl_stringEEE
_ZN7android8hardware9bluetooth4V1_025BpHwBluetoothHciCallbacksC1ERKNS_2spINS0_7IBinderEEE
_ZN7android8hardware9bluetooth4V1_025BpHwBluetoothHciCallbacksC2ERKNS_2spINS0_7IBinderEEE
_ZTCN7android8hardware9bluetooth4V1_013IBluetoothHciE0_NS_4hidl4base4V1_05IBaseE
_ZTCN7android8hardware9bluetooth4V1_016BnHwBluetoothHciE0_NS0_7IBinderE
_ZTCN7android8hardware9bluetooth4V1_016BnHwBluetoothHciE0_NS0_9BHwBinderE
_ZTCN7android8hardware9bluetooth4V1_016BnHwBluetoothHciE0_NS_4hidl4base4V1_08BnHwBaseE
_ZTCN7android8hardware9bluetooth4V1_016BpHwBluetoothHciE0_NS0_11BpInterfaceINS2_13IBluetoothHciEEE
_ZTCN7android8hardware9bluetooth4V1_016BpHwBluetoothHciE0_NS2_13IBluetoothHciE
_ZTCN7android8hardware9bluetooth4V1_016BpHwBluetoothHciE0_NS_4hidl4base4V1_05IBaseE
_ZTCN7android8hardware9bluetooth4V1_016BpHwBluetoothHciE4_NS0_10IInterfaceE
_ZTCN7android8hardware9bluetooth4V1_016BpHwBluetoothHciE8_NS0_11BpHwRefBaseE
_ZTCN7android8hardware9bluetooth4V1_022IBluetoothHciCallbacksE0_NS_4hidl4base4V1_05IBaseE
_ZTCN7android8hardware9bluetooth4V1_025BnHwBluetoothHciCallbacksE0_NS0_7IBinderE
_ZTCN7android8hardware9bluetooth4V1_025BnHwBluetoothHciCallbacksE0_NS0_9BHwBinderE
_ZTCN7android8hardware9bluetooth4V1_025BnHwBluetoothHciCallbacksE0_NS_4hidl4base4V1_08BnHwBaseE
_ZTCN7android8hardware9bluetooth4V1_025BpHwBluetoothHciCallbacksE0_NS0_11BpInterfaceINS2_22IBluetoothHciCallbacksEEE
_ZTCN7android8hardware9bluetooth4V1_025BpHwBluetoothHciCallbacksE0_NS2_22IBluetoothHciCallbacksE
_ZTCN7android8hardware9bluetooth4V1_025BpHwBluetoothHciCallbacksE0_NS_4hidl4base4V1_05IBaseE
_ZTCN7android8hardware9bluetooth4V1_025BpHwBluetoothHciCallbacksE4_NS0_10IInterfaceE
_ZTCN7android8hardware9bluetooth4V1_025BpHwBluetoothHciCallbacksE8_NS0_11BpHwRefBaseE
_ZTTN7android8hardware9bluetooth4V1_013IBluetoothHciE
_ZTTN7android8hardware9bluetooth4V1_016BnHwBluetoothHciE
_ZTTN7android8hardware9bluetooth4V1_016BpHwBluetoothHciE
_ZTTN7android8hardware9bluetooth4V1_022IBluetoothHciCallbacksE
_ZTTN7android8hardware9bluetooth4V1_025BnHwBluetoothHciCallbacksE
_ZTTN7android8hardware9bluetooth4V1_025BpHwBluetoothHciCallbacksE
_ZTVN7android8hardware9bluetooth4V1_013IBluetoothHciE
_ZTVN7android8hardware9bluetooth4V1_016BnHwBluetoothHciE
_ZTVN7android8hardware9bluetooth4V1_016BpHwBluetoothHciE
_ZTVN7android8hardware9bluetooth4V1_022IBluetoothHciCallbacksE
_ZTVN7android8hardware9bluetooth4V1_025BnHwBluetoothHciCallbacksE
_ZTVN7android8hardware9bluetooth4V1_025BpHwBluetoothHciCallbacksE
_ZThn20_N7android8hardware9bluetooth4V1_016BnHwBluetoothHciD0Ev
_ZThn20_N7android8hardware9bluetooth4V1_016BnHwBluetoothHciD1Ev
_ZThn20_N7android8hardware9bluetooth4V1_025BnHwBluetoothHciCallbacksD0Ev
_ZThn20_N7android8hardware9bluetooth4V1_025BnHwBluetoothHciCallbacksD1Ev
_ZTv0_n12_N7android8hardware9bluetooth4V1_016BnHwBluetoothHciD0Ev
_ZTv0_n12_N7android8hardware9bluetooth4V1_016BnHwBluetoothHciD1Ev
_ZTv0_n12_N7android8hardware9bluetooth4V1_025BnHwBluetoothHciCallbacksD0Ev
_ZTv0_n12_N7android8hardware9bluetooth4V1_025BnHwBluetoothHciCallbacksD1Ev
