_ZN7android8hardware14secure_element4V1_014ISecureElement10descriptorE
_ZN7android8hardware14secure_element4V1_014ISecureElement10getServiceERKNSt3__112basic_stringIcNS4_11char_traitsIcEENS4_9allocatorIcEEEEb
_ZN7android8hardware14secure_element4V1_014ISecureElement11linkToDeathERKNS_2spINS0_20hidl_death_recipientEEEy
_ZN7android8hardware14secure_element4V1_014ISecureElement12getDebugInfoENSt3__18functionIFvRKNS_4hidl4base4V1_09DebugInfoEEEE
_ZN7android8hardware14secure_element4V1_014ISecureElement12getHashChainENSt3__18functionIFvRKNS0_8hidl_vecINS0_10hidl_arrayIhLj32EJEEEEEEEE
_ZN7android8hardware14secure_element4V1_014ISecureElement13tryGetServiceERKNSt3__112basic_stringIcNS4_11char_traitsIcEENS4_9allocatorIcEEEEb
_ZN7android8hardware14secure_element4V1_014ISecureElement13unlinkToDeathERKNS_2spINS0_20hidl_death_recipientEEE
_ZN7android8hardware14secure_element4V1_014ISecureElement14interfaceChainENSt3__18functionIFvRKNS0_8hidl_vecINS0_11hidl_stringEEEEEE
_ZN7android8hardware14secure_element4V1_014ISecureElement17registerAsServiceERKNSt3__112basic_stringIcNS4_11char_traitsIcEENS4_9allocatorIcEEEE
_ZN7android8hardware14secure_element4V1_014ISecureElement19interfaceDescriptorENSt3__18functionIFvRKNS0_11hidl_stringEEEE
_ZN7android8hardware14secure_element4V1_014ISecureElement21notifySyspropsChangedEv
_ZN7android8hardware14secure_element4V1_014ISecureElement21setHALInstrumentationEv
_ZN7android8hardware14secure_element4V1_014ISecureElement24registerForNotificationsERKNSt3__112basic_stringIcNS4_11char_traitsIcEENS4_9allocatorIcEEEERKNS_2spINS_4hidl7manager4V1_020IServiceNotificationEEE
_ZN7android8hardware14secure_element4V1_014ISecureElement4pingEv
_ZN7android8hardware14secure_element4V1_014ISecureElement5debugERKNS0_11hidl_handleERKNS0_8hidl_vecINS0_11hidl_stringEEE
_ZN7android8hardware14secure_element4V1_014ISecureElement8castFromERKNS_2spINS_4hidl4base4V1_05IBaseEEEb
_ZN7android8hardware14secure_element4V1_014ISecureElement8castFromERKNS_2spIS3_EEb
_ZN7android8hardware14secure_element4V1_015BsSecureElement13addOnewayTaskENSt3__18functionIFvvEEE
_ZN7android8hardware14secure_element4V1_015BsSecureElementC1ENS_2spINS2_14ISecureElementEEE
_ZN7android8hardware14secure_element4V1_015BsSecureElementC2ENS_2spINS2_14ISecureElementEEE
_ZN7android8hardware14secure_element4V1_017BnHwSecureElement10_hidl_initEPNS_4hidl4base4V1_08BnHwBaseERKNS0_6ParcelEPS9_NSt3__18functionIFvRS9_EEE
_ZN7android8hardware14secure_element4V1_017BnHwSecureElement10onTransactEjRKNS0_6ParcelEPS4_jNSt3__18functionIFvRS4_EEE
_ZN7android8hardware14secure_element4V1_017BnHwSecureElement12_hidl_getAtrEPNS_4hidl4base4V1_08BnHwBaseERKNS0_6ParcelEPS9_NSt3__18functionIFvRS9_EEE
_ZN7android8hardware14secure_element4V1_017BnHwSecureElement12getDebugInfoENSt3__18functionIFvRKNS_4hidl4base4V1_09DebugInfoEEEE
_ZN7android8hardware14secure_element4V1_017BnHwSecureElement14_hidl_transmitEPNS_4hidl4base4V1_08BnHwBaseERKNS0_6ParcelEPS9_NSt3__18functionIFvRS9_EEE
_ZN7android8hardware14secure_element4V1_017BnHwSecureElement18_hidl_closeChannelEPNS_4hidl4base4V1_08BnHwBaseERKNS0_6ParcelEPS9_NSt3__18functionIFvRS9_EEE
_ZN7android8hardware14secure_element4V1_017BnHwSecureElement19_hidl_isCardPresentEPNS_4hidl4base4V1_08BnHwBaseERKNS0_6ParcelEPS9_NSt3__18functionIFvRS9_EEE
_ZN7android8hardware14secure_element4V1_017BnHwSecureElement22_hidl_openBasicChannelEPNS_4hidl4base4V1_08BnHwBaseERKNS0_6ParcelEPS9_NSt3__18functionIFvRS9_EEE
_ZN7android8hardware14secure_element4V1_017BnHwSecureElement24_hidl_openLogicalChannelEPNS_4hidl4base4V1_08BnHwBaseERKNS0_6ParcelEPS9_NSt3__18functionIFvRS9_EEE
_ZN7android8hardware14secure_element4V1_017BnHwSecureElement4pingEv
_ZN7android8hardware14secure_element4V1_017BnHwSecureElementC1ERKNS_2spINS2_14ISecureElementEEE
_ZN7android8hardware14secure_element4V1_017BnHwSecureElementC2ERKNS_2spINS2_14ISecureElementEEE
_ZN7android8hardware14secure_element4V1_017BnHwSecureElementD0Ev
_ZN7android8hardware14secure_element4V1_017BnHwSecureElementD1Ev
_ZN7android8hardware14secure_element4V1_017BnHwSecureElementD2Ev
_ZN7android8hardware14secure_element4V1_017BpHwSecureElement10_hidl_initEPNS0_10IInterfaceEPNS0_7details16HidlInstrumentorERKNS_2spINS2_25ISecureElementHalCallbackEEE
_ZN7android8hardware14secure_element4V1_017BpHwSecureElement11linkToDeathERKNS_2spINS0_20hidl_death_recipientEEEy
_ZN7android8hardware14secure_element4V1_017BpHwSecureElement12_hidl_getAtrEPNS0_10IInterfaceEPNS0_7details16HidlInstrumentorENSt3__18functionIFvRKNS0_8hidl_vecIhEEEEE
_ZN7android8hardware14secure_element4V1_017BpHwSecureElement12closeChannelEh
_ZN7android8hardware14secure_element4V1_017BpHwSecureElement12getDebugInfoENSt3__18functionIFvRKNS_4hidl4base4V1_09DebugInfoEEEE
_ZN7android8hardware14secure_element4V1_017BpHwSecureElement12getHashChainENSt3__18functionIFvRKNS0_8hidl_vecINS0_10hidl_arrayIhLj32EJEEEEEEEE
_ZN7android8hardware14secure_element4V1_017BpHwSecureElement13isCardPresentEv
_ZN7android8hardware14secure_element4V1_017BpHwSecureElement13unlinkToDeathERKNS_2spINS0_20hidl_death_recipientEEE
_ZN7android8hardware14secure_element4V1_017BpHwSecureElement14_hidl_transmitEPNS0_10IInterfaceEPNS0_7details16HidlInstrumentorERKNS0_8hidl_vecIhEENSt3__18functionIFvSC_EEE
_ZN7android8hardware14secure_element4V1_017BpHwSecureElement14interfaceChainENSt3__18functionIFvRKNS0_8hidl_vecINS0_11hidl_stringEEEEEE
_ZN7android8hardware14secure_element4V1_017BpHwSecureElement16openBasicChannelERKNS0_8hidl_vecIhEEhNSt3__18functionIFvS7_NS2_19SecureElementStatusEEEE
_ZN7android8hardware14secure_element4V1_017BpHwSecureElement18_hidl_closeChannelEPNS0_10IInterfaceEPNS0_7details16HidlInstrumentorEh
_ZN7android8hardware14secure_element4V1_017BpHwSecureElement18openLogicalChannelERKNS0_8hidl_vecIhEEhNSt3__18functionIFvRKNS2_22LogicalChannelResponseENS2_19SecureElementStatusEEEE
_ZN7android8hardware14secure_element4V1_017BpHwSecureElement19_hidl_isCardPresentEPNS0_10IInterfaceEPNS0_7details16HidlInstrumentorE
_ZN7android8hardware14secure_element4V1_017BpHwSecureElement19interfaceDescriptorENSt3__18functionIFvRKNS0_11hidl_stringEEEE
_ZN7android8hardware14secure_element4V1_017BpHwSecureElement21notifySyspropsChangedEv
_ZN7android8hardware14secure_element4V1_017BpHwSecureElement21setHALInstrumentationEv
_ZN7android8hardware14secure_element4V1_017BpHwSecureElement22_hidl_openBasicChannelEPNS0_10IInterfaceEPNS0_7details16HidlInstrumentorERKNS0_8hidl_vecIhEEhNSt3__18functionIFvSC_NS2_19SecureElementStatusEEEE
_ZN7android8hardware14secure_element4V1_017BpHwSecureElement24_hidl_openLogicalChannelEPNS0_10IInterfaceEPNS0_7details16HidlInstrumentorERKNS0_8hidl_vecIhEEhNSt3__18functionIFvRKNS2_22LogicalChannelResponseENS2_19SecureElementStatusEEEE
_ZN7android8hardware14secure_element4V1_017BpHwSecureElement4initERKNS_2spINS2_25ISecureElementHalCallbackEEE
_ZN7android8hardware14secure_element4V1_017BpHwSecureElement4pingEv
_ZN7android8hardware14secure_element4V1_017BpHwSecureElement5debugERKNS0_11hidl_handleERKNS0_8hidl_vecINS0_11hidl_stringEEE
_ZN7android8hardware14secure_element4V1_017BpHwSecureElement6getAtrENSt3__18functionIFvRKNS0_8hidl_vecIhEEEEE
_ZN7android8hardware14secure_element4V1_017BpHwSecureElement8transmitERKNS0_8hidl_vecIhEENSt3__18functionIFvS7_EEE
_ZN7android8hardware14secure_element4V1_017BpHwSecureElementC1ERKNS_2spINS0_7IBinderEEE
_ZN7android8hardware14secure_element4V1_017BpHwSecureElementC2ERKNS_2spINS0_7IBinderEEE
_ZN7android8hardware14secure_element4V1_021writeEmbeddedToParcelERKNS2_22LogicalChannelResponseEPNS0_6ParcelEjj
_ZN7android8hardware14secure_element4V1_022readEmbeddedFromParcelERKNS2_22LogicalChannelResponseERKNS0_6ParcelEjj
_ZN7android8hardware14secure_element4V1_025ISecureElementHalCallback10descriptorE
_ZN7android8hardware14secure_element4V1_025ISecureElementHalCallback10getServiceERKNSt3__112basic_stringIcNS4_11char_traitsIcEENS4_9allocatorIcEEEEb
_ZN7android8hardware14secure_element4V1_025ISecureElementHalCallback11linkToDeathERKNS_2spINS0_20hidl_death_recipientEEEy
_ZN7android8hardware14secure_element4V1_025ISecureElementHalCallback12getDebugInfoENSt3__18functionIFvRKNS_4hidl4base4V1_09DebugInfoEEEE
_ZN7android8hardware14secure_element4V1_025ISecureElementHalCallback12getHashChainENSt3__18functionIFvRKNS0_8hidl_vecINS0_10hidl_arrayIhLj32EJEEEEEEEE
_ZN7android8hardware14secure_element4V1_025ISecureElementHalCallback13tryGetServiceERKNSt3__112basic_stringIcNS4_11char_traitsIcEENS4_9allocatorIcEEEEb
_ZN7android8hardware14secure_element4V1_025ISecureElementHalCallback13unlinkToDeathERKNS_2spINS0_20hidl_death_recipientEEE
_ZN7android8hardware14secure_element4V1_025ISecureElementHalCallback14interfaceChainENSt3__18functionIFvRKNS0_8hidl_vecINS0_11hidl_stringEEEEEE
_ZN7android8hardware14secure_element4V1_025ISecureElementHalCallback17registerAsServiceERKNSt3__112basic_stringIcNS4_11char_traitsIcEENS4_9allocatorIcEEEE
_ZN7android8hardware14secure_element4V1_025ISecureElementHalCallback19interfaceDescriptorENSt3__18functionIFvRKNS0_11hidl_stringEEEE
_ZN7android8hardware14secure_element4V1_025ISecureElementHalCallback21notifySyspropsChangedEv
_ZN7android8hardware14secure_element4V1_025ISecureElementHalCallback21setHALInstrumentationEv
_ZN7android8hardware14secure_element4V1_025ISecureElementHalCallback24registerForNotificationsERKNSt3__112basic_stringIcNS4_11char_traitsIcEENS4_9allocatorIcEEEERKNS_2spINS_4hidl7manager4V1_020IServiceNotificationEEE
_ZN7android8hardware14secure_element4V1_025ISecureElementHalCallback4pingEv
_ZN7android8hardware14secure_element4V1_025ISecureElementHalCallback5debugERKNS0_11hidl_handleERKNS0_8hidl_vecINS0_11hidl_stringEEE
_ZN7android8hardware14secure_element4V1_025ISecureElementHalCallback8castFromERKNS_2spINS_4hidl4base4V1_05IBaseEEEb
_ZN7android8hardware14secure_element4V1_025ISecureElementHalCallback8castFromERKNS_2spIS3_EEb
_ZN7android8hardware14secure_element4V1_026BsSecureElementHalCallback13addOnewayTaskENSt3__18functionIFvvEEE
_ZN7android8hardware14secure_element4V1_026BsSecureElementHalCallbackC1ENS_2spINS2_25ISecureElementHalCallbackEEE
_ZN7android8hardware14secure_element4V1_026BsSecureElementHalCallbackC2ENS_2spINS2_25ISecureElementHalCallbackEEE
_ZN7android8hardware14secure_element4V1_028BnHwSecureElementHalCallback10onTransactEjRKNS0_6ParcelEPS4_jNSt3__18functionIFvRS4_EEE
_ZN7android8hardware14secure_element4V1_028BnHwSecureElementHalCallback12getDebugInfoENSt3__18functionIFvRKNS_4hidl4base4V1_09DebugInfoEEEE
_ZN7android8hardware14secure_element4V1_028BnHwSecureElementHalCallback19_hidl_onStateChangeEPNS_4hidl4base4V1_08BnHwBaseERKNS0_6ParcelEPS9_NSt3__18functionIFvRS9_EEE
_ZN7android8hardware14secure_element4V1_028BnHwSecureElementHalCallback4pingEv
_ZN7android8hardware14secure_element4V1_028BnHwSecureElementHalCallbackC1ERKNS_2spINS2_25ISecureElementHalCallbackEEE
_ZN7android8hardware14secure_element4V1_028BnHwSecureElementHalCallbackC2ERKNS_2spINS2_25ISecureElementHalCallbackEEE
_ZN7android8hardware14secure_element4V1_028BnHwSecureElementHalCallbackD0Ev
_ZN7android8hardware14secure_element4V1_028BnHwSecureElementHalCallbackD1Ev
_ZN7android8hardware14secure_element4V1_028BnHwSecureElementHalCallbackD2Ev
_ZN7android8hardware14secure_element4V1_028BpHwSecureElementHalCallback11linkToDeathERKNS_2spINS0_20hidl_death_recipientEEEy
_ZN7android8hardware14secure_element4V1_028BpHwSecureElementHalCallback12getDebugInfoENSt3__18functionIFvRKNS_4hidl4base4V1_09DebugInfoEEEE
_ZN7android8hardware14secure_element4V1_028BpHwSecureElementHalCallback12getHashChainENSt3__18functionIFvRKNS0_8hidl_vecINS0_10hidl_arrayIhLj32EJEEEEEEEE
_ZN7android8hardware14secure_element4V1_028BpHwSecureElementHalCallback13onStateChangeEb
_ZN7android8hardware14secure_element4V1_028BpHwSecureElementHalCallback13unlinkToDeathERKNS_2spINS0_20hidl_death_recipientEEE
_ZN7android8hardware14secure_element4V1_028BpHwSecureElementHalCallback14interfaceChainENSt3__18functionIFvRKNS0_8hidl_vecINS0_11hidl_stringEEEEEE
_ZN7android8hardware14secure_element4V1_028BpHwSecureElementHalCallback19_hidl_onStateChangeEPNS0_10IInterfaceEPNS0_7details16HidlInstrumentorEb
_ZN7android8hardware14secure_element4V1_028BpHwSecureElementHalCallback19interfaceDescriptorENSt3__18functionIFvRKNS0_11hidl_stringEEEE
_ZN7android8hardware14secure_element4V1_028BpHwSecureElementHalCallback21notifySyspropsChangedEv
_ZN7android8hardware14secure_element4V1_028BpHwSecureElementHalCallback21setHALInstrumentationEv
_ZN7android8hardware14secure_element4V1_028BpHwSecureElementHalCallback4pingEv
_ZN7android8hardware14secure_element4V1_028BpHwSecureElementHalCallback5debugERKNS0_11hidl_handleERKNS0_8hidl_vecINS0_11hidl_stringEEE
_ZN7android8hardware14secure_element4V1_028BpHwSecureElementHalCallbackC1ERKNS_2spINS0_7IBinderEEE
_ZN7android8hardware14secure_element4V1_028BpHwSecureElementHalCallbackC2ERKNS_2spINS0_7IBinderEEE
_ZTCN7android8hardware14secure_element4V1_014ISecureElementE0_NS_4hidl4base4V1_05IBaseE
_ZTCN7android8hardware14secure_element4V1_017BnHwSecureElementE0_NS0_7IBinderE
_ZTCN7android8hardware14secure_element4V1_017BnHwSecureElementE0_NS0_9BHwBinderE
_ZTCN7android8hardware14secure_element4V1_017BnHwSecureElementE0_NS_4hidl4base4V1_08BnHwBaseE
_ZTCN7android8hardware14secure_element4V1_017BpHwSecureElementE0_NS0_11BpInterfaceINS2_14ISecureElementEEE
_ZTCN7android8hardware14secure_element4V1_017BpHwSecureElementE0_NS2_14ISecureElementE
_ZTCN7android8hardware14secure_element4V1_017BpHwSecureElementE0_NS_4hidl4base4V1_05IBaseE
_ZTCN7android8hardware14secure_element4V1_017BpHwSecureElementE4_NS0_10IInterfaceE
_ZTCN7android8hardware14secure_element4V1_017BpHwSecureElementE8_NS0_11BpHwRefBaseE
_ZTCN7android8hardware14secure_element4V1_025ISecureElementHalCallbackE0_NS_4hidl4base4V1_05IBaseE
_ZTCN7android8hardware14secure_element4V1_028BnHwSecureElementHalCallbackE0_NS0_7IBinderE
_ZTCN7android8hardware14secure_element4V1_028BnHwSecureElementHalCallbackE0_NS0_9BHwBinderE
_ZTCN7android8hardware14secure_element4V1_028BnHwSecureElementHalCallbackE0_NS_4hidl4base4V1_08BnHwBaseE
_ZTCN7android8hardware14secure_element4V1_028BpHwSecureElementHalCallbackE0_NS0_11BpInterfaceINS2_25ISecureElementHalCallbackEEE
_ZTCN7android8hardware14secure_element4V1_028BpHwSecureElementHalCallbackE0_NS2_25ISecureElementHalCallbackE
_ZTCN7android8hardware14secure_element4V1_028BpHwSecureElementHalCallbackE0_NS_4hidl4base4V1_05IBaseE
_ZTCN7android8hardware14secure_element4V1_028BpHwSecureElementHalCallbackE4_NS0_10IInterfaceE
_ZTCN7android8hardware14secure_element4V1_028BpHwSecureElementHalCallbackE8_NS0_11BpHwRefBaseE
_ZTTN7android8hardware14secure_element4V1_014ISecureElementE
_ZTTN7android8hardware14secure_element4V1_017BnHwSecureElementE
_ZTTN7android8hardware14secure_element4V1_017BpHwSecureElementE
_ZTTN7android8hardware14secure_element4V1_025ISecureElementHalCallbackE
_ZTTN7android8hardware14secure_element4V1_028BnHwSecureElementHalCallbackE
_ZTTN7android8hardware14secure_element4V1_028BpHwSecureElementHalCallbackE
_ZTVN7android8hardware14secure_element4V1_014ISecureElementE
_ZTVN7android8hardware14secure_element4V1_017BnHwSecureElementE
_ZTVN7android8hardware14secure_element4V1_017BpHwSecureElementE
_ZTVN7android8hardware14secure_element4V1_025ISecureElementHalCallbackE
_ZTVN7android8hardware14secure_element4V1_028BnHwSecureElementHalCallbackE
_ZTVN7android8hardware14secure_element4V1_028BpHwSecureElementHalCallbackE
_ZThn20_N7android8hardware14secure_element4V1_017BnHwSecureElementD0Ev
_ZThn20_N7android8hardware14secure_element4V1_017BnHwSecureElementD1Ev
_ZThn20_N7android8hardware14secure_element4V1_028BnHwSecureElementHalCallbackD0Ev
_ZThn20_N7android8hardware14secure_element4V1_028BnHwSecureElementHalCallbackD1Ev
_ZTv0_n12_N7android8hardware14secure_element4V1_017BnHwSecureElementD0Ev
_ZTv0_n12_N7android8hardware14secure_element4V1_017BnHwSecureElementD1Ev
_ZTv0_n12_N7android8hardware14secure_element4V1_028BnHwSecureElementHalCallbackD0Ev
_ZTv0_n12_N7android8hardware14secure_element4V1_028BnHwSecureElementHalCallbackD1Ev
