_ZN10gatekeeper10GateKeeper13MintAuthTokenEPNS_9UniquePtrIhNS_13DefaultDeleteIhEEEEPjyyyy
_ZN10gatekeeper10GateKeeper15ThrottleRequestEjyPNS_16failure_record_tEbPNS_17GateKeeperMessageE
_ZN10gatekeeper10GateKeeper19ComputeRetryTimeoutEPKNS_16failure_record_tE
_ZN10gatekeeper10GateKeeper20CreatePasswordHandleEPNS_11SizedBufferEyyyhPKhj
_ZN10gatekeeper10GateKeeper22IncrementFailureRecordEjyyPNS_16failure_record_tEb
_ZN10gatekeeper10GateKeeper6EnrollERKNS_13EnrollRequestEPNS_14EnrollResponseE
_ZN10gatekeeper10GateKeeper6VerifyERKNS_13VerifyRequestEPNS_14VerifyResponseE
_ZN10gatekeeper10GateKeeper8DoVerifyEPKNS_17password_handle_tERKNS_11SizedBufferE
_ZN10gatekeeper13EnrollRequest19nonErrorDeserializeEPKhS2_
_ZN10gatekeeper13EnrollRequestC1EjPNS_11SizedBufferES2_S2_
_ZN10gatekeeper13EnrollRequestC1Ev
_ZN10gatekeeper13EnrollRequestC2EjPNS_11SizedBufferES2_S2_
_ZN10gatekeeper13EnrollRequestC2Ev
_ZN10gatekeeper13EnrollRequestD0Ev
_ZN10gatekeeper13EnrollRequestD1Ev
_ZN10gatekeeper13EnrollRequestD2Ev
_ZN10gatekeeper13VerifyRequest19nonErrorDeserializeEPKhS2_
_ZN10gatekeeper13VerifyRequestC1EjyPNS_11SizedBufferES2_
_ZN10gatekeeper13VerifyRequestC1Ev
_ZN10gatekeeper13VerifyRequestC2EjyPNS_11SizedBufferES2_
_ZN10gatekeeper13VerifyRequestC2Ev
_ZN10gatekeeper13VerifyRequestD0Ev
_ZN10gatekeeper13VerifyRequestD1Ev
_ZN10gatekeeper13VerifyRequestD2Ev
_ZN10gatekeeper14EnrollResponse19nonErrorDeserializeEPKhS2_
_ZN10gatekeeper14EnrollResponse25SetEnrolledPasswordHandleEPNS_11SizedBufferE
_ZN10gatekeeper14EnrollResponseC1EjPNS_11SizedBufferE
_ZN10gatekeeper14EnrollResponseC1Ev
_ZN10gatekeeper14EnrollResponseC2EjPNS_11SizedBufferE
_ZN10gatekeeper14EnrollResponseC2Ev
_ZN10gatekeeper14EnrollResponseD0Ev
_ZN10gatekeeper14EnrollResponseD1Ev
_ZN10gatekeeper14EnrollResponseD2Ev
_ZN10gatekeeper14VerifyResponse19nonErrorDeserializeEPKhS2_
_ZN10gatekeeper14VerifyResponse20SetVerificationTokenEPNS_11SizedBufferE
_ZN10gatekeeper14VerifyResponseC1EjPNS_11SizedBufferE
_ZN10gatekeeper14VerifyResponseC1Ev
_ZN10gatekeeper14VerifyResponseC2EjPNS_11SizedBufferE
_ZN10gatekeeper14VerifyResponseC2Ev
_ZN10gatekeeper14VerifyResponseD0Ev
_ZN10gatekeeper14VerifyResponseD1Ev
_ZN10gatekeeper14VerifyResponseD2Ev
_ZN10gatekeeper17GateKeeperMessage11DeserializeEPKhS2_
_ZN10gatekeeper17GateKeeperMessage15SetRetryTimeoutEj
_ZNK10gatekeeper13EnrollRequest17nonErrorSerializeEPh
_ZNK10gatekeeper13EnrollRequest22nonErrorSerializedSizeEv
_ZNK10gatekeeper13VerifyRequest17nonErrorSerializeEPh
_ZNK10gatekeeper13VerifyRequest22nonErrorSerializedSizeEv
_ZNK10gatekeeper14EnrollResponse17nonErrorSerializeEPh
_ZNK10gatekeeper14EnrollResponse22nonErrorSerializedSizeEv
_ZNK10gatekeeper14VerifyResponse17nonErrorSerializeEPh
_ZNK10gatekeeper14VerifyResponse22nonErrorSerializedSizeEv
_ZNK10gatekeeper17GateKeeperMessage17GetSerializedSizeEv
_ZNK10gatekeeper17GateKeeperMessage9SerializeEPhPKh
_ZTVN10gatekeeper10GateKeeperE
_ZTVN10gatekeeper13EnrollRequestE
_ZTVN10gatekeeper13VerifyRequestE
_ZTVN10gatekeeper14EnrollResponseE
_ZTVN10gatekeeper14VerifyResponseE
