_ZN4piex10TiffParser12ParseGpsDataEPKNS_14tiff_directory13TiffDirectoryEPNS_11TiffContentE
_ZN4piex10TiffParser19GetPreviewImageDataERKNS_11TiffContentEPNS_16PreviewImageDataE
_ZN4piex10TiffParser5ParseERKNSt3__13setIjNS1_4lessIjEENS1_9allocatorIjEEEEtPNS_11TiffContentE
_ZN4piex10TiffParser8ParseIfdEjRKNSt3__13setIjNS1_4lessIjEENS1_9allocatorIjEEEEtPNS1_6vectorINS_14tiff_directory13TiffDirectoryENS5_ISC_EEEE
_ZN4piex10TiffParserC1EPNS_15StreamInterfaceE
_ZN4piex10TiffParserC1EPNS_15StreamInterfaceEj
_ZN4piex10TiffParserC2EPNS_15StreamInterfaceE
_ZN4piex10TiffParserC2EPNS_15StreamInterfaceEj
_ZN4piex11IsThumbnailERKNS_5ImageEi
_ZN4piex12GetImageDataERKNS_14tiff_directory13TiffDirectoryEPNS_15StreamInterfaceEPNS_5ImageE
_ZN4piex12binary_parse14PagedByteArrayD0Ev
_ZN4piex12binary_parse14PagedByteArrayD1Ev
_ZN4piex12binary_parse14PagedByteArrayD2Ev
_ZN4piex12binary_parse19RangeCheckedBytePtr14invalidPointerEv
_ZN4piex12binary_parse19RangeCheckedBytePtrC1EPKhj
_ZN4piex12binary_parse19RangeCheckedBytePtrC1EPNS0_14PagedByteArrayE
_ZN4piex12binary_parse19RangeCheckedBytePtrC1Ev
_ZN4piex12binary_parse19RangeCheckedBytePtrC2EPKhj
_ZN4piex12binary_parse19RangeCheckedBytePtrC2EPNS0_14PagedByteArrayE
_ZN4piex12binary_parse19RangeCheckedBytePtrC2Ev
_ZN4piex12binary_parse6Get16sERKNS0_19RangeCheckedBytePtrEbPNS0_12MemoryStatusE
_ZN4piex12binary_parse6Get16uERKNS0_19RangeCheckedBytePtrEbPNS0_12MemoryStatusE
_ZN4piex12binary_parse6Get32sERKNS0_19RangeCheckedBytePtrEbPNS0_12MemoryStatusE
_ZN4piex12binary_parse6Get32uERKNS0_19RangeCheckedBytePtrEbPNS0_12MemoryStatusE
_ZN4piex12binary_parse6memcmpERKNS0_19RangeCheckedBytePtrES3_j
_ZN4piex12binary_parse6strcmpERKNS0_19RangeCheckedBytePtrERKNSt3__112basic_stringIcNS4_11char_traitsIcEENS4_9allocatorIcEEEE
_ZN4piex12binary_parse6strlenERKNS0_19RangeCheckedBytePtrE
_ZN4piex12binary_parseeqERKNS0_19RangeCheckedBytePtrES3_
_ZN4piex12binary_parseneERKNS0_19RangeCheckedBytePtrES3_
_ZN4piex13GetEndiannessEjPNS_15StreamInterfaceEPNS_14tiff_directory6EndianE
_ZN4piex14GetOrientationEPNS_15StreamInterfaceEPj
_ZN4piex14ParseDirectoryEjjNS_14tiff_directory6EndianERKNSt3__13setIjNS2_4lessIjEENS2_9allocatorIjEEEEPNS_15StreamInterfaceEPNS0_13TiffDirectoryEPj
_ZN4piex14tiff_directory10SizeOfTypeEjPb
_ZN4piex14tiff_directory13TiffDirectory15AddSubDirectoryERKS1_
_ZN4piex14tiff_directory13TiffDirectory8AddEntryEjjjjRKNSt3__16vectorIhNS2_9allocatorIhEEEE
_ZN4piex14tiff_directory13TiffDirectoryC1ENS0_6EndianE
_ZN4piex14tiff_directory13TiffDirectoryC2ENS0_6EndianE
_ZN4piex17GetDngInformationEPNS_15StreamInterfaceEPjS2_PNSt3__16vectorIjNS3_9allocatorIjEEEE
_ZN4piex17GetJpegDimensionsEjPNS_15StreamInterfaceEPtS2_
_ZN4piex18GetExifOrientationEPNS_15StreamInterfaceEjPj
_ZN4piex18GetFullDimension32ERKNS_14tiff_directory13TiffDirectoryEPjS4_
_ZN4piex19GetPreviewImageDataEPNS_15StreamInterfaceEPNS_16PreviewImageDataE
_ZN4piex19SupportedExtensionsEv
_ZN4piex20GetFullCropDimensionERKNS_14tiff_directory13TiffDirectoryEPjS4_
_ZN4piex21BytesRequiredForIsRawEv
_ZN4piex22image_type_recognition25RecognizeRawImageTypeLiteERKNS_12binary_parse19RangeCheckedBytePtrE
_ZN4piex22image_type_recognition27GetNumberOfBytesForIsOfTypeENS0_13RawImageTypesE
_ZN4piex22image_type_recognition28GetNumberOfBytesForIsRawLiteEv
_ZN4piex22image_type_recognition5IsRawENS0_13RawImageTypesE
_ZN4piex22image_type_recognition8IsOfTypeERKNS_12binary_parse19RangeCheckedBytePtrENS0_13RawImageTypesE
_ZN4piex22image_type_recognition9IsRawLiteERKNS_12binary_parse19RangeCheckedBytePtrE
_ZN4piex5IsRawEPNS_15StreamInterfaceE
_ZN4piex6Get16uEPNS_15StreamInterfaceEjRKNS_14tiff_directory6EndianEPt
_ZN4piex6Get32uEPNS_15StreamInterfaceEjRKNS_14tiff_directory6EndianEPj
_ZN4piex7GetDataEjjPNS_15StreamInterfaceEPNS_5ErrorE
_ZNK4piex12binary_parse19RangeCheckedBytePtr12extractBytesEjj
_ZNK4piex12binary_parse19RangeCheckedBytePtr13offsetInArrayEv
_ZNK4piex12binary_parse19RangeCheckedBytePtr17loadPageForOffsetEj
_ZNK4piex12binary_parse19RangeCheckedBytePtr17pointerToSubArrayEjj
_ZNK4piex12binary_parse19RangeCheckedBytePtr22restrictPageToSubArrayEv
_ZNK4piex12binary_parse19RangeCheckedBytePtr6substrEjj
_ZNK4piex14tiff_directory13TiffDirectory17GetSubDirectoriesEv
_ZNK4piex14tiff_directory13TiffDirectory18GetOffsetAndLengthEjjPjS2_
_ZNK4piex14tiff_directory13TiffDirectory3GetEjPNS0_8RationalE
_ZNK4piex14tiff_directory13TiffDirectory3GetEjPNS0_9SRationalE
_ZNK4piex14tiff_directory13TiffDirectory3GetEjPNSt3__112basic_stringIcNS2_11char_traitsIcEENS2_9allocatorIcEEEE
_ZNK4piex14tiff_directory13TiffDirectory3GetEjPNSt3__16vectorINS0_8RationalENS2_9allocatorIS4_EEEE
_ZNK4piex14tiff_directory13TiffDirectory3GetEjPNSt3__16vectorINS0_9SRationalENS2_9allocatorIS4_EEEE
_ZNK4piex14tiff_directory13TiffDirectory3GetEjPNSt3__16vectorIhNS2_9allocatorIhEEEE
_ZNK4piex14tiff_directory13TiffDirectory3GetEjPNSt3__16vectorIjNS2_9allocatorIjEEEE
_ZNK4piex14tiff_directory13TiffDirectory3GetEjPj
_ZNK4piex14tiff_directory13TiffDirectory3HasEj
_ZNK4piex14tiff_directory13TiffDirectory4FindEj
_ZTVN4piex12binary_parse14PagedByteArrayE
