vtable for android::SoftMPEG4
_ZTVN7android9SoftMPEG4E: 30 entries
8    (int (*)(...)) _ZN7android9SoftMPEG4D2Ev
12    (int (*)(...)) _ZN7android9SoftMPEG4D0Ev
16    (int (*)(...)) _ZN7android7RefBase10onFirstRefEv
20    (int (*)(...)) _ZN7android7RefBase15onLastStrongRefEPKv
24    (int (*)(...)) _ZN7android7RefBase20onIncStrongAttemptedEjPKv
28    (int (*)(...)) _ZN7android7RefBase13onLastWeakRefEPKv
32    (int (*)(...)) _ZNK7android16SoftOMXComponent9initCheckEv
36    (int (*)(...)) _ZN7android22SimpleSoftOMXComponent21prepareForDestructionEv
40    (int (*)(...)) _ZN7android22SimpleSoftOMXComponent11sendCommandE15OMX_COMMANDTYPEjPv
44    (int (*)(...)) _ZN7android22SimpleSoftOMXComponent12getParameterE13OMX_INDEXTYPEPv
48    (int (*)(...)) _ZN7android22SimpleSoftOMXComponent12setParameterE13OMX_INDEXTYPEPv
52    (int (*)(...)) _ZN7android28SoftVideoDecoderOMXComponent9getConfigE13OMX_INDEXTYPEPv
56    (int (*)(...)) _ZN7android28SoftVideoDecoderOMXComponent9setConfigE13OMX_INDEXTYPEPv
60    (int (*)(...)) _ZN7android28SoftVideoDecoderOMXComponent17getExtensionIndexEPKcP13OMX_INDEXTYPE
64    (int (*)(...)) _ZN7android22SimpleSoftOMXComponent9useBufferEPP20OMX_BUFFERHEADERTYPEjPvjPh
68    (int (*)(...)) _ZN7android22SimpleSoftOMXComponent14allocateBufferEPP20OMX_BUFFERHEADERTYPEjPvj
72    (int (*)(...)) _ZN7android22SimpleSoftOMXComponent10freeBufferEjP20OMX_BUFFERHEADERTYPE
76    (int (*)(...)) _ZN7android22SimpleSoftOMXComponent15emptyThisBufferEP20OMX_BUFFERHEADERTYPE
80    (int (*)(...)) _ZN7android22SimpleSoftOMXComponent14fillThisBufferEP20OMX_BUFFERHEADERTYPE
84    (int (*)(...)) _ZN7android22SimpleSoftOMXComponent8getStateEP13OMX_STATETYPE
88    (int (*)(...)) _ZN7android28SoftVideoDecoderOMXComponent20internalGetParameterE13OMX_INDEXTYPEPv
92    (int (*)(...)) _ZN7android28SoftVideoDecoderOMXComponent20internalSetParameterE13OMX_INDEXTYPEPv
96    (int (*)(...)) _ZN7android9SoftMPEG413onQueueFilledEj
100    (int (*)(...)) _ZN7android9SoftMPEG420onPortFlushCompletedEj
104    (int (*)(...)) _ZN7android28SoftVideoDecoderOMXComponent21onPortEnableCompletedEjb
108    (int (*)(...)) _ZN7android9SoftMPEG47onResetEv
112    (int (*)(...)) _ZN7android28SoftVideoDecoderOMXComponent28supportsDescribeColorAspectsEv
116    (int (*)(...)) _ZN7android28SoftVideoDecoderOMXComponent24getColorAspectPreferenceEv
120    (int (*)(...)) _ZN7android28SoftVideoDecoderOMXComponent28supportDescribeHdrStaticInfoEv
124    (int (*)(...)) _ZN7android9SoftMPEG421updatePortDefinitionsEbb
