vtable for android::SoftMPEG4Encoder
_ZTVN7android16SoftMPEG4EncoderE: 26 entries
8    (int (*)(...)) _ZN7android16SoftMPEG4EncoderD2Ev
12    (int (*)(...)) _ZN7android16SoftMPEG4EncoderD0Ev
16    (int (*)(...)) _ZN7android7RefBase10onFirstRefEv
20    (int (*)(...)) _ZN7android7RefBase15onLastStrongRefEPKv
24    (int (*)(...)) _ZN7android7RefBase20onIncStrongAttemptedEjPKv
28    (int (*)(...)) _ZN7android7RefBase13onLastWeakRefEPKv
32    (int (*)(...)) _ZNK7android16SoftOMXComponent9initCheckEv
36    (int (*)(...)) _ZN7android22SimpleSoftOMXComponent21prepareForDestructionEv
40    (int (*)(...)) _ZN7android22SimpleSoftOMXComponent11sendCommandE15OMX_COMMANDTYPEjPv
44    (int (*)(...)) _ZN7android22SimpleSoftOMXComponent12getParameterE13OMX_INDEXTYPEPv
48    (int (*)(...)) _ZN7android22SimpleSoftOMXComponent12setParameterE13OMX_INDEXTYPEPv
52    (int (*)(...)) _ZN7android16SoftOMXComponent9getConfigE13OMX_INDEXTYPEPv
56    (int (*)(...)) _ZN7android16SoftOMXComponent9setConfigE13OMX_INDEXTYPEPv
60    (int (*)(...)) _ZN7android28SoftVideoEncoderOMXComponent17getExtensionIndexEPKcP13OMX_INDEXTYPE
64    (int (*)(...)) _ZN7android22SimpleSoftOMXComponent9useBufferEPP20OMX_BUFFERHEADERTYPEjPvjPh
68    (int (*)(...)) _ZN7android22SimpleSoftOMXComponent14allocateBufferEPP20OMX_BUFFERHEADERTYPEjPvj
72    (int (*)(...)) _ZN7android22SimpleSoftOMXComponent10freeBufferEjP20OMX_BUFFERHEADERTYPE
76    (int (*)(...)) _ZN7android22SimpleSoftOMXComponent15emptyThisBufferEP20OMX_BUFFERHEADERTYPE
80    (int (*)(...)) _ZN7android22SimpleSoftOMXComponent14fillThisBufferEP20OMX_BUFFERHEADERTYPE
84    (int (*)(...)) _ZN7android22SimpleSoftOMXComponent8getStateEP13OMX_STATETYPE
88    (int (*)(...)) _ZN7android16SoftMPEG4Encoder20internalGetParameterE13OMX_INDEXTYPEPv
92    (int (*)(...)) _ZN7android16SoftMPEG4Encoder20internalSetParameterE13OMX_INDEXTYPEPv
96    (int (*)(...)) _ZN7android16SoftMPEG4Encoder13onQueueFilledEj
100    (int (*)(...)) _ZN7android22SimpleSoftOMXComponent20onPortFlushCompletedEj
104    (int (*)(...)) _ZN7android22SimpleSoftOMXComponent21onPortEnableCompletedEjb
108    (int (*)(...)) _ZN7android16SoftMPEG4Encoder7onResetEv
