_ZN7android4hidl6memory5token4V1_012IMemoryToken10descriptorE
_ZN7android4hidl6memory5token4V1_012IMemoryToken10getServiceERKNSt3__112basic_stringIcNS5_11char_traitsIcEENS5_9allocatorIcEEEEb
_ZN7android4hidl6memory5token4V1_012IMemoryToken11linkToDeathERKNS_2spINS_8hardware20hidl_death_recipientEEEm
_ZN7android4hidl6memory5token4V1_012IMemoryToken12getDebugInfoENSt3__18functionIFvRKNS0_4base4V1_09DebugInfoEEEE
_ZN7android4hidl6memory5token4V1_012IMemoryToken12getHashChainENSt3__18functionIFvRKNS_8hardware8hidl_vecINS7_10hidl_arrayIhLm32EJEEEEEEEE
_ZN7android4hidl6memory5token4V1_012IMemoryToken13tryGetServiceERKNSt3__112basic_stringIcNS5_11char_traitsIcEENS5_9allocatorIcEEEEb
_ZN7android4hidl6memory5token4V1_012IMemoryToken13unlinkToDeathERKNS_2spINS_8hardware20hidl_death_recipientEEE
_ZN7android4hidl6memory5token4V1_012IMemoryToken14interfaceChainENSt3__18functionIFvRKNS_8hardware8hidl_vecINS7_11hidl_stringEEEEEE
_ZN7android4hidl6memory5token4V1_012IMemoryToken17registerAsServiceERKNSt3__112basic_stringIcNS5_11char_traitsIcEENS5_9allocatorIcEEEE
_ZN7android4hidl6memory5token4V1_012IMemoryToken19interfaceDescriptorENSt3__18functionIFvRKNS_8hardware11hidl_stringEEEE
_ZN7android4hidl6memory5token4V1_012IMemoryToken21notifySyspropsChangedEv
_ZN7android4hidl6memory5token4V1_012IMemoryToken21setHALInstrumentationEv
_ZN7android4hidl6memory5token4V1_012IMemoryToken24registerForNotificationsERKNSt3__112basic_stringIcNS5_11char_traitsIcEENS5_9allocatorIcEEEERKNS_2spINS0_7manager4V1_020IServiceNotificationEEE
_ZN7android4hidl6memory5token4V1_012IMemoryToken4pingEv
_ZN7android4hidl6memory5token4V1_012IMemoryToken5debugERKNS_8hardware11hidl_handleERKNS5_8hidl_vecINS5_11hidl_stringEEE
_ZN7android4hidl6memory5token4V1_012IMemoryToken8castFromERKNS_2spINS0_4base4V1_05IBaseEEEb
_ZN7android4hidl6memory5token4V1_012IMemoryToken8castFromERKNS_2spIS4_EEb
_ZN7android4hidl6memory5token4V1_013BsMemoryToken13addOnewayTaskENSt3__18functionIFvvEEE
_ZN7android4hidl6memory5token4V1_013BsMemoryTokenC1ENS_2spINS3_12IMemoryTokenEEE
_ZN7android4hidl6memory5token4V1_013BsMemoryTokenC2ENS_2spINS3_12IMemoryTokenEEE
_ZN7android4hidl6memory5token4V1_015BnHwMemoryToken10onTransactEjRKNS_8hardware6ParcelEPS6_jNSt3__18functionIFvRS6_EEE
_ZN7android4hidl6memory5token4V1_015BnHwMemoryToken12getDebugInfoENSt3__18functionIFvRKNS0_4base4V1_09DebugInfoEEEE
_ZN7android4hidl6memory5token4V1_015BnHwMemoryToken4pingEv
_ZN7android4hidl6memory5token4V1_015BnHwMemoryToken9_hidl_getEPNS0_4base4V1_08BnHwBaseERKNS_8hardware6ParcelEPSA_NSt3__18functionIFvRSA_EEE
_ZN7android4hidl6memory5token4V1_015BnHwMemoryTokenC1ERKNS_2spINS3_12IMemoryTokenEEE
_ZN7android4hidl6memory5token4V1_015BnHwMemoryTokenC2ERKNS_2spINS3_12IMemoryTokenEEE
_ZN7android4hidl6memory5token4V1_015BnHwMemoryTokenD0Ev
_ZN7android4hidl6memory5token4V1_015BnHwMemoryTokenD1Ev
_ZN7android4hidl6memory5token4V1_015BnHwMemoryTokenD2Ev
_ZN7android4hidl6memory5token4V1_015BpHwMemoryToken11linkToDeathERKNS_2spINS_8hardware20hidl_death_recipientEEEm
_ZN7android4hidl6memory5token4V1_015BpHwMemoryToken12getDebugInfoENSt3__18functionIFvRKNS0_4base4V1_09DebugInfoEEEE
_ZN7android4hidl6memory5token4V1_015BpHwMemoryToken12getHashChainENSt3__18functionIFvRKNS_8hardware8hidl_vecINS7_10hidl_arrayIhLm32EJEEEEEEEE
_ZN7android4hidl6memory5token4V1_015BpHwMemoryToken13unlinkToDeathERKNS_2spINS_8hardware20hidl_death_recipientEEE
_ZN7android4hidl6memory5token4V1_015BpHwMemoryToken14interfaceChainENSt3__18functionIFvRKNS_8hardware8hidl_vecINS7_11hidl_stringEEEEEE
_ZN7android4hidl6memory5token4V1_015BpHwMemoryToken19interfaceDescriptorENSt3__18functionIFvRKNS_8hardware11hidl_stringEEEE
_ZN7android4hidl6memory5token4V1_015BpHwMemoryToken21notifySyspropsChangedEv
_ZN7android4hidl6memory5token4V1_015BpHwMemoryToken21setHALInstrumentationEv
_ZN7android4hidl6memory5token4V1_015BpHwMemoryToken3getENSt3__18functionIFvRKNS_8hardware11hidl_memoryEEEE
_ZN7android4hidl6memory5token4V1_015BpHwMemoryToken4pingEv
_ZN7android4hidl6memory5token4V1_015BpHwMemoryToken5debugERKNS_8hardware11hidl_handleERKNS5_8hidl_vecINS5_11hidl_stringEEE
_ZN7android4hidl6memory5token4V1_015BpHwMemoryToken9_hidl_getEPNS_8hardware10IInterfaceEPNS5_7details16HidlInstrumentorENSt3__18functionIFvRKNS5_11hidl_memoryEEEE
_ZN7android4hidl6memory5token4V1_015BpHwMemoryTokenC1ERKNS_2spINS_8hardware7IBinderEEE
_ZN7android4hidl6memory5token4V1_015BpHwMemoryTokenC2ERKNS_2spINS_8hardware7IBinderEEE
_ZTCN7android4hidl6memory5token4V1_012IMemoryTokenE0_NS0_4base4V1_05IBaseE
_ZTCN7android4hidl6memory5token4V1_015BnHwMemoryTokenE0_NS0_4base4V1_08BnHwBaseE
_ZTCN7android4hidl6memory5token4V1_015BnHwMemoryTokenE0_NS_8hardware7IBinderE
_ZTCN7android4hidl6memory5token4V1_015BnHwMemoryTokenE0_NS_8hardware9BHwBinderE
_ZTCN7android4hidl6memory5token4V1_015BpHwMemoryTokenE0_NS0_4base4V1_05IBaseE
_ZTCN7android4hidl6memory5token4V1_015BpHwMemoryTokenE0_NS3_12IMemoryTokenE
_ZTCN7android4hidl6memory5token4V1_015BpHwMemoryTokenE0_NS_8hardware11BpInterfaceINS3_12IMemoryTokenEEE
_ZTCN7android4hidl6memory5token4V1_015BpHwMemoryTokenE16_NS_8hardware11BpHwRefBaseE
_ZTCN7android4hidl6memory5token4V1_015BpHwMemoryTokenE8_NS_8hardware10IInterfaceE
_ZTTN7android4hidl6memory5token4V1_012IMemoryTokenE
_ZTTN7android4hidl6memory5token4V1_015BnHwMemoryTokenE
_ZTTN7android4hidl6memory5token4V1_015BpHwMemoryTokenE
_ZTVN7android4hidl6memory5token4V1_012IMemoryTokenE
_ZTVN7android4hidl6memory5token4V1_015BnHwMemoryTokenE
_ZTVN7android4hidl6memory5token4V1_015BpHwMemoryTokenE
_ZThn32_N7android4hidl6memory5token4V1_015BnHwMemoryTokenD0Ev
_ZThn32_N7android4hidl6memory5token4V1_015BnHwMemoryTokenD1Ev
_ZTv0_n24_N7android4hidl6memory5token4V1_015BnHwMemoryTokenD0Ev
_ZTv0_n24_N7android4hidl6memory5token4V1_015BnHwMemoryTokenD1Ev
