_ZN7android8hardware10HidlMemory11getInstanceEONS0_11hidl_memoryE
_ZN7android8hardware10HidlMemory11getInstanceERKNS0_11hidl_memoryE
_ZN7android8hardware10HidlMemory11getInstanceERKNS0_11hidl_stringEim
_ZN7android8hardware10HidlMemoryC1ERKNS0_11hidl_stringEONS0_11hidl_handleEm
_ZN7android8hardware10HidlMemoryC1Ev
_ZN7android8hardware10HidlMemoryC2ERKNS0_11hidl_stringEONS0_11hidl_handleEm
_ZN7android8hardware10HidlMemoryC2Ev
_ZN7android8hardware10HidlMemoryD0Ev
_ZN7android8hardware10HidlMemoryD1Ev
_ZN7android8hardware10HidlMemoryD2Ev
_ZN7android8hardware11hidl_handle10freeHandleEv
_ZN7android8hardware11hidl_handle5setToEP13native_handleb
_ZN7android8hardware11hidl_handleC1EOS1_
_ZN7android8hardware11hidl_handleC1EPK13native_handle
_ZN7android8hardware11hidl_handleC1ERKS1_
_ZN7android8hardware11hidl_handleC1Ev
_ZN7android8hardware11hidl_handleC2EOS1_
_ZN7android8hardware11hidl_handleC2EPK13native_handle
_ZN7android8hardware11hidl_handleC2ERKS1_
_ZN7android8hardware11hidl_handleC2Ev
_ZN7android8hardware11hidl_handleD1Ev
_ZN7android8hardware11hidl_handleD2Ev
_ZN7android8hardware11hidl_handleaSEOS1_
_ZN7android8hardware11hidl_handleaSEPK13native_handle
_ZN7android8hardware11hidl_handleaSERKS1_
_ZN7android8hardware11hidl_string13setToExternalEPKcm
_ZN7android8hardware11hidl_string5clearEv
_ZN7android8hardware11hidl_string8copyFromEPKcm
_ZN7android8hardware11hidl_string8moveFromEOS1_
_ZN7android8hardware11hidl_stringC1EOS1_
_ZN7android8hardware11hidl_stringC1EPKc
_ZN7android8hardware11hidl_stringC1EPKcm
_ZN7android8hardware11hidl_stringC1ERKNSt3__112basic_stringIcNS2_11char_traitsIcEENS2_9allocatorIcEEEE
_ZN7android8hardware11hidl_stringC1ERKS1_
_ZN7android8hardware11hidl_stringC1Ev
_ZN7android8hardware11hidl_stringC2EOS1_
_ZN7android8hardware11hidl_stringC2EPKc
_ZN7android8hardware11hidl_stringC2EPKcm
_ZN7android8hardware11hidl_stringC2ERKNSt3__112basic_stringIcNS2_11char_traitsIcEENS2_9allocatorIcEEEE
_ZN7android8hardware11hidl_stringC2ERKS1_
_ZN7android8hardware11hidl_stringC2Ev
_ZN7android8hardware11hidl_stringD1Ev
_ZN7android8hardware11hidl_stringD2Ev
_ZN7android8hardware11hidl_stringaSEOS1_
_ZN7android8hardware11hidl_stringaSEPKc
_ZN7android8hardware11hidl_stringaSERKNSt3__112basic_stringIcNS2_11char_traitsIcEENS2_9allocatorIcEEEE
_ZN7android8hardware11hidl_stringaSERKS1_
_ZN7android8hardware6Status11fromStatusTEi
_ZN7android8hardware6Status12setExceptionEiPKc
_ZN7android8hardware6Status14setFromStatusTEi
_ZN7android8hardware6Status17fromExceptionCodeEi
_ZN7android8hardware6Status17fromExceptionCodeEiPKc
_ZN7android8hardware6Status2okEv
_ZN7android8hardware6StatusC1Eii
_ZN7android8hardware6StatusC1EiiPKc
_ZN7android8hardware6StatusC2Eii
_ZN7android8hardware6StatusC2EiiPKc
_ZN7android8hardware7details10TaskRunner4pushERKNSt3__18functionIFvvEEE
_ZN7android8hardware7details10TaskRunner5startEm
_ZN7android8hardware7details10TaskRunnerC1Ev
_ZN7android8hardware7details10TaskRunnerC2Ev
_ZN7android8hardware7details10TaskRunnerD1Ev
_ZN7android8hardware7details10TaskRunnerD2Ev
_ZN7android8hardware7details10debuggableEv
_ZN7android8hardware7details13return_statusD1Ev
_ZN7android8hardware7details13return_statusD2Ev
_ZN7android8hardware7details13return_statusaSEOS2_
_ZN7android8hardware7details14logAlwaysFatalEPKc
_ZN7android8hardware7details16HidlInstrumentor20isInstrumentationLibEPK6dirent
_ZN7android8hardware7details16HidlInstrumentor24configureInstrumentationEb
_ZN7android8hardware7details16HidlInstrumentor32registerInstrumentationCallbacksEPNSt3__16vectorINS3_8functionIFvNS2_20InstrumentationEventEPKcS8_S8_S8_PNS4_IPvNS3_9allocatorIS9_EEEEEEENSA_ISF_EEEE
_ZN7android8hardware7details16HidlInstrumentorC1ERKNSt3__112basic_stringIcNS3_11char_traitsIcEENS3_9allocatorIcEEEESB_
_ZN7android8hardware7details16HidlInstrumentorC2ERKNSt3__112basic_stringIcNS3_11char_traitsIcEENS3_9allocatorIcEEEESB_
_ZN7android8hardware7details16HidlInstrumentorD0Ev
_ZN7android8hardware7details16HidlInstrumentorD1Ev
_ZN7android8hardware7details16HidlInstrumentorD2Ev
_ZN7android8hardware7details17getVndkVersionStrEv
_ZN7android8hardwarelsERNSt3__113basic_ostreamIcNS1_11char_traitsIcEEEERKNS0_11hidl_stringE
_ZN7android8hardwarelsERNSt3__113basic_ostreamIcNS1_11char_traitsIcEEEERKNS0_6StatusE
_ZNK7android8hardware11hidl_handle15getNativeHandleEv
_ZNK7android8hardware11hidl_handlecvPK13native_handleEv
_ZNK7android8hardware11hidl_handleptEv
_ZNK7android8hardware11hidl_string4sizeEv
_ZNK7android8hardware11hidl_string5c_strEv
_ZNK7android8hardware11hidl_string5emptyEv
_ZNK7android8hardware11hidl_stringcvNSt3__112basic_stringIcNS2_11char_traitsIcEENS2_9allocatorIcEEEEEv
_ZNK7android8hardware6Status11descriptionEv
_ZNK7android8hardware7details13return_status8assertOkEv
_ZTTN7android8hardware10HidlMemoryE
_ZTVN7android8hardware10HidlMemoryE
_ZTVN7android8hardware7details16HidlInstrumentorE
_ZTv0_n24_N7android8hardware10HidlMemoryD0Ev
_ZTv0_n24_N7android8hardware10HidlMemoryD1Ev
kGcovPrefixEnvVar
kGcovPrefixOverrideEnvVar
kGcovPrefixPath
kSysPropHalCoverage
kSysPropInstrumentationPath
