_ZN7android4hidl4base4V1_05IBase10descriptorE
_ZN7android4hidl4base4V1_05IBase11linkToDeathERKNS_2spINS_8hardware20hidl_death_recipientEEEm
_ZN7android4hidl4base4V1_05IBase12getDebugInfoENSt3__18functionIFvRKNS2_9DebugInfoEEEE
_ZN7android4hidl4base4V1_05IBase12getHashChainENSt3__18functionIFvRKNS_8hardware8hidl_vecINS6_10hidl_arrayIhLm32EJEEEEEEEE
_ZN7android4hidl4base4V1_05IBase13unlinkToDeathERKNS_2spINS_8hardware20hidl_death_recipientEEE
_ZN7android4hidl4base4V1_05IBase14interfaceChainENSt3__18functionIFvRKNS_8hardware8hidl_vecINS6_11hidl_stringEEEEEE
_ZN7android4hidl4base4V1_05IBase19interfaceDescriptorENSt3__18functionIFvRKNS_8hardware11hidl_stringEEEE
_ZN7android4hidl4base4V1_05IBase21notifySyspropsChangedEv
_ZN7android4hidl4base4V1_05IBase21setHALInstrumentationEv
_ZN7android4hidl4base4V1_05IBase4pingEv
_ZN7android4hidl4base4V1_05IBase5debugERKNS_8hardware11hidl_handleERKNS4_8hidl_vecINS4_11hidl_stringEEE
_ZN7android4hidl4base4V1_05IBase8castFromERKNS_2spIS3_EEb
_ZN7android4hidl4base4V1_06BsBase13addOnewayTaskENSt3__18functionIFvvEEE
_ZN7android4hidl4base4V1_06BsBaseC1ENS_2spINS2_5IBaseEEE
_ZN7android4hidl4base4V1_06BsBaseC2ENS_2spINS2_5IBaseEEE
_ZN7android4hidl4base4V1_08BnHwBase10_hidl_pingEPS3_RKNS_8hardware6ParcelEPS6_NSt3__18functionIFvRS6_EEE
_ZN7android4hidl4base4V1_08BnHwBase10onTransactEjRKNS_8hardware6ParcelEPS5_jNSt3__18functionIFvRS5_EEE
_ZN7android4hidl4base4V1_08BnHwBase11_hidl_debugEPS3_RKNS_8hardware6ParcelEPS6_NSt3__18functionIFvRS6_EEE
_ZN7android4hidl4base4V1_08BnHwBase12getDebugInfoENSt3__18functionIFvRKNS2_9DebugInfoEEEE
_ZN7android4hidl4base4V1_08BnHwBase18_hidl_getDebugInfoEPS3_RKNS_8hardware6ParcelEPS6_NSt3__18functionIFvRS6_EEE
_ZN7android4hidl4base4V1_08BnHwBase18_hidl_getHashChainEPS3_RKNS_8hardware6ParcelEPS6_NSt3__18functionIFvRS6_EEE
_ZN7android4hidl4base4V1_08BnHwBase20_hidl_interfaceChainEPS3_RKNS_8hardware6ParcelEPS6_NSt3__18functionIFvRS6_EEE
_ZN7android4hidl4base4V1_08BnHwBase25_hidl_interfaceDescriptorEPS3_RKNS_8hardware6ParcelEPS6_NSt3__18functionIFvRS6_EEE
_ZN7android4hidl4base4V1_08BnHwBase27_hidl_notifySyspropsChangedEPS3_RKNS_8hardware6ParcelEPS6_NSt3__18functionIFvRS6_EEE
_ZN7android4hidl4base4V1_08BnHwBase4pingEv
_ZN7android4hidl4base4V1_08BnHwBaseC1ERKNS_2spINS2_5IBaseEEE
_ZN7android4hidl4base4V1_08BnHwBaseC1ERKNS_2spINS2_5IBaseEEERKNSt3__112basic_stringIcNS9_11char_traitsIcEENS9_9allocatorIcEEEESH_
_ZN7android4hidl4base4V1_08BnHwBaseC2ERKNS_2spINS2_5IBaseEEE
_ZN7android4hidl4base4V1_08BnHwBaseC2ERKNS_2spINS2_5IBaseEEERKNSt3__112basic_stringIcNS9_11char_traitsIcEENS9_9allocatorIcEEEESH_
_ZN7android4hidl4base4V1_08BnHwBaseD0Ev
_ZN7android4hidl4base4V1_08BnHwBaseD1Ev
_ZN7android4hidl4base4V1_08BnHwBaseD2Ev
_ZN7android4hidl4base4V1_08BpHwBase10_hidl_pingEPNS_8hardware10IInterfaceEPNS4_7details16HidlInstrumentorE
_ZN7android4hidl4base4V1_08BpHwBase11_hidl_debugEPNS_8hardware10IInterfaceEPNS4_7details16HidlInstrumentorERKNS4_11hidl_handleERKNS4_8hidl_vecINS4_11hidl_stringEEE
_ZN7android4hidl4base4V1_08BpHwBase11linkToDeathERKNS_2spINS_8hardware20hidl_death_recipientEEEm
_ZN7android4hidl4base4V1_08BpHwBase12getDebugInfoENSt3__18functionIFvRKNS2_9DebugInfoEEEE
_ZN7android4hidl4base4V1_08BpHwBase12getHashChainENSt3__18functionIFvRKNS_8hardware8hidl_vecINS6_10hidl_arrayIhLm32EJEEEEEEEE
_ZN7android4hidl4base4V1_08BpHwBase13unlinkToDeathERKNS_2spINS_8hardware20hidl_death_recipientEEE
_ZN7android4hidl4base4V1_08BpHwBase14interfaceChainENSt3__18functionIFvRKNS_8hardware8hidl_vecINS6_11hidl_stringEEEEEE
_ZN7android4hidl4base4V1_08BpHwBase18_hidl_getDebugInfoEPNS_8hardware10IInterfaceEPNS4_7details16HidlInstrumentorENSt3__18functionIFvRKNS2_9DebugInfoEEEE
_ZN7android4hidl4base4V1_08BpHwBase18_hidl_getHashChainEPNS_8hardware10IInterfaceEPNS4_7details16HidlInstrumentorENSt3__18functionIFvRKNS4_8hidl_vecINS4_10hidl_arrayIhLm32EJEEEEEEEE
_ZN7android4hidl4base4V1_08BpHwBase19interfaceDescriptorENSt3__18functionIFvRKNS_8hardware11hidl_stringEEEE
_ZN7android4hidl4base4V1_08BpHwBase20_hidl_interfaceChainEPNS_8hardware10IInterfaceEPNS4_7details16HidlInstrumentorENSt3__18functionIFvRKNS4_8hidl_vecINS4_11hidl_stringEEEEEE
_ZN7android4hidl4base4V1_08BpHwBase21notifySyspropsChangedEv
_ZN7android4hidl4base4V1_08BpHwBase21setHALInstrumentationEv
_ZN7android4hidl4base4V1_08BpHwBase25_hidl_interfaceDescriptorEPNS_8hardware10IInterfaceEPNS4_7details16HidlInstrumentorENSt3__18functionIFvRKNS4_11hidl_stringEEEE
_ZN7android4hidl4base4V1_08BpHwBase27_hidl_notifySyspropsChangedEPNS_8hardware10IInterfaceEPNS4_7details16HidlInstrumentorE
_ZN7android4hidl4base4V1_08BpHwBase27_hidl_setHALInstrumentationEPNS_8hardware10IInterfaceEPNS4_7details16HidlInstrumentorE
_ZN7android4hidl4base4V1_08BpHwBase4pingEv
_ZN7android4hidl4base4V1_08BpHwBase5debugERKNS_8hardware11hidl_handleERKNS4_8hidl_vecINS4_11hidl_stringEEE
_ZN7android4hidl4base4V1_08BpHwBaseC1ERKNS_2spINS_8hardware7IBinderEEE
_ZN7android4hidl4base4V1_08BpHwBaseC2ERKNS_2spINS_8hardware7IBinderEEE
_ZN7android4hidl7manager4V1_015IServiceManager10descriptorE
_ZN7android4hidl7manager4V1_015IServiceManager10getServiceERKNSt3__112basic_stringIcNS4_11char_traitsIcEENS4_9allocatorIcEEEEb
_ZN7android4hidl7manager4V1_015IServiceManager11linkToDeathERKNS_2spINS_8hardware20hidl_death_recipientEEEm
_ZN7android4hidl7manager4V1_015IServiceManager12getDebugInfoENSt3__18functionIFvRKNS0_4base4V1_09DebugInfoEEEE
_ZN7android4hidl7manager4V1_015IServiceManager12getHashChainENSt3__18functionIFvRKNS_8hardware8hidl_vecINS6_10hidl_arrayIhLm32EJEEEEEEEE
_ZN7android4hidl7manager4V1_015IServiceManager13tryGetServiceERKNSt3__112basic_stringIcNS4_11char_traitsIcEENS4_9allocatorIcEEEEb
_ZN7android4hidl7manager4V1_015IServiceManager13unlinkToDeathERKNS_2spINS_8hardware20hidl_death_recipientEEE
_ZN7android4hidl7manager4V1_015IServiceManager14interfaceChainENSt3__18functionIFvRKNS_8hardware8hidl_vecINS6_11hidl_stringEEEEEE
_ZN7android4hidl7manager4V1_015IServiceManager17registerAsServiceERKNSt3__112basic_stringIcNS4_11char_traitsIcEENS4_9allocatorIcEEEE
_ZN7android4hidl7manager4V1_015IServiceManager19interfaceDescriptorENSt3__18functionIFvRKNS_8hardware11hidl_stringEEEE
_ZN7android4hidl7manager4V1_015IServiceManager21notifySyspropsChangedEv
_ZN7android4hidl7manager4V1_015IServiceManager21setHALInstrumentationEv
_ZN7android4hidl7manager4V1_015IServiceManager24registerForNotificationsERKNSt3__112basic_stringIcNS4_11char_traitsIcEENS4_9allocatorIcEEEERKNS_2spINS2_20IServiceNotificationEEE
_ZN7android4hidl7manager4V1_015IServiceManager4pingEv
_ZN7android4hidl7manager4V1_015IServiceManager5debugERKNS_8hardware11hidl_handleERKNS4_8hidl_vecINS4_11hidl_stringEEE
_ZN7android4hidl7manager4V1_015IServiceManager8castFromERKNS_2spINS0_4base4V1_05IBaseEEEb
_ZN7android4hidl7manager4V1_015IServiceManager8castFromERKNS_2spIS3_EEb
_ZN7android4hidl7manager4V1_016BsServiceManager13addOnewayTaskENSt3__18functionIFvvEEE
_ZN7android4hidl7manager4V1_016BsServiceManagerC1ENS_2spINS2_15IServiceManagerEEE
_ZN7android4hidl7manager4V1_016BsServiceManagerC2ENS_2spINS2_15IServiceManagerEEE
_ZN7android4hidl7manager4V1_018BnHwServiceManager10_hidl_listEPNS0_4base4V1_08BnHwBaseERKNS_8hardware6ParcelEPS9_NSt3__18functionIFvRS9_EEE
_ZN7android4hidl7manager4V1_018BnHwServiceManager10onTransactEjRKNS_8hardware6ParcelEPS5_jNSt3__18functionIFvRS5_EEE
_ZN7android4hidl7manager4V1_018BnHwServiceManager12getDebugInfoENSt3__18functionIFvRKNS0_4base4V1_09DebugInfoEEEE
_ZN7android4hidl7manager4V1_018BnHwServiceManager15_hidl_debugDumpEPNS0_4base4V1_08BnHwBaseERKNS_8hardware6ParcelEPS9_NSt3__18functionIFvRS9_EEE
_ZN7android4hidl7manager4V1_018BnHwServiceManager18_hidl_getTransportEPNS0_4base4V1_08BnHwBaseERKNS_8hardware6ParcelEPS9_NSt3__18functionIFvRS9_EEE
_ZN7android4hidl7manager4V1_018BnHwServiceManager21_hidl_listByInterfaceEPNS0_4base4V1_08BnHwBaseERKNS_8hardware6ParcelEPS9_NSt3__18functionIFvRS9_EEE
_ZN7android4hidl7manager4V1_018BnHwServiceManager30_hidl_registerForNotificationsEPNS0_4base4V1_08BnHwBaseERKNS_8hardware6ParcelEPS9_NSt3__18functionIFvRS9_EEE
_ZN7android4hidl7manager4V1_018BnHwServiceManager31_hidl_registerPassthroughClientEPNS0_4base4V1_08BnHwBaseERKNS_8hardware6ParcelEPS9_NSt3__18functionIFvRS9_EEE
_ZN7android4hidl7manager4V1_018BnHwServiceManager4pingEv
_ZN7android4hidl7manager4V1_018BnHwServiceManager9_hidl_addEPNS0_4base4V1_08BnHwBaseERKNS_8hardware6ParcelEPS9_NSt3__18functionIFvRS9_EEE
_ZN7android4hidl7manager4V1_018BnHwServiceManager9_hidl_getEPNS0_4base4V1_08BnHwBaseERKNS_8hardware6ParcelEPS9_NSt3__18functionIFvRS9_EEE
_ZN7android4hidl7manager4V1_018BnHwServiceManagerC1ERKNS_2spINS2_15IServiceManagerEEE
_ZN7android4hidl7manager4V1_018BnHwServiceManagerC2ERKNS_2spINS2_15IServiceManagerEEE
_ZN7android4hidl7manager4V1_018BnHwServiceManagerD0Ev
_ZN7android4hidl7manager4V1_018BnHwServiceManagerD1Ev
_ZN7android4hidl7manager4V1_018BnHwServiceManagerD2Ev
_ZN7android4hidl7manager4V1_018BpHwServiceManager10_hidl_listEPNS_8hardware10IInterfaceEPNS4_7details16HidlInstrumentorENSt3__18functionIFvRKNS4_8hidl_vecINS4_11hidl_stringEEEEEE
_ZN7android4hidl7manager4V1_018BpHwServiceManager11linkToDeathERKNS_2spINS_8hardware20hidl_death_recipientEEEm
_ZN7android4hidl7manager4V1_018BpHwServiceManager12getDebugInfoENSt3__18functionIFvRKNS0_4base4V1_09DebugInfoEEEE
_ZN7android4hidl7manager4V1_018BpHwServiceManager12getHashChainENSt3__18functionIFvRKNS_8hardware8hidl_vecINS6_10hidl_arrayIhLm32EJEEEEEEEE
_ZN7android4hidl7manager4V1_018BpHwServiceManager12getTransportERKNS_8hardware11hidl_stringES7_
_ZN7android4hidl7manager4V1_018BpHwServiceManager13unlinkToDeathERKNS_2spINS_8hardware20hidl_death_recipientEEE
_ZN7android4hidl7manager4V1_018BpHwServiceManager14interfaceChainENSt3__18functionIFvRKNS_8hardware8hidl_vecINS6_11hidl_stringEEEEEE
_ZN7android4hidl7manager4V1_018BpHwServiceManager15_hidl_debugDumpEPNS_8hardware10IInterfaceEPNS4_7details16HidlInstrumentorENSt3__18functionIFvRKNS4_8hidl_vecINS2_15IServiceManager17InstanceDebugInfoEEEEEE
_ZN7android4hidl7manager4V1_018BpHwServiceManager15listByInterfaceERKNS_8hardware11hidl_stringENSt3__18functionIFvRKNS4_8hidl_vecIS5_EEEEE
_ZN7android4hidl7manager4V1_018BpHwServiceManager18_hidl_getTransportEPNS_8hardware10IInterfaceEPNS4_7details16HidlInstrumentorERKNS4_11hidl_stringESC_
_ZN7android4hidl7manager4V1_018BpHwServiceManager19interfaceDescriptorENSt3__18functionIFvRKNS_8hardware11hidl_stringEEEE
_ZN7android4hidl7manager4V1_018BpHwServiceManager21_hidl_listByInterfaceEPNS_8hardware10IInterfaceEPNS4_7details16HidlInstrumentorERKNS4_11hidl_stringENSt3__18functionIFvRKNS4_8hidl_vecISA_EEEEE
_ZN7android4hidl7manager4V1_018BpHwServiceManager21notifySyspropsChangedEv
_ZN7android4hidl7manager4V1_018BpHwServiceManager21setHALInstrumentationEv
_ZN7android4hidl7manager4V1_018BpHwServiceManager24registerForNotificationsERKNS_8hardware11hidl_stringES7_RKNS_2spINS2_20IServiceNotificationEEE
_ZN7android4hidl7manager4V1_018BpHwServiceManager25registerPassthroughClientERKNS_8hardware11hidl_stringES7_
_ZN7android4hidl7manager4V1_018BpHwServiceManager30_hidl_registerForNotificationsEPNS_8hardware10IInterfaceEPNS4_7details16HidlInstrumentorERKNS4_11hidl_stringESC_RKNS_2spINS2_20IServiceNotificationEEE
_ZN7android4hidl7manager4V1_018BpHwServiceManager31_hidl_registerPassthroughClientEPNS_8hardware10IInterfaceEPNS4_7details16HidlInstrumentorERKNS4_11hidl_stringESC_
_ZN7android4hidl7manager4V1_018BpHwServiceManager3addERKNS_8hardware11hidl_stringERKNS_2spINS0_4base4V1_05IBaseEEE
_ZN7android4hidl7manager4V1_018BpHwServiceManager3getERKNS_8hardware11hidl_stringES7_
_ZN7android4hidl7manager4V1_018BpHwServiceManager4listENSt3__18functionIFvRKNS_8hardware8hidl_vecINS6_11hidl_stringEEEEEE
_ZN7android4hidl7manager4V1_018BpHwServiceManager4pingEv
_ZN7android4hidl7manager4V1_018BpHwServiceManager5debugERKNS_8hardware11hidl_handleERKNS4_8hidl_vecINS4_11hidl_stringEEE
_ZN7android4hidl7manager4V1_018BpHwServiceManager9_hidl_addEPNS_8hardware10IInterfaceEPNS4_7details16HidlInstrumentorERKNS4_11hidl_stringERKNS_2spINS0_4base4V1_05IBaseEEE
_ZN7android4hidl7manager4V1_018BpHwServiceManager9_hidl_getEPNS_8hardware10IInterfaceEPNS4_7details16HidlInstrumentorERKNS4_11hidl_stringESC_
_ZN7android4hidl7manager4V1_018BpHwServiceManager9debugDumpENSt3__18functionIFvRKNS_8hardware8hidl_vecINS2_15IServiceManager17InstanceDebugInfoEEEEEE
_ZN7android4hidl7manager4V1_018BpHwServiceManagerC1ERKNS_2spINS_8hardware7IBinderEEE
_ZN7android4hidl7manager4V1_018BpHwServiceManagerC2ERKNS_2spINS_8hardware7IBinderEEE
_ZN7android4hidl7manager4V1_020IServiceNotification10descriptorE
_ZN7android4hidl7manager4V1_020IServiceNotification10getServiceERKNSt3__112basic_stringIcNS4_11char_traitsIcEENS4_9allocatorIcEEEEb
_ZN7android4hidl7manager4V1_020IServiceNotification11linkToDeathERKNS_2spINS_8hardware20hidl_death_recipientEEEm
_ZN7android4hidl7manager4V1_020IServiceNotification12getDebugInfoENSt3__18functionIFvRKNS0_4base4V1_09DebugInfoEEEE
_ZN7android4hidl7manager4V1_020IServiceNotification12getHashChainENSt3__18functionIFvRKNS_8hardware8hidl_vecINS6_10hidl_arrayIhLm32EJEEEEEEEE
_ZN7android4hidl7manager4V1_020IServiceNotification13tryGetServiceERKNSt3__112basic_stringIcNS4_11char_traitsIcEENS4_9allocatorIcEEEEb
_ZN7android4hidl7manager4V1_020IServiceNotification13unlinkToDeathERKNS_2spINS_8hardware20hidl_death_recipientEEE
_ZN7android4hidl7manager4V1_020IServiceNotification14interfaceChainENSt3__18functionIFvRKNS_8hardware8hidl_vecINS6_11hidl_stringEEEEEE
_ZN7android4hidl7manager4V1_020IServiceNotification17registerAsServiceERKNSt3__112basic_stringIcNS4_11char_traitsIcEENS4_9allocatorIcEEEE
_ZN7android4hidl7manager4V1_020IServiceNotification19interfaceDescriptorENSt3__18functionIFvRKNS_8hardware11hidl_stringEEEE
_ZN7android4hidl7manager4V1_020IServiceNotification21notifySyspropsChangedEv
_ZN7android4hidl7manager4V1_020IServiceNotification21setHALInstrumentationEv
_ZN7android4hidl7manager4V1_020IServiceNotification24registerForNotificationsERKNSt3__112basic_stringIcNS4_11char_traitsIcEENS4_9allocatorIcEEEERKNS_2spIS3_EE
_ZN7android4hidl7manager4V1_020IServiceNotification4pingEv
_ZN7android4hidl7manager4V1_020IServiceNotification5debugERKNS_8hardware11hidl_handleERKNS4_8hidl_vecINS4_11hidl_stringEEE
_ZN7android4hidl7manager4V1_020IServiceNotification8castFromERKNS_2spINS0_4base4V1_05IBaseEEEb
_ZN7android4hidl7manager4V1_020IServiceNotification8castFromERKNS_2spIS3_EEb
_ZN7android4hidl7manager4V1_021BsServiceNotification13addOnewayTaskENSt3__18functionIFvvEEE
_ZN7android4hidl7manager4V1_021BsServiceNotificationC1ENS_2spINS2_20IServiceNotificationEEE
_ZN7android4hidl7manager4V1_021BsServiceNotificationC2ENS_2spINS2_20IServiceNotificationEEE
_ZN7android4hidl7manager4V1_021writeEmbeddedToParcelERKNS2_15IServiceManager17InstanceDebugInfoEPNS_8hardware6ParcelEmm
_ZN7android4hidl7manager4V1_022readEmbeddedFromParcelERKNS2_15IServiceManager17InstanceDebugInfoERKNS_8hardware6ParcelEmm
_ZN7android4hidl7manager4V1_023BnHwServiceNotification10onTransactEjRKNS_8hardware6ParcelEPS5_jNSt3__18functionIFvRS5_EEE
_ZN7android4hidl7manager4V1_023BnHwServiceNotification12getDebugInfoENSt3__18functionIFvRKNS0_4base4V1_09DebugInfoEEEE
_ZN7android4hidl7manager4V1_023BnHwServiceNotification20_hidl_onRegistrationEPNS0_4base4V1_08BnHwBaseERKNS_8hardware6ParcelEPS9_NSt3__18functionIFvRS9_EEE
_ZN7android4hidl7manager4V1_023BnHwServiceNotification4pingEv
_ZN7android4hidl7manager4V1_023BnHwServiceNotificationC1ERKNS_2spINS2_20IServiceNotificationEEE
_ZN7android4hidl7manager4V1_023BnHwServiceNotificationC2ERKNS_2spINS2_20IServiceNotificationEEE
_ZN7android4hidl7manager4V1_023BnHwServiceNotificationD0Ev
_ZN7android4hidl7manager4V1_023BnHwServiceNotificationD1Ev
_ZN7android4hidl7manager4V1_023BnHwServiceNotificationD2Ev
_ZN7android4hidl7manager4V1_023BpHwServiceNotification11linkToDeathERKNS_2spINS_8hardware20hidl_death_recipientEEEm
_ZN7android4hidl7manager4V1_023BpHwServiceNotification12getDebugInfoENSt3__18functionIFvRKNS0_4base4V1_09DebugInfoEEEE
_ZN7android4hidl7manager4V1_023BpHwServiceNotification12getHashChainENSt3__18functionIFvRKNS_8hardware8hidl_vecINS6_10hidl_arrayIhLm32EJEEEEEEEE
_ZN7android4hidl7manager4V1_023BpHwServiceNotification13unlinkToDeathERKNS_2spINS_8hardware20hidl_death_recipientEEE
_ZN7android4hidl7manager4V1_023BpHwServiceNotification14interfaceChainENSt3__18functionIFvRKNS_8hardware8hidl_vecINS6_11hidl_stringEEEEEE
_ZN7android4hidl7manager4V1_023BpHwServiceNotification14onRegistrationERKNS_8hardware11hidl_stringES7_b
_ZN7android4hidl7manager4V1_023BpHwServiceNotification19interfaceDescriptorENSt3__18functionIFvRKNS_8hardware11hidl_stringEEEE
_ZN7android4hidl7manager4V1_023BpHwServiceNotification20_hidl_onRegistrationEPNS_8hardware10IInterfaceEPNS4_7details16HidlInstrumentorERKNS4_11hidl_stringESC_b
_ZN7android4hidl7manager4V1_023BpHwServiceNotification21notifySyspropsChangedEv
_ZN7android4hidl7manager4V1_023BpHwServiceNotification21setHALInstrumentationEv
_ZN7android4hidl7manager4V1_023BpHwServiceNotification4pingEv
_ZN7android4hidl7manager4V1_023BpHwServiceNotification5debugERKNS_8hardware11hidl_handleERKNS4_8hidl_vecINS4_11hidl_stringEEE
_ZN7android4hidl7manager4V1_023BpHwServiceNotificationC1ERKNS_2spINS_8hardware7IBinderEEE
_ZN7android4hidl7manager4V1_023BpHwServiceNotificationC2ERKNS_2spINS_8hardware7IBinderEEE
_ZN7android4hidl7manager4V1_115IServiceManager10descriptorE
_ZN7android4hidl7manager4V1_115IServiceManager10getServiceERKNSt3__112basic_stringIcNS4_11char_traitsIcEENS4_9allocatorIcEEEEb
_ZN7android4hidl7manager4V1_115IServiceManager11linkToDeathERKNS_2spINS_8hardware20hidl_death_recipientEEEm
_ZN7android4hidl7manager4V1_115IServiceManager12getDebugInfoENSt3__18functionIFvRKNS0_4base4V1_09DebugInfoEEEE
_ZN7android4hidl7manager4V1_115IServiceManager12getHashChainENSt3__18functionIFvRKNS_8hardware8hidl_vecINS6_10hidl_arrayIhLm32EJEEEEEEEE
_ZN7android4hidl7manager4V1_115IServiceManager13tryGetServiceERKNSt3__112basic_stringIcNS4_11char_traitsIcEENS4_9allocatorIcEEEEb
_ZN7android4hidl7manager4V1_115IServiceManager13unlinkToDeathERKNS_2spINS_8hardware20hidl_death_recipientEEE
_ZN7android4hidl7manager4V1_115IServiceManager14interfaceChainENSt3__18functionIFvRKNS_8hardware8hidl_vecINS6_11hidl_stringEEEEEE
_ZN7android4hidl7manager4V1_115IServiceManager17registerAsServiceERKNSt3__112basic_stringIcNS4_11char_traitsIcEENS4_9allocatorIcEEEE
_ZN7android4hidl7manager4V1_115IServiceManager19interfaceDescriptorENSt3__18functionIFvRKNS_8hardware11hidl_stringEEEE
_ZN7android4hidl7manager4V1_115IServiceManager21notifySyspropsChangedEv
_ZN7android4hidl7manager4V1_115IServiceManager21setHALInstrumentationEv
_ZN7android4hidl7manager4V1_115IServiceManager24registerForNotificationsERKNSt3__112basic_stringIcNS4_11char_traitsIcEENS4_9allocatorIcEEEERKNS_2spINS1_4V1_020IServiceNotificationEEE
_ZN7android4hidl7manager4V1_115IServiceManager4pingEv
_ZN7android4hidl7manager4V1_115IServiceManager5debugERKNS_8hardware11hidl_handleERKNS4_8hidl_vecINS4_11hidl_stringEEE
_ZN7android4hidl7manager4V1_115IServiceManager8castFromERKNS_2spINS0_4base4V1_05IBaseEEEb
_ZN7android4hidl7manager4V1_115IServiceManager8castFromERKNS_2spINS1_4V1_015IServiceManagerEEEb
_ZN7android4hidl7manager4V1_115IServiceManager8castFromERKNS_2spIS3_EEb
_ZN7android4hidl7manager4V1_116BsServiceManager13addOnewayTaskENSt3__18functionIFvvEEE
_ZN7android4hidl7manager4V1_116BsServiceManagerC1ENS_2spINS2_15IServiceManagerEEE
_ZN7android4hidl7manager4V1_116BsServiceManagerC2ENS_2spINS2_15IServiceManagerEEE
_ZN7android4hidl7manager4V1_118BnHwServiceManager10onTransactEjRKNS_8hardware6ParcelEPS5_jNSt3__18functionIFvRS5_EEE
_ZN7android4hidl7manager4V1_118BnHwServiceManager12getDebugInfoENSt3__18functionIFvRKNS0_4base4V1_09DebugInfoEEEE
_ZN7android4hidl7manager4V1_118BnHwServiceManager32_hidl_unregisterForNotificationsEPNS0_4base4V1_08BnHwBaseERKNS_8hardware6ParcelEPS9_NSt3__18functionIFvRS9_EEE
_ZN7android4hidl7manager4V1_118BnHwServiceManager4pingEv
_ZN7android4hidl7manager4V1_118BnHwServiceManagerC1ERKNS_2spINS2_15IServiceManagerEEE
_ZN7android4hidl7manager4V1_118BnHwServiceManagerC2ERKNS_2spINS2_15IServiceManagerEEE
_ZN7android4hidl7manager4V1_118BnHwServiceManagerD0Ev
_ZN7android4hidl7manager4V1_118BnHwServiceManagerD1Ev
_ZN7android4hidl7manager4V1_118BnHwServiceManagerD2Ev
_ZN7android4hidl7manager4V1_118BpHwServiceManager11linkToDeathERKNS_2spINS_8hardware20hidl_death_recipientEEEm
_ZN7android4hidl7manager4V1_118BpHwServiceManager12getDebugInfoENSt3__18functionIFvRKNS0_4base4V1_09DebugInfoEEEE
_ZN7android4hidl7manager4V1_118BpHwServiceManager12getHashChainENSt3__18functionIFvRKNS_8hardware8hidl_vecINS6_10hidl_arrayIhLm32EJEEEEEEEE
_ZN7android4hidl7manager4V1_118BpHwServiceManager12getTransportERKNS_8hardware11hidl_stringES7_
_ZN7android4hidl7manager4V1_118BpHwServiceManager13unlinkToDeathERKNS_2spINS_8hardware20hidl_death_recipientEEE
_ZN7android4hidl7manager4V1_118BpHwServiceManager14interfaceChainENSt3__18functionIFvRKNS_8hardware8hidl_vecINS6_11hidl_stringEEEEEE
_ZN7android4hidl7manager4V1_118BpHwServiceManager15listByInterfaceERKNS_8hardware11hidl_stringENSt3__18functionIFvRKNS4_8hidl_vecIS5_EEEEE
_ZN7android4hidl7manager4V1_118BpHwServiceManager19interfaceDescriptorENSt3__18functionIFvRKNS_8hardware11hidl_stringEEEE
_ZN7android4hidl7manager4V1_118BpHwServiceManager21notifySyspropsChangedEv
_ZN7android4hidl7manager4V1_118BpHwServiceManager21setHALInstrumentationEv
_ZN7android4hidl7manager4V1_118BpHwServiceManager24registerForNotificationsERKNS_8hardware11hidl_stringES7_RKNS_2spINS1_4V1_020IServiceNotificationEEE
_ZN7android4hidl7manager4V1_118BpHwServiceManager25registerPassthroughClientERKNS_8hardware11hidl_stringES7_
_ZN7android4hidl7manager4V1_118BpHwServiceManager26unregisterForNotificationsERKNS_8hardware11hidl_stringES7_RKNS_2spINS1_4V1_020IServiceNotificationEEE
_ZN7android4hidl7manager4V1_118BpHwServiceManager32_hidl_unregisterForNotificationsEPNS_8hardware10IInterfaceEPNS4_7details16HidlInstrumentorERKNS4_11hidl_stringESC_RKNS_2spINS1_4V1_020IServiceNotificationEEE
_ZN7android4hidl7manager4V1_118BpHwServiceManager3addERKNS_8hardware11hidl_stringERKNS_2spINS0_4base4V1_05IBaseEEE
_ZN7android4hidl7manager4V1_118BpHwServiceManager3getERKNS_8hardware11hidl_stringES7_
_ZN7android4hidl7manager4V1_118BpHwServiceManager4listENSt3__18functionIFvRKNS_8hardware8hidl_vecINS6_11hidl_stringEEEEEE
_ZN7android4hidl7manager4V1_118BpHwServiceManager4pingEv
_ZN7android4hidl7manager4V1_118BpHwServiceManager5debugERKNS_8hardware11hidl_handleERKNS4_8hidl_vecINS4_11hidl_stringEEE
_ZN7android4hidl7manager4V1_118BpHwServiceManager9debugDumpENSt3__18functionIFvRKNS_8hardware8hidl_vecINS1_4V1_015IServiceManager17InstanceDebugInfoEEEEEE
_ZN7android4hidl7manager4V1_118BpHwServiceManagerC1ERKNS_2spINS_8hardware7IBinderEEE
_ZN7android4hidl7manager4V1_118BpHwServiceManagerC2ERKNS_2spINS_8hardware7IBinderEEE
_ZN7android8hardware10binaryNameEv
_ZN7android8hardware10startsWithERKNSt3__112basic_stringIcNS1_11char_traitsIcEENS1_9allocatorIcEEEES9_
_ZN7android8hardware11hidl_memory13kOffsetOfNameE
_ZN7android8hardware11hidl_memory15kOffsetOfHandleE
_ZN7android8hardware11hidl_string15kOffsetOfBufferE
_ZN7android8hardware13writeToParcelERKNS0_12hidl_versionERNS0_6ParcelE
_ZN7android8hardware13writeToParcelERKNS0_6StatusEPNS0_6ParcelE
_ZN7android8hardware14readFromParcelEPNS0_6StatusERKNS0_6ParcelE
_ZN7android8hardware14readFromParcelERKNS0_6ParcelE
_ZN7android8hardware16handleBinderPollEv
_ZN7android8hardware16matchPackageNameERKNSt3__112basic_stringIcNS1_11char_traitsIcEENS1_9allocatorIcEEEEPS7_SA_
_ZN7android8hardware17joinRpcThreadpoolEv
_ZN7android8hardware18setupBinderPollingEv
_ZN7android8hardware19handleTransportPollEi
_ZN7android8hardware21defaultServiceManagerEv
_ZN7android8hardware21packageWithoutVersionERKNSt3__112basic_stringIcNS1_11char_traitsIcEENS1_9allocatorIcEEEE
_ZN7android8hardware21setMinSchedulerPolicyERKNS_2spINS_4hidl4base4V1_05IBaseEEEii
_ZN7android8hardware21setupTransportPollingEv
_ZN7android8hardware21tryShortenProcessNameERKNSt3__112basic_stringIcNS1_11char_traitsIcEENS1_9allocatorIcEEEE
_ZN7android8hardware21writeEmbeddedToParcelERKNS0_11hidl_memoryEPNS0_6ParcelEmm
_ZN7android8hardware21writeEmbeddedToParcelERKNS0_11hidl_stringEPNS0_6ParcelEmm
_ZN7android8hardware22configureRpcThreadpoolEmb
_ZN7android8hardware22readEmbeddedFromParcelERKNS0_11hidl_memoryERKNS0_6ParcelEmm
_ZN7android8hardware22readEmbeddedFromParcelERKNS0_11hidl_stringERKNS0_6ParcelEmm
_ZN7android8hardware23joinBinderRpcThreadpoolEv
_ZN7android8hardware23waitForHwServiceManagerEv
_ZN7android8hardware24defaultServiceManager1_1Ev
_ZN7android8hardware27hidl_binder_death_recipient10binderDiedERKNS_2wpINS0_7IBinderEEE
_ZN7android8hardware27hidl_binder_death_recipient12getRecipientEv
_ZN7android8hardware27hidl_binder_death_recipientC1ERKNS_2spINS0_20hidl_death_recipientEEEmRKNS2_INS_4hidl4base4V1_05IBaseEEE
_ZN7android8hardware27hidl_binder_death_recipientC2ERKNS_2spINS0_20hidl_death_recipientEEEmRKNS2_INS_4hidl4base4V1_05IBaseEEE
_ZN7android8hardware28configureBinderRpcThreadpoolEmb
_ZN7android8hardware28getPassthroughServiceManagerEv
_ZN7android8hardware31getPassthroughServiceManager1_1Ev
_ZN7android8hardware6searchERKNSt3__112basic_stringIcNS1_11char_traitsIcEENS1_9allocatorIcEEEES9_S9_
_ZN7android8hardware7details13getDescriptorEPNS_4hidl4base4V1_05IBaseE
_ZN7android8hardware7details14onRegistrationERKNSt3__112basic_stringIcNS2_11char_traitsIcEENS2_9allocatorIcEEEESA_SA_
_ZN7android8hardware7details15gServicePrioMapE
_ZN7android8hardware7details15handleCastErrorERKNS0_6ReturnIbEERKNSt3__112basic_stringIcNS6_11char_traitsIcEENS6_9allocatorIcEEEESE_
_ZN7android8hardware7details16canCastInterfaceEPNS_4hidl4base4V1_05IBaseEPKcb
_ZN7android8hardware7details16getPidIfSharableEv
_ZN7android8hardware7details16waitForHwServiceERKNSt3__112basic_stringIcNS2_11char_traitsIcEENS2_9allocatorIcEEEESA_
_ZN7android8hardware7details17gBnConstructorMapE
_ZN7android8hardware7details17gBsConstructorMapE
_ZN7android8hardware7details19getBnConstructorMapEv
_ZN7android8hardware7details19getBsConstructorMapEv
_ZN7android8hardware7details21getRawServiceInternalERKNSt3__112basic_stringIcNS2_11char_traitsIcEENS2_9allocatorIcEEEESA_bb
_ZN7android8hardware7details22gDefaultServiceManagerE
_ZN7android8hardware7details23wrapPassthroughInternalENS_2spINS_4hidl4base4V1_05IBaseEEE
_ZN7android8hardware7details25preloadPassthroughServiceERKNSt3__112basic_stringIcNS2_11char_traitsIcEENS2_9allocatorIcEEEE
_ZN7android8hardware7details26gDefaultServiceManagerLockE
_ZN7android8hardware7details6gBnMapE
_ZN7android8hardware8endsWithERKNSt3__112basic_stringIcNS1_11char_traitsIcEENS1_9allocatorIcEEEES9_
_ZTCN7android4hidl4base4V1_08BnHwBaseE0_NS_8hardware7IBinderE
_ZTCN7android4hidl4base4V1_08BnHwBaseE0_NS_8hardware9BHwBinderE
_ZTCN7android4hidl4base4V1_08BpHwBaseE0_NS2_5IBaseE
_ZTCN7android4hidl4base4V1_08BpHwBaseE0_NS_8hardware11BpInterfaceINS2_5IBaseEEE
_ZTCN7android4hidl4base4V1_08BpHwBaseE16_NS_8hardware11BpHwRefBaseE
_ZTCN7android4hidl4base4V1_08BpHwBaseE8_NS_8hardware10IInterfaceE
_ZTCN7android4hidl7manager4V1_015IServiceManagerE0_NS0_4base4V1_05IBaseE
_ZTCN7android4hidl7manager4V1_018BnHwServiceManagerE0_NS0_4base4V1_08BnHwBaseE
_ZTCN7android4hidl7manager4V1_018BnHwServiceManagerE0_NS_8hardware7IBinderE
_ZTCN7android4hidl7manager4V1_018BnHwServiceManagerE0_NS_8hardware9BHwBinderE
_ZTCN7android4hidl7manager4V1_018BpHwServiceManagerE0_NS0_4base4V1_05IBaseE
_ZTCN7android4hidl7manager4V1_018BpHwServiceManagerE0_NS2_15IServiceManagerE
_ZTCN7android4hidl7manager4V1_018BpHwServiceManagerE0_NS_8hardware11BpInterfaceINS2_15IServiceManagerEEE
_ZTCN7android4hidl7manager4V1_018BpHwServiceManagerE16_NS_8hardware11BpHwRefBaseE
_ZTCN7android4hidl7manager4V1_018BpHwServiceManagerE8_NS_8hardware10IInterfaceE
_ZTCN7android4hidl7manager4V1_020IServiceNotificationE0_NS0_4base4V1_05IBaseE
_ZTCN7android4hidl7manager4V1_023BnHwServiceNotificationE0_NS0_4base4V1_08BnHwBaseE
_ZTCN7android4hidl7manager4V1_023BnHwServiceNotificationE0_NS_8hardware7IBinderE
_ZTCN7android4hidl7manager4V1_023BnHwServiceNotificationE0_NS_8hardware9BHwBinderE
_ZTCN7android4hidl7manager4V1_023BpHwServiceNotificationE0_NS0_4base4V1_05IBaseE
_ZTCN7android4hidl7manager4V1_023BpHwServiceNotificationE0_NS2_20IServiceNotificationE
_ZTCN7android4hidl7manager4V1_023BpHwServiceNotificationE0_NS_8hardware11BpInterfaceINS2_20IServiceNotificationEEE
_ZTCN7android4hidl7manager4V1_023BpHwServiceNotificationE16_NS_8hardware11BpHwRefBaseE
_ZTCN7android4hidl7manager4V1_023BpHwServiceNotificationE8_NS_8hardware10IInterfaceE
_ZTCN7android4hidl7manager4V1_115IServiceManagerE0_NS0_4base4V1_05IBaseE
_ZTCN7android4hidl7manager4V1_115IServiceManagerE0_NS1_4V1_015IServiceManagerE
_ZTCN7android4hidl7manager4V1_118BnHwServiceManagerE0_NS0_4base4V1_08BnHwBaseE
_ZTCN7android4hidl7manager4V1_118BnHwServiceManagerE0_NS_8hardware7IBinderE
_ZTCN7android4hidl7manager4V1_118BnHwServiceManagerE0_NS_8hardware9BHwBinderE
_ZTCN7android4hidl7manager4V1_118BpHwServiceManagerE0_NS0_4base4V1_05IBaseE
_ZTCN7android4hidl7manager4V1_118BpHwServiceManagerE0_NS1_4V1_015IServiceManagerE
_ZTCN7android4hidl7manager4V1_118BpHwServiceManagerE0_NS2_15IServiceManagerE
_ZTCN7android4hidl7manager4V1_118BpHwServiceManagerE0_NS_8hardware11BpInterfaceINS2_15IServiceManagerEEE
_ZTCN7android4hidl7manager4V1_118BpHwServiceManagerE16_NS_8hardware11BpHwRefBaseE
_ZTCN7android4hidl7manager4V1_118BpHwServiceManagerE8_NS_8hardware10IInterfaceE
_ZTCN7android8hardware27hidl_binder_death_recipientE0_NS0_7IBinder14DeathRecipientE
_ZTTN7android4hidl4base4V1_05IBaseE
_ZTTN7android4hidl4base4V1_08BnHwBaseE
_ZTTN7android4hidl4base4V1_08BpHwBaseE
_ZTTN7android4hidl7manager4V1_015IServiceManagerE
_ZTTN7android4hidl7manager4V1_018BnHwServiceManagerE
_ZTTN7android4hidl7manager4V1_018BpHwServiceManagerE
_ZTTN7android4hidl7manager4V1_020IServiceNotificationE
_ZTTN7android4hidl7manager4V1_023BnHwServiceNotificationE
_ZTTN7android4hidl7manager4V1_023BpHwServiceNotificationE
_ZTTN7android4hidl7manager4V1_115IServiceManagerE
_ZTTN7android4hidl7manager4V1_118BnHwServiceManagerE
_ZTTN7android4hidl7manager4V1_118BpHwServiceManagerE
_ZTTN7android8hardware27hidl_binder_death_recipientE
_ZTVN7android4hidl4base4V1_05IBaseE
_ZTVN7android4hidl4base4V1_08BnHwBaseE
_ZTVN7android4hidl4base4V1_08BpHwBaseE
_ZTVN7android4hidl7manager4V1_015IServiceManagerE
_ZTVN7android4hidl7manager4V1_018BnHwServiceManagerE
_ZTVN7android4hidl7manager4V1_018BpHwServiceManagerE
_ZTVN7android4hidl7manager4V1_020IServiceNotificationE
_ZTVN7android4hidl7manager4V1_023BnHwServiceNotificationE
_ZTVN7android4hidl7manager4V1_023BpHwServiceNotificationE
_ZTVN7android4hidl7manager4V1_115IServiceManagerE
_ZTVN7android4hidl7manager4V1_118BnHwServiceManagerE
_ZTVN7android4hidl7manager4V1_118BpHwServiceManagerE
_ZTVN7android8hardware27hidl_binder_death_recipientE
_ZThn32_N7android4hidl4base4V1_08BnHwBaseD0Ev
_ZThn32_N7android4hidl4base4V1_08BnHwBaseD1Ev
_ZThn32_N7android4hidl7manager4V1_018BnHwServiceManagerD0Ev
_ZThn32_N7android4hidl7manager4V1_018BnHwServiceManagerD1Ev
_ZThn32_N7android4hidl7manager4V1_023BnHwServiceNotificationD0Ev
_ZThn32_N7android4hidl7manager4V1_023BnHwServiceNotificationD1Ev
_ZThn32_N7android4hidl7manager4V1_118BnHwServiceManagerD0Ev
_ZThn32_N7android4hidl7manager4V1_118BnHwServiceManagerD1Ev
_ZTv0_n24_N7android4hidl4base4V1_08BnHwBaseD0Ev
_ZTv0_n24_N7android4hidl4base4V1_08BnHwBaseD1Ev
_ZTv0_n24_N7android4hidl7manager4V1_018BnHwServiceManagerD0Ev
_ZTv0_n24_N7android4hidl7manager4V1_018BnHwServiceManagerD1Ev
_ZTv0_n24_N7android4hidl7manager4V1_023BnHwServiceNotificationD0Ev
_ZTv0_n24_N7android4hidl7manager4V1_023BnHwServiceNotificationD1Ev
_ZTv0_n24_N7android4hidl7manager4V1_118BnHwServiceManagerD0Ev
_ZTv0_n24_N7android4hidl7manager4V1_118BnHwServiceManagerD1Ev
