_Z10rsIsObject10rs_element
_Z10rsIsObject10rs_sampler
_Z10rsIsObject13rs_allocation
_Z10rsIsObject16rs_program_store
_Z10rsIsObject17rs_program_raster
_Z10rsIsObject17rs_program_vertex
_Z10rsIsObject19rs_program_fragment
_Z10rsIsObject7rs_font
_Z10rsIsObject7rs_mesh
_Z10rsIsObject7rs_type
_Z10rsIsObject9rs_script
_Z11rsLocaltimeP5rs_tmPKl
_Z11rsSetObjectP10rs_elementS_
_Z11rsSetObjectP10rs_samplerS_
_Z11rsSetObjectP13rs_allocationS_
_Z11rsSetObjectP16rs_program_storeS_
_Z11rsSetObjectP17rs_program_rasterS_
_Z11rsSetObjectP17rs_program_vertexS_
_Z11rsSetObjectP19rs_program_fragmentS_
_Z11rsSetObjectP7rs_fontS_
_Z11rsSetObjectP7rs_meshS_
_Z11rsSetObjectP7rs_typeS_
_Z11rsSetObjectP9rs_scriptS_
_Z11rsdGLFinishPKN7android12renderscript7ContextE
_Z11rsdMeshDrawPKN7android12renderscript7ContextEPKNS0_4MeshEjjj
_Z11rsdMeshInitPKN7android12renderscript7ContextEPKNS0_4MeshE
_Z11rsdTypeInitPKN7android12renderscript7ContextEPKNS0_4TypeE
_Z11rsgBindFont7rs_font
_Z11rsgDrawMesh7rs_mesh
_Z11rsgDrawMesh7rs_meshj
_Z11rsgDrawMesh7rs_meshjjj
_Z11rsgDrawQuadffffffffffff
_Z11rsgDrawRectfffff
_Z11rsgDrawText13rs_allocationii
_Z11rsgDrawTextPKcii
_Z11rsgGetWidthv
_Z12GetOffsetPtrPKN7android12renderscript10AllocationEjjjj23RsAllocationCubemapFace
_Z12rsCreateType10rs_elementjjjbb13rs_yuv_format
_Z12rsgFontColorffff
_Z12rsgGetHeightv
_Z13getConfigDataPKN7android12renderscript7ContextEPimj
_Z13rsClearObjectP10rs_element
_Z13rsClearObjectP10rs_sampler
_Z13rsClearObjectP13rs_allocation
_Z13rsClearObjectP16rs_program_store
_Z13rsClearObjectP17rs_program_raster
_Z13rsClearObjectP17rs_program_vertex
_Z13rsClearObjectP19rs_program_fragment
_Z13rsClearObjectP7rs_font
_Z13rsClearObjectP7rs_mesh
_Z13rsClearObjectP7rs_type
_Z13rsClearObjectP9rs_script
_Z13rsUptimeNanosv
_Z13rsdGLShutdownPKN7android12renderscript7ContextE
_Z13rsdScriptInitPKN7android12renderscript7ContextEPNS0_7ScriptCEPKcS7_PKhmj
_Z13rsgClearColorffff
_Z13rsgClearDepthf
_Z14rsGetElementAt13rs_allocationj
_Z14rsGetElementAt13rs_allocationjj
_Z14rsGetElementAt13rs_allocationjjj
_Z14rsSendToClienti
_Z14rsSendToClientiPKvj
_Z14rsSetElementAt13rs_allocationPKvj
_Z14rsSetElementAt13rs_allocationPKvjj
_Z14rsSetElementAt13rs_allocationPKvjjj
_Z14rsUptimeMillisv
_Z14rsdElementInitPKN7android12renderscript7ContextEPKNS0_7ElementE
_Z14rsdMeshDestroyPKN7android12renderscript7ContextEPKNS0_4MeshE
_Z14rsdSamplerInitPKN7android12renderscript7ContextEPKNS0_7SamplerE
_Z14rsdTypeDestroyPKN7android12renderscript7ContextEPKNS0_4TypeE
_Z14rsgBindSampler19rs_program_fragmentj10rs_sampler
_Z14rsgBindTexture19rs_program_fragmentj13rs_allocation
_Z14rsgMeasureText13rs_allocationPiS0_S0_S0_
_Z14rsgMeasureTextPKcPiS1_S1_S1_
_Z15rsCreateElementiibj
_Z15rsGetAllocationPKv
_Z15rsdGLCheckErrorPKN7android12renderscript7ContextEPKcb
_Z15rsdGLClearColorPKN7android12renderscript7ContextEffff
_Z15rsdGLClearDepthPKN7android12renderscript7ContextEf
_Z15rsdGLSetSurfacePKN7android12renderscript7ContextEjjPv
_Z15rsdTypeToGLType10RsDataType
_Z15rsgBindConstant17rs_program_vertexj13rs_allocation
_Z15rsgBindConstant19rs_program_fragmentj13rs_allocation
_Z16rsdGLSetPriorityPKN7android12renderscript7ContextEi
_Z16rsdInitIntrinsicPKN7android12renderscript7ContextEPNS0_6ScriptE19RsScriptIntrinsicIDPNS0_7ElementE
_Z16rsdScriptDestroyPKN7android12renderscript7ContextEPNS0_6ScriptE
_Z17rsForEachInternaliP14rs_script_calliiP13rs_allocation
_Z17rsdAllocationInitPKN7android12renderscript7ContextEPNS0_10AllocationEb
_Z17rsdElementDestroyPKN7android12renderscript7ContextEPKNS0_7ElementE
_Z17rsdFreeRuntimeMemPv
_Z17rsdKindToGLFormat10RsDataKind
_Z17rsdSamplerDestroyPKN7android12renderscript7ContextEPKNS0_7SamplerE
_Z18rsAllocationIoSend13rs_allocation
_Z18rsCreateAllocation7rs_type28rs_allocation_mipmap_controljPv
_Z18rsGetElementAt_int13rs_allocationPij
_Z18rsGetElementAt_int13rs_allocationPijj
_Z18rsGetElementAt_int13rs_allocationPijjj
_Z18rsSetElementAt_int13rs_allocationPKij
_Z18rsSetElementAt_int13rs_allocationPKijj
_Z18rsSetElementAt_int13rs_allocationPKijjj
_Z18rsdAllocRuntimeMemmj
_Z18rsdFrameBufferInitPKN7android12renderscript7ContextEPKNS0_8FBOCacheE
_Z18rsdScriptGroupInitPKN7android12renderscript7ContextEPNS0_15ScriptGroupBaseE
_Z18rsgBindColorTarget13rs_allocationj
_Z18rsgBindDepthTarget13rs_allocation
_Z18setColorAttachmentPKN7android12renderscript7ContextEPKNS0_8FBOCacheE
_Z18setDepthAttachmentPKN7android12renderscript7ContextEPKNS0_8FBOCacheE
_Z19rsGetElementAt_char13rs_allocationPcj
_Z19rsGetElementAt_char13rs_allocationPcjj
_Z19rsGetElementAt_char13rs_allocationPcjjj
_Z19rsGetElementAt_half13rs_allocationPDhj
_Z19rsGetElementAt_half13rs_allocationPDhjj
_Z19rsGetElementAt_half13rs_allocationPDhjjj
_Z19rsGetElementAt_int213rs_allocationPDv2_ij
_Z19rsGetElementAt_int213rs_allocationPDv2_ijj
_Z19rsGetElementAt_int213rs_allocationPDv2_ijjj
_Z19rsGetElementAt_int313rs_allocationPDv3_ij
_Z19rsGetElementAt_int313rs_allocationPDv3_ijj
_Z19rsGetElementAt_int313rs_allocationPDv3_ijjj
_Z19rsGetElementAt_int413rs_allocationPDv4_ij
_Z19rsGetElementAt_int413rs_allocationPDv4_ijj
_Z19rsGetElementAt_int413rs_allocationPDv4_ijjj
_Z19rsGetElementAt_long13rs_allocationPlj
_Z19rsGetElementAt_long13rs_allocationPljj
_Z19rsGetElementAt_long13rs_allocationPljjj
_Z19rsGetElementAt_uint13rs_allocationPjj
_Z19rsGetElementAt_uint13rs_allocationPjjj
_Z19rsGetElementAt_uint13rs_allocationPjjjj
_Z19rsSetElementAt_char13rs_allocationPKcj
_Z19rsSetElementAt_char13rs_allocationPKcjj
_Z19rsSetElementAt_char13rs_allocationPKcjjj
_Z19rsSetElementAt_half13rs_allocationPKDhj
_Z19rsSetElementAt_half13rs_allocationPKDhjj
_Z19rsSetElementAt_half13rs_allocationPKDhjjj
_Z19rsSetElementAt_int213rs_allocationPKDv2_ij
_Z19rsSetElementAt_int213rs_allocationPKDv2_ijj
_Z19rsSetElementAt_int213rs_allocationPKDv2_ijjj
_Z19rsSetElementAt_int313rs_allocationPKDv3_ij
_Z19rsSetElementAt_int313rs_allocationPKDv3_ijj
_Z19rsSetElementAt_int313rs_allocationPKDv3_ijjj
_Z19rsSetElementAt_int413rs_allocationPKDv4_ij
_Z19rsSetElementAt_int413rs_allocationPKDv4_ijj
_Z19rsSetElementAt_int413rs_allocationPKDv4_ijjj
_Z19rsSetElementAt_long13rs_allocationPKlj
_Z19rsSetElementAt_long13rs_allocationPKljj
_Z19rsSetElementAt_long13rs_allocationPKljjj
_Z19rsSetElementAt_uint13rs_allocationPKjj
_Z19rsSetElementAt_uint13rs_allocationPKjjj
_Z19rsSetElementAt_uint13rs_allocationPKjjjj
_Z19rsdAllocationData1DPKN7android12renderscript7ContextEPKNS0_10AllocationEjjmPKvm
_Z19rsdAllocationData2DPKN7android12renderscript7ContextEPKNS0_10AllocationEjjj23RsAllocationCubemapFacejjPKvmm
_Z19rsdAllocationData3DPKN7android12renderscript7ContextEPKNS0_10AllocationEjjjjjjjPKvmm
_Z19rsdAllocationIoSendPKN7android12renderscript7ContextEPNS0_10AllocationE
_Z19rsdAllocationLock1DPKN7android12renderscript7ContextEPKNS0_10AllocationE
_Z19rsdAllocationRead1DPKN7android12renderscript7ContextEPKNS0_10AllocationEjjmPvm
_Z19rsdAllocationRead2DPKN7android12renderscript7ContextEPKNS0_10AllocationEjjj23RsAllocationCubemapFacejjPvmm
_Z19rsdAllocationRead3DPKN7android12renderscript7ContextEPKNS0_10AllocationEjjjjjjjPvmm
_Z19rsdAllocationResizePKN7android12renderscript7ContextEPKNS0_10AllocationEPKNS0_4TypeEb
_Z19rsdProgramStoreInitPKN7android12renderscript7ContextEPKNS0_12ProgramStoreE
_Z19rsdScriptInvokeInitPKN7android12renderscript7ContextEPNS0_6ScriptE
_Z19rsdScriptInvokeRootPKN7android12renderscript7ContextEPNS0_6ScriptE
_Z19rsgBindProgramStore16rs_program_store
_Z19rsgClearColorTargetj
_Z19rsgClearDepthTargetv
_Z20rsGetElementAt_char213rs_allocationPDv2_cj
_Z20rsGetElementAt_char213rs_allocationPDv2_cjj
_Z20rsGetElementAt_char213rs_allocationPDv2_cjjj
_Z20rsGetElementAt_char313rs_allocationPDv3_cj
_Z20rsGetElementAt_char313rs_allocationPDv3_cjj
_Z20rsGetElementAt_char313rs_allocationPDv3_cjjj
_Z20rsGetElementAt_char413rs_allocationPDv4_cj
_Z20rsGetElementAt_char413rs_allocationPDv4_cjj
_Z20rsGetElementAt_char413rs_allocationPDv4_cjjj
_Z20rsGetElementAt_float13rs_allocationPfj
_Z20rsGetElementAt_float13rs_allocationPfjj
_Z20rsGetElementAt_float13rs_allocationPfjjj
_Z20rsGetElementAt_half213rs_allocationPDv2_Dhj
_Z20rsGetElementAt_half213rs_allocationPDv2_Dhjj
_Z20rsGetElementAt_half213rs_allocationPDv2_Dhjjj
_Z20rsGetElementAt_half313rs_allocationPDv3_Dhj
_Z20rsGetElementAt_half313rs_allocationPDv3_Dhjj
_Z20rsGetElementAt_half313rs_allocationPDv3_Dhjjj
_Z20rsGetElementAt_half413rs_allocationPDv4_Dhj
_Z20rsGetElementAt_half413rs_allocationPDv4_Dhjj
_Z20rsGetElementAt_half413rs_allocationPDv4_Dhjjj
_Z20rsGetElementAt_long213rs_allocationPDv2_lj
_Z20rsGetElementAt_long213rs_allocationPDv2_ljj
_Z20rsGetElementAt_long213rs_allocationPDv2_ljjj
_Z20rsGetElementAt_long313rs_allocationPDv3_lj
_Z20rsGetElementAt_long313rs_allocationPDv3_ljj
_Z20rsGetElementAt_long313rs_allocationPDv3_ljjj
_Z20rsGetElementAt_long413rs_allocationPDv4_lj
_Z20rsGetElementAt_long413rs_allocationPDv4_ljj
_Z20rsGetElementAt_long413rs_allocationPDv4_ljjj
_Z20rsGetElementAt_short13rs_allocationPsj
_Z20rsGetElementAt_short13rs_allocationPsjj
_Z20rsGetElementAt_short13rs_allocationPsjjj
_Z20rsGetElementAt_uchar13rs_allocationPhj
_Z20rsGetElementAt_uchar13rs_allocationPhjj
_Z20rsGetElementAt_uchar13rs_allocationPhjjj
_Z20rsGetElementAt_uint213rs_allocationPDv2_jj
_Z20rsGetElementAt_uint213rs_allocationPDv2_jjj
_Z20rsGetElementAt_uint213rs_allocationPDv2_jjjj
_Z20rsGetElementAt_uint313rs_allocationPDv3_jj
_Z20rsGetElementAt_uint313rs_allocationPDv3_jjj
_Z20rsGetElementAt_uint313rs_allocationPDv3_jjjj
_Z20rsGetElementAt_uint413rs_allocationPDv4_jj
_Z20rsGetElementAt_uint413rs_allocationPDv4_jjj
_Z20rsGetElementAt_uint413rs_allocationPDv4_jjjj
_Z20rsGetElementAt_ulong13rs_allocationPmj
_Z20rsGetElementAt_ulong13rs_allocationPmjj
_Z20rsGetElementAt_ulong13rs_allocationPmjjj
_Z20rsSetElementAt_char213rs_allocationPKDv2_cj
_Z20rsSetElementAt_char213rs_allocationPKDv2_cjj
_Z20rsSetElementAt_char213rs_allocationPKDv2_cjjj
_Z20rsSetElementAt_char313rs_allocationPKDv3_cj
_Z20rsSetElementAt_char313rs_allocationPKDv3_cjj
_Z20rsSetElementAt_char313rs_allocationPKDv3_cjjj
_Z20rsSetElementAt_char413rs_allocationPKDv4_cj
_Z20rsSetElementAt_char413rs_allocationPKDv4_cjj
_Z20rsSetElementAt_char413rs_allocationPKDv4_cjjj
_Z20rsSetElementAt_float13rs_allocationPKfj
_Z20rsSetElementAt_float13rs_allocationPKfjj
_Z20rsSetElementAt_float13rs_allocationPKfjjj
_Z20rsSetElementAt_half213rs_allocationPKDv2_Dhj
_Z20rsSetElementAt_half213rs_allocationPKDv2_Dhjj
_Z20rsSetElementAt_half213rs_allocationPKDv2_Dhjjj
_Z20rsSetElementAt_half313rs_allocationPKDv3_Dhj
_Z20rsSetElementAt_half313rs_allocationPKDv3_Dhjj
_Z20rsSetElementAt_half313rs_allocationPKDv3_Dhjjj
_Z20rsSetElementAt_half413rs_allocationPKDv4_Dhj
_Z20rsSetElementAt_half413rs_allocationPKDv4_Dhjj
_Z20rsSetElementAt_half413rs_allocationPKDv4_Dhjjj
_Z20rsSetElementAt_long213rs_allocationPKDv2_lj
_Z20rsSetElementAt_long213rs_allocationPKDv2_ljj
_Z20rsSetElementAt_long213rs_allocationPKDv2_ljjj
_Z20rsSetElementAt_long313rs_allocationPKDv3_lj
_Z20rsSetElementAt_long313rs_allocationPKDv3_ljj
_Z20rsSetElementAt_long313rs_allocationPKDv3_ljjj
_Z20rsSetElementAt_long413rs_allocationPKDv4_lj
_Z20rsSetElementAt_long413rs_allocationPKDv4_ljj
_Z20rsSetElementAt_long413rs_allocationPKDv4_ljjj
_Z20rsSetElementAt_short13rs_allocationPKsj
_Z20rsSetElementAt_short13rs_allocationPKsjj
_Z20rsSetElementAt_short13rs_allocationPKsjjj
_Z20rsSetElementAt_uchar13rs_allocationPKhj
_Z20rsSetElementAt_uchar13rs_allocationPKhjj
_Z20rsSetElementAt_uchar13rs_allocationPKhjjj
_Z20rsSetElementAt_uint213rs_allocationPKDv2_jj
_Z20rsSetElementAt_uint213rs_allocationPKDv2_jjj
_Z20rsSetElementAt_uint213rs_allocationPKDv2_jjjj
_Z20rsSetElementAt_uint313rs_allocationPKDv3_jj
_Z20rsSetElementAt_uint313rs_allocationPKDv3_jjj
_Z20rsSetElementAt_uint313rs_allocationPKDv3_jjjj
_Z20rsSetElementAt_uint413rs_allocationPKDv4_jj
_Z20rsSetElementAt_uint413rs_allocationPKDv4_jjj
_Z20rsSetElementAt_uint413rs_allocationPKDv4_jjjj
_Z20rsSetElementAt_ulong13rs_allocationPKmj
_Z20rsSetElementAt_ulong13rs_allocationPKmjj
_Z20rsSetElementAt_ulong13rs_allocationPKmjjj
_Z20rsdAllocationDestroyPKN7android12renderscript7ContextEPNS0_10AllocationE
_Z20rsdAllocationSyncAllPKN7android12renderscript7ContextEPKNS0_10AllocationE21RsAllocationUsageType
_Z20rsdLookupRuntimeStubPN7android12renderscript7ContextEPKc
_Z20rsdProgramRasterInitPKN7android12renderscript7ContextEPKNS0_13ProgramRasterE
_Z20rsdProgramVertexInitPKN7android12renderscript7ContextEPKNS0_13ProgramVertexEPKcmPS8_mPKm
_Z20rsgAllocationSyncAll13rs_allocation
_Z20rsgAllocationSyncAll13rs_allocation24rs_allocation_usage_type
_Z20rsgAllocationSyncAll13rs_allocationj
_Z20rsgBindProgramRaster17rs_program_raster
_Z20rsgBindProgramVertex17rs_program_vertex
_Z20rsgDrawQuadTexCoordsffffffffffffffffffff
_Z21rsAllocationIoReceive13rs_allocation
_Z21rsAllocationMarkDirty13rs_allocation
_Z21rsGetElementAt_double13rs_allocationPdj
_Z21rsGetElementAt_double13rs_allocationPdjj
_Z21rsGetElementAt_double13rs_allocationPdjjj
_Z21rsGetElementAt_float213rs_allocationPDv2_fj
_Z21rsGetElementAt_float213rs_allocationPDv2_fjj
_Z21rsGetElementAt_float213rs_allocationPDv2_fjjj
_Z21rsGetElementAt_float313rs_allocationPDv3_fj
_Z21rsGetElementAt_float313rs_allocationPDv3_fjj
_Z21rsGetElementAt_float313rs_allocationPDv3_fjjj
_Z21rsGetElementAt_float413rs_allocationPDv4_fj
_Z21rsGetElementAt_float413rs_allocationPDv4_fjj
_Z21rsGetElementAt_float413rs_allocationPDv4_fjjj
_Z21rsGetElementAt_short213rs_allocationPDv2_sj
_Z21rsGetElementAt_short213rs_allocationPDv2_sjj
_Z21rsGetElementAt_short213rs_allocationPDv2_sjjj
_Z21rsGetElementAt_short313rs_allocationPDv3_sj
_Z21rsGetElementAt_short313rs_allocationPDv3_sjj
_Z21rsGetElementAt_short313rs_allocationPDv3_sjjj
_Z21rsGetElementAt_short413rs_allocationPDv4_sj
_Z21rsGetElementAt_short413rs_allocationPDv4_sjj
_Z21rsGetElementAt_short413rs_allocationPDv4_sjjj
_Z21rsGetElementAt_uchar213rs_allocationPDv2_hj
_Z21rsGetElementAt_uchar213rs_allocationPDv2_hjj
_Z21rsGetElementAt_uchar213rs_allocationPDv2_hjjj
_Z21rsGetElementAt_uchar313rs_allocationPDv3_hj
_Z21rsGetElementAt_uchar313rs_allocationPDv3_hjj
_Z21rsGetElementAt_uchar313rs_allocationPDv3_hjjj
_Z21rsGetElementAt_uchar413rs_allocationPDv4_hj
_Z21rsGetElementAt_uchar413rs_allocationPDv4_hjj
_Z21rsGetElementAt_uchar413rs_allocationPDv4_hjjj
_Z21rsGetElementAt_ulong213rs_allocationPDv2_mj
_Z21rsGetElementAt_ulong213rs_allocationPDv2_mjj
_Z21rsGetElementAt_ulong213rs_allocationPDv2_mjjj
_Z21rsGetElementAt_ulong313rs_allocationPDv3_mj
_Z21rsGetElementAt_ulong313rs_allocationPDv3_mjj
_Z21rsGetElementAt_ulong313rs_allocationPDv3_mjjj
_Z21rsGetElementAt_ulong413rs_allocationPDv4_mj
_Z21rsGetElementAt_ulong413rs_allocationPDv4_mjj
_Z21rsGetElementAt_ulong413rs_allocationPDv4_mjjj
_Z21rsGetElementAt_ushort13rs_allocationPtj
_Z21rsGetElementAt_ushort13rs_allocationPtjj
_Z21rsGetElementAt_ushort13rs_allocationPtjjj
_Z21rsSetElementAt_double13rs_allocationPKdj
_Z21rsSetElementAt_double13rs_allocationPKdjj
_Z21rsSetElementAt_double13rs_allocationPKdjjj
_Z21rsSetElementAt_float213rs_allocationPKDv2_fj
_Z21rsSetElementAt_float213rs_allocationPKDv2_fjj
_Z21rsSetElementAt_float213rs_allocationPKDv2_fjjj
_Z21rsSetElementAt_float313rs_allocationPKDv3_fj
_Z21rsSetElementAt_float313rs_allocationPKDv3_fjj
_Z21rsSetElementAt_float313rs_allocationPKDv3_fjjj
_Z21rsSetElementAt_float413rs_allocationPKDv4_fj
_Z21rsSetElementAt_float413rs_allocationPKDv4_fjj
_Z21rsSetElementAt_float413rs_allocationPKDv4_fjjj
_Z21rsSetElementAt_short213rs_allocationPKDv2_sj
_Z21rsSetElementAt_short213rs_allocationPKDv2_sjj
_Z21rsSetElementAt_short213rs_allocationPKDv2_sjjj
_Z21rsSetElementAt_short313rs_allocationPKDv3_sj
_Z21rsSetElementAt_short313rs_allocationPKDv3_sjj
_Z21rsSetElementAt_short313rs_allocationPKDv3_sjjj
_Z21rsSetElementAt_short413rs_allocationPKDv4_sj
_Z21rsSetElementAt_short413rs_allocationPKDv4_sjj
_Z21rsSetElementAt_short413rs_allocationPKDv4_sjjj
_Z21rsSetElementAt_uchar213rs_allocationPKDv2_hj
_Z21rsSetElementAt_uchar213rs_allocationPKDv2_hjj
_Z21rsSetElementAt_uchar213rs_allocationPKDv2_hjjj
_Z21rsSetElementAt_uchar313rs_allocationPKDv3_hj
_Z21rsSetElementAt_uchar313rs_allocationPKDv3_hjj
_Z21rsSetElementAt_uchar313rs_allocationPKDv3_hjjj
_Z21rsSetElementAt_uchar413rs_allocationPKDv4_hj
_Z21rsSetElementAt_uchar413rs_allocationPKDv4_hjj
_Z21rsSetElementAt_uchar413rs_allocationPKDv4_hjjj
_Z21rsSetElementAt_ulong213rs_allocationPKDv2_mj
_Z21rsSetElementAt_ulong213rs_allocationPKDv2_mjj
_Z21rsSetElementAt_ulong213rs_allocationPKDv2_mjjj
_Z21rsSetElementAt_ulong313rs_allocationPKDv3_mj
_Z21rsSetElementAt_ulong313rs_allocationPKDv3_mjj
_Z21rsSetElementAt_ulong313rs_allocationPKDv3_mjjj
_Z21rsSetElementAt_ulong413rs_allocationPKDv4_mj
_Z21rsSetElementAt_ulong413rs_allocationPKDv4_mjj
_Z21rsSetElementAt_ulong413rs_allocationPKDv4_mjjj
_Z21rsSetElementAt_ushort13rs_allocationPKtj
_Z21rsSetElementAt_ushort13rs_allocationPKtjj
_Z21rsSetElementAt_ushort13rs_allocationPKtjjj
_Z21rsdAllocationUnlock1DPKN7android12renderscript7ContextEPKNS0_10AllocationE
_Z21rsdFrameBufferDestroyPKN7android12renderscript7ContextEPKNS0_8FBOCacheE
_Z21rsdScriptGetGlobalVarPKN7android12renderscript7ContextEPKNS0_6ScriptEjPvm
_Z21rsdScriptGroupDestroyPKN7android12renderscript7ContextEPKNS0_15ScriptGroupBaseE
_Z21rsdScriptGroupExecutePKN7android12renderscript7ContextEPKNS0_15ScriptGroupBaseE
_Z21rsdScriptInvokeReducePKN7android12renderscript7ContextEPNS0_6ScriptEjPPKNS0_10AllocationEmPS6_PK12RsScriptCall
_Z21rsdScriptSetGlobalObjPKN7android12renderscript7ContextEPKNS0_6ScriptEjPNS0_10ObjectBaseE
_Z21rsdScriptSetGlobalVarPKN7android12renderscript7ContextEPKNS0_6ScriptEjPvm
_Z22rsGetElementAt_double213rs_allocationPDv2_dj
_Z22rsGetElementAt_double213rs_allocationPDv2_djj
_Z22rsGetElementAt_double213rs_allocationPDv2_djjj
_Z22rsGetElementAt_double313rs_allocationPDv3_dj
_Z22rsGetElementAt_double313rs_allocationPDv3_djj
_Z22rsGetElementAt_double313rs_allocationPDv3_djjj
_Z22rsGetElementAt_double413rs_allocationPDv4_dj
_Z22rsGetElementAt_double413rs_allocationPDv4_djj
_Z22rsGetElementAt_double413rs_allocationPDv4_djjj
_Z22rsGetElementAt_ushort213rs_allocationPDv2_tj
_Z22rsGetElementAt_ushort213rs_allocationPDv2_tjj
_Z22rsGetElementAt_ushort213rs_allocationPDv2_tjjj
_Z22rsGetElementAt_ushort313rs_allocationPDv3_tj
_Z22rsGetElementAt_ushort313rs_allocationPDv3_tjj
_Z22rsGetElementAt_ushort313rs_allocationPDv3_tjjj
_Z22rsGetElementAt_ushort413rs_allocationPDv4_tj
_Z22rsGetElementAt_ushort413rs_allocationPDv4_tjj
_Z22rsGetElementAt_ushort413rs_allocationPDv4_tjjj
_Z22rsSendToClientBlockingi
_Z22rsSendToClientBlockingiPKvj
_Z22rsSetElementAt_double213rs_allocationPKDv2_dj
_Z22rsSetElementAt_double213rs_allocationPKDv2_djj
_Z22rsSetElementAt_double213rs_allocationPKDv2_djjj
_Z22rsSetElementAt_double313rs_allocationPKDv3_dj
_Z22rsSetElementAt_double313rs_allocationPKDv3_djj
_Z22rsSetElementAt_double313rs_allocationPKDv3_djjj
_Z22rsSetElementAt_double413rs_allocationPKDv4_dj
_Z22rsSetElementAt_double413rs_allocationPKDv4_djj
_Z22rsSetElementAt_double413rs_allocationPKDv4_djjj
_Z22rsSetElementAt_ushort213rs_allocationPKDv2_tj
_Z22rsSetElementAt_ushort213rs_allocationPKDv2_tjj
_Z22rsSetElementAt_ushort213rs_allocationPKDv2_tjjj
_Z22rsSetElementAt_ushort313rs_allocationPKDv3_tj
_Z22rsSetElementAt_ushort313rs_allocationPKDv3_tjj
_Z22rsSetElementAt_ushort313rs_allocationPKDv3_tjjj
_Z22rsSetElementAt_ushort413rs_allocationPKDv4_tj
_Z22rsSetElementAt_ushort413rs_allocationPKDv4_tjj
_Z22rsSetElementAt_ushort413rs_allocationPKDv4_tjjj
_Z22rsdAllocationIoReceivePKN7android12renderscript7ContextEPNS0_10AllocationE
_Z22rsdAllocationMarkDirtyPKN7android12renderscript7ContextEPKNS0_10AllocationE
_Z22rsdGLDrawQuadTexCoordsPKN7android12renderscript7ContextEffffffffffffffffffff
_Z22rsdProgramFragmentInitPKN7android12renderscript7ContextEPKNS0_15ProgramFragmentEPKcmPS8_mPKm
_Z22rsdProgramStoreDestroyPKN7android12renderscript7ContextEPKNS0_12ProgramStoreE
_Z22rsdScriptGroupSetInputPKN7android12renderscript7ContextEPKNS0_11ScriptGroupEPKNS0_14ScriptKernelIDEPNS0_10AllocationE
_Z22rsdScriptInvokeForEachPKN7android12renderscript7ContextEPNS0_6ScriptEjPKNS0_10AllocationEPS6_PKvmPK12RsScriptCall
_Z22rsdScriptSetGlobalBindPKN7android12renderscript7ContextEPKNS0_6ScriptEjPNS0_10AllocationE
_Z22rsgBindProgramFragment19rs_program_fragment
_Z23rsAllocationCopy1DRange13rs_allocationjjjS_jj
_Z23rsAllocationCopy2DRange13rs_allocationjjj26rs_allocation_cubemap_facejjS_jjjS0_
_Z23rsdAllocationSetSurfacePKN7android12renderscript7ContextEPNS0_10AllocationEP13ANativeWindow
_Z23rsdFrameBufferSetActivePKN7android12renderscript7ContextEPKNS0_8FBOCacheE
_Z23rsdGLSetInternalSurfacePKN7android12renderscript7ContextEPv
_Z23rsdProgramRasterDestroyPKN7android12renderscript7ContextEPKNS0_13ProgramRasterE
_Z23rsdProgramVertexDestroyPKN7android12renderscript7ContextEPKNS0_13ProgramVertexE
_Z23rsdScriptGroupSetOutputPKN7android12renderscript7ContextEPKNS0_11ScriptGroupEPKNS0_14ScriptKernelIDEPNS0_10AllocationE
_Z23rsdScriptInvokeFunctionPKN7android12renderscript7ContextEPNS0_6ScriptEjPKvm
_Z24rsdAllocationAdapterInitPKN7android12renderscript7ContextEPNS0_10AllocationE
_Z24rsdAllocationElementDataPKN7android12renderscript7ContextEPKNS0_10AllocationEjjjPKvjm
_Z24rsdAllocationElementReadPKN7android12renderscript7ContextEPKNS0_10AllocationEjjjPvjm
_Z24rsdAllocationGrallocBitsPKN7android12renderscript7ContextEPNS0_10AllocationE
_Z24rsdAllocationInitStridedPKN7android12renderscript7ContextEPNS0_10AllocationEbm
_Z24rsdProgramStoreSetActivePKN7android12renderscript7ContextEPKNS0_12ProgramStoreE
_Z24rsgClearAllRenderTargetsv
_Z24rsgDrawSpriteScreenspacefffff
_Z25rsdAllocationData1D_allocPKN7android12renderscript7ContextEPKNS0_10AllocationEjjmS6_jj
_Z25rsdAllocationData2D_allocPKN7android12renderscript7ContextEPKNS0_10AllocationEjjj23RsAllocationCubemapFacejjS6_jjjS7_
_Z25rsdAllocationData3D_allocPKN7android12renderscript7ContextEPKNS0_10AllocationEjjjjjjjS6_jjjj
_Z25rsdProgramFragmentDestroyPKN7android12renderscript7ContextEPKNS0_15ProgramFragmentE
_Z25rsdProgramRasterSetActivePKN7android12renderscript7ContextEPKNS0_13ProgramRasterE
_Z25rsdProgramVertexSetActivePKN7android12renderscript7ContextEPKNS0_13ProgramVertexE
_Z25rsdTypeUpdateCachedObjectPKN7android12renderscript7ContextEPKNS0_4TypeEPNS0_7rs_typeE
_Z25rsgMeshComputeBoundingBox7rs_meshPfS0_S0_S0_S0_S0_
_Z26rsdAllocationAdapterOffsetPKN7android12renderscript7ContextEPKNS0_10AllocationE
_Z27rsdProgramFragmentSetActivePKN7android12renderscript7ContextEPKNS0_15ProgramFragmentE
_Z27rsdScriptInvokeForEachMultiPKN7android12renderscript7ContextEPNS0_6ScriptEjPPKNS0_10AllocationEmPS6_PKvmPK12RsScriptCall
_Z27rsdScriptInvokeFreeChildrenPKN7android12renderscript7ContextEPNS0_6ScriptE
_Z27rsdScriptUpdateCachedObjectPKN7android12renderscript7ContextEPKNS0_6ScriptEPNS0_9rs_scriptE
_Z28rsdAllocationGenerateMipmapsPKN7android12renderscript7ContextEPKNS0_10AllocationE
_Z28rsdElementUpdateCachedObjectPKN7android12renderscript7ContextEPKNS0_7ElementEPNS0_10rs_elementE
_Z28rsdSamplerUpdateCachedObjectPKN7android12renderscript7ContextEPKNS0_7SamplerEPNS0_10rs_samplerE
_Z31rsdAllocationUpdateCachedObjectPKN7android12renderscript7ContextEPKNS0_10AllocationEPNS0_13rs_allocationE
_Z31rsgProgramFragmentConstantColor19rs_program_fragmentffff
_Z31rsgProgramVertexLoadModelMatrixPK12rs_matrix4x4
_Z32rsdAllocationData2D_alloc_scriptPKN7android12renderscript7ContextEPKNS0_10AllocationEjjj23RsAllocationCubemapFacejjS6_jjjS7_
_Z32rsdAllocationData3D_alloc_scriptPKN7android12renderscript7ContextEPKNS0_10AllocationEjjjjjjjS6_jjjj
_Z32rsdScriptGetAllocationForPointerPKN7android12renderscript7ContextEPKNS0_6ScriptEPKv
_Z32rsdScriptGroupUpdateCachedObjectPKN7android12renderscript7ContextEPKNS0_11ScriptGroupEPNS0_15rs_script_groupE
_Z33rsdScriptSetGlobalVarWithElemDimsPKN7android12renderscript7ContextEPKNS0_6ScriptEjPvmPKNS0_7ElementEPKjm
_Z33rsgProgramVertexLoadTextureMatrixPK12rs_matrix4x4
_Z35rsgProgramVertexGetProjectionMatrixP12rs_matrix4x4
_Z36rsgProgramVertexLoadProjectionMatrixPK12rs_matrix4x4
_Z5colorffff
_Z6rsTimePl
_Z7rsDebugPKcDv2_l
_Z7rsDebugPKcDv2_m
_Z7rsDebugPKcDv3_l
_Z7rsDebugPKcDv3_m
_Z7rsDebugPKcDv4_l
_Z7rsDebugPKcDv4_m
_Z7rsDebugPKcPK12rs_matrix2x2
_Z7rsDebugPKcPK12rs_matrix3x3
_Z7rsDebugPKcPK12rs_matrix4x4
_Z7rsDebugPKcPKDv2_c
_Z7rsDebugPKcPKDv2_d
_Z7rsDebugPKcPKDv2_f
_Z7rsDebugPKcPKDv2_fPKDv2_t
_Z7rsDebugPKcPKDv2_h
_Z7rsDebugPKcPKDv2_i
_Z7rsDebugPKcPKDv2_j
_Z7rsDebugPKcPKDv2_l
_Z7rsDebugPKcPKDv2_m
_Z7rsDebugPKcPKDv2_s
_Z7rsDebugPKcPKDv2_t
_Z7rsDebugPKcPKDv3_c
_Z7rsDebugPKcPKDv3_d
_Z7rsDebugPKcPKDv3_f
_Z7rsDebugPKcPKDv3_fPKDv3_t
_Z7rsDebugPKcPKDv3_h
_Z7rsDebugPKcPKDv3_i
_Z7rsDebugPKcPKDv3_j
_Z7rsDebugPKcPKDv3_l
_Z7rsDebugPKcPKDv3_m
_Z7rsDebugPKcPKDv3_s
_Z7rsDebugPKcPKDv3_t
_Z7rsDebugPKcPKDv4_c
_Z7rsDebugPKcPKDv4_d
_Z7rsDebugPKcPKDv4_f
_Z7rsDebugPKcPKDv4_fPKDv4_t
_Z7rsDebugPKcPKDv4_h
_Z7rsDebugPKcPKDv4_i
_Z7rsDebugPKcPKDv4_j
_Z7rsDebugPKcPKDv4_l
_Z7rsDebugPKcPKDv4_m
_Z7rsDebugPKcPKDv4_s
_Z7rsDebugPKcPKDv4_t
_Z7rsDebugPKcPKv
_Z7rsDebugPKcc
_Z7rsDebugPKcd
_Z7rsDebugPKcf
_Z7rsDebugPKcff
_Z7rsDebugPKcfff
_Z7rsDebugPKcffff
_Z7rsDebugPKcft
_Z7rsDebugPKch
_Z7rsDebugPKci
_Z7rsDebugPKcj
_Z7rsDebugPKcl
_Z7rsDebugPKcm
_Z7rsDebugPKcs
_Z7rsDebugPKct
_Z7rsDebugPKcx
_Z7rsDebugPKcy
_Z7rsGetDtv
_Z9rsForEach9rs_script13rs_allocationS0_
_Z9rsForEach9rs_script13rs_allocationS0_PKv
_Z9rsForEach9rs_script13rs_allocationS0_PKvPK14rs_script_call
_Z9rsdGLInitPKN7android12renderscript7ContextE
_Z9rsdGLSwapPKN7android12renderscript7ContextE
_Z9rsgFinishv
_ZN10RsdMeshObj18isValidGLComponentEPKN7android12renderscript7ElementEj
_ZN10RsdMeshObj18updateGLPrimitivesEPKN7android12renderscript7ContextE
_ZN10RsdMeshObj4initEPKN7android12renderscript7ContextE
_ZN10RsdMeshObjC1EPKN7android12renderscript7ContextEPKNS1_4MeshE
_ZN10RsdMeshObjC2EPKN7android12renderscript7ContextEPKNS1_4MeshE
_ZN10RsdMeshObjD1Ev
_ZN10RsdMeshObjD2Ev
_ZN14RsdShaderCache10cleanupAllEv
_ZN14RsdShaderCache13cleanupVertexEP9RsdShader
_ZN14RsdShaderCache15cleanupFragmentEP9RsdShader
_ZN14RsdShaderCache16hasArrayUniformsEP9RsdShaderS1_
_ZN14RsdShaderCache19populateUniformDataEP9RsdShaderjPNS_11UniformDataE
_ZN14RsdShaderCache22updateUniformArrayDataEPKN7android12renderscript7ContextEP9RsdShaderjPNS_11UniformDataEPKcPPNS_16UniformQueryDataEj
_ZN14RsdShaderCache4linkEPKN7android12renderscript7ContextE
_ZN14RsdShaderCache5setupEPKN7android12renderscript7ContextE
_ZN14RsdShaderCacheC1Ev
_ZN14RsdShaderCacheC2Ev
_ZN14RsdShaderCacheD0Ev
_ZN14RsdShaderCacheD1Ev
_ZN14RsdShaderCacheD2Ev
_ZN14RsdVertexArray6Attrib3setEjjjbmPKc
_ZN14RsdVertexArray6Attrib5clearEv
_ZN14RsdVertexArray6AttribC1Ev
_ZN14RsdVertexArray6AttribC2Ev
_ZN14RsdVertexArrayC1EPKNS_6AttribEj
_ZN14RsdVertexArrayC2EPKNS_6AttribEj
_ZN14RsdVertexArrayD0Ev
_ZN14RsdVertexArrayD1Ev
_ZN14RsdVertexArrayD2Ev
_ZN17RsdFrameBufferObj10checkErrorEPKN7android12renderscript7ContextE
_ZN17RsdFrameBufferObj18setColorAttachmentEv
_ZN17RsdFrameBufferObj18setDepthAttachmentEv
_ZN17RsdFrameBufferObj19renderToFramebufferEv
_ZN17RsdFrameBufferObj9setActiveEPKN7android12renderscript7ContextE
_ZN17RsdFrameBufferObjC1Ev
_ZN17RsdFrameBufferObjC2Ev
_ZN17RsdFrameBufferObjD1Ev
_ZN17RsdFrameBufferObjD2Ev
_ZN19RsdVertexArrayState4initEj
_ZN19RsdVertexArrayStateC1Ev
_ZN19RsdVertexArrayStateC2Ev
_ZN19RsdVertexArrayStateD1Ev
_ZN19RsdVertexArrayStateD2Ev
_ZN9RsdShader10loadShaderEPKN7android12renderscript7ContextE
_ZN9RsdShader10logUniformEPKN7android12renderscript7ElementEPKfj
_ZN9RsdShader10setUniformEPKN7android12renderscript7ContextEPKNS1_7ElementEPKfij
_ZN9RsdShader12createShaderEv
_ZN9RsdShader12setupSamplerEPKN7android12renderscript7ContextEPKNS1_7SamplerEPKNS1_10AllocationE
_ZN9RsdShader13setupTexturesEPKN7android12renderscript7ContextEP14RsdShaderCache
_ZN9RsdShader14appendTexturesEv
_ZN9RsdShader14initMemberVarsEv
_ZN9RsdShader16appendAttributesEv
_ZN9RsdShader16getExistingStateEv
_ZN9RsdShader18initAddUserElementEPKN7android12renderscript7ElementEPNSt3__112basic_stringIcNS5_11char_traitsIcEENS5_9allocatorIcEEEEPjSD_PKc
_ZN9RsdShader18setupUserConstantsEPKN7android12renderscript7ContextEP14RsdShaderCacheb
_ZN9RsdShader19appendUserConstantsEv
_ZN9RsdShader21getStateBasedShaderIDEPKN7android12renderscript7ContextE
_ZN9RsdShader25initAttribAndUniformArrayEv
_ZN9RsdShader4initEPPKcmPKm
_ZN9RsdShader5setupEPKN7android12renderscript7ContextEP14RsdShaderCache
_ZN9RsdShaderC1EPKN7android12renderscript7ProgramEjPKcmPS6_mPKm
_ZN9RsdShaderC2EPKN7android12renderscript7ProgramEjPKcmPS6_mPKm
_ZN9RsdShaderD0Ev
_ZN9RsdShaderD1Ev
_ZN9RsdShaderD2Ev
_ZNK10RsdMeshObj20renderPrimitiveRangeEPKN7android12renderscript7ContextEjmj
_ZNK14RsdShaderCache13vtxAttribSlotERKNSt3__112basic_stringIcNS0_11char_traitsIcEENS0_9allocatorIcEEEE
_ZNK14RsdVertexArray5setupEPKN7android12renderscript7ContextE
_ZNK14RsdVertexArray9logAttribEjj
_ZNK9RsdShader18getGLSLInputStringEv
_ZTV14RsdShaderCache
_ZTV14RsdVertexArray
_ZTV9RsdShader
rsdHalAbort
rsdHalInit
rsdHalQueryHal
rsdHalQueryVersion
