_ZN7android8hardware5audio4V4_010BnHwDevice10onTransactEjRKNS0_6ParcelEPS4_jNSt3__18functionIFvRS4_EEE
_ZN7android8hardware5audio4V4_010BnHwDevice12getDebugInfoENSt3__18functionIFvRKNS_4hidl4base4V1_09DebugInfoEEEE
_ZN7android8hardware5audio4V4_010BnHwDevice15_hidl_initCheckEPNS_4hidl4base4V1_08BnHwBaseERKNS0_6ParcelEPS9_NSt3__18functionIFvRS9_EEE
_ZN7android8hardware5audio4V4_010BnHwDevice16_hidl_getMicMuteEPNS_4hidl4base4V1_08BnHwBaseERKNS0_6ParcelEPS9_NSt3__18functionIFvRS9_EEE
_ZN7android8hardware5audio4V4_010BnHwDevice16_hidl_setMicMuteEPNS_4hidl4base4V1_08BnHwBaseERKNS0_6ParcelEPS9_NSt3__18functionIFvRS9_EEE
_ZN7android8hardware5audio4V4_010BnHwDevice17_hidl_getHwAvSyncEPNS_4hidl4base4V1_08BnHwBaseERKNS0_6ParcelEPS9_NSt3__18functionIFvRS9_EEE
_ZN7android8hardware5audio4V4_010BnHwDevice18_hidl_getAudioPortEPNS_4hidl4base4V1_08BnHwBaseERKNS0_6ParcelEPS9_NSt3__18functionIFvRS9_EEE
_ZN7android8hardware5audio4V4_010BnHwDevice19_hidl_getMasterMuteEPNS_4hidl4base4V1_08BnHwBaseERKNS0_6ParcelEPS9_NSt3__18functionIFvRS9_EEE
_ZN7android8hardware5audio4V4_010BnHwDevice19_hidl_getParametersEPNS_4hidl4base4V1_08BnHwBaseERKNS0_6ParcelEPS9_NSt3__18functionIFvRS9_EEE
_ZN7android8hardware5audio4V4_010BnHwDevice19_hidl_setMasterMuteEPNS_4hidl4base4V1_08BnHwBaseERKNS0_6ParcelEPS9_NSt3__18functionIFvRS9_EEE
_ZN7android8hardware5audio4V4_010BnHwDevice19_hidl_setParametersEPNS_4hidl4base4V1_08BnHwBaseERKNS0_6ParcelEPS9_NSt3__18functionIFvRS9_EEE
_ZN7android8hardware5audio4V4_010BnHwDevice20_hidl_getMicrophonesEPNS_4hidl4base4V1_08BnHwBaseERKNS0_6ParcelEPS9_NSt3__18functionIFvRS9_EEE
_ZN7android8hardware5audio4V4_010BnHwDevice20_hidl_setScreenStateEPNS_4hidl4base4V1_08BnHwBaseERKNS0_6ParcelEPS9_NSt3__18functionIFvRS9_EEE
_ZN7android8hardware5audio4V4_010BnHwDevice21_hidl_getMasterVolumeEPNS_4hidl4base4V1_08BnHwBaseERKNS0_6ParcelEPS9_NSt3__18functionIFvRS9_EEE
_ZN7android8hardware5audio4V4_010BnHwDevice21_hidl_openInputStreamEPNS_4hidl4base4V1_08BnHwBaseERKNS0_6ParcelEPS9_NSt3__18functionIFvRS9_EEE
_ZN7android8hardware5audio4V4_010BnHwDevice21_hidl_setMasterVolumeEPNS_4hidl4base4V1_08BnHwBaseERKNS0_6ParcelEPS9_NSt3__18functionIFvRS9_EEE
_ZN7android8hardware5audio4V4_010BnHwDevice22_hidl_createAudioPatchEPNS_4hidl4base4V1_08BnHwBaseERKNS0_6ParcelEPS9_NSt3__18functionIFvRS9_EEE
_ZN7android8hardware5audio4V4_010BnHwDevice22_hidl_openOutputStreamEPNS_4hidl4base4V1_08BnHwBaseERKNS0_6ParcelEPS9_NSt3__18functionIFvRS9_EEE
_ZN7android8hardware5audio4V4_010BnHwDevice23_hidl_releaseAudioPatchEPNS_4hidl4base4V1_08BnHwBaseERKNS0_6ParcelEPS9_NSt3__18functionIFvRS9_EEE
_ZN7android8hardware5audio4V4_010BnHwDevice23_hidl_setConnectedStateEPNS_4hidl4base4V1_08BnHwBaseERKNS0_6ParcelEPS9_NSt3__18functionIFvRS9_EEE
_ZN7android8hardware5audio4V4_010BnHwDevice24_hidl_getInputBufferSizeEPNS_4hidl4base4V1_08BnHwBaseERKNS0_6ParcelEPS9_NSt3__18functionIFvRS9_EEE
_ZN7android8hardware5audio4V4_010BnHwDevice24_hidl_setAudioPortConfigEPNS_4hidl4base4V1_08BnHwBaseERKNS0_6ParcelEPS9_NSt3__18functionIFvRS9_EEE
_ZN7android8hardware5audio4V4_010BnHwDevice26_hidl_supportsAudioPatchesEPNS_4hidl4base4V1_08BnHwBaseERKNS0_6ParcelEPS9_NSt3__18functionIFvRS9_EEE
_ZN7android8hardware5audio4V4_010BnHwDevice4pingEv
_ZN7android8hardware5audio4V4_010BnHwDeviceC1ERKNS_2spINS2_7IDeviceEEE
_ZN7android8hardware5audio4V4_010BnHwDeviceC2ERKNS_2spINS2_7IDeviceEEE
_ZN7android8hardware5audio4V4_010BnHwDeviceD0Ev
_ZN7android8hardware5audio4V4_010BnHwDeviceD1Ev
_ZN7android8hardware5audio4V4_010BnHwDeviceD2Ev
_ZN7android8hardware5audio4V4_010BnHwStream10_hidl_stopEPNS_4hidl4base4V1_08BnHwBaseERKNS0_6ParcelEPS9_NSt3__18functionIFvRS9_EEE
_ZN7android8hardware5audio4V4_010BnHwStream10onTransactEjRKNS0_6ParcelEPS4_jNSt3__18functionIFvRS4_EEE
_ZN7android8hardware5audio4V4_010BnHwStream11_hidl_closeEPNS_4hidl4base4V1_08BnHwBaseERKNS0_6ParcelEPS9_NSt3__18functionIFvRS9_EEE
_ZN7android8hardware5audio4V4_010BnHwStream11_hidl_startEPNS_4hidl4base4V1_08BnHwBaseERKNS0_6ParcelEPS9_NSt3__18functionIFvRS9_EEE
_ZN7android8hardware5audio4V4_010BnHwStream12getDebugInfoENSt3__18functionIFvRKNS_4hidl4base4V1_09DebugInfoEEEE
_ZN7android8hardware5audio4V4_010BnHwStream13_hidl_standbyEPNS_4hidl4base4V1_08BnHwBaseERKNS0_6ParcelEPS9_NSt3__18functionIFvRS9_EEE
_ZN7android8hardware5audio4V4_010BnHwStream15_hidl_addEffectEPNS_4hidl4base4V1_08BnHwBaseERKNS0_6ParcelEPS9_NSt3__18functionIFvRS9_EEE
_ZN7android8hardware5audio4V4_010BnHwStream15_hidl_getFormatEPNS_4hidl4base4V1_08BnHwBaseERKNS0_6ParcelEPS9_NSt3__18functionIFvRS9_EEE
_ZN7android8hardware5audio4V4_010BnHwStream15_hidl_setFormatEPNS_4hidl4base4V1_08BnHwBaseERKNS0_6ParcelEPS9_NSt3__18functionIFvRS9_EEE
_ZN7android8hardware5audio4V4_010BnHwStream16_hidl_getDevicesEPNS_4hidl4base4V1_08BnHwBaseERKNS0_6ParcelEPS9_NSt3__18functionIFvRS9_EEE
_ZN7android8hardware5audio4V4_010BnHwStream16_hidl_setDevicesEPNS_4hidl4base4V1_08BnHwBaseERKNS0_6ParcelEPS9_NSt3__18functionIFvRS9_EEE
_ZN7android8hardware5audio4V4_010BnHwStream17_hidl_setHwAvSyncEPNS_4hidl4base4V1_08BnHwBaseERKNS0_6ParcelEPS9_NSt3__18functionIFvRS9_EEE
_ZN7android8hardware5audio4V4_010BnHwStream18_hidl_getFrameSizeEPNS_4hidl4base4V1_08BnHwBaseERKNS0_6ParcelEPS9_NSt3__18functionIFvRS9_EEE
_ZN7android8hardware5audio4V4_010BnHwStream18_hidl_removeEffectEPNS_4hidl4base4V1_08BnHwBaseERKNS0_6ParcelEPS9_NSt3__18functionIFvRS9_EEE
_ZN7android8hardware5audio4V4_010BnHwStream19_hidl_getBufferSizeEPNS_4hidl4base4V1_08BnHwBaseERKNS0_6ParcelEPS9_NSt3__18functionIFvRS9_EEE
_ZN7android8hardware5audio4V4_010BnHwStream19_hidl_getFrameCountEPNS_4hidl4base4V1_08BnHwBaseERKNS0_6ParcelEPS9_NSt3__18functionIFvRS9_EEE
_ZN7android8hardware5audio4V4_010BnHwStream19_hidl_getParametersEPNS_4hidl4base4V1_08BnHwBaseERKNS0_6ParcelEPS9_NSt3__18functionIFvRS9_EEE
_ZN7android8hardware5audio4V4_010BnHwStream19_hidl_getSampleRateEPNS_4hidl4base4V1_08BnHwBaseERKNS0_6ParcelEPS9_NSt3__18functionIFvRS9_EEE
_ZN7android8hardware5audio4V4_010BnHwStream19_hidl_setParametersEPNS_4hidl4base4V1_08BnHwBaseERKNS0_6ParcelEPS9_NSt3__18functionIFvRS9_EEE
_ZN7android8hardware5audio4V4_010BnHwStream19_hidl_setSampleRateEPNS_4hidl4base4V1_08BnHwBaseERKNS0_6ParcelEPS9_NSt3__18functionIFvRS9_EEE
_ZN7android8hardware5audio4V4_010BnHwStream20_hidl_getChannelMaskEPNS_4hidl4base4V1_08BnHwBaseERKNS0_6ParcelEPS9_NSt3__18functionIFvRS9_EEE
_ZN7android8hardware5audio4V4_010BnHwStream20_hidl_setChannelMaskEPNS_4hidl4base4V1_08BnHwBaseERKNS0_6ParcelEPS9_NSt3__18functionIFvRS9_EEE
_ZN7android8hardware5audio4V4_010BnHwStream21_hidl_getMmapPositionEPNS_4hidl4base4V1_08BnHwBaseERKNS0_6ParcelEPS9_NSt3__18functionIFvRS9_EEE
_ZN7android8hardware5audio4V4_010BnHwStream22_hidl_createMmapBufferEPNS_4hidl4base4V1_08BnHwBaseERKNS0_6ParcelEPS9_NSt3__18functionIFvRS9_EEE
_ZN7android8hardware5audio4V4_010BnHwStream24_hidl_getAudioPropertiesEPNS_4hidl4base4V1_08BnHwBaseERKNS0_6ParcelEPS9_NSt3__18functionIFvRS9_EEE
_ZN7android8hardware5audio4V4_010BnHwStream25_hidl_getSupportedFormatsEPNS_4hidl4base4V1_08BnHwBaseERKNS0_6ParcelEPS9_NSt3__18functionIFvRS9_EEE
_ZN7android8hardware5audio4V4_010BnHwStream29_hidl_getSupportedSampleRatesEPNS_4hidl4base4V1_08BnHwBaseERKNS0_6ParcelEPS9_NSt3__18functionIFvRS9_EEE
_ZN7android8hardware5audio4V4_010BnHwStream30_hidl_getSupportedChannelMasksEPNS_4hidl4base4V1_08BnHwBaseERKNS0_6ParcelEPS9_NSt3__18functionIFvRS9_EEE
_ZN7android8hardware5audio4V4_010BnHwStream4pingEv
_ZN7android8hardware5audio4V4_010BnHwStreamC1ERKNS_2spINS2_7IStreamEEE
_ZN7android8hardware5audio4V4_010BnHwStreamC2ERKNS_2spINS2_7IStreamEEE
_ZN7android8hardware5audio4V4_010BnHwStreamD0Ev
_ZN7android8hardware5audio4V4_010BnHwStreamD1Ev
_ZN7android8hardware5audio4V4_010BnHwStreamD2Ev
_ZN7android8hardware5audio4V4_010BpHwDevice10getMicMuteENSt3__18functionIFvNS2_6ResultEbEEE
_ZN7android8hardware5audio4V4_010BpHwDevice10setMicMuteEb
_ZN7android8hardware5audio4V4_010BpHwDevice11getHwAvSyncENSt3__18functionIFvNS2_6ResultEjEEE
_ZN7android8hardware5audio4V4_010BpHwDevice11linkToDeathERKNS_2spINS0_20hidl_death_recipientEEEy
_ZN7android8hardware5audio4V4_010BpHwDevice12getAudioPortERKNS1_6common4V4_09AudioPortENSt3__18functionIFvNS2_6ResultES8_EEE
_ZN7android8hardware5audio4V4_010BpHwDevice12getDebugInfoENSt3__18functionIFvRKNS_4hidl4base4V1_09DebugInfoEEEE
_ZN7android8hardware5audio4V4_010BpHwDevice12getHashChainENSt3__18functionIFvRKNS0_8hidl_vecINS0_10hidl_arrayIhLj32EJEEEEEEEE
_ZN7android8hardware5audio4V4_010BpHwDevice13getMasterMuteENSt3__18functionIFvNS2_6ResultEbEEE
_ZN7android8hardware5audio4V4_010BpHwDevice13getParametersERKNS0_8hidl_vecINS2_14ParameterValueEEERKNS4_INS0_11hidl_stringEEENSt3__18functionIFvNS2_6ResultES8_EEE
_ZN7android8hardware5audio4V4_010BpHwDevice13setMasterMuteEb
_ZN7android8hardware5audio4V4_010BpHwDevice13setParametersERKNS0_8hidl_vecINS2_14ParameterValueEEES8_
_ZN7android8hardware5audio4V4_010BpHwDevice13unlinkToDeathERKNS_2spINS0_20hidl_death_recipientEEE
_ZN7android8hardware5audio4V4_010BpHwDevice14getMicrophonesENSt3__18functionIFvNS2_6ResultERKNS0_8hidl_vecINS2_14MicrophoneInfoEEEEEE
_ZN7android8hardware5audio4V4_010BpHwDevice14interfaceChainENSt3__18functionIFvRKNS0_8hidl_vecINS0_11hidl_stringEEEEEE
_ZN7android8hardware5audio4V4_010BpHwDevice14setScreenStateEb
_ZN7android8hardware5audio4V4_010BpHwDevice15_hidl_initCheckEPNS0_10IInterfaceEPNS0_7details16HidlInstrumentorE
_ZN7android8hardware5audio4V4_010BpHwDevice15getMasterVolumeENSt3__18functionIFvNS2_6ResultEfEEE
_ZN7android8hardware5audio4V4_010BpHwDevice15openInputStreamEiRKNS2_13DeviceAddressERKNS1_6common4V4_011AudioConfigEiRKNS2_12SinkMetadataENSt3__18functionIFvNS2_6ResultERKNS_2spINS2_9IStreamInEEESB_EEE
_ZN7android8hardware5audio4V4_010BpHwDevice15setMasterVolumeEf
_ZN7android8hardware5audio4V4_010BpHwDevice16_hidl_getMicMuteEPNS0_10IInterfaceEPNS0_7details16HidlInstrumentorENSt3__18functionIFvNS2_6ResultEbEEE
_ZN7android8hardware5audio4V4_010BpHwDevice16_hidl_setMicMuteEPNS0_10IInterfaceEPNS0_7details16HidlInstrumentorEb
_ZN7android8hardware5audio4V4_010BpHwDevice16createAudioPatchERKNS0_8hidl_vecINS1_6common4V4_015AudioPortConfigEEESA_NSt3__18functionIFvNS2_6ResultEiEEE
_ZN7android8hardware5audio4V4_010BpHwDevice16openOutputStreamEiRKNS2_13DeviceAddressERKNS1_6common4V4_011AudioConfigEiRKNS2_14SourceMetadataENSt3__18functionIFvNS2_6ResultERKNS_2spINS2_10IStreamOutEEESB_EEE
_ZN7android8hardware5audio4V4_010BpHwDevice17_hidl_getHwAvSyncEPNS0_10IInterfaceEPNS0_7details16HidlInstrumentorENSt3__18functionIFvNS2_6ResultEjEEE
_ZN7android8hardware5audio4V4_010BpHwDevice17releaseAudioPatchEi
_ZN7android8hardware5audio4V4_010BpHwDevice17setConnectedStateERKNS2_13DeviceAddressEb
_ZN7android8hardware5audio4V4_010BpHwDevice18_hidl_getAudioPortEPNS0_10IInterfaceEPNS0_7details16HidlInstrumentorERKNS1_6common4V4_09AudioPortENSt3__18functionIFvNS2_6ResultESD_EEE
_ZN7android8hardware5audio4V4_010BpHwDevice18getInputBufferSizeERKNS1_6common4V4_011AudioConfigENSt3__18functionIFvNS2_6ResultEyEEE
_ZN7android8hardware5audio4V4_010BpHwDevice18setAudioPortConfigERKNS1_6common4V4_015AudioPortConfigE
_ZN7android8hardware5audio4V4_010BpHwDevice19_hidl_getMasterMuteEPNS0_10IInterfaceEPNS0_7details16HidlInstrumentorENSt3__18functionIFvNS2_6ResultEbEEE
_ZN7android8hardware5audio4V4_010BpHwDevice19_hidl_getParametersEPNS0_10IInterfaceEPNS0_7details16HidlInstrumentorERKNS0_8hidl_vecINS2_14ParameterValueEEERKNS9_INS0_11hidl_stringEEENSt3__18functionIFvNS2_6ResultESD_EEE
_ZN7android8hardware5audio4V4_010BpHwDevice19_hidl_setMasterMuteEPNS0_10IInterfaceEPNS0_7details16HidlInstrumentorEb
_ZN7android8hardware5audio4V4_010BpHwDevice19_hidl_setParametersEPNS0_10IInterfaceEPNS0_7details16HidlInstrumentorERKNS0_8hidl_vecINS2_14ParameterValueEEESD_
_ZN7android8hardware5audio4V4_010BpHwDevice19interfaceDescriptorENSt3__18functionIFvRKNS0_11hidl_stringEEEE
_ZN7android8hardware5audio4V4_010BpHwDevice20_hidl_getMicrophonesEPNS0_10IInterfaceEPNS0_7details16HidlInstrumentorENSt3__18functionIFvNS2_6ResultERKNS0_8hidl_vecINS2_14MicrophoneInfoEEEEEE
_ZN7android8hardware5audio4V4_010BpHwDevice20_hidl_setScreenStateEPNS0_10IInterfaceEPNS0_7details16HidlInstrumentorEb
_ZN7android8hardware5audio4V4_010BpHwDevice20supportsAudioPatchesEv
_ZN7android8hardware5audio4V4_010BpHwDevice21_hidl_getMasterVolumeEPNS0_10IInterfaceEPNS0_7details16HidlInstrumentorENSt3__18functionIFvNS2_6ResultEfEEE
_ZN7android8hardware5audio4V4_010BpHwDevice21_hidl_openInputStreamEPNS0_10IInterfaceEPNS0_7details16HidlInstrumentorEiRKNS2_13DeviceAddressERKNS1_6common4V4_011AudioConfigEiRKNS2_12SinkMetadataENSt3__18functionIFvNS2_6ResultERKNS_2spINS2_9IStreamInEEESG_EEE
_ZN7android8hardware5audio4V4_010BpHwDevice21_hidl_setMasterVolumeEPNS0_10IInterfaceEPNS0_7details16HidlInstrumentorEf
_ZN7android8hardware5audio4V4_010BpHwDevice21notifySyspropsChangedEv
_ZN7android8hardware5audio4V4_010BpHwDevice21setHALInstrumentationEv
_ZN7android8hardware5audio4V4_010BpHwDevice22_hidl_createAudioPatchEPNS0_10IInterfaceEPNS0_7details16HidlInstrumentorERKNS0_8hidl_vecINS1_6common4V4_015AudioPortConfigEEESF_NSt3__18functionIFvNS2_6ResultEiEEE
_ZN7android8hardware5audio4V4_010BpHwDevice22_hidl_openOutputStreamEPNS0_10IInterfaceEPNS0_7details16HidlInstrumentorEiRKNS2_13DeviceAddressERKNS1_6common4V4_011AudioConfigEiRKNS2_14SourceMetadataENSt3__18functionIFvNS2_6ResultERKNS_2spINS2_10IStreamOutEEESG_EEE
_ZN7android8hardware5audio4V4_010BpHwDevice23_hidl_releaseAudioPatchEPNS0_10IInterfaceEPNS0_7details16HidlInstrumentorEi
_ZN7android8hardware5audio4V4_010BpHwDevice23_hidl_setConnectedStateEPNS0_10IInterfaceEPNS0_7details16HidlInstrumentorERKNS2_13DeviceAddressEb
_ZN7android8hardware5audio4V4_010BpHwDevice24_hidl_getInputBufferSizeEPNS0_10IInterfaceEPNS0_7details16HidlInstrumentorERKNS1_6common4V4_011AudioConfigENSt3__18functionIFvNS2_6ResultEyEEE
_ZN7android8hardware5audio4V4_010BpHwDevice24_hidl_setAudioPortConfigEPNS0_10IInterfaceEPNS0_7details16HidlInstrumentorERKNS1_6common4V4_015AudioPortConfigE
_ZN7android8hardware5audio4V4_010BpHwDevice26_hidl_supportsAudioPatchesEPNS0_10IInterfaceEPNS0_7details16HidlInstrumentorE
_ZN7android8hardware5audio4V4_010BpHwDevice4pingEv
_ZN7android8hardware5audio4V4_010BpHwDevice5debugERKNS0_11hidl_handleERKNS0_8hidl_vecINS0_11hidl_stringEEE
_ZN7android8hardware5audio4V4_010BpHwDevice9initCheckEv
_ZN7android8hardware5audio4V4_010BpHwDeviceC1ERKNS_2spINS0_7IBinderEEE
_ZN7android8hardware5audio4V4_010BpHwDeviceC2ERKNS_2spINS0_7IBinderEEE
_ZN7android8hardware5audio4V4_010BpHwStream10_hidl_stopEPNS0_10IInterfaceEPNS0_7details16HidlInstrumentorE
_ZN7android8hardware5audio4V4_010BpHwStream10getDevicesENSt3__18functionIFvNS2_6ResultERKNS0_8hidl_vecINS2_13DeviceAddressEEEEEE
_ZN7android8hardware5audio4V4_010BpHwStream10setDevicesERKNS0_8hidl_vecINS2_13DeviceAddressEEE
_ZN7android8hardware5audio4V4_010BpHwStream11_hidl_closeEPNS0_10IInterfaceEPNS0_7details16HidlInstrumentorE
_ZN7android8hardware5audio4V4_010BpHwStream11_hidl_startEPNS0_10IInterfaceEPNS0_7details16HidlInstrumentorE
_ZN7android8hardware5audio4V4_010BpHwStream11linkToDeathERKNS_2spINS0_20hidl_death_recipientEEEy
_ZN7android8hardware5audio4V4_010BpHwStream11setHwAvSyncEj
_ZN7android8hardware5audio4V4_010BpHwStream12getDebugInfoENSt3__18functionIFvRKNS_4hidl4base4V1_09DebugInfoEEEE
_ZN7android8hardware5audio4V4_010BpHwStream12getFrameSizeEv
_ZN7android8hardware5audio4V4_010BpHwStream12getHashChainENSt3__18functionIFvRKNS0_8hidl_vecINS0_10hidl_arrayIhLj32EJEEEEEEEE
_ZN7android8hardware5audio4V4_010BpHwStream12removeEffectEy
_ZN7android8hardware5audio4V4_010BpHwStream13_hidl_standbyEPNS0_10IInterfaceEPNS0_7details16HidlInstrumentorE
_ZN7android8hardware5audio4V4_010BpHwStream13getBufferSizeEv
_ZN7android8hardware5audio4V4_010BpHwStream13getFrameCountEv
_ZN7android8hardware5audio4V4_010BpHwStream13getParametersERKNS0_8hidl_vecINS2_14ParameterValueEEERKNS4_INS0_11hidl_stringEEENSt3__18functionIFvNS2_6ResultES8_EEE
_ZN7android8hardware5audio4V4_010BpHwStream13getSampleRateEv
_ZN7android8hardware5audio4V4_010BpHwStream13setParametersERKNS0_8hidl_vecINS2_14ParameterValueEEES8_
_ZN7android8hardware5audio4V4_010BpHwStream13setSampleRateEj
_ZN7android8hardware5audio4V4_010BpHwStream13unlinkToDeathERKNS_2spINS0_20hidl_death_recipientEEE
_ZN7android8hardware5audio4V4_010BpHwStream14getChannelMaskEv
_ZN7android8hardware5audio4V4_010BpHwStream14interfaceChainENSt3__18functionIFvRKNS0_8hidl_vecINS0_11hidl_stringEEEEEE
_ZN7android8hardware5audio4V4_010BpHwStream14setChannelMaskEj
_ZN7android8hardware5audio4V4_010BpHwStream15_hidl_addEffectEPNS0_10IInterfaceEPNS0_7details16HidlInstrumentorEy
_ZN7android8hardware5audio4V4_010BpHwStream15_hidl_getFormatEPNS0_10IInterfaceEPNS0_7details16HidlInstrumentorE
_ZN7android8hardware5audio4V4_010BpHwStream15_hidl_setFormatEPNS0_10IInterfaceEPNS0_7details16HidlInstrumentorENS1_6common4V4_011AudioFormatE
_ZN7android8hardware5audio4V4_010BpHwStream15getMmapPositionENSt3__18functionIFvNS2_6ResultERKNS2_12MmapPositionEEEE
_ZN7android8hardware5audio4V4_010BpHwStream16_hidl_getDevicesEPNS0_10IInterfaceEPNS0_7details16HidlInstrumentorENSt3__18functionIFvNS2_6ResultERKNS0_8hidl_vecINS2_13DeviceAddressEEEEEE
_ZN7android8hardware5audio4V4_010BpHwStream16_hidl_setDevicesEPNS0_10IInterfaceEPNS0_7details16HidlInstrumentorERKNS0_8hidl_vecINS2_13DeviceAddressEEE
_ZN7android8hardware5audio4V4_010BpHwStream16createMmapBufferEiNSt3__18functionIFvNS2_6ResultERKNS2_14MmapBufferInfoEEEE
_ZN7android8hardware5audio4V4_010BpHwStream17_hidl_setHwAvSyncEPNS0_10IInterfaceEPNS0_7details16HidlInstrumentorEj
_ZN7android8hardware5audio4V4_010BpHwStream18_hidl_getFrameSizeEPNS0_10IInterfaceEPNS0_7details16HidlInstrumentorE
_ZN7android8hardware5audio4V4_010BpHwStream18_hidl_removeEffectEPNS0_10IInterfaceEPNS0_7details16HidlInstrumentorEy
_ZN7android8hardware5audio4V4_010BpHwStream18getAudioPropertiesENSt3__18functionIFvjjNS1_6common4V4_011AudioFormatEEEE
_ZN7android8hardware5audio4V4_010BpHwStream19_hidl_getBufferSizeEPNS0_10IInterfaceEPNS0_7details16HidlInstrumentorE
_ZN7android8hardware5audio4V4_010BpHwStream19_hidl_getFrameCountEPNS0_10IInterfaceEPNS0_7details16HidlInstrumentorE
_ZN7android8hardware5audio4V4_010BpHwStream19_hidl_getParametersEPNS0_10IInterfaceEPNS0_7details16HidlInstrumentorERKNS0_8hidl_vecINS2_14ParameterValueEEERKNS9_INS0_11hidl_stringEEENSt3__18functionIFvNS2_6ResultESD_EEE
_ZN7android8hardware5audio4V4_010BpHwStream19_hidl_getSampleRateEPNS0_10IInterfaceEPNS0_7details16HidlInstrumentorE
_ZN7android8hardware5audio4V4_010BpHwStream19_hidl_setParametersEPNS0_10IInterfaceEPNS0_7details16HidlInstrumentorERKNS0_8hidl_vecINS2_14ParameterValueEEESD_
_ZN7android8hardware5audio4V4_010BpHwStream19_hidl_setSampleRateEPNS0_10IInterfaceEPNS0_7details16HidlInstrumentorEj
_ZN7android8hardware5audio4V4_010BpHwStream19getSupportedFormatsENSt3__18functionIFvRKNS0_8hidl_vecINS1_6common4V4_011AudioFormatEEEEEE
_ZN7android8hardware5audio4V4_010BpHwStream19interfaceDescriptorENSt3__18functionIFvRKNS0_11hidl_stringEEEE
_ZN7android8hardware5audio4V4_010BpHwStream20_hidl_getChannelMaskEPNS0_10IInterfaceEPNS0_7details16HidlInstrumentorE
_ZN7android8hardware5audio4V4_010BpHwStream20_hidl_setChannelMaskEPNS0_10IInterfaceEPNS0_7details16HidlInstrumentorEj
_ZN7android8hardware5audio4V4_010BpHwStream21_hidl_getMmapPositionEPNS0_10IInterfaceEPNS0_7details16HidlInstrumentorENSt3__18functionIFvNS2_6ResultERKNS2_12MmapPositionEEEE
_ZN7android8hardware5audio4V4_010BpHwStream21notifySyspropsChangedEv
_ZN7android8hardware5audio4V4_010BpHwStream21setHALInstrumentationEv
_ZN7android8hardware5audio4V4_010BpHwStream22_hidl_createMmapBufferEPNS0_10IInterfaceEPNS0_7details16HidlInstrumentorEiNSt3__18functionIFvNS2_6ResultERKNS2_14MmapBufferInfoEEEE
_ZN7android8hardware5audio4V4_010BpHwStream23getSupportedSampleRatesENS1_6common4V4_011AudioFormatENSt3__18functionIFvNS2_6ResultERKNS0_8hidl_vecIjEEEEE
_ZN7android8hardware5audio4V4_010BpHwStream24_hidl_getAudioPropertiesEPNS0_10IInterfaceEPNS0_7details16HidlInstrumentorENSt3__18functionIFvjjNS1_6common4V4_011AudioFormatEEEE
_ZN7android8hardware5audio4V4_010BpHwStream24getSupportedChannelMasksENS1_6common4V4_011AudioFormatENSt3__18functionIFvNS2_6ResultERKNS0_8hidl_vecIjEEEEE
_ZN7android8hardware5audio4V4_010BpHwStream25_hidl_getSupportedFormatsEPNS0_10IInterfaceEPNS0_7details16HidlInstrumentorENSt3__18functionIFvRKNS0_8hidl_vecINS1_6common4V4_011AudioFormatEEEEEE
_ZN7android8hardware5audio4V4_010BpHwStream29_hidl_getSupportedSampleRatesEPNS0_10IInterfaceEPNS0_7details16HidlInstrumentorENS1_6common4V4_011AudioFormatENSt3__18functionIFvNS2_6ResultERKNS0_8hidl_vecIjEEEEE
_ZN7android8hardware5audio4V4_010BpHwStream30_hidl_getSupportedChannelMasksEPNS0_10IInterfaceEPNS0_7details16HidlInstrumentorENS1_6common4V4_011AudioFormatENSt3__18functionIFvNS2_6ResultERKNS0_8hidl_vecIjEEEEE
_ZN7android8hardware5audio4V4_010BpHwStream4pingEv
_ZN7android8hardware5audio4V4_010BpHwStream4stopEv
_ZN7android8hardware5audio4V4_010BpHwStream5closeEv
_ZN7android8hardware5audio4V4_010BpHwStream5debugERKNS0_11hidl_handleERKNS0_8hidl_vecINS0_11hidl_stringEEE
_ZN7android8hardware5audio4V4_010BpHwStream5startEv
_ZN7android8hardware5audio4V4_010BpHwStream7standbyEv
_ZN7android8hardware5audio4V4_010BpHwStream9addEffectEy
_ZN7android8hardware5audio4V4_010BpHwStream9getFormatEv
_ZN7android8hardware5audio4V4_010BpHwStream9setFormatENS1_6common4V4_011AudioFormatE
_ZN7android8hardware5audio4V4_010BpHwStreamC1ERKNS_2spINS0_7IBinderEEE
_ZN7android8hardware5audio4V4_010BpHwStreamC2ERKNS_2spINS0_7IBinderEEE
_ZN7android8hardware5audio4V4_010BsStreamIn13addOnewayTaskENSt3__18functionIFvvEEE
_ZN7android8hardware5audio4V4_010BsStreamInC1ENS_2spINS2_9IStreamInEEE
_ZN7android8hardware5audio4V4_010BsStreamInC2ENS_2spINS2_9IStreamInEEE
_ZN7android8hardware5audio4V4_010IStreamOut10descriptorE
_ZN7android8hardware5audio4V4_010IStreamOut10getServiceERKNSt3__112basic_stringIcNS4_11char_traitsIcEENS4_9allocatorIcEEEEb
_ZN7android8hardware5audio4V4_010IStreamOut11linkToDeathERKNS_2spINS0_20hidl_death_recipientEEEy
_ZN7android8hardware5audio4V4_010IStreamOut12getDebugInfoENSt3__18functionIFvRKNS_4hidl4base4V1_09DebugInfoEEEE
_ZN7android8hardware5audio4V4_010IStreamOut12getHashChainENSt3__18functionIFvRKNS0_8hidl_vecINS0_10hidl_arrayIhLj32EJEEEEEEEE
_ZN7android8hardware5audio4V4_010IStreamOut13tryGetServiceERKNSt3__112basic_stringIcNS4_11char_traitsIcEENS4_9allocatorIcEEEEb
_ZN7android8hardware5audio4V4_010IStreamOut13unlinkToDeathERKNS_2spINS0_20hidl_death_recipientEEE
_ZN7android8hardware5audio4V4_010IStreamOut14interfaceChainENSt3__18functionIFvRKNS0_8hidl_vecINS0_11hidl_stringEEEEEE
_ZN7android8hardware5audio4V4_010IStreamOut17registerAsServiceERKNSt3__112basic_stringIcNS4_11char_traitsIcEENS4_9allocatorIcEEEE
_ZN7android8hardware5audio4V4_010IStreamOut19interfaceDescriptorENSt3__18functionIFvRKNS0_11hidl_stringEEEE
_ZN7android8hardware5audio4V4_010IStreamOut21notifySyspropsChangedEv
_ZN7android8hardware5audio4V4_010IStreamOut21setHALInstrumentationEv
_ZN7android8hardware5audio4V4_010IStreamOut24registerForNotificationsERKNSt3__112basic_stringIcNS4_11char_traitsIcEENS4_9allocatorIcEEEERKNS_2spINS_4hidl7manager4V1_020IServiceNotificationEEE
_ZN7android8hardware5audio4V4_010IStreamOut4pingEv
_ZN7android8hardware5audio4V4_010IStreamOut5debugERKNS0_11hidl_handleERKNS0_8hidl_vecINS0_11hidl_stringEEE
_ZN7android8hardware5audio4V4_010IStreamOut8castFromERKNS_2spINS2_7IStreamEEEb
_ZN7android8hardware5audio4V4_010IStreamOut8castFromERKNS_2spINS_4hidl4base4V1_05IBaseEEEb
_ZN7android8hardware5audio4V4_010IStreamOut8castFromERKNS_2spIS3_EEb
_ZN7android8hardware5audio4V4_011BsStreamOut13addOnewayTaskENSt3__18functionIFvvEEE
_ZN7android8hardware5audio4V4_011BsStreamOutC1ENS_2spINS2_10IStreamOutEEE
_ZN7android8hardware5audio4V4_011BsStreamOutC2ENS_2spINS2_10IStreamOutEEE
_ZN7android8hardware5audio4V4_012BnHwStreamIn10onTransactEjRKNS0_6ParcelEPS4_jNSt3__18functionIFvRS4_EEE
_ZN7android8hardware5audio4V4_012BnHwStreamIn12getDebugInfoENSt3__18functionIFvRKNS_4hidl4base4V1_09DebugInfoEEEE
_ZN7android8hardware5audio4V4_012BnHwStreamIn13_hidl_setGainEPNS_4hidl4base4V1_08BnHwBaseERKNS0_6ParcelEPS9_NSt3__18functionIFvRS9_EEE
_ZN7android8hardware5audio4V4_012BnHwStreamIn20_hidl_getAudioSourceEPNS_4hidl4base4V1_08BnHwBaseERKNS0_6ParcelEPS9_NSt3__18functionIFvRS9_EEE
_ZN7android8hardware5audio4V4_012BnHwStreamIn23_hidl_prepareForReadingEPNS_4hidl4base4V1_08BnHwBaseERKNS0_6ParcelEPS9_NSt3__18functionIFvRS9_EEE
_ZN7android8hardware5audio4V4_012BnHwStreamIn24_hidl_getCapturePositionEPNS_4hidl4base4V1_08BnHwBaseERKNS0_6ParcelEPS9_NSt3__18functionIFvRS9_EEE
_ZN7android8hardware5audio4V4_012BnHwStreamIn24_hidl_getInputFramesLostEPNS_4hidl4base4V1_08BnHwBaseERKNS0_6ParcelEPS9_NSt3__18functionIFvRS9_EEE
_ZN7android8hardware5audio4V4_012BnHwStreamIn24_hidl_updateSinkMetadataEPNS_4hidl4base4V1_08BnHwBaseERKNS0_6ParcelEPS9_NSt3__18functionIFvRS9_EEE
_ZN7android8hardware5audio4V4_012BnHwStreamIn26_hidl_getActiveMicrophonesEPNS_4hidl4base4V1_08BnHwBaseERKNS0_6ParcelEPS9_NSt3__18functionIFvRS9_EEE
_ZN7android8hardware5audio4V4_012BnHwStreamIn4pingEv
_ZN7android8hardware5audio4V4_012BnHwStreamInC1ERKNS_2spINS2_9IStreamInEEE
_ZN7android8hardware5audio4V4_012BnHwStreamInC2ERKNS_2spINS2_9IStreamInEEE
_ZN7android8hardware5audio4V4_012BnHwStreamInD0Ev
_ZN7android8hardware5audio4V4_012BnHwStreamInD1Ev
_ZN7android8hardware5audio4V4_012BnHwStreamInD2Ev
_ZN7android8hardware5audio4V4_012BpHwStreamIn10getDevicesENSt3__18functionIFvNS2_6ResultERKNS0_8hidl_vecINS2_13DeviceAddressEEEEEE
_ZN7android8hardware5audio4V4_012BpHwStreamIn10setDevicesERKNS0_8hidl_vecINS2_13DeviceAddressEEE
_ZN7android8hardware5audio4V4_012BpHwStreamIn11linkToDeathERKNS_2spINS0_20hidl_death_recipientEEEy
_ZN7android8hardware5audio4V4_012BpHwStreamIn11setHwAvSyncEj
_ZN7android8hardware5audio4V4_012BpHwStreamIn12getDebugInfoENSt3__18functionIFvRKNS_4hidl4base4V1_09DebugInfoEEEE
_ZN7android8hardware5audio4V4_012BpHwStreamIn12getFrameSizeEv
_ZN7android8hardware5audio4V4_012BpHwStreamIn12getHashChainENSt3__18functionIFvRKNS0_8hidl_vecINS0_10hidl_arrayIhLj32EJEEEEEEEE
_ZN7android8hardware5audio4V4_012BpHwStreamIn12removeEffectEy
_ZN7android8hardware5audio4V4_012BpHwStreamIn13_hidl_setGainEPNS0_10IInterfaceEPNS0_7details16HidlInstrumentorEf
_ZN7android8hardware5audio4V4_012BpHwStreamIn13getBufferSizeEv
_ZN7android8hardware5audio4V4_012BpHwStreamIn13getFrameCountEv
_ZN7android8hardware5audio4V4_012BpHwStreamIn13getParametersERKNS0_8hidl_vecINS2_14ParameterValueEEERKNS4_INS0_11hidl_stringEEENSt3__18functionIFvNS2_6ResultES8_EEE
_ZN7android8hardware5audio4V4_012BpHwStreamIn13getSampleRateEv
_ZN7android8hardware5audio4V4_012BpHwStreamIn13setParametersERKNS0_8hidl_vecINS2_14ParameterValueEEES8_
_ZN7android8hardware5audio4V4_012BpHwStreamIn13setSampleRateEj
_ZN7android8hardware5audio4V4_012BpHwStreamIn13unlinkToDeathERKNS_2spINS0_20hidl_death_recipientEEE
_ZN7android8hardware5audio4V4_012BpHwStreamIn14getAudioSourceENSt3__18functionIFvNS2_6ResultENS1_6common4V4_011AudioSourceEEEE
_ZN7android8hardware5audio4V4_012BpHwStreamIn14getChannelMaskEv
_ZN7android8hardware5audio4V4_012BpHwStreamIn14interfaceChainENSt3__18functionIFvRKNS0_8hidl_vecINS0_11hidl_stringEEEEEE
_ZN7android8hardware5audio4V4_012BpHwStreamIn14setChannelMaskEj
_ZN7android8hardware5audio4V4_012BpHwStreamIn15getMmapPositionENSt3__18functionIFvNS2_6ResultERKNS2_12MmapPositionEEEE
_ZN7android8hardware5audio4V4_012BpHwStreamIn16createMmapBufferEiNSt3__18functionIFvNS2_6ResultERKNS2_14MmapBufferInfoEEEE
_ZN7android8hardware5audio4V4_012BpHwStreamIn17prepareForReadingEjjNSt3__18functionIFvNS2_6ResultERKNS0_12MQDescriptorINS2_9IStreamIn14ReadParametersELNS0_8MQFlavorE1EEERKNS7_IhLSA_1EEERKNS7_INS8_10ReadStatusELSA_1EEERKNS1_6common4V4_010ThreadInfoEEEE
_ZN7android8hardware5audio4V4_012BpHwStreamIn18getAudioPropertiesENSt3__18functionIFvjjNS1_6common4V4_011AudioFormatEEEE
_ZN7android8hardware5audio4V4_012BpHwStreamIn18getCapturePositionENSt3__18functionIFvNS2_6ResultEyyEEE
_ZN7android8hardware5audio4V4_012BpHwStreamIn18getInputFramesLostEv
_ZN7android8hardware5audio4V4_012BpHwStreamIn18updateSinkMetadataERKNS2_12SinkMetadataE
_ZN7android8hardware5audio4V4_012BpHwStreamIn19getSupportedFormatsENSt3__18functionIFvRKNS0_8hidl_vecINS1_6common4V4_011AudioFormatEEEEEE
_ZN7android8hardware5audio4V4_012BpHwStreamIn19interfaceDescriptorENSt3__18functionIFvRKNS0_11hidl_stringEEEE
_ZN7android8hardware5audio4V4_012BpHwStreamIn20_hidl_getAudioSourceEPNS0_10IInterfaceEPNS0_7details16HidlInstrumentorENSt3__18functionIFvNS2_6ResultENS1_6common4V4_011AudioSourceEEEE
_ZN7android8hardware5audio4V4_012BpHwStreamIn20getActiveMicrophonesENSt3__18functionIFvNS2_6ResultERKNS0_8hidl_vecINS2_14MicrophoneInfoEEEEEE
_ZN7android8hardware5audio4V4_012BpHwStreamIn21notifySyspropsChangedEv
_ZN7android8hardware5audio4V4_012BpHwStreamIn21setHALInstrumentationEv
_ZN7android8hardware5audio4V4_012BpHwStreamIn23_hidl_prepareForReadingEPNS0_10IInterfaceEPNS0_7details16HidlInstrumentorEjjNSt3__18functionIFvNS2_6ResultERKNS0_12MQDescriptorINS2_9IStreamIn14ReadParametersELNS0_8MQFlavorE1EEERKNSC_IhLSF_1EEERKNSC_INSD_10ReadStatusELSF_1EEERKNS1_6common4V4_010ThreadInfoEEEE
_ZN7android8hardware5audio4V4_012BpHwStreamIn23getSupportedSampleRatesENS1_6common4V4_011AudioFormatENSt3__18functionIFvNS2_6ResultERKNS0_8hidl_vecIjEEEEE
_ZN7android8hardware5audio4V4_012BpHwStreamIn24_hidl_getCapturePositionEPNS0_10IInterfaceEPNS0_7details16HidlInstrumentorENSt3__18functionIFvNS2_6ResultEyyEEE
_ZN7android8hardware5audio4V4_012BpHwStreamIn24_hidl_getInputFramesLostEPNS0_10IInterfaceEPNS0_7details16HidlInstrumentorE
_ZN7android8hardware5audio4V4_012BpHwStreamIn24_hidl_updateSinkMetadataEPNS0_10IInterfaceEPNS0_7details16HidlInstrumentorERKNS2_12SinkMetadataE
_ZN7android8hardware5audio4V4_012BpHwStreamIn24getSupportedChannelMasksENS1_6common4V4_011AudioFormatENSt3__18functionIFvNS2_6ResultERKNS0_8hidl_vecIjEEEEE
_ZN7android8hardware5audio4V4_012BpHwStreamIn26_hidl_getActiveMicrophonesEPNS0_10IInterfaceEPNS0_7details16HidlInstrumentorENSt3__18functionIFvNS2_6ResultERKNS0_8hidl_vecINS2_14MicrophoneInfoEEEEEE
_ZN7android8hardware5audio4V4_012BpHwStreamIn4pingEv
_ZN7android8hardware5audio4V4_012BpHwStreamIn4stopEv
_ZN7android8hardware5audio4V4_012BpHwStreamIn5closeEv
_ZN7android8hardware5audio4V4_012BpHwStreamIn5debugERKNS0_11hidl_handleERKNS0_8hidl_vecINS0_11hidl_stringEEE
_ZN7android8hardware5audio4V4_012BpHwStreamIn5startEv
_ZN7android8hardware5audio4V4_012BpHwStreamIn7setGainEf
_ZN7android8hardware5audio4V4_012BpHwStreamIn7standbyEv
_ZN7android8hardware5audio4V4_012BpHwStreamIn9addEffectEy
_ZN7android8hardware5audio4V4_012BpHwStreamIn9getFormatEv
_ZN7android8hardware5audio4V4_012BpHwStreamIn9setFormatENS1_6common4V4_011AudioFormatE
_ZN7android8hardware5audio4V4_012BpHwStreamInC1ERKNS_2spINS0_7IBinderEEE
_ZN7android8hardware5audio4V4_012BpHwStreamInC2ERKNS_2spINS0_7IBinderEEE
_ZN7android8hardware5audio4V4_013BnHwStreamOut10onTransactEjRKNS0_6ParcelEPS4_jNSt3__18functionIFvRS4_EEE
_ZN7android8hardware5audio4V4_013BnHwStreamOut11_hidl_drainEPNS_4hidl4base4V1_08BnHwBaseERKNS0_6ParcelEPS9_NSt3__18functionIFvRS9_EEE
_ZN7android8hardware5audio4V4_013BnHwStreamOut11_hidl_flushEPNS_4hidl4base4V1_08BnHwBaseERKNS0_6ParcelEPS9_NSt3__18functionIFvRS9_EEE
_ZN7android8hardware5audio4V4_013BnHwStreamOut11_hidl_pauseEPNS_4hidl4base4V1_08BnHwBaseERKNS0_6ParcelEPS9_NSt3__18functionIFvRS9_EEE
_ZN7android8hardware5audio4V4_013BnHwStreamOut12_hidl_resumeEPNS_4hidl4base4V1_08BnHwBaseERKNS0_6ParcelEPS9_NSt3__18functionIFvRS9_EEE
_ZN7android8hardware5audio4V4_013BnHwStreamOut12getDebugInfoENSt3__18functionIFvRKNS_4hidl4base4V1_09DebugInfoEEEE
_ZN7android8hardware5audio4V4_013BnHwStreamOut15_hidl_setVolumeEPNS_4hidl4base4V1_08BnHwBaseERKNS0_6ParcelEPS9_NSt3__18functionIFvRS9_EEE
_ZN7android8hardware5audio4V4_013BnHwStreamOut16_hidl_getLatencyEPNS_4hidl4base4V1_08BnHwBaseERKNS0_6ParcelEPS9_NSt3__18functionIFvRS9_EEE
_ZN7android8hardware5audio4V4_013BnHwStreamOut17_hidl_setCallbackEPNS_4hidl4base4V1_08BnHwBaseERKNS0_6ParcelEPS9_NSt3__18functionIFvRS9_EEE
_ZN7android8hardware5audio4V4_013BnHwStreamOut19_hidl_clearCallbackEPNS_4hidl4base4V1_08BnHwBaseERKNS0_6ParcelEPS9_NSt3__18functionIFvRS9_EEE
_ZN7android8hardware5audio4V4_013BnHwStreamOut19_hidl_supportsDrainEPNS_4hidl4base4V1_08BnHwBaseERKNS0_6ParcelEPS9_NSt3__18functionIFvRS9_EEE
_ZN7android8hardware5audio4V4_013BnHwStreamOut23_hidl_getRenderPositionEPNS_4hidl4base4V1_08BnHwBaseERKNS0_6ParcelEPS9_NSt3__18functionIFvRS9_EEE
_ZN7android8hardware5audio4V4_013BnHwStreamOut23_hidl_prepareForWritingEPNS_4hidl4base4V1_08BnHwBaseERKNS0_6ParcelEPS9_NSt3__18functionIFvRS9_EEE
_ZN7android8hardware5audio4V4_013BnHwStreamOut24_hidl_selectPresentationEPNS_4hidl4base4V1_08BnHwBaseERKNS0_6ParcelEPS9_NSt3__18functionIFvRS9_EEE
_ZN7android8hardware5audio4V4_013BnHwStreamOut26_hidl_updateSourceMetadataEPNS_4hidl4base4V1_08BnHwBaseERKNS0_6ParcelEPS9_NSt3__18functionIFvRS9_EEE
_ZN7android8hardware5audio4V4_013BnHwStreamOut27_hidl_getNextWriteTimestampEPNS_4hidl4base4V1_08BnHwBaseERKNS0_6ParcelEPS9_NSt3__18functionIFvRS9_EEE
_ZN7android8hardware5audio4V4_013BnHwStreamOut28_hidl_supportsPauseAndResumeEPNS_4hidl4base4V1_08BnHwBaseERKNS0_6ParcelEPS9_NSt3__18functionIFvRS9_EEE
_ZN7android8hardware5audio4V4_013BnHwStreamOut29_hidl_getPresentationPositionEPNS_4hidl4base4V1_08BnHwBaseERKNS0_6ParcelEPS9_NSt3__18functionIFvRS9_EEE
_ZN7android8hardware5audio4V4_013BnHwStreamOut4pingEv
_ZN7android8hardware5audio4V4_013BnHwStreamOutC1ERKNS_2spINS2_10IStreamOutEEE
_ZN7android8hardware5audio4V4_013BnHwStreamOutC2ERKNS_2spINS2_10IStreamOutEEE
_ZN7android8hardware5audio4V4_013BnHwStreamOutD0Ev
_ZN7android8hardware5audio4V4_013BnHwStreamOutD1Ev
_ZN7android8hardware5audio4V4_013BnHwStreamOutD2Ev
_ZN7android8hardware5audio4V4_013BpHwStreamOut10getDevicesENSt3__18functionIFvNS2_6ResultERKNS0_8hidl_vecINS2_13DeviceAddressEEEEEE
_ZN7android8hardware5audio4V4_013BpHwStreamOut10getLatencyEv
_ZN7android8hardware5audio4V4_013BpHwStreamOut10setDevicesERKNS0_8hidl_vecINS2_13DeviceAddressEEE
_ZN7android8hardware5audio4V4_013BpHwStreamOut11_hidl_drainEPNS0_10IInterfaceEPNS0_7details16HidlInstrumentorENS2_10AudioDrainE
_ZN7android8hardware5audio4V4_013BpHwStreamOut11_hidl_flushEPNS0_10IInterfaceEPNS0_7details16HidlInstrumentorE
_ZN7android8hardware5audio4V4_013BpHwStreamOut11_hidl_pauseEPNS0_10IInterfaceEPNS0_7details16HidlInstrumentorE
_ZN7android8hardware5audio4V4_013BpHwStreamOut11linkToDeathERKNS_2spINS0_20hidl_death_recipientEEEy
_ZN7android8hardware5audio4V4_013BpHwStreamOut11setCallbackERKNS_2spINS2_18IStreamOutCallbackEEE
_ZN7android8hardware5audio4V4_013BpHwStreamOut11setHwAvSyncEj
_ZN7android8hardware5audio4V4_013BpHwStreamOut12_hidl_resumeEPNS0_10IInterfaceEPNS0_7details16HidlInstrumentorE
_ZN7android8hardware5audio4V4_013BpHwStreamOut12getDebugInfoENSt3__18functionIFvRKNS_4hidl4base4V1_09DebugInfoEEEE
_ZN7android8hardware5audio4V4_013BpHwStreamOut12getFrameSizeEv
_ZN7android8hardware5audio4V4_013BpHwStreamOut12getHashChainENSt3__18functionIFvRKNS0_8hidl_vecINS0_10hidl_arrayIhLj32EJEEEEEEEE
_ZN7android8hardware5audio4V4_013BpHwStreamOut12removeEffectEy
_ZN7android8hardware5audio4V4_013BpHwStreamOut13clearCallbackEv
_ZN7android8hardware5audio4V4_013BpHwStreamOut13getBufferSizeEv
_ZN7android8hardware5audio4V4_013BpHwStreamOut13getFrameCountEv
_ZN7android8hardware5audio4V4_013BpHwStreamOut13getParametersERKNS0_8hidl_vecINS2_14ParameterValueEEERKNS4_INS0_11hidl_stringEEENSt3__18functionIFvNS2_6ResultES8_EEE
_ZN7android8hardware5audio4V4_013BpHwStreamOut13getSampleRateEv
_ZN7android8hardware5audio4V4_013BpHwStreamOut13setParametersERKNS0_8hidl_vecINS2_14ParameterValueEEES8_
_ZN7android8hardware5audio4V4_013BpHwStreamOut13setSampleRateEj
_ZN7android8hardware5audio4V4_013BpHwStreamOut13supportsDrainEv
_ZN7android8hardware5audio4V4_013BpHwStreamOut13unlinkToDeathERKNS_2spINS0_20hidl_death_recipientEEE
_ZN7android8hardware5audio4V4_013BpHwStreamOut14getChannelMaskEv
_ZN7android8hardware5audio4V4_013BpHwStreamOut14interfaceChainENSt3__18functionIFvRKNS0_8hidl_vecINS0_11hidl_stringEEEEEE
_ZN7android8hardware5audio4V4_013BpHwStreamOut14setChannelMaskEj
_ZN7android8hardware5audio4V4_013BpHwStreamOut15_hidl_setVolumeEPNS0_10IInterfaceEPNS0_7details16HidlInstrumentorEff
_ZN7android8hardware5audio4V4_013BpHwStreamOut15getMmapPositionENSt3__18functionIFvNS2_6ResultERKNS2_12MmapPositionEEEE
_ZN7android8hardware5audio4V4_013BpHwStreamOut16_hidl_getLatencyEPNS0_10IInterfaceEPNS0_7details16HidlInstrumentorE
_ZN7android8hardware5audio4V4_013BpHwStreamOut16createMmapBufferEiNSt3__18functionIFvNS2_6ResultERKNS2_14MmapBufferInfoEEEE
_ZN7android8hardware5audio4V4_013BpHwStreamOut17_hidl_setCallbackEPNS0_10IInterfaceEPNS0_7details16HidlInstrumentorERKNS_2spINS2_18IStreamOutCallbackEEE
_ZN7android8hardware5audio4V4_013BpHwStreamOut17getRenderPositionENSt3__18functionIFvNS2_6ResultEjEEE
_ZN7android8hardware5audio4V4_013BpHwStreamOut17prepareForWritingEjjNSt3__18functionIFvNS2_6ResultERKNS0_12MQDescriptorINS2_10IStreamOut12WriteCommandELNS0_8MQFlavorE1EEERKNS7_IhLSA_1EEERKNS7_INS8_11WriteStatusELSA_1EEERKNS1_6common4V4_010ThreadInfoEEEE
_ZN7android8hardware5audio4V4_013BpHwStreamOut18getAudioPropertiesENSt3__18functionIFvjjNS1_6common4V4_011AudioFormatEEEE
_ZN7android8hardware5audio4V4_013BpHwStreamOut18selectPresentationEii
_ZN7android8hardware5audio4V4_013BpHwStreamOut19_hidl_clearCallbackEPNS0_10IInterfaceEPNS0_7details16HidlInstrumentorE
_ZN7android8hardware5audio4V4_013BpHwStreamOut19_hidl_supportsDrainEPNS0_10IInterfaceEPNS0_7details16HidlInstrumentorE
_ZN7android8hardware5audio4V4_013BpHwStreamOut19getSupportedFormatsENSt3__18functionIFvRKNS0_8hidl_vecINS1_6common4V4_011AudioFormatEEEEEE
_ZN7android8hardware5audio4V4_013BpHwStreamOut19interfaceDescriptorENSt3__18functionIFvRKNS0_11hidl_stringEEEE
_ZN7android8hardware5audio4V4_013BpHwStreamOut20updateSourceMetadataERKNS2_14SourceMetadataE
_ZN7android8hardware5audio4V4_013BpHwStreamOut21getNextWriteTimestampENSt3__18functionIFvNS2_6ResultExEEE
_ZN7android8hardware5audio4V4_013BpHwStreamOut21notifySyspropsChangedEv
_ZN7android8hardware5audio4V4_013BpHwStreamOut21setHALInstrumentationEv
_ZN7android8hardware5audio4V4_013BpHwStreamOut22supportsPauseAndResumeENSt3__18functionIFvbbEEE
_ZN7android8hardware5audio4V4_013BpHwStreamOut23_hidl_getRenderPositionEPNS0_10IInterfaceEPNS0_7details16HidlInstrumentorENSt3__18functionIFvNS2_6ResultEjEEE
_ZN7android8hardware5audio4V4_013BpHwStreamOut23_hidl_prepareForWritingEPNS0_10IInterfaceEPNS0_7details16HidlInstrumentorEjjNSt3__18functionIFvNS2_6ResultERKNS0_12MQDescriptorINS2_10IStreamOut12WriteCommandELNS0_8MQFlavorE1EEERKNSC_IhLSF_1EEERKNSC_INSD_11WriteStatusELSF_1EEERKNS1_6common4V4_010ThreadInfoEEEE
_ZN7android8hardware5audio4V4_013BpHwStreamOut23getPresentationPositionENSt3__18functionIFvNS2_6ResultEyRKNS2_8TimeSpecEEEE
_ZN7android8hardware5audio4V4_013BpHwStreamOut23getSupportedSampleRatesENS1_6common4V4_011AudioFormatENSt3__18functionIFvNS2_6ResultERKNS0_8hidl_vecIjEEEEE
_ZN7android8hardware5audio4V4_013BpHwStreamOut24_hidl_selectPresentationEPNS0_10IInterfaceEPNS0_7details16HidlInstrumentorEii
_ZN7android8hardware5audio4V4_013BpHwStreamOut24getSupportedChannelMasksENS1_6common4V4_011AudioFormatENSt3__18functionIFvNS2_6ResultERKNS0_8hidl_vecIjEEEEE
_ZN7android8hardware5audio4V4_013BpHwStreamOut26_hidl_updateSourceMetadataEPNS0_10IInterfaceEPNS0_7details16HidlInstrumentorERKNS2_14SourceMetadataE
_ZN7android8hardware5audio4V4_013BpHwStreamOut27_hidl_getNextWriteTimestampEPNS0_10IInterfaceEPNS0_7details16HidlInstrumentorENSt3__18functionIFvNS2_6ResultExEEE
_ZN7android8hardware5audio4V4_013BpHwStreamOut28_hidl_supportsPauseAndResumeEPNS0_10IInterfaceEPNS0_7details16HidlInstrumentorENSt3__18functionIFvbbEEE
_ZN7android8hardware5audio4V4_013BpHwStreamOut29_hidl_getPresentationPositionEPNS0_10IInterfaceEPNS0_7details16HidlInstrumentorENSt3__18functionIFvNS2_6ResultEyRKNS2_8TimeSpecEEEE
_ZN7android8hardware5audio4V4_013BpHwStreamOut4pingEv
_ZN7android8hardware5audio4V4_013BpHwStreamOut4stopEv
_ZN7android8hardware5audio4V4_013BpHwStreamOut5closeEv
_ZN7android8hardware5audio4V4_013BpHwStreamOut5debugERKNS0_11hidl_handleERKNS0_8hidl_vecINS0_11hidl_stringEEE
_ZN7android8hardware5audio4V4_013BpHwStreamOut5drainENS2_10AudioDrainE
_ZN7android8hardware5audio4V4_013BpHwStreamOut5flushEv
_ZN7android8hardware5audio4V4_013BpHwStreamOut5pauseEv
_ZN7android8hardware5audio4V4_013BpHwStreamOut5startEv
_ZN7android8hardware5audio4V4_013BpHwStreamOut6resumeEv
_ZN7android8hardware5audio4V4_013BpHwStreamOut7standbyEv
_ZN7android8hardware5audio4V4_013BpHwStreamOut9addEffectEy
_ZN7android8hardware5audio4V4_013BpHwStreamOut9getFormatEv
_ZN7android8hardware5audio4V4_013BpHwStreamOut9setFormatENS1_6common4V4_011AudioFormatE
_ZN7android8hardware5audio4V4_013BpHwStreamOut9setVolumeEff
_ZN7android8hardware5audio4V4_013BpHwStreamOutC1ERKNS_2spINS0_7IBinderEEE
_ZN7android8hardware5audio4V4_013BpHwStreamOutC2ERKNS_2spINS0_7IBinderEEE
_ZN7android8hardware5audio4V4_014IPrimaryDevice10descriptorE
_ZN7android8hardware5audio4V4_014IPrimaryDevice10getServiceERKNSt3__112basic_stringIcNS4_11char_traitsIcEENS4_9allocatorIcEEEEb
_ZN7android8hardware5audio4V4_014IPrimaryDevice11linkToDeathERKNS_2spINS0_20hidl_death_recipientEEEy
_ZN7android8hardware5audio4V4_014IPrimaryDevice12getDebugInfoENSt3__18functionIFvRKNS_4hidl4base4V1_09DebugInfoEEEE
_ZN7android8hardware5audio4V4_014IPrimaryDevice12getHashChainENSt3__18functionIFvRKNS0_8hidl_vecINS0_10hidl_arrayIhLj32EJEEEEEEEE
_ZN7android8hardware5audio4V4_014IPrimaryDevice13tryGetServiceERKNSt3__112basic_stringIcNS4_11char_traitsIcEENS4_9allocatorIcEEEEb
_ZN7android8hardware5audio4V4_014IPrimaryDevice13unlinkToDeathERKNS_2spINS0_20hidl_death_recipientEEE
_ZN7android8hardware5audio4V4_014IPrimaryDevice14interfaceChainENSt3__18functionIFvRKNS0_8hidl_vecINS0_11hidl_stringEEEEEE
_ZN7android8hardware5audio4V4_014IPrimaryDevice17registerAsServiceERKNSt3__112basic_stringIcNS4_11char_traitsIcEENS4_9allocatorIcEEEE
_ZN7android8hardware5audio4V4_014IPrimaryDevice19interfaceDescriptorENSt3__18functionIFvRKNS0_11hidl_stringEEEE
_ZN7android8hardware5audio4V4_014IPrimaryDevice21notifySyspropsChangedEv
_ZN7android8hardware5audio4V4_014IPrimaryDevice21setHALInstrumentationEv
_ZN7android8hardware5audio4V4_014IPrimaryDevice24registerForNotificationsERKNSt3__112basic_stringIcNS4_11char_traitsIcEENS4_9allocatorIcEEEERKNS_2spINS_4hidl7manager4V1_020IServiceNotificationEEE
_ZN7android8hardware5audio4V4_014IPrimaryDevice4pingEv
_ZN7android8hardware5audio4V4_014IPrimaryDevice5debugERKNS0_11hidl_handleERKNS0_8hidl_vecINS0_11hidl_stringEEE
_ZN7android8hardware5audio4V4_014IPrimaryDevice8castFromERKNS_2spINS2_7IDeviceEEEb
_ZN7android8hardware5audio4V4_014IPrimaryDevice8castFromERKNS_2spINS_4hidl4base4V1_05IBaseEEEb
_ZN7android8hardware5audio4V4_014IPrimaryDevice8castFromERKNS_2spIS3_EEb
_ZN7android8hardware5audio4V4_015BsPrimaryDevice13addOnewayTaskENSt3__18functionIFvvEEE
_ZN7android8hardware5audio4V4_015BsPrimaryDeviceC1ENS_2spINS2_14IPrimaryDeviceEEE
_ZN7android8hardware5audio4V4_015BsPrimaryDeviceC2ENS_2spINS2_14IPrimaryDeviceEEE
_ZN7android8hardware5audio4V4_015IDevicesFactory10descriptorE
_ZN7android8hardware5audio4V4_015IDevicesFactory10getServiceERKNSt3__112basic_stringIcNS4_11char_traitsIcEENS4_9allocatorIcEEEEb
_ZN7android8hardware5audio4V4_015IDevicesFactory11linkToDeathERKNS_2spINS0_20hidl_death_recipientEEEy
_ZN7android8hardware5audio4V4_015IDevicesFactory12getDebugInfoENSt3__18functionIFvRKNS_4hidl4base4V1_09DebugInfoEEEE
_ZN7android8hardware5audio4V4_015IDevicesFactory12getHashChainENSt3__18functionIFvRKNS0_8hidl_vecINS0_10hidl_arrayIhLj32EJEEEEEEEE
_ZN7android8hardware5audio4V4_015IDevicesFactory13tryGetServiceERKNSt3__112basic_stringIcNS4_11char_traitsIcEENS4_9allocatorIcEEEEb
_ZN7android8hardware5audio4V4_015IDevicesFactory13unlinkToDeathERKNS_2spINS0_20hidl_death_recipientEEE
_ZN7android8hardware5audio4V4_015IDevicesFactory14interfaceChainENSt3__18functionIFvRKNS0_8hidl_vecINS0_11hidl_stringEEEEEE
_ZN7android8hardware5audio4V4_015IDevicesFactory17registerAsServiceERKNSt3__112basic_stringIcNS4_11char_traitsIcEENS4_9allocatorIcEEEE
_ZN7android8hardware5audio4V4_015IDevicesFactory19interfaceDescriptorENSt3__18functionIFvRKNS0_11hidl_stringEEEE
_ZN7android8hardware5audio4V4_015IDevicesFactory21notifySyspropsChangedEv
_ZN7android8hardware5audio4V4_015IDevicesFactory21setHALInstrumentationEv
_ZN7android8hardware5audio4V4_015IDevicesFactory24registerForNotificationsERKNSt3__112basic_stringIcNS4_11char_traitsIcEENS4_9allocatorIcEEEERKNS_2spINS_4hidl7manager4V1_020IServiceNotificationEEE
_ZN7android8hardware5audio4V4_015IDevicesFactory4pingEv
_ZN7android8hardware5audio4V4_015IDevicesFactory5debugERKNS0_11hidl_handleERKNS0_8hidl_vecINS0_11hidl_stringEEE
_ZN7android8hardware5audio4V4_015IDevicesFactory8castFromERKNS_2spINS_4hidl4base4V1_05IBaseEEEb
_ZN7android8hardware5audio4V4_015IDevicesFactory8castFromERKNS_2spIS3_EEb
_ZN7android8hardware5audio4V4_016BsDevicesFactory13addOnewayTaskENSt3__18functionIFvvEEE
_ZN7android8hardware5audio4V4_016BsDevicesFactoryC1ENS_2spINS2_15IDevicesFactoryEEE
_ZN7android8hardware5audio4V4_016BsDevicesFactoryC2ENS_2spINS2_15IDevicesFactoryEEE
_ZN7android8hardware5audio4V4_017BnHwPrimaryDevice10onTransactEjRKNS0_6ParcelEPS4_jNSt3__18functionIFvRS4_EEE
_ZN7android8hardware5audio4V4_017BnHwPrimaryDevice12getDebugInfoENSt3__18functionIFvRKNS_4hidl4base4V1_09DebugInfoEEEE
_ZN7android8hardware5audio4V4_017BnHwPrimaryDevice13_hidl_setModeEPNS_4hidl4base4V1_08BnHwBaseERKNS0_6ParcelEPS9_NSt3__18functionIFvRS9_EEE
_ZN7android8hardware5audio4V4_017BnHwPrimaryDevice16_hidl_getTtyModeEPNS_4hidl4base4V1_08BnHwBaseERKNS0_6ParcelEPS9_NSt3__18functionIFvRS9_EEE
_ZN7android8hardware5audio4V4_017BnHwPrimaryDevice16_hidl_setTtyModeEPNS_4hidl4base4V1_08BnHwBaseERKNS0_6ParcelEPS9_NSt3__18functionIFvRS9_EEE
_ZN7android8hardware5audio4V4_017BnHwPrimaryDevice19_hidl_getHacEnabledEPNS_4hidl4base4V1_08BnHwBaseERKNS0_6ParcelEPS9_NSt3__18functionIFvRS9_EEE
_ZN7android8hardware5audio4V4_017BnHwPrimaryDevice19_hidl_setHacEnabledEPNS_4hidl4base4V1_08BnHwBaseERKNS0_6ParcelEPS9_NSt3__18functionIFvRS9_EEE
_ZN7android8hardware5audio4V4_017BnHwPrimaryDevice20_hidl_setBtHfpVolumeEPNS_4hidl4base4V1_08BnHwBaseERKNS0_6ParcelEPS9_NSt3__18functionIFvRS9_EEE
_ZN7android8hardware5audio4V4_017BnHwPrimaryDevice20_hidl_setVoiceVolumeEPNS_4hidl4base4V1_08BnHwBaseERKNS0_6ParcelEPS9_NSt3__18functionIFvRS9_EEE
_ZN7android8hardware5audio4V4_017BnHwPrimaryDevice20_hidl_updateRotationEPNS_4hidl4base4V1_08BnHwBaseERKNS0_6ParcelEPS9_NSt3__18functionIFvRS9_EEE
_ZN7android8hardware5audio4V4_017BnHwPrimaryDevice21_hidl_getBtHfpEnabledEPNS_4hidl4base4V1_08BnHwBaseERKNS0_6ParcelEPS9_NSt3__18functionIFvRS9_EEE
_ZN7android8hardware5audio4V4_017BnHwPrimaryDevice21_hidl_setBtHfpEnabledEPNS_4hidl4base4V1_08BnHwBaseERKNS0_6ParcelEPS9_NSt3__18functionIFvRS9_EEE
_ZN7android8hardware5audio4V4_017BnHwPrimaryDevice24_hidl_setBtHfpSampleRateEPNS_4hidl4base4V1_08BnHwBaseERKNS0_6ParcelEPS9_NSt3__18functionIFvRS9_EEE
_ZN7android8hardware5audio4V4_017BnHwPrimaryDevice25_hidl_getBtScoNrecEnabledEPNS_4hidl4base4V1_08BnHwBaseERKNS0_6ParcelEPS9_NSt3__18functionIFvRS9_EEE
_ZN7android8hardware5audio4V4_017BnHwPrimaryDevice25_hidl_setBtScoNrecEnabledEPNS_4hidl4base4V1_08BnHwBaseERKNS0_6ParcelEPS9_NSt3__18functionIFvRS9_EEE
_ZN7android8hardware5audio4V4_017BnHwPrimaryDevice29_hidl_getBtScoWidebandEnabledEPNS_4hidl4base4V1_08BnHwBaseERKNS0_6ParcelEPS9_NSt3__18functionIFvRS9_EEE
_ZN7android8hardware5audio4V4_017BnHwPrimaryDevice29_hidl_setBtScoWidebandEnabledEPNS_4hidl4base4V1_08BnHwBaseERKNS0_6ParcelEPS9_NSt3__18functionIFvRS9_EEE
_ZN7android8hardware5audio4V4_017BnHwPrimaryDevice30_hidl_setBtScoHeadsetDebugNameEPNS_4hidl4base4V1_08BnHwBaseERKNS0_6ParcelEPS9_NSt3__18functionIFvRS9_EEE
_ZN7android8hardware5audio4V4_017BnHwPrimaryDevice4pingEv
_ZN7android8hardware5audio4V4_017BnHwPrimaryDeviceC1ERKNS_2spINS2_14IPrimaryDeviceEEE
_ZN7android8hardware5audio4V4_017BnHwPrimaryDeviceC2ERKNS_2spINS2_14IPrimaryDeviceEEE
_ZN7android8hardware5audio4V4_017BnHwPrimaryDeviceD0Ev
_ZN7android8hardware5audio4V4_017BnHwPrimaryDeviceD1Ev
_ZN7android8hardware5audio4V4_017BnHwPrimaryDeviceD2Ev
_ZN7android8hardware5audio4V4_017BpHwPrimaryDevice10getMicMuteENSt3__18functionIFvNS2_6ResultEbEEE
_ZN7android8hardware5audio4V4_017BpHwPrimaryDevice10getTtyModeENSt3__18functionIFvNS2_6ResultENS2_14IPrimaryDevice7TtyModeEEEE
_ZN7android8hardware5audio4V4_017BpHwPrimaryDevice10setMicMuteEb
_ZN7android8hardware5audio4V4_017BpHwPrimaryDevice10setTtyModeENS2_14IPrimaryDevice7TtyModeE
_ZN7android8hardware5audio4V4_017BpHwPrimaryDevice11getHwAvSyncENSt3__18functionIFvNS2_6ResultEjEEE
_ZN7android8hardware5audio4V4_017BpHwPrimaryDevice11linkToDeathERKNS_2spINS0_20hidl_death_recipientEEEy
_ZN7android8hardware5audio4V4_017BpHwPrimaryDevice12getAudioPortERKNS1_6common4V4_09AudioPortENSt3__18functionIFvNS2_6ResultES8_EEE
_ZN7android8hardware5audio4V4_017BpHwPrimaryDevice12getDebugInfoENSt3__18functionIFvRKNS_4hidl4base4V1_09DebugInfoEEEE
_ZN7android8hardware5audio4V4_017BpHwPrimaryDevice12getHashChainENSt3__18functionIFvRKNS0_8hidl_vecINS0_10hidl_arrayIhLj32EJEEEEEEEE
_ZN7android8hardware5audio4V4_017BpHwPrimaryDevice13_hidl_setModeEPNS0_10IInterfaceEPNS0_7details16HidlInstrumentorENS1_6common4V4_09AudioModeE
_ZN7android8hardware5audio4V4_017BpHwPrimaryDevice13getHacEnabledENSt3__18functionIFvNS2_6ResultEbEEE
_ZN7android8hardware5audio4V4_017BpHwPrimaryDevice13getMasterMuteENSt3__18functionIFvNS2_6ResultEbEEE
_ZN7android8hardware5audio4V4_017BpHwPrimaryDevice13getParametersERKNS0_8hidl_vecINS2_14ParameterValueEEERKNS4_INS0_11hidl_stringEEENSt3__18functionIFvNS2_6ResultES8_EEE
_ZN7android8hardware5audio4V4_017BpHwPrimaryDevice13setHacEnabledEb
_ZN7android8hardware5audio4V4_017BpHwPrimaryDevice13setMasterMuteEb
_ZN7android8hardware5audio4V4_017BpHwPrimaryDevice13setParametersERKNS0_8hidl_vecINS2_14ParameterValueEEES8_
_ZN7android8hardware5audio4V4_017BpHwPrimaryDevice13unlinkToDeathERKNS_2spINS0_20hidl_death_recipientEEE
_ZN7android8hardware5audio4V4_017BpHwPrimaryDevice14getMicrophonesENSt3__18functionIFvNS2_6ResultERKNS0_8hidl_vecINS2_14MicrophoneInfoEEEEEE
_ZN7android8hardware5audio4V4_017BpHwPrimaryDevice14interfaceChainENSt3__18functionIFvRKNS0_8hidl_vecINS0_11hidl_stringEEEEEE
_ZN7android8hardware5audio4V4_017BpHwPrimaryDevice14setBtHfpVolumeEf
_ZN7android8hardware5audio4V4_017BpHwPrimaryDevice14setScreenStateEb
_ZN7android8hardware5audio4V4_017BpHwPrimaryDevice14setVoiceVolumeEf
_ZN7android8hardware5audio4V4_017BpHwPrimaryDevice14updateRotationENS2_14IPrimaryDevice8RotationE
_ZN7android8hardware5audio4V4_017BpHwPrimaryDevice15getBtHfpEnabledENSt3__18functionIFvNS2_6ResultEbEEE
_ZN7android8hardware5audio4V4_017BpHwPrimaryDevice15getMasterVolumeENSt3__18functionIFvNS2_6ResultEfEEE
_ZN7android8hardware5audio4V4_017BpHwPrimaryDevice15openInputStreamEiRKNS2_13DeviceAddressERKNS1_6common4V4_011AudioConfigEiRKNS2_12SinkMetadataENSt3__18functionIFvNS2_6ResultERKNS_2spINS2_9IStreamInEEESB_EEE
_ZN7android8hardware5audio4V4_017BpHwPrimaryDevice15setBtHfpEnabledEb
_ZN7android8hardware5audio4V4_017BpHwPrimaryDevice15setMasterVolumeEf
_ZN7android8hardware5audio4V4_017BpHwPrimaryDevice16_hidl_getTtyModeEPNS0_10IInterfaceEPNS0_7details16HidlInstrumentorENSt3__18functionIFvNS2_6ResultENS2_14IPrimaryDevice7TtyModeEEEE
_ZN7android8hardware5audio4V4_017BpHwPrimaryDevice16_hidl_setTtyModeEPNS0_10IInterfaceEPNS0_7details16HidlInstrumentorENS2_14IPrimaryDevice7TtyModeE
_ZN7android8hardware5audio4V4_017BpHwPrimaryDevice16createAudioPatchERKNS0_8hidl_vecINS1_6common4V4_015AudioPortConfigEEESA_NSt3__18functionIFvNS2_6ResultEiEEE
_ZN7android8hardware5audio4V4_017BpHwPrimaryDevice16openOutputStreamEiRKNS2_13DeviceAddressERKNS1_6common4V4_011AudioConfigEiRKNS2_14SourceMetadataENSt3__18functionIFvNS2_6ResultERKNS_2spINS2_10IStreamOutEEESB_EEE
_ZN7android8hardware5audio4V4_017BpHwPrimaryDevice17releaseAudioPatchEi
_ZN7android8hardware5audio4V4_017BpHwPrimaryDevice17setConnectedStateERKNS2_13DeviceAddressEb
_ZN7android8hardware5audio4V4_017BpHwPrimaryDevice18getInputBufferSizeERKNS1_6common4V4_011AudioConfigENSt3__18functionIFvNS2_6ResultEyEEE
_ZN7android8hardware5audio4V4_017BpHwPrimaryDevice18setAudioPortConfigERKNS1_6common4V4_015AudioPortConfigE
_ZN7android8hardware5audio4V4_017BpHwPrimaryDevice18setBtHfpSampleRateEj
_ZN7android8hardware5audio4V4_017BpHwPrimaryDevice19_hidl_getHacEnabledEPNS0_10IInterfaceEPNS0_7details16HidlInstrumentorENSt3__18functionIFvNS2_6ResultEbEEE
_ZN7android8hardware5audio4V4_017BpHwPrimaryDevice19_hidl_setHacEnabledEPNS0_10IInterfaceEPNS0_7details16HidlInstrumentorEb
_ZN7android8hardware5audio4V4_017BpHwPrimaryDevice19getBtScoNrecEnabledENSt3__18functionIFvNS2_6ResultEbEEE
_ZN7android8hardware5audio4V4_017BpHwPrimaryDevice19interfaceDescriptorENSt3__18functionIFvRKNS0_11hidl_stringEEEE
_ZN7android8hardware5audio4V4_017BpHwPrimaryDevice19setBtScoNrecEnabledEb
_ZN7android8hardware5audio4V4_017BpHwPrimaryDevice20_hidl_setBtHfpVolumeEPNS0_10IInterfaceEPNS0_7details16HidlInstrumentorEf
_ZN7android8hardware5audio4V4_017BpHwPrimaryDevice20_hidl_setVoiceVolumeEPNS0_10IInterfaceEPNS0_7details16HidlInstrumentorEf
_ZN7android8hardware5audio4V4_017BpHwPrimaryDevice20_hidl_updateRotationEPNS0_10IInterfaceEPNS0_7details16HidlInstrumentorENS2_14IPrimaryDevice8RotationE
_ZN7android8hardware5audio4V4_017BpHwPrimaryDevice20supportsAudioPatchesEv
_ZN7android8hardware5audio4V4_017BpHwPrimaryDevice21_hidl_getBtHfpEnabledEPNS0_10IInterfaceEPNS0_7details16HidlInstrumentorENSt3__18functionIFvNS2_6ResultEbEEE
_ZN7android8hardware5audio4V4_017BpHwPrimaryDevice21_hidl_setBtHfpEnabledEPNS0_10IInterfaceEPNS0_7details16HidlInstrumentorEb
_ZN7android8hardware5audio4V4_017BpHwPrimaryDevice21notifySyspropsChangedEv
_ZN7android8hardware5audio4V4_017BpHwPrimaryDevice21setHALInstrumentationEv
_ZN7android8hardware5audio4V4_017BpHwPrimaryDevice23getBtScoWidebandEnabledENSt3__18functionIFvNS2_6ResultEbEEE
_ZN7android8hardware5audio4V4_017BpHwPrimaryDevice23setBtScoWidebandEnabledEb
_ZN7android8hardware5audio4V4_017BpHwPrimaryDevice24_hidl_setBtHfpSampleRateEPNS0_10IInterfaceEPNS0_7details16HidlInstrumentorEj
_ZN7android8hardware5audio4V4_017BpHwPrimaryDevice24setBtScoHeadsetDebugNameERKNS0_11hidl_stringE
_ZN7android8hardware5audio4V4_017BpHwPrimaryDevice25_hidl_getBtScoNrecEnabledEPNS0_10IInterfaceEPNS0_7details16HidlInstrumentorENSt3__18functionIFvNS2_6ResultEbEEE
_ZN7android8hardware5audio4V4_017BpHwPrimaryDevice25_hidl_setBtScoNrecEnabledEPNS0_10IInterfaceEPNS0_7details16HidlInstrumentorEb
_ZN7android8hardware5audio4V4_017BpHwPrimaryDevice29_hidl_getBtScoWidebandEnabledEPNS0_10IInterfaceEPNS0_7details16HidlInstrumentorENSt3__18functionIFvNS2_6ResultEbEEE
_ZN7android8hardware5audio4V4_017BpHwPrimaryDevice29_hidl_setBtScoWidebandEnabledEPNS0_10IInterfaceEPNS0_7details16HidlInstrumentorEb
_ZN7android8hardware5audio4V4_017BpHwPrimaryDevice30_hidl_setBtScoHeadsetDebugNameEPNS0_10IInterfaceEPNS0_7details16HidlInstrumentorERKNS0_11hidl_stringE
_ZN7android8hardware5audio4V4_017BpHwPrimaryDevice4pingEv
_ZN7android8hardware5audio4V4_017BpHwPrimaryDevice5debugERKNS0_11hidl_handleERKNS0_8hidl_vecINS0_11hidl_stringEEE
_ZN7android8hardware5audio4V4_017BpHwPrimaryDevice7setModeENS1_6common4V4_09AudioModeE
_ZN7android8hardware5audio4V4_017BpHwPrimaryDevice9initCheckEv
_ZN7android8hardware5audio4V4_017BpHwPrimaryDeviceC1ERKNS_2spINS0_7IBinderEEE
_ZN7android8hardware5audio4V4_017BpHwPrimaryDeviceC2ERKNS_2spINS0_7IBinderEEE
_ZN7android8hardware5audio4V4_018BnHwDevicesFactory10onTransactEjRKNS0_6ParcelEPS4_jNSt3__18functionIFvRS4_EEE
_ZN7android8hardware5audio4V4_018BnHwDevicesFactory12getDebugInfoENSt3__18functionIFvRKNS_4hidl4base4V1_09DebugInfoEEEE
_ZN7android8hardware5audio4V4_018BnHwDevicesFactory16_hidl_openDeviceEPNS_4hidl4base4V1_08BnHwBaseERKNS0_6ParcelEPS9_NSt3__18functionIFvRS9_EEE
_ZN7android8hardware5audio4V4_018BnHwDevicesFactory23_hidl_openPrimaryDeviceEPNS_4hidl4base4V1_08BnHwBaseERKNS0_6ParcelEPS9_NSt3__18functionIFvRS9_EEE
_ZN7android8hardware5audio4V4_018BnHwDevicesFactory4pingEv
_ZN7android8hardware5audio4V4_018BnHwDevicesFactoryC1ERKNS_2spINS2_15IDevicesFactoryEEE
_ZN7android8hardware5audio4V4_018BnHwDevicesFactoryC2ERKNS_2spINS2_15IDevicesFactoryEEE
_ZN7android8hardware5audio4V4_018BnHwDevicesFactoryD0Ev
_ZN7android8hardware5audio4V4_018BnHwDevicesFactoryD1Ev
_ZN7android8hardware5audio4V4_018BnHwDevicesFactoryD2Ev
_ZN7android8hardware5audio4V4_018BpHwDevicesFactory10openDeviceERKNS0_11hidl_stringENSt3__18functionIFvNS2_6ResultERKNS_2spINS2_7IDeviceEEEEEE
_ZN7android8hardware5audio4V4_018BpHwDevicesFactory11linkToDeathERKNS_2spINS0_20hidl_death_recipientEEEy
_ZN7android8hardware5audio4V4_018BpHwDevicesFactory12getDebugInfoENSt3__18functionIFvRKNS_4hidl4base4V1_09DebugInfoEEEE
_ZN7android8hardware5audio4V4_018BpHwDevicesFactory12getHashChainENSt3__18functionIFvRKNS0_8hidl_vecINS0_10hidl_arrayIhLj32EJEEEEEEEE
_ZN7android8hardware5audio4V4_018BpHwDevicesFactory13unlinkToDeathERKNS_2spINS0_20hidl_death_recipientEEE
_ZN7android8hardware5audio4V4_018BpHwDevicesFactory14interfaceChainENSt3__18functionIFvRKNS0_8hidl_vecINS0_11hidl_stringEEEEEE
_ZN7android8hardware5audio4V4_018BpHwDevicesFactory16_hidl_openDeviceEPNS0_10IInterfaceEPNS0_7details16HidlInstrumentorERKNS0_11hidl_stringENSt3__18functionIFvNS2_6ResultERKNS_2spINS2_7IDeviceEEEEEE
_ZN7android8hardware5audio4V4_018BpHwDevicesFactory17openPrimaryDeviceENSt3__18functionIFvNS2_6ResultERKNS_2spINS2_14IPrimaryDeviceEEEEEE
_ZN7android8hardware5audio4V4_018BpHwDevicesFactory19interfaceDescriptorENSt3__18functionIFvRKNS0_11hidl_stringEEEE
_ZN7android8hardware5audio4V4_018BpHwDevicesFactory21notifySyspropsChangedEv
_ZN7android8hardware5audio4V4_018BpHwDevicesFactory21setHALInstrumentationEv
_ZN7android8hardware5audio4V4_018BpHwDevicesFactory23_hidl_openPrimaryDeviceEPNS0_10IInterfaceEPNS0_7details16HidlInstrumentorENSt3__18functionIFvNS2_6ResultERKNS_2spINS2_14IPrimaryDeviceEEEEEE
_ZN7android8hardware5audio4V4_018BpHwDevicesFactory4pingEv
_ZN7android8hardware5audio4V4_018BpHwDevicesFactory5debugERKNS0_11hidl_handleERKNS0_8hidl_vecINS0_11hidl_stringEEE
_ZN7android8hardware5audio4V4_018BpHwDevicesFactoryC1ERKNS_2spINS0_7IBinderEEE
_ZN7android8hardware5audio4V4_018BpHwDevicesFactoryC2ERKNS_2spINS0_7IBinderEEE
_ZN7android8hardware5audio4V4_018IStreamOutCallback10descriptorE
_ZN7android8hardware5audio4V4_018IStreamOutCallback10getServiceERKNSt3__112basic_stringIcNS4_11char_traitsIcEENS4_9allocatorIcEEEEb
_ZN7android8hardware5audio4V4_018IStreamOutCallback11linkToDeathERKNS_2spINS0_20hidl_death_recipientEEEy
_ZN7android8hardware5audio4V4_018IStreamOutCallback12getDebugInfoENSt3__18functionIFvRKNS_4hidl4base4V1_09DebugInfoEEEE
_ZN7android8hardware5audio4V4_018IStreamOutCallback12getHashChainENSt3__18functionIFvRKNS0_8hidl_vecINS0_10hidl_arrayIhLj32EJEEEEEEEE
_ZN7android8hardware5audio4V4_018IStreamOutCallback13tryGetServiceERKNSt3__112basic_stringIcNS4_11char_traitsIcEENS4_9allocatorIcEEEEb
_ZN7android8hardware5audio4V4_018IStreamOutCallback13unlinkToDeathERKNS_2spINS0_20hidl_death_recipientEEE
_ZN7android8hardware5audio4V4_018IStreamOutCallback14interfaceChainENSt3__18functionIFvRKNS0_8hidl_vecINS0_11hidl_stringEEEEEE
_ZN7android8hardware5audio4V4_018IStreamOutCallback17registerAsServiceERKNSt3__112basic_stringIcNS4_11char_traitsIcEENS4_9allocatorIcEEEE
_ZN7android8hardware5audio4V4_018IStreamOutCallback19interfaceDescriptorENSt3__18functionIFvRKNS0_11hidl_stringEEEE
_ZN7android8hardware5audio4V4_018IStreamOutCallback21notifySyspropsChangedEv
_ZN7android8hardware5audio4V4_018IStreamOutCallback21setHALInstrumentationEv
_ZN7android8hardware5audio4V4_018IStreamOutCallback24registerForNotificationsERKNSt3__112basic_stringIcNS4_11char_traitsIcEENS4_9allocatorIcEEEERKNS_2spINS_4hidl7manager4V1_020IServiceNotificationEEE
_ZN7android8hardware5audio4V4_018IStreamOutCallback4pingEv
_ZN7android8hardware5audio4V4_018IStreamOutCallback5debugERKNS0_11hidl_handleERKNS0_8hidl_vecINS0_11hidl_stringEEE
_ZN7android8hardware5audio4V4_018IStreamOutCallback8castFromERKNS_2spINS_4hidl4base4V1_05IBaseEEEb
_ZN7android8hardware5audio4V4_018IStreamOutCallback8castFromERKNS_2spIS3_EEb
_ZN7android8hardware5audio4V4_019BsStreamOutCallback13addOnewayTaskENSt3__18functionIFvvEEE
_ZN7android8hardware5audio4V4_019BsStreamOutCallbackC1ENS_2spINS2_18IStreamOutCallbackEEE
_ZN7android8hardware5audio4V4_019BsStreamOutCallbackC2ENS_2spINS2_18IStreamOutCallbackEEE
_ZN7android8hardware5audio4V4_021BnHwStreamOutCallback10onTransactEjRKNS0_6ParcelEPS4_jNSt3__18functionIFvRS4_EEE
_ZN7android8hardware5audio4V4_021BnHwStreamOutCallback12getDebugInfoENSt3__18functionIFvRKNS_4hidl4base4V1_09DebugInfoEEEE
_ZN7android8hardware5audio4V4_021BnHwStreamOutCallback13_hidl_onErrorEPNS_4hidl4base4V1_08BnHwBaseERKNS0_6ParcelEPS9_NSt3__18functionIFvRS9_EEE
_ZN7android8hardware5audio4V4_021BnHwStreamOutCallback18_hidl_onDrainReadyEPNS_4hidl4base4V1_08BnHwBaseERKNS0_6ParcelEPS9_NSt3__18functionIFvRS9_EEE
_ZN7android8hardware5audio4V4_021BnHwStreamOutCallback18_hidl_onWriteReadyEPNS_4hidl4base4V1_08BnHwBaseERKNS0_6ParcelEPS9_NSt3__18functionIFvRS9_EEE
_ZN7android8hardware5audio4V4_021BnHwStreamOutCallback4pingEv
_ZN7android8hardware5audio4V4_021BnHwStreamOutCallbackC1ERKNS_2spINS2_18IStreamOutCallbackEEE
_ZN7android8hardware5audio4V4_021BnHwStreamOutCallbackC2ERKNS_2spINS2_18IStreamOutCallbackEEE
_ZN7android8hardware5audio4V4_021BnHwStreamOutCallbackD0Ev
_ZN7android8hardware5audio4V4_021BnHwStreamOutCallbackD1Ev
_ZN7android8hardware5audio4V4_021BnHwStreamOutCallbackD2Ev
_ZN7android8hardware5audio4V4_021BpHwStreamOutCallback11linkToDeathERKNS_2spINS0_20hidl_death_recipientEEEy
_ZN7android8hardware5audio4V4_021BpHwStreamOutCallback12getDebugInfoENSt3__18functionIFvRKNS_4hidl4base4V1_09DebugInfoEEEE
_ZN7android8hardware5audio4V4_021BpHwStreamOutCallback12getHashChainENSt3__18functionIFvRKNS0_8hidl_vecINS0_10hidl_arrayIhLj32EJEEEEEEEE
_ZN7android8hardware5audio4V4_021BpHwStreamOutCallback12onDrainReadyEv
_ZN7android8hardware5audio4V4_021BpHwStreamOutCallback12onWriteReadyEv
_ZN7android8hardware5audio4V4_021BpHwStreamOutCallback13_hidl_onErrorEPNS0_10IInterfaceEPNS0_7details16HidlInstrumentorE
_ZN7android8hardware5audio4V4_021BpHwStreamOutCallback13unlinkToDeathERKNS_2spINS0_20hidl_death_recipientEEE
_ZN7android8hardware5audio4V4_021BpHwStreamOutCallback14interfaceChainENSt3__18functionIFvRKNS0_8hidl_vecINS0_11hidl_stringEEEEEE
_ZN7android8hardware5audio4V4_021BpHwStreamOutCallback18_hidl_onDrainReadyEPNS0_10IInterfaceEPNS0_7details16HidlInstrumentorE
_ZN7android8hardware5audio4V4_021BpHwStreamOutCallback18_hidl_onWriteReadyEPNS0_10IInterfaceEPNS0_7details16HidlInstrumentorE
_ZN7android8hardware5audio4V4_021BpHwStreamOutCallback19interfaceDescriptorENSt3__18functionIFvRKNS0_11hidl_stringEEEE
_ZN7android8hardware5audio4V4_021BpHwStreamOutCallback21notifySyspropsChangedEv
_ZN7android8hardware5audio4V4_021BpHwStreamOutCallback21setHALInstrumentationEv
_ZN7android8hardware5audio4V4_021BpHwStreamOutCallback4pingEv
_ZN7android8hardware5audio4V4_021BpHwStreamOutCallback5debugERKNS0_11hidl_handleERKNS0_8hidl_vecINS0_11hidl_stringEEE
_ZN7android8hardware5audio4V4_021BpHwStreamOutCallback7onErrorEv
_ZN7android8hardware5audio4V4_021BpHwStreamOutCallbackC1ERKNS_2spINS0_7IBinderEEE
_ZN7android8hardware5audio4V4_021BpHwStreamOutCallbackC2ERKNS_2spINS0_7IBinderEEE
_ZN7android8hardware5audio4V4_021writeEmbeddedToParcelERKNS2_12SinkMetadataEPNS0_6ParcelEjj
_ZN7android8hardware5audio4V4_021writeEmbeddedToParcelERKNS2_13DeviceAddressEPNS0_6ParcelEjj
_ZN7android8hardware5audio4V4_021writeEmbeddedToParcelERKNS2_14MicrophoneInfoEPNS0_6ParcelEjj
_ZN7android8hardware5audio4V4_021writeEmbeddedToParcelERKNS2_14MmapBufferInfoEPNS0_6ParcelEjj
_ZN7android8hardware5audio4V4_021writeEmbeddedToParcelERKNS2_14ParameterValueEPNS0_6ParcelEjj
_ZN7android8hardware5audio4V4_021writeEmbeddedToParcelERKNS2_14SourceMetadataEPNS0_6ParcelEjj
_ZN7android8hardware5audio4V4_022readEmbeddedFromParcelERKNS2_12SinkMetadataERKNS0_6ParcelEjj
_ZN7android8hardware5audio4V4_022readEmbeddedFromParcelERKNS2_13DeviceAddressERKNS0_6ParcelEjj
_ZN7android8hardware5audio4V4_022readEmbeddedFromParcelERKNS2_14MicrophoneInfoERKNS0_6ParcelEjj
_ZN7android8hardware5audio4V4_022readEmbeddedFromParcelERKNS2_14MmapBufferInfoERKNS0_6ParcelEjj
_ZN7android8hardware5audio4V4_022readEmbeddedFromParcelERKNS2_14ParameterValueERKNS0_6ParcelEjj
_ZN7android8hardware5audio4V4_022readEmbeddedFromParcelERKNS2_14SourceMetadataERKNS0_6ParcelEjj
_ZN7android8hardware5audio4V4_07IDevice10descriptorE
_ZN7android8hardware5audio4V4_07IDevice10getServiceERKNSt3__112basic_stringIcNS4_11char_traitsIcEENS4_9allocatorIcEEEEb
_ZN7android8hardware5audio4V4_07IDevice11linkToDeathERKNS_2spINS0_20hidl_death_recipientEEEy
_ZN7android8hardware5audio4V4_07IDevice12getDebugInfoENSt3__18functionIFvRKNS_4hidl4base4V1_09DebugInfoEEEE
_ZN7android8hardware5audio4V4_07IDevice12getHashChainENSt3__18functionIFvRKNS0_8hidl_vecINS0_10hidl_arrayIhLj32EJEEEEEEEE
_ZN7android8hardware5audio4V4_07IDevice13tryGetServiceERKNSt3__112basic_stringIcNS4_11char_traitsIcEENS4_9allocatorIcEEEEb
_ZN7android8hardware5audio4V4_07IDevice13unlinkToDeathERKNS_2spINS0_20hidl_death_recipientEEE
_ZN7android8hardware5audio4V4_07IDevice14interfaceChainENSt3__18functionIFvRKNS0_8hidl_vecINS0_11hidl_stringEEEEEE
_ZN7android8hardware5audio4V4_07IDevice17registerAsServiceERKNSt3__112basic_stringIcNS4_11char_traitsIcEENS4_9allocatorIcEEEE
_ZN7android8hardware5audio4V4_07IDevice19interfaceDescriptorENSt3__18functionIFvRKNS0_11hidl_stringEEEE
_ZN7android8hardware5audio4V4_07IDevice21notifySyspropsChangedEv
_ZN7android8hardware5audio4V4_07IDevice21setHALInstrumentationEv
_ZN7android8hardware5audio4V4_07IDevice24registerForNotificationsERKNSt3__112basic_stringIcNS4_11char_traitsIcEENS4_9allocatorIcEEEERKNS_2spINS_4hidl7manager4V1_020IServiceNotificationEEE
_ZN7android8hardware5audio4V4_07IDevice4pingEv
_ZN7android8hardware5audio4V4_07IDevice5debugERKNS0_11hidl_handleERKNS0_8hidl_vecINS0_11hidl_stringEEE
_ZN7android8hardware5audio4V4_07IDevice8castFromERKNS_2spINS_4hidl4base4V1_05IBaseEEEb
_ZN7android8hardware5audio4V4_07IDevice8castFromERKNS_2spIS3_EEb
_ZN7android8hardware5audio4V4_07IStream10descriptorE
_ZN7android8hardware5audio4V4_07IStream10getServiceERKNSt3__112basic_stringIcNS4_11char_traitsIcEENS4_9allocatorIcEEEEb
_ZN7android8hardware5audio4V4_07IStream11linkToDeathERKNS_2spINS0_20hidl_death_recipientEEEy
_ZN7android8hardware5audio4V4_07IStream12getDebugInfoENSt3__18functionIFvRKNS_4hidl4base4V1_09DebugInfoEEEE
_ZN7android8hardware5audio4V4_07IStream12getHashChainENSt3__18functionIFvRKNS0_8hidl_vecINS0_10hidl_arrayIhLj32EJEEEEEEEE
_ZN7android8hardware5audio4V4_07IStream13tryGetServiceERKNSt3__112basic_stringIcNS4_11char_traitsIcEENS4_9allocatorIcEEEEb
_ZN7android8hardware5audio4V4_07IStream13unlinkToDeathERKNS_2spINS0_20hidl_death_recipientEEE
_ZN7android8hardware5audio4V4_07IStream14interfaceChainENSt3__18functionIFvRKNS0_8hidl_vecINS0_11hidl_stringEEEEEE
_ZN7android8hardware5audio4V4_07IStream17registerAsServiceERKNSt3__112basic_stringIcNS4_11char_traitsIcEENS4_9allocatorIcEEEE
_ZN7android8hardware5audio4V4_07IStream19interfaceDescriptorENSt3__18functionIFvRKNS0_11hidl_stringEEEE
_ZN7android8hardware5audio4V4_07IStream21notifySyspropsChangedEv
_ZN7android8hardware5audio4V4_07IStream21setHALInstrumentationEv
_ZN7android8hardware5audio4V4_07IStream24registerForNotificationsERKNSt3__112basic_stringIcNS4_11char_traitsIcEENS4_9allocatorIcEEEERKNS_2spINS_4hidl7manager4V1_020IServiceNotificationEEE
_ZN7android8hardware5audio4V4_07IStream4pingEv
_ZN7android8hardware5audio4V4_07IStream5debugERKNS0_11hidl_handleERKNS0_8hidl_vecINS0_11hidl_stringEEE
_ZN7android8hardware5audio4V4_07IStream8castFromERKNS_2spINS_4hidl4base4V1_05IBaseEEEb
_ZN7android8hardware5audio4V4_07IStream8castFromERKNS_2spIS3_EEb
_ZN7android8hardware5audio4V4_08BsDevice13addOnewayTaskENSt3__18functionIFvvEEE
_ZN7android8hardware5audio4V4_08BsDeviceC1ENS_2spINS2_7IDeviceEEE
_ZN7android8hardware5audio4V4_08BsDeviceC2ENS_2spINS2_7IDeviceEEE
_ZN7android8hardware5audio4V4_08BsStream13addOnewayTaskENSt3__18functionIFvvEEE
_ZN7android8hardware5audio4V4_08BsStreamC1ENS_2spINS2_7IStreamEEE
_ZN7android8hardware5audio4V4_08BsStreamC2ENS_2spINS2_7IStreamEEE
_ZN7android8hardware5audio4V4_09IStreamIn10descriptorE
_ZN7android8hardware5audio4V4_09IStreamIn10getServiceERKNSt3__112basic_stringIcNS4_11char_traitsIcEENS4_9allocatorIcEEEEb
_ZN7android8hardware5audio4V4_09IStreamIn11linkToDeathERKNS_2spINS0_20hidl_death_recipientEEEy
_ZN7android8hardware5audio4V4_09IStreamIn12getDebugInfoENSt3__18functionIFvRKNS_4hidl4base4V1_09DebugInfoEEEE
_ZN7android8hardware5audio4V4_09IStreamIn12getHashChainENSt3__18functionIFvRKNS0_8hidl_vecINS0_10hidl_arrayIhLj32EJEEEEEEEE
_ZN7android8hardware5audio4V4_09IStreamIn13tryGetServiceERKNSt3__112basic_stringIcNS4_11char_traitsIcEENS4_9allocatorIcEEEEb
_ZN7android8hardware5audio4V4_09IStreamIn13unlinkToDeathERKNS_2spINS0_20hidl_death_recipientEEE
_ZN7android8hardware5audio4V4_09IStreamIn14interfaceChainENSt3__18functionIFvRKNS0_8hidl_vecINS0_11hidl_stringEEEEEE
_ZN7android8hardware5audio4V4_09IStreamIn17registerAsServiceERKNSt3__112basic_stringIcNS4_11char_traitsIcEENS4_9allocatorIcEEEE
_ZN7android8hardware5audio4V4_09IStreamIn19interfaceDescriptorENSt3__18functionIFvRKNS0_11hidl_stringEEEE
_ZN7android8hardware5audio4V4_09IStreamIn21notifySyspropsChangedEv
_ZN7android8hardware5audio4V4_09IStreamIn21setHALInstrumentationEv
_ZN7android8hardware5audio4V4_09IStreamIn24registerForNotificationsERKNSt3__112basic_stringIcNS4_11char_traitsIcEENS4_9allocatorIcEEEERKNS_2spINS_4hidl7manager4V1_020IServiceNotificationEEE
_ZN7android8hardware5audio4V4_09IStreamIn4pingEv
_ZN7android8hardware5audio4V4_09IStreamIn5debugERKNS0_11hidl_handleERKNS0_8hidl_vecINS0_11hidl_stringEEE
_ZN7android8hardware5audio4V4_09IStreamIn8castFromERKNS_2spINS2_7IStreamEEEb
_ZN7android8hardware5audio4V4_09IStreamIn8castFromERKNS_2spINS_4hidl4base4V1_05IBaseEEEb
_ZN7android8hardware5audio4V4_09IStreamIn8castFromERKNS_2spIS3_EEb
_ZTCN7android8hardware5audio4V4_010BnHwDeviceE0_NS0_7IBinderE
_ZTCN7android8hardware5audio4V4_010BnHwDeviceE0_NS0_9BHwBinderE
_ZTCN7android8hardware5audio4V4_010BnHwDeviceE0_NS_4hidl4base4V1_08BnHwBaseE
_ZTCN7android8hardware5audio4V4_010BnHwStreamE0_NS0_7IBinderE
_ZTCN7android8hardware5audio4V4_010BnHwStreamE0_NS0_9BHwBinderE
_ZTCN7android8hardware5audio4V4_010BnHwStreamE0_NS_4hidl4base4V1_08BnHwBaseE
_ZTCN7android8hardware5audio4V4_010BpHwDeviceE0_NS0_11BpInterfaceINS2_7IDeviceEEE
_ZTCN7android8hardware5audio4V4_010BpHwDeviceE0_NS2_7IDeviceE
_ZTCN7android8hardware5audio4V4_010BpHwDeviceE0_NS_4hidl4base4V1_05IBaseE
_ZTCN7android8hardware5audio4V4_010BpHwDeviceE4_NS0_10IInterfaceE
_ZTCN7android8hardware5audio4V4_010BpHwDeviceE8_NS0_11BpHwRefBaseE
_ZTCN7android8hardware5audio4V4_010BpHwStreamE0_NS0_11BpInterfaceINS2_7IStreamEEE
_ZTCN7android8hardware5audio4V4_010BpHwStreamE0_NS2_7IStreamE
_ZTCN7android8hardware5audio4V4_010BpHwStreamE0_NS_4hidl4base4V1_05IBaseE
_ZTCN7android8hardware5audio4V4_010BpHwStreamE4_NS0_10IInterfaceE
_ZTCN7android8hardware5audio4V4_010BpHwStreamE8_NS0_11BpHwRefBaseE
_ZTCN7android8hardware5audio4V4_010IStreamOutE0_NS2_7IStreamE
_ZTCN7android8hardware5audio4V4_010IStreamOutE0_NS_4hidl4base4V1_05IBaseE
_ZTCN7android8hardware5audio4V4_012BnHwStreamInE0_NS0_7IBinderE
_ZTCN7android8hardware5audio4V4_012BnHwStreamInE0_NS0_9BHwBinderE
_ZTCN7android8hardware5audio4V4_012BnHwStreamInE0_NS_4hidl4base4V1_08BnHwBaseE
_ZTCN7android8hardware5audio4V4_012BpHwStreamInE0_NS0_11BpInterfaceINS2_9IStreamInEEE
_ZTCN7android8hardware5audio4V4_012BpHwStreamInE0_NS2_7IStreamE
_ZTCN7android8hardware5audio4V4_012BpHwStreamInE0_NS2_9IStreamInE
_ZTCN7android8hardware5audio4V4_012BpHwStreamInE0_NS_4hidl4base4V1_05IBaseE
_ZTCN7android8hardware5audio4V4_012BpHwStreamInE4_NS0_10IInterfaceE
_ZTCN7android8hardware5audio4V4_012BpHwStreamInE8_NS0_11BpHwRefBaseE
_ZTCN7android8hardware5audio4V4_013BnHwStreamOutE0_NS0_7IBinderE
_ZTCN7android8hardware5audio4V4_013BnHwStreamOutE0_NS0_9BHwBinderE
_ZTCN7android8hardware5audio4V4_013BnHwStreamOutE0_NS_4hidl4base4V1_08BnHwBaseE
_ZTCN7android8hardware5audio4V4_013BpHwStreamOutE0_NS0_11BpInterfaceINS2_10IStreamOutEEE
_ZTCN7android8hardware5audio4V4_013BpHwStreamOutE0_NS2_10IStreamOutE
_ZTCN7android8hardware5audio4V4_013BpHwStreamOutE0_NS2_7IStreamE
_ZTCN7android8hardware5audio4V4_013BpHwStreamOutE0_NS_4hidl4base4V1_05IBaseE
_ZTCN7android8hardware5audio4V4_013BpHwStreamOutE4_NS0_10IInterfaceE
_ZTCN7android8hardware5audio4V4_013BpHwStreamOutE8_NS0_11BpHwRefBaseE
_ZTCN7android8hardware5audio4V4_014IPrimaryDeviceE0_NS2_7IDeviceE
_ZTCN7android8hardware5audio4V4_014IPrimaryDeviceE0_NS_4hidl4base4V1_05IBaseE
_ZTCN7android8hardware5audio4V4_015IDevicesFactoryE0_NS_4hidl4base4V1_05IBaseE
_ZTCN7android8hardware5audio4V4_017BnHwPrimaryDeviceE0_NS0_7IBinderE
_ZTCN7android8hardware5audio4V4_017BnHwPrimaryDeviceE0_NS0_9BHwBinderE
_ZTCN7android8hardware5audio4V4_017BnHwPrimaryDeviceE0_NS_4hidl4base4V1_08BnHwBaseE
_ZTCN7android8hardware5audio4V4_017BpHwPrimaryDeviceE0_NS0_11BpInterfaceINS2_14IPrimaryDeviceEEE
_ZTCN7android8hardware5audio4V4_017BpHwPrimaryDeviceE0_NS2_14IPrimaryDeviceE
_ZTCN7android8hardware5audio4V4_017BpHwPrimaryDeviceE0_NS2_7IDeviceE
_ZTCN7android8hardware5audio4V4_017BpHwPrimaryDeviceE0_NS_4hidl4base4V1_05IBaseE
_ZTCN7android8hardware5audio4V4_017BpHwPrimaryDeviceE4_NS0_10IInterfaceE
_ZTCN7android8hardware5audio4V4_017BpHwPrimaryDeviceE8_NS0_11BpHwRefBaseE
_ZTCN7android8hardware5audio4V4_018BnHwDevicesFactoryE0_NS0_7IBinderE
_ZTCN7android8hardware5audio4V4_018BnHwDevicesFactoryE0_NS0_9BHwBinderE
_ZTCN7android8hardware5audio4V4_018BnHwDevicesFactoryE0_NS_4hidl4base4V1_08BnHwBaseE
_ZTCN7android8hardware5audio4V4_018BpHwDevicesFactoryE0_NS0_11BpInterfaceINS2_15IDevicesFactoryEEE
_ZTCN7android8hardware5audio4V4_018BpHwDevicesFactoryE0_NS2_15IDevicesFactoryE
_ZTCN7android8hardware5audio4V4_018BpHwDevicesFactoryE0_NS_4hidl4base4V1_05IBaseE
_ZTCN7android8hardware5audio4V4_018BpHwDevicesFactoryE4_NS0_10IInterfaceE
_ZTCN7android8hardware5audio4V4_018BpHwDevicesFactoryE8_NS0_11BpHwRefBaseE
_ZTCN7android8hardware5audio4V4_018IStreamOutCallbackE0_NS_4hidl4base4V1_05IBaseE
_ZTCN7android8hardware5audio4V4_021BnHwStreamOutCallbackE0_NS0_7IBinderE
_ZTCN7android8hardware5audio4V4_021BnHwStreamOutCallbackE0_NS0_9BHwBinderE
_ZTCN7android8hardware5audio4V4_021BnHwStreamOutCallbackE0_NS_4hidl4base4V1_08BnHwBaseE
_ZTCN7android8hardware5audio4V4_021BpHwStreamOutCallbackE0_NS0_11BpInterfaceINS2_18IStreamOutCallbackEEE
_ZTCN7android8hardware5audio4V4_021BpHwStreamOutCallbackE0_NS2_18IStreamOutCallbackE
_ZTCN7android8hardware5audio4V4_021BpHwStreamOutCallbackE0_NS_4hidl4base4V1_05IBaseE
_ZTCN7android8hardware5audio4V4_021BpHwStreamOutCallbackE4_NS0_10IInterfaceE
_ZTCN7android8hardware5audio4V4_021BpHwStreamOutCallbackE8_NS0_11BpHwRefBaseE
_ZTCN7android8hardware5audio4V4_07IDeviceE0_NS_4hidl4base4V1_05IBaseE
_ZTCN7android8hardware5audio4V4_07IStreamE0_NS_4hidl4base4V1_05IBaseE
_ZTCN7android8hardware5audio4V4_09IStreamInE0_NS2_7IStreamE
_ZTCN7android8hardware5audio4V4_09IStreamInE0_NS_4hidl4base4V1_05IBaseE
_ZTTN7android8hardware5audio4V4_010BnHwDeviceE
_ZTTN7android8hardware5audio4V4_010BnHwStreamE
_ZTTN7android8hardware5audio4V4_010BpHwDeviceE
_ZTTN7android8hardware5audio4V4_010BpHwStreamE
_ZTTN7android8hardware5audio4V4_010IStreamOutE
_ZTTN7android8hardware5audio4V4_012BnHwStreamInE
_ZTTN7android8hardware5audio4V4_012BpHwStreamInE
_ZTTN7android8hardware5audio4V4_013BnHwStreamOutE
_ZTTN7android8hardware5audio4V4_013BpHwStreamOutE
_ZTTN7android8hardware5audio4V4_014IPrimaryDeviceE
_ZTTN7android8hardware5audio4V4_015IDevicesFactoryE
_ZTTN7android8hardware5audio4V4_017BnHwPrimaryDeviceE
_ZTTN7android8hardware5audio4V4_017BpHwPrimaryDeviceE
_ZTTN7android8hardware5audio4V4_018BnHwDevicesFactoryE
_ZTTN7android8hardware5audio4V4_018BpHwDevicesFactoryE
_ZTTN7android8hardware5audio4V4_018IStreamOutCallbackE
_ZTTN7android8hardware5audio4V4_021BnHwStreamOutCallbackE
_ZTTN7android8hardware5audio4V4_021BpHwStreamOutCallbackE
_ZTTN7android8hardware5audio4V4_07IDeviceE
_ZTTN7android8hardware5audio4V4_07IStreamE
_ZTTN7android8hardware5audio4V4_09IStreamInE
_ZTVN7android8hardware5audio4V4_010BnHwDeviceE
_ZTVN7android8hardware5audio4V4_010BnHwStreamE
_ZTVN7android8hardware5audio4V4_010BpHwDeviceE
_ZTVN7android8hardware5audio4V4_010BpHwStreamE
_ZTVN7android8hardware5audio4V4_010IStreamOutE
_ZTVN7android8hardware5audio4V4_012BnHwStreamInE
_ZTVN7android8hardware5audio4V4_012BpHwStreamInE
_ZTVN7android8hardware5audio4V4_013BnHwStreamOutE
_ZTVN7android8hardware5audio4V4_013BpHwStreamOutE
_ZTVN7android8hardware5audio4V4_014IPrimaryDeviceE
_ZTVN7android8hardware5audio4V4_015IDevicesFactoryE
_ZTVN7android8hardware5audio4V4_017BnHwPrimaryDeviceE
_ZTVN7android8hardware5audio4V4_017BpHwPrimaryDeviceE
_ZTVN7android8hardware5audio4V4_018BnHwDevicesFactoryE
_ZTVN7android8hardware5audio4V4_018BpHwDevicesFactoryE
_ZTVN7android8hardware5audio4V4_018IStreamOutCallbackE
_ZTVN7android8hardware5audio4V4_021BnHwStreamOutCallbackE
_ZTVN7android8hardware5audio4V4_021BpHwStreamOutCallbackE
_ZTVN7android8hardware5audio4V4_07IDeviceE
_ZTVN7android8hardware5audio4V4_07IStreamE
_ZTVN7android8hardware5audio4V4_09IStreamInE
_ZThn20_N7android8hardware5audio4V4_010BnHwDeviceD0Ev
_ZThn20_N7android8hardware5audio4V4_010BnHwDeviceD1Ev
_ZThn20_N7android8hardware5audio4V4_010BnHwStreamD0Ev
_ZThn20_N7android8hardware5audio4V4_010BnHwStreamD1Ev
_ZThn20_N7android8hardware5audio4V4_012BnHwStreamInD0Ev
_ZThn20_N7android8hardware5audio4V4_012BnHwStreamInD1Ev
_ZThn20_N7android8hardware5audio4V4_013BnHwStreamOutD0Ev
_ZThn20_N7android8hardware5audio4V4_013BnHwStreamOutD1Ev
_ZThn20_N7android8hardware5audio4V4_017BnHwPrimaryDeviceD0Ev
_ZThn20_N7android8hardware5audio4V4_017BnHwPrimaryDeviceD1Ev
_ZThn20_N7android8hardware5audio4V4_018BnHwDevicesFactoryD0Ev
_ZThn20_N7android8hardware5audio4V4_018BnHwDevicesFactoryD1Ev
_ZThn20_N7android8hardware5audio4V4_021BnHwStreamOutCallbackD0Ev
_ZThn20_N7android8hardware5audio4V4_021BnHwStreamOutCallbackD1Ev
_ZTv0_n12_N7android8hardware5audio4V4_010BnHwDeviceD0Ev
_ZTv0_n12_N7android8hardware5audio4V4_010BnHwDeviceD1Ev
_ZTv0_n12_N7android8hardware5audio4V4_010BnHwStreamD0Ev
_ZTv0_n12_N7android8hardware5audio4V4_010BnHwStreamD1Ev
_ZTv0_n12_N7android8hardware5audio4V4_012BnHwStreamInD0Ev
_ZTv0_n12_N7android8hardware5audio4V4_012BnHwStreamInD1Ev
_ZTv0_n12_N7android8hardware5audio4V4_013BnHwStreamOutD0Ev
_ZTv0_n12_N7android8hardware5audio4V4_013BnHwStreamOutD1Ev
_ZTv0_n12_N7android8hardware5audio4V4_017BnHwPrimaryDeviceD0Ev
_ZTv0_n12_N7android8hardware5audio4V4_017BnHwPrimaryDeviceD1Ev
_ZTv0_n12_N7android8hardware5audio4V4_018BnHwDevicesFactoryD0Ev
_ZTv0_n12_N7android8hardware5audio4V4_018BnHwDevicesFactoryD1Ev
_ZTv0_n12_N7android8hardware5audio4V4_021BnHwStreamOutCallbackD0Ev
_ZTv0_n12_N7android8hardware5audio4V4_021BnHwStreamOutCallbackD1Ev
