_ZN7android8hardware8graphics11bufferqueue4V1_017IProducerListener10descriptorE
_ZN7android8hardware8graphics11bufferqueue4V1_017IProducerListener10getServiceERKNSt3__112basic_stringIcNS5_11char_traitsIcEENS5_9allocatorIcEEEEb
_ZN7android8hardware8graphics11bufferqueue4V1_017IProducerListener11linkToDeathERKNS_2spINS0_20hidl_death_recipientEEEy
_ZN7android8hardware8graphics11bufferqueue4V1_017IProducerListener12getDebugInfoENSt3__18functionIFvRKNS_4hidl4base4V1_09DebugInfoEEEE
_ZN7android8hardware8graphics11bufferqueue4V1_017IProducerListener12getHashChainENSt3__18functionIFvRKNS0_8hidl_vecINS0_10hidl_arrayIhLj32EJEEEEEEEE
_ZN7android8hardware8graphics11bufferqueue4V1_017IProducerListener13tryGetServiceERKNSt3__112basic_stringIcNS5_11char_traitsIcEENS5_9allocatorIcEEEEb
_ZN7android8hardware8graphics11bufferqueue4V1_017IProducerListener13unlinkToDeathERKNS_2spINS0_20hidl_death_recipientEEE
_ZN7android8hardware8graphics11bufferqueue4V1_017IProducerListener14interfaceChainENSt3__18functionIFvRKNS0_8hidl_vecINS0_11hidl_stringEEEEEE
_ZN7android8hardware8graphics11bufferqueue4V1_017IProducerListener17registerAsServiceERKNSt3__112basic_stringIcNS5_11char_traitsIcEENS5_9allocatorIcEEEE
_ZN7android8hardware8graphics11bufferqueue4V1_017IProducerListener19interfaceDescriptorENSt3__18functionIFvRKNS0_11hidl_stringEEEE
_ZN7android8hardware8graphics11bufferqueue4V1_017IProducerListener21notifySyspropsChangedEv
_ZN7android8hardware8graphics11bufferqueue4V1_017IProducerListener21setHALInstrumentationEv
_ZN7android8hardware8graphics11bufferqueue4V1_017IProducerListener24registerForNotificationsERKNSt3__112basic_stringIcNS5_11char_traitsIcEENS5_9allocatorIcEEEERKNS_2spINS_4hidl7manager4V1_020IServiceNotificationEEE
_ZN7android8hardware8graphics11bufferqueue4V1_017IProducerListener4pingEv
_ZN7android8hardware8graphics11bufferqueue4V1_017IProducerListener5debugERKNS0_11hidl_handleERKNS0_8hidl_vecINS0_11hidl_stringEEE
_ZN7android8hardware8graphics11bufferqueue4V1_017IProducerListener8castFromERKNS_2spINS_4hidl4base4V1_05IBaseEEEb
_ZN7android8hardware8graphics11bufferqueue4V1_017IProducerListener8castFromERKNS_2spIS4_EEb
_ZN7android8hardware8graphics11bufferqueue4V1_018BsProducerListener13addOnewayTaskENSt3__18functionIFvvEEE
_ZN7android8hardware8graphics11bufferqueue4V1_018BsProducerListenerC1ENS_2spINS3_17IProducerListenerEEE
_ZN7android8hardware8graphics11bufferqueue4V1_018BsProducerListenerC2ENS_2spINS3_17IProducerListenerEEE
_ZN7android8hardware8graphics11bufferqueue4V1_020BnHwProducerListener10onTransactEjRKNS0_6ParcelEPS5_jNSt3__18functionIFvRS5_EEE
_ZN7android8hardware8graphics11bufferqueue4V1_020BnHwProducerListener12getDebugInfoENSt3__18functionIFvRKNS_4hidl4base4V1_09DebugInfoEEEE
_ZN7android8hardware8graphics11bufferqueue4V1_020BnHwProducerListener22_hidl_onBufferReleasedEPNS_4hidl4base4V1_08BnHwBaseERKNS0_6ParcelEPSA_NSt3__18functionIFvRSA_EEE
_ZN7android8hardware8graphics11bufferqueue4V1_020BnHwProducerListener24_hidl_needsReleaseNotifyEPNS_4hidl4base4V1_08BnHwBaseERKNS0_6ParcelEPSA_NSt3__18functionIFvRSA_EEE
_ZN7android8hardware8graphics11bufferqueue4V1_020BnHwProducerListener4pingEv
_ZN7android8hardware8graphics11bufferqueue4V1_020BnHwProducerListenerC1ERKNS_2spINS3_17IProducerListenerEEE
_ZN7android8hardware8graphics11bufferqueue4V1_020BnHwProducerListenerC2ERKNS_2spINS3_17IProducerListenerEEE
_ZN7android8hardware8graphics11bufferqueue4V1_020BnHwProducerListenerD0Ev
_ZN7android8hardware8graphics11bufferqueue4V1_020BnHwProducerListenerD1Ev
_ZN7android8hardware8graphics11bufferqueue4V1_020BnHwProducerListenerD2Ev
_ZN7android8hardware8graphics11bufferqueue4V1_020BpHwProducerListener11linkToDeathERKNS_2spINS0_20hidl_death_recipientEEEy
_ZN7android8hardware8graphics11bufferqueue4V1_020BpHwProducerListener12getDebugInfoENSt3__18functionIFvRKNS_4hidl4base4V1_09DebugInfoEEEE
_ZN7android8hardware8graphics11bufferqueue4V1_020BpHwProducerListener12getHashChainENSt3__18functionIFvRKNS0_8hidl_vecINS0_10hidl_arrayIhLj32EJEEEEEEEE
_ZN7android8hardware8graphics11bufferqueue4V1_020BpHwProducerListener13unlinkToDeathERKNS_2spINS0_20hidl_death_recipientEEE
_ZN7android8hardware8graphics11bufferqueue4V1_020BpHwProducerListener14interfaceChainENSt3__18functionIFvRKNS0_8hidl_vecINS0_11hidl_stringEEEEEE
_ZN7android8hardware8graphics11bufferqueue4V1_020BpHwProducerListener16onBufferReleasedEv
_ZN7android8hardware8graphics11bufferqueue4V1_020BpHwProducerListener18needsReleaseNotifyEv
_ZN7android8hardware8graphics11bufferqueue4V1_020BpHwProducerListener19interfaceDescriptorENSt3__18functionIFvRKNS0_11hidl_stringEEEE
_ZN7android8hardware8graphics11bufferqueue4V1_020BpHwProducerListener21notifySyspropsChangedEv
_ZN7android8hardware8graphics11bufferqueue4V1_020BpHwProducerListener21setHALInstrumentationEv
_ZN7android8hardware8graphics11bufferqueue4V1_020BpHwProducerListener22_hidl_onBufferReleasedEPNS0_10IInterfaceEPNS0_7details16HidlInstrumentorE
_ZN7android8hardware8graphics11bufferqueue4V1_020BpHwProducerListener24_hidl_needsReleaseNotifyEPNS0_10IInterfaceEPNS0_7details16HidlInstrumentorE
_ZN7android8hardware8graphics11bufferqueue4V1_020BpHwProducerListener4pingEv
_ZN7android8hardware8graphics11bufferqueue4V1_020BpHwProducerListener5debugERKNS0_11hidl_handleERKNS0_8hidl_vecINS0_11hidl_stringEEE
_ZN7android8hardware8graphics11bufferqueue4V1_020BpHwProducerListenerC1ERKNS_2spINS0_7IBinderEEE
_ZN7android8hardware8graphics11bufferqueue4V1_020BpHwProducerListenerC2ERKNS_2spINS0_7IBinderEEE
_ZN7android8hardware8graphics11bufferqueue4V1_021writeEmbeddedToParcelERKNS3_22IGraphicBufferProducer16FrameEventsDeltaEPNS0_6ParcelEjj
_ZN7android8hardware8graphics11bufferqueue4V1_021writeEmbeddedToParcelERKNS3_22IGraphicBufferProducer16QueueBufferInputEPNS0_6ParcelEjj
_ZN7android8hardware8graphics11bufferqueue4V1_021writeEmbeddedToParcelERKNS3_22IGraphicBufferProducer17FenceTimeSnapshotEPNS0_6ParcelEjj
_ZN7android8hardware8graphics11bufferqueue4V1_021writeEmbeddedToParcelERKNS3_22IGraphicBufferProducer17QueueBufferOutputEPNS0_6ParcelEjj
_ZN7android8hardware8graphics11bufferqueue4V1_021writeEmbeddedToParcelERKNS3_22IGraphicBufferProducer22FrameEventHistoryDeltaEPNS0_6ParcelEjj
_ZN7android8hardware8graphics11bufferqueue4V1_022IGraphicBufferProducer10descriptorE
_ZN7android8hardware8graphics11bufferqueue4V1_022IGraphicBufferProducer10getServiceERKNSt3__112basic_stringIcNS5_11char_traitsIcEENS5_9allocatorIcEEEEb
_ZN7android8hardware8graphics11bufferqueue4V1_022IGraphicBufferProducer11linkToDeathERKNS_2spINS0_20hidl_death_recipientEEEy
_ZN7android8hardware8graphics11bufferqueue4V1_022IGraphicBufferProducer12getDebugInfoENSt3__18functionIFvRKNS_4hidl4base4V1_09DebugInfoEEEE
_ZN7android8hardware8graphics11bufferqueue4V1_022IGraphicBufferProducer12getHashChainENSt3__18functionIFvRKNS0_8hidl_vecINS0_10hidl_arrayIhLj32EJEEEEEEEE
_ZN7android8hardware8graphics11bufferqueue4V1_022IGraphicBufferProducer13tryGetServiceERKNSt3__112basic_stringIcNS5_11char_traitsIcEENS5_9allocatorIcEEEEb
_ZN7android8hardware8graphics11bufferqueue4V1_022IGraphicBufferProducer13unlinkToDeathERKNS_2spINS0_20hidl_death_recipientEEE
_ZN7android8hardware8graphics11bufferqueue4V1_022IGraphicBufferProducer14interfaceChainENSt3__18functionIFvRKNS0_8hidl_vecINS0_11hidl_stringEEEEEE
_ZN7android8hardware8graphics11bufferqueue4V1_022IGraphicBufferProducer17registerAsServiceERKNSt3__112basic_stringIcNS5_11char_traitsIcEENS5_9allocatorIcEEEE
_ZN7android8hardware8graphics11bufferqueue4V1_022IGraphicBufferProducer19interfaceDescriptorENSt3__18functionIFvRKNS0_11hidl_stringEEEE
_ZN7android8hardware8graphics11bufferqueue4V1_022IGraphicBufferProducer21notifySyspropsChangedEv
_ZN7android8hardware8graphics11bufferqueue4V1_022IGraphicBufferProducer21setHALInstrumentationEv
_ZN7android8hardware8graphics11bufferqueue4V1_022IGraphicBufferProducer24registerForNotificationsERKNSt3__112basic_stringIcNS5_11char_traitsIcEENS5_9allocatorIcEEEERKNS_2spINS_4hidl7manager4V1_020IServiceNotificationEEE
_ZN7android8hardware8graphics11bufferqueue4V1_022IGraphicBufferProducer4pingEv
_ZN7android8hardware8graphics11bufferqueue4V1_022IGraphicBufferProducer5debugERKNS0_11hidl_handleERKNS0_8hidl_vecINS0_11hidl_stringEEE
_ZN7android8hardware8graphics11bufferqueue4V1_022IGraphicBufferProducer8castFromERKNS_2spINS_4hidl4base4V1_05IBaseEEEb
_ZN7android8hardware8graphics11bufferqueue4V1_022IGraphicBufferProducer8castFromERKNS_2spIS4_EEb
_ZN7android8hardware8graphics11bufferqueue4V1_022readEmbeddedFromParcelERKNS3_22IGraphicBufferProducer16FrameEventsDeltaERKNS0_6ParcelEjj
_ZN7android8hardware8graphics11bufferqueue4V1_022readEmbeddedFromParcelERKNS3_22IGraphicBufferProducer16QueueBufferInputERKNS0_6ParcelEjj
_ZN7android8hardware8graphics11bufferqueue4V1_022readEmbeddedFromParcelERKNS3_22IGraphicBufferProducer17FenceTimeSnapshotERKNS0_6ParcelEjj
_ZN7android8hardware8graphics11bufferqueue4V1_022readEmbeddedFromParcelERKNS3_22IGraphicBufferProducer17QueueBufferOutputERKNS0_6ParcelEjj
_ZN7android8hardware8graphics11bufferqueue4V1_022readEmbeddedFromParcelERKNS3_22IGraphicBufferProducer22FrameEventHistoryDeltaERKNS0_6ParcelEjj
_ZN7android8hardware8graphics11bufferqueue4V1_023BsGraphicBufferProducer13addOnewayTaskENSt3__18functionIFvvEEE
_ZN7android8hardware8graphics11bufferqueue4V1_023BsGraphicBufferProducerC1ENS_2spINS3_22IGraphicBufferProducerEEE
_ZN7android8hardware8graphics11bufferqueue4V1_023BsGraphicBufferProducerC2ENS_2spINS3_22IGraphicBufferProducerEEE
_ZN7android8hardware8graphics11bufferqueue4V1_025BnHwGraphicBufferProducer10onTransactEjRKNS0_6ParcelEPS5_jNSt3__18functionIFvRS5_EEE
_ZN7android8hardware8graphics11bufferqueue4V1_025BnHwGraphicBufferProducer11_hidl_queryEPNS_4hidl4base4V1_08BnHwBaseERKNS0_6ParcelEPSA_NSt3__18functionIFvRSA_EEE
_ZN7android8hardware8graphics11bufferqueue4V1_025BnHwGraphicBufferProducer12getDebugInfoENSt3__18functionIFvRKNS_4hidl4base4V1_09DebugInfoEEEE
_ZN7android8hardware8graphics11bufferqueue4V1_025BnHwGraphicBufferProducer13_hidl_connectEPNS_4hidl4base4V1_08BnHwBaseERKNS0_6ParcelEPSA_NSt3__18functionIFvRSA_EEE
_ZN7android8hardware8graphics11bufferqueue4V1_025BnHwGraphicBufferProducer16_hidl_disconnectEPNS_4hidl4base4V1_08BnHwBaseERKNS0_6ParcelEPSA_NSt3__18functionIFvRSA_EEE
_ZN7android8hardware8graphics11bufferqueue4V1_025BnHwGraphicBufferProducer17_hidl_getUniqueIdEPNS_4hidl4base4V1_08BnHwBaseERKNS0_6ParcelEPSA_NSt3__18functionIFvRSA_EEE
_ZN7android8hardware8graphics11bufferqueue4V1_025BnHwGraphicBufferProducer17_hidl_queueBufferEPNS_4hidl4base4V1_08BnHwBaseERKNS0_6ParcelEPSA_NSt3__18functionIFvRSA_EEE
_ZN7android8hardware8graphics11bufferqueue4V1_025BnHwGraphicBufferProducer18_hidl_attachBufferEPNS_4hidl4base4V1_08BnHwBaseERKNS0_6ParcelEPSA_NSt3__18functionIFvRSA_EEE
_ZN7android8hardware8graphics11bufferqueue4V1_025BnHwGraphicBufferProducer18_hidl_cancelBufferEPNS_4hidl4base4V1_08BnHwBaseERKNS0_6ParcelEPSA_NSt3__18functionIFvRSA_EEE
_ZN7android8hardware8graphics11bufferqueue4V1_025BnHwGraphicBufferProducer18_hidl_detachBufferEPNS_4hidl4base4V1_08BnHwBaseERKNS0_6ParcelEPSA_NSt3__18functionIFvRSA_EEE
_ZN7android8hardware8graphics11bufferqueue4V1_025BnHwGraphicBufferProducer18_hidl_setAsyncModeEPNS_4hidl4base4V1_08BnHwBaseERKNS0_6ParcelEPSA_NSt3__18functionIFvRSA_EEE
_ZN7android8hardware8graphics11bufferqueue4V1_025BnHwGraphicBufferProducer19_hidl_dequeueBufferEPNS_4hidl4base4V1_08BnHwBaseERKNS0_6ParcelEPSA_NSt3__18functionIFvRSA_EEE
_ZN7android8hardware8graphics11bufferqueue4V1_025BnHwGraphicBufferProducer19_hidl_requestBufferEPNS_4hidl4base4V1_08BnHwBaseERKNS0_6ParcelEPSA_NSt3__18functionIFvRSA_EEE
_ZN7android8hardware8graphics11bufferqueue4V1_025BnHwGraphicBufferProducer20_hidl_setAutoRefreshEPNS_4hidl4base4V1_08BnHwBaseERKNS0_6ParcelEPSA_NSt3__18functionIFvRSA_EEE
_ZN7android8hardware8graphics11bufferqueue4V1_025BnHwGraphicBufferProducer21_hidl_allocateBuffersEPNS_4hidl4base4V1_08BnHwBaseERKNS0_6ParcelEPSA_NSt3__18functionIFvRSA_EEE
_ZN7android8hardware8graphics11bufferqueue4V1_025BnHwGraphicBufferProducer21_hidl_allowAllocationEPNS_4hidl4base4V1_08BnHwBaseERKNS0_6ParcelEPSA_NSt3__18functionIFvRSA_EEE
_ZN7android8hardware8graphics11bufferqueue4V1_025BnHwGraphicBufferProducer21_hidl_getConsumerNameEPNS_4hidl4base4V1_08BnHwBaseERKNS0_6ParcelEPSA_NSt3__18functionIFvRSA_EEE
_ZN7android8hardware8graphics11bufferqueue4V1_025BnHwGraphicBufferProducer22_hidl_detachNextBufferEPNS_4hidl4base4V1_08BnHwBaseERKNS0_6ParcelEPSA_NSt3__18functionIFvRSA_EEE
_ZN7android8hardware8graphics11bufferqueue4V1_025BnHwGraphicBufferProducer23_hidl_setDequeueTimeoutEPNS_4hidl4base4V1_08BnHwBaseERKNS0_6ParcelEPSA_NSt3__18functionIFvRSA_EEE
_ZN7android8hardware8graphics11bufferqueue4V1_025BnHwGraphicBufferProducer23_hidl_setSidebandStreamEPNS_4hidl4base4V1_08BnHwBaseERKNS0_6ParcelEPSA_NSt3__18functionIFvRSA_EEE
_ZN7android8hardware8graphics11bufferqueue4V1_025BnHwGraphicBufferProducer24_hidl_getFrameTimestampsEPNS_4hidl4base4V1_08BnHwBaseERKNS0_6ParcelEPSA_NSt3__18functionIFvRSA_EEE
_ZN7android8hardware8graphics11bufferqueue4V1_025BnHwGraphicBufferProducer25_hidl_getLastQueuedBufferEPNS_4hidl4base4V1_08BnHwBaseERKNS0_6ParcelEPSA_NSt3__18functionIFvRSA_EEE
_ZN7android8hardware8graphics11bufferqueue4V1_025BnHwGraphicBufferProducer25_hidl_setGenerationNumberEPNS_4hidl4base4V1_08BnHwBaseERKNS0_6ParcelEPSA_NSt3__18functionIFvRSA_EEE
_ZN7android8hardware8graphics11bufferqueue4V1_025BnHwGraphicBufferProducer25_hidl_setSharedBufferModeEPNS_4hidl4base4V1_08BnHwBaseERKNS0_6ParcelEPSA_NSt3__18functionIFvRSA_EEE
_ZN7android8hardware8graphics11bufferqueue4V1_025BnHwGraphicBufferProducer31_hidl_setMaxDequeuedBufferCountEPNS_4hidl4base4V1_08BnHwBaseERKNS0_6ParcelEPSA_NSt3__18functionIFvRSA_EEE
_ZN7android8hardware8graphics11bufferqueue4V1_025BnHwGraphicBufferProducer4pingEv
_ZN7android8hardware8graphics11bufferqueue4V1_025BnHwGraphicBufferProducerC1ERKNS_2spINS3_22IGraphicBufferProducerEEE
_ZN7android8hardware8graphics11bufferqueue4V1_025BnHwGraphicBufferProducerC2ERKNS_2spINS3_22IGraphicBufferProducerEEE
_ZN7android8hardware8graphics11bufferqueue4V1_025BnHwGraphicBufferProducerD0Ev
_ZN7android8hardware8graphics11bufferqueue4V1_025BnHwGraphicBufferProducerD1Ev
_ZN7android8hardware8graphics11bufferqueue4V1_025BnHwGraphicBufferProducerD2Ev
_ZN7android8hardware8graphics11bufferqueue4V1_025BpHwGraphicBufferProducer10disconnectEiNS3_22IGraphicBufferProducer14DisconnectModeE
_ZN7android8hardware8graphics11bufferqueue4V1_025BpHwGraphicBufferProducer11_hidl_queryEPNS0_10IInterfaceEPNS0_7details16HidlInstrumentorEiNSt3__18functionIFviiEEE
_ZN7android8hardware8graphics11bufferqueue4V1_025BpHwGraphicBufferProducer11getUniqueIdENSt3__18functionIFviyEEE
_ZN7android8hardware8graphics11bufferqueue4V1_025BpHwGraphicBufferProducer11linkToDeathERKNS_2spINS0_20hidl_death_recipientEEEy
_ZN7android8hardware8graphics11bufferqueue4V1_025BpHwGraphicBufferProducer11queueBufferEiRKNS3_22IGraphicBufferProducer16QueueBufferInputENSt3__18functionIFviRKNS5_17QueueBufferOutputEEEE
_ZN7android8hardware8graphics11bufferqueue4V1_025BpHwGraphicBufferProducer12attachBufferERKNS0_5media4V1_09AnwBufferENSt3__18functionIFviiEEE
_ZN7android8hardware8graphics11bufferqueue4V1_025BpHwGraphicBufferProducer12cancelBufferEiRKNS0_11hidl_handleE
_ZN7android8hardware8graphics11bufferqueue4V1_025BpHwGraphicBufferProducer12detachBufferEi
_ZN7android8hardware8graphics11bufferqueue4V1_025BpHwGraphicBufferProducer12getDebugInfoENSt3__18functionIFvRKNS_4hidl4base4V1_09DebugInfoEEEE
_ZN7android8hardware8graphics11bufferqueue4V1_025BpHwGraphicBufferProducer12getHashChainENSt3__18functionIFvRKNS0_8hidl_vecINS0_10hidl_arrayIhLj32EJEEEEEEEE
_ZN7android8hardware8graphics11bufferqueue4V1_025BpHwGraphicBufferProducer12setAsyncModeEb
_ZN7android8hardware8graphics11bufferqueue4V1_025BpHwGraphicBufferProducer13_hidl_connectEPNS0_10IInterfaceEPNS0_7details16HidlInstrumentorERKNS_2spINS3_17IProducerListenerEEEibNSt3__18functionIFviRKNS3_22IGraphicBufferProducer17QueueBufferOutputEEEE
_ZN7android8hardware8graphics11bufferqueue4V1_025BpHwGraphicBufferProducer13dequeueBufferEjjNS1_6common4V1_011PixelFormatEjbNSt3__18functionIFviiRKNS0_11hidl_handleERKNS3_22IGraphicBufferProducer22FrameEventHistoryDeltaEEEE
_ZN7android8hardware8graphics11bufferqueue4V1_025BpHwGraphicBufferProducer13requestBufferEiNSt3__18functionIFviRKNS0_5media4V1_09AnwBufferEEEE
_ZN7android8hardware8graphics11bufferqueue4V1_025BpHwGraphicBufferProducer13unlinkToDeathERKNS_2spINS0_20hidl_death_recipientEEE
_ZN7android8hardware8graphics11bufferqueue4V1_025BpHwGraphicBufferProducer14interfaceChainENSt3__18functionIFvRKNS0_8hidl_vecINS0_11hidl_stringEEEEEE
_ZN7android8hardware8graphics11bufferqueue4V1_025BpHwGraphicBufferProducer14setAutoRefreshEb
_ZN7android8hardware8graphics11bufferqueue4V1_025BpHwGraphicBufferProducer15allocateBuffersEjjNS1_6common4V1_011PixelFormatEj
_ZN7android8hardware8graphics11bufferqueue4V1_025BpHwGraphicBufferProducer15allowAllocationEb
_ZN7android8hardware8graphics11bufferqueue4V1_025BpHwGraphicBufferProducer15getConsumerNameENSt3__18functionIFvRKNS0_11hidl_stringEEEE
_ZN7android8hardware8graphics11bufferqueue4V1_025BpHwGraphicBufferProducer16_hidl_disconnectEPNS0_10IInterfaceEPNS0_7details16HidlInstrumentorEiNS3_22IGraphicBufferProducer14DisconnectModeE
_ZN7android8hardware8graphics11bufferqueue4V1_025BpHwGraphicBufferProducer16detachNextBufferENSt3__18functionIFviRKNS0_5media4V1_09AnwBufferERKNS0_11hidl_handleEEEE
_ZN7android8hardware8graphics11bufferqueue4V1_025BpHwGraphicBufferProducer17_hidl_getUniqueIdEPNS0_10IInterfaceEPNS0_7details16HidlInstrumentorENSt3__18functionIFviyEEE
_ZN7android8hardware8graphics11bufferqueue4V1_025BpHwGraphicBufferProducer17_hidl_queueBufferEPNS0_10IInterfaceEPNS0_7details16HidlInstrumentorEiRKNS3_22IGraphicBufferProducer16QueueBufferInputENSt3__18functionIFviRKNSA_17QueueBufferOutputEEEE
_ZN7android8hardware8graphics11bufferqueue4V1_025BpHwGraphicBufferProducer17setDequeueTimeoutEx
_ZN7android8hardware8graphics11bufferqueue4V1_025BpHwGraphicBufferProducer17setSidebandStreamERKNS0_11hidl_handleE
_ZN7android8hardware8graphics11bufferqueue4V1_025BpHwGraphicBufferProducer18_hidl_attachBufferEPNS0_10IInterfaceEPNS0_7details16HidlInstrumentorERKNS0_5media4V1_09AnwBufferENSt3__18functionIFviiEEE
_ZN7android8hardware8graphics11bufferqueue4V1_025BpHwGraphicBufferProducer18_hidl_cancelBufferEPNS0_10IInterfaceEPNS0_7details16HidlInstrumentorEiRKNS0_11hidl_handleE
_ZN7android8hardware8graphics11bufferqueue4V1_025BpHwGraphicBufferProducer18_hidl_detachBufferEPNS0_10IInterfaceEPNS0_7details16HidlInstrumentorEi
_ZN7android8hardware8graphics11bufferqueue4V1_025BpHwGraphicBufferProducer18_hidl_setAsyncModeEPNS0_10IInterfaceEPNS0_7details16HidlInstrumentorEb
_ZN7android8hardware8graphics11bufferqueue4V1_025BpHwGraphicBufferProducer18getFrameTimestampsENSt3__18functionIFvRKNS3_22IGraphicBufferProducer22FrameEventHistoryDeltaEEEE
_ZN7android8hardware8graphics11bufferqueue4V1_025BpHwGraphicBufferProducer19_hidl_dequeueBufferEPNS0_10IInterfaceEPNS0_7details16HidlInstrumentorEjjNS1_6common4V1_011PixelFormatEjbNSt3__18functionIFviiRKNS0_11hidl_handleERKNS3_22IGraphicBufferProducer22FrameEventHistoryDeltaEEEE
_ZN7android8hardware8graphics11bufferqueue4V1_025BpHwGraphicBufferProducer19_hidl_requestBufferEPNS0_10IInterfaceEPNS0_7details16HidlInstrumentorEiNSt3__18functionIFviRKNS0_5media4V1_09AnwBufferEEEE
_ZN7android8hardware8graphics11bufferqueue4V1_025BpHwGraphicBufferProducer19getLastQueuedBufferENSt3__18functionIFviRKNS0_5media4V1_09AnwBufferERKNS0_11hidl_handleERKNS0_10hidl_arrayIfLj16EJEEEEEE
_ZN7android8hardware8graphics11bufferqueue4V1_025BpHwGraphicBufferProducer19interfaceDescriptorENSt3__18functionIFvRKNS0_11hidl_stringEEEE
_ZN7android8hardware8graphics11bufferqueue4V1_025BpHwGraphicBufferProducer19setGenerationNumberEj
_ZN7android8hardware8graphics11bufferqueue4V1_025BpHwGraphicBufferProducer19setSharedBufferModeEb
_ZN7android8hardware8graphics11bufferqueue4V1_025BpHwGraphicBufferProducer20_hidl_setAutoRefreshEPNS0_10IInterfaceEPNS0_7details16HidlInstrumentorEb
_ZN7android8hardware8graphics11bufferqueue4V1_025BpHwGraphicBufferProducer21_hidl_allocateBuffersEPNS0_10IInterfaceEPNS0_7details16HidlInstrumentorEjjNS1_6common4V1_011PixelFormatEj
_ZN7android8hardware8graphics11bufferqueue4V1_025BpHwGraphicBufferProducer21_hidl_allowAllocationEPNS0_10IInterfaceEPNS0_7details16HidlInstrumentorEb
_ZN7android8hardware8graphics11bufferqueue4V1_025BpHwGraphicBufferProducer21_hidl_getConsumerNameEPNS0_10IInterfaceEPNS0_7details16HidlInstrumentorENSt3__18functionIFvRKNS0_11hidl_stringEEEE
_ZN7android8hardware8graphics11bufferqueue4V1_025BpHwGraphicBufferProducer21notifySyspropsChangedEv
_ZN7android8hardware8graphics11bufferqueue4V1_025BpHwGraphicBufferProducer21setHALInstrumentationEv
_ZN7android8hardware8graphics11bufferqueue4V1_025BpHwGraphicBufferProducer22_hidl_detachNextBufferEPNS0_10IInterfaceEPNS0_7details16HidlInstrumentorENSt3__18functionIFviRKNS0_5media4V1_09AnwBufferERKNS0_11hidl_handleEEEE
_ZN7android8hardware8graphics11bufferqueue4V1_025BpHwGraphicBufferProducer23_hidl_setDequeueTimeoutEPNS0_10IInterfaceEPNS0_7details16HidlInstrumentorEx
_ZN7android8hardware8graphics11bufferqueue4V1_025BpHwGraphicBufferProducer23_hidl_setSidebandStreamEPNS0_10IInterfaceEPNS0_7details16HidlInstrumentorERKNS0_11hidl_handleE
_ZN7android8hardware8graphics11bufferqueue4V1_025BpHwGraphicBufferProducer24_hidl_getFrameTimestampsEPNS0_10IInterfaceEPNS0_7details16HidlInstrumentorENSt3__18functionIFvRKNS3_22IGraphicBufferProducer22FrameEventHistoryDeltaEEEE
_ZN7android8hardware8graphics11bufferqueue4V1_025BpHwGraphicBufferProducer25_hidl_getLastQueuedBufferEPNS0_10IInterfaceEPNS0_7details16HidlInstrumentorENSt3__18functionIFviRKNS0_5media4V1_09AnwBufferERKNS0_11hidl_handleERKNS0_10hidl_arrayIfLj16EJEEEEEE
_ZN7android8hardware8graphics11bufferqueue4V1_025BpHwGraphicBufferProducer25_hidl_setGenerationNumberEPNS0_10IInterfaceEPNS0_7details16HidlInstrumentorEj
_ZN7android8hardware8graphics11bufferqueue4V1_025BpHwGraphicBufferProducer25_hidl_setSharedBufferModeEPNS0_10IInterfaceEPNS0_7details16HidlInstrumentorEb
_ZN7android8hardware8graphics11bufferqueue4V1_025BpHwGraphicBufferProducer25setMaxDequeuedBufferCountEi
_ZN7android8hardware8graphics11bufferqueue4V1_025BpHwGraphicBufferProducer31_hidl_setMaxDequeuedBufferCountEPNS0_10IInterfaceEPNS0_7details16HidlInstrumentorEi
_ZN7android8hardware8graphics11bufferqueue4V1_025BpHwGraphicBufferProducer4pingEv
_ZN7android8hardware8graphics11bufferqueue4V1_025BpHwGraphicBufferProducer5debugERKNS0_11hidl_handleERKNS0_8hidl_vecINS0_11hidl_stringEEE
_ZN7android8hardware8graphics11bufferqueue4V1_025BpHwGraphicBufferProducer5queryEiNSt3__18functionIFviiEEE
_ZN7android8hardware8graphics11bufferqueue4V1_025BpHwGraphicBufferProducer7connectERKNS_2spINS3_17IProducerListenerEEEibNSt3__18functionIFviRKNS3_22IGraphicBufferProducer17QueueBufferOutputEEEE
_ZN7android8hardware8graphics11bufferqueue4V1_025BpHwGraphicBufferProducerC1ERKNS_2spINS0_7IBinderEEE
_ZN7android8hardware8graphics11bufferqueue4V1_025BpHwGraphicBufferProducerC2ERKNS_2spINS0_7IBinderEEE
_ZTCN7android8hardware8graphics11bufferqueue4V1_017IProducerListenerE0_NS_4hidl4base4V1_05IBaseE
_ZTCN7android8hardware8graphics11bufferqueue4V1_020BnHwProducerListenerE0_NS0_7IBinderE
_ZTCN7android8hardware8graphics11bufferqueue4V1_020BnHwProducerListenerE0_NS0_9BHwBinderE
_ZTCN7android8hardware8graphics11bufferqueue4V1_020BnHwProducerListenerE0_NS_4hidl4base4V1_08BnHwBaseE
_ZTCN7android8hardware8graphics11bufferqueue4V1_020BpHwProducerListenerE0_NS0_11BpInterfaceINS3_17IProducerListenerEEE
_ZTCN7android8hardware8graphics11bufferqueue4V1_020BpHwProducerListenerE0_NS3_17IProducerListenerE
_ZTCN7android8hardware8graphics11bufferqueue4V1_020BpHwProducerListenerE0_NS_4hidl4base4V1_05IBaseE
_ZTCN7android8hardware8graphics11bufferqueue4V1_020BpHwProducerListenerE4_NS0_10IInterfaceE
_ZTCN7android8hardware8graphics11bufferqueue4V1_020BpHwProducerListenerE8_NS0_11BpHwRefBaseE
_ZTCN7android8hardware8graphics11bufferqueue4V1_022IGraphicBufferProducerE0_NS_4hidl4base4V1_05IBaseE
_ZTCN7android8hardware8graphics11bufferqueue4V1_025BnHwGraphicBufferProducerE0_NS0_7IBinderE
_ZTCN7android8hardware8graphics11bufferqueue4V1_025BnHwGraphicBufferProducerE0_NS0_9BHwBinderE
_ZTCN7android8hardware8graphics11bufferqueue4V1_025BnHwGraphicBufferProducerE0_NS_4hidl4base4V1_08BnHwBaseE
_ZTCN7android8hardware8graphics11bufferqueue4V1_025BpHwGraphicBufferProducerE0_NS0_11BpInterfaceINS3_22IGraphicBufferProducerEEE
_ZTCN7android8hardware8graphics11bufferqueue4V1_025BpHwGraphicBufferProducerE0_NS3_22IGraphicBufferProducerE
_ZTCN7android8hardware8graphics11bufferqueue4V1_025BpHwGraphicBufferProducerE0_NS_4hidl4base4V1_05IBaseE
_ZTCN7android8hardware8graphics11bufferqueue4V1_025BpHwGraphicBufferProducerE4_NS0_10IInterfaceE
_ZTCN7android8hardware8graphics11bufferqueue4V1_025BpHwGraphicBufferProducerE8_NS0_11BpHwRefBaseE
_ZTTN7android8hardware8graphics11bufferqueue4V1_017IProducerListenerE
_ZTTN7android8hardware8graphics11bufferqueue4V1_020BnHwProducerListenerE
_ZTTN7android8hardware8graphics11bufferqueue4V1_020BpHwProducerListenerE
_ZTTN7android8hardware8graphics11bufferqueue4V1_022IGraphicBufferProducerE
_ZTTN7android8hardware8graphics11bufferqueue4V1_025BnHwGraphicBufferProducerE
_ZTTN7android8hardware8graphics11bufferqueue4V1_025BpHwGraphicBufferProducerE
_ZTVN7android8hardware8graphics11bufferqueue4V1_017IProducerListenerE
_ZTVN7android8hardware8graphics11bufferqueue4V1_020BnHwProducerListenerE
_ZTVN7android8hardware8graphics11bufferqueue4V1_020BpHwProducerListenerE
_ZTVN7android8hardware8graphics11bufferqueue4V1_022IGraphicBufferProducerE
_ZTVN7android8hardware8graphics11bufferqueue4V1_025BnHwGraphicBufferProducerE
_ZTVN7android8hardware8graphics11bufferqueue4V1_025BpHwGraphicBufferProducerE
_ZThn20_N7android8hardware8graphics11bufferqueue4V1_020BnHwProducerListenerD0Ev
_ZThn20_N7android8hardware8graphics11bufferqueue4V1_020BnHwProducerListenerD1Ev
_ZThn20_N7android8hardware8graphics11bufferqueue4V1_025BnHwGraphicBufferProducerD0Ev
_ZThn20_N7android8hardware8graphics11bufferqueue4V1_025BnHwGraphicBufferProducerD1Ev
_ZTv0_n12_N7android8hardware8graphics11bufferqueue4V1_020BnHwProducerListenerD0Ev
_ZTv0_n12_N7android8hardware8graphics11bufferqueue4V1_020BnHwProducerListenerD1Ev
_ZTv0_n12_N7android8hardware8graphics11bufferqueue4V1_025BnHwGraphicBufferProducerD0Ev
_ZTv0_n12_N7android8hardware8graphics11bufferqueue4V1_025BnHwGraphicBufferProducerD1Ev
