_ZN7android8hardware7thermal4V1_011BnHwThermal10onTransactEjRKNS0_6ParcelEPS4_jNSt3__18functionIFvRS4_EEE
_ZN7android8hardware7thermal4V1_011BnHwThermal12getDebugInfoENSt3__18functionIFvRKNS_4hidl4base4V1_09DebugInfoEEEE
_ZN7android8hardware7thermal4V1_011BnHwThermal18_hidl_getCpuUsagesEPNS_4hidl4base4V1_08BnHwBaseERKNS0_6ParcelEPS9_NSt3__18functionIFvRS9_EEE
_ZN7android8hardware7thermal4V1_011BnHwThermal21_hidl_getTemperaturesEPNS_4hidl4base4V1_08BnHwBaseERKNS0_6ParcelEPS9_NSt3__18functionIFvRS9_EEE
_ZN7android8hardware7thermal4V1_011BnHwThermal23_hidl_getCoolingDevicesEPNS_4hidl4base4V1_08BnHwBaseERKNS0_6ParcelEPS9_NSt3__18functionIFvRS9_EEE
_ZN7android8hardware7thermal4V1_011BnHwThermal4pingEv
_ZN7android8hardware7thermal4V1_011BnHwThermalC1ERKNS_2spINS2_8IThermalEEE
_ZN7android8hardware7thermal4V1_011BnHwThermalC2ERKNS_2spINS2_8IThermalEEE
_ZN7android8hardware7thermal4V1_011BnHwThermalD0Ev
_ZN7android8hardware7thermal4V1_011BnHwThermalD1Ev
_ZN7android8hardware7thermal4V1_011BnHwThermalD2Ev
_ZN7android8hardware7thermal4V1_011BpHwThermal11linkToDeathERKNS_2spINS0_20hidl_death_recipientEEEy
_ZN7android8hardware7thermal4V1_011BpHwThermal12getCpuUsagesENSt3__18functionIFvRKNS2_13ThermalStatusERKNS0_8hidl_vecINS2_8CpuUsageEEEEEE
_ZN7android8hardware7thermal4V1_011BpHwThermal12getDebugInfoENSt3__18functionIFvRKNS_4hidl4base4V1_09DebugInfoEEEE
_ZN7android8hardware7thermal4V1_011BpHwThermal12getHashChainENSt3__18functionIFvRKNS0_8hidl_vecINS0_10hidl_arrayIhLj32EJEEEEEEEE
_ZN7android8hardware7thermal4V1_011BpHwThermal13unlinkToDeathERKNS_2spINS0_20hidl_death_recipientEEE
_ZN7android8hardware7thermal4V1_011BpHwThermal14interfaceChainENSt3__18functionIFvRKNS0_8hidl_vecINS0_11hidl_stringEEEEEE
_ZN7android8hardware7thermal4V1_011BpHwThermal15getTemperaturesENSt3__18functionIFvRKNS2_13ThermalStatusERKNS0_8hidl_vecINS2_11TemperatureEEEEEE
_ZN7android8hardware7thermal4V1_011BpHwThermal17getCoolingDevicesENSt3__18functionIFvRKNS2_13ThermalStatusERKNS0_8hidl_vecINS2_13CoolingDeviceEEEEEE
_ZN7android8hardware7thermal4V1_011BpHwThermal18_hidl_getCpuUsagesEPNS0_10IInterfaceEPNS0_7details16HidlInstrumentorENSt3__18functionIFvRKNS2_13ThermalStatusERKNS0_8hidl_vecINS2_8CpuUsageEEEEEE
_ZN7android8hardware7thermal4V1_011BpHwThermal19interfaceDescriptorENSt3__18functionIFvRKNS0_11hidl_stringEEEE
_ZN7android8hardware7thermal4V1_011BpHwThermal21_hidl_getTemperaturesEPNS0_10IInterfaceEPNS0_7details16HidlInstrumentorENSt3__18functionIFvRKNS2_13ThermalStatusERKNS0_8hidl_vecINS2_11TemperatureEEEEEE
_ZN7android8hardware7thermal4V1_011BpHwThermal21notifySyspropsChangedEv
_ZN7android8hardware7thermal4V1_011BpHwThermal21setHALInstrumentationEv
_ZN7android8hardware7thermal4V1_011BpHwThermal23_hidl_getCoolingDevicesEPNS0_10IInterfaceEPNS0_7details16HidlInstrumentorENSt3__18functionIFvRKNS2_13ThermalStatusERKNS0_8hidl_vecINS2_13CoolingDeviceEEEEEE
_ZN7android8hardware7thermal4V1_011BpHwThermal4pingEv
_ZN7android8hardware7thermal4V1_011BpHwThermal5debugERKNS0_11hidl_handleERKNS0_8hidl_vecINS0_11hidl_stringEEE
_ZN7android8hardware7thermal4V1_011BpHwThermalC1ERKNS_2spINS0_7IBinderEEE
_ZN7android8hardware7thermal4V1_011BpHwThermalC2ERKNS_2spINS0_7IBinderEEE
_ZN7android8hardware7thermal4V1_021writeEmbeddedToParcelERKNS2_11TemperatureEPNS0_6ParcelEjj
_ZN7android8hardware7thermal4V1_021writeEmbeddedToParcelERKNS2_13CoolingDeviceEPNS0_6ParcelEjj
_ZN7android8hardware7thermal4V1_021writeEmbeddedToParcelERKNS2_13ThermalStatusEPNS0_6ParcelEjj
_ZN7android8hardware7thermal4V1_021writeEmbeddedToParcelERKNS2_8CpuUsageEPNS0_6ParcelEjj
_ZN7android8hardware7thermal4V1_022readEmbeddedFromParcelERKNS2_11TemperatureERKNS0_6ParcelEjj
_ZN7android8hardware7thermal4V1_022readEmbeddedFromParcelERKNS2_13CoolingDeviceERKNS0_6ParcelEjj
_ZN7android8hardware7thermal4V1_022readEmbeddedFromParcelERKNS2_13ThermalStatusERKNS0_6ParcelEjj
_ZN7android8hardware7thermal4V1_022readEmbeddedFromParcelERKNS2_8CpuUsageERKNS0_6ParcelEjj
_ZN7android8hardware7thermal4V1_08IThermal10descriptorE
_ZN7android8hardware7thermal4V1_08IThermal10getServiceERKNSt3__112basic_stringIcNS4_11char_traitsIcEENS4_9allocatorIcEEEEb
_ZN7android8hardware7thermal4V1_08IThermal11linkToDeathERKNS_2spINS0_20hidl_death_recipientEEEy
_ZN7android8hardware7thermal4V1_08IThermal12getDebugInfoENSt3__18functionIFvRKNS_4hidl4base4V1_09DebugInfoEEEE
_ZN7android8hardware7thermal4V1_08IThermal12getHashChainENSt3__18functionIFvRKNS0_8hidl_vecINS0_10hidl_arrayIhLj32EJEEEEEEEE
_ZN7android8hardware7thermal4V1_08IThermal13tryGetServiceERKNSt3__112basic_stringIcNS4_11char_traitsIcEENS4_9allocatorIcEEEEb
_ZN7android8hardware7thermal4V1_08IThermal13unlinkToDeathERKNS_2spINS0_20hidl_death_recipientEEE
_ZN7android8hardware7thermal4V1_08IThermal14interfaceChainENSt3__18functionIFvRKNS0_8hidl_vecINS0_11hidl_stringEEEEEE
_ZN7android8hardware7thermal4V1_08IThermal17registerAsServiceERKNSt3__112basic_stringIcNS4_11char_traitsIcEENS4_9allocatorIcEEEE
_ZN7android8hardware7thermal4V1_08IThermal19interfaceDescriptorENSt3__18functionIFvRKNS0_11hidl_stringEEEE
_ZN7android8hardware7thermal4V1_08IThermal21notifySyspropsChangedEv
_ZN7android8hardware7thermal4V1_08IThermal21setHALInstrumentationEv
_ZN7android8hardware7thermal4V1_08IThermal24registerForNotificationsERKNSt3__112basic_stringIcNS4_11char_traitsIcEENS4_9allocatorIcEEEERKNS_2spINS_4hidl7manager4V1_020IServiceNotificationEEE
_ZN7android8hardware7thermal4V1_08IThermal4pingEv
_ZN7android8hardware7thermal4V1_08IThermal5debugERKNS0_11hidl_handleERKNS0_8hidl_vecINS0_11hidl_stringEEE
_ZN7android8hardware7thermal4V1_08IThermal8castFromERKNS_2spINS_4hidl4base4V1_05IBaseEEEb
_ZN7android8hardware7thermal4V1_08IThermal8castFromERKNS_2spIS3_EEb
_ZN7android8hardware7thermal4V1_09BsThermal13addOnewayTaskENSt3__18functionIFvvEEE
_ZN7android8hardware7thermal4V1_09BsThermalC1ENS_2spINS2_8IThermalEEE
_ZN7android8hardware7thermal4V1_09BsThermalC2ENS_2spINS2_8IThermalEEE
_ZTCN7android8hardware7thermal4V1_011BnHwThermalE0_NS0_7IBinderE
_ZTCN7android8hardware7thermal4V1_011BnHwThermalE0_NS0_9BHwBinderE
_ZTCN7android8hardware7thermal4V1_011BnHwThermalE0_NS_4hidl4base4V1_08BnHwBaseE
_ZTCN7android8hardware7thermal4V1_011BpHwThermalE0_NS0_11BpInterfaceINS2_8IThermalEEE
_ZTCN7android8hardware7thermal4V1_011BpHwThermalE0_NS2_8IThermalE
_ZTCN7android8hardware7thermal4V1_011BpHwThermalE0_NS_4hidl4base4V1_05IBaseE
_ZTCN7android8hardware7thermal4V1_011BpHwThermalE4_NS0_10IInterfaceE
_ZTCN7android8hardware7thermal4V1_011BpHwThermalE8_NS0_11BpHwRefBaseE
_ZTCN7android8hardware7thermal4V1_08IThermalE0_NS_4hidl4base4V1_05IBaseE
_ZTTN7android8hardware7thermal4V1_011BnHwThermalE
_ZTTN7android8hardware7thermal4V1_011BpHwThermalE
_ZTTN7android8hardware7thermal4V1_08IThermalE
_ZTVN7android8hardware7thermal4V1_011BnHwThermalE
_ZTVN7android8hardware7thermal4V1_011BpHwThermalE
_ZTVN7android8hardware7thermal4V1_08IThermalE
_ZThn20_N7android8hardware7thermal4V1_011BnHwThermalD0Ev
_ZThn20_N7android8hardware7thermal4V1_011BnHwThermalD1Ev
_ZTv0_n12_N7android8hardware7thermal4V1_011BnHwThermalD0Ev
_ZTv0_n12_N7android8hardware7thermal4V1_011BnHwThermalD1Ev
