_ZN7android8hardware5radio4V1_114IRadioResponse10descriptorE
_ZN7android8hardware5radio4V1_114IRadioResponse10getServiceERKNSt3__112basic_stringIcNS4_11char_traitsIcEENS4_9allocatorIcEEEEb
_ZN7android8hardware5radio4V1_114IRadioResponse11linkToDeathERKNS_2spINS0_20hidl_death_recipientEEEy
_ZN7android8hardware5radio4V1_114IRadioResponse12getDebugInfoENSt3__18functionIFvRKNS_4hidl4base4V1_09DebugInfoEEEE
_ZN7android8hardware5radio4V1_114IRadioResponse12getHashChainENSt3__18functionIFvRKNS0_8hidl_vecINS0_10hidl_arrayIhLj32EJEEEEEEEE
_ZN7android8hardware5radio4V1_114IRadioResponse13tryGetServiceERKNSt3__112basic_stringIcNS4_11char_traitsIcEENS4_9allocatorIcEEEEb
_ZN7android8hardware5radio4V1_114IRadioResponse13unlinkToDeathERKNS_2spINS0_20hidl_death_recipientEEE
_ZN7android8hardware5radio4V1_114IRadioResponse14interfaceChainENSt3__18functionIFvRKNS0_8hidl_vecINS0_11hidl_stringEEEEEE
_ZN7android8hardware5radio4V1_114IRadioResponse17registerAsServiceERKNSt3__112basic_stringIcNS4_11char_traitsIcEENS4_9allocatorIcEEEE
_ZN7android8hardware5radio4V1_114IRadioResponse19interfaceDescriptorENSt3__18functionIFvRKNS0_11hidl_stringEEEE
_ZN7android8hardware5radio4V1_114IRadioResponse21notifySyspropsChangedEv
_ZN7android8hardware5radio4V1_114IRadioResponse21setHALInstrumentationEv
_ZN7android8hardware5radio4V1_114IRadioResponse24registerForNotificationsERKNSt3__112basic_stringIcNS4_11char_traitsIcEENS4_9allocatorIcEEEERKNS_2spINS_4hidl7manager4V1_020IServiceNotificationEEE
_ZN7android8hardware5radio4V1_114IRadioResponse4pingEv
_ZN7android8hardware5radio4V1_114IRadioResponse5debugERKNS0_11hidl_handleERKNS0_8hidl_vecINS0_11hidl_stringEEE
_ZN7android8hardware5radio4V1_114IRadioResponse8castFromERKNS_2spINS1_4V1_014IRadioResponseEEEb
_ZN7android8hardware5radio4V1_114IRadioResponse8castFromERKNS_2spINS_4hidl4base4V1_05IBaseEEEb
_ZN7android8hardware5radio4V1_114IRadioResponse8castFromERKNS_2spIS3_EEb
_ZN7android8hardware5radio4V1_115BsRadioResponse13addOnewayTaskENSt3__18functionIFvvEEE
_ZN7android8hardware5radio4V1_115BsRadioResponseC1ENS_2spINS2_14IRadioResponseEEE
_ZN7android8hardware5radio4V1_115BsRadioResponseC2ENS_2spINS2_14IRadioResponseEEE
_ZN7android8hardware5radio4V1_116IRadioIndication10descriptorE
_ZN7android8hardware5radio4V1_116IRadioIndication10getServiceERKNSt3__112basic_stringIcNS4_11char_traitsIcEENS4_9allocatorIcEEEEb
_ZN7android8hardware5radio4V1_116IRadioIndication11linkToDeathERKNS_2spINS0_20hidl_death_recipientEEEy
_ZN7android8hardware5radio4V1_116IRadioIndication12getDebugInfoENSt3__18functionIFvRKNS_4hidl4base4V1_09DebugInfoEEEE
_ZN7android8hardware5radio4V1_116IRadioIndication12getHashChainENSt3__18functionIFvRKNS0_8hidl_vecINS0_10hidl_arrayIhLj32EJEEEEEEEE
_ZN7android8hardware5radio4V1_116IRadioIndication13tryGetServiceERKNSt3__112basic_stringIcNS4_11char_traitsIcEENS4_9allocatorIcEEEEb
_ZN7android8hardware5radio4V1_116IRadioIndication13unlinkToDeathERKNS_2spINS0_20hidl_death_recipientEEE
_ZN7android8hardware5radio4V1_116IRadioIndication14interfaceChainENSt3__18functionIFvRKNS0_8hidl_vecINS0_11hidl_stringEEEEEE
_ZN7android8hardware5radio4V1_116IRadioIndication17registerAsServiceERKNSt3__112basic_stringIcNS4_11char_traitsIcEENS4_9allocatorIcEEEE
_ZN7android8hardware5radio4V1_116IRadioIndication19interfaceDescriptorENSt3__18functionIFvRKNS0_11hidl_stringEEEE
_ZN7android8hardware5radio4V1_116IRadioIndication21notifySyspropsChangedEv
_ZN7android8hardware5radio4V1_116IRadioIndication21setHALInstrumentationEv
_ZN7android8hardware5radio4V1_116IRadioIndication24registerForNotificationsERKNSt3__112basic_stringIcNS4_11char_traitsIcEENS4_9allocatorIcEEEERKNS_2spINS_4hidl7manager4V1_020IServiceNotificationEEE
_ZN7android8hardware5radio4V1_116IRadioIndication4pingEv
_ZN7android8hardware5radio4V1_116IRadioIndication5debugERKNS0_11hidl_handleERKNS0_8hidl_vecINS0_11hidl_stringEEE
_ZN7android8hardware5radio4V1_116IRadioIndication8castFromERKNS_2spINS1_4V1_016IRadioIndicationEEEb
_ZN7android8hardware5radio4V1_116IRadioIndication8castFromERKNS_2spINS_4hidl4base4V1_05IBaseEEEb
_ZN7android8hardware5radio4V1_116IRadioIndication8castFromERKNS_2spIS3_EEb
_ZN7android8hardware5radio4V1_117BnHwRadioResponse10onTransactEjRKNS0_6ParcelEPS4_jNSt3__18functionIFvRS4_EEE
_ZN7android8hardware5radio4V1_117BnHwRadioResponse12getDebugInfoENSt3__18functionIFvRKNS_4hidl4base4V1_09DebugInfoEEEE
_ZN7android8hardware5radio4V1_117BnHwRadioResponse27_hidl_stopKeepaliveResponseEPNS_4hidl4base4V1_08BnHwBaseERKNS0_6ParcelEPS9_NSt3__18functionIFvRS9_EEE
_ZN7android8hardware5radio4V1_117BnHwRadioResponse28_hidl_startKeepaliveResponseEPNS_4hidl4base4V1_08BnHwBaseERKNS0_6ParcelEPS9_NSt3__18functionIFvRS9_EEE
_ZN7android8hardware5radio4V1_117BnHwRadioResponse29_hidl_stopNetworkScanResponseEPNS_4hidl4base4V1_08BnHwBaseERKNS0_6ParcelEPS9_NSt3__18functionIFvRS9_EEE
_ZN7android8hardware5radio4V1_117BnHwRadioResponse30_hidl_startNetworkScanResponseEPNS_4hidl4base4V1_08BnHwBaseERKNS0_6ParcelEPS9_NSt3__18functionIFvRS9_EEE
_ZN7android8hardware5radio4V1_117BnHwRadioResponse33_hidl_setSimCardPowerResponse_1_1EPNS_4hidl4base4V1_08BnHwBaseERKNS0_6ParcelEPS9_NSt3__18functionIFvRS9_EEE
_ZN7android8hardware5radio4V1_117BnHwRadioResponse45_hidl_setCarrierInfoForImsiEncryptionResponseEPNS_4hidl4base4V1_08BnHwBaseERKNS0_6ParcelEPS9_NSt3__18functionIFvRS9_EEE
_ZN7android8hardware5radio4V1_117BnHwRadioResponse4pingEv
_ZN7android8hardware5radio4V1_117BnHwRadioResponseC1ERKNS_2spINS2_14IRadioResponseEEE
_ZN7android8hardware5radio4V1_117BnHwRadioResponseC2ERKNS_2spINS2_14IRadioResponseEEE
_ZN7android8hardware5radio4V1_117BnHwRadioResponseD0Ev
_ZN7android8hardware5radio4V1_117BnHwRadioResponseD1Ev
_ZN7android8hardware5radio4V1_117BnHwRadioResponseD2Ev
_ZN7android8hardware5radio4V1_117BpHwRadioResponse11linkToDeathERKNS_2spINS0_20hidl_death_recipientEEEy
_ZN7android8hardware5radio4V1_117BpHwRadioResponse12dialResponseERKNS1_4V1_017RadioResponseInfoE
_ZN7android8hardware5radio4V1_117BpHwRadioResponse12getDebugInfoENSt3__18functionIFvRKNS_4hidl4base4V1_09DebugInfoEEEE
_ZN7android8hardware5radio4V1_117BpHwRadioResponse12getHashChainENSt3__18functionIFvRKNS0_8hidl_vecINS0_10hidl_arrayIhLj32EJEEEEEEEE
_ZN7android8hardware5radio4V1_117BpHwRadioResponse13unlinkToDeathERKNS_2spINS0_20hidl_death_recipientEEE
_ZN7android8hardware5radio4V1_117BpHwRadioResponse14interfaceChainENSt3__18functionIFvRKNS0_8hidl_vecINS0_11hidl_stringEEEEEE
_ZN7android8hardware5radio4V1_117BpHwRadioResponse15getClipResponseERKNS1_4V1_017RadioResponseInfoENS4_10ClipStatusE
_ZN7android8hardware5radio4V1_117BpHwRadioResponse15getClirResponseERKNS1_4V1_017RadioResponseInfoEii
_ZN7android8hardware5radio4V1_117BpHwRadioResponse15getMuteResponseERKNS1_4V1_017RadioResponseInfoEb
_ZN7android8hardware5radio4V1_117BpHwRadioResponse15sendSmsResponseERKNS1_4V1_017RadioResponseInfoERKNS4_13SendSmsResultE
_ZN7android8hardware5radio4V1_117BpHwRadioResponse15setClirResponseERKNS1_4V1_017RadioResponseInfoE
_ZN7android8hardware5radio4V1_117BpHwRadioResponse15setMuteResponseERKNS1_4V1_017RadioResponseInfoE
_ZN7android8hardware5radio4V1_117BpHwRadioResponse16sendDtmfResponseERKNS1_4V1_017RadioResponseInfoE
_ZN7android8hardware5radio4V1_117BpHwRadioResponse16sendUssdResponseERKNS1_4V1_017RadioResponseInfoE
_ZN7android8hardware5radio4V1_117BpHwRadioResponse16stopDtmfResponseERKNS1_4V1_017RadioResponseInfoE
_ZN7android8hardware5radio4V1_117BpHwRadioResponse17startDtmfResponseERKNS1_4V1_017RadioResponseInfoE
_ZN7android8hardware5radio4V1_117BpHwRadioResponse18acceptCallResponseERKNS1_4V1_017RadioResponseInfoE
_ZN7android8hardware5radio4V1_117BpHwRadioResponse18acknowledgeRequestEi
_ZN7android8hardware5radio4V1_117BpHwRadioResponse18conferenceResponseERKNS1_4V1_017RadioResponseInfoE
_ZN7android8hardware5radio4V1_117BpHwRadioResponse18getTTYModeResponseERKNS1_4V1_017RadioResponseInfoENS4_7TtyModeE
_ZN7android8hardware5radio4V1_117BpHwRadioResponse18nvReadItemResponseERKNS1_4V1_017RadioResponseInfoERKNS0_11hidl_stringE
_ZN7android8hardware5radio4V1_117BpHwRadioResponse18rejectCallResponseERKNS1_4V1_017RadioResponseInfoE
_ZN7android8hardware5radio4V1_117BpHwRadioResponse18sendImsSmsResponseERKNS1_4V1_017RadioResponseInfoERKNS4_13SendSmsResultE
_ZN7android8hardware5radio4V1_117BpHwRadioResponse18setTTYModeResponseERKNS1_4V1_017RadioResponseInfoE
_ZN7android8hardware5radio4V1_117BpHwRadioResponse19getOperatorResponseERKNS1_4V1_017RadioResponseInfoERKNS0_11hidl_stringESA_SA_
_ZN7android8hardware5radio4V1_117BpHwRadioResponse19iccIOForAppResponseERKNS1_4V1_017RadioResponseInfoERKNS4_11IccIoResultE
_ZN7android8hardware5radio4V1_117BpHwRadioResponse19interfaceDescriptorENSt3__18functionIFvRKNS0_11hidl_stringEEEE
_ZN7android8hardware5radio4V1_117BpHwRadioResponse19nvWriteItemResponseERKNS1_4V1_017RadioResponseInfoE
_ZN7android8hardware5radio4V1_117BpHwRadioResponse19pullLceDataResponseERKNS1_4V1_017RadioResponseInfoERKNS4_11LceDataInfoE
_ZN7android8hardware5radio4V1_117BpHwRadioResponse19sendCdmaSmsResponseERKNS1_4V1_017RadioResponseInfoERKNS4_13SendSmsResultE
_ZN7android8hardware5radio4V1_117BpHwRadioResponse19setBandModeResponseERKNS1_4V1_017RadioResponseInfoE
_ZN7android8hardware5radio4V1_117BpHwRadioResponse20sendEnvelopeResponseERKNS1_4V1_017RadioResponseInfoERKNS0_11hidl_stringE
_ZN7android8hardware5radio4V1_117BpHwRadioResponse21getIMSIForAppResponseERKNS1_4V1_017RadioResponseInfoERKNS0_11hidl_stringE
_ZN7android8hardware5radio4V1_117BpHwRadioResponse21notifySyspropsChangedEv
_ZN7android8hardware5radio4V1_117BpHwRadioResponse21nvResetConfigResponseERKNS1_4V1_017RadioResponseInfoE
_ZN7android8hardware5radio4V1_117BpHwRadioResponse21sendBurstDtmfResponseERKNS1_4V1_017RadioResponseInfoE
_ZN7android8hardware5radio4V1_117BpHwRadioResponse21setHALInstrumentationEv
_ZN7android8hardware5radio4V1_117BpHwRadioResponse21setRadioPowerResponseERKNS1_4V1_017RadioResponseInfoE
_ZN7android8hardware5radio4V1_117BpHwRadioResponse21setupDataCallResponseERKNS1_4V1_017RadioResponseInfoERKNS4_19SetupDataCallResultE
_ZN7android8hardware5radio4V1_117BpHwRadioResponse21stopKeepaliveResponseERKNS1_4V1_017RadioResponseInfoE
_ZN7android8hardware5radio4V1_117BpHwRadioResponse21writeSmsToSimResponseERKNS1_4V1_017RadioResponseInfoEi
_ZN7android8hardware5radio4V1_117BpHwRadioResponse22deleteSmsOnSimResponseERKNS1_4V1_017RadioResponseInfoE
_ZN7android8hardware5radio4V1_117BpHwRadioResponse22getCallWaitingResponseERKNS1_4V1_017RadioResponseInfoEbi
_ZN7android8hardware5radio4V1_117BpHwRadioResponse22getSmscAddressResponseERKNS1_4V1_017RadioResponseInfoERKNS0_11hidl_stringE
_ZN7android8hardware5radio4V1_117BpHwRadioResponse22nvWriteCdmaPrlResponseERKNS1_4V1_017RadioResponseInfoE
_ZN7android8hardware5radio4V1_117BpHwRadioResponse22setCallForwardResponseERKNS1_4V1_017RadioResponseInfoE
_ZN7android8hardware5radio4V1_117BpHwRadioResponse22setCallWaitingResponseERKNS1_4V1_017RadioResponseInfoE
_ZN7android8hardware5radio4V1_117BpHwRadioResponse22setDataAllowedResponseERKNS1_4V1_017RadioResponseInfoE
_ZN7android8hardware5radio4V1_117BpHwRadioResponse22setDataProfileResponseERKNS1_4V1_017RadioResponseInfoE
_ZN7android8hardware5radio4V1_117BpHwRadioResponse22setSmscAddressResponseERKNS1_4V1_017RadioResponseInfoE
_ZN7android8hardware5radio4V1_117BpHwRadioResponse22startKeepaliveResponseERKNS1_4V1_017RadioResponseInfoERKNS2_15KeepaliveStatusE
_ZN7android8hardware5radio4V1_117BpHwRadioResponse22stopLceServiceResponseERKNS1_4V1_017RadioResponseInfoERKNS4_13LceStatusInfoE
_ZN7android8hardware5radio4V1_117BpHwRadioResponse22writeSmsToRuimResponseERKNS1_4V1_017RadioResponseInfoEj
_ZN7android8hardware5radio4V1_117BpHwRadioResponse23deleteSmsOnRuimResponseERKNS1_4V1_017RadioResponseInfoE
_ZN7android8hardware5radio4V1_117BpHwRadioResponse23getCellInfoListResponseERKNS1_4V1_017RadioResponseInfoERKNS0_8hidl_vecINS4_8CellInfoEEE
_ZN7android8hardware5radio4V1_117BpHwRadioResponse23getCurrentCallsResponseERKNS1_4V1_017RadioResponseInfoERKNS0_8hidl_vecINS4_4CallEEE
_ZN7android8hardware5radio4V1_117BpHwRadioResponse23getDataCallListResponseERKNS1_4V1_017RadioResponseInfoERKNS0_8hidl_vecINS4_19SetupDataCallResultEEE
_ZN7android8hardware5radio4V1_117BpHwRadioResponse23requestShutdownResponseERKNS1_4V1_017RadioResponseInfoE
_ZN7android8hardware5radio4V1_117BpHwRadioResponse23sendDeviceStateResponseERKNS1_4V1_017RadioResponseInfoE
_ZN7android8hardware5radio4V1_117BpHwRadioResponse23setSimCardPowerResponseERKNS1_4V1_017RadioResponseInfoE
_ZN7android8hardware5radio4V1_117BpHwRadioResponse23startLceServiceResponseERKNS1_4V1_017RadioResponseInfoERKNS4_13LceStatusInfoE
_ZN7android8hardware5radio4V1_117BpHwRadioResponse23stopNetworkScanResponseERKNS1_4V1_017RadioResponseInfoE
_ZN7android8hardware5radio4V1_117BpHwRadioResponse24getIccCardStatusResponseERKNS1_4V1_017RadioResponseInfoERKNS4_10CardStatusE
_ZN7android8hardware5radio4V1_117BpHwRadioResponse24hangupConnectionResponseERKNS1_4V1_017RadioResponseInfoE
_ZN7android8hardware5radio4V1_117BpHwRadioResponse24startNetworkScanResponseERKNS1_4V1_017RadioResponseInfoE
_ZN7android8hardware5radio4V1_117BpHwRadioResponse25cancelPendingUssdResponseERKNS1_4V1_017RadioResponseInfoE
_ZN7android8hardware5radio4V1_117BpHwRadioResponse25getDeviceIdentityResponseERKNS1_4V1_017RadioResponseInfoERKNS0_11hidl_stringESA_SA_SA_
_ZN7android8hardware5radio4V1_117BpHwRadioResponse25getHardwareConfigResponseERKNS1_4V1_017RadioResponseInfoERKNS0_8hidl_vecINS4_14HardwareConfigEEE
_ZN7android8hardware5radio4V1_117BpHwRadioResponse25getSignalStrengthResponseERKNS1_4V1_017RadioResponseInfoERKNS4_14SignalStrengthE
_ZN7android8hardware5radio4V1_117BpHwRadioResponse25sendSMSExpectMoreResponseERKNS1_4V1_017RadioResponseInfoERKNS4_13SendSmsResultE
_ZN7android8hardware5radio4V1_117BpHwRadioResponse26changeIccPinForAppResponseERKNS1_4V1_017RadioResponseInfoEi
_ZN7android8hardware5radio4V1_117BpHwRadioResponse26deactivateDataCallResponseERKNS1_4V1_017RadioResponseInfoE
_ZN7android8hardware5radio4V1_117BpHwRadioResponse26getAllowedCarriersResponseERKNS1_4V1_017RadioResponseInfoEbRKNS4_19CarrierRestrictionsE
_ZN7android8hardware5radio4V1_117BpHwRadioResponse26getBasebandVersionResponseERKNS1_4V1_017RadioResponseInfoERKNS0_11hidl_stringE
_ZN7android8hardware5radio4V1_117BpHwRadioResponse26getNeighboringCidsResponseERKNS1_4V1_017RadioResponseInfoERKNS0_8hidl_vecINS4_15NeighboringCellEEE
_ZN7android8hardware5radio4V1_117BpHwRadioResponse26getRadioCapabilityResponseERKNS1_4V1_017RadioResponseInfoERKNS4_15RadioCapabilityE
_ZN7android8hardware5radio4V1_117BpHwRadioResponse26separateConnectionResponseERKNS1_4V1_017RadioResponseInfoE
_ZN7android8hardware5radio4V1_117BpHwRadioResponse26setAllowedCarriersResponseERKNS1_4V1_017RadioResponseInfoEi
_ZN7android8hardware5radio4V1_117BpHwRadioResponse26setBarringPasswordResponseERKNS1_4V1_017RadioResponseInfoE
_ZN7android8hardware5radio4V1_117BpHwRadioResponse26setLocationUpdatesResponseERKNS1_4V1_017RadioResponseInfoE
_ZN7android8hardware5radio4V1_117BpHwRadioResponse26setRadioCapabilityResponseERKNS1_4V1_017RadioResponseInfoERKNS4_15RadioCapabilityE
_ZN7android8hardware5radio4V1_117BpHwRadioResponse26supplyIccPinForAppResponseERKNS1_4V1_017RadioResponseInfoEi
_ZN7android8hardware5radio4V1_117BpHwRadioResponse26supplyIccPukForAppResponseERKNS1_4V1_017RadioResponseInfoEi
_ZN7android8hardware5radio4V1_117BpHwRadioResponse27_hidl_stopKeepaliveResponseEPNS0_10IInterfaceEPNS0_7details16HidlInstrumentorERKNS1_4V1_017RadioResponseInfoE
_ZN7android8hardware5radio4V1_117BpHwRadioResponse27changeIccPin2ForAppResponseERKNS1_4V1_017RadioResponseInfoEi
_ZN7android8hardware5radio4V1_117BpHwRadioResponse27getCDMASubscriptionResponseERKNS1_4V1_017RadioResponseInfoERKNS0_11hidl_stringESA_SA_SA_SA_
_ZN7android8hardware5radio4V1_117BpHwRadioResponse27sendCDMAFeatureCodeResponseERKNS1_4V1_017RadioResponseInfoE
_ZN7android8hardware5radio4V1_117BpHwRadioResponse27setCellInfoListRateResponseERKNS1_4V1_017RadioResponseInfoE
_ZN7android8hardware5radio4V1_117BpHwRadioResponse27setIndicationFilterResponseERKNS1_4V1_017RadioResponseInfoE
_ZN7android8hardware5radio4V1_117BpHwRadioResponse27setInitialAttachApnResponseERKNS1_4V1_017RadioResponseInfoE
_ZN7android8hardware5radio4V1_117BpHwRadioResponse27setSimCardPowerResponse_1_1ERKNS1_4V1_017RadioResponseInfoE
_ZN7android8hardware5radio4V1_117BpHwRadioResponse27setUiccSubscriptionResponseERKNS1_4V1_017RadioResponseInfoE
_ZN7android8hardware5radio4V1_117BpHwRadioResponse27supplyIccPin2ForAppResponseERKNS1_4V1_017RadioResponseInfoEi
_ZN7android8hardware5radio4V1_117BpHwRadioResponse27supplyIccPuk2ForAppResponseERKNS1_4V1_017RadioResponseInfoEi
_ZN7android8hardware5radio4V1_117BpHwRadioResponse28_hidl_startKeepaliveResponseEPNS0_10IInterfaceEPNS0_7details16HidlInstrumentorERKNS1_4V1_017RadioResponseInfoERKNS2_15KeepaliveStatusE
_ZN7android8hardware5radio4V1_117BpHwRadioResponse28explicitCallTransferResponseERKNS1_4V1_017RadioResponseInfoE
_ZN7android8hardware5radio4V1_117BpHwRadioResponse28getAvailableNetworksResponseERKNS1_4V1_017RadioResponseInfoERKNS0_8hidl_vecINS4_12OperatorInfoEEE
_ZN7android8hardware5radio4V1_117BpHwRadioResponse28getCallForwardStatusResponseERKNS1_4V1_017RadioResponseInfoERKNS0_8hidl_vecINS4_15CallForwardInfoEEE
_ZN7android8hardware5radio4V1_117BpHwRadioResponse28getLastCallFailCauseResponseERKNS1_4V1_017RadioResponseInfoERKNS4_21LastCallFailCauseInfoE
_ZN7android8hardware5radio4V1_117BpHwRadioResponse28getModemActivityInfoResponseERKNS1_4V1_017RadioResponseInfoERKNS4_17ActivityStatsInfoE
_ZN7android8hardware5radio4V1_117BpHwRadioResponse29_hidl_stopNetworkScanResponseEPNS0_10IInterfaceEPNS0_7details16HidlInstrumentorERKNS1_4V1_017RadioResponseInfoE
_ZN7android8hardware5radio4V1_117BpHwRadioResponse29getAvailableBandModesResponseERKNS1_4V1_017RadioResponseInfoERKNS0_8hidl_vecINS4_13RadioBandModeEEE
_ZN7android8hardware5radio4V1_117BpHwRadioResponse29getFacilityLockForAppResponseERKNS1_4V1_017RadioResponseInfoEi
_ZN7android8hardware5radio4V1_117BpHwRadioResponse29getGsmBroadcastConfigResponseERKNS1_4V1_017RadioResponseInfoERKNS0_8hidl_vecINS4_25GsmBroadcastSmsConfigInfoEEE
_ZN7android8hardware5radio4V1_117BpHwRadioResponse29iccOpenLogicalChannelResponseERKNS1_4V1_017RadioResponseInfoEiRKNS0_8hidl_vecIaEE
_ZN7android8hardware5radio4V1_117BpHwRadioResponse29reportSmsMemoryStatusResponseERKNS1_4V1_017RadioResponseInfoE
_ZN7android8hardware5radio4V1_117BpHwRadioResponse29setFacilityLockForAppResponseERKNS1_4V1_017RadioResponseInfoEi
_ZN7android8hardware5radio4V1_117BpHwRadioResponse29setGsmBroadcastConfigResponseERKNS1_4V1_017RadioResponseInfoE
_ZN7android8hardware5radio4V1_117BpHwRadioResponse30_hidl_startNetworkScanResponseEPNS0_10IInterfaceEPNS0_7details16HidlInstrumentorERKNS1_4V1_017RadioResponseInfoE
_ZN7android8hardware5radio4V1_117BpHwRadioResponse30getCdmaBroadcastConfigResponseERKNS1_4V1_017RadioResponseInfoERKNS0_8hidl_vecINS4_26CdmaBroadcastSmsConfigInfoEEE
_ZN7android8hardware5radio4V1_117BpHwRadioResponse30iccCloseLogicalChannelResponseERKNS1_4V1_017RadioResponseInfoE
_ZN7android8hardware5radio4V1_117BpHwRadioResponse30sendEnvelopeWithStatusResponseERKNS1_4V1_017RadioResponseInfoERKNS4_11IccIoResultE
_ZN7android8hardware5radio4V1_117BpHwRadioResponse30setCdmaBroadcastConfigResponseERKNS1_4V1_017RadioResponseInfoE
_ZN7android8hardware5radio4V1_117BpHwRadioResponse31getImsRegistrationStateResponseERKNS1_4V1_017RadioResponseInfoEbNS4_21RadioTechnologyFamilyE
_ZN7android8hardware5radio4V1_117BpHwRadioResponse31getNetworkSelectionModeResponseERKNS1_4V1_017RadioResponseInfoEb
_ZN7android8hardware5radio4V1_117BpHwRadioResponse31getPreferredNetworkTypeResponseERKNS1_4V1_017RadioResponseInfoENS4_20PreferredNetworkTypeE
_ZN7android8hardware5radio4V1_117BpHwRadioResponse31getVoiceRadioTechnologyResponseERKNS1_4V1_017RadioResponseInfoENS4_15RadioTechnologyE
_ZN7android8hardware5radio4V1_117BpHwRadioResponse31setPreferredNetworkTypeResponseERKNS1_4V1_017RadioResponseInfoE
_ZN7android8hardware5radio4V1_117BpHwRadioResponse32getCdmaRoamingPreferenceResponseERKNS1_4V1_017RadioResponseInfoENS4_15CdmaRoamingTypeE
_ZN7android8hardware5radio4V1_117BpHwRadioResponse32getDataRegistrationStateResponseERKNS1_4V1_017RadioResponseInfoERKNS4_18DataRegStateResultE
_ZN7android8hardware5radio4V1_117BpHwRadioResponse32getPreferredVoicePrivacyResponseERKNS1_4V1_017RadioResponseInfoEb
_ZN7android8hardware5radio4V1_117BpHwRadioResponse32setCdmaRoamingPreferenceResponseERKNS1_4V1_017RadioResponseInfoE
_ZN7android8hardware5radio4V1_117BpHwRadioResponse32setPreferredVoicePrivacyResponseERKNS1_4V1_017RadioResponseInfoE
_ZN7android8hardware5radio4V1_117BpHwRadioResponse33_hidl_setSimCardPowerResponse_1_1EPNS0_10IInterfaceEPNS0_7details16HidlInstrumentorERKNS1_4V1_017RadioResponseInfoE
_ZN7android8hardware5radio4V1_117BpHwRadioResponse33exitEmergencyCallbackModeResponseERKNS1_4V1_017RadioResponseInfoE
_ZN7android8hardware5radio4V1_117BpHwRadioResponse33getCdmaSubscriptionSourceResponseERKNS1_4V1_017RadioResponseInfoENS4_22CdmaSubscriptionSourceE
_ZN7android8hardware5radio4V1_117BpHwRadioResponse33getVoiceRegistrationStateResponseERKNS1_4V1_017RadioResponseInfoERKNS4_19VoiceRegStateResultE
_ZN7android8hardware5radio4V1_117BpHwRadioResponse33hangupWaitingOrBackgroundResponseERKNS1_4V1_017RadioResponseInfoE
_ZN7android8hardware5radio4V1_117BpHwRadioResponse33reportStkServiceIsRunningResponseERKNS1_4V1_017RadioResponseInfoE
_ZN7android8hardware5radio4V1_117BpHwRadioResponse33requestIsimAuthenticationResponseERKNS1_4V1_017RadioResponseInfoERKNS0_11hidl_stringE
_ZN7android8hardware5radio4V1_117BpHwRadioResponse33sendTerminalResponseToSimResponseERKNS1_4V1_017RadioResponseInfoE
_ZN7android8hardware5radio4V1_117BpHwRadioResponse33setCdmaSubscriptionSourceResponseERKNS1_4V1_017RadioResponseInfoE
_ZN7android8hardware5radio4V1_117BpHwRadioResponse33setGsmBroadcastActivationResponseERKNS1_4V1_017RadioResponseInfoE
_ZN7android8hardware5radio4V1_117BpHwRadioResponse34setCdmaBroadcastActivationResponseERKNS1_4V1_017RadioResponseInfoE
_ZN7android8hardware5radio4V1_117BpHwRadioResponse35iccTransmitApduBasicChannelResponseERKNS1_4V1_017RadioResponseInfoERKNS4_11IccIoResultE
_ZN7android8hardware5radio4V1_117BpHwRadioResponse35requestIccSimAuthenticationResponseERKNS1_4V1_017RadioResponseInfoERKNS4_11IccIoResultE
_ZN7android8hardware5radio4V1_117BpHwRadioResponse35setSuppServiceNotificationsResponseERKNS1_4V1_017RadioResponseInfoE
_ZN7android8hardware5radio4V1_117BpHwRadioResponse37acknowledgeLastIncomingGsmSmsResponseERKNS1_4V1_017RadioResponseInfoE
_ZN7android8hardware5radio4V1_117BpHwRadioResponse37iccTransmitApduLogicalChannelResponseERKNS1_4V1_017RadioResponseInfoERKNS4_11IccIoResultE
_ZN7android8hardware5radio4V1_117BpHwRadioResponse37setNetworkSelectionModeManualResponseERKNS1_4V1_017RadioResponseInfoE
_ZN7android8hardware5radio4V1_117BpHwRadioResponse38acknowledgeLastIncomingCdmaSmsResponseERKNS1_4V1_017RadioResponseInfoE
_ZN7android8hardware5radio4V1_117BpHwRadioResponse38supplyNetworkDepersonalizationResponseERKNS1_4V1_017RadioResponseInfoEi
_ZN7android8hardware5radio4V1_117BpHwRadioResponse39setCarrierInfoForImsiEncryptionResponseERKNS1_4V1_017RadioResponseInfoE
_ZN7android8hardware5radio4V1_117BpHwRadioResponse39switchWaitingOrHoldingAndActiveResponseERKNS1_4V1_017RadioResponseInfoE
_ZN7android8hardware5radio4V1_117BpHwRadioResponse40acknowledgeIncomingGsmSmsWithPduResponseERKNS1_4V1_017RadioResponseInfoE
_ZN7android8hardware5radio4V1_117BpHwRadioResponse40handleStkCallSetupRequestFromSimResponseERKNS1_4V1_017RadioResponseInfoE
_ZN7android8hardware5radio4V1_117BpHwRadioResponse40hangupForegroundResumeBackgroundResponseERKNS1_4V1_017RadioResponseInfoE
_ZN7android8hardware5radio4V1_117BpHwRadioResponse40setNetworkSelectionModeAutomaticResponseERKNS1_4V1_017RadioResponseInfoE
_ZN7android8hardware5radio4V1_117BpHwRadioResponse45_hidl_setCarrierInfoForImsiEncryptionResponseEPNS0_10IInterfaceEPNS0_7details16HidlInstrumentorERKNS1_4V1_017RadioResponseInfoE
_ZN7android8hardware5radio4V1_117BpHwRadioResponse4pingEv
_ZN7android8hardware5radio4V1_117BpHwRadioResponse5debugERKNS0_11hidl_handleERKNS0_8hidl_vecINS0_11hidl_stringEEE
_ZN7android8hardware5radio4V1_117BpHwRadioResponseC1ERKNS_2spINS0_7IBinderEEE
_ZN7android8hardware5radio4V1_117BpHwRadioResponseC2ERKNS_2spINS0_7IBinderEEE
_ZN7android8hardware5radio4V1_117BsRadioIndication13addOnewayTaskENSt3__18functionIFvvEEE
_ZN7android8hardware5radio4V1_117BsRadioIndicationC1ENS_2spINS2_16IRadioIndicationEEE
_ZN7android8hardware5radio4V1_117BsRadioIndicationC2ENS_2spINS2_16IRadioIndicationEEE
_ZN7android8hardware5radio4V1_119BnHwRadioIndication10onTransactEjRKNS0_6ParcelEPS4_jNSt3__18functionIFvRS4_EEE
_ZN7android8hardware5radio4V1_119BnHwRadioIndication12getDebugInfoENSt3__18functionIFvRKNS_4hidl4base4V1_09DebugInfoEEEE
_ZN7android8hardware5radio4V1_119BnHwRadioIndication21_hidl_keepaliveStatusEPNS_4hidl4base4V1_08BnHwBaseERKNS0_6ParcelEPS9_NSt3__18functionIFvRS9_EEE
_ZN7android8hardware5radio4V1_119BnHwRadioIndication23_hidl_networkScanResultEPNS_4hidl4base4V1_08BnHwBaseERKNS0_6ParcelEPS9_NSt3__18functionIFvRS9_EEE
_ZN7android8hardware5radio4V1_119BnHwRadioIndication34_hidl_carrierInfoForImsiEncryptionEPNS_4hidl4base4V1_08BnHwBaseERKNS0_6ParcelEPS9_NSt3__18functionIFvRS9_EEE
_ZN7android8hardware5radio4V1_119BnHwRadioIndication4pingEv
_ZN7android8hardware5radio4V1_119BnHwRadioIndicationC1ERKNS_2spINS2_16IRadioIndicationEEE
_ZN7android8hardware5radio4V1_119BnHwRadioIndicationC2ERKNS_2spINS2_16IRadioIndicationEEE
_ZN7android8hardware5radio4V1_119BnHwRadioIndicationD0Ev
_ZN7android8hardware5radio4V1_119BnHwRadioIndicationD1Ev
_ZN7android8hardware5radio4V1_119BnHwRadioIndicationD2Ev
_ZN7android8hardware5radio4V1_119BpHwRadioIndication10cdmaNewSmsENS1_4V1_019RadioIndicationTypeERKNS4_14CdmaSmsMessageE
_ZN7android8hardware5radio4V1_119BpHwRadioIndication10modemResetENS1_4V1_019RadioIndicationTypeERKNS0_11hidl_stringE
_ZN7android8hardware5radio4V1_119BpHwRadioIndication10simRefreshENS1_4V1_019RadioIndicationTypeERKNS4_16SimRefreshResultE
_ZN7android8hardware5radio4V1_119BpHwRadioIndication11cdmaInfoRecENS1_4V1_019RadioIndicationTypeERKNS4_22CdmaInformationRecordsE
_ZN7android8hardware5radio4V1_119BpHwRadioIndication11linkToDeathERKNS_2spINS0_20hidl_death_recipientEEEy
_ZN7android8hardware5radio4V1_119BpHwRadioIndication11newSmsOnSimENS1_4V1_019RadioIndicationTypeEi
_ZN7android8hardware5radio4V1_119BpHwRadioIndication12cellInfoListENS1_4V1_019RadioIndicationTypeERKNS0_8hidl_vecINS4_8CellInfoEEE
_ZN7android8hardware5radio4V1_119BpHwRadioIndication12getDebugInfoENSt3__18functionIFvRKNS_4hidl4base4V1_09DebugInfoEEEE
_ZN7android8hardware5radio4V1_119BpHwRadioIndication12getHashChainENSt3__18functionIFvRKNS0_8hidl_vecINS0_10hidl_arrayIhLj32EJEEEEEEEE
_ZN7android8hardware5radio4V1_119BpHwRadioIndication12rilConnectedENS1_4V1_019RadioIndicationTypeE
_ZN7android8hardware5radio4V1_119BpHwRadioIndication12stkCallSetupENS1_4V1_019RadioIndicationTypeEx
_ZN7android8hardware5radio4V1_119BpHwRadioIndication13stkSessionEndENS1_4V1_019RadioIndicationTypeE
_ZN7android8hardware5radio4V1_119BpHwRadioIndication13suppSvcNotifyENS1_4V1_019RadioIndicationTypeERKNS4_19SuppSvcNotificationE
_ZN7android8hardware5radio4V1_119BpHwRadioIndication13unlinkToDeathERKNS_2spINS0_20hidl_death_recipientEEE
_ZN7android8hardware5radio4V1_119BpHwRadioIndication14cdmaPrlChangedENS1_4V1_019RadioIndicationTypeEi
_ZN7android8hardware5radio4V1_119BpHwRadioIndication14interfaceChainENSt3__18functionIFvRKNS0_8hidl_vecINS0_11hidl_stringEEEEEE
_ZN7android8hardware5radio4V1_119BpHwRadioIndication14stkEventNotifyENS1_4V1_019RadioIndicationTypeERKNS0_11hidl_stringE
_ZN7android8hardware5radio4V1_119BpHwRadioIndication15cdmaCallWaitingENS1_4V1_019RadioIndicationTypeERKNS4_15CdmaCallWaitingE
_ZN7android8hardware5radio4V1_119BpHwRadioIndication15keepaliveStatusENS1_4V1_019RadioIndicationTypeERKNS2_15KeepaliveStatusE
_ZN7android8hardware5radio4V1_119BpHwRadioIndication15newBroadcastSmsENS1_4V1_019RadioIndicationTypeERKNS0_8hidl_vecIhEE
_ZN7android8hardware5radio4V1_119BpHwRadioIndication16callStateChangedENS1_4V1_019RadioIndicationTypeE
_ZN7android8hardware5radio4V1_119BpHwRadioIndication16nitzTimeReceivedENS1_4V1_019RadioIndicationTypeERKNS0_11hidl_stringEy
_ZN7android8hardware5radio4V1_119BpHwRadioIndication16resendIncallMuteENS1_4V1_019RadioIndicationTypeE
_ZN7android8hardware5radio4V1_119BpHwRadioIndication16simStatusChangedENS1_4V1_019RadioIndicationTypeE
_ZN7android8hardware5radio4V1_119BpHwRadioIndication16srvccStateNotifyENS1_4V1_019RadioIndicationTypeENS4_10SrvccStateE
_ZN7android8hardware5radio4V1_119BpHwRadioIndication17networkScanResultENS1_4V1_019RadioIndicationTypeERKNS2_17NetworkScanResultE
_ZN7android8hardware5radio4V1_119BpHwRadioIndication17radioStateChangedENS1_4V1_019RadioIndicationTypeENS4_10RadioStateE
_ZN7android8hardware5radio4V1_119BpHwRadioIndication17simSmsStorageFullENS1_4V1_019RadioIndicationTypeE
_ZN7android8hardware5radio4V1_119BpHwRadioIndication18newSmsStatusReportENS1_4V1_019RadioIndicationTypeERKNS0_8hidl_vecIhEE
_ZN7android8hardware5radio4V1_119BpHwRadioIndication19dataCallListChangedENS1_4V1_019RadioIndicationTypeERKNS0_8hidl_vecINS4_19SetupDataCallResultEEE
_ZN7android8hardware5radio4V1_119BpHwRadioIndication19interfaceDescriptorENSt3__18functionIFvRKNS0_11hidl_stringEEEE
_ZN7android8hardware5radio4V1_119BpHwRadioIndication19networkStateChangedENS1_4V1_019RadioIndicationTypeE
_ZN7android8hardware5radio4V1_119BpHwRadioIndication19stkProactiveCommandENS1_4V1_019RadioIndicationTypeERKNS0_11hidl_stringE
_ZN7android8hardware5radio4V1_119BpHwRadioIndication20indicateRingbackToneENS1_4V1_019RadioIndicationTypeEb
_ZN7android8hardware5radio4V1_119BpHwRadioIndication21_hidl_keepaliveStatusEPNS0_10IInterfaceEPNS0_7details16HidlInstrumentorENS1_4V1_019RadioIndicationTypeERKNS2_15KeepaliveStatusE
_ZN7android8hardware5radio4V1_119BpHwRadioIndication21currentSignalStrengthENS1_4V1_019RadioIndicationTypeERKNS4_14SignalStrengthE
_ZN7android8hardware5radio4V1_119BpHwRadioIndication21hardwareConfigChangedENS1_4V1_019RadioIndicationTypeERKNS0_8hidl_vecINS4_14HardwareConfigEEE
_ZN7android8hardware5radio4V1_119BpHwRadioIndication21notifySyspropsChangedEv
_ZN7android8hardware5radio4V1_119BpHwRadioIndication21setHALInstrumentationEv
_ZN7android8hardware5radio4V1_119BpHwRadioIndication21voiceRadioTechChangedENS1_4V1_019RadioIndicationTypeENS4_15RadioTechnologyE
_ZN7android8hardware5radio4V1_119BpHwRadioIndication22cdmaOtaProvisionStatusENS1_4V1_019RadioIndicationTypeENS4_22CdmaOtaProvisionStatusE
_ZN7android8hardware5radio4V1_119BpHwRadioIndication22cdmaRuimSmsStorageFullENS1_4V1_019RadioIndicationTypeE
_ZN7android8hardware5radio4V1_119BpHwRadioIndication22imsNetworkStateChangedENS1_4V1_019RadioIndicationTypeE
_ZN7android8hardware5radio4V1_119BpHwRadioIndication22restrictedStateChangedENS1_4V1_019RadioIndicationTypeENS4_20PhoneRestrictedStateE
_ZN7android8hardware5radio4V1_119BpHwRadioIndication23_hidl_networkScanResultEPNS0_10IInterfaceEPNS0_7details16HidlInstrumentorENS1_4V1_019RadioIndicationTypeERKNS2_17NetworkScanResultE
_ZN7android8hardware5radio4V1_119BpHwRadioIndication25exitEmergencyCallbackModeENS1_4V1_019RadioIndicationTypeE
_ZN7android8hardware5radio4V1_119BpHwRadioIndication25radioCapabilityIndicationENS1_4V1_019RadioIndicationTypeERKNS4_15RadioCapabilityE
_ZN7android8hardware5radio4V1_119BpHwRadioIndication25stkCallControlAlphaNotifyENS1_4V1_019RadioIndicationTypeERKNS0_11hidl_stringE
_ZN7android8hardware5radio4V1_119BpHwRadioIndication25subscriptionStatusChangedENS1_4V1_019RadioIndicationTypeEb
_ZN7android8hardware5radio4V1_119BpHwRadioIndication26enterEmergencyCallbackModeENS1_4V1_019RadioIndicationTypeE
_ZN7android8hardware5radio4V1_119BpHwRadioIndication28carrierInfoForImsiEncryptionENS1_4V1_019RadioIndicationTypeE
_ZN7android8hardware5radio4V1_119BpHwRadioIndication29cdmaSubscriptionSourceChangedENS1_4V1_019RadioIndicationTypeENS4_22CdmaSubscriptionSourceE
_ZN7android8hardware5radio4V1_119BpHwRadioIndication32onSupplementaryServiceIndicationENS1_4V1_019RadioIndicationTypeERKNS4_18StkCcUnsolSsResultE
_ZN7android8hardware5radio4V1_119BpHwRadioIndication34_hidl_carrierInfoForImsiEncryptionEPNS0_10IInterfaceEPNS0_7details16HidlInstrumentorENS1_4V1_019RadioIndicationTypeE
_ZN7android8hardware5radio4V1_119BpHwRadioIndication4pingEv
_ZN7android8hardware5radio4V1_119BpHwRadioIndication5debugERKNS0_11hidl_handleERKNS0_8hidl_vecINS0_11hidl_stringEEE
_ZN7android8hardware5radio4V1_119BpHwRadioIndication6newSmsENS1_4V1_019RadioIndicationTypeERKNS0_8hidl_vecIhEE
_ZN7android8hardware5radio4V1_119BpHwRadioIndication6onUssdENS1_4V1_019RadioIndicationTypeENS4_12UssdModeTypeERKNS0_11hidl_stringE
_ZN7android8hardware5radio4V1_119BpHwRadioIndication7lceDataENS1_4V1_019RadioIndicationTypeERKNS4_11LceDataInfoE
_ZN7android8hardware5radio4V1_119BpHwRadioIndication7pcoDataENS1_4V1_019RadioIndicationTypeERKNS4_11PcoDataInfoE
_ZN7android8hardware5radio4V1_119BpHwRadioIndication8callRingENS1_4V1_019RadioIndicationTypeEbRKNS4_20CdmaSignalInfoRecordE
_ZN7android8hardware5radio4V1_119BpHwRadioIndicationC1ERKNS_2spINS0_7IBinderEEE
_ZN7android8hardware5radio4V1_119BpHwRadioIndicationC2ERKNS_2spINS0_7IBinderEEE
_ZN7android8hardware5radio4V1_121writeEmbeddedToParcelERKNS2_16KeepaliveRequestEPNS0_6ParcelEjj
_ZN7android8hardware5radio4V1_121writeEmbeddedToParcelERKNS2_17NetworkScanResultEPNS0_6ParcelEjj
_ZN7android8hardware5radio4V1_121writeEmbeddedToParcelERKNS2_18ImsiEncryptionInfoEPNS0_6ParcelEjj
_ZN7android8hardware5radio4V1_121writeEmbeddedToParcelERKNS2_18NetworkScanRequestEPNS0_6ParcelEjj
_ZN7android8hardware5radio4V1_121writeEmbeddedToParcelERKNS2_20RadioAccessSpecifierEPNS0_6ParcelEjj
_ZN7android8hardware5radio4V1_122readEmbeddedFromParcelERKNS2_16KeepaliveRequestERKNS0_6ParcelEjj
_ZN7android8hardware5radio4V1_122readEmbeddedFromParcelERKNS2_17NetworkScanResultERKNS0_6ParcelEjj
_ZN7android8hardware5radio4V1_122readEmbeddedFromParcelERKNS2_18ImsiEncryptionInfoERKNS0_6ParcelEjj
_ZN7android8hardware5radio4V1_122readEmbeddedFromParcelERKNS2_18NetworkScanRequestERKNS0_6ParcelEjj
_ZN7android8hardware5radio4V1_122readEmbeddedFromParcelERKNS2_20RadioAccessSpecifierERKNS0_6ParcelEjj
_ZN7android8hardware5radio4V1_14ISap10descriptorE
_ZN7android8hardware5radio4V1_14ISap10getServiceERKNSt3__112basic_stringIcNS4_11char_traitsIcEENS4_9allocatorIcEEEEb
_ZN7android8hardware5radio4V1_14ISap11linkToDeathERKNS_2spINS0_20hidl_death_recipientEEEy
_ZN7android8hardware5radio4V1_14ISap12getDebugInfoENSt3__18functionIFvRKNS_4hidl4base4V1_09DebugInfoEEEE
_ZN7android8hardware5radio4V1_14ISap12getHashChainENSt3__18functionIFvRKNS0_8hidl_vecINS0_10hidl_arrayIhLj32EJEEEEEEEE
_ZN7android8hardware5radio4V1_14ISap13tryGetServiceERKNSt3__112basic_stringIcNS4_11char_traitsIcEENS4_9allocatorIcEEEEb
_ZN7android8hardware5radio4V1_14ISap13unlinkToDeathERKNS_2spINS0_20hidl_death_recipientEEE
_ZN7android8hardware5radio4V1_14ISap14interfaceChainENSt3__18functionIFvRKNS0_8hidl_vecINS0_11hidl_stringEEEEEE
_ZN7android8hardware5radio4V1_14ISap17registerAsServiceERKNSt3__112basic_stringIcNS4_11char_traitsIcEENS4_9allocatorIcEEEE
_ZN7android8hardware5radio4V1_14ISap19interfaceDescriptorENSt3__18functionIFvRKNS0_11hidl_stringEEEE
_ZN7android8hardware5radio4V1_14ISap21notifySyspropsChangedEv
_ZN7android8hardware5radio4V1_14ISap21setHALInstrumentationEv
_ZN7android8hardware5radio4V1_14ISap24registerForNotificationsERKNSt3__112basic_stringIcNS4_11char_traitsIcEENS4_9allocatorIcEEEERKNS_2spINS_4hidl7manager4V1_020IServiceNotificationEEE
_ZN7android8hardware5radio4V1_14ISap4pingEv
_ZN7android8hardware5radio4V1_14ISap5debugERKNS0_11hidl_handleERKNS0_8hidl_vecINS0_11hidl_stringEEE
_ZN7android8hardware5radio4V1_14ISap8castFromERKNS_2spINS1_4V1_04ISapEEEb
_ZN7android8hardware5radio4V1_14ISap8castFromERKNS_2spINS_4hidl4base4V1_05IBaseEEEb
_ZN7android8hardware5radio4V1_14ISap8castFromERKNS_2spIS3_EEb
_ZN7android8hardware5radio4V1_15BsSap13addOnewayTaskENSt3__18functionIFvvEEE
_ZN7android8hardware5radio4V1_15BsSapC1ENS_2spINS2_4ISapEEE
_ZN7android8hardware5radio4V1_15BsSapC2ENS_2spINS2_4ISapEEE
_ZN7android8hardware5radio4V1_16IRadio10descriptorE
_ZN7android8hardware5radio4V1_16IRadio10getServiceERKNSt3__112basic_stringIcNS4_11char_traitsIcEENS4_9allocatorIcEEEEb
_ZN7android8hardware5radio4V1_16IRadio11linkToDeathERKNS_2spINS0_20hidl_death_recipientEEEy
_ZN7android8hardware5radio4V1_16IRadio12getDebugInfoENSt3__18functionIFvRKNS_4hidl4base4V1_09DebugInfoEEEE
_ZN7android8hardware5radio4V1_16IRadio12getHashChainENSt3__18functionIFvRKNS0_8hidl_vecINS0_10hidl_arrayIhLj32EJEEEEEEEE
_ZN7android8hardware5radio4V1_16IRadio13tryGetServiceERKNSt3__112basic_stringIcNS4_11char_traitsIcEENS4_9allocatorIcEEEEb
_ZN7android8hardware5radio4V1_16IRadio13unlinkToDeathERKNS_2spINS0_20hidl_death_recipientEEE
_ZN7android8hardware5radio4V1_16IRadio14interfaceChainENSt3__18functionIFvRKNS0_8hidl_vecINS0_11hidl_stringEEEEEE
_ZN7android8hardware5radio4V1_16IRadio17registerAsServiceERKNSt3__112basic_stringIcNS4_11char_traitsIcEENS4_9allocatorIcEEEE
_ZN7android8hardware5radio4V1_16IRadio19interfaceDescriptorENSt3__18functionIFvRKNS0_11hidl_stringEEEE
_ZN7android8hardware5radio4V1_16IRadio21notifySyspropsChangedEv
_ZN7android8hardware5radio4V1_16IRadio21setHALInstrumentationEv
_ZN7android8hardware5radio4V1_16IRadio24registerForNotificationsERKNSt3__112basic_stringIcNS4_11char_traitsIcEENS4_9allocatorIcEEEERKNS_2spINS_4hidl7manager4V1_020IServiceNotificationEEE
_ZN7android8hardware5radio4V1_16IRadio4pingEv
_ZN7android8hardware5radio4V1_16IRadio5debugERKNS0_11hidl_handleERKNS0_8hidl_vecINS0_11hidl_stringEEE
_ZN7android8hardware5radio4V1_16IRadio8castFromERKNS_2spINS1_4V1_06IRadioEEEb
_ZN7android8hardware5radio4V1_16IRadio8castFromERKNS_2spINS_4hidl4base4V1_05IBaseEEEb
_ZN7android8hardware5radio4V1_16IRadio8castFromERKNS_2spIS3_EEb
_ZN7android8hardware5radio4V1_17BnHwSap10onTransactEjRKNS0_6ParcelEPS4_jNSt3__18functionIFvRS4_EEE
_ZN7android8hardware5radio4V1_17BnHwSap12getDebugInfoENSt3__18functionIFvRKNS_4hidl4base4V1_09DebugInfoEEEE
_ZN7android8hardware5radio4V1_17BnHwSap4pingEv
_ZN7android8hardware5radio4V1_17BnHwSapC1ERKNS_2spINS2_4ISapEEE
_ZN7android8hardware5radio4V1_17BnHwSapC2ERKNS_2spINS2_4ISapEEE
_ZN7android8hardware5radio4V1_17BnHwSapD0Ev
_ZN7android8hardware5radio4V1_17BnHwSapD1Ev
_ZN7android8hardware5radio4V1_17BnHwSapD2Ev
_ZN7android8hardware5radio4V1_17BpHwSap10connectReqEii
_ZN7android8hardware5radio4V1_17BpHwSap11linkToDeathERKNS_2spINS0_20hidl_death_recipientEEEy
_ZN7android8hardware5radio4V1_17BpHwSap11resetSimReqEi
_ZN7android8hardware5radio4V1_17BpHwSap11setCallbackERKNS_2spINS1_4V1_012ISapCallbackEEE
_ZN7android8hardware5radio4V1_17BpHwSap12getDebugInfoENSt3__18functionIFvRKNS_4hidl4base4V1_09DebugInfoEEEE
_ZN7android8hardware5radio4V1_17BpHwSap12getHashChainENSt3__18functionIFvRKNS0_8hidl_vecINS0_10hidl_arrayIhLj32EJEEEEEEEE
_ZN7android8hardware5radio4V1_17BpHwSap13disconnectReqEi
_ZN7android8hardware5radio4V1_17BpHwSap13unlinkToDeathERKNS_2spINS0_20hidl_death_recipientEEE
_ZN7android8hardware5radio4V1_17BpHwSap14interfaceChainENSt3__18functionIFvRKNS0_8hidl_vecINS0_11hidl_stringEEEEEE
_ZN7android8hardware5radio4V1_17BpHwSap14transferAtrReqEi
_ZN7android8hardware5radio4V1_17BpHwSap19interfaceDescriptorENSt3__18functionIFvRKNS0_11hidl_stringEEEE
_ZN7android8hardware5radio4V1_17BpHwSap21notifySyspropsChangedEv
_ZN7android8hardware5radio4V1_17BpHwSap21setHALInstrumentationEv
_ZN7android8hardware5radio4V1_17BpHwSap22setTransferProtocolReqEiNS1_4V1_019SapTransferProtocolE
_ZN7android8hardware5radio4V1_17BpHwSap27transferCardReaderStatusReqEi
_ZN7android8hardware5radio4V1_17BpHwSap4pingEv
_ZN7android8hardware5radio4V1_17BpHwSap5debugERKNS0_11hidl_handleERKNS0_8hidl_vecINS0_11hidl_stringEEE
_ZN7android8hardware5radio4V1_17BpHwSap7apduReqEiNS1_4V1_011SapApduTypeERKNS0_8hidl_vecIhEE
_ZN7android8hardware5radio4V1_17BpHwSap8powerReqEib
_ZN7android8hardware5radio4V1_17BpHwSapC1ERKNS_2spINS0_7IBinderEEE
_ZN7android8hardware5radio4V1_17BpHwSapC2ERKNS_2spINS0_7IBinderEEE
_ZN7android8hardware5radio4V1_17BsRadio13addOnewayTaskENSt3__18functionIFvvEEE
_ZN7android8hardware5radio4V1_17BsRadioC1ENS_2spINS2_6IRadioEEE
_ZN7android8hardware5radio4V1_17BsRadioC2ENS_2spINS2_6IRadioEEE
_ZN7android8hardware5radio4V1_19BnHwRadio10onTransactEjRKNS0_6ParcelEPS4_jNSt3__18functionIFvRS4_EEE
_ZN7android8hardware5radio4V1_19BnHwRadio12getDebugInfoENSt3__18functionIFvRKNS_4hidl4base4V1_09DebugInfoEEEE
_ZN7android8hardware5radio4V1_19BnHwRadio19_hidl_stopKeepaliveEPNS_4hidl4base4V1_08BnHwBaseERKNS0_6ParcelEPS9_NSt3__18functionIFvRS9_EEE
_ZN7android8hardware5radio4V1_19BnHwRadio20_hidl_startKeepaliveEPNS_4hidl4base4V1_08BnHwBaseERKNS0_6ParcelEPS9_NSt3__18functionIFvRS9_EEE
_ZN7android8hardware5radio4V1_19BnHwRadio21_hidl_stopNetworkScanEPNS_4hidl4base4V1_08BnHwBaseERKNS0_6ParcelEPS9_NSt3__18functionIFvRS9_EEE
_ZN7android8hardware5radio4V1_19BnHwRadio22_hidl_startNetworkScanEPNS_4hidl4base4V1_08BnHwBaseERKNS0_6ParcelEPS9_NSt3__18functionIFvRS9_EEE
_ZN7android8hardware5radio4V1_19BnHwRadio25_hidl_setSimCardPower_1_1EPNS_4hidl4base4V1_08BnHwBaseERKNS0_6ParcelEPS9_NSt3__18functionIFvRS9_EEE
_ZN7android8hardware5radio4V1_19BnHwRadio37_hidl_setCarrierInfoForImsiEncryptionEPNS_4hidl4base4V1_08BnHwBaseERKNS0_6ParcelEPS9_NSt3__18functionIFvRS9_EEE
_ZN7android8hardware5radio4V1_19BnHwRadio4pingEv
_ZN7android8hardware5radio4V1_19BnHwRadioC1ERKNS_2spINS2_6IRadioEEE
_ZN7android8hardware5radio4V1_19BnHwRadioC2ERKNS_2spINS2_6IRadioEEE
_ZN7android8hardware5radio4V1_19BnHwRadioD0Ev
_ZN7android8hardware5radio4V1_19BnHwRadioD1Ev
_ZN7android8hardware5radio4V1_19BnHwRadioD2Ev
_ZN7android8hardware5radio4V1_19BpHwRadio10acceptCallEi
_ZN7android8hardware5radio4V1_19BpHwRadio10conferenceEi
_ZN7android8hardware5radio4V1_19BpHwRadio10getTTYModeEi
_ZN7android8hardware5radio4V1_19BpHwRadio10nvReadItemEiNS1_4V1_06NvItemE
_ZN7android8hardware5radio4V1_19BpHwRadio10rejectCallEi
_ZN7android8hardware5radio4V1_19BpHwRadio10sendImsSmsEiRKNS1_4V1_013ImsSmsMessageE
_ZN7android8hardware5radio4V1_19BpHwRadio10setTTYModeEiNS1_4V1_07TtyModeE
_ZN7android8hardware5radio4V1_19BpHwRadio11getOperatorEi
_ZN7android8hardware5radio4V1_19BpHwRadio11iccIOForAppEiRKNS1_4V1_05IccIoE
_ZN7android8hardware5radio4V1_19BpHwRadio11linkToDeathERKNS_2spINS0_20hidl_death_recipientEEEy
_ZN7android8hardware5radio4V1_19BpHwRadio11nvWriteItemEiRKNS1_4V1_011NvWriteItemE
_ZN7android8hardware5radio4V1_19BpHwRadio11pullLceDataEi
_ZN7android8hardware5radio4V1_19BpHwRadio11sendCdmaSmsEiRKNS1_4V1_014CdmaSmsMessageE
_ZN7android8hardware5radio4V1_19BpHwRadio11setBandModeEiNS1_4V1_013RadioBandModeE
_ZN7android8hardware5radio4V1_19BpHwRadio12getDebugInfoENSt3__18functionIFvRKNS_4hidl4base4V1_09DebugInfoEEEE
_ZN7android8hardware5radio4V1_19BpHwRadio12getHashChainENSt3__18functionIFvRKNS0_8hidl_vecINS0_10hidl_arrayIhLj32EJEEEEEEEE
_ZN7android8hardware5radio4V1_19BpHwRadio12sendEnvelopeEiRKNS0_11hidl_stringE
_ZN7android8hardware5radio4V1_19BpHwRadio13getImsiForAppEiRKNS0_11hidl_stringE
_ZN7android8hardware5radio4V1_19BpHwRadio13nvResetConfigEiNS1_4V1_011ResetNvTypeE
_ZN7android8hardware5radio4V1_19BpHwRadio13sendBurstDtmfEiRKNS0_11hidl_stringEii
_ZN7android8hardware5radio4V1_19BpHwRadio13setRadioPowerEib
_ZN7android8hardware5radio4V1_19BpHwRadio13setupDataCallEiNS1_4V1_015RadioTechnologyERKNS4_15DataProfileInfoEbbb
_ZN7android8hardware5radio4V1_19BpHwRadio13stopKeepaliveEii
_ZN7android8hardware5radio4V1_19BpHwRadio13unlinkToDeathERKNS_2spINS0_20hidl_death_recipientEEE
_ZN7android8hardware5radio4V1_19BpHwRadio13writeSmsToSimEiRKNS1_4V1_012SmsWriteArgsE
_ZN7android8hardware5radio4V1_19BpHwRadio14deleteSmsOnSimEii
_ZN7android8hardware5radio4V1_19BpHwRadio14getCallWaitingEii
_ZN7android8hardware5radio4V1_19BpHwRadio14getSmscAddressEi
_ZN7android8hardware5radio4V1_19BpHwRadio14interfaceChainENSt3__18functionIFvRKNS0_8hidl_vecINS0_11hidl_stringEEEEEE
_ZN7android8hardware5radio4V1_19BpHwRadio14nvWriteCdmaPrlEiRKNS0_8hidl_vecIhEE
_ZN7android8hardware5radio4V1_19BpHwRadio14setCallForwardEiRKNS1_4V1_015CallForwardInfoE
_ZN7android8hardware5radio4V1_19BpHwRadio14setCallWaitingEibi
_ZN7android8hardware5radio4V1_19BpHwRadio14setDataAllowedEib
_ZN7android8hardware5radio4V1_19BpHwRadio14setDataProfileEiRKNS0_8hidl_vecINS1_4V1_015DataProfileInfoEEEb
_ZN7android8hardware5radio4V1_19BpHwRadio14setSmscAddressEiRKNS0_11hidl_stringE
_ZN7android8hardware5radio4V1_19BpHwRadio14startKeepaliveEiRKNS2_16KeepaliveRequestE
_ZN7android8hardware5radio4V1_19BpHwRadio14stopLceServiceEi
_ZN7android8hardware5radio4V1_19BpHwRadio14writeSmsToRuimEiRKNS1_4V1_016CdmaSmsWriteArgsE
_ZN7android8hardware5radio4V1_19BpHwRadio15deleteSmsOnRuimEii
_ZN7android8hardware5radio4V1_19BpHwRadio15getCellInfoListEi
_ZN7android8hardware5radio4V1_19BpHwRadio15getCurrentCallsEi
_ZN7android8hardware5radio4V1_19BpHwRadio15getDataCallListEi
_ZN7android8hardware5radio4V1_19BpHwRadio15requestShutdownEi
_ZN7android8hardware5radio4V1_19BpHwRadio15sendDeviceStateEiNS1_4V1_015DeviceStateTypeEb
_ZN7android8hardware5radio4V1_19BpHwRadio15setSimCardPowerEib
_ZN7android8hardware5radio4V1_19BpHwRadio15startLceServiceEiib
_ZN7android8hardware5radio4V1_19BpHwRadio15stopNetworkScanEi
_ZN7android8hardware5radio4V1_19BpHwRadio16getIccCardStatusEi
_ZN7android8hardware5radio4V1_19BpHwRadio16startNetworkScanEiRKNS2_18NetworkScanRequestE
_ZN7android8hardware5radio4V1_19BpHwRadio17cancelPendingUssdEi
_ZN7android8hardware5radio4V1_19BpHwRadio17getDeviceIdentityEi
_ZN7android8hardware5radio4V1_19BpHwRadio17getHardwareConfigEi
_ZN7android8hardware5radio4V1_19BpHwRadio17getSignalStrengthEi
_ZN7android8hardware5radio4V1_19BpHwRadio17sendSMSExpectMoreEiRKNS1_4V1_013GsmSmsMessageE
_ZN7android8hardware5radio4V1_19BpHwRadio18changeIccPinForAppEiRKNS0_11hidl_stringES6_S6_
_ZN7android8hardware5radio4V1_19BpHwRadio18deactivateDataCallEiib
_ZN7android8hardware5radio4V1_19BpHwRadio18getAllowedCarriersEi
_ZN7android8hardware5radio4V1_19BpHwRadio18getBasebandVersionEi
_ZN7android8hardware5radio4V1_19BpHwRadio18getNeighboringCidsEi
_ZN7android8hardware5radio4V1_19BpHwRadio18getRadioCapabilityEi
_ZN7android8hardware5radio4V1_19BpHwRadio18separateConnectionEii
_ZN7android8hardware5radio4V1_19BpHwRadio18setAllowedCarriersEibRKNS1_4V1_019CarrierRestrictionsE
_ZN7android8hardware5radio4V1_19BpHwRadio18setBarringPasswordEiRKNS0_11hidl_stringES6_S6_
_ZN7android8hardware5radio4V1_19BpHwRadio18setLocationUpdatesEib
_ZN7android8hardware5radio4V1_19BpHwRadio18setRadioCapabilityEiRKNS1_4V1_015RadioCapabilityE
_ZN7android8hardware5radio4V1_19BpHwRadio18supplyIccPinForAppEiRKNS0_11hidl_stringES6_
_ZN7android8hardware5radio4V1_19BpHwRadio18supplyIccPukForAppEiRKNS0_11hidl_stringES6_S6_
_ZN7android8hardware5radio4V1_19BpHwRadio19_hidl_stopKeepaliveEPNS0_10IInterfaceEPNS0_7details16HidlInstrumentorEii
_ZN7android8hardware5radio4V1_19BpHwRadio19changeIccPin2ForAppEiRKNS0_11hidl_stringES6_S6_
_ZN7android8hardware5radio4V1_19BpHwRadio19getCDMASubscriptionEi
_ZN7android8hardware5radio4V1_19BpHwRadio19interfaceDescriptorENSt3__18functionIFvRKNS0_11hidl_stringEEEE
_ZN7android8hardware5radio4V1_19BpHwRadio19sendCDMAFeatureCodeEiRKNS0_11hidl_stringE
_ZN7android8hardware5radio4V1_19BpHwRadio19setCellInfoListRateEii
_ZN7android8hardware5radio4V1_19BpHwRadio19setIndicationFilterEii
_ZN7android8hardware5radio4V1_19BpHwRadio19setInitialAttachApnEiRKNS1_4V1_015DataProfileInfoEbb
_ZN7android8hardware5radio4V1_19BpHwRadio19setSimCardPower_1_1EiNS2_14CardPowerStateE
_ZN7android8hardware5radio4V1_19BpHwRadio19setUiccSubscriptionEiRKNS1_4V1_013SelectUiccSubE
_ZN7android8hardware5radio4V1_19BpHwRadio19supplyIccPin2ForAppEiRKNS0_11hidl_stringES6_
_ZN7android8hardware5radio4V1_19BpHwRadio19supplyIccPuk2ForAppEiRKNS0_11hidl_stringES6_S6_
_ZN7android8hardware5radio4V1_19BpHwRadio20_hidl_startKeepaliveEPNS0_10IInterfaceEPNS0_7details16HidlInstrumentorEiRKNS2_16KeepaliveRequestE
_ZN7android8hardware5radio4V1_19BpHwRadio20explicitCallTransferEi
_ZN7android8hardware5radio4V1_19BpHwRadio20getAvailableNetworksEi
_ZN7android8hardware5radio4V1_19BpHwRadio20getCallForwardStatusEiRKNS1_4V1_015CallForwardInfoE
_ZN7android8hardware5radio4V1_19BpHwRadio20getLastCallFailCauseEi
_ZN7android8hardware5radio4V1_19BpHwRadio20getModemActivityInfoEi
_ZN7android8hardware5radio4V1_19BpHwRadio20setResponseFunctionsERKNS_2spINS1_4V1_014IRadioResponseEEERKNS4_INS5_16IRadioIndicationEEE
_ZN7android8hardware5radio4V1_19BpHwRadio21_hidl_stopNetworkScanEPNS0_10IInterfaceEPNS0_7details16HidlInstrumentorEi
_ZN7android8hardware5radio4V1_19BpHwRadio21getAvailableBandModesEi
_ZN7android8hardware5radio4V1_19BpHwRadio21getFacilityLockForAppEiRKNS0_11hidl_stringES6_iS6_
_ZN7android8hardware5radio4V1_19BpHwRadio21getGsmBroadcastConfigEi
_ZN7android8hardware5radio4V1_19BpHwRadio21iccOpenLogicalChannelEiRKNS0_11hidl_stringEi
_ZN7android8hardware5radio4V1_19BpHwRadio21notifySyspropsChangedEv
_ZN7android8hardware5radio4V1_19BpHwRadio21reportSmsMemoryStatusEib
_ZN7android8hardware5radio4V1_19BpHwRadio21setFacilityLockForAppEiRKNS0_11hidl_stringEbS6_iS6_
_ZN7android8hardware5radio4V1_19BpHwRadio21setGsmBroadcastConfigEiRKNS0_8hidl_vecINS1_4V1_025GsmBroadcastSmsConfigInfoEEE
_ZN7android8hardware5radio4V1_19BpHwRadio21setHALInstrumentationEv
_ZN7android8hardware5radio4V1_19BpHwRadio22_hidl_startNetworkScanEPNS0_10IInterfaceEPNS0_7details16HidlInstrumentorEiRKNS2_18NetworkScanRequestE
_ZN7android8hardware5radio4V1_19BpHwRadio22getCdmaBroadcastConfigEi
_ZN7android8hardware5radio4V1_19BpHwRadio22iccCloseLogicalChannelEii
_ZN7android8hardware5radio4V1_19BpHwRadio22sendEnvelopeWithStatusEiRKNS0_11hidl_stringE
_ZN7android8hardware5radio4V1_19BpHwRadio22setCdmaBroadcastConfigEiRKNS0_8hidl_vecINS1_4V1_026CdmaBroadcastSmsConfigInfoEEE
_ZN7android8hardware5radio4V1_19BpHwRadio23getImsRegistrationStateEi
_ZN7android8hardware5radio4V1_19BpHwRadio23getNetworkSelectionModeEi
_ZN7android8hardware5radio4V1_19BpHwRadio23getPreferredNetworkTypeEi
_ZN7android8hardware5radio4V1_19BpHwRadio23getVoiceRadioTechnologyEi
_ZN7android8hardware5radio4V1_19BpHwRadio23responseAcknowledgementEv
_ZN7android8hardware5radio4V1_19BpHwRadio23setPreferredNetworkTypeEiNS1_4V1_020PreferredNetworkTypeE
_ZN7android8hardware5radio4V1_19BpHwRadio24getCdmaRoamingPreferenceEi
_ZN7android8hardware5radio4V1_19BpHwRadio24getDataRegistrationStateEi
_ZN7android8hardware5radio4V1_19BpHwRadio24getPreferredVoicePrivacyEi
_ZN7android8hardware5radio4V1_19BpHwRadio24setCdmaRoamingPreferenceEiNS1_4V1_015CdmaRoamingTypeE
_ZN7android8hardware5radio4V1_19BpHwRadio24setPreferredVoicePrivacyEib
_ZN7android8hardware5radio4V1_19BpHwRadio25_hidl_setSimCardPower_1_1EPNS0_10IInterfaceEPNS0_7details16HidlInstrumentorEiNS2_14CardPowerStateE
_ZN7android8hardware5radio4V1_19BpHwRadio25exitEmergencyCallbackModeEi
_ZN7android8hardware5radio4V1_19BpHwRadio25getCdmaSubscriptionSourceEi
_ZN7android8hardware5radio4V1_19BpHwRadio25getVoiceRegistrationStateEi
_ZN7android8hardware5radio4V1_19BpHwRadio25hangupWaitingOrBackgroundEi
_ZN7android8hardware5radio4V1_19BpHwRadio25reportStkServiceIsRunningEi
_ZN7android8hardware5radio4V1_19BpHwRadio25requestIsimAuthenticationEiRKNS0_11hidl_stringE
_ZN7android8hardware5radio4V1_19BpHwRadio25sendTerminalResponseToSimEiRKNS0_11hidl_stringE
_ZN7android8hardware5radio4V1_19BpHwRadio25setCdmaSubscriptionSourceEiNS1_4V1_022CdmaSubscriptionSourceE
_ZN7android8hardware5radio4V1_19BpHwRadio25setGsmBroadcastActivationEib
_ZN7android8hardware5radio4V1_19BpHwRadio26setCdmaBroadcastActivationEib
_ZN7android8hardware5radio4V1_19BpHwRadio27iccTransmitApduBasicChannelEiRKNS1_4V1_07SimApduE
_ZN7android8hardware5radio4V1_19BpHwRadio27requestIccSimAuthenticationEiiRKNS0_11hidl_stringES6_
_ZN7android8hardware5radio4V1_19BpHwRadio27setSuppServiceNotificationsEib
_ZN7android8hardware5radio4V1_19BpHwRadio29acknowledgeLastIncomingGsmSmsEibNS1_4V1_023SmsAcknowledgeFailCauseE
_ZN7android8hardware5radio4V1_19BpHwRadio29iccTransmitApduLogicalChannelEiRKNS1_4V1_07SimApduE
_ZN7android8hardware5radio4V1_19BpHwRadio29setNetworkSelectionModeManualEiRKNS0_11hidl_stringE
_ZN7android8hardware5radio4V1_19BpHwRadio30acknowledgeLastIncomingCdmaSmsEiRKNS1_4V1_010CdmaSmsAckE
_ZN7android8hardware5radio4V1_19BpHwRadio30supplyNetworkDepersonalizationEiRKNS0_11hidl_stringE
_ZN7android8hardware5radio4V1_19BpHwRadio31setCarrierInfoForImsiEncryptionEiRKNS2_18ImsiEncryptionInfoE
_ZN7android8hardware5radio4V1_19BpHwRadio31switchWaitingOrHoldingAndActiveEi
_ZN7android8hardware5radio4V1_19BpHwRadio32acknowledgeIncomingGsmSmsWithPduEibRKNS0_11hidl_stringE
_ZN7android8hardware5radio4V1_19BpHwRadio32handleStkCallSetupRequestFromSimEib
_ZN7android8hardware5radio4V1_19BpHwRadio32hangupForegroundResumeBackgroundEi
_ZN7android8hardware5radio4V1_19BpHwRadio32setNetworkSelectionModeAutomaticEi
_ZN7android8hardware5radio4V1_19BpHwRadio37_hidl_setCarrierInfoForImsiEncryptionEPNS0_10IInterfaceEPNS0_7details16HidlInstrumentorEiRKNS2_18ImsiEncryptionInfoE
_ZN7android8hardware5radio4V1_19BpHwRadio4dialEiRKNS1_4V1_04DialE
_ZN7android8hardware5radio4V1_19BpHwRadio4pingEv
_ZN7android8hardware5radio4V1_19BpHwRadio5debugERKNS0_11hidl_handleERKNS0_8hidl_vecINS0_11hidl_stringEEE
_ZN7android8hardware5radio4V1_19BpHwRadio6hangupEii
_ZN7android8hardware5radio4V1_19BpHwRadio7getClipEi
_ZN7android8hardware5radio4V1_19BpHwRadio7getClirEi
_ZN7android8hardware5radio4V1_19BpHwRadio7getMuteEi
_ZN7android8hardware5radio4V1_19BpHwRadio7sendSmsEiRKNS1_4V1_013GsmSmsMessageE
_ZN7android8hardware5radio4V1_19BpHwRadio7setClirEii
_ZN7android8hardware5radio4V1_19BpHwRadio7setMuteEib
_ZN7android8hardware5radio4V1_19BpHwRadio8sendDtmfEiRKNS0_11hidl_stringE
_ZN7android8hardware5radio4V1_19BpHwRadio8sendUssdEiRKNS0_11hidl_stringE
_ZN7android8hardware5radio4V1_19BpHwRadio8stopDtmfEi
_ZN7android8hardware5radio4V1_19BpHwRadio9startDtmfEiRKNS0_11hidl_stringE
_ZN7android8hardware5radio4V1_19BpHwRadioC1ERKNS_2spINS0_7IBinderEEE
_ZN7android8hardware5radio4V1_19BpHwRadioC2ERKNS_2spINS0_7IBinderEEE
_ZTCN7android8hardware5radio4V1_114IRadioResponseE0_NS1_4V1_014IRadioResponseE
_ZTCN7android8hardware5radio4V1_114IRadioResponseE0_NS_4hidl4base4V1_05IBaseE
_ZTCN7android8hardware5radio4V1_116IRadioIndicationE0_NS1_4V1_016IRadioIndicationE
_ZTCN7android8hardware5radio4V1_116IRadioIndicationE0_NS_4hidl4base4V1_05IBaseE
_ZTCN7android8hardware5radio4V1_117BnHwRadioResponseE0_NS0_7IBinderE
_ZTCN7android8hardware5radio4V1_117BnHwRadioResponseE0_NS0_9BHwBinderE
_ZTCN7android8hardware5radio4V1_117BnHwRadioResponseE0_NS_4hidl4base4V1_08BnHwBaseE
_ZTCN7android8hardware5radio4V1_117BpHwRadioResponseE0_NS0_11BpInterfaceINS2_14IRadioResponseEEE
_ZTCN7android8hardware5radio4V1_117BpHwRadioResponseE0_NS1_4V1_014IRadioResponseE
_ZTCN7android8hardware5radio4V1_117BpHwRadioResponseE0_NS2_14IRadioResponseE
_ZTCN7android8hardware5radio4V1_117BpHwRadioResponseE0_NS_4hidl4base4V1_05IBaseE
_ZTCN7android8hardware5radio4V1_117BpHwRadioResponseE4_NS0_10IInterfaceE
_ZTCN7android8hardware5radio4V1_117BpHwRadioResponseE8_NS0_11BpHwRefBaseE
_ZTCN7android8hardware5radio4V1_119BnHwRadioIndicationE0_NS0_7IBinderE
_ZTCN7android8hardware5radio4V1_119BnHwRadioIndicationE0_NS0_9BHwBinderE
_ZTCN7android8hardware5radio4V1_119BnHwRadioIndicationE0_NS_4hidl4base4V1_08BnHwBaseE
_ZTCN7android8hardware5radio4V1_119BpHwRadioIndicationE0_NS0_11BpInterfaceINS2_16IRadioIndicationEEE
_ZTCN7android8hardware5radio4V1_119BpHwRadioIndicationE0_NS1_4V1_016IRadioIndicationE
_ZTCN7android8hardware5radio4V1_119BpHwRadioIndicationE0_NS2_16IRadioIndicationE
_ZTCN7android8hardware5radio4V1_119BpHwRadioIndicationE0_NS_4hidl4base4V1_05IBaseE
_ZTCN7android8hardware5radio4V1_119BpHwRadioIndicationE4_NS0_10IInterfaceE
_ZTCN7android8hardware5radio4V1_119BpHwRadioIndicationE8_NS0_11BpHwRefBaseE
_ZTCN7android8hardware5radio4V1_14ISapE0_NS1_4V1_04ISapE
_ZTCN7android8hardware5radio4V1_14ISapE0_NS_4hidl4base4V1_05IBaseE
_ZTCN7android8hardware5radio4V1_16IRadioE0_NS1_4V1_06IRadioE
_ZTCN7android8hardware5radio4V1_16IRadioE0_NS_4hidl4base4V1_05IBaseE
_ZTCN7android8hardware5radio4V1_17BnHwSapE0_NS0_7IBinderE
_ZTCN7android8hardware5radio4V1_17BnHwSapE0_NS0_9BHwBinderE
_ZTCN7android8hardware5radio4V1_17BnHwSapE0_NS_4hidl4base4V1_08BnHwBaseE
_ZTCN7android8hardware5radio4V1_17BpHwSapE0_NS0_11BpInterfaceINS2_4ISapEEE
_ZTCN7android8hardware5radio4V1_17BpHwSapE0_NS1_4V1_04ISapE
_ZTCN7android8hardware5radio4V1_17BpHwSapE0_NS2_4ISapE
_ZTCN7android8hardware5radio4V1_17BpHwSapE0_NS_4hidl4base4V1_05IBaseE
_ZTCN7android8hardware5radio4V1_17BpHwSapE4_NS0_10IInterfaceE
_ZTCN7android8hardware5radio4V1_17BpHwSapE8_NS0_11BpHwRefBaseE
_ZTCN7android8hardware5radio4V1_19BnHwRadioE0_NS0_7IBinderE
_ZTCN7android8hardware5radio4V1_19BnHwRadioE0_NS0_9BHwBinderE
_ZTCN7android8hardware5radio4V1_19BnHwRadioE0_NS_4hidl4base4V1_08BnHwBaseE
_ZTCN7android8hardware5radio4V1_19BpHwRadioE0_NS0_11BpInterfaceINS2_6IRadioEEE
_ZTCN7android8hardware5radio4V1_19BpHwRadioE0_NS1_4V1_06IRadioE
_ZTCN7android8hardware5radio4V1_19BpHwRadioE0_NS2_6IRadioE
_ZTCN7android8hardware5radio4V1_19BpHwRadioE0_NS_4hidl4base4V1_05IBaseE
_ZTCN7android8hardware5radio4V1_19BpHwRadioE4_NS0_10IInterfaceE
_ZTCN7android8hardware5radio4V1_19BpHwRadioE8_NS0_11BpHwRefBaseE
_ZTTN7android8hardware5radio4V1_114IRadioResponseE
_ZTTN7android8hardware5radio4V1_116IRadioIndicationE
_ZTTN7android8hardware5radio4V1_117BnHwRadioResponseE
_ZTTN7android8hardware5radio4V1_117BpHwRadioResponseE
_ZTTN7android8hardware5radio4V1_119BnHwRadioIndicationE
_ZTTN7android8hardware5radio4V1_119BpHwRadioIndicationE
_ZTTN7android8hardware5radio4V1_14ISapE
_ZTTN7android8hardware5radio4V1_16IRadioE
_ZTTN7android8hardware5radio4V1_17BnHwSapE
_ZTTN7android8hardware5radio4V1_17BpHwSapE
_ZTTN7android8hardware5radio4V1_19BnHwRadioE
_ZTTN7android8hardware5radio4V1_19BpHwRadioE
_ZTVN7android8hardware5radio4V1_114IRadioResponseE
_ZTVN7android8hardware5radio4V1_116IRadioIndicationE
_ZTVN7android8hardware5radio4V1_117BnHwRadioResponseE
_ZTVN7android8hardware5radio4V1_117BpHwRadioResponseE
_ZTVN7android8hardware5radio4V1_119BnHwRadioIndicationE
_ZTVN7android8hardware5radio4V1_119BpHwRadioIndicationE
_ZTVN7android8hardware5radio4V1_14ISapE
_ZTVN7android8hardware5radio4V1_16IRadioE
_ZTVN7android8hardware5radio4V1_17BnHwSapE
_ZTVN7android8hardware5radio4V1_17BpHwSapE
_ZTVN7android8hardware5radio4V1_19BnHwRadioE
_ZTVN7android8hardware5radio4V1_19BpHwRadioE
_ZThn20_N7android8hardware5radio4V1_117BnHwRadioResponseD0Ev
_ZThn20_N7android8hardware5radio4V1_117BnHwRadioResponseD1Ev
_ZThn20_N7android8hardware5radio4V1_119BnHwRadioIndicationD0Ev
_ZThn20_N7android8hardware5radio4V1_119BnHwRadioIndicationD1Ev
_ZThn20_N7android8hardware5radio4V1_17BnHwSapD0Ev
_ZThn20_N7android8hardware5radio4V1_17BnHwSapD1Ev
_ZThn20_N7android8hardware5radio4V1_19BnHwRadioD0Ev
_ZThn20_N7android8hardware5radio4V1_19BnHwRadioD1Ev
_ZTv0_n12_N7android8hardware5radio4V1_117BnHwRadioResponseD0Ev
_ZTv0_n12_N7android8hardware5radio4V1_117BnHwRadioResponseD1Ev
_ZTv0_n12_N7android8hardware5radio4V1_119BnHwRadioIndicationD0Ev
_ZTv0_n12_N7android8hardware5radio4V1_119BnHwRadioIndicationD1Ev
_ZTv0_n12_N7android8hardware5radio4V1_17BnHwSapD0Ev
_ZTv0_n12_N7android8hardware5radio4V1_17BnHwSapD1Ev
_ZTv0_n12_N7android8hardware5radio4V1_19BnHwRadioD0Ev
_ZTv0_n12_N7android8hardware5radio4V1_19BnHwRadioD1Ev
