_ZN7android8hardware7oemlock4V1_011BnHwOemLock10onTransactEjRKNS0_6ParcelEPS4_jNSt3__18functionIFvRS4_EEE
_ZN7android8hardware7oemlock4V1_011BnHwOemLock12getDebugInfoENSt3__18functionIFvRKNS_4hidl4base4V1_09DebugInfoEEEE
_ZN7android8hardware7oemlock4V1_011BnHwOemLock13_hidl_getNameEPNS_4hidl4base4V1_08BnHwBaseERKNS0_6ParcelEPS9_NSt3__18functionIFvRS9_EEE
_ZN7android8hardware7oemlock4V1_011BnHwOemLock32_hidl_isOemUnlockAllowedByDeviceEPNS_4hidl4base4V1_08BnHwBaseERKNS0_6ParcelEPS9_NSt3__18functionIFvRS9_EEE
_ZN7android8hardware7oemlock4V1_011BnHwOemLock33_hidl_isOemUnlockAllowedByCarrierEPNS_4hidl4base4V1_08BnHwBaseERKNS0_6ParcelEPS9_NSt3__18functionIFvRS9_EEE
_ZN7android8hardware7oemlock4V1_011BnHwOemLock33_hidl_setOemUnlockAllowedByDeviceEPNS_4hidl4base4V1_08BnHwBaseERKNS0_6ParcelEPS9_NSt3__18functionIFvRS9_EEE
_ZN7android8hardware7oemlock4V1_011BnHwOemLock34_hidl_setOemUnlockAllowedByCarrierEPNS_4hidl4base4V1_08BnHwBaseERKNS0_6ParcelEPS9_NSt3__18functionIFvRS9_EEE
_ZN7android8hardware7oemlock4V1_011BnHwOemLock4pingEv
_ZN7android8hardware7oemlock4V1_011BnHwOemLockC1ERKNS_2spINS2_8IOemLockEEE
_ZN7android8hardware7oemlock4V1_011BnHwOemLockC2ERKNS_2spINS2_8IOemLockEEE
_ZN7android8hardware7oemlock4V1_011BnHwOemLockD0Ev
_ZN7android8hardware7oemlock4V1_011BnHwOemLockD1Ev
_ZN7android8hardware7oemlock4V1_011BnHwOemLockD2Ev
_ZN7android8hardware7oemlock4V1_011BpHwOemLock11linkToDeathERKNS_2spINS0_20hidl_death_recipientEEEy
_ZN7android8hardware7oemlock4V1_011BpHwOemLock12getDebugInfoENSt3__18functionIFvRKNS_4hidl4base4V1_09DebugInfoEEEE
_ZN7android8hardware7oemlock4V1_011BpHwOemLock12getHashChainENSt3__18functionIFvRKNS0_8hidl_vecINS0_10hidl_arrayIhLj32EJEEEEEEEE
_ZN7android8hardware7oemlock4V1_011BpHwOemLock13_hidl_getNameEPNS0_10IInterfaceEPNS0_7details16HidlInstrumentorENSt3__18functionIFvNS2_13OemLockStatusERKNS0_11hidl_stringEEEE
_ZN7android8hardware7oemlock4V1_011BpHwOemLock13unlinkToDeathERKNS_2spINS0_20hidl_death_recipientEEE
_ZN7android8hardware7oemlock4V1_011BpHwOemLock14interfaceChainENSt3__18functionIFvRKNS0_8hidl_vecINS0_11hidl_stringEEEEEE
_ZN7android8hardware7oemlock4V1_011BpHwOemLock19interfaceDescriptorENSt3__18functionIFvRKNS0_11hidl_stringEEEE
_ZN7android8hardware7oemlock4V1_011BpHwOemLock21notifySyspropsChangedEv
_ZN7android8hardware7oemlock4V1_011BpHwOemLock21setHALInstrumentationEv
_ZN7android8hardware7oemlock4V1_011BpHwOemLock26isOemUnlockAllowedByDeviceENSt3__18functionIFvNS2_13OemLockStatusEbEEE
_ZN7android8hardware7oemlock4V1_011BpHwOemLock27isOemUnlockAllowedByCarrierENSt3__18functionIFvNS2_13OemLockStatusEbEEE
_ZN7android8hardware7oemlock4V1_011BpHwOemLock27setOemUnlockAllowedByDeviceEb
_ZN7android8hardware7oemlock4V1_011BpHwOemLock28setOemUnlockAllowedByCarrierEbRKNS0_8hidl_vecIhEE
_ZN7android8hardware7oemlock4V1_011BpHwOemLock32_hidl_isOemUnlockAllowedByDeviceEPNS0_10IInterfaceEPNS0_7details16HidlInstrumentorENSt3__18functionIFvNS2_13OemLockStatusEbEEE
_ZN7android8hardware7oemlock4V1_011BpHwOemLock33_hidl_isOemUnlockAllowedByCarrierEPNS0_10IInterfaceEPNS0_7details16HidlInstrumentorENSt3__18functionIFvNS2_13OemLockStatusEbEEE
_ZN7android8hardware7oemlock4V1_011BpHwOemLock33_hidl_setOemUnlockAllowedByDeviceEPNS0_10IInterfaceEPNS0_7details16HidlInstrumentorEb
_ZN7android8hardware7oemlock4V1_011BpHwOemLock34_hidl_setOemUnlockAllowedByCarrierEPNS0_10IInterfaceEPNS0_7details16HidlInstrumentorEbRKNS0_8hidl_vecIhEE
_ZN7android8hardware7oemlock4V1_011BpHwOemLock4pingEv
_ZN7android8hardware7oemlock4V1_011BpHwOemLock5debugERKNS0_11hidl_handleERKNS0_8hidl_vecINS0_11hidl_stringEEE
_ZN7android8hardware7oemlock4V1_011BpHwOemLock7getNameENSt3__18functionIFvNS2_13OemLockStatusERKNS0_11hidl_stringEEEE
_ZN7android8hardware7oemlock4V1_011BpHwOemLockC1ERKNS_2spINS0_7IBinderEEE
_ZN7android8hardware7oemlock4V1_011BpHwOemLockC2ERKNS_2spINS0_7IBinderEEE
_ZN7android8hardware7oemlock4V1_08IOemLock10descriptorE
_ZN7android8hardware7oemlock4V1_08IOemLock10getServiceERKNSt3__112basic_stringIcNS4_11char_traitsIcEENS4_9allocatorIcEEEEb
_ZN7android8hardware7oemlock4V1_08IOemLock11linkToDeathERKNS_2spINS0_20hidl_death_recipientEEEy
_ZN7android8hardware7oemlock4V1_08IOemLock12getDebugInfoENSt3__18functionIFvRKNS_4hidl4base4V1_09DebugInfoEEEE
_ZN7android8hardware7oemlock4V1_08IOemLock12getHashChainENSt3__18functionIFvRKNS0_8hidl_vecINS0_10hidl_arrayIhLj32EJEEEEEEEE
_ZN7android8hardware7oemlock4V1_08IOemLock13tryGetServiceERKNSt3__112basic_stringIcNS4_11char_traitsIcEENS4_9allocatorIcEEEEb
_ZN7android8hardware7oemlock4V1_08IOemLock13unlinkToDeathERKNS_2spINS0_20hidl_death_recipientEEE
_ZN7android8hardware7oemlock4V1_08IOemLock14interfaceChainENSt3__18functionIFvRKNS0_8hidl_vecINS0_11hidl_stringEEEEEE
_ZN7android8hardware7oemlock4V1_08IOemLock17registerAsServiceERKNSt3__112basic_stringIcNS4_11char_traitsIcEENS4_9allocatorIcEEEE
_ZN7android8hardware7oemlock4V1_08IOemLock19interfaceDescriptorENSt3__18functionIFvRKNS0_11hidl_stringEEEE
_ZN7android8hardware7oemlock4V1_08IOemLock21notifySyspropsChangedEv
_ZN7android8hardware7oemlock4V1_08IOemLock21setHALInstrumentationEv
_ZN7android8hardware7oemlock4V1_08IOemLock24registerForNotificationsERKNSt3__112basic_stringIcNS4_11char_traitsIcEENS4_9allocatorIcEEEERKNS_2spINS_4hidl7manager4V1_020IServiceNotificationEEE
_ZN7android8hardware7oemlock4V1_08IOemLock4pingEv
_ZN7android8hardware7oemlock4V1_08IOemLock5debugERKNS0_11hidl_handleERKNS0_8hidl_vecINS0_11hidl_stringEEE
_ZN7android8hardware7oemlock4V1_08IOemLock8castFromERKNS_2spINS_4hidl4base4V1_05IBaseEEEb
_ZN7android8hardware7oemlock4V1_08IOemLock8castFromERKNS_2spIS3_EEb
_ZN7android8hardware7oemlock4V1_09BsOemLock13addOnewayTaskENSt3__18functionIFvvEEE
_ZN7android8hardware7oemlock4V1_09BsOemLockC1ENS_2spINS2_8IOemLockEEE
_ZN7android8hardware7oemlock4V1_09BsOemLockC2ENS_2spINS2_8IOemLockEEE
_ZTCN7android8hardware7oemlock4V1_011BnHwOemLockE0_NS0_7IBinderE
_ZTCN7android8hardware7oemlock4V1_011BnHwOemLockE0_NS0_9BHwBinderE
_ZTCN7android8hardware7oemlock4V1_011BnHwOemLockE0_NS_4hidl4base4V1_08BnHwBaseE
_ZTCN7android8hardware7oemlock4V1_011BpHwOemLockE0_NS0_11BpInterfaceINS2_8IOemLockEEE
_ZTCN7android8hardware7oemlock4V1_011BpHwOemLockE0_NS2_8IOemLockE
_ZTCN7android8hardware7oemlock4V1_011BpHwOemLockE0_NS_4hidl4base4V1_05IBaseE
_ZTCN7android8hardware7oemlock4V1_011BpHwOemLockE4_NS0_10IInterfaceE
_ZTCN7android8hardware7oemlock4V1_011BpHwOemLockE8_NS0_11BpHwRefBaseE
_ZTCN7android8hardware7oemlock4V1_08IOemLockE0_NS_4hidl4base4V1_05IBaseE
_ZTTN7android8hardware7oemlock4V1_011BnHwOemLockE
_ZTTN7android8hardware7oemlock4V1_011BpHwOemLockE
_ZTTN7android8hardware7oemlock4V1_08IOemLockE
_ZTVN7android8hardware7oemlock4V1_011BnHwOemLockE
_ZTVN7android8hardware7oemlock4V1_011BpHwOemLockE
_ZTVN7android8hardware7oemlock4V1_08IOemLockE
_ZThn20_N7android8hardware7oemlock4V1_011BnHwOemLockD0Ev
_ZThn20_N7android8hardware7oemlock4V1_011BnHwOemLockD1Ev
_ZTv0_n12_N7android8hardware7oemlock4V1_011BnHwOemLockD0Ev
_ZTv0_n12_N7android8hardware7oemlock4V1_011BnHwOemLockD1Ev
