_ZN7android4hidl9allocator4V1_010IAllocator10descriptorE
_ZN7android4hidl9allocator4V1_010IAllocator10getServiceERKNSt3__112basic_stringIcNS4_11char_traitsIcEENS4_9allocatorIcEEEEb
_ZN7android4hidl9allocator4V1_010IAllocator11linkToDeathERKNS_2spINS_8hardware20hidl_death_recipientEEEy
_ZN7android4hidl9allocator4V1_010IAllocator12getDebugInfoENSt3__18functionIFvRKNS0_4base4V1_09DebugInfoEEEE
_ZN7android4hidl9allocator4V1_010IAllocator12getHashChainENSt3__18functionIFvRKNS_8hardware8hidl_vecINS6_10hidl_arrayIhLj32EJEEEEEEEE
_ZN7android4hidl9allocator4V1_010IAllocator13tryGetServiceERKNSt3__112basic_stringIcNS4_11char_traitsIcEENS4_9allocatorIcEEEEb
_ZN7android4hidl9allocator4V1_010IAllocator13unlinkToDeathERKNS_2spINS_8hardware20hidl_death_recipientEEE
_ZN7android4hidl9allocator4V1_010IAllocator14interfaceChainENSt3__18functionIFvRKNS_8hardware8hidl_vecINS6_11hidl_stringEEEEEE
_ZN7android4hidl9allocator4V1_010IAllocator17registerAsServiceERKNSt3__112basic_stringIcNS4_11char_traitsIcEENS4_9allocatorIcEEEE
_ZN7android4hidl9allocator4V1_010IAllocator19interfaceDescriptorENSt3__18functionIFvRKNS_8hardware11hidl_stringEEEE
_ZN7android4hidl9allocator4V1_010IAllocator21notifySyspropsChangedEv
_ZN7android4hidl9allocator4V1_010IAllocator21setHALInstrumentationEv
_ZN7android4hidl9allocator4V1_010IAllocator24registerForNotificationsERKNSt3__112basic_stringIcNS4_11char_traitsIcEENS4_9allocatorIcEEEERKNS_2spINS0_7manager4V1_020IServiceNotificationEEE
_ZN7android4hidl9allocator4V1_010IAllocator4pingEv
_ZN7android4hidl9allocator4V1_010IAllocator5debugERKNS_8hardware11hidl_handleERKNS4_8hidl_vecINS4_11hidl_stringEEE
_ZN7android4hidl9allocator4V1_010IAllocator8castFromERKNS_2spINS0_4base4V1_05IBaseEEEb
_ZN7android4hidl9allocator4V1_010IAllocator8castFromERKNS_2spIS3_EEb
_ZN7android4hidl9allocator4V1_011BsAllocator13addOnewayTaskENSt3__18functionIFvvEEE
_ZN7android4hidl9allocator4V1_011BsAllocatorC1ENS_2spINS2_10IAllocatorEEE
_ZN7android4hidl9allocator4V1_011BsAllocatorC2ENS_2spINS2_10IAllocatorEEE
_ZN7android4hidl9allocator4V1_013BnHwAllocator10onTransactEjRKNS_8hardware6ParcelEPS5_jNSt3__18functionIFvRS5_EEE
_ZN7android4hidl9allocator4V1_013BnHwAllocator12getDebugInfoENSt3__18functionIFvRKNS0_4base4V1_09DebugInfoEEEE
_ZN7android4hidl9allocator4V1_013BnHwAllocator14_hidl_allocateEPNS0_4base4V1_08BnHwBaseERKNS_8hardware6ParcelEPS9_NSt3__18functionIFvRS9_EEE
_ZN7android4hidl9allocator4V1_013BnHwAllocator19_hidl_batchAllocateEPNS0_4base4V1_08BnHwBaseERKNS_8hardware6ParcelEPS9_NSt3__18functionIFvRS9_EEE
_ZN7android4hidl9allocator4V1_013BnHwAllocator4pingEv
_ZN7android4hidl9allocator4V1_013BnHwAllocatorC1ERKNS_2spINS2_10IAllocatorEEE
_ZN7android4hidl9allocator4V1_013BnHwAllocatorC2ERKNS_2spINS2_10IAllocatorEEE
_ZN7android4hidl9allocator4V1_013BnHwAllocatorD0Ev
_ZN7android4hidl9allocator4V1_013BnHwAllocatorD1Ev
_ZN7android4hidl9allocator4V1_013BnHwAllocatorD2Ev
_ZN7android4hidl9allocator4V1_013BpHwAllocator11linkToDeathERKNS_2spINS_8hardware20hidl_death_recipientEEEy
_ZN7android4hidl9allocator4V1_013BpHwAllocator12getDebugInfoENSt3__18functionIFvRKNS0_4base4V1_09DebugInfoEEEE
_ZN7android4hidl9allocator4V1_013BpHwAllocator12getHashChainENSt3__18functionIFvRKNS_8hardware8hidl_vecINS6_10hidl_arrayIhLj32EJEEEEEEEE
_ZN7android4hidl9allocator4V1_013BpHwAllocator13batchAllocateEyyNSt3__18functionIFvbRKNS_8hardware8hidl_vecINS6_11hidl_memoryEEEEEE
_ZN7android4hidl9allocator4V1_013BpHwAllocator13unlinkToDeathERKNS_2spINS_8hardware20hidl_death_recipientEEE
_ZN7android4hidl9allocator4V1_013BpHwAllocator14_hidl_allocateEPNS_8hardware10IInterfaceEPNS4_7details16HidlInstrumentorEyNSt3__18functionIFvbRKNS4_11hidl_memoryEEEE
_ZN7android4hidl9allocator4V1_013BpHwAllocator14interfaceChainENSt3__18functionIFvRKNS_8hardware8hidl_vecINS6_11hidl_stringEEEEEE
_ZN7android4hidl9allocator4V1_013BpHwAllocator19_hidl_batchAllocateEPNS_8hardware10IInterfaceEPNS4_7details16HidlInstrumentorEyyNSt3__18functionIFvbRKNS4_8hidl_vecINS4_11hidl_memoryEEEEEE
_ZN7android4hidl9allocator4V1_013BpHwAllocator19interfaceDescriptorENSt3__18functionIFvRKNS_8hardware11hidl_stringEEEE
_ZN7android4hidl9allocator4V1_013BpHwAllocator21notifySyspropsChangedEv
_ZN7android4hidl9allocator4V1_013BpHwAllocator21setHALInstrumentationEv
_ZN7android4hidl9allocator4V1_013BpHwAllocator4pingEv
_ZN7android4hidl9allocator4V1_013BpHwAllocator5debugERKNS_8hardware11hidl_handleERKNS4_8hidl_vecINS4_11hidl_stringEEE
_ZN7android4hidl9allocator4V1_013BpHwAllocator8allocateEyNSt3__18functionIFvbRKNS_8hardware11hidl_memoryEEEE
_ZN7android4hidl9allocator4V1_013BpHwAllocatorC1ERKNS_2spINS_8hardware7IBinderEEE
_ZN7android4hidl9allocator4V1_013BpHwAllocatorC2ERKNS_2spINS_8hardware7IBinderEEE
_ZTCN7android4hidl9allocator4V1_010IAllocatorE0_NS0_4base4V1_05IBaseE
_ZTCN7android4hidl9allocator4V1_013BnHwAllocatorE0_NS0_4base4V1_08BnHwBaseE
_ZTCN7android4hidl9allocator4V1_013BnHwAllocatorE0_NS_8hardware7IBinderE
_ZTCN7android4hidl9allocator4V1_013BnHwAllocatorE0_NS_8hardware9BHwBinderE
_ZTCN7android4hidl9allocator4V1_013BpHwAllocatorE0_NS0_4base4V1_05IBaseE
_ZTCN7android4hidl9allocator4V1_013BpHwAllocatorE0_NS2_10IAllocatorE
_ZTCN7android4hidl9allocator4V1_013BpHwAllocatorE0_NS_8hardware11BpInterfaceINS2_10IAllocatorEEE
_ZTCN7android4hidl9allocator4V1_013BpHwAllocatorE4_NS_8hardware10IInterfaceE
_ZTCN7android4hidl9allocator4V1_013BpHwAllocatorE8_NS_8hardware11BpHwRefBaseE
_ZTTN7android4hidl9allocator4V1_010IAllocatorE
_ZTTN7android4hidl9allocator4V1_013BnHwAllocatorE
_ZTTN7android4hidl9allocator4V1_013BpHwAllocatorE
_ZTVN7android4hidl9allocator4V1_010IAllocatorE
_ZTVN7android4hidl9allocator4V1_013BnHwAllocatorE
_ZTVN7android4hidl9allocator4V1_013BpHwAllocatorE
_ZThn20_N7android4hidl9allocator4V1_013BnHwAllocatorD0Ev
_ZThn20_N7android4hidl9allocator4V1_013BnHwAllocatorD1Ev
_ZTv0_n12_N7android4hidl9allocator4V1_013BnHwAllocatorD0Ev
_ZTv0_n12_N7android4hidl9allocator4V1_013BnHwAllocatorD1Ev
