_Z12DropRootUserv
_Z18DumpFileFromFdToFdRKNSt3__112basic_stringIcNS_11char_traitsIcEENS_9allocatorIcEEEES7_iib
_Z8Nanotimev
_ZN7android2os9dumpstate12DumpFileToFdEiRKNSt3__112basic_stringIcNS2_11char_traitsIcEENS2_9allocatorIcEEEESA_
_ZN7android2os9dumpstate12GetPidByNameERKNSt3__112basic_stringIcNS2_11char_traitsIcEENS2_9allocatorIcEEEE
_ZN7android2os9dumpstate14CommandOptions11WithTimeoutEx
_ZN7android2os9dumpstate14CommandOptions15WithTimeoutInMsEx
_ZN7android2os9dumpstate14CommandOptions20CommandOptionsValuesC1Ex
_ZN7android2os9dumpstate14CommandOptions20CommandOptionsValuesC2Ex
_ZN7android2os9dumpstate14CommandOptions21CommandOptionsBuilder14RedirectStderrEv
_ZN7android2os9dumpstate14CommandOptions21CommandOptionsBuilder17AsRootIfAvailableEv
_ZN7android2os9dumpstate14CommandOptions21CommandOptionsBuilder3LogERKNSt3__112basic_stringIcNS4_11char_traitsIcEENS4_9allocatorIcEEEE
_ZN7android2os9dumpstate14CommandOptions21CommandOptionsBuilder5BuildEv
_ZN7android2os9dumpstate14CommandOptions21CommandOptionsBuilder6AlwaysEv
_ZN7android2os9dumpstate14CommandOptions21CommandOptionsBuilder6AsRootEv
_ZN7android2os9dumpstate14CommandOptions21CommandOptionsBuilder8DropRootEv
_ZN7android2os9dumpstate14CommandOptions21CommandOptionsBuilderC1Ex
_ZN7android2os9dumpstate14CommandOptions21CommandOptionsBuilderC2Ex
_ZN7android2os9dumpstate14CommandOptions7AS_ROOTE
_ZN7android2os9dumpstate14CommandOptions7DEFAULTE
_ZN7android2os9dumpstate14CommandOptionsC1ERKNS2_20CommandOptionsValuesE
_ZN7android2os9dumpstate14CommandOptionsC2ERKNS2_20CommandOptionsValuesE
_ZN7android2os9dumpstate14RunCommandToFdEiRKNSt3__112basic_stringIcNS2_11char_traitsIcEENS2_9allocatorIcEEEERKNS2_6vectorIS8_NS6_IS8_EEEERKNS1_14CommandOptionsE
_ZN7android2os9dumpstate16PropertiesHelper11IsUserBuildEv
_ZN7android2os9dumpstate16PropertiesHelper11build_type_E
_ZN7android2os9dumpstate16PropertiesHelper8IsDryRunEv
_ZN7android2os9dumpstate16PropertiesHelper8dry_run_E
_ZNK7android2os9dumpstate14CommandOptions10OutputModeEv
_ZNK7android2os9dumpstate14CommandOptions11TimeoutInMsEv
_ZNK7android2os9dumpstate14CommandOptions13PrivilegeModeEv
_ZNK7android2os9dumpstate14CommandOptions14LoggingMessageEv
_ZNK7android2os9dumpstate14CommandOptions6AlwaysEv
_ZNK7android2os9dumpstate14CommandOptions7TimeoutEv
