_ZN7android8hardware12MemoryDealer10deallocateEj
_ZN7android8hardware12MemoryDealer14allocateOffsetEj
_ZN7android8hardware12MemoryDealer22getAllocationAlignmentEv
_ZN7android8hardware12MemoryDealerC1Ej
_ZN7android8hardware12MemoryDealerC2Ej
_ZN7android8hardware12MemoryDealerD0Ev
_ZN7android8hardware12MemoryDealerD1Ev
_ZN7android8hardware12MemoryDealerD2Ev
_ZN7android8hardware15HidlMemoryCache10fillLockedERKNS_2spINS_4hidl6memory5token4V1_012IMemoryTokenEEE
_ZN7android8hardware15HidlMemoryCache11getInstanceEv
_ZN7android8hardware15HidlMemoryCache3mapERKNS_4hidl6memory5block4V1_011MemoryBlockE
_ZN7android8hardware15lockMemoryCacheENS_2spINS_4hidl6memory5token4V1_012IMemoryTokenEEE
_ZN7android8hardware16HidlMemoryDealer11getInstanceERKNS0_11hidl_memoryE
_ZN7android8hardware16HidlMemoryDealer4heapEv
_ZN7android8hardware16HidlMemoryDealer4isOkERKNS_4hidl6memory5block4V1_011MemoryBlockE
_ZN7android8hardware16HidlMemoryDealer8allocateEj
_ZN7android8hardware16HidlMemoryDealerC1ENS_2spINS_4hidl6memory4V1_07IMemoryEEERKNS0_11hidl_memoryE
_ZN7android8hardware16HidlMemoryDealerC2ENS_2spINS_4hidl6memory4V1_07IMemoryEEERKNS0_11hidl_memoryE
_ZN7android8hardware22SimpleBestFitAllocator10deallocateEj
_ZN7android8hardware22SimpleBestFitAllocator12kMemoryAlignE
_ZN7android8hardware22SimpleBestFitAllocator5allocEjj
_ZN7android8hardware22SimpleBestFitAllocator7deallocEj
_ZN7android8hardware22SimpleBestFitAllocator8allocateEjj
_ZN7android8hardware22SimpleBestFitAllocatorC1Ej
_ZN7android8hardware22SimpleBestFitAllocatorC2Ej
_ZN7android8hardware22SimpleBestFitAllocatorD1Ev
_ZN7android8hardware22SimpleBestFitAllocatorD2Ev
_ZN7android8hardware9mapMemoryERKNS_4hidl6memory5block4V1_011MemoryBlockE
_ZNK7android8hardware12MemoryDealer4dumpEPKc
_ZNK7android8hardware22SimpleBestFitAllocator4dumpEPKc
_ZNK7android8hardware22SimpleBestFitAllocator4dumpERNSt3__112basic_stringIcNS2_11char_traitsIcEENS2_9allocatorIcEEEEPKc
_ZNK7android8hardware22SimpleBestFitAllocator4sizeEv
_ZNK7android8hardware22SimpleBestFitAllocator6dump_lEPKc
_ZNK7android8hardware22SimpleBestFitAllocator6dump_lERNSt3__112basic_stringIcNS2_11char_traitsIcEENS2_9allocatorIcEEEEPKc
_ZTCN7android8hardware15HidlMemoryCacheE4_NS0_9HidlCacheINS_2spINS_4hidl6memory5token4V1_012IMemoryTokenEEENS4_4V1_07IMemoryENS0_19IMemoryTokenCompareEEE
_ZTTN7android8hardware15HidlMemoryCacheE
_ZTVN7android8hardware12MemoryDealerE
_ZTVN7android8hardware15HidlMemoryCacheE
_ZTVN7android8hardware16HidlMemoryDealerE
_ZTv0_n40_N7android8hardware15HidlMemoryCache10fillLockedERKNS_2spINS_4hidl6memory5token4V1_012IMemoryTokenEEE
