_ZN7android20MediaCodecsXmlParser10addFeatureEPPKc
_ZN7android20MediaCodecsXmlParser12parseXMLFileEPKc
_ZN7android20MediaCodecsXmlParser14includeXMLFileEPPKc
_ZN7android20MediaCodecsXmlParser17defaultSearchDirsE
_ZN7android20MediaCodecsXmlParser17endElementHandlerEPKc
_ZN7android20MediaCodecsXmlParser18defaultMainXmlNameE
_ZN7android20MediaCodecsXmlParser19startElementHandlerEPKcPS2_
_ZN7android20MediaCodecsXmlParser20parseTopLevelXMLFileEPKcb
_ZN7android20MediaCodecsXmlParser21addTypeFromAttributesEPPKcb
_ZN7android20MediaCodecsXmlParser24EndElementHandlerWrapperEPvPKc
_ZN7android20MediaCodecsXmlParser24addSettingFromAttributesEPPKc
_ZN7android20MediaCodecsXmlParser25defaultPerformanceXmlNameE
_ZN7android20MediaCodecsXmlParser26StartElementHandlerWrapperEPvPKcPS3_
_ZN7android20MediaCodecsXmlParser27addMediaCodecFromAttributesEbPPKc
_ZN7android20MediaCodecsXmlParser30defaultProfilingResultsXmlPathE
_ZN7android20MediaCodecsXmlParser8addLimitEPPKc
_ZN7android20MediaCodecsXmlParser8addQuirkEPPKc
_ZN7android20MediaCodecsXmlParserC1EPKPKcS2_S2_S2_
_ZN7android20MediaCodecsXmlParserC2EPKPKcS2_S2_S2_
_ZN7android20MediaCodecsXmlParserD1Ev
_ZN7android20MediaCodecsXmlParserD2Ev
_ZNK7android20MediaCodecsXmlParser10getRoleMapEv
_ZNK7android20MediaCodecsXmlParser11getCodecMapEv
_ZNK7android20MediaCodecsXmlParser15generateRoleMapEv
_ZNK7android20MediaCodecsXmlParser15getCommonPrefixEv
_ZNK7android20MediaCodecsXmlParser16getParsingStatusEv
_ZNK7android20MediaCodecsXmlParser20generateCommonPrefixEv
_ZNK7android20MediaCodecsXmlParser22getServiceAttributeMapEv
