_ZN7android8hardware12soundtrigger4V2_115ISoundTriggerHw10descriptorE
_ZN7android8hardware12soundtrigger4V2_115ISoundTriggerHw10getServiceERKNSt3__112basic_stringIcNS4_11char_traitsIcEENS4_9allocatorIcEEEEb
_ZN7android8hardware12soundtrigger4V2_115ISoundTriggerHw11linkToDeathERKNS_2spINS0_20hidl_death_recipientEEEy
_ZN7android8hardware12soundtrigger4V2_115ISoundTriggerHw12getDebugInfoENSt3__18functionIFvRKNS_4hidl4base4V1_09DebugInfoEEEE
_ZN7android8hardware12soundtrigger4V2_115ISoundTriggerHw12getHashChainENSt3__18functionIFvRKNS0_8hidl_vecINS0_10hidl_arrayIhLj32EJEEEEEEEE
_ZN7android8hardware12soundtrigger4V2_115ISoundTriggerHw13tryGetServiceERKNSt3__112basic_stringIcNS4_11char_traitsIcEENS4_9allocatorIcEEEEb
_ZN7android8hardware12soundtrigger4V2_115ISoundTriggerHw13unlinkToDeathERKNS_2spINS0_20hidl_death_recipientEEE
_ZN7android8hardware12soundtrigger4V2_115ISoundTriggerHw14interfaceChainENSt3__18functionIFvRKNS0_8hidl_vecINS0_11hidl_stringEEEEEE
_ZN7android8hardware12soundtrigger4V2_115ISoundTriggerHw17registerAsServiceERKNSt3__112basic_stringIcNS4_11char_traitsIcEENS4_9allocatorIcEEEE
_ZN7android8hardware12soundtrigger4V2_115ISoundTriggerHw19interfaceDescriptorENSt3__18functionIFvRKNS0_11hidl_stringEEEE
_ZN7android8hardware12soundtrigger4V2_115ISoundTriggerHw21notifySyspropsChangedEv
_ZN7android8hardware12soundtrigger4V2_115ISoundTriggerHw21setHALInstrumentationEv
_ZN7android8hardware12soundtrigger4V2_115ISoundTriggerHw24registerForNotificationsERKNSt3__112basic_stringIcNS4_11char_traitsIcEENS4_9allocatorIcEEEERKNS_2spINS_4hidl7manager4V1_020IServiceNotificationEEE
_ZN7android8hardware12soundtrigger4V2_115ISoundTriggerHw4pingEv
_ZN7android8hardware12soundtrigger4V2_115ISoundTriggerHw5debugERKNS0_11hidl_handleERKNS0_8hidl_vecINS0_11hidl_stringEEE
_ZN7android8hardware12soundtrigger4V2_115ISoundTriggerHw8castFromERKNS_2spINS1_4V2_015ISoundTriggerHwEEEb
_ZN7android8hardware12soundtrigger4V2_115ISoundTriggerHw8castFromERKNS_2spINS_4hidl4base4V1_05IBaseEEEb
_ZN7android8hardware12soundtrigger4V2_115ISoundTriggerHw8castFromERKNS_2spIS3_EEb
_ZN7android8hardware12soundtrigger4V2_116BsSoundTriggerHw13addOnewayTaskENSt3__18functionIFvvEEE
_ZN7android8hardware12soundtrigger4V2_116BsSoundTriggerHwC1ENS_2spINS2_15ISoundTriggerHwEEE
_ZN7android8hardware12soundtrigger4V2_116BsSoundTriggerHwC2ENS_2spINS2_15ISoundTriggerHwEEE
_ZN7android8hardware12soundtrigger4V2_118BnHwSoundTriggerHw10onTransactEjRKNS0_6ParcelEPS4_jNSt3__18functionIFvRS4_EEE
_ZN7android8hardware12soundtrigger4V2_118BnHwSoundTriggerHw12getDebugInfoENSt3__18functionIFvRKNS_4hidl4base4V1_09DebugInfoEEEE
_ZN7android8hardware12soundtrigger4V2_118BnHwSoundTriggerHw24_hidl_loadSoundModel_2_1EPNS_4hidl4base4V1_08BnHwBaseERKNS0_6ParcelEPS9_NSt3__18functionIFvRS9_EEE
_ZN7android8hardware12soundtrigger4V2_118BnHwSoundTriggerHw26_hidl_startRecognition_2_1EPNS_4hidl4base4V1_08BnHwBaseERKNS0_6ParcelEPS9_NSt3__18functionIFvRS9_EEE
_ZN7android8hardware12soundtrigger4V2_118BnHwSoundTriggerHw30_hidl_loadPhraseSoundModel_2_1EPNS_4hidl4base4V1_08BnHwBaseERKNS0_6ParcelEPS9_NSt3__18functionIFvRS9_EEE
_ZN7android8hardware12soundtrigger4V2_118BnHwSoundTriggerHw4pingEv
_ZN7android8hardware12soundtrigger4V2_118BnHwSoundTriggerHwC1ERKNS_2spINS2_15ISoundTriggerHwEEE
_ZN7android8hardware12soundtrigger4V2_118BnHwSoundTriggerHwC2ERKNS_2spINS2_15ISoundTriggerHwEEE
_ZN7android8hardware12soundtrigger4V2_118BnHwSoundTriggerHwD0Ev
_ZN7android8hardware12soundtrigger4V2_118BnHwSoundTriggerHwD1Ev
_ZN7android8hardware12soundtrigger4V2_118BnHwSoundTriggerHwD2Ev
_ZN7android8hardware12soundtrigger4V2_118BpHwSoundTriggerHw11linkToDeathERKNS_2spINS0_20hidl_death_recipientEEEy
_ZN7android8hardware12soundtrigger4V2_118BpHwSoundTriggerHw12getDebugInfoENSt3__18functionIFvRKNS_4hidl4base4V1_09DebugInfoEEEE
_ZN7android8hardware12soundtrigger4V2_118BpHwSoundTriggerHw12getHashChainENSt3__18functionIFvRKNS0_8hidl_vecINS0_10hidl_arrayIhLj32EJEEEEEEEE
_ZN7android8hardware12soundtrigger4V2_118BpHwSoundTriggerHw13getPropertiesENSt3__18functionIFviRKNS1_4V2_015ISoundTriggerHw10PropertiesEEEE
_ZN7android8hardware12soundtrigger4V2_118BpHwSoundTriggerHw13unlinkToDeathERKNS_2spINS0_20hidl_death_recipientEEE
_ZN7android8hardware12soundtrigger4V2_118BpHwSoundTriggerHw14interfaceChainENSt3__18functionIFvRKNS0_8hidl_vecINS0_11hidl_stringEEEEEE
_ZN7android8hardware12soundtrigger4V2_118BpHwSoundTriggerHw14loadSoundModelERKNS1_4V2_015ISoundTriggerHw10SoundModelERKNS_2spINS4_23ISoundTriggerHwCallbackEEEiNSt3__18functionIFviiEEE
_ZN7android8hardware12soundtrigger4V2_118BpHwSoundTriggerHw15stopRecognitionEi
_ZN7android8hardware12soundtrigger4V2_118BpHwSoundTriggerHw16startRecognitionEiRKNS1_4V2_015ISoundTriggerHw17RecognitionConfigERKNS_2spINS4_23ISoundTriggerHwCallbackEEEi
_ZN7android8hardware12soundtrigger4V2_118BpHwSoundTriggerHw16unloadSoundModelEi
_ZN7android8hardware12soundtrigger4V2_118BpHwSoundTriggerHw18loadSoundModel_2_1ERKNS2_15ISoundTriggerHw10SoundModelERKNS_2spINS2_23ISoundTriggerHwCallbackEEEiNSt3__18functionIFviiEEE
_ZN7android8hardware12soundtrigger4V2_118BpHwSoundTriggerHw19interfaceDescriptorENSt3__18functionIFvRKNS0_11hidl_stringEEEE
_ZN7android8hardware12soundtrigger4V2_118BpHwSoundTriggerHw19stopAllRecognitionsEv
_ZN7android8hardware12soundtrigger4V2_118BpHwSoundTriggerHw20loadPhraseSoundModelERKNS1_4V2_015ISoundTriggerHw16PhraseSoundModelERKNS_2spINS4_23ISoundTriggerHwCallbackEEEiNSt3__18functionIFviiEEE
_ZN7android8hardware12soundtrigger4V2_118BpHwSoundTriggerHw20startRecognition_2_1EiRKNS2_15ISoundTriggerHw17RecognitionConfigERKNS_2spINS2_23ISoundTriggerHwCallbackEEEi
_ZN7android8hardware12soundtrigger4V2_118BpHwSoundTriggerHw21notifySyspropsChangedEv
_ZN7android8hardware12soundtrigger4V2_118BpHwSoundTriggerHw21setHALInstrumentationEv
_ZN7android8hardware12soundtrigger4V2_118BpHwSoundTriggerHw24_hidl_loadSoundModel_2_1EPNS0_10IInterfaceEPNS0_7details16HidlInstrumentorERKNS2_15ISoundTriggerHw10SoundModelERKNS_2spINS2_23ISoundTriggerHwCallbackEEEiNSt3__18functionIFviiEEE
_ZN7android8hardware12soundtrigger4V2_118BpHwSoundTriggerHw24loadPhraseSoundModel_2_1ERKNS2_15ISoundTriggerHw16PhraseSoundModelERKNS_2spINS2_23ISoundTriggerHwCallbackEEEiNSt3__18functionIFviiEEE
_ZN7android8hardware12soundtrigger4V2_118BpHwSoundTriggerHw26_hidl_startRecognition_2_1EPNS0_10IInterfaceEPNS0_7details16HidlInstrumentorEiRKNS2_15ISoundTriggerHw17RecognitionConfigERKNS_2spINS2_23ISoundTriggerHwCallbackEEEi
_ZN7android8hardware12soundtrigger4V2_118BpHwSoundTriggerHw30_hidl_loadPhraseSoundModel_2_1EPNS0_10IInterfaceEPNS0_7details16HidlInstrumentorERKNS2_15ISoundTriggerHw16PhraseSoundModelERKNS_2spINS2_23ISoundTriggerHwCallbackEEEiNSt3__18functionIFviiEEE
_ZN7android8hardware12soundtrigger4V2_118BpHwSoundTriggerHw4pingEv
_ZN7android8hardware12soundtrigger4V2_118BpHwSoundTriggerHw5debugERKNS0_11hidl_handleERKNS0_8hidl_vecINS0_11hidl_stringEEE
_ZN7android8hardware12soundtrigger4V2_118BpHwSoundTriggerHwC1ERKNS_2spINS0_7IBinderEEE
_ZN7android8hardware12soundtrigger4V2_118BpHwSoundTriggerHwC2ERKNS_2spINS0_7IBinderEEE
_ZN7android8hardware12soundtrigger4V2_121writeEmbeddedToParcelERKNS2_15ISoundTriggerHw10SoundModelEPNS0_6ParcelEjj
_ZN7android8hardware12soundtrigger4V2_121writeEmbeddedToParcelERKNS2_15ISoundTriggerHw16PhraseSoundModelEPNS0_6ParcelEjj
_ZN7android8hardware12soundtrigger4V2_121writeEmbeddedToParcelERKNS2_15ISoundTriggerHw17RecognitionConfigEPNS0_6ParcelEjj
_ZN7android8hardware12soundtrigger4V2_121writeEmbeddedToParcelERKNS2_23ISoundTriggerHwCallback10ModelEventEPNS0_6ParcelEjj
_ZN7android8hardware12soundtrigger4V2_121writeEmbeddedToParcelERKNS2_23ISoundTriggerHwCallback16RecognitionEventEPNS0_6ParcelEjj
_ZN7android8hardware12soundtrigger4V2_121writeEmbeddedToParcelERKNS2_23ISoundTriggerHwCallback22PhraseRecognitionEventEPNS0_6ParcelEjj
_ZN7android8hardware12soundtrigger4V2_122readEmbeddedFromParcelERKNS2_15ISoundTriggerHw10SoundModelERKNS0_6ParcelEjj
_ZN7android8hardware12soundtrigger4V2_122readEmbeddedFromParcelERKNS2_15ISoundTriggerHw16PhraseSoundModelERKNS0_6ParcelEjj
_ZN7android8hardware12soundtrigger4V2_122readEmbeddedFromParcelERKNS2_15ISoundTriggerHw17RecognitionConfigERKNS0_6ParcelEjj
_ZN7android8hardware12soundtrigger4V2_122readEmbeddedFromParcelERKNS2_23ISoundTriggerHwCallback10ModelEventERKNS0_6ParcelEjj
_ZN7android8hardware12soundtrigger4V2_122readEmbeddedFromParcelERKNS2_23ISoundTriggerHwCallback16RecognitionEventERKNS0_6ParcelEjj
_ZN7android8hardware12soundtrigger4V2_122readEmbeddedFromParcelERKNS2_23ISoundTriggerHwCallback22PhraseRecognitionEventERKNS0_6ParcelEjj
_ZN7android8hardware12soundtrigger4V2_123ISoundTriggerHwCallback10descriptorE
_ZN7android8hardware12soundtrigger4V2_123ISoundTriggerHwCallback10getServiceERKNSt3__112basic_stringIcNS4_11char_traitsIcEENS4_9allocatorIcEEEEb
_ZN7android8hardware12soundtrigger4V2_123ISoundTriggerHwCallback11linkToDeathERKNS_2spINS0_20hidl_death_recipientEEEy
_ZN7android8hardware12soundtrigger4V2_123ISoundTriggerHwCallback12getDebugInfoENSt3__18functionIFvRKNS_4hidl4base4V1_09DebugInfoEEEE
_ZN7android8hardware12soundtrigger4V2_123ISoundTriggerHwCallback12getHashChainENSt3__18functionIFvRKNS0_8hidl_vecINS0_10hidl_arrayIhLj32EJEEEEEEEE
_ZN7android8hardware12soundtrigger4V2_123ISoundTriggerHwCallback13tryGetServiceERKNSt3__112basic_stringIcNS4_11char_traitsIcEENS4_9allocatorIcEEEEb
_ZN7android8hardware12soundtrigger4V2_123ISoundTriggerHwCallback13unlinkToDeathERKNS_2spINS0_20hidl_death_recipientEEE
_ZN7android8hardware12soundtrigger4V2_123ISoundTriggerHwCallback14interfaceChainENSt3__18functionIFvRKNS0_8hidl_vecINS0_11hidl_stringEEEEEE
_ZN7android8hardware12soundtrigger4V2_123ISoundTriggerHwCallback17registerAsServiceERKNSt3__112basic_stringIcNS4_11char_traitsIcEENS4_9allocatorIcEEEE
_ZN7android8hardware12soundtrigger4V2_123ISoundTriggerHwCallback19interfaceDescriptorENSt3__18functionIFvRKNS0_11hidl_stringEEEE
_ZN7android8hardware12soundtrigger4V2_123ISoundTriggerHwCallback21notifySyspropsChangedEv
_ZN7android8hardware12soundtrigger4V2_123ISoundTriggerHwCallback21setHALInstrumentationEv
_ZN7android8hardware12soundtrigger4V2_123ISoundTriggerHwCallback24registerForNotificationsERKNSt3__112basic_stringIcNS4_11char_traitsIcEENS4_9allocatorIcEEEERKNS_2spINS_4hidl7manager4V1_020IServiceNotificationEEE
_ZN7android8hardware12soundtrigger4V2_123ISoundTriggerHwCallback4pingEv
_ZN7android8hardware12soundtrigger4V2_123ISoundTriggerHwCallback5debugERKNS0_11hidl_handleERKNS0_8hidl_vecINS0_11hidl_stringEEE
_ZN7android8hardware12soundtrigger4V2_123ISoundTriggerHwCallback8castFromERKNS_2spINS1_4V2_023ISoundTriggerHwCallbackEEEb
_ZN7android8hardware12soundtrigger4V2_123ISoundTriggerHwCallback8castFromERKNS_2spINS_4hidl4base4V1_05IBaseEEEb
_ZN7android8hardware12soundtrigger4V2_123ISoundTriggerHwCallback8castFromERKNS_2spIS3_EEb
_ZN7android8hardware12soundtrigger4V2_124BsSoundTriggerHwCallback13addOnewayTaskENSt3__18functionIFvvEEE
_ZN7android8hardware12soundtrigger4V2_124BsSoundTriggerHwCallbackC1ENS_2spINS2_23ISoundTriggerHwCallbackEEE
_ZN7android8hardware12soundtrigger4V2_124BsSoundTriggerHwCallbackC2ENS_2spINS2_23ISoundTriggerHwCallbackEEE
_ZN7android8hardware12soundtrigger4V2_126BnHwSoundTriggerHwCallback10onTransactEjRKNS0_6ParcelEPS4_jNSt3__18functionIFvRS4_EEE
_ZN7android8hardware12soundtrigger4V2_126BnHwSoundTriggerHwCallback12getDebugInfoENSt3__18functionIFvRKNS_4hidl4base4V1_09DebugInfoEEEE
_ZN7android8hardware12soundtrigger4V2_126BnHwSoundTriggerHwCallback28_hidl_soundModelCallback_2_1EPNS_4hidl4base4V1_08BnHwBaseERKNS0_6ParcelEPS9_NSt3__18functionIFvRS9_EEE
_ZN7android8hardware12soundtrigger4V2_126BnHwSoundTriggerHwCallback29_hidl_recognitionCallback_2_1EPNS_4hidl4base4V1_08BnHwBaseERKNS0_6ParcelEPS9_NSt3__18functionIFvRS9_EEE
_ZN7android8hardware12soundtrigger4V2_126BnHwSoundTriggerHwCallback35_hidl_phraseRecognitionCallback_2_1EPNS_4hidl4base4V1_08BnHwBaseERKNS0_6ParcelEPS9_NSt3__18functionIFvRS9_EEE
_ZN7android8hardware12soundtrigger4V2_126BnHwSoundTriggerHwCallback4pingEv
_ZN7android8hardware12soundtrigger4V2_126BnHwSoundTriggerHwCallbackC1ERKNS_2spINS2_23ISoundTriggerHwCallbackEEE
_ZN7android8hardware12soundtrigger4V2_126BnHwSoundTriggerHwCallbackC2ERKNS_2spINS2_23ISoundTriggerHwCallbackEEE
_ZN7android8hardware12soundtrigger4V2_126BnHwSoundTriggerHwCallbackD0Ev
_ZN7android8hardware12soundtrigger4V2_126BnHwSoundTriggerHwCallbackD1Ev
_ZN7android8hardware12soundtrigger4V2_126BnHwSoundTriggerHwCallbackD2Ev
_ZN7android8hardware12soundtrigger4V2_126BpHwSoundTriggerHwCallback11linkToDeathERKNS_2spINS0_20hidl_death_recipientEEEy
_ZN7android8hardware12soundtrigger4V2_126BpHwSoundTriggerHwCallback12getDebugInfoENSt3__18functionIFvRKNS_4hidl4base4V1_09DebugInfoEEEE
_ZN7android8hardware12soundtrigger4V2_126BpHwSoundTriggerHwCallback12getHashChainENSt3__18functionIFvRKNS0_8hidl_vecINS0_10hidl_arrayIhLj32EJEEEEEEEE
_ZN7android8hardware12soundtrigger4V2_126BpHwSoundTriggerHwCallback13unlinkToDeathERKNS_2spINS0_20hidl_death_recipientEEE
_ZN7android8hardware12soundtrigger4V2_126BpHwSoundTriggerHwCallback14interfaceChainENSt3__18functionIFvRKNS0_8hidl_vecINS0_11hidl_stringEEEEEE
_ZN7android8hardware12soundtrigger4V2_126BpHwSoundTriggerHwCallback18soundModelCallbackERKNS1_4V2_023ISoundTriggerHwCallback10ModelEventEi
_ZN7android8hardware12soundtrigger4V2_126BpHwSoundTriggerHwCallback19interfaceDescriptorENSt3__18functionIFvRKNS0_11hidl_stringEEEE
_ZN7android8hardware12soundtrigger4V2_126BpHwSoundTriggerHwCallback19recognitionCallbackERKNS1_4V2_023ISoundTriggerHwCallback16RecognitionEventEi
_ZN7android8hardware12soundtrigger4V2_126BpHwSoundTriggerHwCallback21notifySyspropsChangedEv
_ZN7android8hardware12soundtrigger4V2_126BpHwSoundTriggerHwCallback21setHALInstrumentationEv
_ZN7android8hardware12soundtrigger4V2_126BpHwSoundTriggerHwCallback22soundModelCallback_2_1ERKNS2_23ISoundTriggerHwCallback10ModelEventEi
_ZN7android8hardware12soundtrigger4V2_126BpHwSoundTriggerHwCallback23recognitionCallback_2_1ERKNS2_23ISoundTriggerHwCallback16RecognitionEventEi
_ZN7android8hardware12soundtrigger4V2_126BpHwSoundTriggerHwCallback25phraseRecognitionCallbackERKNS1_4V2_023ISoundTriggerHwCallback22PhraseRecognitionEventEi
_ZN7android8hardware12soundtrigger4V2_126BpHwSoundTriggerHwCallback28_hidl_soundModelCallback_2_1EPNS0_10IInterfaceEPNS0_7details16HidlInstrumentorERKNS2_23ISoundTriggerHwCallback10ModelEventEi
_ZN7android8hardware12soundtrigger4V2_126BpHwSoundTriggerHwCallback29_hidl_recognitionCallback_2_1EPNS0_10IInterfaceEPNS0_7details16HidlInstrumentorERKNS2_23ISoundTriggerHwCallback16RecognitionEventEi
_ZN7android8hardware12soundtrigger4V2_126BpHwSoundTriggerHwCallback29phraseRecognitionCallback_2_1ERKNS2_23ISoundTriggerHwCallback22PhraseRecognitionEventEi
_ZN7android8hardware12soundtrigger4V2_126BpHwSoundTriggerHwCallback35_hidl_phraseRecognitionCallback_2_1EPNS0_10IInterfaceEPNS0_7details16HidlInstrumentorERKNS2_23ISoundTriggerHwCallback22PhraseRecognitionEventEi
_ZN7android8hardware12soundtrigger4V2_126BpHwSoundTriggerHwCallback4pingEv
_ZN7android8hardware12soundtrigger4V2_126BpHwSoundTriggerHwCallback5debugERKNS0_11hidl_handleERKNS0_8hidl_vecINS0_11hidl_stringEEE
_ZN7android8hardware12soundtrigger4V2_126BpHwSoundTriggerHwCallbackC1ERKNS_2spINS0_7IBinderEEE
_ZN7android8hardware12soundtrigger4V2_126BpHwSoundTriggerHwCallbackC2ERKNS_2spINS0_7IBinderEEE
_ZTCN7android8hardware12soundtrigger4V2_115ISoundTriggerHwE0_NS1_4V2_015ISoundTriggerHwE
_ZTCN7android8hardware12soundtrigger4V2_115ISoundTriggerHwE0_NS_4hidl4base4V1_05IBaseE
_ZTCN7android8hardware12soundtrigger4V2_118BnHwSoundTriggerHwE0_NS0_7IBinderE
_ZTCN7android8hardware12soundtrigger4V2_118BnHwSoundTriggerHwE0_NS0_9BHwBinderE
_ZTCN7android8hardware12soundtrigger4V2_118BnHwSoundTriggerHwE0_NS_4hidl4base4V1_08BnHwBaseE
_ZTCN7android8hardware12soundtrigger4V2_118BpHwSoundTriggerHwE0_NS0_11BpInterfaceINS2_15ISoundTriggerHwEEE
_ZTCN7android8hardware12soundtrigger4V2_118BpHwSoundTriggerHwE0_NS1_4V2_015ISoundTriggerHwE
_ZTCN7android8hardware12soundtrigger4V2_118BpHwSoundTriggerHwE0_NS2_15ISoundTriggerHwE
_ZTCN7android8hardware12soundtrigger4V2_118BpHwSoundTriggerHwE0_NS_4hidl4base4V1_05IBaseE
_ZTCN7android8hardware12soundtrigger4V2_118BpHwSoundTriggerHwE4_NS0_10IInterfaceE
_ZTCN7android8hardware12soundtrigger4V2_118BpHwSoundTriggerHwE8_NS0_11BpHwRefBaseE
_ZTCN7android8hardware12soundtrigger4V2_123ISoundTriggerHwCallbackE0_NS1_4V2_023ISoundTriggerHwCallbackE
_ZTCN7android8hardware12soundtrigger4V2_123ISoundTriggerHwCallbackE0_NS_4hidl4base4V1_05IBaseE
_ZTCN7android8hardware12soundtrigger4V2_126BnHwSoundTriggerHwCallbackE0_NS0_7IBinderE
_ZTCN7android8hardware12soundtrigger4V2_126BnHwSoundTriggerHwCallbackE0_NS0_9BHwBinderE
_ZTCN7android8hardware12soundtrigger4V2_126BnHwSoundTriggerHwCallbackE0_NS_4hidl4base4V1_08BnHwBaseE
_ZTCN7android8hardware12soundtrigger4V2_126BpHwSoundTriggerHwCallbackE0_NS0_11BpInterfaceINS2_23ISoundTriggerHwCallbackEEE
_ZTCN7android8hardware12soundtrigger4V2_126BpHwSoundTriggerHwCallbackE0_NS1_4V2_023ISoundTriggerHwCallbackE
_ZTCN7android8hardware12soundtrigger4V2_126BpHwSoundTriggerHwCallbackE0_NS2_23ISoundTriggerHwCallbackE
_ZTCN7android8hardware12soundtrigger4V2_126BpHwSoundTriggerHwCallbackE0_NS_4hidl4base4V1_05IBaseE
_ZTCN7android8hardware12soundtrigger4V2_126BpHwSoundTriggerHwCallbackE4_NS0_10IInterfaceE
_ZTCN7android8hardware12soundtrigger4V2_126BpHwSoundTriggerHwCallbackE8_NS0_11BpHwRefBaseE
_ZTTN7android8hardware12soundtrigger4V2_115ISoundTriggerHwE
_ZTTN7android8hardware12soundtrigger4V2_118BnHwSoundTriggerHwE
_ZTTN7android8hardware12soundtrigger4V2_118BpHwSoundTriggerHwE
_ZTTN7android8hardware12soundtrigger4V2_123ISoundTriggerHwCallbackE
_ZTTN7android8hardware12soundtrigger4V2_126BnHwSoundTriggerHwCallbackE
_ZTTN7android8hardware12soundtrigger4V2_126BpHwSoundTriggerHwCallbackE
_ZTVN7android8hardware12soundtrigger4V2_115ISoundTriggerHwE
_ZTVN7android8hardware12soundtrigger4V2_118BnHwSoundTriggerHwE
_ZTVN7android8hardware12soundtrigger4V2_118BpHwSoundTriggerHwE
_ZTVN7android8hardware12soundtrigger4V2_123ISoundTriggerHwCallbackE
_ZTVN7android8hardware12soundtrigger4V2_126BnHwSoundTriggerHwCallbackE
_ZTVN7android8hardware12soundtrigger4V2_126BpHwSoundTriggerHwCallbackE
_ZThn20_N7android8hardware12soundtrigger4V2_118BnHwSoundTriggerHwD0Ev
_ZThn20_N7android8hardware12soundtrigger4V2_118BnHwSoundTriggerHwD1Ev
_ZThn20_N7android8hardware12soundtrigger4V2_126BnHwSoundTriggerHwCallbackD0Ev
_ZThn20_N7android8hardware12soundtrigger4V2_126BnHwSoundTriggerHwCallbackD1Ev
_ZTv0_n12_N7android8hardware12soundtrigger4V2_118BnHwSoundTriggerHwD0Ev
_ZTv0_n12_N7android8hardware12soundtrigger4V2_118BnHwSoundTriggerHwD1Ev
_ZTv0_n12_N7android8hardware12soundtrigger4V2_126BnHwSoundTriggerHwCallbackD0Ev
_ZTv0_n12_N7android8hardware12soundtrigger4V2_126BnHwSoundTriggerHwCallbackD1Ev
