_ZN7android8hardware6camera6device4V3_320ICameraDeviceSession10descriptorE
_ZN7android8hardware6camera6device4V3_320ICameraDeviceSession10getServiceERKNSt3__112basic_stringIcNS5_11char_traitsIcEENS5_9allocatorIcEEEEb
_ZN7android8hardware6camera6device4V3_320ICameraDeviceSession11linkToDeathERKNS_2spINS0_20hidl_death_recipientEEEy
_ZN7android8hardware6camera6device4V3_320ICameraDeviceSession12getDebugInfoENSt3__18functionIFvRKNS_4hidl4base4V1_09DebugInfoEEEE
_ZN7android8hardware6camera6device4V3_320ICameraDeviceSession12getHashChainENSt3__18functionIFvRKNS0_8hidl_vecINS0_10hidl_arrayIhLj32EJEEEEEEEE
_ZN7android8hardware6camera6device4V3_320ICameraDeviceSession13tryGetServiceERKNSt3__112basic_stringIcNS5_11char_traitsIcEENS5_9allocatorIcEEEEb
_ZN7android8hardware6camera6device4V3_320ICameraDeviceSession13unlinkToDeathERKNS_2spINS0_20hidl_death_recipientEEE
_ZN7android8hardware6camera6device4V3_320ICameraDeviceSession14interfaceChainENSt3__18functionIFvRKNS0_8hidl_vecINS0_11hidl_stringEEEEEE
_ZN7android8hardware6camera6device4V3_320ICameraDeviceSession17registerAsServiceERKNSt3__112basic_stringIcNS5_11char_traitsIcEENS5_9allocatorIcEEEE
_ZN7android8hardware6camera6device4V3_320ICameraDeviceSession19interfaceDescriptorENSt3__18functionIFvRKNS0_11hidl_stringEEEE
_ZN7android8hardware6camera6device4V3_320ICameraDeviceSession21notifySyspropsChangedEv
_ZN7android8hardware6camera6device4V3_320ICameraDeviceSession21setHALInstrumentationEv
_ZN7android8hardware6camera6device4V3_320ICameraDeviceSession24registerForNotificationsERKNSt3__112basic_stringIcNS5_11char_traitsIcEENS5_9allocatorIcEEEERKNS_2spINS_4hidl7manager4V1_020IServiceNotificationEEE
_ZN7android8hardware6camera6device4V3_320ICameraDeviceSession4pingEv
_ZN7android8hardware6camera6device4V3_320ICameraDeviceSession5debugERKNS0_11hidl_handleERKNS0_8hidl_vecINS0_11hidl_stringEEE
_ZN7android8hardware6camera6device4V3_320ICameraDeviceSession8castFromERKNS_2spINS2_4V3_220ICameraDeviceSessionEEEb
_ZN7android8hardware6camera6device4V3_320ICameraDeviceSession8castFromERKNS_2spINS_4hidl4base4V1_05IBaseEEEb
_ZN7android8hardware6camera6device4V3_320ICameraDeviceSession8castFromERKNS_2spIS4_EEb
_ZN7android8hardware6camera6device4V3_321BsCameraDeviceSession13addOnewayTaskENSt3__18functionIFvvEEE
_ZN7android8hardware6camera6device4V3_321BsCameraDeviceSessionC1ENS_2spINS3_20ICameraDeviceSessionEEE
_ZN7android8hardware6camera6device4V3_321BsCameraDeviceSessionC2ENS_2spINS3_20ICameraDeviceSessionEEE
_ZN7android8hardware6camera6device4V3_321writeEmbeddedToParcelERKNS3_22HalStreamConfigurationEPNS0_6ParcelEjj
_ZN7android8hardware6camera6device4V3_322readEmbeddedFromParcelERKNS3_22HalStreamConfigurationERKNS0_6ParcelEjj
_ZN7android8hardware6camera6device4V3_323BnHwCameraDeviceSession10onTransactEjRKNS0_6ParcelEPS5_jNSt3__18functionIFvRS5_EEE
_ZN7android8hardware6camera6device4V3_323BnHwCameraDeviceSession12getDebugInfoENSt3__18functionIFvRKNS_4hidl4base4V1_09DebugInfoEEEE
_ZN7android8hardware6camera6device4V3_323BnHwCameraDeviceSession26_hidl_configureStreams_3_3EPNS_4hidl4base4V1_08BnHwBaseERKNS0_6ParcelEPSA_NSt3__18functionIFvRSA_EEE
_ZN7android8hardware6camera6device4V3_323BnHwCameraDeviceSession4pingEv
_ZN7android8hardware6camera6device4V3_323BnHwCameraDeviceSessionC1ERKNS_2spINS3_20ICameraDeviceSessionEEE
_ZN7android8hardware6camera6device4V3_323BnHwCameraDeviceSessionC2ERKNS_2spINS3_20ICameraDeviceSessionEEE
_ZN7android8hardware6camera6device4V3_323BnHwCameraDeviceSessionD0Ev
_ZN7android8hardware6camera6device4V3_323BnHwCameraDeviceSessionD1Ev
_ZN7android8hardware6camera6device4V3_323BnHwCameraDeviceSessionD2Ev
_ZN7android8hardware6camera6device4V3_323BpHwCameraDeviceSession11linkToDeathERKNS_2spINS0_20hidl_death_recipientEEEy
_ZN7android8hardware6camera6device4V3_323BpHwCameraDeviceSession12getDebugInfoENSt3__18functionIFvRKNS_4hidl4base4V1_09DebugInfoEEEE
_ZN7android8hardware6camera6device4V3_323BpHwCameraDeviceSession12getHashChainENSt3__18functionIFvRKNS0_8hidl_vecINS0_10hidl_arrayIhLj32EJEEEEEEEE
_ZN7android8hardware6camera6device4V3_323BpHwCameraDeviceSession13unlinkToDeathERKNS_2spINS0_20hidl_death_recipientEEE
_ZN7android8hardware6camera6device4V3_323BpHwCameraDeviceSession14interfaceChainENSt3__18functionIFvRKNS0_8hidl_vecINS0_11hidl_stringEEEEEE
_ZN7android8hardware6camera6device4V3_323BpHwCameraDeviceSession16configureStreamsERKNS2_4V3_219StreamConfigurationENSt3__18functionIFvNS1_6common4V1_06StatusERKNS5_22HalStreamConfigurationEEEE
_ZN7android8hardware6camera6device4V3_323BpHwCameraDeviceSession19interfaceDescriptorENSt3__18functionIFvRKNS0_11hidl_stringEEEE
_ZN7android8hardware6camera6device4V3_323BpHwCameraDeviceSession20configureStreams_3_3ERKNS2_4V3_219StreamConfigurationENSt3__18functionIFvNS1_6common4V1_06StatusERKNS3_22HalStreamConfigurationEEEE
_ZN7android8hardware6camera6device4V3_323BpHwCameraDeviceSession21notifySyspropsChangedEv
_ZN7android8hardware6camera6device4V3_323BpHwCameraDeviceSession21processCaptureRequestERKNS0_8hidl_vecINS2_4V3_214CaptureRequestEEERKNS5_INS6_11BufferCacheEEENSt3__18functionIFvNS1_6common4V1_06StatusEjEEE
_ZN7android8hardware6camera6device4V3_323BpHwCameraDeviceSession21setHALInstrumentationEv
_ZN7android8hardware6camera6device4V3_323BpHwCameraDeviceSession26_hidl_configureStreams_3_3EPNS0_10IInterfaceEPNS0_7details16HidlInstrumentorERKNS2_4V3_219StreamConfigurationENSt3__18functionIFvNS1_6common4V1_06StatusERKNS3_22HalStreamConfigurationEEEE
_ZN7android8hardware6camera6device4V3_323BpHwCameraDeviceSession29getCaptureResultMetadataQueueENSt3__18functionIFvRKNS0_12MQDescriptorIhLNS0_8MQFlavorE1EEEEEE
_ZN7android8hardware6camera6device4V3_323BpHwCameraDeviceSession30getCaptureRequestMetadataQueueENSt3__18functionIFvRKNS0_12MQDescriptorIhLNS0_8MQFlavorE1EEEEEE
_ZN7android8hardware6camera6device4V3_323BpHwCameraDeviceSession31constructDefaultRequestSettingsENS2_4V3_215RequestTemplateENSt3__18functionIFvNS1_6common4V1_06StatusERKNS0_8hidl_vecIhEEEEE
_ZN7android8hardware6camera6device4V3_323BpHwCameraDeviceSession4pingEv
_ZN7android8hardware6camera6device4V3_323BpHwCameraDeviceSession5closeEv
_ZN7android8hardware6camera6device4V3_323BpHwCameraDeviceSession5debugERKNS0_11hidl_handleERKNS0_8hidl_vecINS0_11hidl_stringEEE
_ZN7android8hardware6camera6device4V3_323BpHwCameraDeviceSession5flushEv
_ZN7android8hardware6camera6device4V3_323BpHwCameraDeviceSessionC1ERKNS_2spINS0_7IBinderEEE
_ZN7android8hardware6camera6device4V3_323BpHwCameraDeviceSessionC2ERKNS_2spINS0_7IBinderEEE
_ZTCN7android8hardware6camera6device4V3_320ICameraDeviceSessionE0_NS2_4V3_220ICameraDeviceSessionE
_ZTCN7android8hardware6camera6device4V3_320ICameraDeviceSessionE0_NS_4hidl4base4V1_05IBaseE
_ZTCN7android8hardware6camera6device4V3_323BnHwCameraDeviceSessionE0_NS0_7IBinderE
_ZTCN7android8hardware6camera6device4V3_323BnHwCameraDeviceSessionE0_NS0_9BHwBinderE
_ZTCN7android8hardware6camera6device4V3_323BnHwCameraDeviceSessionE0_NS_4hidl4base4V1_08BnHwBaseE
_ZTCN7android8hardware6camera6device4V3_323BpHwCameraDeviceSessionE0_NS0_11BpInterfaceINS3_20ICameraDeviceSessionEEE
_ZTCN7android8hardware6camera6device4V3_323BpHwCameraDeviceSessionE0_NS2_4V3_220ICameraDeviceSessionE
_ZTCN7android8hardware6camera6device4V3_323BpHwCameraDeviceSessionE0_NS3_20ICameraDeviceSessionE
_ZTCN7android8hardware6camera6device4V3_323BpHwCameraDeviceSessionE0_NS_4hidl4base4V1_05IBaseE
_ZTCN7android8hardware6camera6device4V3_323BpHwCameraDeviceSessionE4_NS0_10IInterfaceE
_ZTCN7android8hardware6camera6device4V3_323BpHwCameraDeviceSessionE8_NS0_11BpHwRefBaseE
_ZTTN7android8hardware6camera6device4V3_320ICameraDeviceSessionE
_ZTTN7android8hardware6camera6device4V3_323BnHwCameraDeviceSessionE
_ZTTN7android8hardware6camera6device4V3_323BpHwCameraDeviceSessionE
_ZTVN7android8hardware6camera6device4V3_320ICameraDeviceSessionE
_ZTVN7android8hardware6camera6device4V3_323BnHwCameraDeviceSessionE
_ZTVN7android8hardware6camera6device4V3_323BpHwCameraDeviceSessionE
_ZThn20_N7android8hardware6camera6device4V3_323BnHwCameraDeviceSessionD0Ev
_ZThn20_N7android8hardware6camera6device4V3_323BnHwCameraDeviceSessionD1Ev
_ZTv0_n12_N7android8hardware6camera6device4V3_323BnHwCameraDeviceSessionD0Ev
_ZTv0_n12_N7android8hardware6camera6device4V3_323BnHwCameraDeviceSessionD1Ev
