_ZN7android8hardware6camera6device4V3_420ICameraDeviceSession10descriptorE
_ZN7android8hardware6camera6device4V3_420ICameraDeviceSession10getServiceERKNSt3__112basic_stringIcNS5_11char_traitsIcEENS5_9allocatorIcEEEEb
_ZN7android8hardware6camera6device4V3_420ICameraDeviceSession11linkToDeathERKNS_2spINS0_20hidl_death_recipientEEEy
_ZN7android8hardware6camera6device4V3_420ICameraDeviceSession12getDebugInfoENSt3__18functionIFvRKNS_4hidl4base4V1_09DebugInfoEEEE
_ZN7android8hardware6camera6device4V3_420ICameraDeviceSession12getHashChainENSt3__18functionIFvRKNS0_8hidl_vecINS0_10hidl_arrayIhLj32EJEEEEEEEE
_ZN7android8hardware6camera6device4V3_420ICameraDeviceSession13tryGetServiceERKNSt3__112basic_stringIcNS5_11char_traitsIcEENS5_9allocatorIcEEEEb
_ZN7android8hardware6camera6device4V3_420ICameraDeviceSession13unlinkToDeathERKNS_2spINS0_20hidl_death_recipientEEE
_ZN7android8hardware6camera6device4V3_420ICameraDeviceSession14interfaceChainENSt3__18functionIFvRKNS0_8hidl_vecINS0_11hidl_stringEEEEEE
_ZN7android8hardware6camera6device4V3_420ICameraDeviceSession17registerAsServiceERKNSt3__112basic_stringIcNS5_11char_traitsIcEENS5_9allocatorIcEEEE
_ZN7android8hardware6camera6device4V3_420ICameraDeviceSession19interfaceDescriptorENSt3__18functionIFvRKNS0_11hidl_stringEEEE
_ZN7android8hardware6camera6device4V3_420ICameraDeviceSession21notifySyspropsChangedEv
_ZN7android8hardware6camera6device4V3_420ICameraDeviceSession21setHALInstrumentationEv
_ZN7android8hardware6camera6device4V3_420ICameraDeviceSession24registerForNotificationsERKNSt3__112basic_stringIcNS5_11char_traitsIcEENS5_9allocatorIcEEEERKNS_2spINS_4hidl7manager4V1_020IServiceNotificationEEE
_ZN7android8hardware6camera6device4V3_420ICameraDeviceSession4pingEv
_ZN7android8hardware6camera6device4V3_420ICameraDeviceSession5debugERKNS0_11hidl_handleERKNS0_8hidl_vecINS0_11hidl_stringEEE
_ZN7android8hardware6camera6device4V3_420ICameraDeviceSession8castFromERKNS_2spINS2_4V3_220ICameraDeviceSessionEEEb
_ZN7android8hardware6camera6device4V3_420ICameraDeviceSession8castFromERKNS_2spINS2_4V3_320ICameraDeviceSessionEEEb
_ZN7android8hardware6camera6device4V3_420ICameraDeviceSession8castFromERKNS_2spINS_4hidl4base4V1_05IBaseEEEb
_ZN7android8hardware6camera6device4V3_420ICameraDeviceSession8castFromERKNS_2spIS4_EEb
_ZN7android8hardware6camera6device4V3_421BsCameraDeviceSession13addOnewayTaskENSt3__18functionIFvvEEE
_ZN7android8hardware6camera6device4V3_421BsCameraDeviceSessionC1ENS_2spINS3_20ICameraDeviceSessionEEE
_ZN7android8hardware6camera6device4V3_421BsCameraDeviceSessionC2ENS_2spINS3_20ICameraDeviceSessionEEE
_ZN7android8hardware6camera6device4V3_421ICameraDeviceCallback10descriptorE
_ZN7android8hardware6camera6device4V3_421ICameraDeviceCallback10getServiceERKNSt3__112basic_stringIcNS5_11char_traitsIcEENS5_9allocatorIcEEEEb
_ZN7android8hardware6camera6device4V3_421ICameraDeviceCallback11linkToDeathERKNS_2spINS0_20hidl_death_recipientEEEy
_ZN7android8hardware6camera6device4V3_421ICameraDeviceCallback12getDebugInfoENSt3__18functionIFvRKNS_4hidl4base4V1_09DebugInfoEEEE
_ZN7android8hardware6camera6device4V3_421ICameraDeviceCallback12getHashChainENSt3__18functionIFvRKNS0_8hidl_vecINS0_10hidl_arrayIhLj32EJEEEEEEEE
_ZN7android8hardware6camera6device4V3_421ICameraDeviceCallback13tryGetServiceERKNSt3__112basic_stringIcNS5_11char_traitsIcEENS5_9allocatorIcEEEEb
_ZN7android8hardware6camera6device4V3_421ICameraDeviceCallback13unlinkToDeathERKNS_2spINS0_20hidl_death_recipientEEE
_ZN7android8hardware6camera6device4V3_421ICameraDeviceCallback14interfaceChainENSt3__18functionIFvRKNS0_8hidl_vecINS0_11hidl_stringEEEEEE
_ZN7android8hardware6camera6device4V3_421ICameraDeviceCallback17registerAsServiceERKNSt3__112basic_stringIcNS5_11char_traitsIcEENS5_9allocatorIcEEEE
_ZN7android8hardware6camera6device4V3_421ICameraDeviceCallback19interfaceDescriptorENSt3__18functionIFvRKNS0_11hidl_stringEEEE
_ZN7android8hardware6camera6device4V3_421ICameraDeviceCallback21notifySyspropsChangedEv
_ZN7android8hardware6camera6device4V3_421ICameraDeviceCallback21setHALInstrumentationEv
_ZN7android8hardware6camera6device4V3_421ICameraDeviceCallback24registerForNotificationsERKNSt3__112basic_stringIcNS5_11char_traitsIcEENS5_9allocatorIcEEEERKNS_2spINS_4hidl7manager4V1_020IServiceNotificationEEE
_ZN7android8hardware6camera6device4V3_421ICameraDeviceCallback4pingEv
_ZN7android8hardware6camera6device4V3_421ICameraDeviceCallback5debugERKNS0_11hidl_handleERKNS0_8hidl_vecINS0_11hidl_stringEEE
_ZN7android8hardware6camera6device4V3_421ICameraDeviceCallback8castFromERKNS_2spINS2_4V3_221ICameraDeviceCallbackEEEb
_ZN7android8hardware6camera6device4V3_421ICameraDeviceCallback8castFromERKNS_2spINS_4hidl4base4V1_05IBaseEEEb
_ZN7android8hardware6camera6device4V3_421ICameraDeviceCallback8castFromERKNS_2spIS4_EEb
_ZN7android8hardware6camera6device4V3_421writeEmbeddedToParcelERKNS3_13CaptureResultEPNS0_6ParcelEjj
_ZN7android8hardware6camera6device4V3_421writeEmbeddedToParcelERKNS3_14CaptureRequestEPNS0_6ParcelEjj
_ZN7android8hardware6camera6device4V3_421writeEmbeddedToParcelERKNS3_19StreamConfigurationEPNS0_6ParcelEjj
_ZN7android8hardware6camera6device4V3_421writeEmbeddedToParcelERKNS3_21PhysicalCameraSettingEPNS0_6ParcelEjj
_ZN7android8hardware6camera6device4V3_421writeEmbeddedToParcelERKNS3_22HalStreamConfigurationEPNS0_6ParcelEjj
_ZN7android8hardware6camera6device4V3_421writeEmbeddedToParcelERKNS3_22PhysicalCameraMetadataEPNS0_6ParcelEjj
_ZN7android8hardware6camera6device4V3_421writeEmbeddedToParcelERKNS3_6StreamEPNS0_6ParcelEjj
_ZN7android8hardware6camera6device4V3_421writeEmbeddedToParcelERKNS3_9HalStreamEPNS0_6ParcelEjj
_ZN7android8hardware6camera6device4V3_422BsCameraDeviceCallback13addOnewayTaskENSt3__18functionIFvvEEE
_ZN7android8hardware6camera6device4V3_422BsCameraDeviceCallbackC1ENS_2spINS3_21ICameraDeviceCallbackEEE
_ZN7android8hardware6camera6device4V3_422BsCameraDeviceCallbackC2ENS_2spINS3_21ICameraDeviceCallbackEEE
_ZN7android8hardware6camera6device4V3_422readEmbeddedFromParcelERKNS3_13CaptureResultERKNS0_6ParcelEjj
_ZN7android8hardware6camera6device4V3_422readEmbeddedFromParcelERKNS3_14CaptureRequestERKNS0_6ParcelEjj
_ZN7android8hardware6camera6device4V3_422readEmbeddedFromParcelERKNS3_19StreamConfigurationERKNS0_6ParcelEjj
_ZN7android8hardware6camera6device4V3_422readEmbeddedFromParcelERKNS3_21PhysicalCameraSettingERKNS0_6ParcelEjj
_ZN7android8hardware6camera6device4V3_422readEmbeddedFromParcelERKNS3_22HalStreamConfigurationERKNS0_6ParcelEjj
_ZN7android8hardware6camera6device4V3_422readEmbeddedFromParcelERKNS3_22PhysicalCameraMetadataERKNS0_6ParcelEjj
_ZN7android8hardware6camera6device4V3_422readEmbeddedFromParcelERKNS3_6StreamERKNS0_6ParcelEjj
_ZN7android8hardware6camera6device4V3_422readEmbeddedFromParcelERKNS3_9HalStreamERKNS0_6ParcelEjj
_ZN7android8hardware6camera6device4V3_423BnHwCameraDeviceSession10onTransactEjRKNS0_6ParcelEPS5_jNSt3__18functionIFvRS5_EEE
_ZN7android8hardware6camera6device4V3_423BnHwCameraDeviceSession12getDebugInfoENSt3__18functionIFvRKNS_4hidl4base4V1_09DebugInfoEEEE
_ZN7android8hardware6camera6device4V3_423BnHwCameraDeviceSession26_hidl_configureStreams_3_4EPNS_4hidl4base4V1_08BnHwBaseERKNS0_6ParcelEPSA_NSt3__18functionIFvRSA_EEE
_ZN7android8hardware6camera6device4V3_423BnHwCameraDeviceSession31_hidl_processCaptureRequest_3_4EPNS_4hidl4base4V1_08BnHwBaseERKNS0_6ParcelEPSA_NSt3__18functionIFvRSA_EEE
_ZN7android8hardware6camera6device4V3_423BnHwCameraDeviceSession4pingEv
_ZN7android8hardware6camera6device4V3_423BnHwCameraDeviceSessionC1ERKNS_2spINS3_20ICameraDeviceSessionEEE
_ZN7android8hardware6camera6device4V3_423BnHwCameraDeviceSessionC2ERKNS_2spINS3_20ICameraDeviceSessionEEE
_ZN7android8hardware6camera6device4V3_423BnHwCameraDeviceSessionD0Ev
_ZN7android8hardware6camera6device4V3_423BnHwCameraDeviceSessionD1Ev
_ZN7android8hardware6camera6device4V3_423BnHwCameraDeviceSessionD2Ev
_ZN7android8hardware6camera6device4V3_423BpHwCameraDeviceSession11linkToDeathERKNS_2spINS0_20hidl_death_recipientEEEy
_ZN7android8hardware6camera6device4V3_423BpHwCameraDeviceSession12getDebugInfoENSt3__18functionIFvRKNS_4hidl4base4V1_09DebugInfoEEEE
_ZN7android8hardware6camera6device4V3_423BpHwCameraDeviceSession12getHashChainENSt3__18functionIFvRKNS0_8hidl_vecINS0_10hidl_arrayIhLj32EJEEEEEEEE
_ZN7android8hardware6camera6device4V3_423BpHwCameraDeviceSession13unlinkToDeathERKNS_2spINS0_20hidl_death_recipientEEE
_ZN7android8hardware6camera6device4V3_423BpHwCameraDeviceSession14interfaceChainENSt3__18functionIFvRKNS0_8hidl_vecINS0_11hidl_stringEEEEEE
_ZN7android8hardware6camera6device4V3_423BpHwCameraDeviceSession16configureStreamsERKNS2_4V3_219StreamConfigurationENSt3__18functionIFvNS1_6common4V1_06StatusERKNS5_22HalStreamConfigurationEEEE
_ZN7android8hardware6camera6device4V3_423BpHwCameraDeviceSession19interfaceDescriptorENSt3__18functionIFvRKNS0_11hidl_stringEEEE
_ZN7android8hardware6camera6device4V3_423BpHwCameraDeviceSession20configureStreams_3_3ERKNS2_4V3_219StreamConfigurationENSt3__18functionIFvNS1_6common4V1_06StatusERKNS2_4V3_322HalStreamConfigurationEEEE
_ZN7android8hardware6camera6device4V3_423BpHwCameraDeviceSession20configureStreams_3_4ERKNS3_19StreamConfigurationENSt3__18functionIFvNS1_6common4V1_06StatusERKNS3_22HalStreamConfigurationEEEE
_ZN7android8hardware6camera6device4V3_423BpHwCameraDeviceSession21notifySyspropsChangedEv
_ZN7android8hardware6camera6device4V3_423BpHwCameraDeviceSession21processCaptureRequestERKNS0_8hidl_vecINS2_4V3_214CaptureRequestEEERKNS5_INS6_11BufferCacheEEENSt3__18functionIFvNS1_6common4V1_06StatusEjEEE
_ZN7android8hardware6camera6device4V3_423BpHwCameraDeviceSession21setHALInstrumentationEv
_ZN7android8hardware6camera6device4V3_423BpHwCameraDeviceSession25processCaptureRequest_3_4ERKNS0_8hidl_vecINS3_14CaptureRequestEEERKNS5_INS2_4V3_211BufferCacheEEENSt3__18functionIFvNS1_6common4V1_06StatusEjEEE
_ZN7android8hardware6camera6device4V3_423BpHwCameraDeviceSession26_hidl_configureStreams_3_4EPNS0_10IInterfaceEPNS0_7details16HidlInstrumentorERKNS3_19StreamConfigurationENSt3__18functionIFvNS1_6common4V1_06StatusERKNS3_22HalStreamConfigurationEEEE
_ZN7android8hardware6camera6device4V3_423BpHwCameraDeviceSession29getCaptureResultMetadataQueueENSt3__18functionIFvRKNS0_12MQDescriptorIhLNS0_8MQFlavorE1EEEEEE
_ZN7android8hardware6camera6device4V3_423BpHwCameraDeviceSession30getCaptureRequestMetadataQueueENSt3__18functionIFvRKNS0_12MQDescriptorIhLNS0_8MQFlavorE1EEEEEE
_ZN7android8hardware6camera6device4V3_423BpHwCameraDeviceSession31_hidl_processCaptureRequest_3_4EPNS0_10IInterfaceEPNS0_7details16HidlInstrumentorERKNS0_8hidl_vecINS3_14CaptureRequestEEERKNSA_INS2_4V3_211BufferCacheEEENSt3__18functionIFvNS1_6common4V1_06StatusEjEEE
_ZN7android8hardware6camera6device4V3_423BpHwCameraDeviceSession31constructDefaultRequestSettingsENS2_4V3_215RequestTemplateENSt3__18functionIFvNS1_6common4V1_06StatusERKNS0_8hidl_vecIhEEEEE
_ZN7android8hardware6camera6device4V3_423BpHwCameraDeviceSession4pingEv
_ZN7android8hardware6camera6device4V3_423BpHwCameraDeviceSession5closeEv
_ZN7android8hardware6camera6device4V3_423BpHwCameraDeviceSession5debugERKNS0_11hidl_handleERKNS0_8hidl_vecINS0_11hidl_stringEEE
_ZN7android8hardware6camera6device4V3_423BpHwCameraDeviceSession5flushEv
_ZN7android8hardware6camera6device4V3_423BpHwCameraDeviceSessionC1ERKNS_2spINS0_7IBinderEEE
_ZN7android8hardware6camera6device4V3_423BpHwCameraDeviceSessionC2ERKNS_2spINS0_7IBinderEEE
_ZN7android8hardware6camera6device4V3_424BnHwCameraDeviceCallback10onTransactEjRKNS0_6ParcelEPS5_jNSt3__18functionIFvRS5_EEE
_ZN7android8hardware6camera6device4V3_424BnHwCameraDeviceCallback12getDebugInfoENSt3__18functionIFvRKNS_4hidl4base4V1_09DebugInfoEEEE
_ZN7android8hardware6camera6device4V3_424BnHwCameraDeviceCallback30_hidl_processCaptureResult_3_4EPNS_4hidl4base4V1_08BnHwBaseERKNS0_6ParcelEPSA_NSt3__18functionIFvRSA_EEE
_ZN7android8hardware6camera6device4V3_424BnHwCameraDeviceCallback4pingEv
_ZN7android8hardware6camera6device4V3_424BnHwCameraDeviceCallbackC1ERKNS_2spINS3_21ICameraDeviceCallbackEEE
_ZN7android8hardware6camera6device4V3_424BnHwCameraDeviceCallbackC2ERKNS_2spINS3_21ICameraDeviceCallbackEEE
_ZN7android8hardware6camera6device4V3_424BnHwCameraDeviceCallbackD0Ev
_ZN7android8hardware6camera6device4V3_424BnHwCameraDeviceCallbackD1Ev
_ZN7android8hardware6camera6device4V3_424BnHwCameraDeviceCallbackD2Ev
_ZN7android8hardware6camera6device4V3_424BpHwCameraDeviceCallback11linkToDeathERKNS_2spINS0_20hidl_death_recipientEEEy
_ZN7android8hardware6camera6device4V3_424BpHwCameraDeviceCallback12getDebugInfoENSt3__18functionIFvRKNS_4hidl4base4V1_09DebugInfoEEEE
_ZN7android8hardware6camera6device4V3_424BpHwCameraDeviceCallback12getHashChainENSt3__18functionIFvRKNS0_8hidl_vecINS0_10hidl_arrayIhLj32EJEEEEEEEE
_ZN7android8hardware6camera6device4V3_424BpHwCameraDeviceCallback13unlinkToDeathERKNS_2spINS0_20hidl_death_recipientEEE
_ZN7android8hardware6camera6device4V3_424BpHwCameraDeviceCallback14interfaceChainENSt3__18functionIFvRKNS0_8hidl_vecINS0_11hidl_stringEEEEEE
_ZN7android8hardware6camera6device4V3_424BpHwCameraDeviceCallback19interfaceDescriptorENSt3__18functionIFvRKNS0_11hidl_stringEEEE
_ZN7android8hardware6camera6device4V3_424BpHwCameraDeviceCallback20processCaptureResultERKNS0_8hidl_vecINS2_4V3_213CaptureResultEEE
_ZN7android8hardware6camera6device4V3_424BpHwCameraDeviceCallback21notifySyspropsChangedEv
_ZN7android8hardware6camera6device4V3_424BpHwCameraDeviceCallback21setHALInstrumentationEv
_ZN7android8hardware6camera6device4V3_424BpHwCameraDeviceCallback24processCaptureResult_3_4ERKNS0_8hidl_vecINS3_13CaptureResultEEE
_ZN7android8hardware6camera6device4V3_424BpHwCameraDeviceCallback30_hidl_processCaptureResult_3_4EPNS0_10IInterfaceEPNS0_7details16HidlInstrumentorERKNS0_8hidl_vecINS3_13CaptureResultEEE
_ZN7android8hardware6camera6device4V3_424BpHwCameraDeviceCallback4pingEv
_ZN7android8hardware6camera6device4V3_424BpHwCameraDeviceCallback5debugERKNS0_11hidl_handleERKNS0_8hidl_vecINS0_11hidl_stringEEE
_ZN7android8hardware6camera6device4V3_424BpHwCameraDeviceCallback6notifyERKNS0_8hidl_vecINS2_4V3_29NotifyMsgEEE
_ZN7android8hardware6camera6device4V3_424BpHwCameraDeviceCallbackC1ERKNS_2spINS0_7IBinderEEE
_ZN7android8hardware6camera6device4V3_424BpHwCameraDeviceCallbackC2ERKNS_2spINS0_7IBinderEEE
_ZTCN7android8hardware6camera6device4V3_420ICameraDeviceSessionE0_NS2_4V3_220ICameraDeviceSessionE
_ZTCN7android8hardware6camera6device4V3_420ICameraDeviceSessionE0_NS2_4V3_320ICameraDeviceSessionE
_ZTCN7android8hardware6camera6device4V3_420ICameraDeviceSessionE0_NS_4hidl4base4V1_05IBaseE
_ZTCN7android8hardware6camera6device4V3_421ICameraDeviceCallbackE0_NS2_4V3_221ICameraDeviceCallbackE
_ZTCN7android8hardware6camera6device4V3_421ICameraDeviceCallbackE0_NS_4hidl4base4V1_05IBaseE
_ZTCN7android8hardware6camera6device4V3_423BnHwCameraDeviceSessionE0_NS0_7IBinderE
_ZTCN7android8hardware6camera6device4V3_423BnHwCameraDeviceSessionE0_NS0_9BHwBinderE
_ZTCN7android8hardware6camera6device4V3_423BnHwCameraDeviceSessionE0_NS_4hidl4base4V1_08BnHwBaseE
_ZTCN7android8hardware6camera6device4V3_423BpHwCameraDeviceSessionE0_NS0_11BpInterfaceINS3_20ICameraDeviceSessionEEE
_ZTCN7android8hardware6camera6device4V3_423BpHwCameraDeviceSessionE0_NS2_4V3_220ICameraDeviceSessionE
_ZTCN7android8hardware6camera6device4V3_423BpHwCameraDeviceSessionE0_NS2_4V3_320ICameraDeviceSessionE
_ZTCN7android8hardware6camera6device4V3_423BpHwCameraDeviceSessionE0_NS3_20ICameraDeviceSessionE
_ZTCN7android8hardware6camera6device4V3_423BpHwCameraDeviceSessionE0_NS_4hidl4base4V1_05IBaseE
_ZTCN7android8hardware6camera6device4V3_423BpHwCameraDeviceSessionE4_NS0_10IInterfaceE
_ZTCN7android8hardware6camera6device4V3_423BpHwCameraDeviceSessionE8_NS0_11BpHwRefBaseE
_ZTCN7android8hardware6camera6device4V3_424BnHwCameraDeviceCallbackE0_NS0_7IBinderE
_ZTCN7android8hardware6camera6device4V3_424BnHwCameraDeviceCallbackE0_NS0_9BHwBinderE
_ZTCN7android8hardware6camera6device4V3_424BnHwCameraDeviceCallbackE0_NS_4hidl4base4V1_08BnHwBaseE
_ZTCN7android8hardware6camera6device4V3_424BpHwCameraDeviceCallbackE0_NS0_11BpInterfaceINS3_21ICameraDeviceCallbackEEE
_ZTCN7android8hardware6camera6device4V3_424BpHwCameraDeviceCallbackE0_NS2_4V3_221ICameraDeviceCallbackE
_ZTCN7android8hardware6camera6device4V3_424BpHwCameraDeviceCallbackE0_NS3_21ICameraDeviceCallbackE
_ZTCN7android8hardware6camera6device4V3_424BpHwCameraDeviceCallbackE0_NS_4hidl4base4V1_05IBaseE
_ZTCN7android8hardware6camera6device4V3_424BpHwCameraDeviceCallbackE4_NS0_10IInterfaceE
_ZTCN7android8hardware6camera6device4V3_424BpHwCameraDeviceCallbackE8_NS0_11BpHwRefBaseE
_ZTTN7android8hardware6camera6device4V3_420ICameraDeviceSessionE
_ZTTN7android8hardware6camera6device4V3_421ICameraDeviceCallbackE
_ZTTN7android8hardware6camera6device4V3_423BnHwCameraDeviceSessionE
_ZTTN7android8hardware6camera6device4V3_423BpHwCameraDeviceSessionE
_ZTTN7android8hardware6camera6device4V3_424BnHwCameraDeviceCallbackE
_ZTTN7android8hardware6camera6device4V3_424BpHwCameraDeviceCallbackE
_ZTVN7android8hardware6camera6device4V3_420ICameraDeviceSessionE
_ZTVN7android8hardware6camera6device4V3_421ICameraDeviceCallbackE
_ZTVN7android8hardware6camera6device4V3_423BnHwCameraDeviceSessionE
_ZTVN7android8hardware6camera6device4V3_423BpHwCameraDeviceSessionE
_ZTVN7android8hardware6camera6device4V3_424BnHwCameraDeviceCallbackE
_ZTVN7android8hardware6camera6device4V3_424BpHwCameraDeviceCallbackE
_ZThn20_N7android8hardware6camera6device4V3_423BnHwCameraDeviceSessionD0Ev
_ZThn20_N7android8hardware6camera6device4V3_423BnHwCameraDeviceSessionD1Ev
_ZThn20_N7android8hardware6camera6device4V3_424BnHwCameraDeviceCallbackD0Ev
_ZThn20_N7android8hardware6camera6device4V3_424BnHwCameraDeviceCallbackD1Ev
_ZTv0_n12_N7android8hardware6camera6device4V3_423BnHwCameraDeviceSessionD0Ev
_ZTv0_n12_N7android8hardware6camera6device4V3_423BnHwCameraDeviceSessionD1Ev
_ZTv0_n12_N7android8hardware6camera6device4V3_424BnHwCameraDeviceCallbackD0Ev
_ZTv0_n12_N7android8hardware6camera6device4V3_424BnHwCameraDeviceCallbackD1Ev
