_ZN7android8hardware2vr4V1_03IVr10descriptorE
_ZN7android8hardware2vr4V1_03IVr10getServiceERKNSt3__112basic_stringIcNS4_11char_traitsIcEENS4_9allocatorIcEEEEb
_ZN7android8hardware2vr4V1_03IVr11linkToDeathERKNS_2spINS0_20hidl_death_recipientEEEy
_ZN7android8hardware2vr4V1_03IVr12getDebugInfoENSt3__18functionIFvRKNS_4hidl4base4V1_09DebugInfoEEEE
_ZN7android8hardware2vr4V1_03IVr12getHashChainENSt3__18functionIFvRKNS0_8hidl_vecINS0_10hidl_arrayIhLj32EJEEEEEEEE
_ZN7android8hardware2vr4V1_03IVr13tryGetServiceERKNSt3__112basic_stringIcNS4_11char_traitsIcEENS4_9allocatorIcEEEEb
_ZN7android8hardware2vr4V1_03IVr13unlinkToDeathERKNS_2spINS0_20hidl_death_recipientEEE
_ZN7android8hardware2vr4V1_03IVr14interfaceChainENSt3__18functionIFvRKNS0_8hidl_vecINS0_11hidl_stringEEEEEE
_ZN7android8hardware2vr4V1_03IVr17registerAsServiceERKNSt3__112basic_stringIcNS4_11char_traitsIcEENS4_9allocatorIcEEEE
_ZN7android8hardware2vr4V1_03IVr19interfaceDescriptorENSt3__18functionIFvRKNS0_11hidl_stringEEEE
_ZN7android8hardware2vr4V1_03IVr21notifySyspropsChangedEv
_ZN7android8hardware2vr4V1_03IVr21setHALInstrumentationEv
_ZN7android8hardware2vr4V1_03IVr24registerForNotificationsERKNSt3__112basic_stringIcNS4_11char_traitsIcEENS4_9allocatorIcEEEERKNS_2spINS_4hidl7manager4V1_020IServiceNotificationEEE
_ZN7android8hardware2vr4V1_03IVr4pingEv
_ZN7android8hardware2vr4V1_03IVr5debugERKNS0_11hidl_handleERKNS0_8hidl_vecINS0_11hidl_stringEEE
_ZN7android8hardware2vr4V1_03IVr8castFromERKNS_2spINS_4hidl4base4V1_05IBaseEEEb
_ZN7android8hardware2vr4V1_03IVr8castFromERKNS_2spIS3_EEb
_ZN7android8hardware2vr4V1_04BsVr13addOnewayTaskENSt3__18functionIFvvEEE
_ZN7android8hardware2vr4V1_04BsVrC1ENS_2spINS2_3IVrEEE
_ZN7android8hardware2vr4V1_04BsVrC2ENS_2spINS2_3IVrEEE
_ZN7android8hardware2vr4V1_06BnHwVr10_hidl_initEPNS_4hidl4base4V1_08BnHwBaseERKNS0_6ParcelEPS9_NSt3__18functionIFvRS9_EEE
_ZN7android8hardware2vr4V1_06BnHwVr10onTransactEjRKNS0_6ParcelEPS4_jNSt3__18functionIFvRS4_EEE
_ZN7android8hardware2vr4V1_06BnHwVr12getDebugInfoENSt3__18functionIFvRKNS_4hidl4base4V1_09DebugInfoEEEE
_ZN7android8hardware2vr4V1_06BnHwVr15_hidl_setVrModeEPNS_4hidl4base4V1_08BnHwBaseERKNS0_6ParcelEPS9_NSt3__18functionIFvRS9_EEE
_ZN7android8hardware2vr4V1_06BnHwVr4pingEv
_ZN7android8hardware2vr4V1_06BnHwVrC1ERKNS_2spINS2_3IVrEEE
_ZN7android8hardware2vr4V1_06BnHwVrC2ERKNS_2spINS2_3IVrEEE
_ZN7android8hardware2vr4V1_06BnHwVrD0Ev
_ZN7android8hardware2vr4V1_06BnHwVrD1Ev
_ZN7android8hardware2vr4V1_06BnHwVrD2Ev
_ZN7android8hardware2vr4V1_06BpHwVr10_hidl_initEPNS0_10IInterfaceEPNS0_7details16HidlInstrumentorE
_ZN7android8hardware2vr4V1_06BpHwVr11linkToDeathERKNS_2spINS0_20hidl_death_recipientEEEy
_ZN7android8hardware2vr4V1_06BpHwVr12getDebugInfoENSt3__18functionIFvRKNS_4hidl4base4V1_09DebugInfoEEEE
_ZN7android8hardware2vr4V1_06BpHwVr12getHashChainENSt3__18functionIFvRKNS0_8hidl_vecINS0_10hidl_arrayIhLj32EJEEEEEEEE
_ZN7android8hardware2vr4V1_06BpHwVr13unlinkToDeathERKNS_2spINS0_20hidl_death_recipientEEE
_ZN7android8hardware2vr4V1_06BpHwVr14interfaceChainENSt3__18functionIFvRKNS0_8hidl_vecINS0_11hidl_stringEEEEEE
_ZN7android8hardware2vr4V1_06BpHwVr15_hidl_setVrModeEPNS0_10IInterfaceEPNS0_7details16HidlInstrumentorEb
_ZN7android8hardware2vr4V1_06BpHwVr19interfaceDescriptorENSt3__18functionIFvRKNS0_11hidl_stringEEEE
_ZN7android8hardware2vr4V1_06BpHwVr21notifySyspropsChangedEv
_ZN7android8hardware2vr4V1_06BpHwVr21setHALInstrumentationEv
_ZN7android8hardware2vr4V1_06BpHwVr4initEv
_ZN7android8hardware2vr4V1_06BpHwVr4pingEv
_ZN7android8hardware2vr4V1_06BpHwVr5debugERKNS0_11hidl_handleERKNS0_8hidl_vecINS0_11hidl_stringEEE
_ZN7android8hardware2vr4V1_06BpHwVr9setVrModeEb
_ZN7android8hardware2vr4V1_06BpHwVrC1ERKNS_2spINS0_7IBinderEEE
_ZN7android8hardware2vr4V1_06BpHwVrC2ERKNS_2spINS0_7IBinderEEE
_ZTCN7android8hardware2vr4V1_03IVrE0_NS_4hidl4base4V1_05IBaseE
_ZTCN7android8hardware2vr4V1_06BnHwVrE0_NS0_7IBinderE
_ZTCN7android8hardware2vr4V1_06BnHwVrE0_NS0_9BHwBinderE
_ZTCN7android8hardware2vr4V1_06BnHwVrE0_NS_4hidl4base4V1_08BnHwBaseE
_ZTCN7android8hardware2vr4V1_06BpHwVrE0_NS0_11BpInterfaceINS2_3IVrEEE
_ZTCN7android8hardware2vr4V1_06BpHwVrE0_NS2_3IVrE
_ZTCN7android8hardware2vr4V1_06BpHwVrE0_NS_4hidl4base4V1_05IBaseE
_ZTCN7android8hardware2vr4V1_06BpHwVrE4_NS0_10IInterfaceE
_ZTCN7android8hardware2vr4V1_06BpHwVrE8_NS0_11BpHwRefBaseE
_ZTTN7android8hardware2vr4V1_03IVrE
_ZTTN7android8hardware2vr4V1_06BnHwVrE
_ZTTN7android8hardware2vr4V1_06BpHwVrE
_ZTVN7android8hardware2vr4V1_03IVrE
_ZTVN7android8hardware2vr4V1_06BnHwVrE
_ZTVN7android8hardware2vr4V1_06BpHwVrE
_ZThn20_N7android8hardware2vr4V1_06BnHwVrD0Ev
_ZThn20_N7android8hardware2vr4V1_06BnHwVrD1Ev
_ZTv0_n12_N7android8hardware2vr4V1_06BnHwVrD0Ev
_ZTv0_n12_N7android8hardware2vr4V1_06BnHwVrD1Ev
