_ZN7android8hardware14broadcastradio4V1_014ITunerCallback10descriptorE
_ZN7android8hardware14broadcastradio4V1_014ITunerCallback10getServiceERKNSt3__112basic_stringIcNS4_11char_traitsIcEENS4_9allocatorIcEEEEb
_ZN7android8hardware14broadcastradio4V1_014ITunerCallback11linkToDeathERKNS_2spINS0_20hidl_death_recipientEEEy
_ZN7android8hardware14broadcastradio4V1_014ITunerCallback12getDebugInfoENSt3__18functionIFvRKNS_4hidl4base4V1_09DebugInfoEEEE
_ZN7android8hardware14broadcastradio4V1_014ITunerCallback12getHashChainENSt3__18functionIFvRKNS0_8hidl_vecINS0_10hidl_arrayIhLj32EJEEEEEEEE
_ZN7android8hardware14broadcastradio4V1_014ITunerCallback13tryGetServiceERKNSt3__112basic_stringIcNS4_11char_traitsIcEENS4_9allocatorIcEEEEb
_ZN7android8hardware14broadcastradio4V1_014ITunerCallback13unlinkToDeathERKNS_2spINS0_20hidl_death_recipientEEE
_ZN7android8hardware14broadcastradio4V1_014ITunerCallback14interfaceChainENSt3__18functionIFvRKNS0_8hidl_vecINS0_11hidl_stringEEEEEE
_ZN7android8hardware14broadcastradio4V1_014ITunerCallback17registerAsServiceERKNSt3__112basic_stringIcNS4_11char_traitsIcEENS4_9allocatorIcEEEE
_ZN7android8hardware14broadcastradio4V1_014ITunerCallback19interfaceDescriptorENSt3__18functionIFvRKNS0_11hidl_stringEEEE
_ZN7android8hardware14broadcastradio4V1_014ITunerCallback21notifySyspropsChangedEv
_ZN7android8hardware14broadcastradio4V1_014ITunerCallback21setHALInstrumentationEv
_ZN7android8hardware14broadcastradio4V1_014ITunerCallback24registerForNotificationsERKNSt3__112basic_stringIcNS4_11char_traitsIcEENS4_9allocatorIcEEEERKNS_2spINS_4hidl7manager4V1_020IServiceNotificationEEE
_ZN7android8hardware14broadcastradio4V1_014ITunerCallback4pingEv
_ZN7android8hardware14broadcastradio4V1_014ITunerCallback5debugERKNS0_11hidl_handleERKNS0_8hidl_vecINS0_11hidl_stringEEE
_ZN7android8hardware14broadcastradio4V1_014ITunerCallback8castFromERKNS_2spINS_4hidl4base4V1_05IBaseEEEb
_ZN7android8hardware14broadcastradio4V1_014ITunerCallback8castFromERKNS_2spIS3_EEb
_ZN7android8hardware14broadcastradio4V1_015BsTunerCallback13addOnewayTaskENSt3__18functionIFvvEEE
_ZN7android8hardware14broadcastradio4V1_015BsTunerCallbackC1ENS_2spINS2_14ITunerCallbackEEE
_ZN7android8hardware14broadcastradio4V1_015BsTunerCallbackC2ENS_2spINS2_14ITunerCallbackEEE
_ZN7android8hardware14broadcastradio4V1_015IBroadcastRadio10descriptorE
_ZN7android8hardware14broadcastradio4V1_015IBroadcastRadio10getServiceERKNSt3__112basic_stringIcNS4_11char_traitsIcEENS4_9allocatorIcEEEEb
_ZN7android8hardware14broadcastradio4V1_015IBroadcastRadio11linkToDeathERKNS_2spINS0_20hidl_death_recipientEEEy
_ZN7android8hardware14broadcastradio4V1_015IBroadcastRadio12getDebugInfoENSt3__18functionIFvRKNS_4hidl4base4V1_09DebugInfoEEEE
_ZN7android8hardware14broadcastradio4V1_015IBroadcastRadio12getHashChainENSt3__18functionIFvRKNS0_8hidl_vecINS0_10hidl_arrayIhLj32EJEEEEEEEE
_ZN7android8hardware14broadcastradio4V1_015IBroadcastRadio13tryGetServiceERKNSt3__112basic_stringIcNS4_11char_traitsIcEENS4_9allocatorIcEEEEb
_ZN7android8hardware14broadcastradio4V1_015IBroadcastRadio13unlinkToDeathERKNS_2spINS0_20hidl_death_recipientEEE
_ZN7android8hardware14broadcastradio4V1_015IBroadcastRadio14interfaceChainENSt3__18functionIFvRKNS0_8hidl_vecINS0_11hidl_stringEEEEEE
_ZN7android8hardware14broadcastradio4V1_015IBroadcastRadio17registerAsServiceERKNSt3__112basic_stringIcNS4_11char_traitsIcEENS4_9allocatorIcEEEE
_ZN7android8hardware14broadcastradio4V1_015IBroadcastRadio19interfaceDescriptorENSt3__18functionIFvRKNS0_11hidl_stringEEEE
_ZN7android8hardware14broadcastradio4V1_015IBroadcastRadio21notifySyspropsChangedEv
_ZN7android8hardware14broadcastradio4V1_015IBroadcastRadio21setHALInstrumentationEv
_ZN7android8hardware14broadcastradio4V1_015IBroadcastRadio24registerForNotificationsERKNSt3__112basic_stringIcNS4_11char_traitsIcEENS4_9allocatorIcEEEERKNS_2spINS_4hidl7manager4V1_020IServiceNotificationEEE
_ZN7android8hardware14broadcastradio4V1_015IBroadcastRadio4pingEv
_ZN7android8hardware14broadcastradio4V1_015IBroadcastRadio5debugERKNS0_11hidl_handleERKNS0_8hidl_vecINS0_11hidl_stringEEE
_ZN7android8hardware14broadcastradio4V1_015IBroadcastRadio8castFromERKNS_2spINS_4hidl4base4V1_05IBaseEEEb
_ZN7android8hardware14broadcastradio4V1_015IBroadcastRadio8castFromERKNS_2spIS3_EEb
_ZN7android8hardware14broadcastradio4V1_016BsBroadcastRadio13addOnewayTaskENSt3__18functionIFvvEEE
_ZN7android8hardware14broadcastradio4V1_016BsBroadcastRadioC1ENS_2spINS2_15IBroadcastRadioEEE
_ZN7android8hardware14broadcastradio4V1_016BsBroadcastRadioC2ENS_2spINS2_15IBroadcastRadioEEE
_ZN7android8hardware14broadcastradio4V1_017BnHwTunerCallback10onTransactEjRKNS0_6ParcelEPS4_jNSt3__18functionIFvRS4_EEE
_ZN7android8hardware14broadcastradio4V1_017BnHwTunerCallback12getDebugInfoENSt3__18functionIFvRKNS_4hidl4base4V1_09DebugInfoEEEE
_ZN7android8hardware14broadcastradio4V1_017BnHwTunerCallback14_hidl_afSwitchEPNS_4hidl4base4V1_08BnHwBaseERKNS0_6ParcelEPS9_NSt3__18functionIFvRS9_EEE
_ZN7android8hardware14broadcastradio4V1_017BnHwTunerCallback17_hidl_newMetadataEPNS_4hidl4base4V1_08BnHwBaseERKNS0_6ParcelEPS9_NSt3__18functionIFvRS9_EEE
_ZN7android8hardware14broadcastradio4V1_017BnHwTunerCallback18_hidl_configChangeEPNS_4hidl4base4V1_08BnHwBaseERKNS0_6ParcelEPS9_NSt3__18functionIFvRS9_EEE
_ZN7android8hardware14broadcastradio4V1_017BnHwTunerCallback18_hidl_tuneCompleteEPNS_4hidl4base4V1_08BnHwBaseERKNS0_6ParcelEPS9_NSt3__18functionIFvRS9_EEE
_ZN7android8hardware14broadcastradio4V1_017BnHwTunerCallback21_hidl_hardwareFailureEPNS_4hidl4base4V1_08BnHwBaseERKNS0_6ParcelEPS9_NSt3__18functionIFvRS9_EEE
_ZN7android8hardware14broadcastradio4V1_017BnHwTunerCallback24_hidl_antennaStateChangeEPNS_4hidl4base4V1_08BnHwBaseERKNS0_6ParcelEPS9_NSt3__18functionIFvRS9_EEE
_ZN7android8hardware14broadcastradio4V1_017BnHwTunerCallback25_hidl_trafficAnnouncementEPNS_4hidl4base4V1_08BnHwBaseERKNS0_6ParcelEPS9_NSt3__18functionIFvRS9_EEE
_ZN7android8hardware14broadcastradio4V1_017BnHwTunerCallback27_hidl_emergencyAnnouncementEPNS_4hidl4base4V1_08BnHwBaseERKNS0_6ParcelEPS9_NSt3__18functionIFvRS9_EEE
_ZN7android8hardware14broadcastradio4V1_017BnHwTunerCallback4pingEv
_ZN7android8hardware14broadcastradio4V1_017BnHwTunerCallbackC1ERKNS_2spINS2_14ITunerCallbackEEE
_ZN7android8hardware14broadcastradio4V1_017BnHwTunerCallbackC2ERKNS_2spINS2_14ITunerCallbackEEE
_ZN7android8hardware14broadcastradio4V1_017BnHwTunerCallbackD0Ev
_ZN7android8hardware14broadcastradio4V1_017BnHwTunerCallbackD1Ev
_ZN7android8hardware14broadcastradio4V1_017BnHwTunerCallbackD2Ev
_ZN7android8hardware14broadcastradio4V1_017BpHwTunerCallback11linkToDeathERKNS_2spINS0_20hidl_death_recipientEEEy
_ZN7android8hardware14broadcastradio4V1_017BpHwTunerCallback11newMetadataEjjRKNS0_8hidl_vecINS2_8MetaDataEEE
_ZN7android8hardware14broadcastradio4V1_017BpHwTunerCallback12configChangeENS2_6ResultERKNS2_10BandConfigE
_ZN7android8hardware14broadcastradio4V1_017BpHwTunerCallback12getDebugInfoENSt3__18functionIFvRKNS_4hidl4base4V1_09DebugInfoEEEE
_ZN7android8hardware14broadcastradio4V1_017BpHwTunerCallback12getHashChainENSt3__18functionIFvRKNS0_8hidl_vecINS0_10hidl_arrayIhLj32EJEEEEEEEE
_ZN7android8hardware14broadcastradio4V1_017BpHwTunerCallback12tuneCompleteENS2_6ResultERKNS2_11ProgramInfoE
_ZN7android8hardware14broadcastradio4V1_017BpHwTunerCallback13unlinkToDeathERKNS_2spINS0_20hidl_death_recipientEEE
_ZN7android8hardware14broadcastradio4V1_017BpHwTunerCallback14_hidl_afSwitchEPNS0_10IInterfaceEPNS0_7details16HidlInstrumentorERKNS2_11ProgramInfoE
_ZN7android8hardware14broadcastradio4V1_017BpHwTunerCallback14interfaceChainENSt3__18functionIFvRKNS0_8hidl_vecINS0_11hidl_stringEEEEEE
_ZN7android8hardware14broadcastradio4V1_017BpHwTunerCallback15hardwareFailureEv
_ZN7android8hardware14broadcastradio4V1_017BpHwTunerCallback17_hidl_newMetadataEPNS0_10IInterfaceEPNS0_7details16HidlInstrumentorEjjRKNS0_8hidl_vecINS2_8MetaDataEEE
_ZN7android8hardware14broadcastradio4V1_017BpHwTunerCallback18_hidl_configChangeEPNS0_10IInterfaceEPNS0_7details16HidlInstrumentorENS2_6ResultERKNS2_10BandConfigE
_ZN7android8hardware14broadcastradio4V1_017BpHwTunerCallback18_hidl_tuneCompleteEPNS0_10IInterfaceEPNS0_7details16HidlInstrumentorENS2_6ResultERKNS2_11ProgramInfoE
_ZN7android8hardware14broadcastradio4V1_017BpHwTunerCallback18antennaStateChangeEb
_ZN7android8hardware14broadcastradio4V1_017BpHwTunerCallback19interfaceDescriptorENSt3__18functionIFvRKNS0_11hidl_stringEEEE
_ZN7android8hardware14broadcastradio4V1_017BpHwTunerCallback19trafficAnnouncementEb
_ZN7android8hardware14broadcastradio4V1_017BpHwTunerCallback21_hidl_hardwareFailureEPNS0_10IInterfaceEPNS0_7details16HidlInstrumentorE
_ZN7android8hardware14broadcastradio4V1_017BpHwTunerCallback21emergencyAnnouncementEb
_ZN7android8hardware14broadcastradio4V1_017BpHwTunerCallback21notifySyspropsChangedEv
_ZN7android8hardware14broadcastradio4V1_017BpHwTunerCallback21setHALInstrumentationEv
_ZN7android8hardware14broadcastradio4V1_017BpHwTunerCallback24_hidl_antennaStateChangeEPNS0_10IInterfaceEPNS0_7details16HidlInstrumentorEb
_ZN7android8hardware14broadcastradio4V1_017BpHwTunerCallback25_hidl_trafficAnnouncementEPNS0_10IInterfaceEPNS0_7details16HidlInstrumentorEb
_ZN7android8hardware14broadcastradio4V1_017BpHwTunerCallback27_hidl_emergencyAnnouncementEPNS0_10IInterfaceEPNS0_7details16HidlInstrumentorEb
_ZN7android8hardware14broadcastradio4V1_017BpHwTunerCallback4pingEv
_ZN7android8hardware14broadcastradio4V1_017BpHwTunerCallback5debugERKNS0_11hidl_handleERKNS0_8hidl_vecINS0_11hidl_stringEEE
_ZN7android8hardware14broadcastradio4V1_017BpHwTunerCallback8afSwitchERKNS2_11ProgramInfoE
_ZN7android8hardware14broadcastradio4V1_017BpHwTunerCallbackC1ERKNS_2spINS0_7IBinderEEE
_ZN7android8hardware14broadcastradio4V1_017BpHwTunerCallbackC2ERKNS_2spINS0_7IBinderEEE
_ZN7android8hardware14broadcastradio4V1_018BnHwBroadcastRadio10onTransactEjRKNS0_6ParcelEPS4_jNSt3__18functionIFvRS4_EEE
_ZN7android8hardware14broadcastradio4V1_018BnHwBroadcastRadio12getDebugInfoENSt3__18functionIFvRKNS_4hidl4base4V1_09DebugInfoEEEE
_ZN7android8hardware14broadcastradio4V1_018BnHwBroadcastRadio15_hidl_openTunerEPNS_4hidl4base4V1_08BnHwBaseERKNS0_6ParcelEPS9_NSt3__18functionIFvRS9_EEE
_ZN7android8hardware14broadcastradio4V1_018BnHwBroadcastRadio19_hidl_getPropertiesEPNS_4hidl4base4V1_08BnHwBaseERKNS0_6ParcelEPS9_NSt3__18functionIFvRS9_EEE
_ZN7android8hardware14broadcastradio4V1_018BnHwBroadcastRadio4pingEv
_ZN7android8hardware14broadcastradio4V1_018BnHwBroadcastRadioC1ERKNS_2spINS2_15IBroadcastRadioEEE
_ZN7android8hardware14broadcastradio4V1_018BnHwBroadcastRadioC2ERKNS_2spINS2_15IBroadcastRadioEEE
_ZN7android8hardware14broadcastradio4V1_018BnHwBroadcastRadioD0Ev
_ZN7android8hardware14broadcastradio4V1_018BnHwBroadcastRadioD1Ev
_ZN7android8hardware14broadcastradio4V1_018BnHwBroadcastRadioD2Ev
_ZN7android8hardware14broadcastradio4V1_018BpHwBroadcastRadio11linkToDeathERKNS_2spINS0_20hidl_death_recipientEEEy
_ZN7android8hardware14broadcastradio4V1_018BpHwBroadcastRadio12getDebugInfoENSt3__18functionIFvRKNS_4hidl4base4V1_09DebugInfoEEEE
_ZN7android8hardware14broadcastradio4V1_018BpHwBroadcastRadio12getHashChainENSt3__18functionIFvRKNS0_8hidl_vecINS0_10hidl_arrayIhLj32EJEEEEEEEE
_ZN7android8hardware14broadcastradio4V1_018BpHwBroadcastRadio13getPropertiesENSt3__18functionIFvNS2_6ResultERKNS2_10PropertiesEEEE
_ZN7android8hardware14broadcastradio4V1_018BpHwBroadcastRadio13unlinkToDeathERKNS_2spINS0_20hidl_death_recipientEEE
_ZN7android8hardware14broadcastradio4V1_018BpHwBroadcastRadio14interfaceChainENSt3__18functionIFvRKNS0_8hidl_vecINS0_11hidl_stringEEEEEE
_ZN7android8hardware14broadcastradio4V1_018BpHwBroadcastRadio15_hidl_openTunerEPNS0_10IInterfaceEPNS0_7details16HidlInstrumentorERKNS2_10BandConfigEbRKNS_2spINS2_14ITunerCallbackEEENSt3__18functionIFvNS2_6ResultERKNSC_INS2_6ITunerEEEEEE
_ZN7android8hardware14broadcastradio4V1_018BpHwBroadcastRadio19_hidl_getPropertiesEPNS0_10IInterfaceEPNS0_7details16HidlInstrumentorENSt3__18functionIFvNS2_6ResultERKNS2_10PropertiesEEEE
_ZN7android8hardware14broadcastradio4V1_018BpHwBroadcastRadio19interfaceDescriptorENSt3__18functionIFvRKNS0_11hidl_stringEEEE
_ZN7android8hardware14broadcastradio4V1_018BpHwBroadcastRadio21notifySyspropsChangedEv
_ZN7android8hardware14broadcastradio4V1_018BpHwBroadcastRadio21setHALInstrumentationEv
_ZN7android8hardware14broadcastradio4V1_018BpHwBroadcastRadio4pingEv
_ZN7android8hardware14broadcastradio4V1_018BpHwBroadcastRadio5debugERKNS0_11hidl_handleERKNS0_8hidl_vecINS0_11hidl_stringEEE
_ZN7android8hardware14broadcastradio4V1_018BpHwBroadcastRadio9openTunerERKNS2_10BandConfigEbRKNS_2spINS2_14ITunerCallbackEEENSt3__18functionIFvNS2_6ResultERKNS7_INS2_6ITunerEEEEEE
_ZN7android8hardware14broadcastradio4V1_018BpHwBroadcastRadioC1ERKNS_2spINS0_7IBinderEEE
_ZN7android8hardware14broadcastradio4V1_018BpHwBroadcastRadioC2ERKNS_2spINS0_7IBinderEEE
_ZN7android8hardware14broadcastradio4V1_021writeEmbeddedToParcelERKNS2_10BandConfigEPNS0_6ParcelEjj
_ZN7android8hardware14broadcastradio4V1_021writeEmbeddedToParcelERKNS2_10PropertiesEPNS0_6ParcelEjj
_ZN7android8hardware14broadcastradio4V1_021writeEmbeddedToParcelERKNS2_11ProgramInfoEPNS0_6ParcelEjj
_ZN7android8hardware14broadcastradio4V1_021writeEmbeddedToParcelERKNS2_8MetaDataEPNS0_6ParcelEjj
_ZN7android8hardware14broadcastradio4V1_022IBroadcastRadioFactory10descriptorE
_ZN7android8hardware14broadcastradio4V1_022IBroadcastRadioFactory10getServiceERKNSt3__112basic_stringIcNS4_11char_traitsIcEENS4_9allocatorIcEEEEb
_ZN7android8hardware14broadcastradio4V1_022IBroadcastRadioFactory11linkToDeathERKNS_2spINS0_20hidl_death_recipientEEEy
_ZN7android8hardware14broadcastradio4V1_022IBroadcastRadioFactory12getDebugInfoENSt3__18functionIFvRKNS_4hidl4base4V1_09DebugInfoEEEE
_ZN7android8hardware14broadcastradio4V1_022IBroadcastRadioFactory12getHashChainENSt3__18functionIFvRKNS0_8hidl_vecINS0_10hidl_arrayIhLj32EJEEEEEEEE
_ZN7android8hardware14broadcastradio4V1_022IBroadcastRadioFactory13tryGetServiceERKNSt3__112basic_stringIcNS4_11char_traitsIcEENS4_9allocatorIcEEEEb
_ZN7android8hardware14broadcastradio4V1_022IBroadcastRadioFactory13unlinkToDeathERKNS_2spINS0_20hidl_death_recipientEEE
_ZN7android8hardware14broadcastradio4V1_022IBroadcastRadioFactory14interfaceChainENSt3__18functionIFvRKNS0_8hidl_vecINS0_11hidl_stringEEEEEE
_ZN7android8hardware14broadcastradio4V1_022IBroadcastRadioFactory17registerAsServiceERKNSt3__112basic_stringIcNS4_11char_traitsIcEENS4_9allocatorIcEEEE
_ZN7android8hardware14broadcastradio4V1_022IBroadcastRadioFactory19interfaceDescriptorENSt3__18functionIFvRKNS0_11hidl_stringEEEE
_ZN7android8hardware14broadcastradio4V1_022IBroadcastRadioFactory21notifySyspropsChangedEv
_ZN7android8hardware14broadcastradio4V1_022IBroadcastRadioFactory21setHALInstrumentationEv
_ZN7android8hardware14broadcastradio4V1_022IBroadcastRadioFactory24registerForNotificationsERKNSt3__112basic_stringIcNS4_11char_traitsIcEENS4_9allocatorIcEEEERKNS_2spINS_4hidl7manager4V1_020IServiceNotificationEEE
_ZN7android8hardware14broadcastradio4V1_022IBroadcastRadioFactory4pingEv
_ZN7android8hardware14broadcastradio4V1_022IBroadcastRadioFactory5debugERKNS0_11hidl_handleERKNS0_8hidl_vecINS0_11hidl_stringEEE
_ZN7android8hardware14broadcastradio4V1_022IBroadcastRadioFactory8castFromERKNS_2spINS_4hidl4base4V1_05IBaseEEEb
_ZN7android8hardware14broadcastradio4V1_022IBroadcastRadioFactory8castFromERKNS_2spIS3_EEb
_ZN7android8hardware14broadcastradio4V1_022readEmbeddedFromParcelERKNS2_10BandConfigERKNS0_6ParcelEjj
_ZN7android8hardware14broadcastradio4V1_022readEmbeddedFromParcelERKNS2_10PropertiesERKNS0_6ParcelEjj
_ZN7android8hardware14broadcastradio4V1_022readEmbeddedFromParcelERKNS2_11ProgramInfoERKNS0_6ParcelEjj
_ZN7android8hardware14broadcastradio4V1_022readEmbeddedFromParcelERKNS2_8MetaDataERKNS0_6ParcelEjj
_ZN7android8hardware14broadcastradio4V1_023BsBroadcastRadioFactory13addOnewayTaskENSt3__18functionIFvvEEE
_ZN7android8hardware14broadcastradio4V1_023BsBroadcastRadioFactoryC1ENS_2spINS2_22IBroadcastRadioFactoryEEE
_ZN7android8hardware14broadcastradio4V1_023BsBroadcastRadioFactoryC2ENS_2spINS2_22IBroadcastRadioFactoryEEE
_ZN7android8hardware14broadcastradio4V1_025BnHwBroadcastRadioFactory10onTransactEjRKNS0_6ParcelEPS4_jNSt3__18functionIFvRS4_EEE
_ZN7android8hardware14broadcastradio4V1_025BnHwBroadcastRadioFactory12getDebugInfoENSt3__18functionIFvRKNS_4hidl4base4V1_09DebugInfoEEEE
_ZN7android8hardware14broadcastradio4V1_025BnHwBroadcastRadioFactory19_hidl_connectModuleEPNS_4hidl4base4V1_08BnHwBaseERKNS0_6ParcelEPS9_NSt3__18functionIFvRS9_EEE
_ZN7android8hardware14broadcastradio4V1_025BnHwBroadcastRadioFactory4pingEv
_ZN7android8hardware14broadcastradio4V1_025BnHwBroadcastRadioFactoryC1ERKNS_2spINS2_22IBroadcastRadioFactoryEEE
_ZN7android8hardware14broadcastradio4V1_025BnHwBroadcastRadioFactoryC2ERKNS_2spINS2_22IBroadcastRadioFactoryEEE
_ZN7android8hardware14broadcastradio4V1_025BnHwBroadcastRadioFactoryD0Ev
_ZN7android8hardware14broadcastradio4V1_025BnHwBroadcastRadioFactoryD1Ev
_ZN7android8hardware14broadcastradio4V1_025BnHwBroadcastRadioFactoryD2Ev
_ZN7android8hardware14broadcastradio4V1_025BpHwBroadcastRadioFactory11linkToDeathERKNS_2spINS0_20hidl_death_recipientEEEy
_ZN7android8hardware14broadcastradio4V1_025BpHwBroadcastRadioFactory12getDebugInfoENSt3__18functionIFvRKNS_4hidl4base4V1_09DebugInfoEEEE
_ZN7android8hardware14broadcastradio4V1_025BpHwBroadcastRadioFactory12getHashChainENSt3__18functionIFvRKNS0_8hidl_vecINS0_10hidl_arrayIhLj32EJEEEEEEEE
_ZN7android8hardware14broadcastradio4V1_025BpHwBroadcastRadioFactory13connectModuleENS2_5ClassENSt3__18functionIFvNS2_6ResultERKNS_2spINS2_15IBroadcastRadioEEEEEE
_ZN7android8hardware14broadcastradio4V1_025BpHwBroadcastRadioFactory13unlinkToDeathERKNS_2spINS0_20hidl_death_recipientEEE
_ZN7android8hardware14broadcastradio4V1_025BpHwBroadcastRadioFactory14interfaceChainENSt3__18functionIFvRKNS0_8hidl_vecINS0_11hidl_stringEEEEEE
_ZN7android8hardware14broadcastradio4V1_025BpHwBroadcastRadioFactory19_hidl_connectModuleEPNS0_10IInterfaceEPNS0_7details16HidlInstrumentorENS2_5ClassENSt3__18functionIFvNS2_6ResultERKNS_2spINS2_15IBroadcastRadioEEEEEE
_ZN7android8hardware14broadcastradio4V1_025BpHwBroadcastRadioFactory19interfaceDescriptorENSt3__18functionIFvRKNS0_11hidl_stringEEEE
_ZN7android8hardware14broadcastradio4V1_025BpHwBroadcastRadioFactory21notifySyspropsChangedEv
_ZN7android8hardware14broadcastradio4V1_025BpHwBroadcastRadioFactory21setHALInstrumentationEv
_ZN7android8hardware14broadcastradio4V1_025BpHwBroadcastRadioFactory4pingEv
_ZN7android8hardware14broadcastradio4V1_025BpHwBroadcastRadioFactory5debugERKNS0_11hidl_handleERKNS0_8hidl_vecINS0_11hidl_stringEEE
_ZN7android8hardware14broadcastradio4V1_025BpHwBroadcastRadioFactoryC1ERKNS_2spINS0_7IBinderEEE
_ZN7android8hardware14broadcastradio4V1_025BpHwBroadcastRadioFactoryC2ERKNS_2spINS0_7IBinderEEE
_ZN7android8hardware14broadcastradio4V1_06ITuner10descriptorE
_ZN7android8hardware14broadcastradio4V1_06ITuner10getServiceERKNSt3__112basic_stringIcNS4_11char_traitsIcEENS4_9allocatorIcEEEEb
_ZN7android8hardware14broadcastradio4V1_06ITuner11linkToDeathERKNS_2spINS0_20hidl_death_recipientEEEy
_ZN7android8hardware14broadcastradio4V1_06ITuner12getDebugInfoENSt3__18functionIFvRKNS_4hidl4base4V1_09DebugInfoEEEE
_ZN7android8hardware14broadcastradio4V1_06ITuner12getHashChainENSt3__18functionIFvRKNS0_8hidl_vecINS0_10hidl_arrayIhLj32EJEEEEEEEE
_ZN7android8hardware14broadcastradio4V1_06ITuner13tryGetServiceERKNSt3__112basic_stringIcNS4_11char_traitsIcEENS4_9allocatorIcEEEEb
_ZN7android8hardware14broadcastradio4V1_06ITuner13unlinkToDeathERKNS_2spINS0_20hidl_death_recipientEEE
_ZN7android8hardware14broadcastradio4V1_06ITuner14interfaceChainENSt3__18functionIFvRKNS0_8hidl_vecINS0_11hidl_stringEEEEEE
_ZN7android8hardware14broadcastradio4V1_06ITuner17registerAsServiceERKNSt3__112basic_stringIcNS4_11char_traitsIcEENS4_9allocatorIcEEEE
_ZN7android8hardware14broadcastradio4V1_06ITuner19interfaceDescriptorENSt3__18functionIFvRKNS0_11hidl_stringEEEE
_ZN7android8hardware14broadcastradio4V1_06ITuner21notifySyspropsChangedEv
_ZN7android8hardware14broadcastradio4V1_06ITuner21setHALInstrumentationEv
_ZN7android8hardware14broadcastradio4V1_06ITuner24registerForNotificationsERKNSt3__112basic_stringIcNS4_11char_traitsIcEENS4_9allocatorIcEEEERKNS_2spINS_4hidl7manager4V1_020IServiceNotificationEEE
_ZN7android8hardware14broadcastradio4V1_06ITuner4pingEv
_ZN7android8hardware14broadcastradio4V1_06ITuner5debugERKNS0_11hidl_handleERKNS0_8hidl_vecINS0_11hidl_stringEEE
_ZN7android8hardware14broadcastradio4V1_06ITuner8castFromERKNS_2spINS_4hidl4base4V1_05IBaseEEEb
_ZN7android8hardware14broadcastradio4V1_06ITuner8castFromERKNS_2spIS3_EEb
_ZN7android8hardware14broadcastradio4V1_07BsTuner13addOnewayTaskENSt3__18functionIFvvEEE
_ZN7android8hardware14broadcastradio4V1_07BsTunerC1ENS_2spINS2_6ITunerEEE
_ZN7android8hardware14broadcastradio4V1_07BsTunerC2ENS_2spINS2_6ITunerEEE
_ZN7android8hardware14broadcastradio4V1_09BnHwTuner10_hidl_scanEPNS_4hidl4base4V1_08BnHwBaseERKNS0_6ParcelEPS9_NSt3__18functionIFvRS9_EEE
_ZN7android8hardware14broadcastradio4V1_09BnHwTuner10_hidl_stepEPNS_4hidl4base4V1_08BnHwBaseERKNS0_6ParcelEPS9_NSt3__18functionIFvRS9_EEE
_ZN7android8hardware14broadcastradio4V1_09BnHwTuner10_hidl_tuneEPNS_4hidl4base4V1_08BnHwBaseERKNS0_6ParcelEPS9_NSt3__18functionIFvRS9_EEE
_ZN7android8hardware14broadcastradio4V1_09BnHwTuner10onTransactEjRKNS0_6ParcelEPS4_jNSt3__18functionIFvRS4_EEE
_ZN7android8hardware14broadcastradio4V1_09BnHwTuner12_hidl_cancelEPNS_4hidl4base4V1_08BnHwBaseERKNS0_6ParcelEPS9_NSt3__18functionIFvRS9_EEE
_ZN7android8hardware14broadcastradio4V1_09BnHwTuner12getDebugInfoENSt3__18functionIFvRKNS_4hidl4base4V1_09DebugInfoEEEE
_ZN7android8hardware14broadcastradio4V1_09BnHwTuner22_hidl_getConfigurationEPNS_4hidl4base4V1_08BnHwBaseERKNS0_6ParcelEPS9_NSt3__18functionIFvRS9_EEE
_ZN7android8hardware14broadcastradio4V1_09BnHwTuner22_hidl_setConfigurationEPNS_4hidl4base4V1_08BnHwBaseERKNS0_6ParcelEPS9_NSt3__18functionIFvRS9_EEE
_ZN7android8hardware14broadcastradio4V1_09BnHwTuner27_hidl_getProgramInformationEPNS_4hidl4base4V1_08BnHwBaseERKNS0_6ParcelEPS9_NSt3__18functionIFvRS9_EEE
_ZN7android8hardware14broadcastradio4V1_09BnHwTuner4pingEv
_ZN7android8hardware14broadcastradio4V1_09BnHwTunerC1ERKNS_2spINS2_6ITunerEEE
_ZN7android8hardware14broadcastradio4V1_09BnHwTunerC2ERKNS_2spINS2_6ITunerEEE
_ZN7android8hardware14broadcastradio4V1_09BnHwTunerD0Ev
_ZN7android8hardware14broadcastradio4V1_09BnHwTunerD1Ev
_ZN7android8hardware14broadcastradio4V1_09BnHwTunerD2Ev
_ZN7android8hardware14broadcastradio4V1_09BpHwTuner10_hidl_scanEPNS0_10IInterfaceEPNS0_7details16HidlInstrumentorENS2_9DirectionEb
_ZN7android8hardware14broadcastradio4V1_09BpHwTuner10_hidl_stepEPNS0_10IInterfaceEPNS0_7details16HidlInstrumentorENS2_9DirectionEb
_ZN7android8hardware14broadcastradio4V1_09BpHwTuner10_hidl_tuneEPNS0_10IInterfaceEPNS0_7details16HidlInstrumentorEjj
_ZN7android8hardware14broadcastradio4V1_09BpHwTuner11linkToDeathERKNS_2spINS0_20hidl_death_recipientEEEy
_ZN7android8hardware14broadcastradio4V1_09BpHwTuner12_hidl_cancelEPNS0_10IInterfaceEPNS0_7details16HidlInstrumentorE
_ZN7android8hardware14broadcastradio4V1_09BpHwTuner12getDebugInfoENSt3__18functionIFvRKNS_4hidl4base4V1_09DebugInfoEEEE
_ZN7android8hardware14broadcastradio4V1_09BpHwTuner12getHashChainENSt3__18functionIFvRKNS0_8hidl_vecINS0_10hidl_arrayIhLj32EJEEEEEEEE
_ZN7android8hardware14broadcastradio4V1_09BpHwTuner13unlinkToDeathERKNS_2spINS0_20hidl_death_recipientEEE
_ZN7android8hardware14broadcastradio4V1_09BpHwTuner14interfaceChainENSt3__18functionIFvRKNS0_8hidl_vecINS0_11hidl_stringEEEEEE
_ZN7android8hardware14broadcastradio4V1_09BpHwTuner16getConfigurationENSt3__18functionIFvNS2_6ResultERKNS2_10BandConfigEEEE
_ZN7android8hardware14broadcastradio4V1_09BpHwTuner16setConfigurationERKNS2_10BandConfigE
_ZN7android8hardware14broadcastradio4V1_09BpHwTuner19interfaceDescriptorENSt3__18functionIFvRKNS0_11hidl_stringEEEE
_ZN7android8hardware14broadcastradio4V1_09BpHwTuner21getProgramInformationENSt3__18functionIFvNS2_6ResultERKNS2_11ProgramInfoEEEE
_ZN7android8hardware14broadcastradio4V1_09BpHwTuner21notifySyspropsChangedEv
_ZN7android8hardware14broadcastradio4V1_09BpHwTuner21setHALInstrumentationEv
_ZN7android8hardware14broadcastradio4V1_09BpHwTuner22_hidl_getConfigurationEPNS0_10IInterfaceEPNS0_7details16HidlInstrumentorENSt3__18functionIFvNS2_6ResultERKNS2_10BandConfigEEEE
_ZN7android8hardware14broadcastradio4V1_09BpHwTuner22_hidl_setConfigurationEPNS0_10IInterfaceEPNS0_7details16HidlInstrumentorERKNS2_10BandConfigE
_ZN7android8hardware14broadcastradio4V1_09BpHwTuner27_hidl_getProgramInformationEPNS0_10IInterfaceEPNS0_7details16HidlInstrumentorENSt3__18functionIFvNS2_6ResultERKNS2_11ProgramInfoEEEE
_ZN7android8hardware14broadcastradio4V1_09BpHwTuner4pingEv
_ZN7android8hardware14broadcastradio4V1_09BpHwTuner4scanENS2_9DirectionEb
_ZN7android8hardware14broadcastradio4V1_09BpHwTuner4stepENS2_9DirectionEb
_ZN7android8hardware14broadcastradio4V1_09BpHwTuner4tuneEjj
_ZN7android8hardware14broadcastradio4V1_09BpHwTuner5debugERKNS0_11hidl_handleERKNS0_8hidl_vecINS0_11hidl_stringEEE
_ZN7android8hardware14broadcastradio4V1_09BpHwTuner6cancelEv
_ZN7android8hardware14broadcastradio4V1_09BpHwTunerC1ERKNS_2spINS0_7IBinderEEE
_ZN7android8hardware14broadcastradio4V1_09BpHwTunerC2ERKNS_2spINS0_7IBinderEEE
_ZTCN7android8hardware14broadcastradio4V1_014ITunerCallbackE0_NS_4hidl4base4V1_05IBaseE
_ZTCN7android8hardware14broadcastradio4V1_015IBroadcastRadioE0_NS_4hidl4base4V1_05IBaseE
_ZTCN7android8hardware14broadcastradio4V1_017BnHwTunerCallbackE0_NS0_7IBinderE
_ZTCN7android8hardware14broadcastradio4V1_017BnHwTunerCallbackE0_NS0_9BHwBinderE
_ZTCN7android8hardware14broadcastradio4V1_017BnHwTunerCallbackE0_NS_4hidl4base4V1_08BnHwBaseE
_ZTCN7android8hardware14broadcastradio4V1_017BpHwTunerCallbackE0_NS0_11BpInterfaceINS2_14ITunerCallbackEEE
_ZTCN7android8hardware14broadcastradio4V1_017BpHwTunerCallbackE0_NS2_14ITunerCallbackE
_ZTCN7android8hardware14broadcastradio4V1_017BpHwTunerCallbackE0_NS_4hidl4base4V1_05IBaseE
_ZTCN7android8hardware14broadcastradio4V1_017BpHwTunerCallbackE4_NS0_10IInterfaceE
_ZTCN7android8hardware14broadcastradio4V1_017BpHwTunerCallbackE8_NS0_11BpHwRefBaseE
_ZTCN7android8hardware14broadcastradio4V1_018BnHwBroadcastRadioE0_NS0_7IBinderE
_ZTCN7android8hardware14broadcastradio4V1_018BnHwBroadcastRadioE0_NS0_9BHwBinderE
_ZTCN7android8hardware14broadcastradio4V1_018BnHwBroadcastRadioE0_NS_4hidl4base4V1_08BnHwBaseE
_ZTCN7android8hardware14broadcastradio4V1_018BpHwBroadcastRadioE0_NS0_11BpInterfaceINS2_15IBroadcastRadioEEE
_ZTCN7android8hardware14broadcastradio4V1_018BpHwBroadcastRadioE0_NS2_15IBroadcastRadioE
_ZTCN7android8hardware14broadcastradio4V1_018BpHwBroadcastRadioE0_NS_4hidl4base4V1_05IBaseE
_ZTCN7android8hardware14broadcastradio4V1_018BpHwBroadcastRadioE4_NS0_10IInterfaceE
_ZTCN7android8hardware14broadcastradio4V1_018BpHwBroadcastRadioE8_NS0_11BpHwRefBaseE
_ZTCN7android8hardware14broadcastradio4V1_022IBroadcastRadioFactoryE0_NS_4hidl4base4V1_05IBaseE
_ZTCN7android8hardware14broadcastradio4V1_025BnHwBroadcastRadioFactoryE0_NS0_7IBinderE
_ZTCN7android8hardware14broadcastradio4V1_025BnHwBroadcastRadioFactoryE0_NS0_9BHwBinderE
_ZTCN7android8hardware14broadcastradio4V1_025BnHwBroadcastRadioFactoryE0_NS_4hidl4base4V1_08BnHwBaseE
_ZTCN7android8hardware14broadcastradio4V1_025BpHwBroadcastRadioFactoryE0_NS0_11BpInterfaceINS2_22IBroadcastRadioFactoryEEE
_ZTCN7android8hardware14broadcastradio4V1_025BpHwBroadcastRadioFactoryE0_NS2_22IBroadcastRadioFactoryE
_ZTCN7android8hardware14broadcastradio4V1_025BpHwBroadcastRadioFactoryE0_NS_4hidl4base4V1_05IBaseE
_ZTCN7android8hardware14broadcastradio4V1_025BpHwBroadcastRadioFactoryE4_NS0_10IInterfaceE
_ZTCN7android8hardware14broadcastradio4V1_025BpHwBroadcastRadioFactoryE8_NS0_11BpHwRefBaseE
_ZTCN7android8hardware14broadcastradio4V1_06ITunerE0_NS_4hidl4base4V1_05IBaseE
_ZTCN7android8hardware14broadcastradio4V1_09BnHwTunerE0_NS0_7IBinderE
_ZTCN7android8hardware14broadcastradio4V1_09BnHwTunerE0_NS0_9BHwBinderE
_ZTCN7android8hardware14broadcastradio4V1_09BnHwTunerE0_NS_4hidl4base4V1_08BnHwBaseE
_ZTCN7android8hardware14broadcastradio4V1_09BpHwTunerE0_NS0_11BpInterfaceINS2_6ITunerEEE
_ZTCN7android8hardware14broadcastradio4V1_09BpHwTunerE0_NS2_6ITunerE
_ZTCN7android8hardware14broadcastradio4V1_09BpHwTunerE0_NS_4hidl4base4V1_05IBaseE
_ZTCN7android8hardware14broadcastradio4V1_09BpHwTunerE4_NS0_10IInterfaceE
_ZTCN7android8hardware14broadcastradio4V1_09BpHwTunerE8_NS0_11BpHwRefBaseE
_ZTTN7android8hardware14broadcastradio4V1_014ITunerCallbackE
_ZTTN7android8hardware14broadcastradio4V1_015IBroadcastRadioE
_ZTTN7android8hardware14broadcastradio4V1_017BnHwTunerCallbackE
_ZTTN7android8hardware14broadcastradio4V1_017BpHwTunerCallbackE
_ZTTN7android8hardware14broadcastradio4V1_018BnHwBroadcastRadioE
_ZTTN7android8hardware14broadcastradio4V1_018BpHwBroadcastRadioE
_ZTTN7android8hardware14broadcastradio4V1_022IBroadcastRadioFactoryE
_ZTTN7android8hardware14broadcastradio4V1_025BnHwBroadcastRadioFactoryE
_ZTTN7android8hardware14broadcastradio4V1_025BpHwBroadcastRadioFactoryE
_ZTTN7android8hardware14broadcastradio4V1_06ITunerE
_ZTTN7android8hardware14broadcastradio4V1_09BnHwTunerE
_ZTTN7android8hardware14broadcastradio4V1_09BpHwTunerE
_ZTVN7android8hardware14broadcastradio4V1_014ITunerCallbackE
_ZTVN7android8hardware14broadcastradio4V1_015IBroadcastRadioE
_ZTVN7android8hardware14broadcastradio4V1_017BnHwTunerCallbackE
_ZTVN7android8hardware14broadcastradio4V1_017BpHwTunerCallbackE
_ZTVN7android8hardware14broadcastradio4V1_018BnHwBroadcastRadioE
_ZTVN7android8hardware14broadcastradio4V1_018BpHwBroadcastRadioE
_ZTVN7android8hardware14broadcastradio4V1_022IBroadcastRadioFactoryE
_ZTVN7android8hardware14broadcastradio4V1_025BnHwBroadcastRadioFactoryE
_ZTVN7android8hardware14broadcastradio4V1_025BpHwBroadcastRadioFactoryE
_ZTVN7android8hardware14broadcastradio4V1_06ITunerE
_ZTVN7android8hardware14broadcastradio4V1_09BnHwTunerE
_ZTVN7android8hardware14broadcastradio4V1_09BpHwTunerE
_ZThn20_N7android8hardware14broadcastradio4V1_017BnHwTunerCallbackD0Ev
_ZThn20_N7android8hardware14broadcastradio4V1_017BnHwTunerCallbackD1Ev
_ZThn20_N7android8hardware14broadcastradio4V1_018BnHwBroadcastRadioD0Ev
_ZThn20_N7android8hardware14broadcastradio4V1_018BnHwBroadcastRadioD1Ev
_ZThn20_N7android8hardware14broadcastradio4V1_025BnHwBroadcastRadioFactoryD0Ev
_ZThn20_N7android8hardware14broadcastradio4V1_025BnHwBroadcastRadioFactoryD1Ev
_ZThn20_N7android8hardware14broadcastradio4V1_09BnHwTunerD0Ev
_ZThn20_N7android8hardware14broadcastradio4V1_09BnHwTunerD1Ev
_ZTv0_n12_N7android8hardware14broadcastradio4V1_017BnHwTunerCallbackD0Ev
_ZTv0_n12_N7android8hardware14broadcastradio4V1_017BnHwTunerCallbackD1Ev
_ZTv0_n12_N7android8hardware14broadcastradio4V1_018BnHwBroadcastRadioD0Ev
_ZTv0_n12_N7android8hardware14broadcastradio4V1_018BnHwBroadcastRadioD1Ev
_ZTv0_n12_N7android8hardware14broadcastradio4V1_025BnHwBroadcastRadioFactoryD0Ev
_ZTv0_n12_N7android8hardware14broadcastradio4V1_025BnHwBroadcastRadioFactoryD1Ev
_ZTv0_n12_N7android8hardware14broadcastradio4V1_09BnHwTunerD0Ev
_ZTv0_n12_N7android8hardware14broadcastradio4V1_09BnHwTunerD1Ev
