_ZN7android13TypeConverterINS_11UsageTraitsEE6mTableE
_ZN7android13TypeConverterINS_12FormatTraitsEE6mTableE
_ZN7android13TypeConverterINS_12SourceTraitsEE6mTableE
_ZN7android13TypeConverterINS_12StreamTraitsEE6mTableE
_ZN7android13TypeConverterINS_14GainModeTraitsEE6mTableE
_ZN7android13TypeConverterINS_15AudioModeTraitsEE6mTableE
_ZN7android13TypeConverterINS_15InputFlagTraitsEE6mTableE
_ZN7android13TypeConverterINS_16OutputFlagTraitsEE6mTableE
_ZN7android13TypeConverterINS_17InputDeviceTraitsEE6mTableE
_ZN7android13TypeConverterINS_18AudioContentTraitsEE6mTableE
_ZN7android13TypeConverterINS_18ChannelIndexTraitsEE6mTableE
_ZN7android13TypeConverterINS_18InputChannelTraitsEE6mTableE
_ZN7android13TypeConverterINS_18OutputDeviceTraitsEE6mTableE
_ZN7android13TypeConverterINS_19OutputChannelTraitsEE6mTableE
_ZN7android14AudioParameter10keyRoutingE
_ZN7android14AudioParameter11keyChannelsE
_ZN7android14AudioParameter11keyHwAvSyncE
_ZN7android14AudioParameter12keyProgramIdE
_ZN7android14AudioParameter13keyFrameCountE
_ZN7android14AudioParameter13keyMonoOutputE
_ZN7android14AudioParameter14keyInputSourceE
_ZN7android14AudioParameter14keyScreenStateE
_ZN7android14AudioParameter15keyReconfigA2dpE
_ZN7android14AudioParameter15keySamplingRateE
_ZN7android14AudioParameter16keyStreamConnectE
_ZN7android14AudioParameter17keyPresentationIdE
_ZN7android14AudioParameter17keyStreamHwAvSyncE
_ZN7android14AudioParameter18valueListSeparatorE
_ZN7android14AudioParameter19keyStreamDisconnectE
_ZN7android14AudioParameter24keyReconfigA2dpSupportedE
_ZN7android14AudioParameter25keyStreamSupportedFormatsE
_ZN7android14AudioParameter26keyStreamSupportedChannelsE
_ZN7android14AudioParameter31keyStreamSupportedSamplingRatesE
_ZN7android14AudioParameter3addERKNS_7String8ES3_
_ZN7android14AudioParameter6addIntERKNS_7String8Ei
_ZN7android14AudioParameter6addKeyERKNS_7String8E
_ZN7android14AudioParameter6removeERKNS_7String8E
_ZN7android14AudioParameter7valueOnE
_ZN7android14AudioParameter8addFloatERKNS_7String8Ef
_ZN7android14AudioParameter8valueOffE
_ZN7android14AudioParameter9keyBtNrecE
_ZN7android14AudioParameter9keyFormatE
_ZN7android14AudioParameterC1ERKNS_7String8E
_ZN7android14AudioParameterC2ERKNS_7String8E
_ZN7android14AudioParameterD0Ev
_ZN7android14AudioParameterD1Ev
_ZN7android14AudioParameterD2Ev
_ZN7android14deviceToStringEjRNSt3__112basic_stringIcNS0_11char_traitsIcEENS0_9allocatorIcEEEE
_ZN7android16deviceFromStringERKNSt3__112basic_stringIcNS0_11char_traitsIcEENS0_9allocatorIcEEEERj
_ZN7android16formatFromStringERKNSt3__112basic_stringIcNS0_11char_traitsIcEENS0_9allocatorIcEEEE14audio_format_t
_ZN7android17formatsFromStringERKNSt3__112basic_stringIcNS0_11char_traitsIcEENS0_9allocatorIcEEEEPKc
_ZN7android21channelMaskFromStringERKNSt3__112basic_stringIcNS0_11char_traitsIcEENS0_9allocatorIcEEEE
_ZN7android22channelMasksFromStringERKNSt3__112basic_stringIcNS0_11char_traitsIcEENS0_9allocatorIcEEEEPKc
_ZN7android23samplingRatesFromStringERKNSt3__112basic_stringIcNS0_11char_traitsIcEENS0_9allocatorIcEEEEPKc
_ZN7android27inputChannelMasksFromStringERKNSt3__112basic_stringIcNS0_11char_traitsIcEENS0_9allocatorIcEEEEPKc
_ZN7android28outputChannelMasksFromStringERKNSt3__112basic_stringIcNS0_11char_traitsIcEENS0_9allocatorIcEEEEPKc
_ZN7android9TimeCheck15TimeCheckThread10threadLoopEv
_ZN7android9TimeCheck15TimeCheckThread14stopMonitoringEx
_ZN7android9TimeCheck15TimeCheckThread15startMonitoringEPKcj
_ZN7android9TimeCheck15TimeCheckThreadD0Ev
_ZN7android9TimeCheck15TimeCheckThreadD1Ev
_ZN7android9TimeCheck15TimeCheckThreadD2Ev
_ZN7android9TimeCheck18getTimeCheckThreadEv
_ZN7android9TimeCheckC1EPKcj
_ZN7android9TimeCheckC2EPKcj
_ZN7android9TimeCheckD1Ev
_ZN7android9TimeCheckD2Ev
_ZNK7android14AudioParameter12toStringImplEb
_ZNK7android14AudioParameter3getERKNS_7String8ERS1_
_ZNK7android14AudioParameter5getAtEjRNS_7String8E
_ZNK7android14AudioParameter5getAtEjRNS_7String8ES2_
_ZNK7android14AudioParameter6getIntERKNS_7String8ERi
_ZNK7android14AudioParameter8getFloatERKNS_7String8ERf
_ZTCN7android9TimeCheck15TimeCheckThreadE0_NS_6ThreadE
_ZTTN7android9TimeCheck15TimeCheckThreadE
_ZTVN7android14AudioParameterE
_ZTVN7android9TimeCheck15TimeCheckThreadE
_ZTv0_n12_N7android9TimeCheck15TimeCheckThreadD0Ev
_ZTv0_n12_N7android9TimeCheck15TimeCheckThreadD1Ev
