vtable for android::hardware::keymaster::V3_0::BpHwKeymasterDevice
_ZTVN7android8hardware9keymaster4V3_019BpHwKeymasterDeviceE: 32 entries
16    (int (*)(...)) _ZN7android8hardware9keymaster4V3_019BpHwKeymasterDevice14interfaceChainENSt3__18functionIFvRKNS0_8hidl_vecINS0_11hidl_stringEEEEEE
20    (int (*)(...)) _ZN7android8hardware9keymaster4V3_019BpHwKeymasterDevice5debugERKNS0_11hidl_handleERKNS0_8hidl_vecINS0_11hidl_stringEEE
24    (int (*)(...)) _ZN7android8hardware9keymaster4V3_019BpHwKeymasterDevice19interfaceDescriptorENSt3__18functionIFvRKNS0_11hidl_stringEEEE
28    (int (*)(...)) _ZN7android8hardware9keymaster4V3_019BpHwKeymasterDevice12getHashChainENSt3__18functionIFvRKNS0_8hidl_vecINS0_10hidl_arrayIhLj32EJEEEEEEEE
32    (int (*)(...)) _ZN7android8hardware9keymaster4V3_019BpHwKeymasterDevice21setHALInstrumentationEv
36    (int (*)(...)) _ZN7android8hardware9keymaster4V3_019BpHwKeymasterDevice11linkToDeathERKNS_2spINS0_20hidl_death_recipientEEEy
40    (int (*)(...)) _ZN7android8hardware9keymaster4V3_019BpHwKeymasterDevice4pingEv
44    (int (*)(...)) _ZN7android8hardware9keymaster4V3_019BpHwKeymasterDevice12getDebugInfoENSt3__18functionIFvRKNS_4hidl4base4V1_09DebugInfoEEEE
48    (int (*)(...)) _ZN7android8hardware9keymaster4V3_019BpHwKeymasterDevice21notifySyspropsChangedEv
52    (int (*)(...)) _ZN7android8hardware9keymaster4V3_019BpHwKeymasterDevice13unlinkToDeathERKNS_2spINS0_20hidl_death_recipientEEE
64    (int (*)(...)) _ZN7android8hardware9keymaster4V3_019BpHwKeymasterDevice19getHardwareFeaturesENSt3__18functionIFvbbbbbRKNS0_11hidl_stringES8_EEE
68    (int (*)(...)) _ZN7android8hardware9keymaster4V3_019BpHwKeymasterDevice13addRngEntropyERKNS0_8hidl_vecIhEE
72    (int (*)(...)) _ZN7android8hardware9keymaster4V3_019BpHwKeymasterDevice11generateKeyERKNS0_8hidl_vecINS2_12KeyParameterEEENSt3__18functionIFvNS2_9ErrorCodeERKNS4_IhEERKNS2_18KeyCharacteristicsEEEE
76    (int (*)(...)) _ZN7android8hardware9keymaster4V3_019BpHwKeymasterDevice9importKeyERKNS0_8hidl_vecINS2_12KeyParameterEEENS2_9KeyFormatERKNS4_IhEENSt3__18functionIFvNS2_9ErrorCodeESC_RKNS2_18KeyCharacteristicsEEEE
80    (int (*)(...)) _ZN7android8hardware9keymaster4V3_019BpHwKeymasterDevice21getKeyCharacteristicsERKNS0_8hidl_vecIhEES7_S7_NSt3__18functionIFvNS2_9ErrorCodeERKNS2_18KeyCharacteristicsEEEE
84    (int (*)(...)) _ZN7android8hardware9keymaster4V3_019BpHwKeymasterDevice9exportKeyENS2_9KeyFormatERKNS0_8hidl_vecIhEES8_S8_NSt3__18functionIFvNS2_9ErrorCodeES8_EEE
88    (int (*)(...)) _ZN7android8hardware9keymaster4V3_019BpHwKeymasterDevice9attestKeyERKNS0_8hidl_vecIhEERKNS4_INS2_12KeyParameterEEENSt3__18functionIFvNS2_9ErrorCodeERKNS4_IS5_EEEEE
92    (int (*)(...)) _ZN7android8hardware9keymaster4V3_019BpHwKeymasterDevice10upgradeKeyERKNS0_8hidl_vecIhEERKNS4_INS2_12KeyParameterEEENSt3__18functionIFvNS2_9ErrorCodeES7_EEE
96    (int (*)(...)) _ZN7android8hardware9keymaster4V3_019BpHwKeymasterDevice9deleteKeyERKNS0_8hidl_vecIhEE
100    (int (*)(...)) _ZN7android8hardware9keymaster4V3_019BpHwKeymasterDevice13deleteAllKeysEv
104    (int (*)(...)) _ZN7android8hardware9keymaster4V3_019BpHwKeymasterDevice21destroyAttestationIdsEv
108    (int (*)(...)) _ZN7android8hardware9keymaster4V3_019BpHwKeymasterDevice5beginENS2_10KeyPurposeERKNS0_8hidl_vecIhEERKNS5_INS2_12KeyParameterEEENSt3__18functionIFvNS2_9ErrorCodeESC_yEEE
112    (int (*)(...)) _ZN7android8hardware9keymaster4V3_019BpHwKeymasterDevice6updateEyRKNS0_8hidl_vecINS2_12KeyParameterEEERKNS4_IhEENSt3__18functionIFvNS2_9ErrorCodeEjS8_SB_EEE
116    (int (*)(...)) _ZN7android8hardware9keymaster4V3_019BpHwKeymasterDevice6finishEyRKNS0_8hidl_vecINS2_12KeyParameterEEERKNS4_IhEESB_NSt3__18functionIFvNS2_9ErrorCodeES8_SB_EEE
120    (int (*)(...)) _ZN7android8hardware9keymaster4V3_019BpHwKeymasterDevice5abortEy
172    (int (*)(...)) _ZN7android8hardware11BpHwRefBase10onFirstRefEv
176    (int (*)(...)) _ZN7android8hardware11BpHwRefBase15onLastStrongRefEPKv
180    (int (*)(...)) _ZN7android8hardware11BpHwRefBase20onIncStrongAttemptedEjPKv
236    (int (*)(...)) _ZTv0_n16_N7android8hardware11BpHwRefBase10onFirstRefEv
240    (int (*)(...)) _ZTv0_n20_N7android8hardware11BpHwRefBase15onLastStrongRefEPKv
244    (int (*)(...)) _ZTv0_n24_N7android8hardware11BpHwRefBase20onIncStrongAttemptedEjPKv
248    (int (*)(...)) _ZN7android7RefBase13onLastWeakRefEPKv


vtable for android::hardware::keymaster::V3_0::BnHwKeymasterDevice
_ZTVN7android8hardware9keymaster4V3_019BnHwKeymasterDeviceE: 21 entries
12    (int (*)(...)) _ZN7android8hardware9BHwBinder8transactEjRKNS0_6ParcelEPS2_jNSt3__18functionIFvRS2_EEE
16    (int (*)(...)) _ZN7android8hardware9BHwBinder11linkToDeathERKNS_2spINS0_7IBinder14DeathRecipientEEEPvj
20    (int (*)(...)) _ZN7android8hardware9BHwBinder13unlinkToDeathERKNS_2wpINS0_7IBinder14DeathRecipientEEEPvjPS5_
24    (int (*)(...)) _ZNK7android8hardware7IBinder13checkSubclassEPKv
28    (int (*)(...)) _ZN7android8hardware9BHwBinder12attachObjectEPKvPvS4_PFvS3_S4_S4_E
32    (int (*)(...)) _ZNK7android8hardware9BHwBinder10findObjectEPKv
36    (int (*)(...)) _ZN7android8hardware9BHwBinder12detachObjectEPKv
40    (int (*)(...)) _ZN7android8hardware9BHwBinder11localBinderEv
44    (int (*)(...)) _ZN7android8hardware7IBinder12remoteBinderEv
48    (int (*)(...)) _ZN7android8hardware9keymaster4V3_019BnHwKeymasterDeviceD1Ev
52    (int (*)(...)) _ZN7android8hardware9keymaster4V3_019BnHwKeymasterDeviceD0Ev
56    (int (*)(...)) _ZN7android8hardware9keymaster4V3_019BnHwKeymasterDevice10onTransactEjRKNS0_6ParcelEPS4_jNSt3__18functionIFvRS4_EEE
68    (int (*)(...)) _ZThn20_N7android8hardware9keymaster4V3_019BnHwKeymasterDeviceD1Ev
72    (int (*)(...)) _ZThn20_N7android8hardware9keymaster4V3_019BnHwKeymasterDeviceD0Ev
104    (int (*)(...)) _ZTv0_n12_N7android8hardware9keymaster4V3_019BnHwKeymasterDeviceD1Ev
108    (int (*)(...)) _ZTv0_n12_N7android8hardware9keymaster4V3_019BnHwKeymasterDeviceD0Ev
112    (int (*)(...)) _ZN7android7RefBase10onFirstRefEv
116    (int (*)(...)) _ZN7android7RefBase15onLastStrongRefEPKv
120    (int (*)(...)) _ZN7android7RefBase20onIncStrongAttemptedEjPKv
124    (int (*)(...)) _ZN7android7RefBase13onLastWeakRefEPKv
128    (int (*)(...)) _ZTVN7android8hardware9keymaster4V3_019BnHwKeymasterDeviceE


vtable for android::hardware::keymaster::V3_0::IKeymasterDevice
_ZTVN7android8hardware9keymaster4V3_016IKeymasterDeviceE: 15 entries
16    (int (*)(...)) _ZN7android8hardware9keymaster4V3_016IKeymasterDevice14interfaceChainENSt3__18functionIFvRKNS0_8hidl_vecINS0_11hidl_stringEEEEEE
20    (int (*)(...)) _ZN7android8hardware9keymaster4V3_016IKeymasterDevice5debugERKNS0_11hidl_handleERKNS0_8hidl_vecINS0_11hidl_stringEEE
24    (int (*)(...)) _ZN7android8hardware9keymaster4V3_016IKeymasterDevice19interfaceDescriptorENSt3__18functionIFvRKNS0_11hidl_stringEEEE
28    (int (*)(...)) _ZN7android8hardware9keymaster4V3_016IKeymasterDevice12getHashChainENSt3__18functionIFvRKNS0_8hidl_vecINS0_10hidl_arrayIhLj32EJEEEEEEEE
32    (int (*)(...)) _ZN7android8hardware9keymaster4V3_016IKeymasterDevice21setHALInstrumentationEv
36    (int (*)(...)) _ZN7android8hardware9keymaster4V3_016IKeymasterDevice11linkToDeathERKNS_2spINS0_20hidl_death_recipientEEEy
40    (int (*)(...)) _ZN7android8hardware9keymaster4V3_016IKeymasterDevice4pingEv
44    (int (*)(...)) _ZN7android8hardware9keymaster4V3_016IKeymasterDevice12getDebugInfoENSt3__18functionIFvRKNS_4hidl4base4V1_09DebugInfoEEEE
48    (int (*)(...)) _ZN7android8hardware9keymaster4V3_016IKeymasterDevice21notifySyspropsChangedEv
52    (int (*)(...)) _ZN7android8hardware9keymaster4V3_016IKeymasterDevice13unlinkToDeathERKNS_2spINS0_20hidl_death_recipientEEE
160    (int (*)(...)) _ZN7android7RefBase10onFirstRefEv
164    (int (*)(...)) _ZN7android7RefBase15onLastStrongRefEPKv
168    (int (*)(...)) _ZN7android7RefBase20onIncStrongAttemptedEjPKv
172    (int (*)(...)) _ZN7android7RefBase13onLastWeakRefEPKv
176    (int (*)(...)) _ZTVN7android8hardware9keymaster4V3_016IKeymasterDeviceE
