_ZN7android8hardware6camera8provider4V2_415ICameraProvider10descriptorE
_ZN7android8hardware6camera8provider4V2_415ICameraProvider10getServiceERKNSt3__112basic_stringIcNS5_11char_traitsIcEENS5_9allocatorIcEEEEb
_ZN7android8hardware6camera8provider4V2_415ICameraProvider11linkToDeathERKNS_2spINS0_20hidl_death_recipientEEEy
_ZN7android8hardware6camera8provider4V2_415ICameraProvider12getDebugInfoENSt3__18functionIFvRKNS_4hidl4base4V1_09DebugInfoEEEE
_ZN7android8hardware6camera8provider4V2_415ICameraProvider12getHashChainENSt3__18functionIFvRKNS0_8hidl_vecINS0_10hidl_arrayIhLj32EJEEEEEEEE
_ZN7android8hardware6camera8provider4V2_415ICameraProvider13tryGetServiceERKNSt3__112basic_stringIcNS5_11char_traitsIcEENS5_9allocatorIcEEEEb
_ZN7android8hardware6camera8provider4V2_415ICameraProvider13unlinkToDeathERKNS_2spINS0_20hidl_death_recipientEEE
_ZN7android8hardware6camera8provider4V2_415ICameraProvider14interfaceChainENSt3__18functionIFvRKNS0_8hidl_vecINS0_11hidl_stringEEEEEE
_ZN7android8hardware6camera8provider4V2_415ICameraProvider17registerAsServiceERKNSt3__112basic_stringIcNS5_11char_traitsIcEENS5_9allocatorIcEEEE
_ZN7android8hardware6camera8provider4V2_415ICameraProvider19interfaceDescriptorENSt3__18functionIFvRKNS0_11hidl_stringEEEE
_ZN7android8hardware6camera8provider4V2_415ICameraProvider21notifySyspropsChangedEv
_ZN7android8hardware6camera8provider4V2_415ICameraProvider21setHALInstrumentationEv
_ZN7android8hardware6camera8provider4V2_415ICameraProvider24registerForNotificationsERKNSt3__112basic_stringIcNS5_11char_traitsIcEENS5_9allocatorIcEEEERKNS_2spINS_4hidl7manager4V1_020IServiceNotificationEEE
_ZN7android8hardware6camera8provider4V2_415ICameraProvider4pingEv
_ZN7android8hardware6camera8provider4V2_415ICameraProvider5debugERKNS0_11hidl_handleERKNS0_8hidl_vecINS0_11hidl_stringEEE
_ZN7android8hardware6camera8provider4V2_415ICameraProvider8castFromERKNS_2spINS_4hidl4base4V1_05IBaseEEEb
_ZN7android8hardware6camera8provider4V2_415ICameraProvider8castFromERKNS_2spIS4_EEb
_ZN7android8hardware6camera8provider4V2_416BsCameraProvider13addOnewayTaskENSt3__18functionIFvvEEE
_ZN7android8hardware6camera8provider4V2_416BsCameraProviderC1ENS_2spINS3_15ICameraProviderEEE
_ZN7android8hardware6camera8provider4V2_416BsCameraProviderC2ENS_2spINS3_15ICameraProviderEEE
_ZN7android8hardware6camera8provider4V2_418BnHwCameraProvider10onTransactEjRKNS0_6ParcelEPS5_jNSt3__18functionIFvRS5_EEE
_ZN7android8hardware6camera8provider4V2_418BnHwCameraProvider12getDebugInfoENSt3__18functionIFvRKNS_4hidl4base4V1_09DebugInfoEEEE
_ZN7android8hardware6camera8provider4V2_418BnHwCameraProvider17_hidl_setCallbackEPNS_4hidl4base4V1_08BnHwBaseERKNS0_6ParcelEPSA_NSt3__18functionIFvRSA_EEE
_ZN7android8hardware6camera8provider4V2_418BnHwCameraProvider19_hidl_getVendorTagsEPNS_4hidl4base4V1_08BnHwBaseERKNS0_6ParcelEPSA_NSt3__18functionIFvRSA_EEE
_ZN7android8hardware6camera8provider4V2_418BnHwCameraProvider21_hidl_getCameraIdListEPNS_4hidl4base4V1_08BnHwBaseERKNS0_6ParcelEPSA_NSt3__18functionIFvRSA_EEE
_ZN7android8hardware6camera8provider4V2_418BnHwCameraProvider29_hidl_isSetTorchModeSupportedEPNS_4hidl4base4V1_08BnHwBaseERKNS0_6ParcelEPSA_NSt3__18functionIFvRSA_EEE
_ZN7android8hardware6camera8provider4V2_418BnHwCameraProvider35_hidl_getCameraDeviceInterface_V1_xEPNS_4hidl4base4V1_08BnHwBaseERKNS0_6ParcelEPSA_NSt3__18functionIFvRSA_EEE
_ZN7android8hardware6camera8provider4V2_418BnHwCameraProvider35_hidl_getCameraDeviceInterface_V3_xEPNS_4hidl4base4V1_08BnHwBaseERKNS0_6ParcelEPSA_NSt3__18functionIFvRSA_EEE
_ZN7android8hardware6camera8provider4V2_418BnHwCameraProvider4pingEv
_ZN7android8hardware6camera8provider4V2_418BnHwCameraProviderC1ERKNS_2spINS3_15ICameraProviderEEE
_ZN7android8hardware6camera8provider4V2_418BnHwCameraProviderC2ERKNS_2spINS3_15ICameraProviderEEE
_ZN7android8hardware6camera8provider4V2_418BnHwCameraProviderD0Ev
_ZN7android8hardware6camera8provider4V2_418BnHwCameraProviderD1Ev
_ZN7android8hardware6camera8provider4V2_418BnHwCameraProviderD2Ev
_ZN7android8hardware6camera8provider4V2_418BpHwCameraProvider11linkToDeathERKNS_2spINS0_20hidl_death_recipientEEEy
_ZN7android8hardware6camera8provider4V2_418BpHwCameraProvider11setCallbackERKNS_2spINS3_23ICameraProviderCallbackEEE
_ZN7android8hardware6camera8provider4V2_418BpHwCameraProvider12getDebugInfoENSt3__18functionIFvRKNS_4hidl4base4V1_09DebugInfoEEEE
_ZN7android8hardware6camera8provider4V2_418BpHwCameraProvider12getHashChainENSt3__18functionIFvRKNS0_8hidl_vecINS0_10hidl_arrayIhLj32EJEEEEEEEE
_ZN7android8hardware6camera8provider4V2_418BpHwCameraProvider13getVendorTagsENSt3__18functionIFvNS1_6common4V1_06StatusERKNS0_8hidl_vecINS8_16VendorTagSectionEEEEEE
_ZN7android8hardware6camera8provider4V2_418BpHwCameraProvider13unlinkToDeathERKNS_2spINS0_20hidl_death_recipientEEE
_ZN7android8hardware6camera8provider4V2_418BpHwCameraProvider14interfaceChainENSt3__18functionIFvRKNS0_8hidl_vecINS0_11hidl_stringEEEEEE
_ZN7android8hardware6camera8provider4V2_418BpHwCameraProvider15getCameraIdListENSt3__18functionIFvNS1_6common4V1_06StatusERKNS0_8hidl_vecINS0_11hidl_stringEEEEEE
_ZN7android8hardware6camera8provider4V2_418BpHwCameraProvider17_hidl_setCallbackEPNS0_10IInterfaceEPNS0_7details16HidlInstrumentorERKNS_2spINS3_23ICameraProviderCallbackEEE
_ZN7android8hardware6camera8provider4V2_418BpHwCameraProvider19_hidl_getVendorTagsEPNS0_10IInterfaceEPNS0_7details16HidlInstrumentorENSt3__18functionIFvNS1_6common4V1_06StatusERKNS0_8hidl_vecINSD_16VendorTagSectionEEEEEE
_ZN7android8hardware6camera8provider4V2_418BpHwCameraProvider19interfaceDescriptorENSt3__18functionIFvRKNS0_11hidl_stringEEEE
_ZN7android8hardware6camera8provider4V2_418BpHwCameraProvider21_hidl_getCameraIdListEPNS0_10IInterfaceEPNS0_7details16HidlInstrumentorENSt3__18functionIFvNS1_6common4V1_06StatusERKNS0_8hidl_vecINS0_11hidl_stringEEEEEE
_ZN7android8hardware6camera8provider4V2_418BpHwCameraProvider21notifySyspropsChangedEv
_ZN7android8hardware6camera8provider4V2_418BpHwCameraProvider21setHALInstrumentationEv
_ZN7android8hardware6camera8provider4V2_418BpHwCameraProvider23isSetTorchModeSupportedENSt3__18functionIFvNS1_6common4V1_06StatusEbEEE
_ZN7android8hardware6camera8provider4V2_418BpHwCameraProvider29_hidl_isSetTorchModeSupportedEPNS0_10IInterfaceEPNS0_7details16HidlInstrumentorENSt3__18functionIFvNS1_6common4V1_06StatusEbEEE
_ZN7android8hardware6camera8provider4V2_418BpHwCameraProvider29getCameraDeviceInterface_V1_xERKNS0_11hidl_stringENSt3__18functionIFvNS1_6common4V1_06StatusERKNS_2spINS1_6device4V1_013ICameraDeviceEEEEEE
_ZN7android8hardware6camera8provider4V2_418BpHwCameraProvider29getCameraDeviceInterface_V3_xERKNS0_11hidl_stringENSt3__18functionIFvNS1_6common4V1_06StatusERKNS_2spINS1_6device4V3_213ICameraDeviceEEEEEE
_ZN7android8hardware6camera8provider4V2_418BpHwCameraProvider35_hidl_getCameraDeviceInterface_V1_xEPNS0_10IInterfaceEPNS0_7details16HidlInstrumentorERKNS0_11hidl_stringENSt3__18functionIFvNS1_6common4V1_06StatusERKNS_2spINS1_6device4V1_013ICameraDeviceEEEEEE
_ZN7android8hardware6camera8provider4V2_418BpHwCameraProvider35_hidl_getCameraDeviceInterface_V3_xEPNS0_10IInterfaceEPNS0_7details16HidlInstrumentorERKNS0_11hidl_stringENSt3__18functionIFvNS1_6common4V1_06StatusERKNS_2spINS1_6device4V3_213ICameraDeviceEEEEEE
_ZN7android8hardware6camera8provider4V2_418BpHwCameraProvider4pingEv
_ZN7android8hardware6camera8provider4V2_418BpHwCameraProvider5debugERKNS0_11hidl_handleERKNS0_8hidl_vecINS0_11hidl_stringEEE
_ZN7android8hardware6camera8provider4V2_418BpHwCameraProviderC1ERKNS_2spINS0_7IBinderEEE
_ZN7android8hardware6camera8provider4V2_418BpHwCameraProviderC2ERKNS_2spINS0_7IBinderEEE
_ZN7android8hardware6camera8provider4V2_423ICameraProviderCallback10descriptorE
_ZN7android8hardware6camera8provider4V2_423ICameraProviderCallback10getServiceERKNSt3__112basic_stringIcNS5_11char_traitsIcEENS5_9allocatorIcEEEEb
_ZN7android8hardware6camera8provider4V2_423ICameraProviderCallback11linkToDeathERKNS_2spINS0_20hidl_death_recipientEEEy
_ZN7android8hardware6camera8provider4V2_423ICameraProviderCallback12getDebugInfoENSt3__18functionIFvRKNS_4hidl4base4V1_09DebugInfoEEEE
_ZN7android8hardware6camera8provider4V2_423ICameraProviderCallback12getHashChainENSt3__18functionIFvRKNS0_8hidl_vecINS0_10hidl_arrayIhLj32EJEEEEEEEE
_ZN7android8hardware6camera8provider4V2_423ICameraProviderCallback13tryGetServiceERKNSt3__112basic_stringIcNS5_11char_traitsIcEENS5_9allocatorIcEEEEb
_ZN7android8hardware6camera8provider4V2_423ICameraProviderCallback13unlinkToDeathERKNS_2spINS0_20hidl_death_recipientEEE
_ZN7android8hardware6camera8provider4V2_423ICameraProviderCallback14interfaceChainENSt3__18functionIFvRKNS0_8hidl_vecINS0_11hidl_stringEEEEEE
_ZN7android8hardware6camera8provider4V2_423ICameraProviderCallback17registerAsServiceERKNSt3__112basic_stringIcNS5_11char_traitsIcEENS5_9allocatorIcEEEE
_ZN7android8hardware6camera8provider4V2_423ICameraProviderCallback19interfaceDescriptorENSt3__18functionIFvRKNS0_11hidl_stringEEEE
_ZN7android8hardware6camera8provider4V2_423ICameraProviderCallback21notifySyspropsChangedEv
_ZN7android8hardware6camera8provider4V2_423ICameraProviderCallback21setHALInstrumentationEv
_ZN7android8hardware6camera8provider4V2_423ICameraProviderCallback24registerForNotificationsERKNSt3__112basic_stringIcNS5_11char_traitsIcEENS5_9allocatorIcEEEERKNS_2spINS_4hidl7manager4V1_020IServiceNotificationEEE
_ZN7android8hardware6camera8provider4V2_423ICameraProviderCallback4pingEv
_ZN7android8hardware6camera8provider4V2_423ICameraProviderCallback5debugERKNS0_11hidl_handleERKNS0_8hidl_vecINS0_11hidl_stringEEE
_ZN7android8hardware6camera8provider4V2_423ICameraProviderCallback8castFromERKNS_2spINS_4hidl4base4V1_05IBaseEEEb
_ZN7android8hardware6camera8provider4V2_423ICameraProviderCallback8castFromERKNS_2spIS4_EEb
_ZN7android8hardware6camera8provider4V2_424BsCameraProviderCallback13addOnewayTaskENSt3__18functionIFvvEEE
_ZN7android8hardware6camera8provider4V2_424BsCameraProviderCallbackC1ENS_2spINS3_23ICameraProviderCallbackEEE
_ZN7android8hardware6camera8provider4V2_424BsCameraProviderCallbackC2ENS_2spINS3_23ICameraProviderCallbackEEE
_ZN7android8hardware6camera8provider4V2_426BnHwCameraProviderCallback10onTransactEjRKNS0_6ParcelEPS5_jNSt3__18functionIFvRS5_EEE
_ZN7android8hardware6camera8provider4V2_426BnHwCameraProviderCallback12getDebugInfoENSt3__18functionIFvRKNS_4hidl4base4V1_09DebugInfoEEEE
_ZN7android8hardware6camera8provider4V2_426BnHwCameraProviderCallback27_hidl_torchModeStatusChangeEPNS_4hidl4base4V1_08BnHwBaseERKNS0_6ParcelEPSA_NSt3__18functionIFvRSA_EEE
_ZN7android8hardware6camera8provider4V2_426BnHwCameraProviderCallback30_hidl_cameraDeviceStatusChangeEPNS_4hidl4base4V1_08BnHwBaseERKNS0_6ParcelEPSA_NSt3__18functionIFvRSA_EEE
_ZN7android8hardware6camera8provider4V2_426BnHwCameraProviderCallback4pingEv
_ZN7android8hardware6camera8provider4V2_426BnHwCameraProviderCallbackC1ERKNS_2spINS3_23ICameraProviderCallbackEEE
_ZN7android8hardware6camera8provider4V2_426BnHwCameraProviderCallbackC2ERKNS_2spINS3_23ICameraProviderCallbackEEE
_ZN7android8hardware6camera8provider4V2_426BnHwCameraProviderCallbackD0Ev
_ZN7android8hardware6camera8provider4V2_426BnHwCameraProviderCallbackD1Ev
_ZN7android8hardware6camera8provider4V2_426BnHwCameraProviderCallbackD2Ev
_ZN7android8hardware6camera8provider4V2_426BpHwCameraProviderCallback11linkToDeathERKNS_2spINS0_20hidl_death_recipientEEEy
_ZN7android8hardware6camera8provider4V2_426BpHwCameraProviderCallback12getDebugInfoENSt3__18functionIFvRKNS_4hidl4base4V1_09DebugInfoEEEE
_ZN7android8hardware6camera8provider4V2_426BpHwCameraProviderCallback12getHashChainENSt3__18functionIFvRKNS0_8hidl_vecINS0_10hidl_arrayIhLj32EJEEEEEEEE
_ZN7android8hardware6camera8provider4V2_426BpHwCameraProviderCallback13unlinkToDeathERKNS_2spINS0_20hidl_death_recipientEEE
_ZN7android8hardware6camera8provider4V2_426BpHwCameraProviderCallback14interfaceChainENSt3__18functionIFvRKNS0_8hidl_vecINS0_11hidl_stringEEEEEE
_ZN7android8hardware6camera8provider4V2_426BpHwCameraProviderCallback19interfaceDescriptorENSt3__18functionIFvRKNS0_11hidl_stringEEEE
_ZN7android8hardware6camera8provider4V2_426BpHwCameraProviderCallback21notifySyspropsChangedEv
_ZN7android8hardware6camera8provider4V2_426BpHwCameraProviderCallback21setHALInstrumentationEv
_ZN7android8hardware6camera8provider4V2_426BpHwCameraProviderCallback21torchModeStatusChangeERKNS0_11hidl_stringENS1_6common4V1_015TorchModeStatusE
_ZN7android8hardware6camera8provider4V2_426BpHwCameraProviderCallback24cameraDeviceStatusChangeERKNS0_11hidl_stringENS1_6common4V1_018CameraDeviceStatusE
_ZN7android8hardware6camera8provider4V2_426BpHwCameraProviderCallback27_hidl_torchModeStatusChangeEPNS0_10IInterfaceEPNS0_7details16HidlInstrumentorERKNS0_11hidl_stringENS1_6common4V1_015TorchModeStatusE
_ZN7android8hardware6camera8provider4V2_426BpHwCameraProviderCallback30_hidl_cameraDeviceStatusChangeEPNS0_10IInterfaceEPNS0_7details16HidlInstrumentorERKNS0_11hidl_stringENS1_6common4V1_018CameraDeviceStatusE
_ZN7android8hardware6camera8provider4V2_426BpHwCameraProviderCallback4pingEv
_ZN7android8hardware6camera8provider4V2_426BpHwCameraProviderCallback5debugERKNS0_11hidl_handleERKNS0_8hidl_vecINS0_11hidl_stringEEE
_ZN7android8hardware6camera8provider4V2_426BpHwCameraProviderCallbackC1ERKNS_2spINS0_7IBinderEEE
_ZN7android8hardware6camera8provider4V2_426BpHwCameraProviderCallbackC2ERKNS_2spINS0_7IBinderEEE
_ZTCN7android8hardware6camera8provider4V2_415ICameraProviderE0_NS_4hidl4base4V1_05IBaseE
_ZTCN7android8hardware6camera8provider4V2_418BnHwCameraProviderE0_NS0_7IBinderE
_ZTCN7android8hardware6camera8provider4V2_418BnHwCameraProviderE0_NS0_9BHwBinderE
_ZTCN7android8hardware6camera8provider4V2_418BnHwCameraProviderE0_NS_4hidl4base4V1_08BnHwBaseE
_ZTCN7android8hardware6camera8provider4V2_418BpHwCameraProviderE0_NS0_11BpInterfaceINS3_15ICameraProviderEEE
_ZTCN7android8hardware6camera8provider4V2_418BpHwCameraProviderE0_NS3_15ICameraProviderE
_ZTCN7android8hardware6camera8provider4V2_418BpHwCameraProviderE0_NS_4hidl4base4V1_05IBaseE
_ZTCN7android8hardware6camera8provider4V2_418BpHwCameraProviderE4_NS0_10IInterfaceE
_ZTCN7android8hardware6camera8provider4V2_418BpHwCameraProviderE8_NS0_11BpHwRefBaseE
_ZTCN7android8hardware6camera8provider4V2_423ICameraProviderCallbackE0_NS_4hidl4base4V1_05IBaseE
_ZTCN7android8hardware6camera8provider4V2_426BnHwCameraProviderCallbackE0_NS0_7IBinderE
_ZTCN7android8hardware6camera8provider4V2_426BnHwCameraProviderCallbackE0_NS0_9BHwBinderE
_ZTCN7android8hardware6camera8provider4V2_426BnHwCameraProviderCallbackE0_NS_4hidl4base4V1_08BnHwBaseE
_ZTCN7android8hardware6camera8provider4V2_426BpHwCameraProviderCallbackE0_NS0_11BpInterfaceINS3_23ICameraProviderCallbackEEE
_ZTCN7android8hardware6camera8provider4V2_426BpHwCameraProviderCallbackE0_NS3_23ICameraProviderCallbackE
_ZTCN7android8hardware6camera8provider4V2_426BpHwCameraProviderCallbackE0_NS_4hidl4base4V1_05IBaseE
_ZTCN7android8hardware6camera8provider4V2_426BpHwCameraProviderCallbackE4_NS0_10IInterfaceE
_ZTCN7android8hardware6camera8provider4V2_426BpHwCameraProviderCallbackE8_NS0_11BpHwRefBaseE
_ZTTN7android8hardware6camera8provider4V2_415ICameraProviderE
_ZTTN7android8hardware6camera8provider4V2_418BnHwCameraProviderE
_ZTTN7android8hardware6camera8provider4V2_418BpHwCameraProviderE
_ZTTN7android8hardware6camera8provider4V2_423ICameraProviderCallbackE
_ZTTN7android8hardware6camera8provider4V2_426BnHwCameraProviderCallbackE
_ZTTN7android8hardware6camera8provider4V2_426BpHwCameraProviderCallbackE
_ZTVN7android8hardware6camera8provider4V2_415ICameraProviderE
_ZTVN7android8hardware6camera8provider4V2_418BnHwCameraProviderE
_ZTVN7android8hardware6camera8provider4V2_418BpHwCameraProviderE
_ZTVN7android8hardware6camera8provider4V2_423ICameraProviderCallbackE
_ZTVN7android8hardware6camera8provider4V2_426BnHwCameraProviderCallbackE
_ZTVN7android8hardware6camera8provider4V2_426BpHwCameraProviderCallbackE
_ZThn20_N7android8hardware6camera8provider4V2_418BnHwCameraProviderD0Ev
_ZThn20_N7android8hardware6camera8provider4V2_418BnHwCameraProviderD1Ev
_ZThn20_N7android8hardware6camera8provider4V2_426BnHwCameraProviderCallbackD0Ev
_ZThn20_N7android8hardware6camera8provider4V2_426BnHwCameraProviderCallbackD1Ev
_ZTv0_n12_N7android8hardware6camera8provider4V2_418BnHwCameraProviderD0Ev
_ZTv0_n12_N7android8hardware6camera8provider4V2_418BnHwCameraProviderD1Ev
_ZTv0_n12_N7android8hardware6camera8provider4V2_426BnHwCameraProviderCallbackD0Ev
_ZTv0_n12_N7android8hardware6camera8provider4V2_426BnHwCameraProviderCallbackD1Ev
