_ZN7android8hardware4wifi10supplicant4V1_011ISupplicant10descriptorE
_ZN7android8hardware4wifi10supplicant4V1_011ISupplicant10getServiceERKNSt3__112basic_stringIcNS5_11char_traitsIcEENS5_9allocatorIcEEEEb
_ZN7android8hardware4wifi10supplicant4V1_011ISupplicant11linkToDeathERKNS_2spINS0_20hidl_death_recipientEEEy
_ZN7android8hardware4wifi10supplicant4V1_011ISupplicant12getDebugInfoENSt3__18functionIFvRKNS_4hidl4base4V1_09DebugInfoEEEE
_ZN7android8hardware4wifi10supplicant4V1_011ISupplicant12getHashChainENSt3__18functionIFvRKNS0_8hidl_vecINS0_10hidl_arrayIhLj32EJEEEEEEEE
_ZN7android8hardware4wifi10supplicant4V1_011ISupplicant13tryGetServiceERKNSt3__112basic_stringIcNS5_11char_traitsIcEENS5_9allocatorIcEEEEb
_ZN7android8hardware4wifi10supplicant4V1_011ISupplicant13unlinkToDeathERKNS_2spINS0_20hidl_death_recipientEEE
_ZN7android8hardware4wifi10supplicant4V1_011ISupplicant14interfaceChainENSt3__18functionIFvRKNS0_8hidl_vecINS0_11hidl_stringEEEEEE
_ZN7android8hardware4wifi10supplicant4V1_011ISupplicant17registerAsServiceERKNSt3__112basic_stringIcNS5_11char_traitsIcEENS5_9allocatorIcEEEE
_ZN7android8hardware4wifi10supplicant4V1_011ISupplicant19interfaceDescriptorENSt3__18functionIFvRKNS0_11hidl_stringEEEE
_ZN7android8hardware4wifi10supplicant4V1_011ISupplicant21notifySyspropsChangedEv
_ZN7android8hardware4wifi10supplicant4V1_011ISupplicant21setHALInstrumentationEv
_ZN7android8hardware4wifi10supplicant4V1_011ISupplicant24registerForNotificationsERKNSt3__112basic_stringIcNS5_11char_traitsIcEENS5_9allocatorIcEEEERKNS_2spINS_4hidl7manager4V1_020IServiceNotificationEEE
_ZN7android8hardware4wifi10supplicant4V1_011ISupplicant4pingEv
_ZN7android8hardware4wifi10supplicant4V1_011ISupplicant5debugERKNS0_11hidl_handleERKNS0_8hidl_vecINS0_11hidl_stringEEE
_ZN7android8hardware4wifi10supplicant4V1_011ISupplicant8castFromERKNS_2spINS_4hidl4base4V1_05IBaseEEEb
_ZN7android8hardware4wifi10supplicant4V1_011ISupplicant8castFromERKNS_2spIS4_EEb
_ZN7android8hardware4wifi10supplicant4V1_012BsSupplicant13addOnewayTaskENSt3__18functionIFvvEEE
_ZN7android8hardware4wifi10supplicant4V1_012BsSupplicantC1ENS_2spINS3_11ISupplicantEEE
_ZN7android8hardware4wifi10supplicant4V1_012BsSupplicantC2ENS_2spINS3_11ISupplicantEEE
_ZN7android8hardware4wifi10supplicant4V1_014BnHwSupplicant10onTransactEjRKNS0_6ParcelEPS5_jNSt3__18functionIFvRS5_EEE
_ZN7android8hardware4wifi10supplicant4V1_014BnHwSupplicant12getDebugInfoENSt3__18functionIFvRKNS_4hidl4base4V1_09DebugInfoEEEE
_ZN7android8hardware4wifi10supplicant4V1_014BnHwSupplicant18_hidl_getInterfaceEPNS_4hidl4base4V1_08BnHwBaseERKNS0_6ParcelEPSA_NSt3__18functionIFvRSA_EEE
_ZN7android8hardware4wifi10supplicant4V1_014BnHwSupplicant19_hidl_getDebugLevelEPNS_4hidl4base4V1_08BnHwBaseERKNS0_6ParcelEPSA_NSt3__18functionIFvRSA_EEE
_ZN7android8hardware4wifi10supplicant4V1_014BnHwSupplicant20_hidl_listInterfacesEPNS_4hidl4base4V1_08BnHwBaseERKNS0_6ParcelEPSA_NSt3__18functionIFvRSA_EEE
_ZN7android8hardware4wifi10supplicant4V1_014BnHwSupplicant20_hidl_setDebugParamsEPNS_4hidl4base4V1_08BnHwBaseERKNS0_6ParcelEPSA_NSt3__18functionIFvRSA_EEE
_ZN7android8hardware4wifi10supplicant4V1_014BnHwSupplicant22_hidl_registerCallbackEPNS_4hidl4base4V1_08BnHwBaseERKNS0_6ParcelEPSA_NSt3__18functionIFvRSA_EEE
_ZN7android8hardware4wifi10supplicant4V1_014BnHwSupplicant28_hidl_isDebugShowKeysEnabledEPNS_4hidl4base4V1_08BnHwBaseERKNS0_6ParcelEPSA_NSt3__18functionIFvRSA_EEE
_ZN7android8hardware4wifi10supplicant4V1_014BnHwSupplicant28_hidl_setConcurrencyPriorityEPNS_4hidl4base4V1_08BnHwBaseERKNS0_6ParcelEPSA_NSt3__18functionIFvRSA_EEE
_ZN7android8hardware4wifi10supplicant4V1_014BnHwSupplicant33_hidl_isDebugShowTimestampEnabledEPNS_4hidl4base4V1_08BnHwBaseERKNS0_6ParcelEPSA_NSt3__18functionIFvRSA_EEE
_ZN7android8hardware4wifi10supplicant4V1_014BnHwSupplicant4pingEv
_ZN7android8hardware4wifi10supplicant4V1_014BnHwSupplicantC1ERKNS_2spINS3_11ISupplicantEEE
_ZN7android8hardware4wifi10supplicant4V1_014BnHwSupplicantC2ERKNS_2spINS3_11ISupplicantEEE
_ZN7android8hardware4wifi10supplicant4V1_014BnHwSupplicantD0Ev
_ZN7android8hardware4wifi10supplicant4V1_014BnHwSupplicantD1Ev
_ZN7android8hardware4wifi10supplicant4V1_014BnHwSupplicantD2Ev
_ZN7android8hardware4wifi10supplicant4V1_014BpHwSupplicant11linkToDeathERKNS_2spINS0_20hidl_death_recipientEEEy
_ZN7android8hardware4wifi10supplicant4V1_014BpHwSupplicant12getDebugInfoENSt3__18functionIFvRKNS_4hidl4base4V1_09DebugInfoEEEE
_ZN7android8hardware4wifi10supplicant4V1_014BpHwSupplicant12getHashChainENSt3__18functionIFvRKNS0_8hidl_vecINS0_10hidl_arrayIhLj32EJEEEEEEEE
_ZN7android8hardware4wifi10supplicant4V1_014BpHwSupplicant12getInterfaceERKNS3_11ISupplicant9IfaceInfoENSt3__18functionIFvRKNS3_16SupplicantStatusERKNS_2spINS3_16ISupplicantIfaceEEEEEE
_ZN7android8hardware4wifi10supplicant4V1_014BpHwSupplicant13getDebugLevelEv
_ZN7android8hardware4wifi10supplicant4V1_014BpHwSupplicant13unlinkToDeathERKNS_2spINS0_20hidl_death_recipientEEE
_ZN7android8hardware4wifi10supplicant4V1_014BpHwSupplicant14interfaceChainENSt3__18functionIFvRKNS0_8hidl_vecINS0_11hidl_stringEEEEEE
_ZN7android8hardware4wifi10supplicant4V1_014BpHwSupplicant14listInterfacesENSt3__18functionIFvRKNS3_16SupplicantStatusERKNS0_8hidl_vecINS3_11ISupplicant9IfaceInfoEEEEEE
_ZN7android8hardware4wifi10supplicant4V1_014BpHwSupplicant14setDebugParamsENS3_11ISupplicant10DebugLevelEbbNSt3__18functionIFvRKNS3_16SupplicantStatusEEEE
_ZN7android8hardware4wifi10supplicant4V1_014BpHwSupplicant16registerCallbackERKNS_2spINS3_19ISupplicantCallbackEEENSt3__18functionIFvRKNS3_16SupplicantStatusEEEE
_ZN7android8hardware4wifi10supplicant4V1_014BpHwSupplicant18_hidl_getInterfaceEPNS0_10IInterfaceEPNS0_7details16HidlInstrumentorERKNS3_11ISupplicant9IfaceInfoENSt3__18functionIFvRKNS3_16SupplicantStatusERKNS_2spINS3_16ISupplicantIfaceEEEEEE
_ZN7android8hardware4wifi10supplicant4V1_014BpHwSupplicant19_hidl_getDebugLevelEPNS0_10IInterfaceEPNS0_7details16HidlInstrumentorE
_ZN7android8hardware4wifi10supplicant4V1_014BpHwSupplicant19interfaceDescriptorENSt3__18functionIFvRKNS0_11hidl_stringEEEE
_ZN7android8hardware4wifi10supplicant4V1_014BpHwSupplicant20_hidl_listInterfacesEPNS0_10IInterfaceEPNS0_7details16HidlInstrumentorENSt3__18functionIFvRKNS3_16SupplicantStatusERKNS0_8hidl_vecINS3_11ISupplicant9IfaceInfoEEEEEE
_ZN7android8hardware4wifi10supplicant4V1_014BpHwSupplicant20_hidl_setDebugParamsEPNS0_10IInterfaceEPNS0_7details16HidlInstrumentorENS3_11ISupplicant10DebugLevelEbbNSt3__18functionIFvRKNS3_16SupplicantStatusEEEE
_ZN7android8hardware4wifi10supplicant4V1_014BpHwSupplicant21notifySyspropsChangedEv
_ZN7android8hardware4wifi10supplicant4V1_014BpHwSupplicant21setHALInstrumentationEv
_ZN7android8hardware4wifi10supplicant4V1_014BpHwSupplicant22_hidl_registerCallbackEPNS0_10IInterfaceEPNS0_7details16HidlInstrumentorERKNS_2spINS3_19ISupplicantCallbackEEENSt3__18functionIFvRKNS3_16SupplicantStatusEEEE
_ZN7android8hardware4wifi10supplicant4V1_014BpHwSupplicant22isDebugShowKeysEnabledEv
_ZN7android8hardware4wifi10supplicant4V1_014BpHwSupplicant22setConcurrencyPriorityENS3_9IfaceTypeENSt3__18functionIFvRKNS3_16SupplicantStatusEEEE
_ZN7android8hardware4wifi10supplicant4V1_014BpHwSupplicant27isDebugShowTimestampEnabledEv
_ZN7android8hardware4wifi10supplicant4V1_014BpHwSupplicant28_hidl_isDebugShowKeysEnabledEPNS0_10IInterfaceEPNS0_7details16HidlInstrumentorE
_ZN7android8hardware4wifi10supplicant4V1_014BpHwSupplicant28_hidl_setConcurrencyPriorityEPNS0_10IInterfaceEPNS0_7details16HidlInstrumentorENS3_9IfaceTypeENSt3__18functionIFvRKNS3_16SupplicantStatusEEEE
_ZN7android8hardware4wifi10supplicant4V1_014BpHwSupplicant33_hidl_isDebugShowTimestampEnabledEPNS0_10IInterfaceEPNS0_7details16HidlInstrumentorE
_ZN7android8hardware4wifi10supplicant4V1_014BpHwSupplicant4pingEv
_ZN7android8hardware4wifi10supplicant4V1_014BpHwSupplicant5debugERKNS0_11hidl_handleERKNS0_8hidl_vecINS0_11hidl_stringEEE
_ZN7android8hardware4wifi10supplicant4V1_014BpHwSupplicantC1ERKNS_2spINS0_7IBinderEEE
_ZN7android8hardware4wifi10supplicant4V1_014BpHwSupplicantC2ERKNS_2spINS0_7IBinderEEE
_ZN7android8hardware4wifi10supplicant4V1_016ISupplicantIface10descriptorE
_ZN7android8hardware4wifi10supplicant4V1_016ISupplicantIface10getServiceERKNSt3__112basic_stringIcNS5_11char_traitsIcEENS5_9allocatorIcEEEEb
_ZN7android8hardware4wifi10supplicant4V1_016ISupplicantIface11linkToDeathERKNS_2spINS0_20hidl_death_recipientEEEy
_ZN7android8hardware4wifi10supplicant4V1_016ISupplicantIface12getDebugInfoENSt3__18functionIFvRKNS_4hidl4base4V1_09DebugInfoEEEE
_ZN7android8hardware4wifi10supplicant4V1_016ISupplicantIface12getHashChainENSt3__18functionIFvRKNS0_8hidl_vecINS0_10hidl_arrayIhLj32EJEEEEEEEE
_ZN7android8hardware4wifi10supplicant4V1_016ISupplicantIface13tryGetServiceERKNSt3__112basic_stringIcNS5_11char_traitsIcEENS5_9allocatorIcEEEEb
_ZN7android8hardware4wifi10supplicant4V1_016ISupplicantIface13unlinkToDeathERKNS_2spINS0_20hidl_death_recipientEEE
_ZN7android8hardware4wifi10supplicant4V1_016ISupplicantIface14interfaceChainENSt3__18functionIFvRKNS0_8hidl_vecINS0_11hidl_stringEEEEEE
_ZN7android8hardware4wifi10supplicant4V1_016ISupplicantIface17registerAsServiceERKNSt3__112basic_stringIcNS5_11char_traitsIcEENS5_9allocatorIcEEEE
_ZN7android8hardware4wifi10supplicant4V1_016ISupplicantIface19interfaceDescriptorENSt3__18functionIFvRKNS0_11hidl_stringEEEE
_ZN7android8hardware4wifi10supplicant4V1_016ISupplicantIface21notifySyspropsChangedEv
_ZN7android8hardware4wifi10supplicant4V1_016ISupplicantIface21setHALInstrumentationEv
_ZN7android8hardware4wifi10supplicant4V1_016ISupplicantIface24registerForNotificationsERKNSt3__112basic_stringIcNS5_11char_traitsIcEENS5_9allocatorIcEEEERKNS_2spINS_4hidl7manager4V1_020IServiceNotificationEEE
_ZN7android8hardware4wifi10supplicant4V1_016ISupplicantIface4pingEv
_ZN7android8hardware4wifi10supplicant4V1_016ISupplicantIface5debugERKNS0_11hidl_handleERKNS0_8hidl_vecINS0_11hidl_stringEEE
_ZN7android8hardware4wifi10supplicant4V1_016ISupplicantIface8castFromERKNS_2spINS_4hidl4base4V1_05IBaseEEEb
_ZN7android8hardware4wifi10supplicant4V1_016ISupplicantIface8castFromERKNS_2spIS4_EEb
_ZN7android8hardware4wifi10supplicant4V1_017BsSupplicantIface13addOnewayTaskENSt3__18functionIFvvEEE
_ZN7android8hardware4wifi10supplicant4V1_017BsSupplicantIfaceC1ENS_2spINS3_16ISupplicantIfaceEEE
_ZN7android8hardware4wifi10supplicant4V1_017BsSupplicantIfaceC2ENS_2spINS3_16ISupplicantIfaceEEE
_ZN7android8hardware4wifi10supplicant4V1_018ISupplicantNetwork10descriptorE
_ZN7android8hardware4wifi10supplicant4V1_018ISupplicantNetwork10getServiceERKNSt3__112basic_stringIcNS5_11char_traitsIcEENS5_9allocatorIcEEEEb
_ZN7android8hardware4wifi10supplicant4V1_018ISupplicantNetwork11linkToDeathERKNS_2spINS0_20hidl_death_recipientEEEy
_ZN7android8hardware4wifi10supplicant4V1_018ISupplicantNetwork12getDebugInfoENSt3__18functionIFvRKNS_4hidl4base4V1_09DebugInfoEEEE
_ZN7android8hardware4wifi10supplicant4V1_018ISupplicantNetwork12getHashChainENSt3__18functionIFvRKNS0_8hidl_vecINS0_10hidl_arrayIhLj32EJEEEEEEEE
_ZN7android8hardware4wifi10supplicant4V1_018ISupplicantNetwork13tryGetServiceERKNSt3__112basic_stringIcNS5_11char_traitsIcEENS5_9allocatorIcEEEEb
_ZN7android8hardware4wifi10supplicant4V1_018ISupplicantNetwork13unlinkToDeathERKNS_2spINS0_20hidl_death_recipientEEE
_ZN7android8hardware4wifi10supplicant4V1_018ISupplicantNetwork14interfaceChainENSt3__18functionIFvRKNS0_8hidl_vecINS0_11hidl_stringEEEEEE
_ZN7android8hardware4wifi10supplicant4V1_018ISupplicantNetwork17registerAsServiceERKNSt3__112basic_stringIcNS5_11char_traitsIcEENS5_9allocatorIcEEEE
_ZN7android8hardware4wifi10supplicant4V1_018ISupplicantNetwork19interfaceDescriptorENSt3__18functionIFvRKNS0_11hidl_stringEEEE
_ZN7android8hardware4wifi10supplicant4V1_018ISupplicantNetwork21notifySyspropsChangedEv
_ZN7android8hardware4wifi10supplicant4V1_018ISupplicantNetwork21setHALInstrumentationEv
_ZN7android8hardware4wifi10supplicant4V1_018ISupplicantNetwork24registerForNotificationsERKNSt3__112basic_stringIcNS5_11char_traitsIcEENS5_9allocatorIcEEEERKNS_2spINS_4hidl7manager4V1_020IServiceNotificationEEE
_ZN7android8hardware4wifi10supplicant4V1_018ISupplicantNetwork4pingEv
_ZN7android8hardware4wifi10supplicant4V1_018ISupplicantNetwork5debugERKNS0_11hidl_handleERKNS0_8hidl_vecINS0_11hidl_stringEEE
_ZN7android8hardware4wifi10supplicant4V1_018ISupplicantNetwork8castFromERKNS_2spINS_4hidl4base4V1_05IBaseEEEb
_ZN7android8hardware4wifi10supplicant4V1_018ISupplicantNetwork8castFromERKNS_2spIS4_EEb
_ZN7android8hardware4wifi10supplicant4V1_019BnHwSupplicantIface10onTransactEjRKNS0_6ParcelEPS5_jNSt3__18functionIFvRS5_EEE
_ZN7android8hardware4wifi10supplicant4V1_019BnHwSupplicantIface12getDebugInfoENSt3__18functionIFvRKNS_4hidl4base4V1_09DebugInfoEEEE
_ZN7android8hardware4wifi10supplicant4V1_019BnHwSupplicantIface13_hidl_getNameEPNS_4hidl4base4V1_08BnHwBaseERKNS0_6ParcelEPSA_NSt3__18functionIFvRSA_EEE
_ZN7android8hardware4wifi10supplicant4V1_019BnHwSupplicantIface13_hidl_getTypeEPNS_4hidl4base4V1_08BnHwBaseERKNS0_6ParcelEPSA_NSt3__18functionIFvRSA_EEE
_ZN7android8hardware4wifi10supplicant4V1_019BnHwSupplicantIface16_hidl_addNetworkEPNS_4hidl4base4V1_08BnHwBaseERKNS0_6ParcelEPSA_NSt3__18functionIFvRSA_EEE
_ZN7android8hardware4wifi10supplicant4V1_019BnHwSupplicantIface16_hidl_getNetworkEPNS_4hidl4base4V1_08BnHwBaseERKNS0_6ParcelEPSA_NSt3__18functionIFvRSA_EEE
_ZN7android8hardware4wifi10supplicant4V1_019BnHwSupplicantIface18_hidl_listNetworksEPNS_4hidl4base4V1_08BnHwBaseERKNS0_6ParcelEPSA_NSt3__18functionIFvRSA_EEE
_ZN7android8hardware4wifi10supplicant4V1_019BnHwSupplicantIface19_hidl_removeNetworkEPNS_4hidl4base4V1_08BnHwBaseERKNS0_6ParcelEPSA_NSt3__18functionIFvRSA_EEE
_ZN7android8hardware4wifi10supplicant4V1_019BnHwSupplicantIface21_hidl_setWpsModelNameEPNS_4hidl4base4V1_08BnHwBaseERKNS0_6ParcelEPSA_NSt3__18functionIFvRSA_EEE
_ZN7android8hardware4wifi10supplicant4V1_019BnHwSupplicantIface22_hidl_setWpsDeviceNameEPNS_4hidl4base4V1_08BnHwBaseERKNS0_6ParcelEPSA_NSt3__18functionIFvRSA_EEE
_ZN7android8hardware4wifi10supplicant4V1_019BnHwSupplicantIface22_hidl_setWpsDeviceTypeEPNS_4hidl4base4V1_08BnHwBaseERKNS0_6ParcelEPSA_NSt3__18functionIFvRSA_EEE
_ZN7android8hardware4wifi10supplicant4V1_019BnHwSupplicantIface23_hidl_setWpsModelNumberEPNS_4hidl4base4V1_08BnHwBaseERKNS0_6ParcelEPSA_NSt3__18functionIFvRSA_EEE
_ZN7android8hardware4wifi10supplicant4V1_019BnHwSupplicantIface24_hidl_setWpsManufacturerEPNS_4hidl4base4V1_08BnHwBaseERKNS0_6ParcelEPSA_NSt3__18functionIFvRSA_EEE
_ZN7android8hardware4wifi10supplicant4V1_019BnHwSupplicantIface24_hidl_setWpsSerialNumberEPNS_4hidl4base4V1_08BnHwBaseERKNS0_6ParcelEPSA_NSt3__18functionIFvRSA_EEE
_ZN7android8hardware4wifi10supplicant4V1_019BnHwSupplicantIface25_hidl_setWpsConfigMethodsEPNS_4hidl4base4V1_08BnHwBaseERKNS0_6ParcelEPSA_NSt3__18functionIFvRSA_EEE
_ZN7android8hardware4wifi10supplicant4V1_019BnHwSupplicantIface4pingEv
_ZN7android8hardware4wifi10supplicant4V1_019BnHwSupplicantIfaceC1ERKNS_2spINS3_16ISupplicantIfaceEEE
_ZN7android8hardware4wifi10supplicant4V1_019BnHwSupplicantIfaceC2ERKNS_2spINS3_16ISupplicantIfaceEEE
_ZN7android8hardware4wifi10supplicant4V1_019BnHwSupplicantIfaceD0Ev
_ZN7android8hardware4wifi10supplicant4V1_019BnHwSupplicantIfaceD1Ev
_ZN7android8hardware4wifi10supplicant4V1_019BnHwSupplicantIfaceD2Ev
_ZN7android8hardware4wifi10supplicant4V1_019BpHwSupplicantIface10addNetworkENSt3__18functionIFvRKNS3_16SupplicantStatusERKNS_2spINS3_18ISupplicantNetworkEEEEEE
_ZN7android8hardware4wifi10supplicant4V1_019BpHwSupplicantIface10getNetworkEjNSt3__18functionIFvRKNS3_16SupplicantStatusERKNS_2spINS3_18ISupplicantNetworkEEEEEE
_ZN7android8hardware4wifi10supplicant4V1_019BpHwSupplicantIface11linkToDeathERKNS_2spINS0_20hidl_death_recipientEEEy
_ZN7android8hardware4wifi10supplicant4V1_019BpHwSupplicantIface12getDebugInfoENSt3__18functionIFvRKNS_4hidl4base4V1_09DebugInfoEEEE
_ZN7android8hardware4wifi10supplicant4V1_019BpHwSupplicantIface12getHashChainENSt3__18functionIFvRKNS0_8hidl_vecINS0_10hidl_arrayIhLj32EJEEEEEEEE
_ZN7android8hardware4wifi10supplicant4V1_019BpHwSupplicantIface12listNetworksENSt3__18functionIFvRKNS3_16SupplicantStatusERKNS0_8hidl_vecIjEEEEE
_ZN7android8hardware4wifi10supplicant4V1_019BpHwSupplicantIface13_hidl_getNameEPNS0_10IInterfaceEPNS0_7details16HidlInstrumentorENSt3__18functionIFvRKNS3_16SupplicantStatusERKNS0_11hidl_stringEEEE
_ZN7android8hardware4wifi10supplicant4V1_019BpHwSupplicantIface13_hidl_getTypeEPNS0_10IInterfaceEPNS0_7details16HidlInstrumentorENSt3__18functionIFvRKNS3_16SupplicantStatusENS3_9IfaceTypeEEEE
_ZN7android8hardware4wifi10supplicant4V1_019BpHwSupplicantIface13removeNetworkEjNSt3__18functionIFvRKNS3_16SupplicantStatusEEEE
_ZN7android8hardware4wifi10supplicant4V1_019BpHwSupplicantIface13unlinkToDeathERKNS_2spINS0_20hidl_death_recipientEEE
_ZN7android8hardware4wifi10supplicant4V1_019BpHwSupplicantIface14interfaceChainENSt3__18functionIFvRKNS0_8hidl_vecINS0_11hidl_stringEEEEEE
_ZN7android8hardware4wifi10supplicant4V1_019BpHwSupplicantIface15setWpsModelNameERKNS0_11hidl_stringENSt3__18functionIFvRKNS3_16SupplicantStatusEEEE
_ZN7android8hardware4wifi10supplicant4V1_019BpHwSupplicantIface16_hidl_addNetworkEPNS0_10IInterfaceEPNS0_7details16HidlInstrumentorENSt3__18functionIFvRKNS3_16SupplicantStatusERKNS_2spINS3_18ISupplicantNetworkEEEEEE
_ZN7android8hardware4wifi10supplicant4V1_019BpHwSupplicantIface16_hidl_getNetworkEPNS0_10IInterfaceEPNS0_7details16HidlInstrumentorEjNSt3__18functionIFvRKNS3_16SupplicantStatusERKNS_2spINS3_18ISupplicantNetworkEEEEEE
_ZN7android8hardware4wifi10supplicant4V1_019BpHwSupplicantIface16setWpsDeviceNameERKNS0_11hidl_stringENSt3__18functionIFvRKNS3_16SupplicantStatusEEEE
_ZN7android8hardware4wifi10supplicant4V1_019BpHwSupplicantIface16setWpsDeviceTypeERKNS0_10hidl_arrayIhLj8EJEEENSt3__18functionIFvRKNS3_16SupplicantStatusEEEE
_ZN7android8hardware4wifi10supplicant4V1_019BpHwSupplicantIface17setWpsModelNumberERKNS0_11hidl_stringENSt3__18functionIFvRKNS3_16SupplicantStatusEEEE
_ZN7android8hardware4wifi10supplicant4V1_019BpHwSupplicantIface18_hidl_listNetworksEPNS0_10IInterfaceEPNS0_7details16HidlInstrumentorENSt3__18functionIFvRKNS3_16SupplicantStatusERKNS0_8hidl_vecIjEEEEE
_ZN7android8hardware4wifi10supplicant4V1_019BpHwSupplicantIface18setWpsManufacturerERKNS0_11hidl_stringENSt3__18functionIFvRKNS3_16SupplicantStatusEEEE
_ZN7android8hardware4wifi10supplicant4V1_019BpHwSupplicantIface18setWpsSerialNumberERKNS0_11hidl_stringENSt3__18functionIFvRKNS3_16SupplicantStatusEEEE
_ZN7android8hardware4wifi10supplicant4V1_019BpHwSupplicantIface19_hidl_removeNetworkEPNS0_10IInterfaceEPNS0_7details16HidlInstrumentorEjNSt3__18functionIFvRKNS3_16SupplicantStatusEEEE
_ZN7android8hardware4wifi10supplicant4V1_019BpHwSupplicantIface19interfaceDescriptorENSt3__18functionIFvRKNS0_11hidl_stringEEEE
_ZN7android8hardware4wifi10supplicant4V1_019BpHwSupplicantIface19setWpsConfigMethodsEtNSt3__18functionIFvRKNS3_16SupplicantStatusEEEE
_ZN7android8hardware4wifi10supplicant4V1_019BpHwSupplicantIface21_hidl_setWpsModelNameEPNS0_10IInterfaceEPNS0_7details16HidlInstrumentorERKNS0_11hidl_stringENSt3__18functionIFvRKNS3_16SupplicantStatusEEEE
_ZN7android8hardware4wifi10supplicant4V1_019BpHwSupplicantIface21notifySyspropsChangedEv
_ZN7android8hardware4wifi10supplicant4V1_019BpHwSupplicantIface21setHALInstrumentationEv
_ZN7android8hardware4wifi10supplicant4V1_019BpHwSupplicantIface22_hidl_setWpsDeviceNameEPNS0_10IInterfaceEPNS0_7details16HidlInstrumentorERKNS0_11hidl_stringENSt3__18functionIFvRKNS3_16SupplicantStatusEEEE
_ZN7android8hardware4wifi10supplicant4V1_019BpHwSupplicantIface22_hidl_setWpsDeviceTypeEPNS0_10IInterfaceEPNS0_7details16HidlInstrumentorERKNS0_10hidl_arrayIhLj8EJEEENSt3__18functionIFvRKNS3_16SupplicantStatusEEEE
_ZN7android8hardware4wifi10supplicant4V1_019BpHwSupplicantIface23_hidl_setWpsModelNumberEPNS0_10IInterfaceEPNS0_7details16HidlInstrumentorERKNS0_11hidl_stringENSt3__18functionIFvRKNS3_16SupplicantStatusEEEE
_ZN7android8hardware4wifi10supplicant4V1_019BpHwSupplicantIface24_hidl_setWpsManufacturerEPNS0_10IInterfaceEPNS0_7details16HidlInstrumentorERKNS0_11hidl_stringENSt3__18functionIFvRKNS3_16SupplicantStatusEEEE
_ZN7android8hardware4wifi10supplicant4V1_019BpHwSupplicantIface24_hidl_setWpsSerialNumberEPNS0_10IInterfaceEPNS0_7details16HidlInstrumentorERKNS0_11hidl_stringENSt3__18functionIFvRKNS3_16SupplicantStatusEEEE
_ZN7android8hardware4wifi10supplicant4V1_019BpHwSupplicantIface25_hidl_setWpsConfigMethodsEPNS0_10IInterfaceEPNS0_7details16HidlInstrumentorEtNSt3__18functionIFvRKNS3_16SupplicantStatusEEEE
_ZN7android8hardware4wifi10supplicant4V1_019BpHwSupplicantIface4pingEv
_ZN7android8hardware4wifi10supplicant4V1_019BpHwSupplicantIface5debugERKNS0_11hidl_handleERKNS0_8hidl_vecINS0_11hidl_stringEEE
_ZN7android8hardware4wifi10supplicant4V1_019BpHwSupplicantIface7getNameENSt3__18functionIFvRKNS3_16SupplicantStatusERKNS0_11hidl_stringEEEE
_ZN7android8hardware4wifi10supplicant4V1_019BpHwSupplicantIface7getTypeENSt3__18functionIFvRKNS3_16SupplicantStatusENS3_9IfaceTypeEEEE
_ZN7android8hardware4wifi10supplicant4V1_019BpHwSupplicantIfaceC1ERKNS_2spINS0_7IBinderEEE
_ZN7android8hardware4wifi10supplicant4V1_019BpHwSupplicantIfaceC2ERKNS_2spINS0_7IBinderEEE
_ZN7android8hardware4wifi10supplicant4V1_019BsSupplicantNetwork13addOnewayTaskENSt3__18functionIFvvEEE
_ZN7android8hardware4wifi10supplicant4V1_019BsSupplicantNetworkC1ENS_2spINS3_18ISupplicantNetworkEEE
_ZN7android8hardware4wifi10supplicant4V1_019BsSupplicantNetworkC2ENS_2spINS3_18ISupplicantNetworkEEE
_ZN7android8hardware4wifi10supplicant4V1_019ISupplicantCallback10descriptorE
_ZN7android8hardware4wifi10supplicant4V1_019ISupplicantCallback10getServiceERKNSt3__112basic_stringIcNS5_11char_traitsIcEENS5_9allocatorIcEEEEb
_ZN7android8hardware4wifi10supplicant4V1_019ISupplicantCallback11linkToDeathERKNS_2spINS0_20hidl_death_recipientEEEy
_ZN7android8hardware4wifi10supplicant4V1_019ISupplicantCallback12getDebugInfoENSt3__18functionIFvRKNS_4hidl4base4V1_09DebugInfoEEEE
_ZN7android8hardware4wifi10supplicant4V1_019ISupplicantCallback12getHashChainENSt3__18functionIFvRKNS0_8hidl_vecINS0_10hidl_arrayIhLj32EJEEEEEEEE
_ZN7android8hardware4wifi10supplicant4V1_019ISupplicantCallback13tryGetServiceERKNSt3__112basic_stringIcNS5_11char_traitsIcEENS5_9allocatorIcEEEEb
_ZN7android8hardware4wifi10supplicant4V1_019ISupplicantCallback13unlinkToDeathERKNS_2spINS0_20hidl_death_recipientEEE
_ZN7android8hardware4wifi10supplicant4V1_019ISupplicantCallback14interfaceChainENSt3__18functionIFvRKNS0_8hidl_vecINS0_11hidl_stringEEEEEE
_ZN7android8hardware4wifi10supplicant4V1_019ISupplicantCallback17registerAsServiceERKNSt3__112basic_stringIcNS5_11char_traitsIcEENS5_9allocatorIcEEEE
_ZN7android8hardware4wifi10supplicant4V1_019ISupplicantCallback19interfaceDescriptorENSt3__18functionIFvRKNS0_11hidl_stringEEEE
_ZN7android8hardware4wifi10supplicant4V1_019ISupplicantCallback21notifySyspropsChangedEv
_ZN7android8hardware4wifi10supplicant4V1_019ISupplicantCallback21setHALInstrumentationEv
_ZN7android8hardware4wifi10supplicant4V1_019ISupplicantCallback24registerForNotificationsERKNSt3__112basic_stringIcNS5_11char_traitsIcEENS5_9allocatorIcEEEERKNS_2spINS_4hidl7manager4V1_020IServiceNotificationEEE
_ZN7android8hardware4wifi10supplicant4V1_019ISupplicantCallback4pingEv
_ZN7android8hardware4wifi10supplicant4V1_019ISupplicantCallback5debugERKNS0_11hidl_handleERKNS0_8hidl_vecINS0_11hidl_stringEEE
_ZN7android8hardware4wifi10supplicant4V1_019ISupplicantCallback8castFromERKNS_2spINS_4hidl4base4V1_05IBaseEEEb
_ZN7android8hardware4wifi10supplicant4V1_019ISupplicantCallback8castFromERKNS_2spIS4_EEb
_ZN7android8hardware4wifi10supplicant4V1_019ISupplicantP2pIface10descriptorE
_ZN7android8hardware4wifi10supplicant4V1_019ISupplicantP2pIface10getServiceERKNSt3__112basic_stringIcNS5_11char_traitsIcEENS5_9allocatorIcEEEEb
_ZN7android8hardware4wifi10supplicant4V1_019ISupplicantP2pIface11linkToDeathERKNS_2spINS0_20hidl_death_recipientEEEy
_ZN7android8hardware4wifi10supplicant4V1_019ISupplicantP2pIface12getDebugInfoENSt3__18functionIFvRKNS_4hidl4base4V1_09DebugInfoEEEE
_ZN7android8hardware4wifi10supplicant4V1_019ISupplicantP2pIface12getHashChainENSt3__18functionIFvRKNS0_8hidl_vecINS0_10hidl_arrayIhLj32EJEEEEEEEE
_ZN7android8hardware4wifi10supplicant4V1_019ISupplicantP2pIface13tryGetServiceERKNSt3__112basic_stringIcNS5_11char_traitsIcEENS5_9allocatorIcEEEEb
_ZN7android8hardware4wifi10supplicant4V1_019ISupplicantP2pIface13unlinkToDeathERKNS_2spINS0_20hidl_death_recipientEEE
_ZN7android8hardware4wifi10supplicant4V1_019ISupplicantP2pIface14interfaceChainENSt3__18functionIFvRKNS0_8hidl_vecINS0_11hidl_stringEEEEEE
_ZN7android8hardware4wifi10supplicant4V1_019ISupplicantP2pIface17registerAsServiceERKNSt3__112basic_stringIcNS5_11char_traitsIcEENS5_9allocatorIcEEEE
_ZN7android8hardware4wifi10supplicant4V1_019ISupplicantP2pIface19interfaceDescriptorENSt3__18functionIFvRKNS0_11hidl_stringEEEE
_ZN7android8hardware4wifi10supplicant4V1_019ISupplicantP2pIface21notifySyspropsChangedEv
_ZN7android8hardware4wifi10supplicant4V1_019ISupplicantP2pIface21setHALInstrumentationEv
_ZN7android8hardware4wifi10supplicant4V1_019ISupplicantP2pIface24registerForNotificationsERKNSt3__112basic_stringIcNS5_11char_traitsIcEENS5_9allocatorIcEEEERKNS_2spINS_4hidl7manager4V1_020IServiceNotificationEEE
_ZN7android8hardware4wifi10supplicant4V1_019ISupplicantP2pIface4pingEv
_ZN7android8hardware4wifi10supplicant4V1_019ISupplicantP2pIface5debugERKNS0_11hidl_handleERKNS0_8hidl_vecINS0_11hidl_stringEEE
_ZN7android8hardware4wifi10supplicant4V1_019ISupplicantP2pIface8castFromERKNS_2spINS3_16ISupplicantIfaceEEEb
_ZN7android8hardware4wifi10supplicant4V1_019ISupplicantP2pIface8castFromERKNS_2spINS_4hidl4base4V1_05IBaseEEEb
_ZN7android8hardware4wifi10supplicant4V1_019ISupplicantP2pIface8castFromERKNS_2spIS4_EEb
_ZN7android8hardware4wifi10supplicant4V1_019ISupplicantStaIface10descriptorE
_ZN7android8hardware4wifi10supplicant4V1_019ISupplicantStaIface10getServiceERKNSt3__112basic_stringIcNS5_11char_traitsIcEENS5_9allocatorIcEEEEb
_ZN7android8hardware4wifi10supplicant4V1_019ISupplicantStaIface11linkToDeathERKNS_2spINS0_20hidl_death_recipientEEEy
_ZN7android8hardware4wifi10supplicant4V1_019ISupplicantStaIface12getDebugInfoENSt3__18functionIFvRKNS_4hidl4base4V1_09DebugInfoEEEE
_ZN7android8hardware4wifi10supplicant4V1_019ISupplicantStaIface12getHashChainENSt3__18functionIFvRKNS0_8hidl_vecINS0_10hidl_arrayIhLj32EJEEEEEEEE
_ZN7android8hardware4wifi10supplicant4V1_019ISupplicantStaIface13tryGetServiceERKNSt3__112basic_stringIcNS5_11char_traitsIcEENS5_9allocatorIcEEEEb
_ZN7android8hardware4wifi10supplicant4V1_019ISupplicantStaIface13unlinkToDeathERKNS_2spINS0_20hidl_death_recipientEEE
_ZN7android8hardware4wifi10supplicant4V1_019ISupplicantStaIface14interfaceChainENSt3__18functionIFvRKNS0_8hidl_vecINS0_11hidl_stringEEEEEE
_ZN7android8hardware4wifi10supplicant4V1_019ISupplicantStaIface17registerAsServiceERKNSt3__112basic_stringIcNS5_11char_traitsIcEENS5_9allocatorIcEEEE
_ZN7android8hardware4wifi10supplicant4V1_019ISupplicantStaIface19interfaceDescriptorENSt3__18functionIFvRKNS0_11hidl_stringEEEE
_ZN7android8hardware4wifi10supplicant4V1_019ISupplicantStaIface21notifySyspropsChangedEv
_ZN7android8hardware4wifi10supplicant4V1_019ISupplicantStaIface21setHALInstrumentationEv
_ZN7android8hardware4wifi10supplicant4V1_019ISupplicantStaIface24registerForNotificationsERKNSt3__112basic_stringIcNS5_11char_traitsIcEENS5_9allocatorIcEEEERKNS_2spINS_4hidl7manager4V1_020IServiceNotificationEEE
_ZN7android8hardware4wifi10supplicant4V1_019ISupplicantStaIface4pingEv
_ZN7android8hardware4wifi10supplicant4V1_019ISupplicantStaIface5debugERKNS0_11hidl_handleERKNS0_8hidl_vecINS0_11hidl_stringEEE
_ZN7android8hardware4wifi10supplicant4V1_019ISupplicantStaIface8castFromERKNS_2spINS3_16ISupplicantIfaceEEEb
_ZN7android8hardware4wifi10supplicant4V1_019ISupplicantStaIface8castFromERKNS_2spINS_4hidl4base4V1_05IBaseEEEb
_ZN7android8hardware4wifi10supplicant4V1_019ISupplicantStaIface8castFromERKNS_2spIS4_EEb
_ZN7android8hardware4wifi10supplicant4V1_020BsSupplicantCallback13addOnewayTaskENSt3__18functionIFvvEEE
_ZN7android8hardware4wifi10supplicant4V1_020BsSupplicantCallbackC1ENS_2spINS3_19ISupplicantCallbackEEE
_ZN7android8hardware4wifi10supplicant4V1_020BsSupplicantCallbackC2ENS_2spINS3_19ISupplicantCallbackEEE
_ZN7android8hardware4wifi10supplicant4V1_020BsSupplicantP2pIface13addOnewayTaskENSt3__18functionIFvvEEE
_ZN7android8hardware4wifi10supplicant4V1_020BsSupplicantP2pIfaceC1ENS_2spINS3_19ISupplicantP2pIfaceEEE
_ZN7android8hardware4wifi10supplicant4V1_020BsSupplicantP2pIfaceC2ENS_2spINS3_19ISupplicantP2pIfaceEEE
_ZN7android8hardware4wifi10supplicant4V1_020BsSupplicantStaIface13addOnewayTaskENSt3__18functionIFvvEEE
_ZN7android8hardware4wifi10supplicant4V1_020BsSupplicantStaIfaceC1ENS_2spINS3_19ISupplicantStaIfaceEEE
_ZN7android8hardware4wifi10supplicant4V1_020BsSupplicantStaIfaceC2ENS_2spINS3_19ISupplicantStaIfaceEEE
_ZN7android8hardware4wifi10supplicant4V1_021BnHwSupplicantNetwork10onTransactEjRKNS0_6ParcelEPS5_jNSt3__18functionIFvRS5_EEE
_ZN7android8hardware4wifi10supplicant4V1_021BnHwSupplicantNetwork11_hidl_getIdEPNS_4hidl4base4V1_08BnHwBaseERKNS0_6ParcelEPSA_NSt3__18functionIFvRSA_EEE
_ZN7android8hardware4wifi10supplicant4V1_021BnHwSupplicantNetwork12getDebugInfoENSt3__18functionIFvRKNS_4hidl4base4V1_09DebugInfoEEEE
_ZN7android8hardware4wifi10supplicant4V1_021BnHwSupplicantNetwork13_hidl_getTypeEPNS_4hidl4base4V1_08BnHwBaseERKNS0_6ParcelEPSA_NSt3__18functionIFvRSA_EEE
_ZN7android8hardware4wifi10supplicant4V1_021BnHwSupplicantNetwork22_hidl_getInterfaceNameEPNS_4hidl4base4V1_08BnHwBaseERKNS0_6ParcelEPSA_NSt3__18functionIFvRSA_EEE
_ZN7android8hardware4wifi10supplicant4V1_021BnHwSupplicantNetwork4pingEv
_ZN7android8hardware4wifi10supplicant4V1_021BnHwSupplicantNetworkC1ERKNS_2spINS3_18ISupplicantNetworkEEE
_ZN7android8hardware4wifi10supplicant4V1_021BnHwSupplicantNetworkC2ERKNS_2spINS3_18ISupplicantNetworkEEE
_ZN7android8hardware4wifi10supplicant4V1_021BnHwSupplicantNetworkD0Ev
_ZN7android8hardware4wifi10supplicant4V1_021BnHwSupplicantNetworkD1Ev
_ZN7android8hardware4wifi10supplicant4V1_021BnHwSupplicantNetworkD2Ev
_ZN7android8hardware4wifi10supplicant4V1_021BpHwSupplicantNetwork11_hidl_getIdEPNS0_10IInterfaceEPNS0_7details16HidlInstrumentorENSt3__18functionIFvRKNS3_16SupplicantStatusEjEEE
_ZN7android8hardware4wifi10supplicant4V1_021BpHwSupplicantNetwork11linkToDeathERKNS_2spINS0_20hidl_death_recipientEEEy
_ZN7android8hardware4wifi10supplicant4V1_021BpHwSupplicantNetwork12getDebugInfoENSt3__18functionIFvRKNS_4hidl4base4V1_09DebugInfoEEEE
_ZN7android8hardware4wifi10supplicant4V1_021BpHwSupplicantNetwork12getHashChainENSt3__18functionIFvRKNS0_8hidl_vecINS0_10hidl_arrayIhLj32EJEEEEEEEE
_ZN7android8hardware4wifi10supplicant4V1_021BpHwSupplicantNetwork13_hidl_getTypeEPNS0_10IInterfaceEPNS0_7details16HidlInstrumentorENSt3__18functionIFvRKNS3_16SupplicantStatusENS3_9IfaceTypeEEEE
_ZN7android8hardware4wifi10supplicant4V1_021BpHwSupplicantNetwork13unlinkToDeathERKNS_2spINS0_20hidl_death_recipientEEE
_ZN7android8hardware4wifi10supplicant4V1_021BpHwSupplicantNetwork14interfaceChainENSt3__18functionIFvRKNS0_8hidl_vecINS0_11hidl_stringEEEEEE
_ZN7android8hardware4wifi10supplicant4V1_021BpHwSupplicantNetwork16getInterfaceNameENSt3__18functionIFvRKNS3_16SupplicantStatusERKNS0_11hidl_stringEEEE
_ZN7android8hardware4wifi10supplicant4V1_021BpHwSupplicantNetwork19interfaceDescriptorENSt3__18functionIFvRKNS0_11hidl_stringEEEE
_ZN7android8hardware4wifi10supplicant4V1_021BpHwSupplicantNetwork21notifySyspropsChangedEv
_ZN7android8hardware4wifi10supplicant4V1_021BpHwSupplicantNetwork21setHALInstrumentationEv
_ZN7android8hardware4wifi10supplicant4V1_021BpHwSupplicantNetwork22_hidl_getInterfaceNameEPNS0_10IInterfaceEPNS0_7details16HidlInstrumentorENSt3__18functionIFvRKNS3_16SupplicantStatusERKNS0_11hidl_stringEEEE
_ZN7android8hardware4wifi10supplicant4V1_021BpHwSupplicantNetwork4pingEv
_ZN7android8hardware4wifi10supplicant4V1_021BpHwSupplicantNetwork5debugERKNS0_11hidl_handleERKNS0_8hidl_vecINS0_11hidl_stringEEE
_ZN7android8hardware4wifi10supplicant4V1_021BpHwSupplicantNetwork5getIdENSt3__18functionIFvRKNS3_16SupplicantStatusEjEEE
_ZN7android8hardware4wifi10supplicant4V1_021BpHwSupplicantNetwork7getTypeENSt3__18functionIFvRKNS3_16SupplicantStatusENS3_9IfaceTypeEEEE
_ZN7android8hardware4wifi10supplicant4V1_021BpHwSupplicantNetworkC1ERKNS_2spINS0_7IBinderEEE
_ZN7android8hardware4wifi10supplicant4V1_021BpHwSupplicantNetworkC2ERKNS_2spINS0_7IBinderEEE
_ZN7android8hardware4wifi10supplicant4V1_021ISupplicantP2pNetwork10descriptorE
_ZN7android8hardware4wifi10supplicant4V1_021ISupplicantP2pNetwork10getServiceERKNSt3__112basic_stringIcNS5_11char_traitsIcEENS5_9allocatorIcEEEEb
_ZN7android8hardware4wifi10supplicant4V1_021ISupplicantP2pNetwork11linkToDeathERKNS_2spINS0_20hidl_death_recipientEEEy
_ZN7android8hardware4wifi10supplicant4V1_021ISupplicantP2pNetwork12getDebugInfoENSt3__18functionIFvRKNS_4hidl4base4V1_09DebugInfoEEEE
_ZN7android8hardware4wifi10supplicant4V1_021ISupplicantP2pNetwork12getHashChainENSt3__18functionIFvRKNS0_8hidl_vecINS0_10hidl_arrayIhLj32EJEEEEEEEE
_ZN7android8hardware4wifi10supplicant4V1_021ISupplicantP2pNetwork13tryGetServiceERKNSt3__112basic_stringIcNS5_11char_traitsIcEENS5_9allocatorIcEEEEb
_ZN7android8hardware4wifi10supplicant4V1_021ISupplicantP2pNetwork13unlinkToDeathERKNS_2spINS0_20hidl_death_recipientEEE
_ZN7android8hardware4wifi10supplicant4V1_021ISupplicantP2pNetwork14interfaceChainENSt3__18functionIFvRKNS0_8hidl_vecINS0_11hidl_stringEEEEEE
_ZN7android8hardware4wifi10supplicant4V1_021ISupplicantP2pNetwork17registerAsServiceERKNSt3__112basic_stringIcNS5_11char_traitsIcEENS5_9allocatorIcEEEE
_ZN7android8hardware4wifi10supplicant4V1_021ISupplicantP2pNetwork19interfaceDescriptorENSt3__18functionIFvRKNS0_11hidl_stringEEEE
_ZN7android8hardware4wifi10supplicant4V1_021ISupplicantP2pNetwork21notifySyspropsChangedEv
_ZN7android8hardware4wifi10supplicant4V1_021ISupplicantP2pNetwork21setHALInstrumentationEv
_ZN7android8hardware4wifi10supplicant4V1_021ISupplicantP2pNetwork24registerForNotificationsERKNSt3__112basic_stringIcNS5_11char_traitsIcEENS5_9allocatorIcEEEERKNS_2spINS_4hidl7manager4V1_020IServiceNotificationEEE
_ZN7android8hardware4wifi10supplicant4V1_021ISupplicantP2pNetwork4pingEv
_ZN7android8hardware4wifi10supplicant4V1_021ISupplicantP2pNetwork5debugERKNS0_11hidl_handleERKNS0_8hidl_vecINS0_11hidl_stringEEE
_ZN7android8hardware4wifi10supplicant4V1_021ISupplicantP2pNetwork8castFromERKNS_2spINS3_18ISupplicantNetworkEEEb
_ZN7android8hardware4wifi10supplicant4V1_021ISupplicantP2pNetwork8castFromERKNS_2spINS_4hidl4base4V1_05IBaseEEEb
_ZN7android8hardware4wifi10supplicant4V1_021ISupplicantP2pNetwork8castFromERKNS_2spIS4_EEb
_ZN7android8hardware4wifi10supplicant4V1_021ISupplicantStaNetwork10descriptorE
_ZN7android8hardware4wifi10supplicant4V1_021ISupplicantStaNetwork10getServiceERKNSt3__112basic_stringIcNS5_11char_traitsIcEENS5_9allocatorIcEEEEb
_ZN7android8hardware4wifi10supplicant4V1_021ISupplicantStaNetwork11linkToDeathERKNS_2spINS0_20hidl_death_recipientEEEy
_ZN7android8hardware4wifi10supplicant4V1_021ISupplicantStaNetwork12getDebugInfoENSt3__18functionIFvRKNS_4hidl4base4V1_09DebugInfoEEEE
_ZN7android8hardware4wifi10supplicant4V1_021ISupplicantStaNetwork12getHashChainENSt3__18functionIFvRKNS0_8hidl_vecINS0_10hidl_arrayIhLj32EJEEEEEEEE
_ZN7android8hardware4wifi10supplicant4V1_021ISupplicantStaNetwork13tryGetServiceERKNSt3__112basic_stringIcNS5_11char_traitsIcEENS5_9allocatorIcEEEEb
_ZN7android8hardware4wifi10supplicant4V1_021ISupplicantStaNetwork13unlinkToDeathERKNS_2spINS0_20hidl_death_recipientEEE
_ZN7android8hardware4wifi10supplicant4V1_021ISupplicantStaNetwork14interfaceChainENSt3__18functionIFvRKNS0_8hidl_vecINS0_11hidl_stringEEEEEE
_ZN7android8hardware4wifi10supplicant4V1_021ISupplicantStaNetwork17registerAsServiceERKNSt3__112basic_stringIcNS5_11char_traitsIcEENS5_9allocatorIcEEEE
_ZN7android8hardware4wifi10supplicant4V1_021ISupplicantStaNetwork19interfaceDescriptorENSt3__18functionIFvRKNS0_11hidl_stringEEEE
_ZN7android8hardware4wifi10supplicant4V1_021ISupplicantStaNetwork21notifySyspropsChangedEv
_ZN7android8hardware4wifi10supplicant4V1_021ISupplicantStaNetwork21setHALInstrumentationEv
_ZN7android8hardware4wifi10supplicant4V1_021ISupplicantStaNetwork24registerForNotificationsERKNSt3__112basic_stringIcNS5_11char_traitsIcEENS5_9allocatorIcEEEERKNS_2spINS_4hidl7manager4V1_020IServiceNotificationEEE
_ZN7android8hardware4wifi10supplicant4V1_021ISupplicantStaNetwork4pingEv
_ZN7android8hardware4wifi10supplicant4V1_021ISupplicantStaNetwork5debugERKNS0_11hidl_handleERKNS0_8hidl_vecINS0_11hidl_stringEEE
_ZN7android8hardware4wifi10supplicant4V1_021ISupplicantStaNetwork8castFromERKNS_2spINS3_18ISupplicantNetworkEEEb
_ZN7android8hardware4wifi10supplicant4V1_021ISupplicantStaNetwork8castFromERKNS_2spINS_4hidl4base4V1_05IBaseEEEb
_ZN7android8hardware4wifi10supplicant4V1_021ISupplicantStaNetwork8castFromERKNS_2spIS4_EEb
_ZN7android8hardware4wifi10supplicant4V1_021writeEmbeddedToParcelERKNS3_11ISupplicant9IfaceInfoEPNS0_6ParcelEjj
_ZN7android8hardware4wifi10supplicant4V1_021writeEmbeddedToParcelERKNS3_16SupplicantStatusEPNS0_6ParcelEjj
_ZN7android8hardware4wifi10supplicant4V1_021writeEmbeddedToParcelERKNS3_21ISupplicantStaNetwork35NetworkResponseEapSimUmtsAuthParamsEPNS0_6ParcelEjj
_ZN7android8hardware4wifi10supplicant4V1_021writeEmbeddedToParcelERKNS3_27ISupplicantStaIfaceCallback12Hs20AnqpDataEPNS0_6ParcelEjj
_ZN7android8hardware4wifi10supplicant4V1_021writeEmbeddedToParcelERKNS3_27ISupplicantStaIfaceCallback8AnqpDataEPNS0_6ParcelEjj
_ZN7android8hardware4wifi10supplicant4V1_021writeEmbeddedToParcelERKNS3_29ISupplicantStaNetworkCallback33NetworkRequestEapSimGsmAuthParamsEPNS0_6ParcelEjj
_ZN7android8hardware4wifi10supplicant4V1_022BnHwSupplicantCallback10onTransactEjRKNS0_6ParcelEPS5_jNSt3__18functionIFvRS5_EEE
_ZN7android8hardware4wifi10supplicant4V1_022BnHwSupplicantCallback12getDebugInfoENSt3__18functionIFvRKNS_4hidl4base4V1_09DebugInfoEEEE
_ZN7android8hardware4wifi10supplicant4V1_022BnHwSupplicantCallback19_hidl_onTerminatingEPNS_4hidl4base4V1_08BnHwBaseERKNS0_6ParcelEPSA_NSt3__18functionIFvRSA_EEE
_ZN7android8hardware4wifi10supplicant4V1_022BnHwSupplicantCallback24_hidl_onInterfaceCreatedEPNS_4hidl4base4V1_08BnHwBaseERKNS0_6ParcelEPSA_NSt3__18functionIFvRSA_EEE
_ZN7android8hardware4wifi10supplicant4V1_022BnHwSupplicantCallback24_hidl_onInterfaceRemovedEPNS_4hidl4base4V1_08BnHwBaseERKNS0_6ParcelEPSA_NSt3__18functionIFvRSA_EEE
_ZN7android8hardware4wifi10supplicant4V1_022BnHwSupplicantCallback4pingEv
_ZN7android8hardware4wifi10supplicant4V1_022BnHwSupplicantCallbackC1ERKNS_2spINS3_19ISupplicantCallbackEEE
_ZN7android8hardware4wifi10supplicant4V1_022BnHwSupplicantCallbackC2ERKNS_2spINS3_19ISupplicantCallbackEEE
_ZN7android8hardware4wifi10supplicant4V1_022BnHwSupplicantCallbackD0Ev
_ZN7android8hardware4wifi10supplicant4V1_022BnHwSupplicantCallbackD1Ev
_ZN7android8hardware4wifi10supplicant4V1_022BnHwSupplicantCallbackD2Ev
_ZN7android8hardware4wifi10supplicant4V1_022BnHwSupplicantP2pIface10_hidl_findEPNS_4hidl4base4V1_08BnHwBaseERKNS0_6ParcelEPSA_NSt3__18functionIFvRSA_EEE
_ZN7android8hardware4wifi10supplicant4V1_022BnHwSupplicantP2pIface10onTransactEjRKNS0_6ParcelEPS5_jNSt3__18functionIFvRS5_EEE
_ZN7android8hardware4wifi10supplicant4V1_022BnHwSupplicantP2pIface11_hidl_flushEPNS_4hidl4base4V1_08BnHwBaseERKNS0_6ParcelEPSA_NSt3__18functionIFvRSA_EEE
_ZN7android8hardware4wifi10supplicant4V1_022BnHwSupplicantP2pIface12_hidl_inviteEPNS_4hidl4base4V1_08BnHwBaseERKNS0_6ParcelEPSA_NSt3__18functionIFvRSA_EEE
_ZN7android8hardware4wifi10supplicant4V1_022BnHwSupplicantP2pIface12_hidl_rejectEPNS_4hidl4base4V1_08BnHwBaseERKNS0_6ParcelEPSA_NSt3__18functionIFvRSA_EEE
_ZN7android8hardware4wifi10supplicant4V1_022BnHwSupplicantP2pIface12getDebugInfoENSt3__18functionIFvRKNS_4hidl4base4V1_09DebugInfoEEEE
_ZN7android8hardware4wifi10supplicant4V1_022BnHwSupplicantP2pIface13_hidl_connectEPNS_4hidl4base4V1_08BnHwBaseERKNS0_6ParcelEPSA_NSt3__18functionIFvRSA_EEE
_ZN7android8hardware4wifi10supplicant4V1_022BnHwSupplicantP2pIface13_hidl_getSsidEPNS_4hidl4base4V1_08BnHwBaseERKNS0_6ParcelEPSA_NSt3__18functionIFvRSA_EEE
_ZN7android8hardware4wifi10supplicant4V1_022BnHwSupplicantP2pIface14_hidl_addGroupEPNS_4hidl4base4V1_08BnHwBaseERKNS0_6ParcelEPSA_NSt3__18functionIFvRSA_EEE
_ZN7android8hardware4wifi10supplicant4V1_022BnHwSupplicantP2pIface14_hidl_reinvokeEPNS_4hidl4base4V1_08BnHwBaseERKNS0_6ParcelEPSA_NSt3__18functionIFvRSA_EEE
_ZN7android8hardware4wifi10supplicant4V1_022BnHwSupplicantP2pIface14_hidl_stopFindEPNS_4hidl4base4V1_08BnHwBaseERKNS0_6ParcelEPSA_NSt3__18functionIFvRSA_EEE
_ZN7android8hardware4wifi10supplicant4V1_022BnHwSupplicantP2pIface15_hidl_cancelWpsEPNS_4hidl4base4V1_08BnHwBaseERKNS0_6ParcelEPSA_NSt3__18functionIFvRSA_EEE
_ZN7android8hardware4wifi10supplicant4V1_022BnHwSupplicantP2pIface15_hidl_enableWfdEPNS_4hidl4base4V1_08BnHwBaseERKNS0_6ParcelEPSA_NSt3__18functionIFvRSA_EEE
_ZN7android8hardware4wifi10supplicant4V1_022BnHwSupplicantP2pIface16_hidl_saveConfigEPNS_4hidl4base4V1_08BnHwBaseERKNS0_6ParcelEPSA_NSt3__18functionIFvRSA_EEE
_ZN7android8hardware4wifi10supplicant4V1_022BnHwSupplicantP2pIface17_hidl_removeGroupEPNS_4hidl4base4V1_08BnHwBaseERKNS0_6ParcelEPSA_NSt3__18functionIFvRSA_EEE
_ZN7android8hardware4wifi10supplicant4V1_022BnHwSupplicantP2pIface17_hidl_startWpsPbcEPNS_4hidl4base4V1_08BnHwBaseERKNS0_6ParcelEPSA_NSt3__18functionIFvRSA_EEE
_ZN7android8hardware4wifi10supplicant4V1_022BnHwSupplicantP2pIface18_hidl_setGroupIdleEPNS_4hidl4base4V1_08BnHwBaseERKNS0_6ParcelEPSA_NSt3__18functionIFvRSA_EEE
_ZN7android8hardware4wifi10supplicant4V1_022BnHwSupplicantP2pIface18_hidl_setPowerSaveEPNS_4hidl4base4V1_08BnHwBaseERKNS0_6ParcelEPSA_NSt3__18functionIFvRSA_EEE
_ZN7android8hardware4wifi10supplicant4V1_022BnHwSupplicantP2pIface19_hidl_cancelConnectEPNS_4hidl4base4V1_08BnHwBaseERKNS0_6ParcelEPSA_NSt3__18functionIFvRSA_EEE
_ZN7android8hardware4wifi10supplicant4V1_022BnHwSupplicantP2pIface19_hidl_flushServicesEPNS_4hidl4base4V1_08BnHwBaseERKNS0_6ParcelEPSA_NSt3__18functionIFvRSA_EEE
_ZN7android8hardware4wifi10supplicant4V1_022BnHwSupplicantP2pIface20_hidl_addUpnpServiceEPNS_4hidl4base4V1_08BnHwBaseERKNS0_6ParcelEPSA_NSt3__18functionIFvRSA_EEE
_ZN7android8hardware4wifi10supplicant4V1_022BnHwSupplicantP2pIface20_hidl_setSsidPostfixEPNS_4hidl4base4V1_08BnHwBaseERKNS0_6ParcelEPSA_NSt3__18functionIFvRSA_EEE
_ZN7android8hardware4wifi10supplicant4V1_022BnHwSupplicantP2pIface21_hidl_setMiracastModeEPNS_4hidl4base4V1_08BnHwBaseERKNS0_6ParcelEPSA_NSt3__18functionIFvRSA_EEE
_ZN7android8hardware4wifi10supplicant4V1_022BnHwSupplicantP2pIface22_hidl_getDeviceAddressEPNS_4hidl4base4V1_08BnHwBaseERKNS0_6ParcelEPSA_NSt3__18functionIFvRSA_EEE
_ZN7android8hardware4wifi10supplicant4V1_022BnHwSupplicantP2pIface22_hidl_registerCallbackEPNS_4hidl4base4V1_08BnHwBaseERKNS0_6ParcelEPSA_NSt3__18functionIFvRSA_EEE
_ZN7android8hardware4wifi10supplicant4V1_022BnHwSupplicantP2pIface22_hidl_setListenChannelEPNS_4hidl4base4V1_08BnHwBaseERKNS0_6ParcelEPSA_NSt3__18functionIFvRSA_EEE
_ZN7android8hardware4wifi10supplicant4V1_022BnHwSupplicantP2pIface22_hidl_setWfdDeviceInfoEPNS_4hidl4base4V1_08BnHwBaseERKNS0_6ParcelEPSA_NSt3__18functionIFvRSA_EEE
_ZN7android8hardware4wifi10supplicant4V1_022BnHwSupplicantP2pIface23_hidl_addBonjourServiceEPNS_4hidl4base4V1_08BnHwBaseERKNS0_6ParcelEPSA_NSt3__18functionIFvRSA_EEE
_ZN7android8hardware4wifi10supplicant4V1_022BnHwSupplicantP2pIface23_hidl_removeUpnpServiceEPNS_4hidl4base4V1_08BnHwBaseERKNS0_6ParcelEPSA_NSt3__18functionIFvRSA_EEE
_ZN7android8hardware4wifi10supplicant4V1_022BnHwSupplicantP2pIface23_hidl_startWpsPinKeypadEPNS_4hidl4base4V1_08BnHwBaseERKNS0_6ParcelEPSA_NSt3__18functionIFvRSA_EEE
_ZN7android8hardware4wifi10supplicant4V1_022BnHwSupplicantP2pIface24_hidl_configureExtListenEPNS_4hidl4base4V1_08BnHwBaseERKNS0_6ParcelEPSA_NSt3__18functionIFvRSA_EEE
_ZN7android8hardware4wifi10supplicant4V1_022BnHwSupplicantP2pIface24_hidl_getGroupCapabilityEPNS_4hidl4base4V1_08BnHwBaseERKNS0_6ParcelEPSA_NSt3__18functionIFvRSA_EEE
_ZN7android8hardware4wifi10supplicant4V1_022BnHwSupplicantP2pIface24_hidl_provisionDiscoveryEPNS_4hidl4base4V1_08BnHwBaseERKNS0_6ParcelEPSA_NSt3__18functionIFvRSA_EEE
_ZN7android8hardware4wifi10supplicant4V1_022BnHwSupplicantP2pIface24_hidl_startWpsPinDisplayEPNS_4hidl4base4V1_08BnHwBaseERKNS0_6ParcelEPSA_NSt3__18functionIFvRSA_EEE
_ZN7android8hardware4wifi10supplicant4V1_022BnHwSupplicantP2pIface26_hidl_removeBonjourServiceEPNS_4hidl4base4V1_08BnHwBaseERKNS0_6ParcelEPSA_NSt3__18functionIFvRSA_EEE
_ZN7android8hardware4wifi10supplicant4V1_022BnHwSupplicantP2pIface28_hidl_cancelServiceDiscoveryEPNS_4hidl4base4V1_08BnHwBaseERKNS0_6ParcelEPSA_NSt3__18functionIFvRSA_EEE
_ZN7android8hardware4wifi10supplicant4V1_022BnHwSupplicantP2pIface29_hidl_requestServiceDiscoveryEPNS_4hidl4base4V1_08BnHwBaseERKNS0_6ParcelEPSA_NSt3__18functionIFvRSA_EEE
_ZN7android8hardware4wifi10supplicant4V1_022BnHwSupplicantP2pIface30_hidl_setDisallowedFrequenciesEPNS_4hidl4base4V1_08BnHwBaseERKNS0_6ParcelEPSA_NSt3__18functionIFvRSA_EEE
_ZN7android8hardware4wifi10supplicant4V1_022BnHwSupplicantP2pIface31_hidl_reportNfcHandoverResponseEPNS_4hidl4base4V1_08BnHwBaseERKNS0_6ParcelEPSA_NSt3__18functionIFvRSA_EEE
_ZN7android8hardware4wifi10supplicant4V1_022BnHwSupplicantP2pIface33_hidl_reportNfcHandoverInitiationEPNS_4hidl4base4V1_08BnHwBaseERKNS0_6ParcelEPSA_NSt3__18functionIFvRSA_EEE
_ZN7android8hardware4wifi10supplicant4V1_022BnHwSupplicantP2pIface36_hidl_createNfcHandoverSelectMessageEPNS_4hidl4base4V1_08BnHwBaseERKNS0_6ParcelEPSA_NSt3__18functionIFvRSA_EEE
_ZN7android8hardware4wifi10supplicant4V1_022BnHwSupplicantP2pIface37_hidl_createNfcHandoverRequestMessageEPNS_4hidl4base4V1_08BnHwBaseERKNS0_6ParcelEPSA_NSt3__18functionIFvRSA_EEE
_ZN7android8hardware4wifi10supplicant4V1_022BnHwSupplicantP2pIface4pingEv
_ZN7android8hardware4wifi10supplicant4V1_022BnHwSupplicantP2pIfaceC1ERKNS_2spINS3_19ISupplicantP2pIfaceEEE
_ZN7android8hardware4wifi10supplicant4V1_022BnHwSupplicantP2pIfaceC2ERKNS_2spINS3_19ISupplicantP2pIfaceEEE
_ZN7android8hardware4wifi10supplicant4V1_022BnHwSupplicantP2pIfaceD0Ev
_ZN7android8hardware4wifi10supplicant4V1_022BnHwSupplicantP2pIfaceD1Ev
_ZN7android8hardware4wifi10supplicant4V1_022BnHwSupplicantP2pIfaceD2Ev
_ZN7android8hardware4wifi10supplicant4V1_022BnHwSupplicantStaIface10onTransactEjRKNS0_6ParcelEPS5_jNSt3__18functionIFvRS5_EEE
_ZN7android8hardware4wifi10supplicant4V1_022BnHwSupplicantStaIface12getDebugInfoENSt3__18functionIFvRKNS_4hidl4base4V1_09DebugInfoEEEE
_ZN7android8hardware4wifi10supplicant4V1_022BnHwSupplicantStaIface15_hidl_cancelWpsEPNS_4hidl4base4V1_08BnHwBaseERKNS0_6ParcelEPSA_NSt3__18functionIFvRSA_EEE
_ZN7android8hardware4wifi10supplicant4V1_022BnHwSupplicantStaIface15_hidl_reconnectEPNS_4hidl4base4V1_08BnHwBaseERKNS0_6ParcelEPSA_NSt3__18functionIFvRSA_EEE
_ZN7android8hardware4wifi10supplicant4V1_022BnHwSupplicantStaIface16_hidl_disconnectEPNS_4hidl4base4V1_08BnHwBaseERKNS0_6ParcelEPSA_NSt3__18functionIFvRSA_EEE
_ZN7android8hardware4wifi10supplicant4V1_022BnHwSupplicantStaIface17_hidl_addRxFilterEPNS_4hidl4base4V1_08BnHwBaseERKNS0_6ParcelEPSA_NSt3__18functionIFvRSA_EEE
_ZN7android8hardware4wifi10supplicant4V1_022BnHwSupplicantStaIface17_hidl_reassociateEPNS_4hidl4base4V1_08BnHwBaseERKNS0_6ParcelEPSA_NSt3__18functionIFvRSA_EEE
_ZN7android8hardware4wifi10supplicant4V1_022BnHwSupplicantStaIface17_hidl_startWpsPbcEPNS_4hidl4base4V1_08BnHwBaseERKNS0_6ParcelEPSA_NSt3__18functionIFvRSA_EEE
_ZN7android8hardware4wifi10supplicant4V1_022BnHwSupplicantStaIface18_hidl_setPowerSaveEPNS_4hidl4base4V1_08BnHwBaseERKNS0_6ParcelEPSA_NSt3__18functionIFvRSA_EEE
_ZN7android8hardware4wifi10supplicant4V1_022BnHwSupplicantStaIface18_hidl_stopRxFilterEPNS_4hidl4base4V1_08BnHwBaseERKNS0_6ParcelEPSA_NSt3__18functionIFvRSA_EEE
_ZN7android8hardware4wifi10supplicant4V1_022BnHwSupplicantStaIface19_hidl_getMacAddressEPNS_4hidl4base4V1_08BnHwBaseERKNS0_6ParcelEPSA_NSt3__18functionIFvRSA_EEE
_ZN7android8hardware4wifi10supplicant4V1_022BnHwSupplicantStaIface19_hidl_startRxFilterEPNS_4hidl4base4V1_08BnHwBaseERKNS0_6ParcelEPSA_NSt3__18functionIFvRSA_EEE
_ZN7android8hardware4wifi10supplicant4V1_022BnHwSupplicantStaIface20_hidl_removeRxFilterEPNS_4hidl4base4V1_08BnHwBaseERKNS0_6ParcelEPSA_NSt3__18functionIFvRSA_EEE
_ZN7android8hardware4wifi10supplicant4V1_022BnHwSupplicantStaIface20_hidl_setCountryCodeEPNS_4hidl4base4V1_08BnHwBaseERKNS0_6ParcelEPSA_NSt3__18functionIFvRSA_EEE
_ZN7android8hardware4wifi10supplicant4V1_022BnHwSupplicantStaIface20_hidl_setExternalSimEPNS_4hidl4base4V1_08BnHwBaseERKNS0_6ParcelEPSA_NSt3__18functionIFvRSA_EEE
_ZN7android8hardware4wifi10supplicant4V1_022BnHwSupplicantStaIface21_hidl_addExtRadioWorkEPNS_4hidl4base4V1_08BnHwBaseERKNS0_6ParcelEPSA_NSt3__18functionIFvRSA_EEE
_ZN7android8hardware4wifi10supplicant4V1_022BnHwSupplicantStaIface22_hidl_registerCallbackEPNS_4hidl4base4V1_08BnHwBaseERKNS0_6ParcelEPSA_NSt3__18functionIFvRSA_EEE
_ZN7android8hardware4wifi10supplicant4V1_022BnHwSupplicantStaIface23_hidl_initiateAnqpQueryEPNS_4hidl4base4V1_08BnHwBaseERKNS0_6ParcelEPSA_NSt3__18functionIFvRSA_EEE
_ZN7android8hardware4wifi10supplicant4V1_022BnHwSupplicantStaIface23_hidl_initiateTdlsSetupEPNS_4hidl4base4V1_08BnHwBaseERKNS0_6ParcelEPSA_NSt3__18functionIFvRSA_EEE
_ZN7android8hardware4wifi10supplicant4V1_022BnHwSupplicantStaIface23_hidl_startWpsPinKeypadEPNS_4hidl4base4V1_08BnHwBaseERKNS0_6ParcelEPSA_NSt3__18functionIFvRSA_EEE
_ZN7android8hardware4wifi10supplicant4V1_022BnHwSupplicantStaIface23_hidl_startWpsRegistrarEPNS_4hidl4base4V1_08BnHwBaseERKNS0_6ParcelEPSA_NSt3__18functionIFvRSA_EEE
_ZN7android8hardware4wifi10supplicant4V1_022BnHwSupplicantStaIface24_hidl_removeExtRadioWorkEPNS_4hidl4base4V1_08BnHwBaseERKNS0_6ParcelEPSA_NSt3__18functionIFvRSA_EEE
_ZN7android8hardware4wifi10supplicant4V1_022BnHwSupplicantStaIface24_hidl_startWpsPinDisplayEPNS_4hidl4base4V1_08BnHwBaseERKNS0_6ParcelEPSA_NSt3__18functionIFvRSA_EEE
_ZN7android8hardware4wifi10supplicant4V1_022BnHwSupplicantStaIface25_hidl_enableAutoReconnectEPNS_4hidl4base4V1_08BnHwBaseERKNS0_6ParcelEPSA_NSt3__18functionIFvRSA_EEE
_ZN7android8hardware4wifi10supplicant4V1_022BnHwSupplicantStaIface26_hidl_initiateTdlsDiscoverEPNS_4hidl4base4V1_08BnHwBaseERKNS0_6ParcelEPSA_NSt3__18functionIFvRSA_EEE
_ZN7android8hardware4wifi10supplicant4V1_022BnHwSupplicantStaIface26_hidl_initiateTdlsTeardownEPNS_4hidl4base4V1_08BnHwBaseERKNS0_6ParcelEPSA_NSt3__18functionIFvRSA_EEE
_ZN7android8hardware4wifi10supplicant4V1_022BnHwSupplicantStaIface26_hidl_setBtCoexistenceModeEPNS_4hidl4base4V1_08BnHwBaseERKNS0_6ParcelEPSA_NSt3__18functionIFvRSA_EEE
_ZN7android8hardware4wifi10supplicant4V1_022BnHwSupplicantStaIface27_hidl_initiateHs20IconQueryEPNS_4hidl4base4V1_08BnHwBaseERKNS0_6ParcelEPSA_NSt3__18functionIFvRSA_EEE
_ZN7android8hardware4wifi10supplicant4V1_022BnHwSupplicantStaIface27_hidl_setSuspendModeEnabledEPNS_4hidl4base4V1_08BnHwBaseERKNS0_6ParcelEPSA_NSt3__18functionIFvRSA_EEE
_ZN7android8hardware4wifi10supplicant4V1_022BnHwSupplicantStaIface37_hidl_setBtCoexistenceScanModeEnabledEPNS_4hidl4base4V1_08BnHwBaseERKNS0_6ParcelEPSA_NSt3__18functionIFvRSA_EEE
_ZN7android8hardware4wifi10supplicant4V1_022BnHwSupplicantStaIface4pingEv
_ZN7android8hardware4wifi10supplicant4V1_022BnHwSupplicantStaIfaceC1ERKNS_2spINS3_19ISupplicantStaIfaceEEE
_ZN7android8hardware4wifi10supplicant4V1_022BnHwSupplicantStaIfaceC2ERKNS_2spINS3_19ISupplicantStaIfaceEEE
_ZN7android8hardware4wifi10supplicant4V1_022BnHwSupplicantStaIfaceD0Ev
_ZN7android8hardware4wifi10supplicant4V1_022BnHwSupplicantStaIfaceD1Ev
_ZN7android8hardware4wifi10supplicant4V1_022BnHwSupplicantStaIfaceD2Ev
_ZN7android8hardware4wifi10supplicant4V1_022BpHwSupplicantCallback11linkToDeathERKNS_2spINS0_20hidl_death_recipientEEEy
_ZN7android8hardware4wifi10supplicant4V1_022BpHwSupplicantCallback12getDebugInfoENSt3__18functionIFvRKNS_4hidl4base4V1_09DebugInfoEEEE
_ZN7android8hardware4wifi10supplicant4V1_022BpHwSupplicantCallback12getHashChainENSt3__18functionIFvRKNS0_8hidl_vecINS0_10hidl_arrayIhLj32EJEEEEEEEE
_ZN7android8hardware4wifi10supplicant4V1_022BpHwSupplicantCallback13onTerminatingEv
_ZN7android8hardware4wifi10supplicant4V1_022BpHwSupplicantCallback13unlinkToDeathERKNS_2spINS0_20hidl_death_recipientEEE
_ZN7android8hardware4wifi10supplicant4V1_022BpHwSupplicantCallback14interfaceChainENSt3__18functionIFvRKNS0_8hidl_vecINS0_11hidl_stringEEEEEE
_ZN7android8hardware4wifi10supplicant4V1_022BpHwSupplicantCallback18onInterfaceCreatedERKNS0_11hidl_stringE
_ZN7android8hardware4wifi10supplicant4V1_022BpHwSupplicantCallback18onInterfaceRemovedERKNS0_11hidl_stringE
_ZN7android8hardware4wifi10supplicant4V1_022BpHwSupplicantCallback19_hidl_onTerminatingEPNS0_10IInterfaceEPNS0_7details16HidlInstrumentorE
_ZN7android8hardware4wifi10supplicant4V1_022BpHwSupplicantCallback19interfaceDescriptorENSt3__18functionIFvRKNS0_11hidl_stringEEEE
_ZN7android8hardware4wifi10supplicant4V1_022BpHwSupplicantCallback21notifySyspropsChangedEv
_ZN7android8hardware4wifi10supplicant4V1_022BpHwSupplicantCallback21setHALInstrumentationEv
_ZN7android8hardware4wifi10supplicant4V1_022BpHwSupplicantCallback24_hidl_onInterfaceCreatedEPNS0_10IInterfaceEPNS0_7details16HidlInstrumentorERKNS0_11hidl_stringE
_ZN7android8hardware4wifi10supplicant4V1_022BpHwSupplicantCallback24_hidl_onInterfaceRemovedEPNS0_10IInterfaceEPNS0_7details16HidlInstrumentorERKNS0_11hidl_stringE
_ZN7android8hardware4wifi10supplicant4V1_022BpHwSupplicantCallback4pingEv
_ZN7android8hardware4wifi10supplicant4V1_022BpHwSupplicantCallback5debugERKNS0_11hidl_handleERKNS0_8hidl_vecINS0_11hidl_stringEEE
_ZN7android8hardware4wifi10supplicant4V1_022BpHwSupplicantCallbackC1ERKNS_2spINS0_7IBinderEEE
_ZN7android8hardware4wifi10supplicant4V1_022BpHwSupplicantCallbackC2ERKNS_2spINS0_7IBinderEEE
_ZN7android8hardware4wifi10supplicant4V1_022BpHwSupplicantP2pIface10_hidl_findEPNS0_10IInterfaceEPNS0_7details16HidlInstrumentorEjNSt3__18functionIFvRKNS3_16SupplicantStatusEEEE
_ZN7android8hardware4wifi10supplicant4V1_022BpHwSupplicantP2pIface10addNetworkENSt3__18functionIFvRKNS3_16SupplicantStatusERKNS_2spINS3_18ISupplicantNetworkEEEEEE
_ZN7android8hardware4wifi10supplicant4V1_022BpHwSupplicantP2pIface10getNetworkEjNSt3__18functionIFvRKNS3_16SupplicantStatusERKNS_2spINS3_18ISupplicantNetworkEEEEEE
_ZN7android8hardware4wifi10supplicant4V1_022BpHwSupplicantP2pIface10saveConfigENSt3__18functionIFvRKNS3_16SupplicantStatusEEEE
_ZN7android8hardware4wifi10supplicant4V1_022BpHwSupplicantP2pIface11_hidl_flushEPNS0_10IInterfaceEPNS0_7details16HidlInstrumentorENSt3__18functionIFvRKNS3_16SupplicantStatusEEEE
_ZN7android8hardware4wifi10supplicant4V1_022BpHwSupplicantP2pIface11linkToDeathERKNS_2spINS0_20hidl_death_recipientEEEy
_ZN7android8hardware4wifi10supplicant4V1_022BpHwSupplicantP2pIface11removeGroupERKNS0_11hidl_stringENSt3__18functionIFvRKNS3_16SupplicantStatusEEEE
_ZN7android8hardware4wifi10supplicant4V1_022BpHwSupplicantP2pIface11startWpsPbcERKNS0_11hidl_stringERKNS0_10hidl_arrayIhLj6EJEEENSt3__18functionIFvRKNS3_16SupplicantStatusEEEE
_ZN7android8hardware4wifi10supplicant4V1_022BpHwSupplicantP2pIface12_hidl_inviteEPNS0_10IInterfaceEPNS0_7details16HidlInstrumentorERKNS0_11hidl_stringERKNS0_10hidl_arrayIhLj6EJEEESG_NSt3__18functionIFvRKNS3_16SupplicantStatusEEEE
_ZN7android8hardware4wifi10supplicant4V1_022BpHwSupplicantP2pIface12_hidl_rejectEPNS0_10IInterfaceEPNS0_7details16HidlInstrumentorERKNS0_10hidl_arrayIhLj6EJEEENSt3__18functionIFvRKNS3_16SupplicantStatusEEEE
_ZN7android8hardware4wifi10supplicant4V1_022BpHwSupplicantP2pIface12getDebugInfoENSt3__18functionIFvRKNS_4hidl4base4V1_09DebugInfoEEEE
_ZN7android8hardware4wifi10supplicant4V1_022BpHwSupplicantP2pIface12getHashChainENSt3__18functionIFvRKNS0_8hidl_vecINS0_10hidl_arrayIhLj32EJEEEEEEEE
_ZN7android8hardware4wifi10supplicant4V1_022BpHwSupplicantP2pIface12listNetworksENSt3__18functionIFvRKNS3_16SupplicantStatusERKNS0_8hidl_vecIjEEEEE
_ZN7android8hardware4wifi10supplicant4V1_022BpHwSupplicantP2pIface12setGroupIdleERKNS0_11hidl_stringEjNSt3__18functionIFvRKNS3_16SupplicantStatusEEEE
_ZN7android8hardware4wifi10supplicant4V1_022BpHwSupplicantP2pIface12setPowerSaveERKNS0_11hidl_stringEbNSt3__18functionIFvRKNS3_16SupplicantStatusEEEE
_ZN7android8hardware4wifi10supplicant4V1_022BpHwSupplicantP2pIface13_hidl_connectEPNS0_10IInterfaceEPNS0_7details16HidlInstrumentorERKNS0_10hidl_arrayIhLj6EJEEENS3_19ISupplicantP2pIface18WpsProvisionMethodERKNS0_11hidl_stringEbbjNSt3__18functionIFvRKNS3_16SupplicantStatusESI_EEE
_ZN7android8hardware4wifi10supplicant4V1_022BpHwSupplicantP2pIface13_hidl_getSsidEPNS0_10IInterfaceEPNS0_7details16HidlInstrumentorERKNS0_10hidl_arrayIhLj6EJEEENSt3__18functionIFvRKNS3_16SupplicantStatusERKNS0_8hidl_vecIhEEEEE
_ZN7android8hardware4wifi10supplicant4V1_022BpHwSupplicantP2pIface13cancelConnectENSt3__18functionIFvRKNS3_16SupplicantStatusEEEE
_ZN7android8hardware4wifi10supplicant4V1_022BpHwSupplicantP2pIface13flushServicesENSt3__18functionIFvRKNS3_16SupplicantStatusEEEE
_ZN7android8hardware4wifi10supplicant4V1_022BpHwSupplicantP2pIface13removeNetworkEjNSt3__18functionIFvRKNS3_16SupplicantStatusEEEE
_ZN7android8hardware4wifi10supplicant4V1_022BpHwSupplicantP2pIface13unlinkToDeathERKNS_2spINS0_20hidl_death_recipientEEE
_ZN7android8hardware4wifi10supplicant4V1_022BpHwSupplicantP2pIface14_hidl_addGroupEPNS0_10IInterfaceEPNS0_7details16HidlInstrumentorEbjNSt3__18functionIFvRKNS3_16SupplicantStatusEEEE
_ZN7android8hardware4wifi10supplicant4V1_022BpHwSupplicantP2pIface14_hidl_reinvokeEPNS0_10IInterfaceEPNS0_7details16HidlInstrumentorEjRKNS0_10hidl_arrayIhLj6EJEEENSt3__18functionIFvRKNS3_16SupplicantStatusEEEE
_ZN7android8hardware4wifi10supplicant4V1_022BpHwSupplicantP2pIface14_hidl_stopFindEPNS0_10IInterfaceEPNS0_7details16HidlInstrumentorENSt3__18functionIFvRKNS3_16SupplicantStatusEEEE
_ZN7android8hardware4wifi10supplicant4V1_022BpHwSupplicantP2pIface14addUpnpServiceEjRKNS0_11hidl_stringENSt3__18functionIFvRKNS3_16SupplicantStatusEEEE
_ZN7android8hardware4wifi10supplicant4V1_022BpHwSupplicantP2pIface14interfaceChainENSt3__18functionIFvRKNS0_8hidl_vecINS0_11hidl_stringEEEEEE
_ZN7android8hardware4wifi10supplicant4V1_022BpHwSupplicantP2pIface14setSsidPostfixERKNS0_8hidl_vecIhEENSt3__18functionIFvRKNS3_16SupplicantStatusEEEE
_ZN7android8hardware4wifi10supplicant4V1_022BpHwSupplicantP2pIface15_hidl_cancelWpsEPNS0_10IInterfaceEPNS0_7details16HidlInstrumentorERKNS0_11hidl_stringENSt3__18functionIFvRKNS3_16SupplicantStatusEEEE
_ZN7android8hardware4wifi10supplicant4V1_022BpHwSupplicantP2pIface15_hidl_enableWfdEPNS0_10IInterfaceEPNS0_7details16HidlInstrumentorEbNSt3__18functionIFvRKNS3_16SupplicantStatusEEEE
_ZN7android8hardware4wifi10supplicant4V1_022BpHwSupplicantP2pIface15setMiracastModeENS3_19ISupplicantP2pIface12MiracastModeENSt3__18functionIFvRKNS3_16SupplicantStatusEEEE
_ZN7android8hardware4wifi10supplicant4V1_022BpHwSupplicantP2pIface15setWpsModelNameERKNS0_11hidl_stringENSt3__18functionIFvRKNS3_16SupplicantStatusEEEE
_ZN7android8hardware4wifi10supplicant4V1_022BpHwSupplicantP2pIface16_hidl_saveConfigEPNS0_10IInterfaceEPNS0_7details16HidlInstrumentorENSt3__18functionIFvRKNS3_16SupplicantStatusEEEE
_ZN7android8hardware4wifi10supplicant4V1_022BpHwSupplicantP2pIface16getDeviceAddressENSt3__18functionIFvRKNS3_16SupplicantStatusERKNS0_10hidl_arrayIhLj6EJEEEEEE
_ZN7android8hardware4wifi10supplicant4V1_022BpHwSupplicantP2pIface16registerCallbackERKNS_2spINS3_27ISupplicantP2pIfaceCallbackEEENSt3__18functionIFvRKNS3_16SupplicantStatusEEEE
_ZN7android8hardware4wifi10supplicant4V1_022BpHwSupplicantP2pIface16setListenChannelEjjNSt3__18functionIFvRKNS3_16SupplicantStatusEEEE
_ZN7android8hardware4wifi10supplicant4V1_022BpHwSupplicantP2pIface16setWfdDeviceInfoERKNS0_10hidl_arrayIhLj6EJEEENSt3__18functionIFvRKNS3_16SupplicantStatusEEEE
_ZN7android8hardware4wifi10supplicant4V1_022BpHwSupplicantP2pIface16setWpsDeviceNameERKNS0_11hidl_stringENSt3__18functionIFvRKNS3_16SupplicantStatusEEEE
_ZN7android8hardware4wifi10supplicant4V1_022BpHwSupplicantP2pIface16setWpsDeviceTypeERKNS0_10hidl_arrayIhLj8EJEEENSt3__18functionIFvRKNS3_16SupplicantStatusEEEE
_ZN7android8hardware4wifi10supplicant4V1_022BpHwSupplicantP2pIface17_hidl_removeGroupEPNS0_10IInterfaceEPNS0_7details16HidlInstrumentorERKNS0_11hidl_stringENSt3__18functionIFvRKNS3_16SupplicantStatusEEEE
_ZN7android8hardware4wifi10supplicant4V1_022BpHwSupplicantP2pIface17_hidl_startWpsPbcEPNS0_10IInterfaceEPNS0_7details16HidlInstrumentorERKNS0_11hidl_stringERKNS0_10hidl_arrayIhLj6EJEEENSt3__18functionIFvRKNS3_16SupplicantStatusEEEE
_ZN7android8hardware4wifi10supplicant4V1_022BpHwSupplicantP2pIface17addBonjourServiceERKNS0_8hidl_vecIhEES8_NSt3__18functionIFvRKNS3_16SupplicantStatusEEEE
_ZN7android8hardware4wifi10supplicant4V1_022BpHwSupplicantP2pIface17removeUpnpServiceEjRKNS0_11hidl_stringENSt3__18functionIFvRKNS3_16SupplicantStatusEEEE
_ZN7android8hardware4wifi10supplicant4V1_022BpHwSupplicantP2pIface17setWpsModelNumberERKNS0_11hidl_stringENSt3__18functionIFvRKNS3_16SupplicantStatusEEEE
_ZN7android8hardware4wifi10supplicant4V1_022BpHwSupplicantP2pIface17startWpsPinKeypadERKNS0_11hidl_stringES7_NSt3__18functionIFvRKNS3_16SupplicantStatusEEEE
_ZN7android8hardware4wifi10supplicant4V1_022BpHwSupplicantP2pIface18_hidl_setGroupIdleEPNS0_10IInterfaceEPNS0_7details16HidlInstrumentorERKNS0_11hidl_stringEjNSt3__18functionIFvRKNS3_16SupplicantStatusEEEE
_ZN7android8hardware4wifi10supplicant4V1_022BpHwSupplicantP2pIface18_hidl_setPowerSaveEPNS0_10IInterfaceEPNS0_7details16HidlInstrumentorERKNS0_11hidl_stringEbNSt3__18functionIFvRKNS3_16SupplicantStatusEEEE
_ZN7android8hardware4wifi10supplicant4V1_022BpHwSupplicantP2pIface18configureExtListenEjjNSt3__18functionIFvRKNS3_16SupplicantStatusEEEE
_ZN7android8hardware4wifi10supplicant4V1_022BpHwSupplicantP2pIface18getGroupCapabilityERKNS0_10hidl_arrayIhLj6EJEEENSt3__18functionIFvRKNS3_16SupplicantStatusEjEEE
_ZN7android8hardware4wifi10supplicant4V1_022BpHwSupplicantP2pIface18provisionDiscoveryERKNS0_10hidl_arrayIhLj6EJEEENS3_19ISupplicantP2pIface18WpsProvisionMethodENSt3__18functionIFvRKNS3_16SupplicantStatusEEEE
_ZN7android8hardware4wifi10supplicant4V1_022BpHwSupplicantP2pIface18setWpsManufacturerERKNS0_11hidl_stringENSt3__18functionIFvRKNS3_16SupplicantStatusEEEE
_ZN7android8hardware4wifi10supplicant4V1_022BpHwSupplicantP2pIface18setWpsSerialNumberERKNS0_11hidl_stringENSt3__18functionIFvRKNS3_16SupplicantStatusEEEE
_ZN7android8hardware4wifi10supplicant4V1_022BpHwSupplicantP2pIface18startWpsPinDisplayERKNS0_11hidl_stringERKNS0_10hidl_arrayIhLj6EJEEENSt3__18functionIFvRKNS3_16SupplicantStatusES7_EEE
_ZN7android8hardware4wifi10supplicant4V1_022BpHwSupplicantP2pIface19_hidl_cancelConnectEPNS0_10IInterfaceEPNS0_7details16HidlInstrumentorENSt3__18functionIFvRKNS3_16SupplicantStatusEEEE
_ZN7android8hardware4wifi10supplicant4V1_022BpHwSupplicantP2pIface19_hidl_flushServicesEPNS0_10IInterfaceEPNS0_7details16HidlInstrumentorENSt3__18functionIFvRKNS3_16SupplicantStatusEEEE
_ZN7android8hardware4wifi10supplicant4V1_022BpHwSupplicantP2pIface19interfaceDescriptorENSt3__18functionIFvRKNS0_11hidl_stringEEEE
_ZN7android8hardware4wifi10supplicant4V1_022BpHwSupplicantP2pIface19setWpsConfigMethodsEtNSt3__18functionIFvRKNS3_16SupplicantStatusEEEE
_ZN7android8hardware4wifi10supplicant4V1_022BpHwSupplicantP2pIface20_hidl_addUpnpServiceEPNS0_10IInterfaceEPNS0_7details16HidlInstrumentorEjRKNS0_11hidl_stringENSt3__18functionIFvRKNS3_16SupplicantStatusEEEE
_ZN7android8hardware4wifi10supplicant4V1_022BpHwSupplicantP2pIface20_hidl_setSsidPostfixEPNS0_10IInterfaceEPNS0_7details16HidlInstrumentorERKNS0_8hidl_vecIhEENSt3__18functionIFvRKNS3_16SupplicantStatusEEEE
_ZN7android8hardware4wifi10supplicant4V1_022BpHwSupplicantP2pIface20removeBonjourServiceERKNS0_8hidl_vecIhEENSt3__18functionIFvRKNS3_16SupplicantStatusEEEE
_ZN7android8hardware4wifi10supplicant4V1_022BpHwSupplicantP2pIface21_hidl_setMiracastModeEPNS0_10IInterfaceEPNS0_7details16HidlInstrumentorENS3_19ISupplicantP2pIface12MiracastModeENSt3__18functionIFvRKNS3_16SupplicantStatusEEEE
_ZN7android8hardware4wifi10supplicant4V1_022BpHwSupplicantP2pIface21notifySyspropsChangedEv
_ZN7android8hardware4wifi10supplicant4V1_022BpHwSupplicantP2pIface21setHALInstrumentationEv
_ZN7android8hardware4wifi10supplicant4V1_022BpHwSupplicantP2pIface22_hidl_getDeviceAddressEPNS0_10IInterfaceEPNS0_7details16HidlInstrumentorENSt3__18functionIFvRKNS3_16SupplicantStatusERKNS0_10hidl_arrayIhLj6EJEEEEEE
_ZN7android8hardware4wifi10supplicant4V1_022BpHwSupplicantP2pIface22_hidl_registerCallbackEPNS0_10IInterfaceEPNS0_7details16HidlInstrumentorERKNS_2spINS3_27ISupplicantP2pIfaceCallbackEEENSt3__18functionIFvRKNS3_16SupplicantStatusEEEE
_ZN7android8hardware4wifi10supplicant4V1_022BpHwSupplicantP2pIface22_hidl_setListenChannelEPNS0_10IInterfaceEPNS0_7details16HidlInstrumentorEjjNSt3__18functionIFvRKNS3_16SupplicantStatusEEEE
_ZN7android8hardware4wifi10supplicant4V1_022BpHwSupplicantP2pIface22_hidl_setWfdDeviceInfoEPNS0_10IInterfaceEPNS0_7details16HidlInstrumentorERKNS0_10hidl_arrayIhLj6EJEEENSt3__18functionIFvRKNS3_16SupplicantStatusEEEE
_ZN7android8hardware4wifi10supplicant4V1_022BpHwSupplicantP2pIface22cancelServiceDiscoveryEyNSt3__18functionIFvRKNS3_16SupplicantStatusEEEE
_ZN7android8hardware4wifi10supplicant4V1_022BpHwSupplicantP2pIface23_hidl_addBonjourServiceEPNS0_10IInterfaceEPNS0_7details16HidlInstrumentorERKNS0_8hidl_vecIhEESD_NSt3__18functionIFvRKNS3_16SupplicantStatusEEEE
_ZN7android8hardware4wifi10supplicant4V1_022BpHwSupplicantP2pIface23_hidl_removeUpnpServiceEPNS0_10IInterfaceEPNS0_7details16HidlInstrumentorEjRKNS0_11hidl_stringENSt3__18functionIFvRKNS3_16SupplicantStatusEEEE
_ZN7android8hardware4wifi10supplicant4V1_022BpHwSupplicantP2pIface23_hidl_startWpsPinKeypadEPNS0_10IInterfaceEPNS0_7details16HidlInstrumentorERKNS0_11hidl_stringESC_NSt3__18functionIFvRKNS3_16SupplicantStatusEEEE
_ZN7android8hardware4wifi10supplicant4V1_022BpHwSupplicantP2pIface23requestServiceDiscoveryERKNS0_10hidl_arrayIhLj6EJEEERKNS0_8hidl_vecIhEENSt3__18functionIFvRKNS3_16SupplicantStatusEyEEE
_ZN7android8hardware4wifi10supplicant4V1_022BpHwSupplicantP2pIface24_hidl_configureExtListenEPNS0_10IInterfaceEPNS0_7details16HidlInstrumentorEjjNSt3__18functionIFvRKNS3_16SupplicantStatusEEEE
_ZN7android8hardware4wifi10supplicant4V1_022BpHwSupplicantP2pIface24_hidl_getGroupCapabilityEPNS0_10IInterfaceEPNS0_7details16HidlInstrumentorERKNS0_10hidl_arrayIhLj6EJEEENSt3__18functionIFvRKNS3_16SupplicantStatusEjEEE
_ZN7android8hardware4wifi10supplicant4V1_022BpHwSupplicantP2pIface24_hidl_provisionDiscoveryEPNS0_10IInterfaceEPNS0_7details16HidlInstrumentorERKNS0_10hidl_arrayIhLj6EJEEENS3_19ISupplicantP2pIface18WpsProvisionMethodENSt3__18functionIFvRKNS3_16SupplicantStatusEEEE
_ZN7android8hardware4wifi10supplicant4V1_022BpHwSupplicantP2pIface24_hidl_startWpsPinDisplayEPNS0_10IInterfaceEPNS0_7details16HidlInstrumentorERKNS0_11hidl_stringERKNS0_10hidl_arrayIhLj6EJEEENSt3__18functionIFvRKNS3_16SupplicantStatusESC_EEE
_ZN7android8hardware4wifi10supplicant4V1_022BpHwSupplicantP2pIface24setDisallowedFrequenciesERKNS0_8hidl_vecINS3_19ISupplicantP2pIface9FreqRangeEEENSt3__18functionIFvRKNS3_16SupplicantStatusEEEE
_ZN7android8hardware4wifi10supplicant4V1_022BpHwSupplicantP2pIface25reportNfcHandoverResponseERKNS0_8hidl_vecIhEENSt3__18functionIFvRKNS3_16SupplicantStatusEEEE
_ZN7android8hardware4wifi10supplicant4V1_022BpHwSupplicantP2pIface26_hidl_removeBonjourServiceEPNS0_10IInterfaceEPNS0_7details16HidlInstrumentorERKNS0_8hidl_vecIhEENSt3__18functionIFvRKNS3_16SupplicantStatusEEEE
_ZN7android8hardware4wifi10supplicant4V1_022BpHwSupplicantP2pIface27reportNfcHandoverInitiationERKNS0_8hidl_vecIhEENSt3__18functionIFvRKNS3_16SupplicantStatusEEEE
_ZN7android8hardware4wifi10supplicant4V1_022BpHwSupplicantP2pIface28_hidl_cancelServiceDiscoveryEPNS0_10IInterfaceEPNS0_7details16HidlInstrumentorEyNSt3__18functionIFvRKNS3_16SupplicantStatusEEEE
_ZN7android8hardware4wifi10supplicant4V1_022BpHwSupplicantP2pIface29_hidl_requestServiceDiscoveryEPNS0_10IInterfaceEPNS0_7details16HidlInstrumentorERKNS0_10hidl_arrayIhLj6EJEEERKNS0_8hidl_vecIhEENSt3__18functionIFvRKNS3_16SupplicantStatusEyEEE
_ZN7android8hardware4wifi10supplicant4V1_022BpHwSupplicantP2pIface30_hidl_setDisallowedFrequenciesEPNS0_10IInterfaceEPNS0_7details16HidlInstrumentorERKNS0_8hidl_vecINS3_19ISupplicantP2pIface9FreqRangeEEENSt3__18functionIFvRKNS3_16SupplicantStatusEEEE
_ZN7android8hardware4wifi10supplicant4V1_022BpHwSupplicantP2pIface30createNfcHandoverSelectMessageENSt3__18functionIFvRKNS3_16SupplicantStatusERKNS0_8hidl_vecIhEEEEE
_ZN7android8hardware4wifi10supplicant4V1_022BpHwSupplicantP2pIface31_hidl_reportNfcHandoverResponseEPNS0_10IInterfaceEPNS0_7details16HidlInstrumentorERKNS0_8hidl_vecIhEENSt3__18functionIFvRKNS3_16SupplicantStatusEEEE
_ZN7android8hardware4wifi10supplicant4V1_022BpHwSupplicantP2pIface31createNfcHandoverRequestMessageENSt3__18functionIFvRKNS3_16SupplicantStatusERKNS0_8hidl_vecIhEEEEE
_ZN7android8hardware4wifi10supplicant4V1_022BpHwSupplicantP2pIface33_hidl_reportNfcHandoverInitiationEPNS0_10IInterfaceEPNS0_7details16HidlInstrumentorERKNS0_8hidl_vecIhEENSt3__18functionIFvRKNS3_16SupplicantStatusEEEE
_ZN7android8hardware4wifi10supplicant4V1_022BpHwSupplicantP2pIface36_hidl_createNfcHandoverSelectMessageEPNS0_10IInterfaceEPNS0_7details16HidlInstrumentorENSt3__18functionIFvRKNS3_16SupplicantStatusERKNS0_8hidl_vecIhEEEEE
_ZN7android8hardware4wifi10supplicant4V1_022BpHwSupplicantP2pIface37_hidl_createNfcHandoverRequestMessageEPNS0_10IInterfaceEPNS0_7details16HidlInstrumentorENSt3__18functionIFvRKNS3_16SupplicantStatusERKNS0_8hidl_vecIhEEEEE
_ZN7android8hardware4wifi10supplicant4V1_022BpHwSupplicantP2pIface4findEjNSt3__18functionIFvRKNS3_16SupplicantStatusEEEE
_ZN7android8hardware4wifi10supplicant4V1_022BpHwSupplicantP2pIface4pingEv
_ZN7android8hardware4wifi10supplicant4V1_022BpHwSupplicantP2pIface5debugERKNS0_11hidl_handleERKNS0_8hidl_vecINS0_11hidl_stringEEE
_ZN7android8hardware4wifi10supplicant4V1_022BpHwSupplicantP2pIface5flushENSt3__18functionIFvRKNS3_16SupplicantStatusEEEE
_ZN7android8hardware4wifi10supplicant4V1_022BpHwSupplicantP2pIface6inviteERKNS0_11hidl_stringERKNS0_10hidl_arrayIhLj6EJEEESB_NSt3__18functionIFvRKNS3_16SupplicantStatusEEEE
_ZN7android8hardware4wifi10supplicant4V1_022BpHwSupplicantP2pIface6rejectERKNS0_10hidl_arrayIhLj6EJEEENSt3__18functionIFvRKNS3_16SupplicantStatusEEEE
_ZN7android8hardware4wifi10supplicant4V1_022BpHwSupplicantP2pIface7connectERKNS0_10hidl_arrayIhLj6EJEEENS3_19ISupplicantP2pIface18WpsProvisionMethodERKNS0_11hidl_stringEbbjNSt3__18functionIFvRKNS3_16SupplicantStatusESD_EEE
_ZN7android8hardware4wifi10supplicant4V1_022BpHwSupplicantP2pIface7getNameENSt3__18functionIFvRKNS3_16SupplicantStatusERKNS0_11hidl_stringEEEE
_ZN7android8hardware4wifi10supplicant4V1_022BpHwSupplicantP2pIface7getSsidERKNS0_10hidl_arrayIhLj6EJEEENSt3__18functionIFvRKNS3_16SupplicantStatusERKNS0_8hidl_vecIhEEEEE
_ZN7android8hardware4wifi10supplicant4V1_022BpHwSupplicantP2pIface7getTypeENSt3__18functionIFvRKNS3_16SupplicantStatusENS3_9IfaceTypeEEEE
_ZN7android8hardware4wifi10supplicant4V1_022BpHwSupplicantP2pIface8addGroupEbjNSt3__18functionIFvRKNS3_16SupplicantStatusEEEE
_ZN7android8hardware4wifi10supplicant4V1_022BpHwSupplicantP2pIface8reinvokeEjRKNS0_10hidl_arrayIhLj6EJEEENSt3__18functionIFvRKNS3_16SupplicantStatusEEEE
_ZN7android8hardware4wifi10supplicant4V1_022BpHwSupplicantP2pIface8stopFindENSt3__18functionIFvRKNS3_16SupplicantStatusEEEE
_ZN7android8hardware4wifi10supplicant4V1_022BpHwSupplicantP2pIface9cancelWpsERKNS0_11hidl_stringENSt3__18functionIFvRKNS3_16SupplicantStatusEEEE
_ZN7android8hardware4wifi10supplicant4V1_022BpHwSupplicantP2pIface9enableWfdEbNSt3__18functionIFvRKNS3_16SupplicantStatusEEEE
_ZN7android8hardware4wifi10supplicant4V1_022BpHwSupplicantP2pIfaceC1ERKNS_2spINS0_7IBinderEEE
_ZN7android8hardware4wifi10supplicant4V1_022BpHwSupplicantP2pIfaceC2ERKNS_2spINS0_7IBinderEEE
_ZN7android8hardware4wifi10supplicant4V1_022BpHwSupplicantStaIface10addNetworkENSt3__18functionIFvRKNS3_16SupplicantStatusERKNS_2spINS3_18ISupplicantNetworkEEEEEE
_ZN7android8hardware4wifi10supplicant4V1_022BpHwSupplicantStaIface10disconnectENSt3__18functionIFvRKNS3_16SupplicantStatusEEEE
_ZN7android8hardware4wifi10supplicant4V1_022BpHwSupplicantStaIface10getNetworkEjNSt3__18functionIFvRKNS3_16SupplicantStatusERKNS_2spINS3_18ISupplicantNetworkEEEEEE
_ZN7android8hardware4wifi10supplicant4V1_022BpHwSupplicantStaIface11addRxFilterENS3_19ISupplicantStaIface12RxFilterTypeENSt3__18functionIFvRKNS3_16SupplicantStatusEEEE
_ZN7android8hardware4wifi10supplicant4V1_022BpHwSupplicantStaIface11linkToDeathERKNS_2spINS0_20hidl_death_recipientEEEy
_ZN7android8hardware4wifi10supplicant4V1_022BpHwSupplicantStaIface11reassociateENSt3__18functionIFvRKNS3_16SupplicantStatusEEEE
_ZN7android8hardware4wifi10supplicant4V1_022BpHwSupplicantStaIface11startWpsPbcERKNS0_10hidl_arrayIhLj6EJEEENSt3__18functionIFvRKNS3_16SupplicantStatusEEEE
_ZN7android8hardware4wifi10supplicant4V1_022BpHwSupplicantStaIface12getDebugInfoENSt3__18functionIFvRKNS_4hidl4base4V1_09DebugInfoEEEE
_ZN7android8hardware4wifi10supplicant4V1_022BpHwSupplicantStaIface12getHashChainENSt3__18functionIFvRKNS0_8hidl_vecINS0_10hidl_arrayIhLj32EJEEEEEEEE
_ZN7android8hardware4wifi10supplicant4V1_022BpHwSupplicantStaIface12listNetworksENSt3__18functionIFvRKNS3_16SupplicantStatusERKNS0_8hidl_vecIjEEEEE
_ZN7android8hardware4wifi10supplicant4V1_022BpHwSupplicantStaIface12setPowerSaveEbNSt3__18functionIFvRKNS3_16SupplicantStatusEEEE
_ZN7android8hardware4wifi10supplicant4V1_022BpHwSupplicantStaIface12stopRxFilterENSt3__18functionIFvRKNS3_16SupplicantStatusEEEE
_ZN7android8hardware4wifi10supplicant4V1_022BpHwSupplicantStaIface13getMacAddressENSt3__18functionIFvRKNS3_16SupplicantStatusERKNS0_10hidl_arrayIhLj6EJEEEEEE
_ZN7android8hardware4wifi10supplicant4V1_022BpHwSupplicantStaIface13removeNetworkEjNSt3__18functionIFvRKNS3_16SupplicantStatusEEEE
_ZN7android8hardware4wifi10supplicant4V1_022BpHwSupplicantStaIface13startRxFilterENSt3__18functionIFvRKNS3_16SupplicantStatusEEEE
_ZN7android8hardware4wifi10supplicant4V1_022BpHwSupplicantStaIface13unlinkToDeathERKNS_2spINS0_20hidl_death_recipientEEE
_ZN7android8hardware4wifi10supplicant4V1_022BpHwSupplicantStaIface14interfaceChainENSt3__18functionIFvRKNS0_8hidl_vecINS0_11hidl_stringEEEEEE
_ZN7android8hardware4wifi10supplicant4V1_022BpHwSupplicantStaIface14removeRxFilterENS3_19ISupplicantStaIface12RxFilterTypeENSt3__18functionIFvRKNS3_16SupplicantStatusEEEE
_ZN7android8hardware4wifi10supplicant4V1_022BpHwSupplicantStaIface14setCountryCodeERKNS0_10hidl_arrayIaLj2EJEEENSt3__18functionIFvRKNS3_16SupplicantStatusEEEE
_ZN7android8hardware4wifi10supplicant4V1_022BpHwSupplicantStaIface14setExternalSimEbNSt3__18functionIFvRKNS3_16SupplicantStatusEEEE
_ZN7android8hardware4wifi10supplicant4V1_022BpHwSupplicantStaIface15_hidl_cancelWpsEPNS0_10IInterfaceEPNS0_7details16HidlInstrumentorENSt3__18functionIFvRKNS3_16SupplicantStatusEEEE
_ZN7android8hardware4wifi10supplicant4V1_022BpHwSupplicantStaIface15_hidl_reconnectEPNS0_10IInterfaceEPNS0_7details16HidlInstrumentorENSt3__18functionIFvRKNS3_16SupplicantStatusEEEE
_ZN7android8hardware4wifi10supplicant4V1_022BpHwSupplicantStaIface15addExtRadioWorkERKNS0_11hidl_stringEjjNSt3__18functionIFvRKNS3_16SupplicantStatusEjEEE
_ZN7android8hardware4wifi10supplicant4V1_022BpHwSupplicantStaIface15setWpsModelNameERKNS0_11hidl_stringENSt3__18functionIFvRKNS3_16SupplicantStatusEEEE
_ZN7android8hardware4wifi10supplicant4V1_022BpHwSupplicantStaIface16_hidl_disconnectEPNS0_10IInterfaceEPNS0_7details16HidlInstrumentorENSt3__18functionIFvRKNS3_16SupplicantStatusEEEE
_ZN7android8hardware4wifi10supplicant4V1_022BpHwSupplicantStaIface16registerCallbackERKNS_2spINS3_27ISupplicantStaIfaceCallbackEEENSt3__18functionIFvRKNS3_16SupplicantStatusEEEE
_ZN7android8hardware4wifi10supplicant4V1_022BpHwSupplicantStaIface16setWpsDeviceNameERKNS0_11hidl_stringENSt3__18functionIFvRKNS3_16SupplicantStatusEEEE
_ZN7android8hardware4wifi10supplicant4V1_022BpHwSupplicantStaIface16setWpsDeviceTypeERKNS0_10hidl_arrayIhLj8EJEEENSt3__18functionIFvRKNS3_16SupplicantStatusEEEE
_ZN7android8hardware4wifi10supplicant4V1_022BpHwSupplicantStaIface17_hidl_addRxFilterEPNS0_10IInterfaceEPNS0_7details16HidlInstrumentorENS3_19ISupplicantStaIface12RxFilterTypeENSt3__18functionIFvRKNS3_16SupplicantStatusEEEE
_ZN7android8hardware4wifi10supplicant4V1_022BpHwSupplicantStaIface17_hidl_reassociateEPNS0_10IInterfaceEPNS0_7details16HidlInstrumentorENSt3__18functionIFvRKNS3_16SupplicantStatusEEEE
_ZN7android8hardware4wifi10supplicant4V1_022BpHwSupplicantStaIface17_hidl_startWpsPbcEPNS0_10IInterfaceEPNS0_7details16HidlInstrumentorERKNS0_10hidl_arrayIhLj6EJEEENSt3__18functionIFvRKNS3_16SupplicantStatusEEEE
_ZN7android8hardware4wifi10supplicant4V1_022BpHwSupplicantStaIface17initiateAnqpQueryERKNS0_10hidl_arrayIhLj6EJEEERKNS0_8hidl_vecINS3_19ISupplicantStaIface10AnqpInfoIdEEERKNS9_INSA_16Hs20AnqpSubtypesEEENSt3__18functionIFvRKNS3_16SupplicantStatusEEEE
_ZN7android8hardware4wifi10supplicant4V1_022BpHwSupplicantStaIface17initiateTdlsSetupERKNS0_10hidl_arrayIhLj6EJEEENSt3__18functionIFvRKNS3_16SupplicantStatusEEEE
_ZN7android8hardware4wifi10supplicant4V1_022BpHwSupplicantStaIface17setWpsModelNumberERKNS0_11hidl_stringENSt3__18functionIFvRKNS3_16SupplicantStatusEEEE
_ZN7android8hardware4wifi10supplicant4V1_022BpHwSupplicantStaIface17startWpsPinKeypadERKNS0_11hidl_stringENSt3__18functionIFvRKNS3_16SupplicantStatusEEEE
_ZN7android8hardware4wifi10supplicant4V1_022BpHwSupplicantStaIface17startWpsRegistrarERKNS0_10hidl_arrayIhLj6EJEEERKNS0_11hidl_stringENSt3__18functionIFvRKNS3_16SupplicantStatusEEEE
_ZN7android8hardware4wifi10supplicant4V1_022BpHwSupplicantStaIface18_hidl_setPowerSaveEPNS0_10IInterfaceEPNS0_7details16HidlInstrumentorEbNSt3__18functionIFvRKNS3_16SupplicantStatusEEEE
_ZN7android8hardware4wifi10supplicant4V1_022BpHwSupplicantStaIface18_hidl_stopRxFilterEPNS0_10IInterfaceEPNS0_7details16HidlInstrumentorENSt3__18functionIFvRKNS3_16SupplicantStatusEEEE
_ZN7android8hardware4wifi10supplicant4V1_022BpHwSupplicantStaIface18removeExtRadioWorkEjNSt3__18functionIFvRKNS3_16SupplicantStatusEEEE
_ZN7android8hardware4wifi10supplicant4V1_022BpHwSupplicantStaIface18setWpsManufacturerERKNS0_11hidl_stringENSt3__18functionIFvRKNS3_16SupplicantStatusEEEE
_ZN7android8hardware4wifi10supplicant4V1_022BpHwSupplicantStaIface18setWpsSerialNumberERKNS0_11hidl_stringENSt3__18functionIFvRKNS3_16SupplicantStatusEEEE
_ZN7android8hardware4wifi10supplicant4V1_022BpHwSupplicantStaIface18startWpsPinDisplayERKNS0_10hidl_arrayIhLj6EJEEENSt3__18functionIFvRKNS3_16SupplicantStatusERKNS0_11hidl_stringEEEE
_ZN7android8hardware4wifi10supplicant4V1_022BpHwSupplicantStaIface19_hidl_getMacAddressEPNS0_10IInterfaceEPNS0_7details16HidlInstrumentorENSt3__18functionIFvRKNS3_16SupplicantStatusERKNS0_10hidl_arrayIhLj6EJEEEEEE
_ZN7android8hardware4wifi10supplicant4V1_022BpHwSupplicantStaIface19_hidl_startRxFilterEPNS0_10IInterfaceEPNS0_7details16HidlInstrumentorENSt3__18functionIFvRKNS3_16SupplicantStatusEEEE
_ZN7android8hardware4wifi10supplicant4V1_022BpHwSupplicantStaIface19enableAutoReconnectEbNSt3__18functionIFvRKNS3_16SupplicantStatusEEEE
_ZN7android8hardware4wifi10supplicant4V1_022BpHwSupplicantStaIface19interfaceDescriptorENSt3__18functionIFvRKNS0_11hidl_stringEEEE
_ZN7android8hardware4wifi10supplicant4V1_022BpHwSupplicantStaIface19setWpsConfigMethodsEtNSt3__18functionIFvRKNS3_16SupplicantStatusEEEE
_ZN7android8hardware4wifi10supplicant4V1_022BpHwSupplicantStaIface20_hidl_removeRxFilterEPNS0_10IInterfaceEPNS0_7details16HidlInstrumentorENS3_19ISupplicantStaIface12RxFilterTypeENSt3__18functionIFvRKNS3_16SupplicantStatusEEEE
_ZN7android8hardware4wifi10supplicant4V1_022BpHwSupplicantStaIface20_hidl_setCountryCodeEPNS0_10IInterfaceEPNS0_7details16HidlInstrumentorERKNS0_10hidl_arrayIaLj2EJEEENSt3__18functionIFvRKNS3_16SupplicantStatusEEEE
_ZN7android8hardware4wifi10supplicant4V1_022BpHwSupplicantStaIface20_hidl_setExternalSimEPNS0_10IInterfaceEPNS0_7details16HidlInstrumentorEbNSt3__18functionIFvRKNS3_16SupplicantStatusEEEE
_ZN7android8hardware4wifi10supplicant4V1_022BpHwSupplicantStaIface20initiateTdlsDiscoverERKNS0_10hidl_arrayIhLj6EJEEENSt3__18functionIFvRKNS3_16SupplicantStatusEEEE
_ZN7android8hardware4wifi10supplicant4V1_022BpHwSupplicantStaIface20initiateTdlsTeardownERKNS0_10hidl_arrayIhLj6EJEEENSt3__18functionIFvRKNS3_16SupplicantStatusEEEE
_ZN7android8hardware4wifi10supplicant4V1_022BpHwSupplicantStaIface20setBtCoexistenceModeENS3_19ISupplicantStaIface17BtCoexistenceModeENSt3__18functionIFvRKNS3_16SupplicantStatusEEEE
_ZN7android8hardware4wifi10supplicant4V1_022BpHwSupplicantStaIface21_hidl_addExtRadioWorkEPNS0_10IInterfaceEPNS0_7details16HidlInstrumentorERKNS0_11hidl_stringEjjNSt3__18functionIFvRKNS3_16SupplicantStatusEjEEE
_ZN7android8hardware4wifi10supplicant4V1_022BpHwSupplicantStaIface21initiateHs20IconQueryERKNS0_10hidl_arrayIhLj6EJEEERKNS0_11hidl_stringENSt3__18functionIFvRKNS3_16SupplicantStatusEEEE
_ZN7android8hardware4wifi10supplicant4V1_022BpHwSupplicantStaIface21notifySyspropsChangedEv
_ZN7android8hardware4wifi10supplicant4V1_022BpHwSupplicantStaIface21setHALInstrumentationEv
_ZN7android8hardware4wifi10supplicant4V1_022BpHwSupplicantStaIface21setSuspendModeEnabledEbNSt3__18functionIFvRKNS3_16SupplicantStatusEEEE
_ZN7android8hardware4wifi10supplicant4V1_022BpHwSupplicantStaIface22_hidl_registerCallbackEPNS0_10IInterfaceEPNS0_7details16HidlInstrumentorERKNS_2spINS3_27ISupplicantStaIfaceCallbackEEENSt3__18functionIFvRKNS3_16SupplicantStatusEEEE
_ZN7android8hardware4wifi10supplicant4V1_022BpHwSupplicantStaIface23_hidl_initiateAnqpQueryEPNS0_10IInterfaceEPNS0_7details16HidlInstrumentorERKNS0_10hidl_arrayIhLj6EJEEERKNS0_8hidl_vecINS3_19ISupplicantStaIface10AnqpInfoIdEEERKNSE_INSF_16Hs20AnqpSubtypesEEENSt3__18functionIFvRKNS3_16SupplicantStatusEEEE
_ZN7android8hardware4wifi10supplicant4V1_022BpHwSupplicantStaIface23_hidl_initiateTdlsSetupEPNS0_10IInterfaceEPNS0_7details16HidlInstrumentorERKNS0_10hidl_arrayIhLj6EJEEENSt3__18functionIFvRKNS3_16SupplicantStatusEEEE
_ZN7android8hardware4wifi10supplicant4V1_022BpHwSupplicantStaIface23_hidl_startWpsPinKeypadEPNS0_10IInterfaceEPNS0_7details16HidlInstrumentorERKNS0_11hidl_stringENSt3__18functionIFvRKNS3_16SupplicantStatusEEEE
_ZN7android8hardware4wifi10supplicant4V1_022BpHwSupplicantStaIface23_hidl_startWpsRegistrarEPNS0_10IInterfaceEPNS0_7details16HidlInstrumentorERKNS0_10hidl_arrayIhLj6EJEEERKNS0_11hidl_stringENSt3__18functionIFvRKNS3_16SupplicantStatusEEEE
_ZN7android8hardware4wifi10supplicant4V1_022BpHwSupplicantStaIface24_hidl_removeExtRadioWorkEPNS0_10IInterfaceEPNS0_7details16HidlInstrumentorEjNSt3__18functionIFvRKNS3_16SupplicantStatusEEEE
_ZN7android8hardware4wifi10supplicant4V1_022BpHwSupplicantStaIface24_hidl_startWpsPinDisplayEPNS0_10IInterfaceEPNS0_7details16HidlInstrumentorERKNS0_10hidl_arrayIhLj6EJEEENSt3__18functionIFvRKNS3_16SupplicantStatusERKNS0_11hidl_stringEEEE
_ZN7android8hardware4wifi10supplicant4V1_022BpHwSupplicantStaIface25_hidl_enableAutoReconnectEPNS0_10IInterfaceEPNS0_7details16HidlInstrumentorEbNSt3__18functionIFvRKNS3_16SupplicantStatusEEEE
_ZN7android8hardware4wifi10supplicant4V1_022BpHwSupplicantStaIface26_hidl_initiateTdlsDiscoverEPNS0_10IInterfaceEPNS0_7details16HidlInstrumentorERKNS0_10hidl_arrayIhLj6EJEEENSt3__18functionIFvRKNS3_16SupplicantStatusEEEE
_ZN7android8hardware4wifi10supplicant4V1_022BpHwSupplicantStaIface26_hidl_initiateTdlsTeardownEPNS0_10IInterfaceEPNS0_7details16HidlInstrumentorERKNS0_10hidl_arrayIhLj6EJEEENSt3__18functionIFvRKNS3_16SupplicantStatusEEEE
_ZN7android8hardware4wifi10supplicant4V1_022BpHwSupplicantStaIface26_hidl_setBtCoexistenceModeEPNS0_10IInterfaceEPNS0_7details16HidlInstrumentorENS3_19ISupplicantStaIface17BtCoexistenceModeENSt3__18functionIFvRKNS3_16SupplicantStatusEEEE
_ZN7android8hardware4wifi10supplicant4V1_022BpHwSupplicantStaIface27_hidl_initiateHs20IconQueryEPNS0_10IInterfaceEPNS0_7details16HidlInstrumentorERKNS0_10hidl_arrayIhLj6EJEEERKNS0_11hidl_stringENSt3__18functionIFvRKNS3_16SupplicantStatusEEEE
_ZN7android8hardware4wifi10supplicant4V1_022BpHwSupplicantStaIface27_hidl_setSuspendModeEnabledEPNS0_10IInterfaceEPNS0_7details16HidlInstrumentorEbNSt3__18functionIFvRKNS3_16SupplicantStatusEEEE
_ZN7android8hardware4wifi10supplicant4V1_022BpHwSupplicantStaIface31setBtCoexistenceScanModeEnabledEbNSt3__18functionIFvRKNS3_16SupplicantStatusEEEE
_ZN7android8hardware4wifi10supplicant4V1_022BpHwSupplicantStaIface37_hidl_setBtCoexistenceScanModeEnabledEPNS0_10IInterfaceEPNS0_7details16HidlInstrumentorEbNSt3__18functionIFvRKNS3_16SupplicantStatusEEEE
_ZN7android8hardware4wifi10supplicant4V1_022BpHwSupplicantStaIface4pingEv
_ZN7android8hardware4wifi10supplicant4V1_022BpHwSupplicantStaIface5debugERKNS0_11hidl_handleERKNS0_8hidl_vecINS0_11hidl_stringEEE
_ZN7android8hardware4wifi10supplicant4V1_022BpHwSupplicantStaIface7getNameENSt3__18functionIFvRKNS3_16SupplicantStatusERKNS0_11hidl_stringEEEE
_ZN7android8hardware4wifi10supplicant4V1_022BpHwSupplicantStaIface7getTypeENSt3__18functionIFvRKNS3_16SupplicantStatusENS3_9IfaceTypeEEEE
_ZN7android8hardware4wifi10supplicant4V1_022BpHwSupplicantStaIface9cancelWpsENSt3__18functionIFvRKNS3_16SupplicantStatusEEEE
_ZN7android8hardware4wifi10supplicant4V1_022BpHwSupplicantStaIface9reconnectENSt3__18functionIFvRKNS3_16SupplicantStatusEEEE
_ZN7android8hardware4wifi10supplicant4V1_022BpHwSupplicantStaIfaceC1ERKNS_2spINS0_7IBinderEEE
_ZN7android8hardware4wifi10supplicant4V1_022BpHwSupplicantStaIfaceC2ERKNS_2spINS0_7IBinderEEE
_ZN7android8hardware4wifi10supplicant4V1_022BsSupplicantP2pNetwork13addOnewayTaskENSt3__18functionIFvvEEE
_ZN7android8hardware4wifi10supplicant4V1_022BsSupplicantP2pNetworkC1ENS_2spINS3_21ISupplicantP2pNetworkEEE
_ZN7android8hardware4wifi10supplicant4V1_022BsSupplicantP2pNetworkC2ENS_2spINS3_21ISupplicantP2pNetworkEEE
_ZN7android8hardware4wifi10supplicant4V1_022BsSupplicantStaNetwork13addOnewayTaskENSt3__18functionIFvvEEE
_ZN7android8hardware4wifi10supplicant4V1_022BsSupplicantStaNetworkC1ENS_2spINS3_21ISupplicantStaNetworkEEE
_ZN7android8hardware4wifi10supplicant4V1_022BsSupplicantStaNetworkC2ENS_2spINS3_21ISupplicantStaNetworkEEE
_ZN7android8hardware4wifi10supplicant4V1_022readEmbeddedFromParcelERKNS3_11ISupplicant9IfaceInfoERKNS0_6ParcelEjj
_ZN7android8hardware4wifi10supplicant4V1_022readEmbeddedFromParcelERKNS3_16SupplicantStatusERKNS0_6ParcelEjj
_ZN7android8hardware4wifi10supplicant4V1_022readEmbeddedFromParcelERKNS3_21ISupplicantStaNetwork35NetworkResponseEapSimUmtsAuthParamsERKNS0_6ParcelEjj
_ZN7android8hardware4wifi10supplicant4V1_022readEmbeddedFromParcelERKNS3_27ISupplicantStaIfaceCallback12Hs20AnqpDataERKNS0_6ParcelEjj
_ZN7android8hardware4wifi10supplicant4V1_022readEmbeddedFromParcelERKNS3_27ISupplicantStaIfaceCallback8AnqpDataERKNS0_6ParcelEjj
_ZN7android8hardware4wifi10supplicant4V1_022readEmbeddedFromParcelERKNS3_29ISupplicantStaNetworkCallback33NetworkRequestEapSimGsmAuthParamsERKNS0_6ParcelEjj
_ZN7android8hardware4wifi10supplicant4V1_024BnHwSupplicantP2pNetwork10_hidl_isGoEPNS_4hidl4base4V1_08BnHwBaseERKNS0_6ParcelEPSA_NSt3__18functionIFvRSA_EEE
_ZN7android8hardware4wifi10supplicant4V1_024BnHwSupplicantP2pNetwork10onTransactEjRKNS0_6ParcelEPS5_jNSt3__18functionIFvRS5_EEE
_ZN7android8hardware4wifi10supplicant4V1_024BnHwSupplicantP2pNetwork12getDebugInfoENSt3__18functionIFvRKNS_4hidl4base4V1_09DebugInfoEEEE
_ZN7android8hardware4wifi10supplicant4V1_024BnHwSupplicantP2pNetwork13_hidl_getSsidEPNS_4hidl4base4V1_08BnHwBaseERKNS0_6ParcelEPSA_NSt3__18functionIFvRSA_EEE
_ZN7android8hardware4wifi10supplicant4V1_024BnHwSupplicantP2pNetwork14_hidl_getBssidEPNS_4hidl4base4V1_08BnHwBaseERKNS0_6ParcelEPSA_NSt3__18functionIFvRSA_EEE
_ZN7android8hardware4wifi10supplicant4V1_024BnHwSupplicantP2pNetwork15_hidl_isCurrentEPNS_4hidl4base4V1_08BnHwBaseERKNS0_6ParcelEPSA_NSt3__18functionIFvRSA_EEE
_ZN7android8hardware4wifi10supplicant4V1_024BnHwSupplicantP2pNetwork18_hidl_isPersistentEPNS_4hidl4base4V1_08BnHwBaseERKNS0_6ParcelEPSA_NSt3__18functionIFvRSA_EEE
_ZN7android8hardware4wifi10supplicant4V1_024BnHwSupplicantP2pNetwork19_hidl_getClientListEPNS_4hidl4base4V1_08BnHwBaseERKNS0_6ParcelEPSA_NSt3__18functionIFvRSA_EEE
_ZN7android8hardware4wifi10supplicant4V1_024BnHwSupplicantP2pNetwork19_hidl_setClientListEPNS_4hidl4base4V1_08BnHwBaseERKNS0_6ParcelEPSA_NSt3__18functionIFvRSA_EEE
_ZN7android8hardware4wifi10supplicant4V1_024BnHwSupplicantP2pNetwork22_hidl_registerCallbackEPNS_4hidl4base4V1_08BnHwBaseERKNS0_6ParcelEPSA_NSt3__18functionIFvRSA_EEE
_ZN7android8hardware4wifi10supplicant4V1_024BnHwSupplicantP2pNetwork4pingEv
_ZN7android8hardware4wifi10supplicant4V1_024BnHwSupplicantP2pNetworkC1ERKNS_2spINS3_21ISupplicantP2pNetworkEEE
_ZN7android8hardware4wifi10supplicant4V1_024BnHwSupplicantP2pNetworkC2ERKNS_2spINS3_21ISupplicantP2pNetworkEEE
_ZN7android8hardware4wifi10supplicant4V1_024BnHwSupplicantP2pNetworkD0Ev
_ZN7android8hardware4wifi10supplicant4V1_024BnHwSupplicantP2pNetworkD1Ev
_ZN7android8hardware4wifi10supplicant4V1_024BnHwSupplicantP2pNetworkD2Ev
_ZN7android8hardware4wifi10supplicant4V1_024BnHwSupplicantStaNetwork10onTransactEjRKNS0_6ParcelEPS5_jNSt3__18functionIFvRS5_EEE
_ZN7android8hardware4wifi10supplicant4V1_024BnHwSupplicantStaNetwork12_hidl_enableEPNS_4hidl4base4V1_08BnHwBaseERKNS0_6ParcelEPSA_NSt3__18functionIFvRSA_EEE
_ZN7android8hardware4wifi10supplicant4V1_024BnHwSupplicantStaNetwork12_hidl_getPskEPNS_4hidl4base4V1_08BnHwBaseERKNS0_6ParcelEPSA_NSt3__18functionIFvRSA_EEE
_ZN7android8hardware4wifi10supplicant4V1_024BnHwSupplicantStaNetwork12_hidl_selectEPNS_4hidl4base4V1_08BnHwBaseERKNS0_6ParcelEPSA_NSt3__18functionIFvRSA_EEE
_ZN7android8hardware4wifi10supplicant4V1_024BnHwSupplicantStaNetwork12_hidl_setPskEPNS_4hidl4base4V1_08BnHwBaseERKNS0_6ParcelEPSA_NSt3__18functionIFvRSA_EEE
_ZN7android8hardware4wifi10supplicant4V1_024BnHwSupplicantStaNetwork12getDebugInfoENSt3__18functionIFvRKNS_4hidl4base4V1_09DebugInfoEEEE
_ZN7android8hardware4wifi10supplicant4V1_024BnHwSupplicantStaNetwork13_hidl_disableEPNS_4hidl4base4V1_08BnHwBaseERKNS0_6ParcelEPSA_NSt3__18functionIFvRSA_EEE
_ZN7android8hardware4wifi10supplicant4V1_024BnHwSupplicantStaNetwork13_hidl_getSsidEPNS_4hidl4base4V1_08BnHwBaseERKNS0_6ParcelEPSA_NSt3__18functionIFvRSA_EEE
_ZN7android8hardware4wifi10supplicant4V1_024BnHwSupplicantStaNetwork13_hidl_setSsidEPNS_4hidl4base4V1_08BnHwBaseERKNS0_6ParcelEPSA_NSt3__18functionIFvRSA_EEE
_ZN7android8hardware4wifi10supplicant4V1_024BnHwSupplicantStaNetwork14_hidl_getBssidEPNS_4hidl4base4V1_08BnHwBaseERKNS0_6ParcelEPSA_NSt3__18functionIFvRSA_EEE
_ZN7android8hardware4wifi10supplicant4V1_024BnHwSupplicantStaNetwork14_hidl_getIdStrEPNS_4hidl4base4V1_08BnHwBaseERKNS0_6ParcelEPSA_NSt3__18functionIFvRSA_EEE
_ZN7android8hardware4wifi10supplicant4V1_024BnHwSupplicantStaNetwork14_hidl_getProtoEPNS_4hidl4base4V1_08BnHwBaseERKNS0_6ParcelEPSA_NSt3__18functionIFvRSA_EEE
_ZN7android8hardware4wifi10supplicant4V1_024BnHwSupplicantStaNetwork14_hidl_setBssidEPNS_4hidl4base4V1_08BnHwBaseERKNS0_6ParcelEPSA_NSt3__18functionIFvRSA_EEE
_ZN7android8hardware4wifi10supplicant4V1_024BnHwSupplicantStaNetwork14_hidl_setIdStrEPNS_4hidl4base4V1_08BnHwBaseERKNS0_6ParcelEPSA_NSt3__18functionIFvRSA_EEE
_ZN7android8hardware4wifi10supplicant4V1_024BnHwSupplicantStaNetwork14_hidl_setProtoEPNS_4hidl4base4V1_08BnHwBaseERKNS0_6ParcelEPSA_NSt3__18functionIFvRSA_EEE
_ZN7android8hardware4wifi10supplicant4V1_024BnHwSupplicantStaNetwork15_hidl_getWepKeyEPNS_4hidl4base4V1_08BnHwBaseERKNS0_6ParcelEPSA_NSt3__18functionIFvRSA_EEE
_ZN7android8hardware4wifi10supplicant4V1_024BnHwSupplicantStaNetwork15_hidl_setWepKeyEPNS_4hidl4base4V1_08BnHwBaseERKNS0_6ParcelEPSA_NSt3__18functionIFvRSA_EEE
_ZN7android8hardware4wifi10supplicant4V1_024BnHwSupplicantStaNetwork16_hidl_getAuthAlgEPNS_4hidl4base4V1_08BnHwBaseERKNS0_6ParcelEPSA_NSt3__18functionIFvRSA_EEE
_ZN7android8hardware4wifi10supplicant4V1_024BnHwSupplicantStaNetwork16_hidl_getKeyMgmtEPNS_4hidl4base4V1_08BnHwBaseERKNS0_6ParcelEPSA_NSt3__18functionIFvRSA_EEE
_ZN7android8hardware4wifi10supplicant4V1_024BnHwSupplicantStaNetwork16_hidl_setAuthAlgEPNS_4hidl4base4V1_08BnHwBaseERKNS0_6ParcelEPSA_NSt3__18functionIFvRSA_EEE
_ZN7android8hardware4wifi10supplicant4V1_024BnHwSupplicantStaNetwork16_hidl_setKeyMgmtEPNS_4hidl4base4V1_08BnHwBaseERKNS0_6ParcelEPSA_NSt3__18functionIFvRSA_EEE
_ZN7android8hardware4wifi10supplicant4V1_024BnHwSupplicantStaNetwork17_hidl_getScanSsidEPNS_4hidl4base4V1_08BnHwBaseERKNS0_6ParcelEPSA_NSt3__18functionIFvRSA_EEE
_ZN7android8hardware4wifi10supplicant4V1_024BnHwSupplicantStaNetwork17_hidl_setScanSsidEPNS_4hidl4base4V1_08BnHwBaseERKNS0_6ParcelEPSA_NSt3__18functionIFvRSA_EEE
_ZN7android8hardware4wifi10supplicant4V1_024BnHwSupplicantStaNetwork18_hidl_getEapCACertEPNS_4hidl4base4V1_08BnHwBaseERKNS0_6ParcelEPSA_NSt3__18functionIFvRSA_EEE
_ZN7android8hardware4wifi10supplicant4V1_024BnHwSupplicantStaNetwork18_hidl_getEapCAPathEPNS_4hidl4base4V1_08BnHwBaseERKNS0_6ParcelEPSA_NSt3__18functionIFvRSA_EEE
_ZN7android8hardware4wifi10supplicant4V1_024BnHwSupplicantStaNetwork18_hidl_getEapEngineEPNS_4hidl4base4V1_08BnHwBaseERKNS0_6ParcelEPSA_NSt3__18functionIFvRSA_EEE
_ZN7android8hardware4wifi10supplicant4V1_024BnHwSupplicantStaNetwork18_hidl_getEapMethodEPNS_4hidl4base4V1_08BnHwBaseERKNS0_6ParcelEPSA_NSt3__18functionIFvRSA_EEE
_ZN7android8hardware4wifi10supplicant4V1_024BnHwSupplicantStaNetwork18_hidl_setEapCACertEPNS_4hidl4base4V1_08BnHwBaseERKNS0_6ParcelEPSA_NSt3__18functionIFvRSA_EEE
_ZN7android8hardware4wifi10supplicant4V1_024BnHwSupplicantStaNetwork18_hidl_setEapCAPathEPNS_4hidl4base4V1_08BnHwBaseERKNS0_6ParcelEPSA_NSt3__18functionIFvRSA_EEE
_ZN7android8hardware4wifi10supplicant4V1_024BnHwSupplicantStaNetwork18_hidl_setEapEngineEPNS_4hidl4base4V1_08BnHwBaseERKNS0_6ParcelEPSA_NSt3__18functionIFvRSA_EEE
_ZN7android8hardware4wifi10supplicant4V1_024BnHwSupplicantStaNetwork18_hidl_setEapMethodEPNS_4hidl4base4V1_08BnHwBaseERKNS0_6ParcelEPSA_NSt3__18functionIFvRSA_EEE
_ZN7android8hardware4wifi10supplicant4V1_024BnHwSupplicantStaNetwork19_hidl_getRequirePmfEPNS_4hidl4base4V1_08BnHwBaseERKNS0_6ParcelEPSA_NSt3__18functionIFvRSA_EEE
_ZN7android8hardware4wifi10supplicant4V1_024BnHwSupplicantStaNetwork19_hidl_setRequirePmfEPNS_4hidl4base4V1_08BnHwBaseERKNS0_6ParcelEPSA_NSt3__18functionIFvRSA_EEE
_ZN7android8hardware4wifi10supplicant4V1_024BnHwSupplicantStaNetwork20_hidl_getEapEngineIDEPNS_4hidl4base4V1_08BnHwBaseERKNS0_6ParcelEPSA_NSt3__18functionIFvRSA_EEE
_ZN7android8hardware4wifi10supplicant4V1_024BnHwSupplicantStaNetwork20_hidl_getEapIdentityEPNS_4hidl4base4V1_08BnHwBaseERKNS0_6ParcelEPSA_NSt3__18functionIFvRSA_EEE
_ZN7android8hardware4wifi10supplicant4V1_024BnHwSupplicantStaNetwork20_hidl_getEapPasswordEPNS_4hidl4base4V1_08BnHwBaseERKNS0_6ParcelEPSA_NSt3__18functionIFvRSA_EEE
_ZN7android8hardware4wifi10supplicant4V1_024BnHwSupplicantStaNetwork20_hidl_getGroupCipherEPNS_4hidl4base4V1_08BnHwBaseERKNS0_6ParcelEPSA_NSt3__18functionIFvRSA_EEE
_ZN7android8hardware4wifi10supplicant4V1_024BnHwSupplicantStaNetwork20_hidl_getWepTxKeyIdxEPNS_4hidl4base4V1_08BnHwBaseERKNS0_6ParcelEPSA_NSt3__18functionIFvRSA_EEE
_ZN7android8hardware4wifi10supplicant4V1_024BnHwSupplicantStaNetwork20_hidl_setEapEngineIDEPNS_4hidl4base4V1_08BnHwBaseERKNS0_6ParcelEPSA_NSt3__18functionIFvRSA_EEE
_ZN7android8hardware4wifi10supplicant4V1_024BnHwSupplicantStaNetwork20_hidl_setEapIdentityEPNS_4hidl4base4V1_08BnHwBaseERKNS0_6ParcelEPSA_NSt3__18functionIFvRSA_EEE
_ZN7android8hardware4wifi10supplicant4V1_024BnHwSupplicantStaNetwork20_hidl_setEapPasswordEPNS_4hidl4base4V1_08BnHwBaseERKNS0_6ParcelEPSA_NSt3__18functionIFvRSA_EEE
_ZN7android8hardware4wifi10supplicant4V1_024BnHwSupplicantStaNetwork20_hidl_setGroupCipherEPNS_4hidl4base4V1_08BnHwBaseERKNS0_6ParcelEPSA_NSt3__18functionIFvRSA_EEE
_ZN7android8hardware4wifi10supplicant4V1_024BnHwSupplicantStaNetwork20_hidl_setWepTxKeyIdxEPNS_4hidl4base4V1_08BnHwBaseERKNS0_6ParcelEPSA_NSt3__18functionIFvRSA_EEE
_ZN7android8hardware4wifi10supplicant4V1_024BnHwSupplicantStaNetwork22_hidl_getEapClientCertEPNS_4hidl4base4V1_08BnHwBaseERKNS0_6ParcelEPSA_NSt3__18functionIFvRSA_EEE
_ZN7android8hardware4wifi10supplicant4V1_024BnHwSupplicantStaNetwork22_hidl_getPskPassphraseEPNS_4hidl4base4V1_08BnHwBaseERKNS0_6ParcelEPSA_NSt3__18functionIFvRSA_EEE
_ZN7android8hardware4wifi10supplicant4V1_024BnHwSupplicantStaNetwork22_hidl_registerCallbackEPNS_4hidl4base4V1_08BnHwBaseERKNS0_6ParcelEPSA_NSt3__18functionIFvRSA_EEE
_ZN7android8hardware4wifi10supplicant4V1_024BnHwSupplicantStaNetwork22_hidl_setEapClientCertEPNS_4hidl4base4V1_08BnHwBaseERKNS0_6ParcelEPSA_NSt3__18functionIFvRSA_EEE
_ZN7android8hardware4wifi10supplicant4V1_024BnHwSupplicantStaNetwork22_hidl_setPskPassphraseEPNS_4hidl4base4V1_08BnHwBaseERKNS0_6ParcelEPSA_NSt3__18functionIFvRSA_EEE
_ZN7android8hardware4wifi10supplicant4V1_024BnHwSupplicantStaNetwork23_hidl_getPairwiseCipherEPNS_4hidl4base4V1_08BnHwBaseERKNS0_6ParcelEPSA_NSt3__18functionIFvRSA_EEE
_ZN7android8hardware4wifi10supplicant4V1_024BnHwSupplicantStaNetwork23_hidl_setPairwiseCipherEPNS_4hidl4base4V1_08BnHwBaseERKNS0_6ParcelEPSA_NSt3__18functionIFvRSA_EEE
_ZN7android8hardware4wifi10supplicant4V1_024BnHwSupplicantStaNetwork24_hidl_getEapPhase2MethodEPNS_4hidl4base4V1_08BnHwBaseERKNS0_6ParcelEPSA_NSt3__18functionIFvRSA_EEE
_ZN7android8hardware4wifi10supplicant4V1_024BnHwSupplicantStaNetwork24_hidl_getEapPrivateKeyIdEPNS_4hidl4base4V1_08BnHwBaseERKNS0_6ParcelEPSA_NSt3__18functionIFvRSA_EEE
_ZN7android8hardware4wifi10supplicant4V1_024BnHwSupplicantStaNetwork24_hidl_getEapSubjectMatchEPNS_4hidl4base4V1_08BnHwBaseERKNS0_6ParcelEPSA_NSt3__18functionIFvRSA_EEE
_ZN7android8hardware4wifi10supplicant4V1_024BnHwSupplicantStaNetwork24_hidl_setEapPhase2MethodEPNS_4hidl4base4V1_08BnHwBaseERKNS0_6ParcelEPSA_NSt3__18functionIFvRSA_EEE
_ZN7android8hardware4wifi10supplicant4V1_024BnHwSupplicantStaNetwork24_hidl_setEapPrivateKeyIdEPNS_4hidl4base4V1_08BnHwBaseERKNS0_6ParcelEPSA_NSt3__18functionIFvRSA_EEE
_ZN7android8hardware4wifi10supplicant4V1_024BnHwSupplicantStaNetwork24_hidl_setEapSubjectMatchEPNS_4hidl4base4V1_08BnHwBaseERKNS0_6ParcelEPSA_NSt3__18functionIFvRSA_EEE
_ZN7android8hardware4wifi10supplicant4V1_024BnHwSupplicantStaNetwork25_hidl_setUpdateIdentifierEPNS_4hidl4base4V1_08BnHwBaseERKNS0_6ParcelEPSA_NSt3__18functionIFvRSA_EEE
_ZN7android8hardware4wifi10supplicant4V1_024BnHwSupplicantStaNetwork27_hidl_getEapAltSubjectMatchEPNS_4hidl4base4V1_08BnHwBaseERKNS0_6ParcelEPSA_NSt3__18functionIFvRSA_EEE
_ZN7android8hardware4wifi10supplicant4V1_024BnHwSupplicantStaNetwork27_hidl_setEapAltSubjectMatchEPNS_4hidl4base4V1_08BnHwBaseERKNS0_6ParcelEPSA_NSt3__18functionIFvRSA_EEE
_ZN7android8hardware4wifi10supplicant4V1_024BnHwSupplicantStaNetwork28_hidl_setProactiveKeyCachingEPNS_4hidl4base4V1_08BnHwBaseERKNS0_6ParcelEPSA_NSt3__18functionIFvRSA_EEE
_ZN7android8hardware4wifi10supplicant4V1_024BnHwSupplicantStaNetwork29_hidl_getEapAnonymousIdentityEPNS_4hidl4base4V1_08BnHwBaseERKNS0_6ParcelEPSA_NSt3__18functionIFvRSA_EEE
_ZN7android8hardware4wifi10supplicant4V1_024BnHwSupplicantStaNetwork29_hidl_getEapDomainSuffixMatchEPNS_4hidl4base4V1_08BnHwBaseERKNS0_6ParcelEPSA_NSt3__18functionIFvRSA_EEE
_ZN7android8hardware4wifi10supplicant4V1_024BnHwSupplicantStaNetwork29_hidl_setEapAnonymousIdentityEPNS_4hidl4base4V1_08BnHwBaseERKNS0_6ParcelEPSA_NSt3__18functionIFvRSA_EEE
_ZN7android8hardware4wifi10supplicant4V1_024BnHwSupplicantStaNetwork29_hidl_setEapDomainSuffixMatchEPNS_4hidl4base4V1_08BnHwBaseERKNS0_6ParcelEPSA_NSt3__18functionIFvRSA_EEE
_ZN7android8hardware4wifi10supplicant4V1_024BnHwSupplicantStaNetwork33_hidl_getWpsNfcConfigurationTokenEPNS_4hidl4base4V1_08BnHwBaseERKNS0_6ParcelEPSA_NSt3__18functionIFvRSA_EEE
_ZN7android8hardware4wifi10supplicant4V1_024BnHwSupplicantStaNetwork36_hidl_sendNetworkEapIdentityResponseEPNS_4hidl4base4V1_08BnHwBaseERKNS0_6ParcelEPSA_NSt3__18functionIFvRSA_EEE
_ZN7android8hardware4wifi10supplicant4V1_024BnHwSupplicantStaNetwork37_hidl_sendNetworkEapSimGsmAuthFailureEPNS_4hidl4base4V1_08BnHwBaseERKNS0_6ParcelEPSA_NSt3__18functionIFvRSA_EEE
_ZN7android8hardware4wifi10supplicant4V1_024BnHwSupplicantStaNetwork38_hidl_sendNetworkEapSimGsmAuthResponseEPNS_4hidl4base4V1_08BnHwBaseERKNS0_6ParcelEPSA_NSt3__18functionIFvRSA_EEE
_ZN7android8hardware4wifi10supplicant4V1_024BnHwSupplicantStaNetwork38_hidl_sendNetworkEapSimUmtsAuthFailureEPNS_4hidl4base4V1_08BnHwBaseERKNS0_6ParcelEPSA_NSt3__18functionIFvRSA_EEE
_ZN7android8hardware4wifi10supplicant4V1_024BnHwSupplicantStaNetwork39_hidl_sendNetworkEapSimUmtsAuthResponseEPNS_4hidl4base4V1_08BnHwBaseERKNS0_6ParcelEPSA_NSt3__18functionIFvRSA_EEE
_ZN7android8hardware4wifi10supplicant4V1_024BnHwSupplicantStaNetwork39_hidl_sendNetworkEapSimUmtsAutsResponseEPNS_4hidl4base4V1_08BnHwBaseERKNS0_6ParcelEPSA_NSt3__18functionIFvRSA_EEE
_ZN7android8hardware4wifi10supplicant4V1_024BnHwSupplicantStaNetwork4pingEv
_ZN7android8hardware4wifi10supplicant4V1_024BnHwSupplicantStaNetworkC1ERKNS_2spINS3_21ISupplicantStaNetworkEEE
_ZN7android8hardware4wifi10supplicant4V1_024BnHwSupplicantStaNetworkC2ERKNS_2spINS3_21ISupplicantStaNetworkEEE
_ZN7android8hardware4wifi10supplicant4V1_024BnHwSupplicantStaNetworkD0Ev
_ZN7android8hardware4wifi10supplicant4V1_024BnHwSupplicantStaNetworkD1Ev
_ZN7android8hardware4wifi10supplicant4V1_024BnHwSupplicantStaNetworkD2Ev
_ZN7android8hardware4wifi10supplicant4V1_024BpHwSupplicantP2pNetwork10_hidl_isGoEPNS0_10IInterfaceEPNS0_7details16HidlInstrumentorENSt3__18functionIFvRKNS3_16SupplicantStatusEbEEE
_ZN7android8hardware4wifi10supplicant4V1_024BpHwSupplicantP2pNetwork11linkToDeathERKNS_2spINS0_20hidl_death_recipientEEEy
_ZN7android8hardware4wifi10supplicant4V1_024BpHwSupplicantP2pNetwork12getDebugInfoENSt3__18functionIFvRKNS_4hidl4base4V1_09DebugInfoEEEE
_ZN7android8hardware4wifi10supplicant4V1_024BpHwSupplicantP2pNetwork12getHashChainENSt3__18functionIFvRKNS0_8hidl_vecINS0_10hidl_arrayIhLj32EJEEEEEEEE
_ZN7android8hardware4wifi10supplicant4V1_024BpHwSupplicantP2pNetwork12isPersistentENSt3__18functionIFvRKNS3_16SupplicantStatusEbEEE
_ZN7android8hardware4wifi10supplicant4V1_024BpHwSupplicantP2pNetwork13_hidl_getSsidEPNS0_10IInterfaceEPNS0_7details16HidlInstrumentorENSt3__18functionIFvRKNS3_16SupplicantStatusERKNS0_8hidl_vecIhEEEEE
_ZN7android8hardware4wifi10supplicant4V1_024BpHwSupplicantP2pNetwork13getClientListENSt3__18functionIFvRKNS3_16SupplicantStatusERKNS0_8hidl_vecINS0_10hidl_arrayIhLj6EJEEEEEEEE
_ZN7android8hardware4wifi10supplicant4V1_024BpHwSupplicantP2pNetwork13setClientListERKNS0_8hidl_vecINS0_10hidl_arrayIhLj6EJEEEEENSt3__18functionIFvRKNS3_16SupplicantStatusEEEE
_ZN7android8hardware4wifi10supplicant4V1_024BpHwSupplicantP2pNetwork13unlinkToDeathERKNS_2spINS0_20hidl_death_recipientEEE
_ZN7android8hardware4wifi10supplicant4V1_024BpHwSupplicantP2pNetwork14_hidl_getBssidEPNS0_10IInterfaceEPNS0_7details16HidlInstrumentorENSt3__18functionIFvRKNS3_16SupplicantStatusERKNS0_10hidl_arrayIhLj6EJEEEEEE
_ZN7android8hardware4wifi10supplicant4V1_024BpHwSupplicantP2pNetwork14interfaceChainENSt3__18functionIFvRKNS0_8hidl_vecINS0_11hidl_stringEEEEEE
_ZN7android8hardware4wifi10supplicant4V1_024BpHwSupplicantP2pNetwork15_hidl_isCurrentEPNS0_10IInterfaceEPNS0_7details16HidlInstrumentorENSt3__18functionIFvRKNS3_16SupplicantStatusEbEEE
_ZN7android8hardware4wifi10supplicant4V1_024BpHwSupplicantP2pNetwork16getInterfaceNameENSt3__18functionIFvRKNS3_16SupplicantStatusERKNS0_11hidl_stringEEEE
_ZN7android8hardware4wifi10supplicant4V1_024BpHwSupplicantP2pNetwork16registerCallbackERKNS_2spINS3_29ISupplicantP2pNetworkCallbackEEENSt3__18functionIFvRKNS3_16SupplicantStatusEEEE
_ZN7android8hardware4wifi10supplicant4V1_024BpHwSupplicantP2pNetwork18_hidl_isPersistentEPNS0_10IInterfaceEPNS0_7details16HidlInstrumentorENSt3__18functionIFvRKNS3_16SupplicantStatusEbEEE
_ZN7android8hardware4wifi10supplicant4V1_024BpHwSupplicantP2pNetwork19_hidl_getClientListEPNS0_10IInterfaceEPNS0_7details16HidlInstrumentorENSt3__18functionIFvRKNS3_16SupplicantStatusERKNS0_8hidl_vecINS0_10hidl_arrayIhLj6EJEEEEEEEE
_ZN7android8hardware4wifi10supplicant4V1_024BpHwSupplicantP2pNetwork19_hidl_setClientListEPNS0_10IInterfaceEPNS0_7details16HidlInstrumentorERKNS0_8hidl_vecINS0_10hidl_arrayIhLj6EJEEEEENSt3__18functionIFvRKNS3_16SupplicantStatusEEEE
_ZN7android8hardware4wifi10supplicant4V1_024BpHwSupplicantP2pNetwork19interfaceDescriptorENSt3__18functionIFvRKNS0_11hidl_stringEEEE
_ZN7android8hardware4wifi10supplicant4V1_024BpHwSupplicantP2pNetwork21notifySyspropsChangedEv
_ZN7android8hardware4wifi10supplicant4V1_024BpHwSupplicantP2pNetwork21setHALInstrumentationEv
_ZN7android8hardware4wifi10supplicant4V1_024BpHwSupplicantP2pNetwork22_hidl_registerCallbackEPNS0_10IInterfaceEPNS0_7details16HidlInstrumentorERKNS_2spINS3_29ISupplicantP2pNetworkCallbackEEENSt3__18functionIFvRKNS3_16SupplicantStatusEEEE
_ZN7android8hardware4wifi10supplicant4V1_024BpHwSupplicantP2pNetwork4isGoENSt3__18functionIFvRKNS3_16SupplicantStatusEbEEE
_ZN7android8hardware4wifi10supplicant4V1_024BpHwSupplicantP2pNetwork4pingEv
_ZN7android8hardware4wifi10supplicant4V1_024BpHwSupplicantP2pNetwork5debugERKNS0_11hidl_handleERKNS0_8hidl_vecINS0_11hidl_stringEEE
_ZN7android8hardware4wifi10supplicant4V1_024BpHwSupplicantP2pNetwork5getIdENSt3__18functionIFvRKNS3_16SupplicantStatusEjEEE
_ZN7android8hardware4wifi10supplicant4V1_024BpHwSupplicantP2pNetwork7getSsidENSt3__18functionIFvRKNS3_16SupplicantStatusERKNS0_8hidl_vecIhEEEEE
_ZN7android8hardware4wifi10supplicant4V1_024BpHwSupplicantP2pNetwork7getTypeENSt3__18functionIFvRKNS3_16SupplicantStatusENS3_9IfaceTypeEEEE
_ZN7android8hardware4wifi10supplicant4V1_024BpHwSupplicantP2pNetwork8getBssidENSt3__18functionIFvRKNS3_16SupplicantStatusERKNS0_10hidl_arrayIhLj6EJEEEEEE
_ZN7android8hardware4wifi10supplicant4V1_024BpHwSupplicantP2pNetwork9isCurrentENSt3__18functionIFvRKNS3_16SupplicantStatusEbEEE
_ZN7android8hardware4wifi10supplicant4V1_024BpHwSupplicantP2pNetworkC1ERKNS_2spINS0_7IBinderEEE
_ZN7android8hardware4wifi10supplicant4V1_024BpHwSupplicantP2pNetworkC2ERKNS_2spINS0_7IBinderEEE
_ZN7android8hardware4wifi10supplicant4V1_024BpHwSupplicantStaNetwork10getAuthAlgENSt3__18functionIFvRKNS3_16SupplicantStatusEjEEE
_ZN7android8hardware4wifi10supplicant4V1_024BpHwSupplicantStaNetwork10getKeyMgmtENSt3__18functionIFvRKNS3_16SupplicantStatusEjEEE
_ZN7android8hardware4wifi10supplicant4V1_024BpHwSupplicantStaNetwork10setAuthAlgEjNSt3__18functionIFvRKNS3_16SupplicantStatusEEEE
_ZN7android8hardware4wifi10supplicant4V1_024BpHwSupplicantStaNetwork10setKeyMgmtEjNSt3__18functionIFvRKNS3_16SupplicantStatusEEEE
_ZN7android8hardware4wifi10supplicant4V1_024BpHwSupplicantStaNetwork11getScanSsidENSt3__18functionIFvRKNS3_16SupplicantStatusEbEEE
_ZN7android8hardware4wifi10supplicant4V1_024BpHwSupplicantStaNetwork11linkToDeathERKNS_2spINS0_20hidl_death_recipientEEEy
_ZN7android8hardware4wifi10supplicant4V1_024BpHwSupplicantStaNetwork11setScanSsidEbNSt3__18functionIFvRKNS3_16SupplicantStatusEEEE
_ZN7android8hardware4wifi10supplicant4V1_024BpHwSupplicantStaNetwork12_hidl_enableEPNS0_10IInterfaceEPNS0_7details16HidlInstrumentorEbNSt3__18functionIFvRKNS3_16SupplicantStatusEEEE
_ZN7android8hardware4wifi10supplicant4V1_024BpHwSupplicantStaNetwork12_hidl_getPskEPNS0_10IInterfaceEPNS0_7details16HidlInstrumentorENSt3__18functionIFvRKNS3_16SupplicantStatusERKNS0_10hidl_arrayIhLj32EJEEEEEE
_ZN7android8hardware4wifi10supplicant4V1_024BpHwSupplicantStaNetwork12_hidl_selectEPNS0_10IInterfaceEPNS0_7details16HidlInstrumentorENSt3__18functionIFvRKNS3_16SupplicantStatusEEEE
_ZN7android8hardware4wifi10supplicant4V1_024BpHwSupplicantStaNetwork12_hidl_setPskEPNS0_10IInterfaceEPNS0_7details16HidlInstrumentorERKNS0_10hidl_arrayIhLj32EJEEENSt3__18functionIFvRKNS3_16SupplicantStatusEEEE
_ZN7android8hardware4wifi10supplicant4V1_024BpHwSupplicantStaNetwork12getDebugInfoENSt3__18functionIFvRKNS_4hidl4base4V1_09DebugInfoEEEE
_ZN7android8hardware4wifi10supplicant4V1_024BpHwSupplicantStaNetwork12getEapCACertENSt3__18functionIFvRKNS3_16SupplicantStatusERKNS0_11hidl_stringEEEE
_ZN7android8hardware4wifi10supplicant4V1_024BpHwSupplicantStaNetwork12getEapCAPathENSt3__18functionIFvRKNS3_16SupplicantStatusERKNS0_11hidl_stringEEEE
_ZN7android8hardware4wifi10supplicant4V1_024BpHwSupplicantStaNetwork12getEapEngineENSt3__18functionIFvRKNS3_16SupplicantStatusEbEEE
_ZN7android8hardware4wifi10supplicant4V1_024BpHwSupplicantStaNetwork12getEapMethodENSt3__18functionIFvRKNS3_16SupplicantStatusENS3_21ISupplicantStaNetwork9EapMethodEEEE
_ZN7android8hardware4wifi10supplicant4V1_024BpHwSupplicantStaNetwork12getHashChainENSt3__18functionIFvRKNS0_8hidl_vecINS0_10hidl_arrayIhLj32EJEEEEEEEE
_ZN7android8hardware4wifi10supplicant4V1_024BpHwSupplicantStaNetwork12setEapCACertERKNS0_11hidl_stringENSt3__18functionIFvRKNS3_16SupplicantStatusEEEE
_ZN7android8hardware4wifi10supplicant4V1_024BpHwSupplicantStaNetwork12setEapCAPathERKNS0_11hidl_stringENSt3__18functionIFvRKNS3_16SupplicantStatusEEEE
_ZN7android8hardware4wifi10supplicant4V1_024BpHwSupplicantStaNetwork12setEapEngineEbNSt3__18functionIFvRKNS3_16SupplicantStatusEEEE
_ZN7android8hardware4wifi10supplicant4V1_024BpHwSupplicantStaNetwork12setEapMethodENS3_21ISupplicantStaNetwork9EapMethodENSt3__18functionIFvRKNS3_16SupplicantStatusEEEE
_ZN7android8hardware4wifi10supplicant4V1_024BpHwSupplicantStaNetwork13_hidl_disableEPNS0_10IInterfaceEPNS0_7details16HidlInstrumentorENSt3__18functionIFvRKNS3_16SupplicantStatusEEEE
_ZN7android8hardware4wifi10supplicant4V1_024BpHwSupplicantStaNetwork13_hidl_getSsidEPNS0_10IInterfaceEPNS0_7details16HidlInstrumentorENSt3__18functionIFvRKNS3_16SupplicantStatusERKNS0_8hidl_vecIhEEEEE
_ZN7android8hardware4wifi10supplicant4V1_024BpHwSupplicantStaNetwork13_hidl_setSsidEPNS0_10IInterfaceEPNS0_7details16HidlInstrumentorERKNS0_8hidl_vecIhEENSt3__18functionIFvRKNS3_16SupplicantStatusEEEE
_ZN7android8hardware4wifi10supplicant4V1_024BpHwSupplicantStaNetwork13getRequirePmfENSt3__18functionIFvRKNS3_16SupplicantStatusEbEEE
_ZN7android8hardware4wifi10supplicant4V1_024BpHwSupplicantStaNetwork13setRequirePmfEbNSt3__18functionIFvRKNS3_16SupplicantStatusEEEE
_ZN7android8hardware4wifi10supplicant4V1_024BpHwSupplicantStaNetwork13unlinkToDeathERKNS_2spINS0_20hidl_death_recipientEEE
_ZN7android8hardware4wifi10supplicant4V1_024BpHwSupplicantStaNetwork14_hidl_getBssidEPNS0_10IInterfaceEPNS0_7details16HidlInstrumentorENSt3__18functionIFvRKNS3_16SupplicantStatusERKNS0_10hidl_arrayIhLj6EJEEEEEE
_ZN7android8hardware4wifi10supplicant4V1_024BpHwSupplicantStaNetwork14_hidl_getIdStrEPNS0_10IInterfaceEPNS0_7details16HidlInstrumentorENSt3__18functionIFvRKNS3_16SupplicantStatusERKNS0_11hidl_stringEEEE
_ZN7android8hardware4wifi10supplicant4V1_024BpHwSupplicantStaNetwork14_hidl_getProtoEPNS0_10IInterfaceEPNS0_7details16HidlInstrumentorENSt3__18functionIFvRKNS3_16SupplicantStatusEjEEE
_ZN7android8hardware4wifi10supplicant4V1_024BpHwSupplicantStaNetwork14_hidl_setBssidEPNS0_10IInterfaceEPNS0_7details16HidlInstrumentorERKNS0_10hidl_arrayIhLj6EJEEENSt3__18functionIFvRKNS3_16SupplicantStatusEEEE
_ZN7android8hardware4wifi10supplicant4V1_024BpHwSupplicantStaNetwork14_hidl_setIdStrEPNS0_10IInterfaceEPNS0_7details16HidlInstrumentorERKNS0_11hidl_stringENSt3__18functionIFvRKNS3_16SupplicantStatusEEEE
_ZN7android8hardware4wifi10supplicant4V1_024BpHwSupplicantStaNetwork14_hidl_setProtoEPNS0_10IInterfaceEPNS0_7details16HidlInstrumentorEjNSt3__18functionIFvRKNS3_16SupplicantStatusEEEE
_ZN7android8hardware4wifi10supplicant4V1_024BpHwSupplicantStaNetwork14getEapEngineIDENSt3__18functionIFvRKNS3_16SupplicantStatusERKNS0_11hidl_stringEEEE
_ZN7android8hardware4wifi10supplicant4V1_024BpHwSupplicantStaNetwork14getEapIdentityENSt3__18functionIFvRKNS3_16SupplicantStatusERKNS0_8hidl_vecIhEEEEE
_ZN7android8hardware4wifi10supplicant4V1_024BpHwSupplicantStaNetwork14getEapPasswordENSt3__18functionIFvRKNS3_16SupplicantStatusERKNS0_8hidl_vecIhEEEEE
_ZN7android8hardware4wifi10supplicant4V1_024BpHwSupplicantStaNetwork14getGroupCipherENSt3__18functionIFvRKNS3_16SupplicantStatusEjEEE
_ZN7android8hardware4wifi10supplicant4V1_024BpHwSupplicantStaNetwork14getWepTxKeyIdxENSt3__18functionIFvRKNS3_16SupplicantStatusEjEEE
_ZN7android8hardware4wifi10supplicant4V1_024BpHwSupplicantStaNetwork14interfaceChainENSt3__18functionIFvRKNS0_8hidl_vecINS0_11hidl_stringEEEEEE
_ZN7android8hardware4wifi10supplicant4V1_024BpHwSupplicantStaNetwork14setEapEngineIDERKNS0_11hidl_stringENSt3__18functionIFvRKNS3_16SupplicantStatusEEEE
_ZN7android8hardware4wifi10supplicant4V1_024BpHwSupplicantStaNetwork14setEapIdentityERKNS0_8hidl_vecIhEENSt3__18functionIFvRKNS3_16SupplicantStatusEEEE
_ZN7android8hardware4wifi10supplicant4V1_024BpHwSupplicantStaNetwork14setEapPasswordERKNS0_8hidl_vecIhEENSt3__18functionIFvRKNS3_16SupplicantStatusEEEE
_ZN7android8hardware4wifi10supplicant4V1_024BpHwSupplicantStaNetwork14setGroupCipherEjNSt3__18functionIFvRKNS3_16SupplicantStatusEEEE
_ZN7android8hardware4wifi10supplicant4V1_024BpHwSupplicantStaNetwork14setWepTxKeyIdxEjNSt3__18functionIFvRKNS3_16SupplicantStatusEEEE
_ZN7android8hardware4wifi10supplicant4V1_024BpHwSupplicantStaNetwork15_hidl_getWepKeyEPNS0_10IInterfaceEPNS0_7details16HidlInstrumentorEjNSt3__18functionIFvRKNS3_16SupplicantStatusERKNS0_8hidl_vecIhEEEEE
_ZN7android8hardware4wifi10supplicant4V1_024BpHwSupplicantStaNetwork15_hidl_setWepKeyEPNS0_10IInterfaceEPNS0_7details16HidlInstrumentorEjRKNS0_8hidl_vecIhEENSt3__18functionIFvRKNS3_16SupplicantStatusEEEE
_ZN7android8hardware4wifi10supplicant4V1_024BpHwSupplicantStaNetwork16_hidl_getAuthAlgEPNS0_10IInterfaceEPNS0_7details16HidlInstrumentorENSt3__18functionIFvRKNS3_16SupplicantStatusEjEEE
_ZN7android8hardware4wifi10supplicant4V1_024BpHwSupplicantStaNetwork16_hidl_getKeyMgmtEPNS0_10IInterfaceEPNS0_7details16HidlInstrumentorENSt3__18functionIFvRKNS3_16SupplicantStatusEjEEE
_ZN7android8hardware4wifi10supplicant4V1_024BpHwSupplicantStaNetwork16_hidl_setAuthAlgEPNS0_10IInterfaceEPNS0_7details16HidlInstrumentorEjNSt3__18functionIFvRKNS3_16SupplicantStatusEEEE
_ZN7android8hardware4wifi10supplicant4V1_024BpHwSupplicantStaNetwork16_hidl_setKeyMgmtEPNS0_10IInterfaceEPNS0_7details16HidlInstrumentorEjNSt3__18functionIFvRKNS3_16SupplicantStatusEEEE
_ZN7android8hardware4wifi10supplicant4V1_024BpHwSupplicantStaNetwork16getEapClientCertENSt3__18functionIFvRKNS3_16SupplicantStatusERKNS0_11hidl_stringEEEE
_ZN7android8hardware4wifi10supplicant4V1_024BpHwSupplicantStaNetwork16getInterfaceNameENSt3__18functionIFvRKNS3_16SupplicantStatusERKNS0_11hidl_stringEEEE
_ZN7android8hardware4wifi10supplicant4V1_024BpHwSupplicantStaNetwork16getPskPassphraseENSt3__18functionIFvRKNS3_16SupplicantStatusERKNS0_11hidl_stringEEEE
_ZN7android8hardware4wifi10supplicant4V1_024BpHwSupplicantStaNetwork16registerCallbackERKNS_2spINS3_29ISupplicantStaNetworkCallbackEEENSt3__18functionIFvRKNS3_16SupplicantStatusEEEE
_ZN7android8hardware4wifi10supplicant4V1_024BpHwSupplicantStaNetwork16setEapClientCertERKNS0_11hidl_stringENSt3__18functionIFvRKNS3_16SupplicantStatusEEEE
_ZN7android8hardware4wifi10supplicant4V1_024BpHwSupplicantStaNetwork16setPskPassphraseERKNS0_11hidl_stringENSt3__18functionIFvRKNS3_16SupplicantStatusEEEE
_ZN7android8hardware4wifi10supplicant4V1_024BpHwSupplicantStaNetwork17_hidl_getScanSsidEPNS0_10IInterfaceEPNS0_7details16HidlInstrumentorENSt3__18functionIFvRKNS3_16SupplicantStatusEbEEE
_ZN7android8hardware4wifi10supplicant4V1_024BpHwSupplicantStaNetwork17_hidl_setScanSsidEPNS0_10IInterfaceEPNS0_7details16HidlInstrumentorEbNSt3__18functionIFvRKNS3_16SupplicantStatusEEEE
_ZN7android8hardware4wifi10supplicant4V1_024BpHwSupplicantStaNetwork17getPairwiseCipherENSt3__18functionIFvRKNS3_16SupplicantStatusEjEEE
_ZN7android8hardware4wifi10supplicant4V1_024BpHwSupplicantStaNetwork17setPairwiseCipherEjNSt3__18functionIFvRKNS3_16SupplicantStatusEEEE
_ZN7android8hardware4wifi10supplicant4V1_024BpHwSupplicantStaNetwork18_hidl_getEapCACertEPNS0_10IInterfaceEPNS0_7details16HidlInstrumentorENSt3__18functionIFvRKNS3_16SupplicantStatusERKNS0_11hidl_stringEEEE
_ZN7android8hardware4wifi10supplicant4V1_024BpHwSupplicantStaNetwork18_hidl_getEapCAPathEPNS0_10IInterfaceEPNS0_7details16HidlInstrumentorENSt3__18functionIFvRKNS3_16SupplicantStatusERKNS0_11hidl_stringEEEE
_ZN7android8hardware4wifi10supplicant4V1_024BpHwSupplicantStaNetwork18_hidl_getEapEngineEPNS0_10IInterfaceEPNS0_7details16HidlInstrumentorENSt3__18functionIFvRKNS3_16SupplicantStatusEbEEE
_ZN7android8hardware4wifi10supplicant4V1_024BpHwSupplicantStaNetwork18_hidl_getEapMethodEPNS0_10IInterfaceEPNS0_7details16HidlInstrumentorENSt3__18functionIFvRKNS3_16SupplicantStatusENS3_21ISupplicantStaNetwork9EapMethodEEEE
_ZN7android8hardware4wifi10supplicant4V1_024BpHwSupplicantStaNetwork18_hidl_setEapCACertEPNS0_10IInterfaceEPNS0_7details16HidlInstrumentorERKNS0_11hidl_stringENSt3__18functionIFvRKNS3_16SupplicantStatusEEEE
_ZN7android8hardware4wifi10supplicant4V1_024BpHwSupplicantStaNetwork18_hidl_setEapCAPathEPNS0_10IInterfaceEPNS0_7details16HidlInstrumentorERKNS0_11hidl_stringENSt3__18functionIFvRKNS3_16SupplicantStatusEEEE
_ZN7android8hardware4wifi10supplicant4V1_024BpHwSupplicantStaNetwork18_hidl_setEapEngineEPNS0_10IInterfaceEPNS0_7details16HidlInstrumentorEbNSt3__18functionIFvRKNS3_16SupplicantStatusEEEE
_ZN7android8hardware4wifi10supplicant4V1_024BpHwSupplicantStaNetwork18_hidl_setEapMethodEPNS0_10IInterfaceEPNS0_7details16HidlInstrumentorENS3_21ISupplicantStaNetwork9EapMethodENSt3__18functionIFvRKNS3_16SupplicantStatusEEEE
_ZN7android8hardware4wifi10supplicant4V1_024BpHwSupplicantStaNetwork18getEapPhase2MethodENSt3__18functionIFvRKNS3_16SupplicantStatusENS3_21ISupplicantStaNetwork15EapPhase2MethodEEEE
_ZN7android8hardware4wifi10supplicant4V1_024BpHwSupplicantStaNetwork18getEapPrivateKeyIdENSt3__18functionIFvRKNS3_16SupplicantStatusERKNS0_11hidl_stringEEEE
_ZN7android8hardware4wifi10supplicant4V1_024BpHwSupplicantStaNetwork18getEapSubjectMatchENSt3__18functionIFvRKNS3_16SupplicantStatusERKNS0_11hidl_stringEEEE
_ZN7android8hardware4wifi10supplicant4V1_024BpHwSupplicantStaNetwork18setEapPhase2MethodENS3_21ISupplicantStaNetwork15EapPhase2MethodENSt3__18functionIFvRKNS3_16SupplicantStatusEEEE
_ZN7android8hardware4wifi10supplicant4V1_024BpHwSupplicantStaNetwork18setEapPrivateKeyIdERKNS0_11hidl_stringENSt3__18functionIFvRKNS3_16SupplicantStatusEEEE
_ZN7android8hardware4wifi10supplicant4V1_024BpHwSupplicantStaNetwork18setEapSubjectMatchERKNS0_11hidl_stringENSt3__18functionIFvRKNS3_16SupplicantStatusEEEE
_ZN7android8hardware4wifi10supplicant4V1_024BpHwSupplicantStaNetwork19_hidl_getRequirePmfEPNS0_10IInterfaceEPNS0_7details16HidlInstrumentorENSt3__18functionIFvRKNS3_16SupplicantStatusEbEEE
_ZN7android8hardware4wifi10supplicant4V1_024BpHwSupplicantStaNetwork19_hidl_setRequirePmfEPNS0_10IInterfaceEPNS0_7details16HidlInstrumentorEbNSt3__18functionIFvRKNS3_16SupplicantStatusEEEE
_ZN7android8hardware4wifi10supplicant4V1_024BpHwSupplicantStaNetwork19interfaceDescriptorENSt3__18functionIFvRKNS0_11hidl_stringEEEE
_ZN7android8hardware4wifi10supplicant4V1_024BpHwSupplicantStaNetwork19setUpdateIdentifierEjNSt3__18functionIFvRKNS3_16SupplicantStatusEEEE
_ZN7android8hardware4wifi10supplicant4V1_024BpHwSupplicantStaNetwork20_hidl_getEapEngineIDEPNS0_10IInterfaceEPNS0_7details16HidlInstrumentorENSt3__18functionIFvRKNS3_16SupplicantStatusERKNS0_11hidl_stringEEEE
_ZN7android8hardware4wifi10supplicant4V1_024BpHwSupplicantStaNetwork20_hidl_getEapIdentityEPNS0_10IInterfaceEPNS0_7details16HidlInstrumentorENSt3__18functionIFvRKNS3_16SupplicantStatusERKNS0_8hidl_vecIhEEEEE
_ZN7android8hardware4wifi10supplicant4V1_024BpHwSupplicantStaNetwork20_hidl_getEapPasswordEPNS0_10IInterfaceEPNS0_7details16HidlInstrumentorENSt3__18functionIFvRKNS3_16SupplicantStatusERKNS0_8hidl_vecIhEEEEE
_ZN7android8hardware4wifi10supplicant4V1_024BpHwSupplicantStaNetwork20_hidl_getGroupCipherEPNS0_10IInterfaceEPNS0_7details16HidlInstrumentorENSt3__18functionIFvRKNS3_16SupplicantStatusEjEEE
_ZN7android8hardware4wifi10supplicant4V1_024BpHwSupplicantStaNetwork20_hidl_getWepTxKeyIdxEPNS0_10IInterfaceEPNS0_7details16HidlInstrumentorENSt3__18functionIFvRKNS3_16SupplicantStatusEjEEE
_ZN7android8hardware4wifi10supplicant4V1_024BpHwSupplicantStaNetwork20_hidl_setEapEngineIDEPNS0_10IInterfaceEPNS0_7details16HidlInstrumentorERKNS0_11hidl_stringENSt3__18functionIFvRKNS3_16SupplicantStatusEEEE
_ZN7android8hardware4wifi10supplicant4V1_024BpHwSupplicantStaNetwork20_hidl_setEapIdentityEPNS0_10IInterfaceEPNS0_7details16HidlInstrumentorERKNS0_8hidl_vecIhEENSt3__18functionIFvRKNS3_16SupplicantStatusEEEE
_ZN7android8hardware4wifi10supplicant4V1_024BpHwSupplicantStaNetwork20_hidl_setEapPasswordEPNS0_10IInterfaceEPNS0_7details16HidlInstrumentorERKNS0_8hidl_vecIhEENSt3__18functionIFvRKNS3_16SupplicantStatusEEEE
_ZN7android8hardware4wifi10supplicant4V1_024BpHwSupplicantStaNetwork20_hidl_setGroupCipherEPNS0_10IInterfaceEPNS0_7details16HidlInstrumentorEjNSt3__18functionIFvRKNS3_16SupplicantStatusEEEE
_ZN7android8hardware4wifi10supplicant4V1_024BpHwSupplicantStaNetwork20_hidl_setWepTxKeyIdxEPNS0_10IInterfaceEPNS0_7details16HidlInstrumentorEjNSt3__18functionIFvRKNS3_16SupplicantStatusEEEE
_ZN7android8hardware4wifi10supplicant4V1_024BpHwSupplicantStaNetwork21getEapAltSubjectMatchENSt3__18functionIFvRKNS3_16SupplicantStatusERKNS0_11hidl_stringEEEE
_ZN7android8hardware4wifi10supplicant4V1_024BpHwSupplicantStaNetwork21notifySyspropsChangedEv
_ZN7android8hardware4wifi10supplicant4V1_024BpHwSupplicantStaNetwork21setEapAltSubjectMatchERKNS0_11hidl_stringENSt3__18functionIFvRKNS3_16SupplicantStatusEEEE
_ZN7android8hardware4wifi10supplicant4V1_024BpHwSupplicantStaNetwork21setHALInstrumentationEv
_ZN7android8hardware4wifi10supplicant4V1_024BpHwSupplicantStaNetwork22_hidl_getEapClientCertEPNS0_10IInterfaceEPNS0_7details16HidlInstrumentorENSt3__18functionIFvRKNS3_16SupplicantStatusERKNS0_11hidl_stringEEEE
_ZN7android8hardware4wifi10supplicant4V1_024BpHwSupplicantStaNetwork22_hidl_getPskPassphraseEPNS0_10IInterfaceEPNS0_7details16HidlInstrumentorENSt3__18functionIFvRKNS3_16SupplicantStatusERKNS0_11hidl_stringEEEE
_ZN7android8hardware4wifi10supplicant4V1_024BpHwSupplicantStaNetwork22_hidl_registerCallbackEPNS0_10IInterfaceEPNS0_7details16HidlInstrumentorERKNS_2spINS3_29ISupplicantStaNetworkCallbackEEENSt3__18functionIFvRKNS3_16SupplicantStatusEEEE
_ZN7android8hardware4wifi10supplicant4V1_024BpHwSupplicantStaNetwork22_hidl_setEapClientCertEPNS0_10IInterfaceEPNS0_7details16HidlInstrumentorERKNS0_11hidl_stringENSt3__18functionIFvRKNS3_16SupplicantStatusEEEE
_ZN7android8hardware4wifi10supplicant4V1_024BpHwSupplicantStaNetwork22_hidl_setPskPassphraseEPNS0_10IInterfaceEPNS0_7details16HidlInstrumentorERKNS0_11hidl_stringENSt3__18functionIFvRKNS3_16SupplicantStatusEEEE
_ZN7android8hardware4wifi10supplicant4V1_024BpHwSupplicantStaNetwork22setProactiveKeyCachingEbNSt3__18functionIFvRKNS3_16SupplicantStatusEEEE
_ZN7android8hardware4wifi10supplicant4V1_024BpHwSupplicantStaNetwork23_hidl_getPairwiseCipherEPNS0_10IInterfaceEPNS0_7details16HidlInstrumentorENSt3__18functionIFvRKNS3_16SupplicantStatusEjEEE
_ZN7android8hardware4wifi10supplicant4V1_024BpHwSupplicantStaNetwork23_hidl_setPairwiseCipherEPNS0_10IInterfaceEPNS0_7details16HidlInstrumentorEjNSt3__18functionIFvRKNS3_16SupplicantStatusEEEE
_ZN7android8hardware4wifi10supplicant4V1_024BpHwSupplicantStaNetwork23getEapAnonymousIdentityENSt3__18functionIFvRKNS3_16SupplicantStatusERKNS0_8hidl_vecIhEEEEE
_ZN7android8hardware4wifi10supplicant4V1_024BpHwSupplicantStaNetwork23getEapDomainSuffixMatchENSt3__18functionIFvRKNS3_16SupplicantStatusERKNS0_11hidl_stringEEEE
_ZN7android8hardware4wifi10supplicant4V1_024BpHwSupplicantStaNetwork23setEapAnonymousIdentityERKNS0_8hidl_vecIhEENSt3__18functionIFvRKNS3_16SupplicantStatusEEEE
_ZN7android8hardware4wifi10supplicant4V1_024BpHwSupplicantStaNetwork23setEapDomainSuffixMatchERKNS0_11hidl_stringENSt3__18functionIFvRKNS3_16SupplicantStatusEEEE
_ZN7android8hardware4wifi10supplicant4V1_024BpHwSupplicantStaNetwork24_hidl_getEapPhase2MethodEPNS0_10IInterfaceEPNS0_7details16HidlInstrumentorENSt3__18functionIFvRKNS3_16SupplicantStatusENS3_21ISupplicantStaNetwork15EapPhase2MethodEEEE
_ZN7android8hardware4wifi10supplicant4V1_024BpHwSupplicantStaNetwork24_hidl_getEapPrivateKeyIdEPNS0_10IInterfaceEPNS0_7details16HidlInstrumentorENSt3__18functionIFvRKNS3_16SupplicantStatusERKNS0_11hidl_stringEEEE
_ZN7android8hardware4wifi10supplicant4V1_024BpHwSupplicantStaNetwork24_hidl_getEapSubjectMatchEPNS0_10IInterfaceEPNS0_7details16HidlInstrumentorENSt3__18functionIFvRKNS3_16SupplicantStatusERKNS0_11hidl_stringEEEE
_ZN7android8hardware4wifi10supplicant4V1_024BpHwSupplicantStaNetwork24_hidl_setEapPhase2MethodEPNS0_10IInterfaceEPNS0_7details16HidlInstrumentorENS3_21ISupplicantStaNetwork15EapPhase2MethodENSt3__18functionIFvRKNS3_16SupplicantStatusEEEE
_ZN7android8hardware4wifi10supplicant4V1_024BpHwSupplicantStaNetwork24_hidl_setEapPrivateKeyIdEPNS0_10IInterfaceEPNS0_7details16HidlInstrumentorERKNS0_11hidl_stringENSt3__18functionIFvRKNS3_16SupplicantStatusEEEE
_ZN7android8hardware4wifi10supplicant4V1_024BpHwSupplicantStaNetwork24_hidl_setEapSubjectMatchEPNS0_10IInterfaceEPNS0_7details16HidlInstrumentorERKNS0_11hidl_stringENSt3__18functionIFvRKNS3_16SupplicantStatusEEEE
_ZN7android8hardware4wifi10supplicant4V1_024BpHwSupplicantStaNetwork25_hidl_setUpdateIdentifierEPNS0_10IInterfaceEPNS0_7details16HidlInstrumentorEjNSt3__18functionIFvRKNS3_16SupplicantStatusEEEE
_ZN7android8hardware4wifi10supplicant4V1_024BpHwSupplicantStaNetwork27_hidl_getEapAltSubjectMatchEPNS0_10IInterfaceEPNS0_7details16HidlInstrumentorENSt3__18functionIFvRKNS3_16SupplicantStatusERKNS0_11hidl_stringEEEE
_ZN7android8hardware4wifi10supplicant4V1_024BpHwSupplicantStaNetwork27_hidl_setEapAltSubjectMatchEPNS0_10IInterfaceEPNS0_7details16HidlInstrumentorERKNS0_11hidl_stringENSt3__18functionIFvRKNS3_16SupplicantStatusEEEE
_ZN7android8hardware4wifi10supplicant4V1_024BpHwSupplicantStaNetwork27getWpsNfcConfigurationTokenENSt3__18functionIFvRKNS3_16SupplicantStatusERKNS0_8hidl_vecIhEEEEE
_ZN7android8hardware4wifi10supplicant4V1_024BpHwSupplicantStaNetwork28_hidl_setProactiveKeyCachingEPNS0_10IInterfaceEPNS0_7details16HidlInstrumentorEbNSt3__18functionIFvRKNS3_16SupplicantStatusEEEE
_ZN7android8hardware4wifi10supplicant4V1_024BpHwSupplicantStaNetwork29_hidl_getEapAnonymousIdentityEPNS0_10IInterfaceEPNS0_7details16HidlInstrumentorENSt3__18functionIFvRKNS3_16SupplicantStatusERKNS0_8hidl_vecIhEEEEE
_ZN7android8hardware4wifi10supplicant4V1_024BpHwSupplicantStaNetwork29_hidl_getEapDomainSuffixMatchEPNS0_10IInterfaceEPNS0_7details16HidlInstrumentorENSt3__18functionIFvRKNS3_16SupplicantStatusERKNS0_11hidl_stringEEEE
_ZN7android8hardware4wifi10supplicant4V1_024BpHwSupplicantStaNetwork29_hidl_setEapAnonymousIdentityEPNS0_10IInterfaceEPNS0_7details16HidlInstrumentorERKNS0_8hidl_vecIhEENSt3__18functionIFvRKNS3_16SupplicantStatusEEEE
_ZN7android8hardware4wifi10supplicant4V1_024BpHwSupplicantStaNetwork29_hidl_setEapDomainSuffixMatchEPNS0_10IInterfaceEPNS0_7details16HidlInstrumentorERKNS0_11hidl_stringENSt3__18functionIFvRKNS3_16SupplicantStatusEEEE
_ZN7android8hardware4wifi10supplicant4V1_024BpHwSupplicantStaNetwork30sendNetworkEapIdentityResponseERKNS0_8hidl_vecIhEENSt3__18functionIFvRKNS3_16SupplicantStatusEEEE
_ZN7android8hardware4wifi10supplicant4V1_024BpHwSupplicantStaNetwork31sendNetworkEapSimGsmAuthFailureENSt3__18functionIFvRKNS3_16SupplicantStatusEEEE
_ZN7android8hardware4wifi10supplicant4V1_024BpHwSupplicantStaNetwork32sendNetworkEapSimGsmAuthResponseERKNS0_8hidl_vecINS3_21ISupplicantStaNetwork34NetworkResponseEapSimGsmAuthParamsEEENSt3__18functionIFvRKNS3_16SupplicantStatusEEEE
_ZN7android8hardware4wifi10supplicant4V1_024BpHwSupplicantStaNetwork32sendNetworkEapSimUmtsAuthFailureENSt3__18functionIFvRKNS3_16SupplicantStatusEEEE
_ZN7android8hardware4wifi10supplicant4V1_024BpHwSupplicantStaNetwork33_hidl_getWpsNfcConfigurationTokenEPNS0_10IInterfaceEPNS0_7details16HidlInstrumentorENSt3__18functionIFvRKNS3_16SupplicantStatusERKNS0_8hidl_vecIhEEEEE
_ZN7android8hardware4wifi10supplicant4V1_024BpHwSupplicantStaNetwork33sendNetworkEapSimUmtsAuthResponseERKNS3_21ISupplicantStaNetwork35NetworkResponseEapSimUmtsAuthParamsENSt3__18functionIFvRKNS3_16SupplicantStatusEEEE
_ZN7android8hardware4wifi10supplicant4V1_024BpHwSupplicantStaNetwork33sendNetworkEapSimUmtsAutsResponseERKNS0_10hidl_arrayIhLj14EJEEENSt3__18functionIFvRKNS3_16SupplicantStatusEEEE
_ZN7android8hardware4wifi10supplicant4V1_024BpHwSupplicantStaNetwork36_hidl_sendNetworkEapIdentityResponseEPNS0_10IInterfaceEPNS0_7details16HidlInstrumentorERKNS0_8hidl_vecIhEENSt3__18functionIFvRKNS3_16SupplicantStatusEEEE
_ZN7android8hardware4wifi10supplicant4V1_024BpHwSupplicantStaNetwork37_hidl_sendNetworkEapSimGsmAuthFailureEPNS0_10IInterfaceEPNS0_7details16HidlInstrumentorENSt3__18functionIFvRKNS3_16SupplicantStatusEEEE
_ZN7android8hardware4wifi10supplicant4V1_024BpHwSupplicantStaNetwork38_hidl_sendNetworkEapSimGsmAuthResponseEPNS0_10IInterfaceEPNS0_7details16HidlInstrumentorERKNS0_8hidl_vecINS3_21ISupplicantStaNetwork34NetworkResponseEapSimGsmAuthParamsEEENSt3__18functionIFvRKNS3_16SupplicantStatusEEEE
_ZN7android8hardware4wifi10supplicant4V1_024BpHwSupplicantStaNetwork38_hidl_sendNetworkEapSimUmtsAuthFailureEPNS0_10IInterfaceEPNS0_7details16HidlInstrumentorENSt3__18functionIFvRKNS3_16SupplicantStatusEEEE
_ZN7android8hardware4wifi10supplicant4V1_024BpHwSupplicantStaNetwork39_hidl_sendNetworkEapSimUmtsAuthResponseEPNS0_10IInterfaceEPNS0_7details16HidlInstrumentorERKNS3_21ISupplicantStaNetwork35NetworkResponseEapSimUmtsAuthParamsENSt3__18functionIFvRKNS3_16SupplicantStatusEEEE
_ZN7android8hardware4wifi10supplicant4V1_024BpHwSupplicantStaNetwork39_hidl_sendNetworkEapSimUmtsAutsResponseEPNS0_10IInterfaceEPNS0_7details16HidlInstrumentorERKNS0_10hidl_arrayIhLj14EJEEENSt3__18functionIFvRKNS3_16SupplicantStatusEEEE
_ZN7android8hardware4wifi10supplicant4V1_024BpHwSupplicantStaNetwork4pingEv
_ZN7android8hardware4wifi10supplicant4V1_024BpHwSupplicantStaNetwork5debugERKNS0_11hidl_handleERKNS0_8hidl_vecINS0_11hidl_stringEEE
_ZN7android8hardware4wifi10supplicant4V1_024BpHwSupplicantStaNetwork5getIdENSt3__18functionIFvRKNS3_16SupplicantStatusEjEEE
_ZN7android8hardware4wifi10supplicant4V1_024BpHwSupplicantStaNetwork6enableEbNSt3__18functionIFvRKNS3_16SupplicantStatusEEEE
_ZN7android8hardware4wifi10supplicant4V1_024BpHwSupplicantStaNetwork6getPskENSt3__18functionIFvRKNS3_16SupplicantStatusERKNS0_10hidl_arrayIhLj32EJEEEEEE
_ZN7android8hardware4wifi10supplicant4V1_024BpHwSupplicantStaNetwork6selectENSt3__18functionIFvRKNS3_16SupplicantStatusEEEE
_ZN7android8hardware4wifi10supplicant4V1_024BpHwSupplicantStaNetwork6setPskERKNS0_10hidl_arrayIhLj32EJEEENSt3__18functionIFvRKNS3_16SupplicantStatusEEEE
_ZN7android8hardware4wifi10supplicant4V1_024BpHwSupplicantStaNetwork7disableENSt3__18functionIFvRKNS3_16SupplicantStatusEEEE
_ZN7android8hardware4wifi10supplicant4V1_024BpHwSupplicantStaNetwork7getSsidENSt3__18functionIFvRKNS3_16SupplicantStatusERKNS0_8hidl_vecIhEEEEE
_ZN7android8hardware4wifi10supplicant4V1_024BpHwSupplicantStaNetwork7getTypeENSt3__18functionIFvRKNS3_16SupplicantStatusENS3_9IfaceTypeEEEE
_ZN7android8hardware4wifi10supplicant4V1_024BpHwSupplicantStaNetwork7setSsidERKNS0_8hidl_vecIhEENSt3__18functionIFvRKNS3_16SupplicantStatusEEEE
_ZN7android8hardware4wifi10supplicant4V1_024BpHwSupplicantStaNetwork8getBssidENSt3__18functionIFvRKNS3_16SupplicantStatusERKNS0_10hidl_arrayIhLj6EJEEEEEE
_ZN7android8hardware4wifi10supplicant4V1_024BpHwSupplicantStaNetwork8getIdStrENSt3__18functionIFvRKNS3_16SupplicantStatusERKNS0_11hidl_stringEEEE
_ZN7android8hardware4wifi10supplicant4V1_024BpHwSupplicantStaNetwork8getProtoENSt3__18functionIFvRKNS3_16SupplicantStatusEjEEE
_ZN7android8hardware4wifi10supplicant4V1_024BpHwSupplicantStaNetwork8setBssidERKNS0_10hidl_arrayIhLj6EJEEENSt3__18functionIFvRKNS3_16SupplicantStatusEEEE
_ZN7android8hardware4wifi10supplicant4V1_024BpHwSupplicantStaNetwork8setIdStrERKNS0_11hidl_stringENSt3__18functionIFvRKNS3_16SupplicantStatusEEEE
_ZN7android8hardware4wifi10supplicant4V1_024BpHwSupplicantStaNetwork8setProtoEjNSt3__18functionIFvRKNS3_16SupplicantStatusEEEE
_ZN7android8hardware4wifi10supplicant4V1_024BpHwSupplicantStaNetwork9getWepKeyEjNSt3__18functionIFvRKNS3_16SupplicantStatusERKNS0_8hidl_vecIhEEEEE
_ZN7android8hardware4wifi10supplicant4V1_024BpHwSupplicantStaNetwork9setWepKeyEjRKNS0_8hidl_vecIhEENSt3__18functionIFvRKNS3_16SupplicantStatusEEEE
_ZN7android8hardware4wifi10supplicant4V1_024BpHwSupplicantStaNetworkC1ERKNS_2spINS0_7IBinderEEE
_ZN7android8hardware4wifi10supplicant4V1_024BpHwSupplicantStaNetworkC2ERKNS_2spINS0_7IBinderEEE
_ZN7android8hardware4wifi10supplicant4V1_027ISupplicantP2pIfaceCallback10descriptorE
_ZN7android8hardware4wifi10supplicant4V1_027ISupplicantP2pIfaceCallback10getServiceERKNSt3__112basic_stringIcNS5_11char_traitsIcEENS5_9allocatorIcEEEEb
_ZN7android8hardware4wifi10supplicant4V1_027ISupplicantP2pIfaceCallback11linkToDeathERKNS_2spINS0_20hidl_death_recipientEEEy
_ZN7android8hardware4wifi10supplicant4V1_027ISupplicantP2pIfaceCallback12getDebugInfoENSt3__18functionIFvRKNS_4hidl4base4V1_09DebugInfoEEEE
_ZN7android8hardware4wifi10supplicant4V1_027ISupplicantP2pIfaceCallback12getHashChainENSt3__18functionIFvRKNS0_8hidl_vecINS0_10hidl_arrayIhLj32EJEEEEEEEE
_ZN7android8hardware4wifi10supplicant4V1_027ISupplicantP2pIfaceCallback13tryGetServiceERKNSt3__112basic_stringIcNS5_11char_traitsIcEENS5_9allocatorIcEEEEb
_ZN7android8hardware4wifi10supplicant4V1_027ISupplicantP2pIfaceCallback13unlinkToDeathERKNS_2spINS0_20hidl_death_recipientEEE
_ZN7android8hardware4wifi10supplicant4V1_027ISupplicantP2pIfaceCallback14interfaceChainENSt3__18functionIFvRKNS0_8hidl_vecINS0_11hidl_stringEEEEEE
_ZN7android8hardware4wifi10supplicant4V1_027ISupplicantP2pIfaceCallback17registerAsServiceERKNSt3__112basic_stringIcNS5_11char_traitsIcEENS5_9allocatorIcEEEE
_ZN7android8hardware4wifi10supplicant4V1_027ISupplicantP2pIfaceCallback19interfaceDescriptorENSt3__18functionIFvRKNS0_11hidl_stringEEEE
_ZN7android8hardware4wifi10supplicant4V1_027ISupplicantP2pIfaceCallback21notifySyspropsChangedEv
_ZN7android8hardware4wifi10supplicant4V1_027ISupplicantP2pIfaceCallback21setHALInstrumentationEv
_ZN7android8hardware4wifi10supplicant4V1_027ISupplicantP2pIfaceCallback24registerForNotificationsERKNSt3__112basic_stringIcNS5_11char_traitsIcEENS5_9allocatorIcEEEERKNS_2spINS_4hidl7manager4V1_020IServiceNotificationEEE
_ZN7android8hardware4wifi10supplicant4V1_027ISupplicantP2pIfaceCallback4pingEv
_ZN7android8hardware4wifi10supplicant4V1_027ISupplicantP2pIfaceCallback5debugERKNS0_11hidl_handleERKNS0_8hidl_vecINS0_11hidl_stringEEE
_ZN7android8hardware4wifi10supplicant4V1_027ISupplicantP2pIfaceCallback8castFromERKNS_2spINS_4hidl4base4V1_05IBaseEEEb
_ZN7android8hardware4wifi10supplicant4V1_027ISupplicantP2pIfaceCallback8castFromERKNS_2spIS4_EEb
_ZN7android8hardware4wifi10supplicant4V1_027ISupplicantStaIfaceCallback10descriptorE
_ZN7android8hardware4wifi10supplicant4V1_027ISupplicantStaIfaceCallback10getServiceERKNSt3__112basic_stringIcNS5_11char_traitsIcEENS5_9allocatorIcEEEEb
_ZN7android8hardware4wifi10supplicant4V1_027ISupplicantStaIfaceCallback11linkToDeathERKNS_2spINS0_20hidl_death_recipientEEEy
_ZN7android8hardware4wifi10supplicant4V1_027ISupplicantStaIfaceCallback12getDebugInfoENSt3__18functionIFvRKNS_4hidl4base4V1_09DebugInfoEEEE
_ZN7android8hardware4wifi10supplicant4V1_027ISupplicantStaIfaceCallback12getHashChainENSt3__18functionIFvRKNS0_8hidl_vecINS0_10hidl_arrayIhLj32EJEEEEEEEE
_ZN7android8hardware4wifi10supplicant4V1_027ISupplicantStaIfaceCallback13tryGetServiceERKNSt3__112basic_stringIcNS5_11char_traitsIcEENS5_9allocatorIcEEEEb
_ZN7android8hardware4wifi10supplicant4V1_027ISupplicantStaIfaceCallback13unlinkToDeathERKNS_2spINS0_20hidl_death_recipientEEE
_ZN7android8hardware4wifi10supplicant4V1_027ISupplicantStaIfaceCallback14interfaceChainENSt3__18functionIFvRKNS0_8hidl_vecINS0_11hidl_stringEEEEEE
_ZN7android8hardware4wifi10supplicant4V1_027ISupplicantStaIfaceCallback17registerAsServiceERKNSt3__112basic_stringIcNS5_11char_traitsIcEENS5_9allocatorIcEEEE
_ZN7android8hardware4wifi10supplicant4V1_027ISupplicantStaIfaceCallback19interfaceDescriptorENSt3__18functionIFvRKNS0_11hidl_stringEEEE
_ZN7android8hardware4wifi10supplicant4V1_027ISupplicantStaIfaceCallback21notifySyspropsChangedEv
_ZN7android8hardware4wifi10supplicant4V1_027ISupplicantStaIfaceCallback21setHALInstrumentationEv
_ZN7android8hardware4wifi10supplicant4V1_027ISupplicantStaIfaceCallback24registerForNotificationsERKNSt3__112basic_stringIcNS5_11char_traitsIcEENS5_9allocatorIcEEEERKNS_2spINS_4hidl7manager4V1_020IServiceNotificationEEE
_ZN7android8hardware4wifi10supplicant4V1_027ISupplicantStaIfaceCallback4pingEv
_ZN7android8hardware4wifi10supplicant4V1_027ISupplicantStaIfaceCallback5debugERKNS0_11hidl_handleERKNS0_8hidl_vecINS0_11hidl_stringEEE
_ZN7android8hardware4wifi10supplicant4V1_027ISupplicantStaIfaceCallback8castFromERKNS_2spINS_4hidl4base4V1_05IBaseEEEb
_ZN7android8hardware4wifi10supplicant4V1_027ISupplicantStaIfaceCallback8castFromERKNS_2spIS4_EEb
_ZN7android8hardware4wifi10supplicant4V1_028BsSupplicantP2pIfaceCallback13addOnewayTaskENSt3__18functionIFvvEEE
_ZN7android8hardware4wifi10supplicant4V1_028BsSupplicantP2pIfaceCallbackC1ENS_2spINS3_27ISupplicantP2pIfaceCallbackEEE
_ZN7android8hardware4wifi10supplicant4V1_028BsSupplicantP2pIfaceCallbackC2ENS_2spINS3_27ISupplicantP2pIfaceCallbackEEE
_ZN7android8hardware4wifi10supplicant4V1_028BsSupplicantStaIfaceCallback13addOnewayTaskENSt3__18functionIFvvEEE
_ZN7android8hardware4wifi10supplicant4V1_028BsSupplicantStaIfaceCallbackC1ENS_2spINS3_27ISupplicantStaIfaceCallbackEEE
_ZN7android8hardware4wifi10supplicant4V1_028BsSupplicantStaIfaceCallbackC2ENS_2spINS3_27ISupplicantStaIfaceCallbackEEE
_ZN7android8hardware4wifi10supplicant4V1_029ISupplicantP2pNetworkCallback10descriptorE
_ZN7android8hardware4wifi10supplicant4V1_029ISupplicantP2pNetworkCallback10getServiceERKNSt3__112basic_stringIcNS5_11char_traitsIcEENS5_9allocatorIcEEEEb
_ZN7android8hardware4wifi10supplicant4V1_029ISupplicantP2pNetworkCallback11linkToDeathERKNS_2spINS0_20hidl_death_recipientEEEy
_ZN7android8hardware4wifi10supplicant4V1_029ISupplicantP2pNetworkCallback12getDebugInfoENSt3__18functionIFvRKNS_4hidl4base4V1_09DebugInfoEEEE
_ZN7android8hardware4wifi10supplicant4V1_029ISupplicantP2pNetworkCallback12getHashChainENSt3__18functionIFvRKNS0_8hidl_vecINS0_10hidl_arrayIhLj32EJEEEEEEEE
_ZN7android8hardware4wifi10supplicant4V1_029ISupplicantP2pNetworkCallback13tryGetServiceERKNSt3__112basic_stringIcNS5_11char_traitsIcEENS5_9allocatorIcEEEEb
_ZN7android8hardware4wifi10supplicant4V1_029ISupplicantP2pNetworkCallback13unlinkToDeathERKNS_2spINS0_20hidl_death_recipientEEE
_ZN7android8hardware4wifi10supplicant4V1_029ISupplicantP2pNetworkCallback14interfaceChainENSt3__18functionIFvRKNS0_8hidl_vecINS0_11hidl_stringEEEEEE
_ZN7android8hardware4wifi10supplicant4V1_029ISupplicantP2pNetworkCallback17registerAsServiceERKNSt3__112basic_stringIcNS5_11char_traitsIcEENS5_9allocatorIcEEEE
_ZN7android8hardware4wifi10supplicant4V1_029ISupplicantP2pNetworkCallback19interfaceDescriptorENSt3__18functionIFvRKNS0_11hidl_stringEEEE
_ZN7android8hardware4wifi10supplicant4V1_029ISupplicantP2pNetworkCallback21notifySyspropsChangedEv
_ZN7android8hardware4wifi10supplicant4V1_029ISupplicantP2pNetworkCallback21setHALInstrumentationEv
_ZN7android8hardware4wifi10supplicant4V1_029ISupplicantP2pNetworkCallback24registerForNotificationsERKNSt3__112basic_stringIcNS5_11char_traitsIcEENS5_9allocatorIcEEEERKNS_2spINS_4hidl7manager4V1_020IServiceNotificationEEE
_ZN7android8hardware4wifi10supplicant4V1_029ISupplicantP2pNetworkCallback4pingEv
_ZN7android8hardware4wifi10supplicant4V1_029ISupplicantP2pNetworkCallback5debugERKNS0_11hidl_handleERKNS0_8hidl_vecINS0_11hidl_stringEEE
_ZN7android8hardware4wifi10supplicant4V1_029ISupplicantP2pNetworkCallback8castFromERKNS_2spINS_4hidl4base4V1_05IBaseEEEb
_ZN7android8hardware4wifi10supplicant4V1_029ISupplicantP2pNetworkCallback8castFromERKNS_2spIS4_EEb
_ZN7android8hardware4wifi10supplicant4V1_029ISupplicantStaNetworkCallback10descriptorE
_ZN7android8hardware4wifi10supplicant4V1_029ISupplicantStaNetworkCallback10getServiceERKNSt3__112basic_stringIcNS5_11char_traitsIcEENS5_9allocatorIcEEEEb
_ZN7android8hardware4wifi10supplicant4V1_029ISupplicantStaNetworkCallback11linkToDeathERKNS_2spINS0_20hidl_death_recipientEEEy
_ZN7android8hardware4wifi10supplicant4V1_029ISupplicantStaNetworkCallback12getDebugInfoENSt3__18functionIFvRKNS_4hidl4base4V1_09DebugInfoEEEE
_ZN7android8hardware4wifi10supplicant4V1_029ISupplicantStaNetworkCallback12getHashChainENSt3__18functionIFvRKNS0_8hidl_vecINS0_10hidl_arrayIhLj32EJEEEEEEEE
_ZN7android8hardware4wifi10supplicant4V1_029ISupplicantStaNetworkCallback13tryGetServiceERKNSt3__112basic_stringIcNS5_11char_traitsIcEENS5_9allocatorIcEEEEb
_ZN7android8hardware4wifi10supplicant4V1_029ISupplicantStaNetworkCallback13unlinkToDeathERKNS_2spINS0_20hidl_death_recipientEEE
_ZN7android8hardware4wifi10supplicant4V1_029ISupplicantStaNetworkCallback14interfaceChainENSt3__18functionIFvRKNS0_8hidl_vecINS0_11hidl_stringEEEEEE
_ZN7android8hardware4wifi10supplicant4V1_029ISupplicantStaNetworkCallback17registerAsServiceERKNSt3__112basic_stringIcNS5_11char_traitsIcEENS5_9allocatorIcEEEE
_ZN7android8hardware4wifi10supplicant4V1_029ISupplicantStaNetworkCallback19interfaceDescriptorENSt3__18functionIFvRKNS0_11hidl_stringEEEE
_ZN7android8hardware4wifi10supplicant4V1_029ISupplicantStaNetworkCallback21notifySyspropsChangedEv
_ZN7android8hardware4wifi10supplicant4V1_029ISupplicantStaNetworkCallback21setHALInstrumentationEv
_ZN7android8hardware4wifi10supplicant4V1_029ISupplicantStaNetworkCallback24registerForNotificationsERKNSt3__112basic_stringIcNS5_11char_traitsIcEENS5_9allocatorIcEEEERKNS_2spINS_4hidl7manager4V1_020IServiceNotificationEEE
_ZN7android8hardware4wifi10supplicant4V1_029ISupplicantStaNetworkCallback4pingEv
_ZN7android8hardware4wifi10supplicant4V1_029ISupplicantStaNetworkCallback5debugERKNS0_11hidl_handleERKNS0_8hidl_vecINS0_11hidl_stringEEE
_ZN7android8hardware4wifi10supplicant4V1_029ISupplicantStaNetworkCallback8castFromERKNS_2spINS_4hidl4base4V1_05IBaseEEEb
_ZN7android8hardware4wifi10supplicant4V1_029ISupplicantStaNetworkCallback8castFromERKNS_2spIS4_EEb
_ZN7android8hardware4wifi10supplicant4V1_030BnHwSupplicantP2pIfaceCallback10onTransactEjRKNS0_6ParcelEPS5_jNSt3__18functionIFvRS5_EEE
_ZN7android8hardware4wifi10supplicant4V1_030BnHwSupplicantP2pIfaceCallback12getDebugInfoENSt3__18functionIFvRKNS_4hidl4base4V1_09DebugInfoEEEE
_ZN7android8hardware4wifi10supplicant4V1_030BnHwSupplicantP2pIfaceCallback18_hidl_onDeviceLostEPNS_4hidl4base4V1_08BnHwBaseERKNS0_6ParcelEPSA_NSt3__18functionIFvRSA_EEE
_ZN7android8hardware4wifi10supplicant4V1_030BnHwSupplicantP2pIfaceCallback19_hidl_onDeviceFoundEPNS_4hidl4base4V1_08BnHwBaseERKNS0_6ParcelEPSA_NSt3__18functionIFvRSA_EEE
_ZN7android8hardware4wifi10supplicant4V1_030BnHwSupplicantP2pIfaceCallback19_hidl_onFindStoppedEPNS_4hidl4base4V1_08BnHwBaseERKNS0_6ParcelEPSA_NSt3__18functionIFvRSA_EEE
_ZN7android8hardware4wifi10supplicant4V1_030BnHwSupplicantP2pIfaceCallback20_hidl_onGroupRemovedEPNS_4hidl4base4V1_08BnHwBaseERKNS0_6ParcelEPSA_NSt3__18functionIFvRSA_EEE
_ZN7android8hardware4wifi10supplicant4V1_030BnHwSupplicantP2pIfaceCallback20_hidl_onGroupStartedEPNS_4hidl4base4V1_08BnHwBaseERKNS0_6ParcelEPSA_NSt3__18functionIFvRSA_EEE
_ZN7android8hardware4wifi10supplicant4V1_030BnHwSupplicantP2pIfaceCallback20_hidl_onNetworkAddedEPNS_4hidl4base4V1_08BnHwBaseERKNS0_6ParcelEPSA_NSt3__18functionIFvRSA_EEE
_ZN7android8hardware4wifi10supplicant4V1_030BnHwSupplicantP2pIfaceCallback21_hidl_onStaAuthorizedEPNS_4hidl4base4V1_08BnHwBaseERKNS0_6ParcelEPSA_NSt3__18functionIFvRSA_EEE
_ZN7android8hardware4wifi10supplicant4V1_030BnHwSupplicantP2pIfaceCallback22_hidl_onNetworkRemovedEPNS_4hidl4base4V1_08BnHwBaseERKNS0_6ParcelEPSA_NSt3__18functionIFvRSA_EEE
_ZN7android8hardware4wifi10supplicant4V1_030BnHwSupplicantP2pIfaceCallback23_hidl_onStaDeauthorizedEPNS_4hidl4base4V1_08BnHwBaseERKNS0_6ParcelEPSA_NSt3__18functionIFvRSA_EEE
_ZN7android8hardware4wifi10supplicant4V1_030BnHwSupplicantP2pIfaceCallback24_hidl_onInvitationResultEPNS_4hidl4base4V1_08BnHwBaseERKNS0_6ParcelEPSA_NSt3__18functionIFvRSA_EEE
_ZN7android8hardware4wifi10supplicant4V1_030BnHwSupplicantP2pIfaceCallback26_hidl_onInvitationReceivedEPNS_4hidl4base4V1_08BnHwBaseERKNS0_6ParcelEPSA_NSt3__18functionIFvRSA_EEE
_ZN7android8hardware4wifi10supplicant4V1_030BnHwSupplicantP2pIfaceCallback28_hidl_onGoNegotiationRequestEPNS_4hidl4base4V1_08BnHwBaseERKNS0_6ParcelEPSA_NSt3__18functionIFvRSA_EEE
_ZN7android8hardware4wifi10supplicant4V1_030BnHwSupplicantP2pIfaceCallback29_hidl_onGroupFormationFailureEPNS_4hidl4base4V1_08BnHwBaseERKNS0_6ParcelEPSA_NSt3__18functionIFvRSA_EEE
_ZN7android8hardware4wifi10supplicant4V1_030BnHwSupplicantP2pIfaceCallback29_hidl_onGroupFormationSuccessEPNS_4hidl4base4V1_08BnHwBaseERKNS0_6ParcelEPSA_NSt3__18functionIFvRSA_EEE
_ZN7android8hardware4wifi10supplicant4V1_030BnHwSupplicantP2pIfaceCallback30_hidl_onGoNegotiationCompletedEPNS_4hidl4base4V1_08BnHwBaseERKNS0_6ParcelEPSA_NSt3__18functionIFvRSA_EEE
_ZN7android8hardware4wifi10supplicant4V1_030BnHwSupplicantP2pIfaceCallback32_hidl_onServiceDiscoveryResponseEPNS_4hidl4base4V1_08BnHwBaseERKNS0_6ParcelEPSA_NSt3__18functionIFvRSA_EEE
_ZN7android8hardware4wifi10supplicant4V1_030BnHwSupplicantP2pIfaceCallback35_hidl_onProvisionDiscoveryCompletedEPNS_4hidl4base4V1_08BnHwBaseERKNS0_6ParcelEPSA_NSt3__18functionIFvRSA_EEE
_ZN7android8hardware4wifi10supplicant4V1_030BnHwSupplicantP2pIfaceCallback4pingEv
_ZN7android8hardware4wifi10supplicant4V1_030BnHwSupplicantP2pIfaceCallbackC1ERKNS_2spINS3_27ISupplicantP2pIfaceCallbackEEE
_ZN7android8hardware4wifi10supplicant4V1_030BnHwSupplicantP2pIfaceCallbackC2ERKNS_2spINS3_27ISupplicantP2pIfaceCallbackEEE
_ZN7android8hardware4wifi10supplicant4V1_030BnHwSupplicantP2pIfaceCallbackD0Ev
_ZN7android8hardware4wifi10supplicant4V1_030BnHwSupplicantP2pIfaceCallbackD1Ev
_ZN7android8hardware4wifi10supplicant4V1_030BnHwSupplicantP2pIfaceCallbackD2Ev
_ZN7android8hardware4wifi10supplicant4V1_030BnHwSupplicantStaIfaceCallback10onTransactEjRKNS0_6ParcelEPS5_jNSt3__18functionIFvRS5_EEE
_ZN7android8hardware4wifi10supplicant4V1_030BnHwSupplicantStaIfaceCallback12getDebugInfoENSt3__18functionIFvRKNS_4hidl4base4V1_09DebugInfoEEEE
_ZN7android8hardware4wifi10supplicant4V1_030BnHwSupplicantStaIfaceCallback18_hidl_onEapFailureEPNS_4hidl4base4V1_08BnHwBaseERKNS0_6ParcelEPSA_NSt3__18functionIFvRSA_EEE
_ZN7android8hardware4wifi10supplicant4V1_030BnHwSupplicantStaIfaceCallback20_hidl_onBssidChangedEPNS_4hidl4base4V1_08BnHwBaseERKNS0_6ParcelEPSA_NSt3__18functionIFvRSA_EEE
_ZN7android8hardware4wifi10supplicant4V1_030BnHwSupplicantStaIfaceCallback20_hidl_onDisconnectedEPNS_4hidl4base4V1_08BnHwBaseERKNS0_6ParcelEPSA_NSt3__18functionIFvRSA_EEE
_ZN7android8hardware4wifi10supplicant4V1_030BnHwSupplicantStaIfaceCallback20_hidl_onNetworkAddedEPNS_4hidl4base4V1_08BnHwBaseERKNS0_6ParcelEPSA_NSt3__18functionIFvRSA_EEE
_ZN7android8hardware4wifi10supplicant4V1_030BnHwSupplicantStaIfaceCallback20_hidl_onStateChangedEPNS_4hidl4base4V1_08BnHwBaseERKNS0_6ParcelEPSA_NSt3__18functionIFvRSA_EEE
_ZN7android8hardware4wifi10supplicant4V1_030BnHwSupplicantStaIfaceCallback20_hidl_onWpsEventFailEPNS_4hidl4base4V1_08BnHwBaseERKNS0_6ParcelEPSA_NSt3__18functionIFvRSA_EEE
_ZN7android8hardware4wifi10supplicant4V1_030BnHwSupplicantStaIfaceCallback21_hidl_onAnqpQueryDoneEPNS_4hidl4base4V1_08BnHwBaseERKNS0_6ParcelEPSA_NSt3__18functionIFvRSA_EEE
_ZN7android8hardware4wifi10supplicant4V1_030BnHwSupplicantStaIfaceCallback22_hidl_onNetworkRemovedEPNS_4hidl4base4V1_08BnHwBaseERKNS0_6ParcelEPSA_NSt3__18functionIFvRSA_EEE
_ZN7android8hardware4wifi10supplicant4V1_030BnHwSupplicantStaIfaceCallback23_hidl_onWpsEventSuccessEPNS_4hidl4base4V1_08BnHwBaseERKNS0_6ParcelEPSA_NSt3__18functionIFvRSA_EEE
_ZN7android8hardware4wifi10supplicant4V1_030BnHwSupplicantStaIfaceCallback25_hidl_onExtRadioWorkStartEPNS_4hidl4base4V1_08BnHwBaseERKNS0_6ParcelEPSA_NSt3__18functionIFvRSA_EEE
_ZN7android8hardware4wifi10supplicant4V1_030BnHwSupplicantStaIfaceCallback25_hidl_onHs20IconQueryDoneEPNS_4hidl4base4V1_08BnHwBaseERKNS0_6ParcelEPSA_NSt3__18functionIFvRSA_EEE
_ZN7android8hardware4wifi10supplicant4V1_030BnHwSupplicantStaIfaceCallback26_hidl_onWpsEventPbcOverlapEPNS_4hidl4base4V1_08BnHwBaseERKNS0_6ParcelEPSA_NSt3__18functionIFvRSA_EEE
_ZN7android8hardware4wifi10supplicant4V1_030BnHwSupplicantStaIfaceCallback27_hidl_onAssociationRejectedEPNS_4hidl4base4V1_08BnHwBaseERKNS0_6ParcelEPSA_NSt3__18functionIFvRSA_EEE
_ZN7android8hardware4wifi10supplicant4V1_030BnHwSupplicantStaIfaceCallback27_hidl_onExtRadioWorkTimeoutEPNS_4hidl4base4V1_08BnHwBaseERKNS0_6ParcelEPSA_NSt3__18functionIFvRSA_EEE
_ZN7android8hardware4wifi10supplicant4V1_030BnHwSupplicantStaIfaceCallback29_hidl_onAuthenticationTimeoutEPNS_4hidl4base4V1_08BnHwBaseERKNS0_6ParcelEPSA_NSt3__18functionIFvRSA_EEE
_ZN7android8hardware4wifi10supplicant4V1_030BnHwSupplicantStaIfaceCallback32_hidl_onHs20DeauthImminentNoticeEPNS_4hidl4base4V1_08BnHwBaseERKNS0_6ParcelEPSA_NSt3__18functionIFvRSA_EEE
_ZN7android8hardware4wifi10supplicant4V1_030BnHwSupplicantStaIfaceCallback35_hidl_onHs20SubscriptionRemediationEPNS_4hidl4base4V1_08BnHwBaseERKNS0_6ParcelEPSA_NSt3__18functionIFvRSA_EEE
_ZN7android8hardware4wifi10supplicant4V1_030BnHwSupplicantStaIfaceCallback4pingEv
_ZN7android8hardware4wifi10supplicant4V1_030BnHwSupplicantStaIfaceCallbackC1ERKNS_2spINS3_27ISupplicantStaIfaceCallbackEEE
_ZN7android8hardware4wifi10supplicant4V1_030BnHwSupplicantStaIfaceCallbackC2ERKNS_2spINS3_27ISupplicantStaIfaceCallbackEEE
_ZN7android8hardware4wifi10supplicant4V1_030BnHwSupplicantStaIfaceCallbackD0Ev
_ZN7android8hardware4wifi10supplicant4V1_030BnHwSupplicantStaIfaceCallbackD1Ev
_ZN7android8hardware4wifi10supplicant4V1_030BnHwSupplicantStaIfaceCallbackD2Ev
_ZN7android8hardware4wifi10supplicant4V1_030BpHwSupplicantP2pIfaceCallback11linkToDeathERKNS_2spINS0_20hidl_death_recipientEEEy
_ZN7android8hardware4wifi10supplicant4V1_030BpHwSupplicantP2pIfaceCallback12getDebugInfoENSt3__18functionIFvRKNS_4hidl4base4V1_09DebugInfoEEEE
_ZN7android8hardware4wifi10supplicant4V1_030BpHwSupplicantP2pIfaceCallback12getHashChainENSt3__18functionIFvRKNS0_8hidl_vecINS0_10hidl_arrayIhLj32EJEEEEEEEE
_ZN7android8hardware4wifi10supplicant4V1_030BpHwSupplicantP2pIfaceCallback12onDeviceLostERKNS0_10hidl_arrayIhLj6EJEEE
_ZN7android8hardware4wifi10supplicant4V1_030BpHwSupplicantP2pIfaceCallback13onDeviceFoundERKNS0_10hidl_arrayIhLj6EJEEES8_RKNS5_IhLj8EJEEERKNS0_11hidl_stringEthjS8_
_ZN7android8hardware4wifi10supplicant4V1_030BpHwSupplicantP2pIfaceCallback13onFindStoppedEv
_ZN7android8hardware4wifi10supplicant4V1_030BpHwSupplicantP2pIfaceCallback13unlinkToDeathERKNS_2spINS0_20hidl_death_recipientEEE
_ZN7android8hardware4wifi10supplicant4V1_030BpHwSupplicantP2pIfaceCallback14interfaceChainENSt3__18functionIFvRKNS0_8hidl_vecINS0_11hidl_stringEEEEEE
_ZN7android8hardware4wifi10supplicant4V1_030BpHwSupplicantP2pIfaceCallback14onGroupRemovedERKNS0_11hidl_stringEb
_ZN7android8hardware4wifi10supplicant4V1_030BpHwSupplicantP2pIfaceCallback14onGroupStartedERKNS0_11hidl_stringEbRKNS0_8hidl_vecIhEEjRKNS0_10hidl_arrayIhLj32EJEEES7_RKNSC_IhLj6EJEEEb
_ZN7android8hardware4wifi10supplicant4V1_030BpHwSupplicantP2pIfaceCallback14onNetworkAddedEj
_ZN7android8hardware4wifi10supplicant4V1_030BpHwSupplicantP2pIfaceCallback15onStaAuthorizedERKNS0_10hidl_arrayIhLj6EJEEES8_
_ZN7android8hardware4wifi10supplicant4V1_030BpHwSupplicantP2pIfaceCallback16onNetworkRemovedEj
_ZN7android8hardware4wifi10supplicant4V1_030BpHwSupplicantP2pIfaceCallback17onStaDeauthorizedERKNS0_10hidl_arrayIhLj6EJEEES8_
_ZN7android8hardware4wifi10supplicant4V1_030BpHwSupplicantP2pIfaceCallback18_hidl_onDeviceLostEPNS0_10IInterfaceEPNS0_7details16HidlInstrumentorERKNS0_10hidl_arrayIhLj6EJEEE
_ZN7android8hardware4wifi10supplicant4V1_030BpHwSupplicantP2pIfaceCallback18onInvitationResultERKNS0_10hidl_arrayIhLj6EJEEENS3_27ISupplicantP2pIfaceCallback13P2pStatusCodeE
_ZN7android8hardware4wifi10supplicant4V1_030BpHwSupplicantP2pIfaceCallback19_hidl_onDeviceFoundEPNS0_10IInterfaceEPNS0_7details16HidlInstrumentorERKNS0_10hidl_arrayIhLj6EJEEESD_RKNSA_IhLj8EJEEERKNS0_11hidl_stringEthjSD_
_ZN7android8hardware4wifi10supplicant4V1_030BpHwSupplicantP2pIfaceCallback19_hidl_onFindStoppedEPNS0_10IInterfaceEPNS0_7details16HidlInstrumentorE
_ZN7android8hardware4wifi10supplicant4V1_030BpHwSupplicantP2pIfaceCallback19interfaceDescriptorENSt3__18functionIFvRKNS0_11hidl_stringEEEE
_ZN7android8hardware4wifi10supplicant4V1_030BpHwSupplicantP2pIfaceCallback20_hidl_onGroupRemovedEPNS0_10IInterfaceEPNS0_7details16HidlInstrumentorERKNS0_11hidl_stringEb
_ZN7android8hardware4wifi10supplicant4V1_030BpHwSupplicantP2pIfaceCallback20_hidl_onGroupStartedEPNS0_10IInterfaceEPNS0_7details16HidlInstrumentorERKNS0_11hidl_stringEbRKNS0_8hidl_vecIhEEjRKNS0_10hidl_arrayIhLj32EJEEESC_RKNSH_IhLj6EJEEEb
_ZN7android8hardware4wifi10supplicant4V1_030BpHwSupplicantP2pIfaceCallback20_hidl_onNetworkAddedEPNS0_10IInterfaceEPNS0_7details16HidlInstrumentorEj
_ZN7android8hardware4wifi10supplicant4V1_030BpHwSupplicantP2pIfaceCallback20onInvitationReceivedERKNS0_10hidl_arrayIhLj6EJEEES8_S8_jj
_ZN7android8hardware4wifi10supplicant4V1_030BpHwSupplicantP2pIfaceCallback21_hidl_onStaAuthorizedEPNS0_10IInterfaceEPNS0_7details16HidlInstrumentorERKNS0_10hidl_arrayIhLj6EJEEESD_
_ZN7android8hardware4wifi10supplicant4V1_030BpHwSupplicantP2pIfaceCallback21notifySyspropsChangedEv
_ZN7android8hardware4wifi10supplicant4V1_030BpHwSupplicantP2pIfaceCallback21setHALInstrumentationEv
_ZN7android8hardware4wifi10supplicant4V1_030BpHwSupplicantP2pIfaceCallback22_hidl_onNetworkRemovedEPNS0_10IInterfaceEPNS0_7details16HidlInstrumentorEj
_ZN7android8hardware4wifi10supplicant4V1_030BpHwSupplicantP2pIfaceCallback22onGoNegotiationRequestERKNS0_10hidl_arrayIhLj6EJEEENS3_27ISupplicantP2pIfaceCallback16WpsDevPasswordIdE
_ZN7android8hardware4wifi10supplicant4V1_030BpHwSupplicantP2pIfaceCallback23_hidl_onStaDeauthorizedEPNS0_10IInterfaceEPNS0_7details16HidlInstrumentorERKNS0_10hidl_arrayIhLj6EJEEESD_
_ZN7android8hardware4wifi10supplicant4V1_030BpHwSupplicantP2pIfaceCallback23onGroupFormationFailureERKNS0_11hidl_stringE
_ZN7android8hardware4wifi10supplicant4V1_030BpHwSupplicantP2pIfaceCallback23onGroupFormationSuccessEv
_ZN7android8hardware4wifi10supplicant4V1_030BpHwSupplicantP2pIfaceCallback24_hidl_onInvitationResultEPNS0_10IInterfaceEPNS0_7details16HidlInstrumentorERKNS0_10hidl_arrayIhLj6EJEEENS3_27ISupplicantP2pIfaceCallback13P2pStatusCodeE
_ZN7android8hardware4wifi10supplicant4V1_030BpHwSupplicantP2pIfaceCallback24onGoNegotiationCompletedENS3_27ISupplicantP2pIfaceCallback13P2pStatusCodeE
_ZN7android8hardware4wifi10supplicant4V1_030BpHwSupplicantP2pIfaceCallback26_hidl_onInvitationReceivedEPNS0_10IInterfaceEPNS0_7details16HidlInstrumentorERKNS0_10hidl_arrayIhLj6EJEEESD_SD_jj
_ZN7android8hardware4wifi10supplicant4V1_030BpHwSupplicantP2pIfaceCallback26onServiceDiscoveryResponseERKNS0_10hidl_arrayIhLj6EJEEEtRKNS0_8hidl_vecIhEE
_ZN7android8hardware4wifi10supplicant4V1_030BpHwSupplicantP2pIfaceCallback28_hidl_onGoNegotiationRequestEPNS0_10IInterfaceEPNS0_7details16HidlInstrumentorERKNS0_10hidl_arrayIhLj6EJEEENS3_27ISupplicantP2pIfaceCallback16WpsDevPasswordIdE
_ZN7android8hardware4wifi10supplicant4V1_030BpHwSupplicantP2pIfaceCallback29_hidl_onGroupFormationFailureEPNS0_10IInterfaceEPNS0_7details16HidlInstrumentorERKNS0_11hidl_stringE
_ZN7android8hardware4wifi10supplicant4V1_030BpHwSupplicantP2pIfaceCallback29_hidl_onGroupFormationSuccessEPNS0_10IInterfaceEPNS0_7details16HidlInstrumentorE
_ZN7android8hardware4wifi10supplicant4V1_030BpHwSupplicantP2pIfaceCallback29onProvisionDiscoveryCompletedERKNS0_10hidl_arrayIhLj6EJEEEbNS3_27ISupplicantP2pIfaceCallback21P2pProvDiscStatusCodeEtRKNS0_11hidl_stringE
_ZN7android8hardware4wifi10supplicant4V1_030BpHwSupplicantP2pIfaceCallback30_hidl_onGoNegotiationCompletedEPNS0_10IInterfaceEPNS0_7details16HidlInstrumentorENS3_27ISupplicantP2pIfaceCallback13P2pStatusCodeE
_ZN7android8hardware4wifi10supplicant4V1_030BpHwSupplicantP2pIfaceCallback32_hidl_onServiceDiscoveryResponseEPNS0_10IInterfaceEPNS0_7details16HidlInstrumentorERKNS0_10hidl_arrayIhLj6EJEEEtRKNS0_8hidl_vecIhEE
_ZN7android8hardware4wifi10supplicant4V1_030BpHwSupplicantP2pIfaceCallback35_hidl_onProvisionDiscoveryCompletedEPNS0_10IInterfaceEPNS0_7details16HidlInstrumentorERKNS0_10hidl_arrayIhLj6EJEEEbNS3_27ISupplicantP2pIfaceCallback21P2pProvDiscStatusCodeEtRKNS0_11hidl_stringE
_ZN7android8hardware4wifi10supplicant4V1_030BpHwSupplicantP2pIfaceCallback4pingEv
_ZN7android8hardware4wifi10supplicant4V1_030BpHwSupplicantP2pIfaceCallback5debugERKNS0_11hidl_handleERKNS0_8hidl_vecINS0_11hidl_stringEEE
_ZN7android8hardware4wifi10supplicant4V1_030BpHwSupplicantP2pIfaceCallbackC1ERKNS_2spINS0_7IBinderEEE
_ZN7android8hardware4wifi10supplicant4V1_030BpHwSupplicantP2pIfaceCallbackC2ERKNS_2spINS0_7IBinderEEE
_ZN7android8hardware4wifi10supplicant4V1_030BpHwSupplicantStaIfaceCallback11linkToDeathERKNS_2spINS0_20hidl_death_recipientEEEy
_ZN7android8hardware4wifi10supplicant4V1_030BpHwSupplicantStaIfaceCallback12getDebugInfoENSt3__18functionIFvRKNS_4hidl4base4V1_09DebugInfoEEEE
_ZN7android8hardware4wifi10supplicant4V1_030BpHwSupplicantStaIfaceCallback12getHashChainENSt3__18functionIFvRKNS0_8hidl_vecINS0_10hidl_arrayIhLj32EJEEEEEEEE
_ZN7android8hardware4wifi10supplicant4V1_030BpHwSupplicantStaIfaceCallback12onEapFailureEv
_ZN7android8hardware4wifi10supplicant4V1_030BpHwSupplicantStaIfaceCallback13unlinkToDeathERKNS_2spINS0_20hidl_death_recipientEEE
_ZN7android8hardware4wifi10supplicant4V1_030BpHwSupplicantStaIfaceCallback14interfaceChainENSt3__18functionIFvRKNS0_8hidl_vecINS0_11hidl_stringEEEEEE
_ZN7android8hardware4wifi10supplicant4V1_030BpHwSupplicantStaIfaceCallback14onBssidChangedENS3_27ISupplicantStaIfaceCallback17BssidChangeReasonERKNS0_10hidl_arrayIhLj6EJEEE
_ZN7android8hardware4wifi10supplicant4V1_030BpHwSupplicantStaIfaceCallback14onDisconnectedERKNS0_10hidl_arrayIhLj6EJEEEbNS3_27ISupplicantStaIfaceCallback10ReasonCodeE
_ZN7android8hardware4wifi10supplicant4V1_030BpHwSupplicantStaIfaceCallback14onNetworkAddedEj
_ZN7android8hardware4wifi10supplicant4V1_030BpHwSupplicantStaIfaceCallback14onStateChangedENS3_27ISupplicantStaIfaceCallback5StateERKNS0_10hidl_arrayIhLj6EJEEEjRKNS0_8hidl_vecIhEE
_ZN7android8hardware4wifi10supplicant4V1_030BpHwSupplicantStaIfaceCallback14onWpsEventFailERKNS0_10hidl_arrayIhLj6EJEEENS3_27ISupplicantStaIfaceCallback14WpsConfigErrorENS9_18WpsErrorIndicationE
_ZN7android8hardware4wifi10supplicant4V1_030BpHwSupplicantStaIfaceCallback15onAnqpQueryDoneERKNS0_10hidl_arrayIhLj6EJEEERKNS3_27ISupplicantStaIfaceCallback8AnqpDataERKNS9_12Hs20AnqpDataE
_ZN7android8hardware4wifi10supplicant4V1_030BpHwSupplicantStaIfaceCallback16onNetworkRemovedEj
_ZN7android8hardware4wifi10supplicant4V1_030BpHwSupplicantStaIfaceCallback17onWpsEventSuccessEv
_ZN7android8hardware4wifi10supplicant4V1_030BpHwSupplicantStaIfaceCallback18_hidl_onEapFailureEPNS0_10IInterfaceEPNS0_7details16HidlInstrumentorE
_ZN7android8hardware4wifi10supplicant4V1_030BpHwSupplicantStaIfaceCallback19interfaceDescriptorENSt3__18functionIFvRKNS0_11hidl_stringEEEE
_ZN7android8hardware4wifi10supplicant4V1_030BpHwSupplicantStaIfaceCallback19onExtRadioWorkStartEj
_ZN7android8hardware4wifi10supplicant4V1_030BpHwSupplicantStaIfaceCallback19onHs20IconQueryDoneERKNS0_10hidl_arrayIhLj6EJEEERKNS0_11hidl_stringERKNS0_8hidl_vecIhEE
_ZN7android8hardware4wifi10supplicant4V1_030BpHwSupplicantStaIfaceCallback20_hidl_onBssidChangedEPNS0_10IInterfaceEPNS0_7details16HidlInstrumentorENS3_27ISupplicantStaIfaceCallback17BssidChangeReasonERKNS0_10hidl_arrayIhLj6EJEEE
_ZN7android8hardware4wifi10supplicant4V1_030BpHwSupplicantStaIfaceCallback20_hidl_onDisconnectedEPNS0_10IInterfaceEPNS0_7details16HidlInstrumentorERKNS0_10hidl_arrayIhLj6EJEEEbNS3_27ISupplicantStaIfaceCallback10ReasonCodeE
_ZN7android8hardware4wifi10supplicant4V1_030BpHwSupplicantStaIfaceCallback20_hidl_onNetworkAddedEPNS0_10IInterfaceEPNS0_7details16HidlInstrumentorEj
_ZN7android8hardware4wifi10supplicant4V1_030BpHwSupplicantStaIfaceCallback20_hidl_onStateChangedEPNS0_10IInterfaceEPNS0_7details16HidlInstrumentorENS3_27ISupplicantStaIfaceCallback5StateERKNS0_10hidl_arrayIhLj6EJEEEjRKNS0_8hidl_vecIhEE
_ZN7android8hardware4wifi10supplicant4V1_030BpHwSupplicantStaIfaceCallback20_hidl_onWpsEventFailEPNS0_10IInterfaceEPNS0_7details16HidlInstrumentorERKNS0_10hidl_arrayIhLj6EJEEENS3_27ISupplicantStaIfaceCallback14WpsConfigErrorENSE_18WpsErrorIndicationE
_ZN7android8hardware4wifi10supplicant4V1_030BpHwSupplicantStaIfaceCallback20onWpsEventPbcOverlapEv
_ZN7android8hardware4wifi10supplicant4V1_030BpHwSupplicantStaIfaceCallback21_hidl_onAnqpQueryDoneEPNS0_10IInterfaceEPNS0_7details16HidlInstrumentorERKNS0_10hidl_arrayIhLj6EJEEERKNS3_27ISupplicantStaIfaceCallback8AnqpDataERKNSE_12Hs20AnqpDataE
_ZN7android8hardware4wifi10supplicant4V1_030BpHwSupplicantStaIfaceCallback21notifySyspropsChangedEv
_ZN7android8hardware4wifi10supplicant4V1_030BpHwSupplicantStaIfaceCallback21onAssociationRejectedERKNS0_10hidl_arrayIhLj6EJEEENS3_27ISupplicantStaIfaceCallback10StatusCodeEb
_ZN7android8hardware4wifi10supplicant4V1_030BpHwSupplicantStaIfaceCallback21onExtRadioWorkTimeoutEj
_ZN7android8hardware4wifi10supplicant4V1_030BpHwSupplicantStaIfaceCallback21setHALInstrumentationEv
_ZN7android8hardware4wifi10supplicant4V1_030BpHwSupplicantStaIfaceCallback22_hidl_onNetworkRemovedEPNS0_10IInterfaceEPNS0_7details16HidlInstrumentorEj
_ZN7android8hardware4wifi10supplicant4V1_030BpHwSupplicantStaIfaceCallback23_hidl_onWpsEventSuccessEPNS0_10IInterfaceEPNS0_7details16HidlInstrumentorE
_ZN7android8hardware4wifi10supplicant4V1_030BpHwSupplicantStaIfaceCallback23onAuthenticationTimeoutERKNS0_10hidl_arrayIhLj6EJEEE
_ZN7android8hardware4wifi10supplicant4V1_030BpHwSupplicantStaIfaceCallback25_hidl_onExtRadioWorkStartEPNS0_10IInterfaceEPNS0_7details16HidlInstrumentorEj
_ZN7android8hardware4wifi10supplicant4V1_030BpHwSupplicantStaIfaceCallback25_hidl_onHs20IconQueryDoneEPNS0_10IInterfaceEPNS0_7details16HidlInstrumentorERKNS0_10hidl_arrayIhLj6EJEEERKNS0_11hidl_stringERKNS0_8hidl_vecIhEE
_ZN7android8hardware4wifi10supplicant4V1_030BpHwSupplicantStaIfaceCallback26_hidl_onWpsEventPbcOverlapEPNS0_10IInterfaceEPNS0_7details16HidlInstrumentorE
_ZN7android8hardware4wifi10supplicant4V1_030BpHwSupplicantStaIfaceCallback26onHs20DeauthImminentNoticeERKNS0_10hidl_arrayIhLj6EJEEEjjRKNS0_11hidl_stringE
_ZN7android8hardware4wifi10supplicant4V1_030BpHwSupplicantStaIfaceCallback27_hidl_onAssociationRejectedEPNS0_10IInterfaceEPNS0_7details16HidlInstrumentorERKNS0_10hidl_arrayIhLj6EJEEENS3_27ISupplicantStaIfaceCallback10StatusCodeEb
_ZN7android8hardware4wifi10supplicant4V1_030BpHwSupplicantStaIfaceCallback27_hidl_onExtRadioWorkTimeoutEPNS0_10IInterfaceEPNS0_7details16HidlInstrumentorEj
_ZN7android8hardware4wifi10supplicant4V1_030BpHwSupplicantStaIfaceCallback29_hidl_onAuthenticationTimeoutEPNS0_10IInterfaceEPNS0_7details16HidlInstrumentorERKNS0_10hidl_arrayIhLj6EJEEE
_ZN7android8hardware4wifi10supplicant4V1_030BpHwSupplicantStaIfaceCallback29onHs20SubscriptionRemediationERKNS0_10hidl_arrayIhLj6EJEEENS3_27ISupplicantStaIfaceCallback9OsuMethodERKNS0_11hidl_stringE
_ZN7android8hardware4wifi10supplicant4V1_030BpHwSupplicantStaIfaceCallback32_hidl_onHs20DeauthImminentNoticeEPNS0_10IInterfaceEPNS0_7details16HidlInstrumentorERKNS0_10hidl_arrayIhLj6EJEEEjjRKNS0_11hidl_stringE
_ZN7android8hardware4wifi10supplicant4V1_030BpHwSupplicantStaIfaceCallback35_hidl_onHs20SubscriptionRemediationEPNS0_10IInterfaceEPNS0_7details16HidlInstrumentorERKNS0_10hidl_arrayIhLj6EJEEENS3_27ISupplicantStaIfaceCallback9OsuMethodERKNS0_11hidl_stringE
_ZN7android8hardware4wifi10supplicant4V1_030BpHwSupplicantStaIfaceCallback4pingEv
_ZN7android8hardware4wifi10supplicant4V1_030BpHwSupplicantStaIfaceCallback5debugERKNS0_11hidl_handleERKNS0_8hidl_vecINS0_11hidl_stringEEE
_ZN7android8hardware4wifi10supplicant4V1_030BpHwSupplicantStaIfaceCallbackC1ERKNS_2spINS0_7IBinderEEE
_ZN7android8hardware4wifi10supplicant4V1_030BpHwSupplicantStaIfaceCallbackC2ERKNS_2spINS0_7IBinderEEE
_ZN7android8hardware4wifi10supplicant4V1_030BsSupplicantP2pNetworkCallback13addOnewayTaskENSt3__18functionIFvvEEE
_ZN7android8hardware4wifi10supplicant4V1_030BsSupplicantP2pNetworkCallbackC1ENS_2spINS3_29ISupplicantP2pNetworkCallbackEEE
_ZN7android8hardware4wifi10supplicant4V1_030BsSupplicantP2pNetworkCallbackC2ENS_2spINS3_29ISupplicantP2pNetworkCallbackEEE
_ZN7android8hardware4wifi10supplicant4V1_030BsSupplicantStaNetworkCallback13addOnewayTaskENSt3__18functionIFvvEEE
_ZN7android8hardware4wifi10supplicant4V1_030BsSupplicantStaNetworkCallbackC1ENS_2spINS3_29ISupplicantStaNetworkCallbackEEE
_ZN7android8hardware4wifi10supplicant4V1_030BsSupplicantStaNetworkCallbackC2ENS_2spINS3_29ISupplicantStaNetworkCallbackEEE
_ZN7android8hardware4wifi10supplicant4V1_032BnHwSupplicantP2pNetworkCallback10onTransactEjRKNS0_6ParcelEPS5_jNSt3__18functionIFvRS5_EEE
_ZN7android8hardware4wifi10supplicant4V1_032BnHwSupplicantP2pNetworkCallback12getDebugInfoENSt3__18functionIFvRKNS_4hidl4base4V1_09DebugInfoEEEE
_ZN7android8hardware4wifi10supplicant4V1_032BnHwSupplicantP2pNetworkCallback4pingEv
_ZN7android8hardware4wifi10supplicant4V1_032BnHwSupplicantP2pNetworkCallbackC1ERKNS_2spINS3_29ISupplicantP2pNetworkCallbackEEE
_ZN7android8hardware4wifi10supplicant4V1_032BnHwSupplicantP2pNetworkCallbackC2ERKNS_2spINS3_29ISupplicantP2pNetworkCallbackEEE
_ZN7android8hardware4wifi10supplicant4V1_032BnHwSupplicantP2pNetworkCallbackD0Ev
_ZN7android8hardware4wifi10supplicant4V1_032BnHwSupplicantP2pNetworkCallbackD1Ev
_ZN7android8hardware4wifi10supplicant4V1_032BnHwSupplicantP2pNetworkCallbackD2Ev
_ZN7android8hardware4wifi10supplicant4V1_032BnHwSupplicantStaNetworkCallback10onTransactEjRKNS0_6ParcelEPS5_jNSt3__18functionIFvRS5_EEE
_ZN7android8hardware4wifi10supplicant4V1_032BnHwSupplicantStaNetworkCallback12getDebugInfoENSt3__18functionIFvRKNS_4hidl4base4V1_09DebugInfoEEEE
_ZN7android8hardware4wifi10supplicant4V1_032BnHwSupplicantStaNetworkCallback33_hidl_onNetworkEapIdentityRequestEPNS_4hidl4base4V1_08BnHwBaseERKNS0_6ParcelEPSA_NSt3__18functionIFvRSA_EEE
_ZN7android8hardware4wifi10supplicant4V1_032BnHwSupplicantStaNetworkCallback35_hidl_onNetworkEapSimGsmAuthRequestEPNS_4hidl4base4V1_08BnHwBaseERKNS0_6ParcelEPSA_NSt3__18functionIFvRSA_EEE
_ZN7android8hardware4wifi10supplicant4V1_032BnHwSupplicantStaNetworkCallback36_hidl_onNetworkEapSimUmtsAuthRequestEPNS_4hidl4base4V1_08BnHwBaseERKNS0_6ParcelEPSA_NSt3__18functionIFvRSA_EEE
_ZN7android8hardware4wifi10supplicant4V1_032BnHwSupplicantStaNetworkCallback4pingEv
_ZN7android8hardware4wifi10supplicant4V1_032BnHwSupplicantStaNetworkCallbackC1ERKNS_2spINS3_29ISupplicantStaNetworkCallbackEEE
_ZN7android8hardware4wifi10supplicant4V1_032BnHwSupplicantStaNetworkCallbackC2ERKNS_2spINS3_29ISupplicantStaNetworkCallbackEEE
_ZN7android8hardware4wifi10supplicant4V1_032BnHwSupplicantStaNetworkCallbackD0Ev
_ZN7android8hardware4wifi10supplicant4V1_032BnHwSupplicantStaNetworkCallbackD1Ev
_ZN7android8hardware4wifi10supplicant4V1_032BnHwSupplicantStaNetworkCallbackD2Ev
_ZN7android8hardware4wifi10supplicant4V1_032BpHwSupplicantP2pNetworkCallback11linkToDeathERKNS_2spINS0_20hidl_death_recipientEEEy
_ZN7android8hardware4wifi10supplicant4V1_032BpHwSupplicantP2pNetworkCallback12getDebugInfoENSt3__18functionIFvRKNS_4hidl4base4V1_09DebugInfoEEEE
_ZN7android8hardware4wifi10supplicant4V1_032BpHwSupplicantP2pNetworkCallback12getHashChainENSt3__18functionIFvRKNS0_8hidl_vecINS0_10hidl_arrayIhLj32EJEEEEEEEE
_ZN7android8hardware4wifi10supplicant4V1_032BpHwSupplicantP2pNetworkCallback13unlinkToDeathERKNS_2spINS0_20hidl_death_recipientEEE
_ZN7android8hardware4wifi10supplicant4V1_032BpHwSupplicantP2pNetworkCallback14interfaceChainENSt3__18functionIFvRKNS0_8hidl_vecINS0_11hidl_stringEEEEEE
_ZN7android8hardware4wifi10supplicant4V1_032BpHwSupplicantP2pNetworkCallback19interfaceDescriptorENSt3__18functionIFvRKNS0_11hidl_stringEEEE
_ZN7android8hardware4wifi10supplicant4V1_032BpHwSupplicantP2pNetworkCallback21notifySyspropsChangedEv
_ZN7android8hardware4wifi10supplicant4V1_032BpHwSupplicantP2pNetworkCallback21setHALInstrumentationEv
_ZN7android8hardware4wifi10supplicant4V1_032BpHwSupplicantP2pNetworkCallback4pingEv
_ZN7android8hardware4wifi10supplicant4V1_032BpHwSupplicantP2pNetworkCallback5debugERKNS0_11hidl_handleERKNS0_8hidl_vecINS0_11hidl_stringEEE
_ZN7android8hardware4wifi10supplicant4V1_032BpHwSupplicantP2pNetworkCallbackC1ERKNS_2spINS0_7IBinderEEE
_ZN7android8hardware4wifi10supplicant4V1_032BpHwSupplicantP2pNetworkCallbackC2ERKNS_2spINS0_7IBinderEEE
_ZN7android8hardware4wifi10supplicant4V1_032BpHwSupplicantStaNetworkCallback11linkToDeathERKNS_2spINS0_20hidl_death_recipientEEEy
_ZN7android8hardware4wifi10supplicant4V1_032BpHwSupplicantStaNetworkCallback12getDebugInfoENSt3__18functionIFvRKNS_4hidl4base4V1_09DebugInfoEEEE
_ZN7android8hardware4wifi10supplicant4V1_032BpHwSupplicantStaNetworkCallback12getHashChainENSt3__18functionIFvRKNS0_8hidl_vecINS0_10hidl_arrayIhLj32EJEEEEEEEE
_ZN7android8hardware4wifi10supplicant4V1_032BpHwSupplicantStaNetworkCallback13unlinkToDeathERKNS_2spINS0_20hidl_death_recipientEEE
_ZN7android8hardware4wifi10supplicant4V1_032BpHwSupplicantStaNetworkCallback14interfaceChainENSt3__18functionIFvRKNS0_8hidl_vecINS0_11hidl_stringEEEEEE
_ZN7android8hardware4wifi10supplicant4V1_032BpHwSupplicantStaNetworkCallback19interfaceDescriptorENSt3__18functionIFvRKNS0_11hidl_stringEEEE
_ZN7android8hardware4wifi10supplicant4V1_032BpHwSupplicantStaNetworkCallback21notifySyspropsChangedEv
_ZN7android8hardware4wifi10supplicant4V1_032BpHwSupplicantStaNetworkCallback21setHALInstrumentationEv
_ZN7android8hardware4wifi10supplicant4V1_032BpHwSupplicantStaNetworkCallback27onNetworkEapIdentityRequestEv
_ZN7android8hardware4wifi10supplicant4V1_032BpHwSupplicantStaNetworkCallback29onNetworkEapSimGsmAuthRequestERKNS3_29ISupplicantStaNetworkCallback33NetworkRequestEapSimGsmAuthParamsE
_ZN7android8hardware4wifi10supplicant4V1_032BpHwSupplicantStaNetworkCallback30onNetworkEapSimUmtsAuthRequestERKNS3_29ISupplicantStaNetworkCallback34NetworkRequestEapSimUmtsAuthParamsE
_ZN7android8hardware4wifi10supplicant4V1_032BpHwSupplicantStaNetworkCallback33_hidl_onNetworkEapIdentityRequestEPNS0_10IInterfaceEPNS0_7details16HidlInstrumentorE
_ZN7android8hardware4wifi10supplicant4V1_032BpHwSupplicantStaNetworkCallback35_hidl_onNetworkEapSimGsmAuthRequestEPNS0_10IInterfaceEPNS0_7details16HidlInstrumentorERKNS3_29ISupplicantStaNetworkCallback33NetworkRequestEapSimGsmAuthParamsE
_ZN7android8hardware4wifi10supplicant4V1_032BpHwSupplicantStaNetworkCallback36_hidl_onNetworkEapSimUmtsAuthRequestEPNS0_10IInterfaceEPNS0_7details16HidlInstrumentorERKNS3_29ISupplicantStaNetworkCallback34NetworkRequestEapSimUmtsAuthParamsE
_ZN7android8hardware4wifi10supplicant4V1_032BpHwSupplicantStaNetworkCallback4pingEv
_ZN7android8hardware4wifi10supplicant4V1_032BpHwSupplicantStaNetworkCallback5debugERKNS0_11hidl_handleERKNS0_8hidl_vecINS0_11hidl_stringEEE
_ZN7android8hardware4wifi10supplicant4V1_032BpHwSupplicantStaNetworkCallbackC1ERKNS_2spINS0_7IBinderEEE
_ZN7android8hardware4wifi10supplicant4V1_032BpHwSupplicantStaNetworkCallbackC2ERKNS_2spINS0_7IBinderEEE
_ZTCN7android8hardware4wifi10supplicant4V1_011ISupplicantE0_NS_4hidl4base4V1_05IBaseE
_ZTCN7android8hardware4wifi10supplicant4V1_014BnHwSupplicantE0_NS0_7IBinderE
_ZTCN7android8hardware4wifi10supplicant4V1_014BnHwSupplicantE0_NS0_9BHwBinderE
_ZTCN7android8hardware4wifi10supplicant4V1_014BnHwSupplicantE0_NS_4hidl4base4V1_08BnHwBaseE
_ZTCN7android8hardware4wifi10supplicant4V1_014BpHwSupplicantE0_NS0_11BpInterfaceINS3_11ISupplicantEEE
_ZTCN7android8hardware4wifi10supplicant4V1_014BpHwSupplicantE0_NS3_11ISupplicantE
_ZTCN7android8hardware4wifi10supplicant4V1_014BpHwSupplicantE0_NS_4hidl4base4V1_05IBaseE
_ZTCN7android8hardware4wifi10supplicant4V1_014BpHwSupplicantE4_NS0_10IInterfaceE
_ZTCN7android8hardware4wifi10supplicant4V1_014BpHwSupplicantE8_NS0_11BpHwRefBaseE
_ZTCN7android8hardware4wifi10supplicant4V1_016ISupplicantIfaceE0_NS_4hidl4base4V1_05IBaseE
_ZTCN7android8hardware4wifi10supplicant4V1_018ISupplicantNetworkE0_NS_4hidl4base4V1_05IBaseE
_ZTCN7android8hardware4wifi10supplicant4V1_019BnHwSupplicantIfaceE0_NS0_7IBinderE
_ZTCN7android8hardware4wifi10supplicant4V1_019BnHwSupplicantIfaceE0_NS0_9BHwBinderE
_ZTCN7android8hardware4wifi10supplicant4V1_019BnHwSupplicantIfaceE0_NS_4hidl4base4V1_08BnHwBaseE
_ZTCN7android8hardware4wifi10supplicant4V1_019BpHwSupplicantIfaceE0_NS0_11BpInterfaceINS3_16ISupplicantIfaceEEE
_ZTCN7android8hardware4wifi10supplicant4V1_019BpHwSupplicantIfaceE0_NS3_16ISupplicantIfaceE
_ZTCN7android8hardware4wifi10supplicant4V1_019BpHwSupplicantIfaceE0_NS_4hidl4base4V1_05IBaseE
_ZTCN7android8hardware4wifi10supplicant4V1_019BpHwSupplicantIfaceE4_NS0_10IInterfaceE
_ZTCN7android8hardware4wifi10supplicant4V1_019BpHwSupplicantIfaceE8_NS0_11BpHwRefBaseE
_ZTCN7android8hardware4wifi10supplicant4V1_019ISupplicantCallbackE0_NS_4hidl4base4V1_05IBaseE
_ZTCN7android8hardware4wifi10supplicant4V1_019ISupplicantP2pIfaceE0_NS3_16ISupplicantIfaceE
_ZTCN7android8hardware4wifi10supplicant4V1_019ISupplicantP2pIfaceE0_NS_4hidl4base4V1_05IBaseE
_ZTCN7android8hardware4wifi10supplicant4V1_019ISupplicantStaIfaceE0_NS3_16ISupplicantIfaceE
_ZTCN7android8hardware4wifi10supplicant4V1_019ISupplicantStaIfaceE0_NS_4hidl4base4V1_05IBaseE
_ZTCN7android8hardware4wifi10supplicant4V1_021BnHwSupplicantNetworkE0_NS0_7IBinderE
_ZTCN7android8hardware4wifi10supplicant4V1_021BnHwSupplicantNetworkE0_NS0_9BHwBinderE
_ZTCN7android8hardware4wifi10supplicant4V1_021BnHwSupplicantNetworkE0_NS_4hidl4base4V1_08BnHwBaseE
_ZTCN7android8hardware4wifi10supplicant4V1_021BpHwSupplicantNetworkE0_NS0_11BpInterfaceINS3_18ISupplicantNetworkEEE
_ZTCN7android8hardware4wifi10supplicant4V1_021BpHwSupplicantNetworkE0_NS3_18ISupplicantNetworkE
_ZTCN7android8hardware4wifi10supplicant4V1_021BpHwSupplicantNetworkE0_NS_4hidl4base4V1_05IBaseE
_ZTCN7android8hardware4wifi10supplicant4V1_021BpHwSupplicantNetworkE4_NS0_10IInterfaceE
_ZTCN7android8hardware4wifi10supplicant4V1_021BpHwSupplicantNetworkE8_NS0_11BpHwRefBaseE
_ZTCN7android8hardware4wifi10supplicant4V1_021ISupplicantP2pNetworkE0_NS3_18ISupplicantNetworkE
_ZTCN7android8hardware4wifi10supplicant4V1_021ISupplicantP2pNetworkE0_NS_4hidl4base4V1_05IBaseE
_ZTCN7android8hardware4wifi10supplicant4V1_021ISupplicantStaNetworkE0_NS3_18ISupplicantNetworkE
_ZTCN7android8hardware4wifi10supplicant4V1_021ISupplicantStaNetworkE0_NS_4hidl4base4V1_05IBaseE
_ZTCN7android8hardware4wifi10supplicant4V1_022BnHwSupplicantCallbackE0_NS0_7IBinderE
_ZTCN7android8hardware4wifi10supplicant4V1_022BnHwSupplicantCallbackE0_NS0_9BHwBinderE
_ZTCN7android8hardware4wifi10supplicant4V1_022BnHwSupplicantCallbackE0_NS_4hidl4base4V1_08BnHwBaseE
_ZTCN7android8hardware4wifi10supplicant4V1_022BnHwSupplicantP2pIfaceE0_NS0_7IBinderE
_ZTCN7android8hardware4wifi10supplicant4V1_022BnHwSupplicantP2pIfaceE0_NS0_9BHwBinderE
_ZTCN7android8hardware4wifi10supplicant4V1_022BnHwSupplicantP2pIfaceE0_NS_4hidl4base4V1_08BnHwBaseE
_ZTCN7android8hardware4wifi10supplicant4V1_022BnHwSupplicantStaIfaceE0_NS0_7IBinderE
_ZTCN7android8hardware4wifi10supplicant4V1_022BnHwSupplicantStaIfaceE0_NS0_9BHwBinderE
_ZTCN7android8hardware4wifi10supplicant4V1_022BnHwSupplicantStaIfaceE0_NS_4hidl4base4V1_08BnHwBaseE
_ZTCN7android8hardware4wifi10supplicant4V1_022BpHwSupplicantCallbackE0_NS0_11BpInterfaceINS3_19ISupplicantCallbackEEE
_ZTCN7android8hardware4wifi10supplicant4V1_022BpHwSupplicantCallbackE0_NS3_19ISupplicantCallbackE
_ZTCN7android8hardware4wifi10supplicant4V1_022BpHwSupplicantCallbackE0_NS_4hidl4base4V1_05IBaseE
_ZTCN7android8hardware4wifi10supplicant4V1_022BpHwSupplicantCallbackE4_NS0_10IInterfaceE
_ZTCN7android8hardware4wifi10supplicant4V1_022BpHwSupplicantCallbackE8_NS0_11BpHwRefBaseE
_ZTCN7android8hardware4wifi10supplicant4V1_022BpHwSupplicantP2pIfaceE0_NS0_11BpInterfaceINS3_19ISupplicantP2pIfaceEEE
_ZTCN7android8hardware4wifi10supplicant4V1_022BpHwSupplicantP2pIfaceE0_NS3_16ISupplicantIfaceE
_ZTCN7android8hardware4wifi10supplicant4V1_022BpHwSupplicantP2pIfaceE0_NS3_19ISupplicantP2pIfaceE
_ZTCN7android8hardware4wifi10supplicant4V1_022BpHwSupplicantP2pIfaceE0_NS_4hidl4base4V1_05IBaseE
_ZTCN7android8hardware4wifi10supplicant4V1_022BpHwSupplicantP2pIfaceE4_NS0_10IInterfaceE
_ZTCN7android8hardware4wifi10supplicant4V1_022BpHwSupplicantP2pIfaceE8_NS0_11BpHwRefBaseE
_ZTCN7android8hardware4wifi10supplicant4V1_022BpHwSupplicantStaIfaceE0_NS0_11BpInterfaceINS3_19ISupplicantStaIfaceEEE
_ZTCN7android8hardware4wifi10supplicant4V1_022BpHwSupplicantStaIfaceE0_NS3_16ISupplicantIfaceE
_ZTCN7android8hardware4wifi10supplicant4V1_022BpHwSupplicantStaIfaceE0_NS3_19ISupplicantStaIfaceE
_ZTCN7android8hardware4wifi10supplicant4V1_022BpHwSupplicantStaIfaceE0_NS_4hidl4base4V1_05IBaseE
_ZTCN7android8hardware4wifi10supplicant4V1_022BpHwSupplicantStaIfaceE4_NS0_10IInterfaceE
_ZTCN7android8hardware4wifi10supplicant4V1_022BpHwSupplicantStaIfaceE8_NS0_11BpHwRefBaseE
_ZTCN7android8hardware4wifi10supplicant4V1_024BnHwSupplicantP2pNetworkE0_NS0_7IBinderE
_ZTCN7android8hardware4wifi10supplicant4V1_024BnHwSupplicantP2pNetworkE0_NS0_9BHwBinderE
_ZTCN7android8hardware4wifi10supplicant4V1_024BnHwSupplicantP2pNetworkE0_NS_4hidl4base4V1_08BnHwBaseE
_ZTCN7android8hardware4wifi10supplicant4V1_024BnHwSupplicantStaNetworkE0_NS0_7IBinderE
_ZTCN7android8hardware4wifi10supplicant4V1_024BnHwSupplicantStaNetworkE0_NS0_9BHwBinderE
_ZTCN7android8hardware4wifi10supplicant4V1_024BnHwSupplicantStaNetworkE0_NS_4hidl4base4V1_08BnHwBaseE
_ZTCN7android8hardware4wifi10supplicant4V1_024BpHwSupplicantP2pNetworkE0_NS0_11BpInterfaceINS3_21ISupplicantP2pNetworkEEE
_ZTCN7android8hardware4wifi10supplicant4V1_024BpHwSupplicantP2pNetworkE0_NS3_18ISupplicantNetworkE
_ZTCN7android8hardware4wifi10supplicant4V1_024BpHwSupplicantP2pNetworkE0_NS3_21ISupplicantP2pNetworkE
_ZTCN7android8hardware4wifi10supplicant4V1_024BpHwSupplicantP2pNetworkE0_NS_4hidl4base4V1_05IBaseE
_ZTCN7android8hardware4wifi10supplicant4V1_024BpHwSupplicantP2pNetworkE4_NS0_10IInterfaceE
_ZTCN7android8hardware4wifi10supplicant4V1_024BpHwSupplicantP2pNetworkE8_NS0_11BpHwRefBaseE
_ZTCN7android8hardware4wifi10supplicant4V1_024BpHwSupplicantStaNetworkE0_NS0_11BpInterfaceINS3_21ISupplicantStaNetworkEEE
_ZTCN7android8hardware4wifi10supplicant4V1_024BpHwSupplicantStaNetworkE0_NS3_18ISupplicantNetworkE
_ZTCN7android8hardware4wifi10supplicant4V1_024BpHwSupplicantStaNetworkE0_NS3_21ISupplicantStaNetworkE
_ZTCN7android8hardware4wifi10supplicant4V1_024BpHwSupplicantStaNetworkE0_NS_4hidl4base4V1_05IBaseE
_ZTCN7android8hardware4wifi10supplicant4V1_024BpHwSupplicantStaNetworkE4_NS0_10IInterfaceE
_ZTCN7android8hardware4wifi10supplicant4V1_024BpHwSupplicantStaNetworkE8_NS0_11BpHwRefBaseE
_ZTCN7android8hardware4wifi10supplicant4V1_027ISupplicantP2pIfaceCallbackE0_NS_4hidl4base4V1_05IBaseE
_ZTCN7android8hardware4wifi10supplicant4V1_027ISupplicantStaIfaceCallbackE0_NS_4hidl4base4V1_05IBaseE
_ZTCN7android8hardware4wifi10supplicant4V1_029ISupplicantP2pNetworkCallbackE0_NS_4hidl4base4V1_05IBaseE
_ZTCN7android8hardware4wifi10supplicant4V1_029ISupplicantStaNetworkCallbackE0_NS_4hidl4base4V1_05IBaseE
_ZTCN7android8hardware4wifi10supplicant4V1_030BnHwSupplicantP2pIfaceCallbackE0_NS0_7IBinderE
_ZTCN7android8hardware4wifi10supplicant4V1_030BnHwSupplicantP2pIfaceCallbackE0_NS0_9BHwBinderE
_ZTCN7android8hardware4wifi10supplicant4V1_030BnHwSupplicantP2pIfaceCallbackE0_NS_4hidl4base4V1_08BnHwBaseE
_ZTCN7android8hardware4wifi10supplicant4V1_030BnHwSupplicantStaIfaceCallbackE0_NS0_7IBinderE
_ZTCN7android8hardware4wifi10supplicant4V1_030BnHwSupplicantStaIfaceCallbackE0_NS0_9BHwBinderE
_ZTCN7android8hardware4wifi10supplicant4V1_030BnHwSupplicantStaIfaceCallbackE0_NS_4hidl4base4V1_08BnHwBaseE
_ZTCN7android8hardware4wifi10supplicant4V1_030BpHwSupplicantP2pIfaceCallbackE0_NS0_11BpInterfaceINS3_27ISupplicantP2pIfaceCallbackEEE
_ZTCN7android8hardware4wifi10supplicant4V1_030BpHwSupplicantP2pIfaceCallbackE0_NS3_27ISupplicantP2pIfaceCallbackE
_ZTCN7android8hardware4wifi10supplicant4V1_030BpHwSupplicantP2pIfaceCallbackE0_NS_4hidl4base4V1_05IBaseE
_ZTCN7android8hardware4wifi10supplicant4V1_030BpHwSupplicantP2pIfaceCallbackE4_NS0_10IInterfaceE
_ZTCN7android8hardware4wifi10supplicant4V1_030BpHwSupplicantP2pIfaceCallbackE8_NS0_11BpHwRefBaseE
_ZTCN7android8hardware4wifi10supplicant4V1_030BpHwSupplicantStaIfaceCallbackE0_NS0_11BpInterfaceINS3_27ISupplicantStaIfaceCallbackEEE
_ZTCN7android8hardware4wifi10supplicant4V1_030BpHwSupplicantStaIfaceCallbackE0_NS3_27ISupplicantStaIfaceCallbackE
_ZTCN7android8hardware4wifi10supplicant4V1_030BpHwSupplicantStaIfaceCallbackE0_NS_4hidl4base4V1_05IBaseE
_ZTCN7android8hardware4wifi10supplicant4V1_030BpHwSupplicantStaIfaceCallbackE4_NS0_10IInterfaceE
_ZTCN7android8hardware4wifi10supplicant4V1_030BpHwSupplicantStaIfaceCallbackE8_NS0_11BpHwRefBaseE
_ZTCN7android8hardware4wifi10supplicant4V1_032BnHwSupplicantP2pNetworkCallbackE0_NS0_7IBinderE
_ZTCN7android8hardware4wifi10supplicant4V1_032BnHwSupplicantP2pNetworkCallbackE0_NS0_9BHwBinderE
_ZTCN7android8hardware4wifi10supplicant4V1_032BnHwSupplicantP2pNetworkCallbackE0_NS_4hidl4base4V1_08BnHwBaseE
_ZTCN7android8hardware4wifi10supplicant4V1_032BnHwSupplicantStaNetworkCallbackE0_NS0_7IBinderE
_ZTCN7android8hardware4wifi10supplicant4V1_032BnHwSupplicantStaNetworkCallbackE0_NS0_9BHwBinderE
_ZTCN7android8hardware4wifi10supplicant4V1_032BnHwSupplicantStaNetworkCallbackE0_NS_4hidl4base4V1_08BnHwBaseE
_ZTCN7android8hardware4wifi10supplicant4V1_032BpHwSupplicantP2pNetworkCallbackE0_NS0_11BpInterfaceINS3_29ISupplicantP2pNetworkCallbackEEE
_ZTCN7android8hardware4wifi10supplicant4V1_032BpHwSupplicantP2pNetworkCallbackE0_NS3_29ISupplicantP2pNetworkCallbackE
_ZTCN7android8hardware4wifi10supplicant4V1_032BpHwSupplicantP2pNetworkCallbackE0_NS_4hidl4base4V1_05IBaseE
_ZTCN7android8hardware4wifi10supplicant4V1_032BpHwSupplicantP2pNetworkCallbackE4_NS0_10IInterfaceE
_ZTCN7android8hardware4wifi10supplicant4V1_032BpHwSupplicantP2pNetworkCallbackE8_NS0_11BpHwRefBaseE
_ZTCN7android8hardware4wifi10supplicant4V1_032BpHwSupplicantStaNetworkCallbackE0_NS0_11BpInterfaceINS3_29ISupplicantStaNetworkCallbackEEE
_ZTCN7android8hardware4wifi10supplicant4V1_032BpHwSupplicantStaNetworkCallbackE0_NS3_29ISupplicantStaNetworkCallbackE
_ZTCN7android8hardware4wifi10supplicant4V1_032BpHwSupplicantStaNetworkCallbackE0_NS_4hidl4base4V1_05IBaseE
_ZTCN7android8hardware4wifi10supplicant4V1_032BpHwSupplicantStaNetworkCallbackE4_NS0_10IInterfaceE
_ZTCN7android8hardware4wifi10supplicant4V1_032BpHwSupplicantStaNetworkCallbackE8_NS0_11BpHwRefBaseE
_ZTTN7android8hardware4wifi10supplicant4V1_011ISupplicantE
_ZTTN7android8hardware4wifi10supplicant4V1_014BnHwSupplicantE
_ZTTN7android8hardware4wifi10supplicant4V1_014BpHwSupplicantE
_ZTTN7android8hardware4wifi10supplicant4V1_016ISupplicantIfaceE
_ZTTN7android8hardware4wifi10supplicant4V1_018ISupplicantNetworkE
_ZTTN7android8hardware4wifi10supplicant4V1_019BnHwSupplicantIfaceE
_ZTTN7android8hardware4wifi10supplicant4V1_019BpHwSupplicantIfaceE
_ZTTN7android8hardware4wifi10supplicant4V1_019ISupplicantCallbackE
_ZTTN7android8hardware4wifi10supplicant4V1_019ISupplicantP2pIfaceE
_ZTTN7android8hardware4wifi10supplicant4V1_019ISupplicantStaIfaceE
_ZTTN7android8hardware4wifi10supplicant4V1_021BnHwSupplicantNetworkE
_ZTTN7android8hardware4wifi10supplicant4V1_021BpHwSupplicantNetworkE
_ZTTN7android8hardware4wifi10supplicant4V1_021ISupplicantP2pNetworkE
_ZTTN7android8hardware4wifi10supplicant4V1_021ISupplicantStaNetworkE
_ZTTN7android8hardware4wifi10supplicant4V1_022BnHwSupplicantCallbackE
_ZTTN7android8hardware4wifi10supplicant4V1_022BnHwSupplicantP2pIfaceE
_ZTTN7android8hardware4wifi10supplicant4V1_022BnHwSupplicantStaIfaceE
_ZTTN7android8hardware4wifi10supplicant4V1_022BpHwSupplicantCallbackE
_ZTTN7android8hardware4wifi10supplicant4V1_022BpHwSupplicantP2pIfaceE
_ZTTN7android8hardware4wifi10supplicant4V1_022BpHwSupplicantStaIfaceE
_ZTTN7android8hardware4wifi10supplicant4V1_024BnHwSupplicantP2pNetworkE
_ZTTN7android8hardware4wifi10supplicant4V1_024BnHwSupplicantStaNetworkE
_ZTTN7android8hardware4wifi10supplicant4V1_024BpHwSupplicantP2pNetworkE
_ZTTN7android8hardware4wifi10supplicant4V1_024BpHwSupplicantStaNetworkE
_ZTTN7android8hardware4wifi10supplicant4V1_027ISupplicantP2pIfaceCallbackE
_ZTTN7android8hardware4wifi10supplicant4V1_027ISupplicantStaIfaceCallbackE
_ZTTN7android8hardware4wifi10supplicant4V1_029ISupplicantP2pNetworkCallbackE
_ZTTN7android8hardware4wifi10supplicant4V1_029ISupplicantStaNetworkCallbackE
_ZTTN7android8hardware4wifi10supplicant4V1_030BnHwSupplicantP2pIfaceCallbackE
_ZTTN7android8hardware4wifi10supplicant4V1_030BnHwSupplicantStaIfaceCallbackE
_ZTTN7android8hardware4wifi10supplicant4V1_030BpHwSupplicantP2pIfaceCallbackE
_ZTTN7android8hardware4wifi10supplicant4V1_030BpHwSupplicantStaIfaceCallbackE
_ZTTN7android8hardware4wifi10supplicant4V1_032BnHwSupplicantP2pNetworkCallbackE
_ZTTN7android8hardware4wifi10supplicant4V1_032BnHwSupplicantStaNetworkCallbackE
_ZTTN7android8hardware4wifi10supplicant4V1_032BpHwSupplicantP2pNetworkCallbackE
_ZTTN7android8hardware4wifi10supplicant4V1_032BpHwSupplicantStaNetworkCallbackE
_ZTVN7android8hardware4wifi10supplicant4V1_011ISupplicantE
_ZTVN7android8hardware4wifi10supplicant4V1_014BnHwSupplicantE
_ZTVN7android8hardware4wifi10supplicant4V1_014BpHwSupplicantE
_ZTVN7android8hardware4wifi10supplicant4V1_016ISupplicantIfaceE
_ZTVN7android8hardware4wifi10supplicant4V1_018ISupplicantNetworkE
_ZTVN7android8hardware4wifi10supplicant4V1_019BnHwSupplicantIfaceE
_ZTVN7android8hardware4wifi10supplicant4V1_019BpHwSupplicantIfaceE
_ZTVN7android8hardware4wifi10supplicant4V1_019ISupplicantCallbackE
_ZTVN7android8hardware4wifi10supplicant4V1_019ISupplicantP2pIfaceE
_ZTVN7android8hardware4wifi10supplicant4V1_019ISupplicantStaIfaceE
_ZTVN7android8hardware4wifi10supplicant4V1_021BnHwSupplicantNetworkE
_ZTVN7android8hardware4wifi10supplicant4V1_021BpHwSupplicantNetworkE
_ZTVN7android8hardware4wifi10supplicant4V1_021ISupplicantP2pNetworkE
_ZTVN7android8hardware4wifi10supplicant4V1_021ISupplicantStaNetworkE
_ZTVN7android8hardware4wifi10supplicant4V1_022BnHwSupplicantCallbackE
_ZTVN7android8hardware4wifi10supplicant4V1_022BnHwSupplicantP2pIfaceE
_ZTVN7android8hardware4wifi10supplicant4V1_022BnHwSupplicantStaIfaceE
_ZTVN7android8hardware4wifi10supplicant4V1_022BpHwSupplicantCallbackE
_ZTVN7android8hardware4wifi10supplicant4V1_022BpHwSupplicantP2pIfaceE
_ZTVN7android8hardware4wifi10supplicant4V1_022BpHwSupplicantStaIfaceE
_ZTVN7android8hardware4wifi10supplicant4V1_024BnHwSupplicantP2pNetworkE
_ZTVN7android8hardware4wifi10supplicant4V1_024BnHwSupplicantStaNetworkE
_ZTVN7android8hardware4wifi10supplicant4V1_024BpHwSupplicantP2pNetworkE
_ZTVN7android8hardware4wifi10supplicant4V1_024BpHwSupplicantStaNetworkE
_ZTVN7android8hardware4wifi10supplicant4V1_027ISupplicantP2pIfaceCallbackE
_ZTVN7android8hardware4wifi10supplicant4V1_027ISupplicantStaIfaceCallbackE
_ZTVN7android8hardware4wifi10supplicant4V1_029ISupplicantP2pNetworkCallbackE
_ZTVN7android8hardware4wifi10supplicant4V1_029ISupplicantStaNetworkCallbackE
_ZTVN7android8hardware4wifi10supplicant4V1_030BnHwSupplicantP2pIfaceCallbackE
_ZTVN7android8hardware4wifi10supplicant4V1_030BnHwSupplicantStaIfaceCallbackE
_ZTVN7android8hardware4wifi10supplicant4V1_030BpHwSupplicantP2pIfaceCallbackE
_ZTVN7android8hardware4wifi10supplicant4V1_030BpHwSupplicantStaIfaceCallbackE
_ZTVN7android8hardware4wifi10supplicant4V1_032BnHwSupplicantP2pNetworkCallbackE
_ZTVN7android8hardware4wifi10supplicant4V1_032BnHwSupplicantStaNetworkCallbackE
_ZTVN7android8hardware4wifi10supplicant4V1_032BpHwSupplicantP2pNetworkCallbackE
_ZTVN7android8hardware4wifi10supplicant4V1_032BpHwSupplicantStaNetworkCallbackE
_ZThn20_N7android8hardware4wifi10supplicant4V1_014BnHwSupplicantD0Ev
_ZThn20_N7android8hardware4wifi10supplicant4V1_014BnHwSupplicantD1Ev
_ZThn20_N7android8hardware4wifi10supplicant4V1_019BnHwSupplicantIfaceD0Ev
_ZThn20_N7android8hardware4wifi10supplicant4V1_019BnHwSupplicantIfaceD1Ev
_ZThn20_N7android8hardware4wifi10supplicant4V1_021BnHwSupplicantNetworkD0Ev
_ZThn20_N7android8hardware4wifi10supplicant4V1_021BnHwSupplicantNetworkD1Ev
_ZThn20_N7android8hardware4wifi10supplicant4V1_022BnHwSupplicantCallbackD0Ev
_ZThn20_N7android8hardware4wifi10supplicant4V1_022BnHwSupplicantCallbackD1Ev
_ZThn20_N7android8hardware4wifi10supplicant4V1_022BnHwSupplicantP2pIfaceD0Ev
_ZThn20_N7android8hardware4wifi10supplicant4V1_022BnHwSupplicantP2pIfaceD1Ev
_ZThn20_N7android8hardware4wifi10supplicant4V1_022BnHwSupplicantStaIfaceD0Ev
_ZThn20_N7android8hardware4wifi10supplicant4V1_022BnHwSupplicantStaIfaceD1Ev
_ZThn20_N7android8hardware4wifi10supplicant4V1_024BnHwSupplicantP2pNetworkD0Ev
_ZThn20_N7android8hardware4wifi10supplicant4V1_024BnHwSupplicantP2pNetworkD1Ev
_ZThn20_N7android8hardware4wifi10supplicant4V1_024BnHwSupplicantStaNetworkD0Ev
_ZThn20_N7android8hardware4wifi10supplicant4V1_024BnHwSupplicantStaNetworkD1Ev
_ZThn20_N7android8hardware4wifi10supplicant4V1_030BnHwSupplicantP2pIfaceCallbackD0Ev
_ZThn20_N7android8hardware4wifi10supplicant4V1_030BnHwSupplicantP2pIfaceCallbackD1Ev
_ZThn20_N7android8hardware4wifi10supplicant4V1_030BnHwSupplicantStaIfaceCallbackD0Ev
_ZThn20_N7android8hardware4wifi10supplicant4V1_030BnHwSupplicantStaIfaceCallbackD1Ev
_ZThn20_N7android8hardware4wifi10supplicant4V1_032BnHwSupplicantP2pNetworkCallbackD0Ev
_ZThn20_N7android8hardware4wifi10supplicant4V1_032BnHwSupplicantP2pNetworkCallbackD1Ev
_ZThn20_N7android8hardware4wifi10supplicant4V1_032BnHwSupplicantStaNetworkCallbackD0Ev
_ZThn20_N7android8hardware4wifi10supplicant4V1_032BnHwSupplicantStaNetworkCallbackD1Ev
_ZTv0_n12_N7android8hardware4wifi10supplicant4V1_014BnHwSupplicantD0Ev
_ZTv0_n12_N7android8hardware4wifi10supplicant4V1_014BnHwSupplicantD1Ev
_ZTv0_n12_N7android8hardware4wifi10supplicant4V1_019BnHwSupplicantIfaceD0Ev
_ZTv0_n12_N7android8hardware4wifi10supplicant4V1_019BnHwSupplicantIfaceD1Ev
_ZTv0_n12_N7android8hardware4wifi10supplicant4V1_021BnHwSupplicantNetworkD0Ev
_ZTv0_n12_N7android8hardware4wifi10supplicant4V1_021BnHwSupplicantNetworkD1Ev
_ZTv0_n12_N7android8hardware4wifi10supplicant4V1_022BnHwSupplicantCallbackD0Ev
_ZTv0_n12_N7android8hardware4wifi10supplicant4V1_022BnHwSupplicantCallbackD1Ev
_ZTv0_n12_N7android8hardware4wifi10supplicant4V1_022BnHwSupplicantP2pIfaceD0Ev
_ZTv0_n12_N7android8hardware4wifi10supplicant4V1_022BnHwSupplicantP2pIfaceD1Ev
_ZTv0_n12_N7android8hardware4wifi10supplicant4V1_022BnHwSupplicantStaIfaceD0Ev
_ZTv0_n12_N7android8hardware4wifi10supplicant4V1_022BnHwSupplicantStaIfaceD1Ev
_ZTv0_n12_N7android8hardware4wifi10supplicant4V1_024BnHwSupplicantP2pNetworkD0Ev
_ZTv0_n12_N7android8hardware4wifi10supplicant4V1_024BnHwSupplicantP2pNetworkD1Ev
_ZTv0_n12_N7android8hardware4wifi10supplicant4V1_024BnHwSupplicantStaNetworkD0Ev
_ZTv0_n12_N7android8hardware4wifi10supplicant4V1_024BnHwSupplicantStaNetworkD1Ev
_ZTv0_n12_N7android8hardware4wifi10supplicant4V1_030BnHwSupplicantP2pIfaceCallbackD0Ev
_ZTv0_n12_N7android8hardware4wifi10supplicant4V1_030BnHwSupplicantP2pIfaceCallbackD1Ev
_ZTv0_n12_N7android8hardware4wifi10supplicant4V1_030BnHwSupplicantStaIfaceCallbackD0Ev
_ZTv0_n12_N7android8hardware4wifi10supplicant4V1_030BnHwSupplicantStaIfaceCallbackD1Ev
_ZTv0_n12_N7android8hardware4wifi10supplicant4V1_032BnHwSupplicantP2pNetworkCallbackD0Ev
_ZTv0_n12_N7android8hardware4wifi10supplicant4V1_032BnHwSupplicantP2pNetworkCallbackD1Ev
_ZTv0_n12_N7android8hardware4wifi10supplicant4V1_032BnHwSupplicantStaNetworkCallbackD0Ev
_ZTv0_n12_N7android8hardware4wifi10supplicant4V1_032BnHwSupplicantStaNetworkCallbackD1Ev
