vtable for android::system::wifi::keystore::V1_0::BpHwKeystore
_ZTVN7android6system4wifi8keystore4V1_012BpHwKeystoreE: 20 entries
16    (int (*)(...)) _ZN7android6system4wifi8keystore4V1_012BpHwKeystore14interfaceChainENSt3__18functionIFvRKNS_8hardware8hidl_vecINS7_11hidl_stringEEEEEE
20    (int (*)(...)) _ZN7android6system4wifi8keystore4V1_012BpHwKeystore5debugERKNS_8hardware11hidl_handleERKNS5_8hidl_vecINS5_11hidl_stringEEE
24    (int (*)(...)) _ZN7android6system4wifi8keystore4V1_012BpHwKeystore19interfaceDescriptorENSt3__18functionIFvRKNS_8hardware11hidl_stringEEEE
28    (int (*)(...)) _ZN7android6system4wifi8keystore4V1_012BpHwKeystore12getHashChainENSt3__18functionIFvRKNS_8hardware8hidl_vecINS7_10hidl_arrayIhLj32EJEEEEEEEE
32    (int (*)(...)) _ZN7android6system4wifi8keystore4V1_012BpHwKeystore21setHALInstrumentationEv
36    (int (*)(...)) _ZN7android6system4wifi8keystore4V1_012BpHwKeystore11linkToDeathERKNS_2spINS_8hardware20hidl_death_recipientEEEy
40    (int (*)(...)) _ZN7android6system4wifi8keystore4V1_012BpHwKeystore4pingEv
44    (int (*)(...)) _ZN7android6system4wifi8keystore4V1_012BpHwKeystore12getDebugInfoENSt3__18functionIFvRKNS_4hidl4base4V1_09DebugInfoEEEE
48    (int (*)(...)) _ZN7android6system4wifi8keystore4V1_012BpHwKeystore21notifySyspropsChangedEv
52    (int (*)(...)) _ZN7android6system4wifi8keystore4V1_012BpHwKeystore13unlinkToDeathERKNS_2spINS_8hardware20hidl_death_recipientEEE
64    (int (*)(...)) _ZN7android6system4wifi8keystore4V1_012BpHwKeystore7getBlobERKNS_8hardware11hidl_stringENSt3__18functionIFvNS3_9IKeystore18KeystoreStatusCodeERKNS5_8hidl_vecIhEEEEE
68    (int (*)(...)) _ZN7android6system4wifi8keystore4V1_012BpHwKeystore12getPublicKeyERKNS_8hardware11hidl_stringENSt3__18functionIFvNS3_9IKeystore18KeystoreStatusCodeERKNS5_8hidl_vecIhEEEEE
72    (int (*)(...)) _ZN7android6system4wifi8keystore4V1_012BpHwKeystore4signERKNS_8hardware11hidl_stringERKNS5_8hidl_vecIhEENSt3__18functionIFvNS3_9IKeystore18KeystoreStatusCodeESC_EEE
124    (int (*)(...)) _ZN7android8hardware11BpHwRefBase10onFirstRefEv
128    (int (*)(...)) _ZN7android8hardware11BpHwRefBase15onLastStrongRefEPKv
132    (int (*)(...)) _ZN7android8hardware11BpHwRefBase20onIncStrongAttemptedEjPKv
188    (int (*)(...)) _ZTv0_n16_N7android8hardware11BpHwRefBase10onFirstRefEv
192    (int (*)(...)) _ZTv0_n20_N7android8hardware11BpHwRefBase15onLastStrongRefEPKv
196    (int (*)(...)) _ZTv0_n24_N7android8hardware11BpHwRefBase20onIncStrongAttemptedEjPKv
200    (int (*)(...)) _ZN7android7RefBase13onLastWeakRefEPKv


vtable for android::system::wifi::keystore::V1_0::BnHwKeystore
_ZTVN7android6system4wifi8keystore4V1_012BnHwKeystoreE: 21 entries
12    (int (*)(...)) _ZN7android8hardware9BHwBinder8transactEjRKNS0_6ParcelEPS2_jNSt3__18functionIFvRS2_EEE
16    (int (*)(...)) _ZN7android8hardware9BHwBinder11linkToDeathERKNS_2spINS0_7IBinder14DeathRecipientEEEPvj
20    (int (*)(...)) _ZN7android8hardware9BHwBinder13unlinkToDeathERKNS_2wpINS0_7IBinder14DeathRecipientEEEPvjPS5_
24    (int (*)(...)) _ZNK7android8hardware7IBinder13checkSubclassEPKv
28    (int (*)(...)) _ZN7android8hardware9BHwBinder12attachObjectEPKvPvS4_PFvS3_S4_S4_E
32    (int (*)(...)) _ZNK7android8hardware9BHwBinder10findObjectEPKv
36    (int (*)(...)) _ZN7android8hardware9BHwBinder12detachObjectEPKv
40    (int (*)(...)) _ZN7android8hardware9BHwBinder11localBinderEv
44    (int (*)(...)) _ZN7android8hardware7IBinder12remoteBinderEv
48    (int (*)(...)) _ZN7android6system4wifi8keystore4V1_012BnHwKeystoreD1Ev
52    (int (*)(...)) _ZN7android6system4wifi8keystore4V1_012BnHwKeystoreD0Ev
56    (int (*)(...)) _ZN7android6system4wifi8keystore4V1_012BnHwKeystore10onTransactEjRKNS_8hardware6ParcelEPS6_jNSt3__18functionIFvRS6_EEE
68    (int (*)(...)) _ZThn20_N7android6system4wifi8keystore4V1_012BnHwKeystoreD1Ev
72    (int (*)(...)) _ZThn20_N7android6system4wifi8keystore4V1_012BnHwKeystoreD0Ev
104    (int (*)(...)) _ZTv0_n12_N7android6system4wifi8keystore4V1_012BnHwKeystoreD1Ev
108    (int (*)(...)) _ZTv0_n12_N7android6system4wifi8keystore4V1_012BnHwKeystoreD0Ev
112    (int (*)(...)) _ZN7android7RefBase10onFirstRefEv
116    (int (*)(...)) _ZN7android7RefBase15onLastStrongRefEPKv
120    (int (*)(...)) _ZN7android7RefBase20onIncStrongAttemptedEjPKv
124    (int (*)(...)) _ZN7android7RefBase13onLastWeakRefEPKv
128    (int (*)(...)) _ZTVN7android6system4wifi8keystore4V1_012BnHwKeystoreE


vtable for android::system::wifi::keystore::V1_0::IKeystore
_ZTVN7android6system4wifi8keystore4V1_09IKeystoreE: 15 entries
16    (int (*)(...)) _ZN7android6system4wifi8keystore4V1_09IKeystore14interfaceChainENSt3__18functionIFvRKNS_8hardware8hidl_vecINS7_11hidl_stringEEEEEE
20    (int (*)(...)) _ZN7android6system4wifi8keystore4V1_09IKeystore5debugERKNS_8hardware11hidl_handleERKNS5_8hidl_vecINS5_11hidl_stringEEE
24    (int (*)(...)) _ZN7android6system4wifi8keystore4V1_09IKeystore19interfaceDescriptorENSt3__18functionIFvRKNS_8hardware11hidl_stringEEEE
28    (int (*)(...)) _ZN7android6system4wifi8keystore4V1_09IKeystore12getHashChainENSt3__18functionIFvRKNS_8hardware8hidl_vecINS7_10hidl_arrayIhLj32EJEEEEEEEE
32    (int (*)(...)) _ZN7android6system4wifi8keystore4V1_09IKeystore21setHALInstrumentationEv
36    (int (*)(...)) _ZN7android6system4wifi8keystore4V1_09IKeystore11linkToDeathERKNS_2spINS_8hardware20hidl_death_recipientEEEy
40    (int (*)(...)) _ZN7android6system4wifi8keystore4V1_09IKeystore4pingEv
44    (int (*)(...)) _ZN7android6system4wifi8keystore4V1_09IKeystore12getDebugInfoENSt3__18functionIFvRKNS_4hidl4base4V1_09DebugInfoEEEE
48    (int (*)(...)) _ZN7android6system4wifi8keystore4V1_09IKeystore21notifySyspropsChangedEv
52    (int (*)(...)) _ZN7android6system4wifi8keystore4V1_09IKeystore13unlinkToDeathERKNS_2spINS_8hardware20hidl_death_recipientEEE
112    (int (*)(...)) _ZN7android7RefBase10onFirstRefEv
116    (int (*)(...)) _ZN7android7RefBase15onLastStrongRefEPKv
120    (int (*)(...)) _ZN7android7RefBase20onIncStrongAttemptedEjPKv
124    (int (*)(...)) _ZN7android7RefBase13onLastWeakRefEPKv
128    (int (*)(...)) _ZTVN7android6system4wifi8keystore4V1_09IKeystoreE
