_ZN7android8hardware4wifi4V1_210BsWifiChip13addOnewayTaskENSt3__18functionIFvvEEE
_ZN7android8hardware4wifi4V1_210BsWifiChipC1ENS_2spINS2_9IWifiChipEEE
_ZN7android8hardware4wifi4V1_210BsWifiChipC2ENS_2spINS2_9IWifiChipEEE
_ZN7android8hardware4wifi4V1_212BnHwWifiChip10onTransactEjRKNS0_6ParcelEPS4_jNSt3__18functionIFvRS4_EEE
_ZN7android8hardware4wifi4V1_212BnHwWifiChip12getDebugInfoENSt3__18functionIFvRKNS_4hidl4base4V1_09DebugInfoEEEE
_ZN7android8hardware4wifi4V1_212BnHwWifiChip31_hidl_registerEventCallback_1_2EPNS_4hidl4base4V1_08BnHwBaseERKNS0_6ParcelEPS9_NSt3__18functionIFvRS9_EEE
_ZN7android8hardware4wifi4V1_212BnHwWifiChip31_hidl_selectTxPowerScenario_1_2EPNS_4hidl4base4V1_08BnHwBaseERKNS0_6ParcelEPS9_NSt3__18functionIFvRS9_EEE
_ZN7android8hardware4wifi4V1_212BnHwWifiChip4pingEv
_ZN7android8hardware4wifi4V1_212BnHwWifiChipC1ERKNS_2spINS2_9IWifiChipEEE
_ZN7android8hardware4wifi4V1_212BnHwWifiChipC2ERKNS_2spINS2_9IWifiChipEEE
_ZN7android8hardware4wifi4V1_212BnHwWifiChipD0Ev
_ZN7android8hardware4wifi4V1_212BnHwWifiChipD1Ev
_ZN7android8hardware4wifi4V1_212BnHwWifiChipD2Ev
_ZN7android8hardware4wifi4V1_212BpHwWifiChip10getApIfaceERKNS0_11hidl_stringENSt3__18functionIFvRKNS1_4V1_010WifiStatusERKNS_2spINS9_12IWifiApIfaceEEEEEE
_ZN7android8hardware4wifi4V1_212BpHwWifiChip11getNanIfaceERKNS0_11hidl_stringENSt3__18functionIFvRKNS1_4V1_010WifiStatusERKNS_2spINS9_13IWifiNanIfaceEEEEEE
_ZN7android8hardware4wifi4V1_212BpHwWifiChip11getP2pIfaceERKNS0_11hidl_stringENSt3__18functionIFvRKNS1_4V1_010WifiStatusERKNS_2spINS9_13IWifiP2pIfaceEEEEEE
_ZN7android8hardware4wifi4V1_212BpHwWifiChip11getStaIfaceERKNS0_11hidl_stringENSt3__18functionIFvRKNS1_4V1_010WifiStatusERKNS_2spINS9_13IWifiStaIfaceEEEEEE
_ZN7android8hardware4wifi4V1_212BpHwWifiChip11linkToDeathERKNS_2spINS0_20hidl_death_recipientEEEy
_ZN7android8hardware4wifi4V1_212BpHwWifiChip12getDebugInfoENSt3__18functionIFvRKNS_4hidl4base4V1_09DebugInfoEEEE
_ZN7android8hardware4wifi4V1_212BpHwWifiChip12getHashChainENSt3__18functionIFvRKNS0_8hidl_vecINS0_10hidl_arrayIhLj32EJEEEEEEEE
_ZN7android8hardware4wifi4V1_212BpHwWifiChip13configureChipEjNSt3__18functionIFvRKNS1_4V1_010WifiStatusEEEE
_ZN7android8hardware4wifi4V1_212BpHwWifiChip13createApIfaceENSt3__18functionIFvRKNS1_4V1_010WifiStatusERKNS_2spINS6_12IWifiApIfaceEEEEEE
_ZN7android8hardware4wifi4V1_212BpHwWifiChip13removeApIfaceERKNS0_11hidl_stringENSt3__18functionIFvRKNS1_4V1_010WifiStatusEEEE
_ZN7android8hardware4wifi4V1_212BpHwWifiChip13unlinkToDeathERKNS_2spINS0_20hidl_death_recipientEEE
_ZN7android8hardware4wifi4V1_212BpHwWifiChip14createNanIfaceENSt3__18functionIFvRKNS1_4V1_010WifiStatusERKNS_2spINS6_13IWifiNanIfaceEEEEEE
_ZN7android8hardware4wifi4V1_212BpHwWifiChip14createP2pIfaceENSt3__18functionIFvRKNS1_4V1_010WifiStatusERKNS_2spINS6_13IWifiP2pIfaceEEEEEE
_ZN7android8hardware4wifi4V1_212BpHwWifiChip14createStaIfaceENSt3__18functionIFvRKNS1_4V1_010WifiStatusERKNS_2spINS6_13IWifiStaIfaceEEEEEE
_ZN7android8hardware4wifi4V1_212BpHwWifiChip14interfaceChainENSt3__18functionIFvRKNS0_8hidl_vecINS0_11hidl_stringEEEEEE
_ZN7android8hardware4wifi4V1_212BpHwWifiChip14removeNanIfaceERKNS0_11hidl_stringENSt3__18functionIFvRKNS1_4V1_010WifiStatusEEEE
_ZN7android8hardware4wifi4V1_212BpHwWifiChip14removeP2pIfaceERKNS0_11hidl_stringENSt3__18functionIFvRKNS1_4V1_010WifiStatusEEEE
_ZN7android8hardware4wifi4V1_212BpHwWifiChip14removeStaIfaceERKNS0_11hidl_stringENSt3__18functionIFvRKNS1_4V1_010WifiStatusEEEE
_ZN7android8hardware4wifi4V1_212BpHwWifiChip15getApIfaceNamesENSt3__18functionIFvRKNS1_4V1_010WifiStatusERKNS0_8hidl_vecINS0_11hidl_stringEEEEEE
_ZN7android8hardware4wifi4V1_212BpHwWifiChip15getCapabilitiesENSt3__18functionIFvRKNS1_4V1_010WifiStatusEjEEE
_ZN7android8hardware4wifi4V1_212BpHwWifiChip16getNanIfaceNamesENSt3__18functionIFvRKNS1_4V1_010WifiStatusERKNS0_8hidl_vecINS0_11hidl_stringEEEEEE
_ZN7android8hardware4wifi4V1_212BpHwWifiChip16getP2pIfaceNamesENSt3__18functionIFvRKNS1_4V1_010WifiStatusERKNS0_8hidl_vecINS0_11hidl_stringEEEEEE
_ZN7android8hardware4wifi4V1_212BpHwWifiChip16getStaIfaceNamesENSt3__18functionIFvRKNS1_4V1_010WifiStatusERKNS0_8hidl_vecINS0_11hidl_stringEEEEEE
_ZN7android8hardware4wifi4V1_212BpHwWifiChip17getAvailableModesENSt3__18functionIFvRKNS1_4V1_010WifiStatusERKNS0_8hidl_vecINS6_9IWifiChip8ChipModeEEEEEE
_ZN7android8hardware4wifi4V1_212BpHwWifiChip19createRttControllerERKNS_2spINS1_4V1_010IWifiIfaceEEENSt3__18functionIFvRKNS5_10WifiStatusERKNS4_INS5_18IWifiRttControllerEEEEEE
_ZN7android8hardware4wifi4V1_212BpHwWifiChip19interfaceDescriptorENSt3__18functionIFvRKNS0_11hidl_stringEEEE
_ZN7android8hardware4wifi4V1_212BpHwWifiChip20requestChipDebugInfoENSt3__18functionIFvRKNS1_4V1_010WifiStatusERKNS6_9IWifiChip13ChipDebugInfoEEEE
_ZN7android8hardware4wifi4V1_212BpHwWifiChip20resetTxPowerScenarioENSt3__18functionIFvRKNS1_4V1_010WifiStatusEEEE
_ZN7android8hardware4wifi4V1_212BpHwWifiChip21notifySyspropsChangedEv
_ZN7android8hardware4wifi4V1_212BpHwWifiChip21registerEventCallbackERKNS_2spINS1_4V1_022IWifiChipEventCallbackEEENSt3__18functionIFvRKNS5_10WifiStatusEEEE
_ZN7android8hardware4wifi4V1_212BpHwWifiChip21selectTxPowerScenarioENS1_4V1_19IWifiChip15TxPowerScenarioENSt3__18functionIFvRKNS1_4V1_010WifiStatusEEEE
_ZN7android8hardware4wifi4V1_212BpHwWifiChip21setHALInstrumentationEv
_ZN7android8hardware4wifi4V1_212BpHwWifiChip22enableDebugErrorAlertsEbNSt3__18functionIFvRKNS1_4V1_010WifiStatusEEEE
_ZN7android8hardware4wifi4V1_212BpHwWifiChip22requestDriverDebugDumpENSt3__18functionIFvRKNS1_4V1_010WifiStatusERKNS0_8hidl_vecIhEEEEE
_ZN7android8hardware4wifi4V1_212BpHwWifiChip24requestFirmwareDebugDumpENSt3__18functionIFvRKNS1_4V1_010WifiStatusERKNS0_8hidl_vecIhEEEEE
_ZN7android8hardware4wifi4V1_212BpHwWifiChip25getDebugRingBuffersStatusENSt3__18functionIFvRKNS1_4V1_010WifiStatusERKNS0_8hidl_vecINS6_25WifiDebugRingBufferStatusEEEEEE
_ZN7android8hardware4wifi4V1_212BpHwWifiChip25registerEventCallback_1_2ERKNS_2spINS2_22IWifiChipEventCallbackEEENSt3__18functionIFvRKNS1_4V1_010WifiStatusEEEE
_ZN7android8hardware4wifi4V1_212BpHwWifiChip25selectTxPowerScenario_1_2ENS2_9IWifiChip15TxPowerScenarioENSt3__18functionIFvRKNS1_4V1_010WifiStatusEEEE
_ZN7android8hardware4wifi4V1_212BpHwWifiChip26forceDumpToDebugRingBufferERKNS0_11hidl_stringENSt3__18functionIFvRKNS1_4V1_010WifiStatusEEEE
_ZN7android8hardware4wifi4V1_212BpHwWifiChip27getDebugHostWakeReasonStatsENSt3__18functionIFvRKNS1_4V1_010WifiStatusERKNS6_28WifiDebugHostWakeReasonStatsEEEE
_ZN7android8hardware4wifi4V1_212BpHwWifiChip28stopLoggingToDebugRingBufferENSt3__18functionIFvRKNS1_4V1_010WifiStatusEEEE
_ZN7android8hardware4wifi4V1_212BpHwWifiChip29startLoggingToDebugRingBufferERKNS0_11hidl_stringENS1_4V1_031WifiDebugRingBufferVerboseLevelEjjNSt3__18functionIFvRKNS7_10WifiStatusEEEE
_ZN7android8hardware4wifi4V1_212BpHwWifiChip31_hidl_registerEventCallback_1_2EPNS0_10IInterfaceEPNS0_7details16HidlInstrumentorERKNS_2spINS2_22IWifiChipEventCallbackEEENSt3__18functionIFvRKNS1_4V1_010WifiStatusEEEE
_ZN7android8hardware4wifi4V1_212BpHwWifiChip31_hidl_selectTxPowerScenario_1_2EPNS0_10IInterfaceEPNS0_7details16HidlInstrumentorENS2_9IWifiChip15TxPowerScenarioENSt3__18functionIFvRKNS1_4V1_010WifiStatusEEEE
_ZN7android8hardware4wifi4V1_212BpHwWifiChip4pingEv
_ZN7android8hardware4wifi4V1_212BpHwWifiChip5debugERKNS0_11hidl_handleERKNS0_8hidl_vecINS0_11hidl_stringEEE
_ZN7android8hardware4wifi4V1_212BpHwWifiChip5getIdENSt3__18functionIFvRKNS1_4V1_010WifiStatusEjEEE
_ZN7android8hardware4wifi4V1_212BpHwWifiChip7getModeENSt3__18functionIFvRKNS1_4V1_010WifiStatusEjEEE
_ZN7android8hardware4wifi4V1_212BpHwWifiChipC1ERKNS_2spINS0_7IBinderEEE
_ZN7android8hardware4wifi4V1_212BpHwWifiChipC2ERKNS_2spINS0_7IBinderEEE
_ZN7android8hardware4wifi4V1_213IWifiNanIface10descriptorE
_ZN7android8hardware4wifi4V1_213IWifiNanIface10getServiceERKNSt3__112basic_stringIcNS4_11char_traitsIcEENS4_9allocatorIcEEEEb
_ZN7android8hardware4wifi4V1_213IWifiNanIface11linkToDeathERKNS_2spINS0_20hidl_death_recipientEEEy
_ZN7android8hardware4wifi4V1_213IWifiNanIface12getDebugInfoENSt3__18functionIFvRKNS_4hidl4base4V1_09DebugInfoEEEE
_ZN7android8hardware4wifi4V1_213IWifiNanIface12getHashChainENSt3__18functionIFvRKNS0_8hidl_vecINS0_10hidl_arrayIhLj32EJEEEEEEEE
_ZN7android8hardware4wifi4V1_213IWifiNanIface13tryGetServiceERKNSt3__112basic_stringIcNS4_11char_traitsIcEENS4_9allocatorIcEEEEb
_ZN7android8hardware4wifi4V1_213IWifiNanIface13unlinkToDeathERKNS_2spINS0_20hidl_death_recipientEEE
_ZN7android8hardware4wifi4V1_213IWifiNanIface14interfaceChainENSt3__18functionIFvRKNS0_8hidl_vecINS0_11hidl_stringEEEEEE
_ZN7android8hardware4wifi4V1_213IWifiNanIface17registerAsServiceERKNSt3__112basic_stringIcNS4_11char_traitsIcEENS4_9allocatorIcEEEE
_ZN7android8hardware4wifi4V1_213IWifiNanIface19interfaceDescriptorENSt3__18functionIFvRKNS0_11hidl_stringEEEE
_ZN7android8hardware4wifi4V1_213IWifiNanIface21notifySyspropsChangedEv
_ZN7android8hardware4wifi4V1_213IWifiNanIface21setHALInstrumentationEv
_ZN7android8hardware4wifi4V1_213IWifiNanIface24registerForNotificationsERKNSt3__112basic_stringIcNS4_11char_traitsIcEENS4_9allocatorIcEEEERKNS_2spINS_4hidl7manager4V1_020IServiceNotificationEEE
_ZN7android8hardware4wifi4V1_213IWifiNanIface4pingEv
_ZN7android8hardware4wifi4V1_213IWifiNanIface5debugERKNS0_11hidl_handleERKNS0_8hidl_vecINS0_11hidl_stringEEE
_ZN7android8hardware4wifi4V1_213IWifiNanIface8castFromERKNS_2spINS1_4V1_010IWifiIfaceEEEb
_ZN7android8hardware4wifi4V1_213IWifiNanIface8castFromERKNS_2spINS1_4V1_013IWifiNanIfaceEEEb
_ZN7android8hardware4wifi4V1_213IWifiNanIface8castFromERKNS_2spINS_4hidl4base4V1_05IBaseEEEb
_ZN7android8hardware4wifi4V1_213IWifiNanIface8castFromERKNS_2spIS3_EEb
_ZN7android8hardware4wifi4V1_213IWifiStaIface10descriptorE
_ZN7android8hardware4wifi4V1_213IWifiStaIface10getServiceERKNSt3__112basic_stringIcNS4_11char_traitsIcEENS4_9allocatorIcEEEEb
_ZN7android8hardware4wifi4V1_213IWifiStaIface11linkToDeathERKNS_2spINS0_20hidl_death_recipientEEEy
_ZN7android8hardware4wifi4V1_213IWifiStaIface12getDebugInfoENSt3__18functionIFvRKNS_4hidl4base4V1_09DebugInfoEEEE
_ZN7android8hardware4wifi4V1_213IWifiStaIface12getHashChainENSt3__18functionIFvRKNS0_8hidl_vecINS0_10hidl_arrayIhLj32EJEEEEEEEE
_ZN7android8hardware4wifi4V1_213IWifiStaIface13tryGetServiceERKNSt3__112basic_stringIcNS4_11char_traitsIcEENS4_9allocatorIcEEEEb
_ZN7android8hardware4wifi4V1_213IWifiStaIface13unlinkToDeathERKNS_2spINS0_20hidl_death_recipientEEE
_ZN7android8hardware4wifi4V1_213IWifiStaIface14interfaceChainENSt3__18functionIFvRKNS0_8hidl_vecINS0_11hidl_stringEEEEEE
_ZN7android8hardware4wifi4V1_213IWifiStaIface17registerAsServiceERKNSt3__112basic_stringIcNS4_11char_traitsIcEENS4_9allocatorIcEEEE
_ZN7android8hardware4wifi4V1_213IWifiStaIface19interfaceDescriptorENSt3__18functionIFvRKNS0_11hidl_stringEEEE
_ZN7android8hardware4wifi4V1_213IWifiStaIface21notifySyspropsChangedEv
_ZN7android8hardware4wifi4V1_213IWifiStaIface21setHALInstrumentationEv
_ZN7android8hardware4wifi4V1_213IWifiStaIface24registerForNotificationsERKNSt3__112basic_stringIcNS4_11char_traitsIcEENS4_9allocatorIcEEEERKNS_2spINS_4hidl7manager4V1_020IServiceNotificationEEE
_ZN7android8hardware4wifi4V1_213IWifiStaIface4pingEv
_ZN7android8hardware4wifi4V1_213IWifiStaIface5debugERKNS0_11hidl_handleERKNS0_8hidl_vecINS0_11hidl_stringEEE
_ZN7android8hardware4wifi4V1_213IWifiStaIface8castFromERKNS_2spINS1_4V1_010IWifiIfaceEEEb
_ZN7android8hardware4wifi4V1_213IWifiStaIface8castFromERKNS_2spINS1_4V1_013IWifiStaIfaceEEEb
_ZN7android8hardware4wifi4V1_213IWifiStaIface8castFromERKNS_2spINS_4hidl4base4V1_05IBaseEEEb
_ZN7android8hardware4wifi4V1_213IWifiStaIface8castFromERKNS_2spIS3_EEb
_ZN7android8hardware4wifi4V1_214BsWifiNanIface13addOnewayTaskENSt3__18functionIFvvEEE
_ZN7android8hardware4wifi4V1_214BsWifiNanIfaceC1ENS_2spINS2_13IWifiNanIfaceEEE
_ZN7android8hardware4wifi4V1_214BsWifiNanIfaceC2ENS_2spINS2_13IWifiNanIfaceEEE
_ZN7android8hardware4wifi4V1_214BsWifiStaIface13addOnewayTaskENSt3__18functionIFvvEEE
_ZN7android8hardware4wifi4V1_214BsWifiStaIfaceC1ENS_2spINS2_13IWifiStaIfaceEEE
_ZN7android8hardware4wifi4V1_214BsWifiStaIfaceC2ENS_2spINS2_13IWifiStaIfaceEEE
_ZN7android8hardware4wifi4V1_216BnHwWifiNanIface10onTransactEjRKNS0_6ParcelEPS4_jNSt3__18functionIFvRS4_EEE
_ZN7android8hardware4wifi4V1_216BnHwWifiNanIface12getDebugInfoENSt3__18functionIFvRKNS_4hidl4base4V1_09DebugInfoEEEE
_ZN7android8hardware4wifi4V1_216BnHwWifiNanIface23_hidl_configRequest_1_2EPNS_4hidl4base4V1_08BnHwBaseERKNS0_6ParcelEPS9_NSt3__18functionIFvRS9_EEE
_ZN7android8hardware4wifi4V1_216BnHwWifiNanIface23_hidl_enableRequest_1_2EPNS_4hidl4base4V1_08BnHwBaseERKNS0_6ParcelEPS9_NSt3__18functionIFvRS9_EEE
_ZN7android8hardware4wifi4V1_216BnHwWifiNanIface31_hidl_registerEventCallback_1_2EPNS_4hidl4base4V1_08BnHwBaseERKNS0_6ParcelEPS9_NSt3__18functionIFvRS9_EEE
_ZN7android8hardware4wifi4V1_216BnHwWifiNanIface4pingEv
_ZN7android8hardware4wifi4V1_216BnHwWifiNanIfaceC1ERKNS_2spINS2_13IWifiNanIfaceEEE
_ZN7android8hardware4wifi4V1_216BnHwWifiNanIfaceC2ERKNS_2spINS2_13IWifiNanIfaceEEE
_ZN7android8hardware4wifi4V1_216BnHwWifiNanIfaceD0Ev
_ZN7android8hardware4wifi4V1_216BnHwWifiNanIfaceD1Ev
_ZN7android8hardware4wifi4V1_216BnHwWifiNanIfaceD2Ev
_ZN7android8hardware4wifi4V1_216BnHwWifiStaIface10onTransactEjRKNS0_6ParcelEPS4_jNSt3__18functionIFvRS4_EEE
_ZN7android8hardware4wifi4V1_216BnHwWifiStaIface12getDebugInfoENSt3__18functionIFvRKNS_4hidl4base4V1_09DebugInfoEEEE
_ZN7android8hardware4wifi4V1_216BnHwWifiStaIface19_hidl_setMacAddressEPNS_4hidl4base4V1_08BnHwBaseERKNS0_6ParcelEPS9_NSt3__18functionIFvRS9_EEE
_ZN7android8hardware4wifi4V1_216BnHwWifiStaIface29_hidl_readApfPacketFilterDataEPNS_4hidl4base4V1_08BnHwBaseERKNS0_6ParcelEPS9_NSt3__18functionIFvRS9_EEE
_ZN7android8hardware4wifi4V1_216BnHwWifiStaIface4pingEv
_ZN7android8hardware4wifi4V1_216BnHwWifiStaIfaceC1ERKNS_2spINS2_13IWifiStaIfaceEEE
_ZN7android8hardware4wifi4V1_216BnHwWifiStaIfaceC2ERKNS_2spINS2_13IWifiStaIfaceEEE
_ZN7android8hardware4wifi4V1_216BnHwWifiStaIfaceD0Ev
_ZN7android8hardware4wifi4V1_216BnHwWifiStaIfaceD1Ev
_ZN7android8hardware4wifi4V1_216BnHwWifiStaIfaceD2Ev
_ZN7android8hardware4wifi4V1_216BpHwWifiNanIface11linkToDeathERKNS_2spINS0_20hidl_death_recipientEEEy
_ZN7android8hardware4wifi4V1_216BpHwWifiNanIface12getDebugInfoENSt3__18functionIFvRKNS_4hidl4base4V1_09DebugInfoEEEE
_ZN7android8hardware4wifi4V1_216BpHwWifiNanIface12getHashChainENSt3__18functionIFvRKNS0_8hidl_vecINS0_10hidl_arrayIhLj32EJEEEEEEEE
_ZN7android8hardware4wifi4V1_216BpHwWifiNanIface13configRequestEtRKNS1_4V1_016NanConfigRequestENSt3__18functionIFvRKNS4_10WifiStatusEEEE
_ZN7android8hardware4wifi4V1_216BpHwWifiNanIface13enableRequestEtRKNS1_4V1_016NanEnableRequestENSt3__18functionIFvRKNS4_10WifiStatusEEEE
_ZN7android8hardware4wifi4V1_216BpHwWifiNanIface13unlinkToDeathERKNS_2spINS0_20hidl_death_recipientEEE
_ZN7android8hardware4wifi4V1_216BpHwWifiNanIface14disableRequestEtNSt3__18functionIFvRKNS1_4V1_010WifiStatusEEEE
_ZN7android8hardware4wifi4V1_216BpHwWifiNanIface14interfaceChainENSt3__18functionIFvRKNS0_8hidl_vecINS0_11hidl_stringEEEEEE
_ZN7android8hardware4wifi4V1_216BpHwWifiNanIface17configRequest_1_2EtRKNS1_4V1_016NanConfigRequestERKNS2_28NanConfigRequestSupplementalENSt3__18functionIFvRKNS4_10WifiStatusEEEE
_ZN7android8hardware4wifi4V1_216BpHwWifiNanIface17enableRequest_1_2EtRKNS1_4V1_016NanEnableRequestERKNS2_28NanConfigRequestSupplementalENSt3__18functionIFvRKNS4_10WifiStatusEEEE
_ZN7android8hardware4wifi4V1_216BpHwWifiNanIface18stopPublishRequestEthNSt3__18functionIFvRKNS1_4V1_010WifiStatusEEEE
_ZN7android8hardware4wifi4V1_216BpHwWifiNanIface19interfaceDescriptorENSt3__18functionIFvRKNS0_11hidl_stringEEEE
_ZN7android8hardware4wifi4V1_216BpHwWifiNanIface19startPublishRequestEtRKNS1_4V1_017NanPublishRequestENSt3__18functionIFvRKNS4_10WifiStatusEEEE
_ZN7android8hardware4wifi4V1_216BpHwWifiNanIface20stopSubscribeRequestEthNSt3__18functionIFvRKNS1_4V1_010WifiStatusEEEE
_ZN7android8hardware4wifi4V1_216BpHwWifiNanIface21notifySyspropsChangedEv
_ZN7android8hardware4wifi4V1_216BpHwWifiNanIface21registerEventCallbackERKNS_2spINS1_4V1_026IWifiNanIfaceEventCallbackEEENSt3__18functionIFvRKNS5_10WifiStatusEEEE
_ZN7android8hardware4wifi4V1_216BpHwWifiNanIface21setHALInstrumentationEv
_ZN7android8hardware4wifi4V1_216BpHwWifiNanIface21startSubscribeRequestEtRKNS1_4V1_019NanSubscribeRequestENSt3__18functionIFvRKNS4_10WifiStatusEEEE
_ZN7android8hardware4wifi4V1_216BpHwWifiNanIface22getCapabilitiesRequestEtNSt3__18functionIFvRKNS1_4V1_010WifiStatusEEEE
_ZN7android8hardware4wifi4V1_216BpHwWifiNanIface23_hidl_configRequest_1_2EPNS0_10IInterfaceEPNS0_7details16HidlInstrumentorEtRKNS1_4V1_016NanConfigRequestERKNS2_28NanConfigRequestSupplementalENSt3__18functionIFvRKNS9_10WifiStatusEEEE
_ZN7android8hardware4wifi4V1_216BpHwWifiNanIface23_hidl_enableRequest_1_2EPNS0_10IInterfaceEPNS0_7details16HidlInstrumentorEtRKNS1_4V1_016NanEnableRequestERKNS2_28NanConfigRequestSupplementalENSt3__18functionIFvRKNS9_10WifiStatusEEEE
_ZN7android8hardware4wifi4V1_216BpHwWifiNanIface23initiateDataPathRequestEtRKNS1_4V1_026NanInitiateDataPathRequestENSt3__18functionIFvRKNS4_10WifiStatusEEEE
_ZN7android8hardware4wifi4V1_216BpHwWifiNanIface23transmitFollowupRequestEtRKNS1_4V1_026NanTransmitFollowupRequestENSt3__18functionIFvRKNS4_10WifiStatusEEEE
_ZN7android8hardware4wifi4V1_216BpHwWifiNanIface24terminateDataPathRequestEtjNSt3__18functionIFvRKNS1_4V1_010WifiStatusEEEE
_ZN7android8hardware4wifi4V1_216BpHwWifiNanIface25registerEventCallback_1_2ERKNS_2spINS2_26IWifiNanIfaceEventCallbackEEENSt3__18functionIFvRKNS1_4V1_010WifiStatusEEEE
_ZN7android8hardware4wifi4V1_216BpHwWifiNanIface26createDataInterfaceRequestEtRKNS0_11hidl_stringENSt3__18functionIFvRKNS1_4V1_010WifiStatusEEEE
_ZN7android8hardware4wifi4V1_216BpHwWifiNanIface26deleteDataInterfaceRequestEtRKNS0_11hidl_stringENSt3__18functionIFvRKNS1_4V1_010WifiStatusEEEE
_ZN7android8hardware4wifi4V1_216BpHwWifiNanIface31_hidl_registerEventCallback_1_2EPNS0_10IInterfaceEPNS0_7details16HidlInstrumentorERKNS_2spINS2_26IWifiNanIfaceEventCallbackEEENSt3__18functionIFvRKNS1_4V1_010WifiStatusEEEE
_ZN7android8hardware4wifi4V1_216BpHwWifiNanIface34respondToDataPathIndicationRequestEtRKNS1_4V1_037NanRespondToDataPathIndicationRequestENSt3__18functionIFvRKNS4_10WifiStatusEEEE
_ZN7android8hardware4wifi4V1_216BpHwWifiNanIface4pingEv
_ZN7android8hardware4wifi4V1_216BpHwWifiNanIface5debugERKNS0_11hidl_handleERKNS0_8hidl_vecINS0_11hidl_stringEEE
_ZN7android8hardware4wifi4V1_216BpHwWifiNanIface7getNameENSt3__18functionIFvRKNS1_4V1_010WifiStatusERKNS0_11hidl_stringEEEE
_ZN7android8hardware4wifi4V1_216BpHwWifiNanIface7getTypeENSt3__18functionIFvRKNS1_4V1_010WifiStatusENS6_9IfaceTypeEEEE
_ZN7android8hardware4wifi4V1_216BpHwWifiNanIfaceC1ERKNS_2spINS0_7IBinderEEE
_ZN7android8hardware4wifi4V1_216BpHwWifiNanIfaceC2ERKNS_2spINS0_7IBinderEEE
_ZN7android8hardware4wifi4V1_216BpHwWifiStaIface11linkToDeathERKNS_2spINS0_20hidl_death_recipientEEEy
_ZN7android8hardware4wifi4V1_216BpHwWifiStaIface12getDebugInfoENSt3__18functionIFvRKNS_4hidl4base4V1_09DebugInfoEEEE
_ZN7android8hardware4wifi4V1_216BpHwWifiStaIface12getHashChainENSt3__18functionIFvRKNS0_8hidl_vecINS0_10hidl_arrayIhLj32EJEEEEEEEE
_ZN7android8hardware4wifi4V1_216BpHwWifiStaIface13setMacAddressERKNS0_10hidl_arrayIhLj6EJEEENSt3__18functionIFvRKNS1_4V1_010WifiStatusEEEE
_ZN7android8hardware4wifi4V1_216BpHwWifiStaIface13unlinkToDeathERKNS_2spINS0_20hidl_death_recipientEEE
_ZN7android8hardware4wifi4V1_216BpHwWifiStaIface14interfaceChainENSt3__18functionIFvRKNS0_8hidl_vecINS0_11hidl_stringEEEEEE
_ZN7android8hardware4wifi4V1_216BpHwWifiStaIface15enableNdOffloadEbNSt3__18functionIFvRKNS1_4V1_010WifiStatusEEEE
_ZN7android8hardware4wifi4V1_216BpHwWifiStaIface15getCapabilitiesENSt3__18functionIFvRKNS1_4V1_010WifiStatusEjEEE
_ZN7android8hardware4wifi4V1_216BpHwWifiStaIface15setRoamingStateENS1_4V1_015StaRoamingStateENSt3__18functionIFvRKNS4_10WifiStatusEEEE
_ZN7android8hardware4wifi4V1_216BpHwWifiStaIface16configureRoamingERKNS1_4V1_016StaRoamingConfigENSt3__18functionIFvRKNS4_10WifiStatusEEEE
_ZN7android8hardware4wifi4V1_216BpHwWifiStaIface17getLinkLayerStatsENSt3__18functionIFvRKNS1_4V1_010WifiStatusERKNS6_17StaLinkLayerStatsEEEE
_ZN7android8hardware4wifi4V1_216BpHwWifiStaIface17setScanningMacOuiERKNS0_10hidl_arrayIhLj3EJEEENSt3__18functionIFvRKNS1_4V1_010WifiStatusEEEE
_ZN7android8hardware4wifi4V1_216BpHwWifiStaIface18stopBackgroundScanEjNSt3__18functionIFvRKNS1_4V1_010WifiStatusEEEE
_ZN7android8hardware4wifi4V1_216BpHwWifiStaIface18stopRssiMonitoringEjNSt3__18functionIFvRKNS1_4V1_010WifiStatusEEEE
_ZN7android8hardware4wifi4V1_216BpHwWifiStaIface19_hidl_setMacAddressEPNS0_10IInterfaceEPNS0_7details16HidlInstrumentorERKNS0_10hidl_arrayIhLj6EJEEENSt3__18functionIFvRKNS1_4V1_010WifiStatusEEEE
_ZN7android8hardware4wifi4V1_216BpHwWifiStaIface19interfaceDescriptorENSt3__18functionIFvRKNS0_11hidl_stringEEEE
_ZN7android8hardware4wifi4V1_216BpHwWifiStaIface19startBackgroundScanEjRKNS1_4V1_027StaBackgroundScanParametersENSt3__18functionIFvRKNS4_10WifiStatusEEEE
_ZN7android8hardware4wifi4V1_216BpHwWifiStaIface19startRssiMonitoringEjiiNSt3__18functionIFvRKNS1_4V1_010WifiStatusEEEE
_ZN7android8hardware4wifi4V1_216BpHwWifiStaIface21getDebugRxPacketFatesENSt3__18functionIFvRKNS1_4V1_010WifiStatusERKNS0_8hidl_vecINS6_27WifiDebugRxPacketFateReportEEEEEE
_ZN7android8hardware4wifi4V1_216BpHwWifiStaIface21getDebugTxPacketFatesENSt3__18functionIFvRKNS1_4V1_010WifiStatusERKNS0_8hidl_vecINS6_27WifiDebugTxPacketFateReportEEEEEE
_ZN7android8hardware4wifi4V1_216BpHwWifiStaIface21notifySyspropsChangedEv
_ZN7android8hardware4wifi4V1_216BpHwWifiStaIface21registerEventCallbackERKNS_2spINS1_4V1_026IWifiStaIfaceEventCallbackEEENSt3__18functionIFvRKNS5_10WifiStatusEEEE
_ZN7android8hardware4wifi4V1_216BpHwWifiStaIface21setHALInstrumentationEv
_ZN7android8hardware4wifi4V1_216BpHwWifiStaIface22getRoamingCapabilitiesENSt3__18functionIFvRKNS1_4V1_010WifiStatusERKNS6_22StaRoamingCapabilitiesEEEE
_ZN7android8hardware4wifi4V1_216BpHwWifiStaIface22installApfPacketFilterEjRKNS0_8hidl_vecIhEENSt3__18functionIFvRKNS1_4V1_010WifiStatusEEEE
_ZN7android8hardware4wifi4V1_216BpHwWifiStaIface23readApfPacketFilterDataENSt3__18functionIFvRKNS1_4V1_010WifiStatusERKNS0_8hidl_vecIhEEEEE
_ZN7android8hardware4wifi4V1_216BpHwWifiStaIface26getValidFrequenciesForBandENS1_4V1_08WifiBandENSt3__18functionIFvRKNS4_10WifiStatusERKNS0_8hidl_vecIjEEEEE
_ZN7android8hardware4wifi4V1_216BpHwWifiStaIface27stopSendingKeepAlivePacketsEjNSt3__18functionIFvRKNS1_4V1_010WifiStatusEEEE
_ZN7android8hardware4wifi4V1_216BpHwWifiStaIface28startSendingKeepAlivePacketsEjRKNS0_8hidl_vecIhEEtRKNS0_10hidl_arrayIhLj6EJEEESB_jNSt3__18functionIFvRKNS1_4V1_010WifiStatusEEEE
_ZN7android8hardware4wifi4V1_216BpHwWifiStaIface29_hidl_readApfPacketFilterDataEPNS0_10IInterfaceEPNS0_7details16HidlInstrumentorENSt3__18functionIFvRKNS1_4V1_010WifiStatusERKNS0_8hidl_vecIhEEEEE
_ZN7android8hardware4wifi4V1_216BpHwWifiStaIface29getBackgroundScanCapabilitiesENSt3__18functionIFvRKNS1_4V1_010WifiStatusERKNS6_29StaBackgroundScanCapabilitiesEEEE
_ZN7android8hardware4wifi4V1_216BpHwWifiStaIface30enableLinkLayerStatsCollectionEbNSt3__18functionIFvRKNS1_4V1_010WifiStatusEEEE
_ZN7android8hardware4wifi4V1_216BpHwWifiStaIface30getApfPacketFilterCapabilitiesENSt3__18functionIFvRKNS1_4V1_010WifiStatusERKNS6_30StaApfPacketFilterCapabilitiesEEEE
_ZN7android8hardware4wifi4V1_216BpHwWifiStaIface30startDebugPacketFateMonitoringENSt3__18functionIFvRKNS1_4V1_010WifiStatusEEEE
_ZN7android8hardware4wifi4V1_216BpHwWifiStaIface31disableLinkLayerStatsCollectionENSt3__18functionIFvRKNS1_4V1_010WifiStatusEEEE
_ZN7android8hardware4wifi4V1_216BpHwWifiStaIface4pingEv
_ZN7android8hardware4wifi4V1_216BpHwWifiStaIface5debugERKNS0_11hidl_handleERKNS0_8hidl_vecINS0_11hidl_stringEEE
_ZN7android8hardware4wifi4V1_216BpHwWifiStaIface7getNameENSt3__18functionIFvRKNS1_4V1_010WifiStatusERKNS0_11hidl_stringEEEE
_ZN7android8hardware4wifi4V1_216BpHwWifiStaIface7getTypeENSt3__18functionIFvRKNS1_4V1_010WifiStatusENS6_9IfaceTypeEEEE
_ZN7android8hardware4wifi4V1_216BpHwWifiStaIfaceC1ERKNS_2spINS0_7IBinderEEE
_ZN7android8hardware4wifi4V1_216BpHwWifiStaIfaceC2ERKNS_2spINS0_7IBinderEEE
_ZN7android8hardware4wifi4V1_221writeEmbeddedToParcelERKNS2_21NanDataPathConfirmIndEPNS0_6ParcelEjj
_ZN7android8hardware4wifi4V1_221writeEmbeddedToParcelERKNS2_22IWifiChipEventCallback13RadioModeInfoEPNS0_6ParcelEjj
_ZN7android8hardware4wifi4V1_221writeEmbeddedToParcelERKNS2_22IWifiChipEventCallback9IfaceInfoEPNS0_6ParcelEjj
_ZN7android8hardware4wifi4V1_221writeEmbeddedToParcelERKNS2_28NanDataPathScheduleUpdateIndEPNS0_6ParcelEjj
_ZN7android8hardware4wifi4V1_222IWifiChipEventCallback10descriptorE
_ZN7android8hardware4wifi4V1_222IWifiChipEventCallback10getServiceERKNSt3__112basic_stringIcNS4_11char_traitsIcEENS4_9allocatorIcEEEEb
_ZN7android8hardware4wifi4V1_222IWifiChipEventCallback11linkToDeathERKNS_2spINS0_20hidl_death_recipientEEEy
_ZN7android8hardware4wifi4V1_222IWifiChipEventCallback12getDebugInfoENSt3__18functionIFvRKNS_4hidl4base4V1_09DebugInfoEEEE
_ZN7android8hardware4wifi4V1_222IWifiChipEventCallback12getHashChainENSt3__18functionIFvRKNS0_8hidl_vecINS0_10hidl_arrayIhLj32EJEEEEEEEE
_ZN7android8hardware4wifi4V1_222IWifiChipEventCallback13tryGetServiceERKNSt3__112basic_stringIcNS4_11char_traitsIcEENS4_9allocatorIcEEEEb
_ZN7android8hardware4wifi4V1_222IWifiChipEventCallback13unlinkToDeathERKNS_2spINS0_20hidl_death_recipientEEE
_ZN7android8hardware4wifi4V1_222IWifiChipEventCallback14interfaceChainENSt3__18functionIFvRKNS0_8hidl_vecINS0_11hidl_stringEEEEEE
_ZN7android8hardware4wifi4V1_222IWifiChipEventCallback17registerAsServiceERKNSt3__112basic_stringIcNS4_11char_traitsIcEENS4_9allocatorIcEEEE
_ZN7android8hardware4wifi4V1_222IWifiChipEventCallback19interfaceDescriptorENSt3__18functionIFvRKNS0_11hidl_stringEEEE
_ZN7android8hardware4wifi4V1_222IWifiChipEventCallback21notifySyspropsChangedEv
_ZN7android8hardware4wifi4V1_222IWifiChipEventCallback21setHALInstrumentationEv
_ZN7android8hardware4wifi4V1_222IWifiChipEventCallback24registerForNotificationsERKNSt3__112basic_stringIcNS4_11char_traitsIcEENS4_9allocatorIcEEEERKNS_2spINS_4hidl7manager4V1_020IServiceNotificationEEE
_ZN7android8hardware4wifi4V1_222IWifiChipEventCallback4pingEv
_ZN7android8hardware4wifi4V1_222IWifiChipEventCallback5debugERKNS0_11hidl_handleERKNS0_8hidl_vecINS0_11hidl_stringEEE
_ZN7android8hardware4wifi4V1_222IWifiChipEventCallback8castFromERKNS_2spINS1_4V1_022IWifiChipEventCallbackEEEb
_ZN7android8hardware4wifi4V1_222IWifiChipEventCallback8castFromERKNS_2spINS_4hidl4base4V1_05IBaseEEEb
_ZN7android8hardware4wifi4V1_222IWifiChipEventCallback8castFromERKNS_2spIS3_EEb
_ZN7android8hardware4wifi4V1_222readEmbeddedFromParcelERKNS2_21NanDataPathConfirmIndERKNS0_6ParcelEjj
_ZN7android8hardware4wifi4V1_222readEmbeddedFromParcelERKNS2_22IWifiChipEventCallback13RadioModeInfoERKNS0_6ParcelEjj
_ZN7android8hardware4wifi4V1_222readEmbeddedFromParcelERKNS2_22IWifiChipEventCallback9IfaceInfoERKNS0_6ParcelEjj
_ZN7android8hardware4wifi4V1_222readEmbeddedFromParcelERKNS2_28NanDataPathScheduleUpdateIndERKNS0_6ParcelEjj
_ZN7android8hardware4wifi4V1_223BsWifiChipEventCallback13addOnewayTaskENSt3__18functionIFvvEEE
_ZN7android8hardware4wifi4V1_223BsWifiChipEventCallbackC1ENS_2spINS2_22IWifiChipEventCallbackEEE
_ZN7android8hardware4wifi4V1_223BsWifiChipEventCallbackC2ENS_2spINS2_22IWifiChipEventCallbackEEE
_ZN7android8hardware4wifi4V1_225BnHwWifiChipEventCallback10onTransactEjRKNS0_6ParcelEPS4_jNSt3__18functionIFvRS4_EEE
_ZN7android8hardware4wifi4V1_225BnHwWifiChipEventCallback12getDebugInfoENSt3__18functionIFvRKNS_4hidl4base4V1_09DebugInfoEEEE
_ZN7android8hardware4wifi4V1_225BnHwWifiChipEventCallback23_hidl_onRadioModeChangeEPNS_4hidl4base4V1_08BnHwBaseERKNS0_6ParcelEPS9_NSt3__18functionIFvRS9_EEE
_ZN7android8hardware4wifi4V1_225BnHwWifiChipEventCallback4pingEv
_ZN7android8hardware4wifi4V1_225BnHwWifiChipEventCallbackC1ERKNS_2spINS2_22IWifiChipEventCallbackEEE
_ZN7android8hardware4wifi4V1_225BnHwWifiChipEventCallbackC2ERKNS_2spINS2_22IWifiChipEventCallbackEEE
_ZN7android8hardware4wifi4V1_225BnHwWifiChipEventCallbackD0Ev
_ZN7android8hardware4wifi4V1_225BnHwWifiChipEventCallbackD1Ev
_ZN7android8hardware4wifi4V1_225BnHwWifiChipEventCallbackD2Ev
_ZN7android8hardware4wifi4V1_225BpHwWifiChipEventCallback11linkToDeathERKNS_2spINS0_20hidl_death_recipientEEEy
_ZN7android8hardware4wifi4V1_225BpHwWifiChipEventCallback12getDebugInfoENSt3__18functionIFvRKNS_4hidl4base4V1_09DebugInfoEEEE
_ZN7android8hardware4wifi4V1_225BpHwWifiChipEventCallback12getHashChainENSt3__18functionIFvRKNS0_8hidl_vecINS0_10hidl_arrayIhLj32EJEEEEEEEE
_ZN7android8hardware4wifi4V1_225BpHwWifiChipEventCallback12onIfaceAddedENS1_4V1_09IfaceTypeERKNS0_11hidl_stringE
_ZN7android8hardware4wifi4V1_225BpHwWifiChipEventCallback13unlinkToDeathERKNS_2spINS0_20hidl_death_recipientEEE
_ZN7android8hardware4wifi4V1_225BpHwWifiChipEventCallback14interfaceChainENSt3__18functionIFvRKNS0_8hidl_vecINS0_11hidl_stringEEEEEE
_ZN7android8hardware4wifi4V1_225BpHwWifiChipEventCallback14onIfaceRemovedENS1_4V1_09IfaceTypeERKNS0_11hidl_stringE
_ZN7android8hardware4wifi4V1_225BpHwWifiChipEventCallback17onDebugErrorAlertEiRKNS0_8hidl_vecIhEE
_ZN7android8hardware4wifi4V1_225BpHwWifiChipEventCallback17onRadioModeChangeERKNS0_8hidl_vecINS2_22IWifiChipEventCallback13RadioModeInfoEEE
_ZN7android8hardware4wifi4V1_225BpHwWifiChipEventCallback18onChipReconfiguredEj
_ZN7android8hardware4wifi4V1_225BpHwWifiChipEventCallback19interfaceDescriptorENSt3__18functionIFvRKNS0_11hidl_stringEEEE
_ZN7android8hardware4wifi4V1_225BpHwWifiChipEventCallback21notifySyspropsChangedEv
_ZN7android8hardware4wifi4V1_225BpHwWifiChipEventCallback21setHALInstrumentationEv
_ZN7android8hardware4wifi4V1_225BpHwWifiChipEventCallback23_hidl_onRadioModeChangeEPNS0_10IInterfaceEPNS0_7details16HidlInstrumentorERKNS0_8hidl_vecINS2_22IWifiChipEventCallback13RadioModeInfoEEE
_ZN7android8hardware4wifi4V1_225BpHwWifiChipEventCallback24onChipReconfigureFailureERKNS1_4V1_010WifiStatusE
_ZN7android8hardware4wifi4V1_225BpHwWifiChipEventCallback30onDebugRingBufferDataAvailableERKNS1_4V1_025WifiDebugRingBufferStatusERKNS0_8hidl_vecIhEE
_ZN7android8hardware4wifi4V1_225BpHwWifiChipEventCallback4pingEv
_ZN7android8hardware4wifi4V1_225BpHwWifiChipEventCallback5debugERKNS0_11hidl_handleERKNS0_8hidl_vecINS0_11hidl_stringEEE
_ZN7android8hardware4wifi4V1_225BpHwWifiChipEventCallbackC1ERKNS_2spINS0_7IBinderEEE
_ZN7android8hardware4wifi4V1_225BpHwWifiChipEventCallbackC2ERKNS_2spINS0_7IBinderEEE
_ZN7android8hardware4wifi4V1_226IWifiNanIfaceEventCallback10descriptorE
_ZN7android8hardware4wifi4V1_226IWifiNanIfaceEventCallback10getServiceERKNSt3__112basic_stringIcNS4_11char_traitsIcEENS4_9allocatorIcEEEEb
_ZN7android8hardware4wifi4V1_226IWifiNanIfaceEventCallback11linkToDeathERKNS_2spINS0_20hidl_death_recipientEEEy
_ZN7android8hardware4wifi4V1_226IWifiNanIfaceEventCallback12getDebugInfoENSt3__18functionIFvRKNS_4hidl4base4V1_09DebugInfoEEEE
_ZN7android8hardware4wifi4V1_226IWifiNanIfaceEventCallback12getHashChainENSt3__18functionIFvRKNS0_8hidl_vecINS0_10hidl_arrayIhLj32EJEEEEEEEE
_ZN7android8hardware4wifi4V1_226IWifiNanIfaceEventCallback13tryGetServiceERKNSt3__112basic_stringIcNS4_11char_traitsIcEENS4_9allocatorIcEEEEb
_ZN7android8hardware4wifi4V1_226IWifiNanIfaceEventCallback13unlinkToDeathERKNS_2spINS0_20hidl_death_recipientEEE
_ZN7android8hardware4wifi4V1_226IWifiNanIfaceEventCallback14interfaceChainENSt3__18functionIFvRKNS0_8hidl_vecINS0_11hidl_stringEEEEEE
_ZN7android8hardware4wifi4V1_226IWifiNanIfaceEventCallback17registerAsServiceERKNSt3__112basic_stringIcNS4_11char_traitsIcEENS4_9allocatorIcEEEE
_ZN7android8hardware4wifi4V1_226IWifiNanIfaceEventCallback19interfaceDescriptorENSt3__18functionIFvRKNS0_11hidl_stringEEEE
_ZN7android8hardware4wifi4V1_226IWifiNanIfaceEventCallback21notifySyspropsChangedEv
_ZN7android8hardware4wifi4V1_226IWifiNanIfaceEventCallback21setHALInstrumentationEv
_ZN7android8hardware4wifi4V1_226IWifiNanIfaceEventCallback24registerForNotificationsERKNSt3__112basic_stringIcNS4_11char_traitsIcEENS4_9allocatorIcEEEERKNS_2spINS_4hidl7manager4V1_020IServiceNotificationEEE
_ZN7android8hardware4wifi4V1_226IWifiNanIfaceEventCallback4pingEv
_ZN7android8hardware4wifi4V1_226IWifiNanIfaceEventCallback5debugERKNS0_11hidl_handleERKNS0_8hidl_vecINS0_11hidl_stringEEE
_ZN7android8hardware4wifi4V1_226IWifiNanIfaceEventCallback8castFromERKNS_2spINS1_4V1_026IWifiNanIfaceEventCallbackEEEb
_ZN7android8hardware4wifi4V1_226IWifiNanIfaceEventCallback8castFromERKNS_2spINS_4hidl4base4V1_05IBaseEEEb
_ZN7android8hardware4wifi4V1_226IWifiNanIfaceEventCallback8castFromERKNS_2spIS3_EEb
_ZN7android8hardware4wifi4V1_227BsWifiNanIfaceEventCallback13addOnewayTaskENSt3__18functionIFvvEEE
_ZN7android8hardware4wifi4V1_227BsWifiNanIfaceEventCallbackC1ENS_2spINS2_26IWifiNanIfaceEventCallbackEEE
_ZN7android8hardware4wifi4V1_227BsWifiNanIfaceEventCallbackC2ENS_2spINS2_26IWifiNanIfaceEventCallbackEEE
_ZN7android8hardware4wifi4V1_229BnHwWifiNanIfaceEventCallback10onTransactEjRKNS0_6ParcelEPS4_jNSt3__18functionIFvRS4_EEE
_ZN7android8hardware4wifi4V1_229BnHwWifiNanIfaceEventCallback12getDebugInfoENSt3__18functionIFvRKNS_4hidl4base4V1_09DebugInfoEEEE
_ZN7android8hardware4wifi4V1_229BnHwWifiNanIfaceEventCallback30_hidl_eventDataPathConfirm_1_2EPNS_4hidl4base4V1_08BnHwBaseERKNS0_6ParcelEPS9_NSt3__18functionIFvRS9_EEE
_ZN7android8hardware4wifi4V1_229BnHwWifiNanIfaceEventCallback33_hidl_eventDataPathScheduleUpdateEPNS_4hidl4base4V1_08BnHwBaseERKNS0_6ParcelEPS9_NSt3__18functionIFvRS9_EEE
_ZN7android8hardware4wifi4V1_229BnHwWifiNanIfaceEventCallback4pingEv
_ZN7android8hardware4wifi4V1_229BnHwWifiNanIfaceEventCallbackC1ERKNS_2spINS2_26IWifiNanIfaceEventCallbackEEE
_ZN7android8hardware4wifi4V1_229BnHwWifiNanIfaceEventCallbackC2ERKNS_2spINS2_26IWifiNanIfaceEventCallbackEEE
_ZN7android8hardware4wifi4V1_229BnHwWifiNanIfaceEventCallbackD0Ev
_ZN7android8hardware4wifi4V1_229BnHwWifiNanIfaceEventCallbackD1Ev
_ZN7android8hardware4wifi4V1_229BnHwWifiNanIfaceEventCallbackD2Ev
_ZN7android8hardware4wifi4V1_229BpHwWifiNanIfaceEventCallback10eventMatchERKNS1_4V1_011NanMatchIndE
_ZN7android8hardware4wifi4V1_229BpHwWifiNanIfaceEventCallback11linkToDeathERKNS_2spINS0_20hidl_death_recipientEEEy
_ZN7android8hardware4wifi4V1_229BpHwWifiNanIfaceEventCallback12getDebugInfoENSt3__18functionIFvRKNS_4hidl4base4V1_09DebugInfoEEEE
_ZN7android8hardware4wifi4V1_229BpHwWifiNanIfaceEventCallback12getHashChainENSt3__18functionIFvRKNS0_8hidl_vecINS0_10hidl_arrayIhLj32EJEEEEEEEE
_ZN7android8hardware4wifi4V1_229BpHwWifiNanIfaceEventCallback13eventDisabledERKNS1_4V1_013WifiNanStatusE
_ZN7android8hardware4wifi4V1_229BpHwWifiNanIfaceEventCallback13unlinkToDeathERKNS_2spINS0_20hidl_death_recipientEEE
_ZN7android8hardware4wifi4V1_229BpHwWifiNanIfaceEventCallback14interfaceChainENSt3__18functionIFvRKNS0_8hidl_vecINS0_11hidl_stringEEEEEE
_ZN7android8hardware4wifi4V1_229BpHwWifiNanIfaceEventCallback17eventClusterEventERKNS1_4V1_018NanClusterEventIndE
_ZN7android8hardware4wifi4V1_229BpHwWifiNanIfaceEventCallback17eventMatchExpiredEhj
_ZN7android8hardware4wifi4V1_229BpHwWifiNanIfaceEventCallback19interfaceDescriptorENSt3__18functionIFvRKNS0_11hidl_stringEEEE
_ZN7android8hardware4wifi4V1_229BpHwWifiNanIfaceEventCallback20eventDataPathConfirmERKNS1_4V1_021NanDataPathConfirmIndE
_ZN7android8hardware4wifi4V1_229BpHwWifiNanIfaceEventCallback20eventDataPathRequestERKNS1_4V1_021NanDataPathRequestIndE
_ZN7android8hardware4wifi4V1_229BpHwWifiNanIfaceEventCallback20notifyConfigResponseEtRKNS1_4V1_013WifiNanStatusE
_ZN7android8hardware4wifi4V1_229BpHwWifiNanIfaceEventCallback20notifyEnableResponseEtRKNS1_4V1_013WifiNanStatusE
_ZN7android8hardware4wifi4V1_229BpHwWifiNanIfaceEventCallback21eventFollowupReceivedERKNS1_4V1_022NanFollowupReceivedIndE
_ZN7android8hardware4wifi4V1_229BpHwWifiNanIfaceEventCallback21eventTransmitFollowupEtRKNS1_4V1_013WifiNanStatusE
_ZN7android8hardware4wifi4V1_229BpHwWifiNanIfaceEventCallback21notifyDisableResponseEtRKNS1_4V1_013WifiNanStatusE
_ZN7android8hardware4wifi4V1_229BpHwWifiNanIfaceEventCallback21notifySyspropsChangedEv
_ZN7android8hardware4wifi4V1_229BpHwWifiNanIfaceEventCallback21setHALInstrumentationEv
_ZN7android8hardware4wifi4V1_229BpHwWifiNanIfaceEventCallback22eventPublishTerminatedEhRKNS1_4V1_013WifiNanStatusE
_ZN7android8hardware4wifi4V1_229BpHwWifiNanIfaceEventCallback23eventDataPathTerminatedEj
_ZN7android8hardware4wifi4V1_229BpHwWifiNanIfaceEventCallback24eventDataPathConfirm_1_2ERKNS2_21NanDataPathConfirmIndE
_ZN7android8hardware4wifi4V1_229BpHwWifiNanIfaceEventCallback24eventSubscribeTerminatedEhRKNS1_4V1_013WifiNanStatusE
_ZN7android8hardware4wifi4V1_229BpHwWifiNanIfaceEventCallback25notifyStopPublishResponseEtRKNS1_4V1_013WifiNanStatusE
_ZN7android8hardware4wifi4V1_229BpHwWifiNanIfaceEventCallback26notifyCapabilitiesResponseEtRKNS1_4V1_013WifiNanStatusERKNS4_15NanCapabilitiesE
_ZN7android8hardware4wifi4V1_229BpHwWifiNanIfaceEventCallback26notifyStartPublishResponseEtRKNS1_4V1_013WifiNanStatusEh
_ZN7android8hardware4wifi4V1_229BpHwWifiNanIfaceEventCallback27eventDataPathScheduleUpdateERKNS2_28NanDataPathScheduleUpdateIndE
_ZN7android8hardware4wifi4V1_229BpHwWifiNanIfaceEventCallback27notifyStopSubscribeResponseEtRKNS1_4V1_013WifiNanStatusE
_ZN7android8hardware4wifi4V1_229BpHwWifiNanIfaceEventCallback28notifyStartSubscribeResponseEtRKNS1_4V1_013WifiNanStatusEh
_ZN7android8hardware4wifi4V1_229BpHwWifiNanIfaceEventCallback30_hidl_eventDataPathConfirm_1_2EPNS0_10IInterfaceEPNS0_7details16HidlInstrumentorERKNS2_21NanDataPathConfirmIndE
_ZN7android8hardware4wifi4V1_229BpHwWifiNanIfaceEventCallback30notifyInitiateDataPathResponseEtRKNS1_4V1_013WifiNanStatusEj
_ZN7android8hardware4wifi4V1_229BpHwWifiNanIfaceEventCallback30notifyTransmitFollowupResponseEtRKNS1_4V1_013WifiNanStatusE
_ZN7android8hardware4wifi4V1_229BpHwWifiNanIfaceEventCallback31notifyTerminateDataPathResponseEtRKNS1_4V1_013WifiNanStatusE
_ZN7android8hardware4wifi4V1_229BpHwWifiNanIfaceEventCallback33_hidl_eventDataPathScheduleUpdateEPNS0_10IInterfaceEPNS0_7details16HidlInstrumentorERKNS2_28NanDataPathScheduleUpdateIndE
_ZN7android8hardware4wifi4V1_229BpHwWifiNanIfaceEventCallback33notifyCreateDataInterfaceResponseEtRKNS1_4V1_013WifiNanStatusE
_ZN7android8hardware4wifi4V1_229BpHwWifiNanIfaceEventCallback33notifyDeleteDataInterfaceResponseEtRKNS1_4V1_013WifiNanStatusE
_ZN7android8hardware4wifi4V1_229BpHwWifiNanIfaceEventCallback41notifyRespondToDataPathIndicationResponseEtRKNS1_4V1_013WifiNanStatusE
_ZN7android8hardware4wifi4V1_229BpHwWifiNanIfaceEventCallback4pingEv
_ZN7android8hardware4wifi4V1_229BpHwWifiNanIfaceEventCallback5debugERKNS0_11hidl_handleERKNS0_8hidl_vecINS0_11hidl_stringEEE
_ZN7android8hardware4wifi4V1_229BpHwWifiNanIfaceEventCallbackC1ERKNS_2spINS0_7IBinderEEE
_ZN7android8hardware4wifi4V1_229BpHwWifiNanIfaceEventCallbackC2ERKNS_2spINS0_7IBinderEEE
_ZN7android8hardware4wifi4V1_25IWifi10descriptorE
_ZN7android8hardware4wifi4V1_25IWifi10getServiceERKNSt3__112basic_stringIcNS4_11char_traitsIcEENS4_9allocatorIcEEEEb
_ZN7android8hardware4wifi4V1_25IWifi11linkToDeathERKNS_2spINS0_20hidl_death_recipientEEEy
_ZN7android8hardware4wifi4V1_25IWifi12getDebugInfoENSt3__18functionIFvRKNS_4hidl4base4V1_09DebugInfoEEEE
_ZN7android8hardware4wifi4V1_25IWifi12getHashChainENSt3__18functionIFvRKNS0_8hidl_vecINS0_10hidl_arrayIhLj32EJEEEEEEEE
_ZN7android8hardware4wifi4V1_25IWifi13tryGetServiceERKNSt3__112basic_stringIcNS4_11char_traitsIcEENS4_9allocatorIcEEEEb
_ZN7android8hardware4wifi4V1_25IWifi13unlinkToDeathERKNS_2spINS0_20hidl_death_recipientEEE
_ZN7android8hardware4wifi4V1_25IWifi14interfaceChainENSt3__18functionIFvRKNS0_8hidl_vecINS0_11hidl_stringEEEEEE
_ZN7android8hardware4wifi4V1_25IWifi17registerAsServiceERKNSt3__112basic_stringIcNS4_11char_traitsIcEENS4_9allocatorIcEEEE
_ZN7android8hardware4wifi4V1_25IWifi19interfaceDescriptorENSt3__18functionIFvRKNS0_11hidl_stringEEEE
_ZN7android8hardware4wifi4V1_25IWifi21notifySyspropsChangedEv
_ZN7android8hardware4wifi4V1_25IWifi21setHALInstrumentationEv
_ZN7android8hardware4wifi4V1_25IWifi24registerForNotificationsERKNSt3__112basic_stringIcNS4_11char_traitsIcEENS4_9allocatorIcEEEERKNS_2spINS_4hidl7manager4V1_020IServiceNotificationEEE
_ZN7android8hardware4wifi4V1_25IWifi4pingEv
_ZN7android8hardware4wifi4V1_25IWifi5debugERKNS0_11hidl_handleERKNS0_8hidl_vecINS0_11hidl_stringEEE
_ZN7android8hardware4wifi4V1_25IWifi8castFromERKNS_2spINS1_4V1_05IWifiEEEb
_ZN7android8hardware4wifi4V1_25IWifi8castFromERKNS_2spINS1_4V1_15IWifiEEEb
_ZN7android8hardware4wifi4V1_25IWifi8castFromERKNS_2spINS_4hidl4base4V1_05IBaseEEEb
_ZN7android8hardware4wifi4V1_25IWifi8castFromERKNS_2spIS3_EEb
_ZN7android8hardware4wifi4V1_26BsWifi13addOnewayTaskENSt3__18functionIFvvEEE
_ZN7android8hardware4wifi4V1_26BsWifiC1ENS_2spINS2_5IWifiEEE
_ZN7android8hardware4wifi4V1_26BsWifiC2ENS_2spINS2_5IWifiEEE
_ZN7android8hardware4wifi4V1_28BnHwWifi10onTransactEjRKNS0_6ParcelEPS4_jNSt3__18functionIFvRS4_EEE
_ZN7android8hardware4wifi4V1_28BnHwWifi12getDebugInfoENSt3__18functionIFvRKNS_4hidl4base4V1_09DebugInfoEEEE
_ZN7android8hardware4wifi4V1_28BnHwWifi4pingEv
_ZN7android8hardware4wifi4V1_28BnHwWifiC1ERKNS_2spINS2_5IWifiEEE
_ZN7android8hardware4wifi4V1_28BnHwWifiC2ERKNS_2spINS2_5IWifiEEE
_ZN7android8hardware4wifi4V1_28BnHwWifiD0Ev
_ZN7android8hardware4wifi4V1_28BnHwWifiD1Ev
_ZN7android8hardware4wifi4V1_28BnHwWifiD2Ev
_ZN7android8hardware4wifi4V1_28BpHwWifi10getChipIdsENSt3__18functionIFvRKNS1_4V1_010WifiStatusERKNS0_8hidl_vecIjEEEEE
_ZN7android8hardware4wifi4V1_28BpHwWifi11linkToDeathERKNS_2spINS0_20hidl_death_recipientEEEy
_ZN7android8hardware4wifi4V1_28BpHwWifi12getDebugInfoENSt3__18functionIFvRKNS_4hidl4base4V1_09DebugInfoEEEE
_ZN7android8hardware4wifi4V1_28BpHwWifi12getHashChainENSt3__18functionIFvRKNS0_8hidl_vecINS0_10hidl_arrayIhLj32EJEEEEEEEE
_ZN7android8hardware4wifi4V1_28BpHwWifi13unlinkToDeathERKNS_2spINS0_20hidl_death_recipientEEE
_ZN7android8hardware4wifi4V1_28BpHwWifi14interfaceChainENSt3__18functionIFvRKNS0_8hidl_vecINS0_11hidl_stringEEEEEE
_ZN7android8hardware4wifi4V1_28BpHwWifi19interfaceDescriptorENSt3__18functionIFvRKNS0_11hidl_stringEEEE
_ZN7android8hardware4wifi4V1_28BpHwWifi21notifySyspropsChangedEv
_ZN7android8hardware4wifi4V1_28BpHwWifi21registerEventCallbackERKNS_2spINS1_4V1_018IWifiEventCallbackEEENSt3__18functionIFvRKNS5_10WifiStatusEEEE
_ZN7android8hardware4wifi4V1_28BpHwWifi21setHALInstrumentationEv
_ZN7android8hardware4wifi4V1_28BpHwWifi4pingEv
_ZN7android8hardware4wifi4V1_28BpHwWifi4stopENSt3__18functionIFvRKNS1_4V1_010WifiStatusEEEE
_ZN7android8hardware4wifi4V1_28BpHwWifi5debugERKNS0_11hidl_handleERKNS0_8hidl_vecINS0_11hidl_stringEEE
_ZN7android8hardware4wifi4V1_28BpHwWifi5startENSt3__18functionIFvRKNS1_4V1_010WifiStatusEEEE
_ZN7android8hardware4wifi4V1_28BpHwWifi7getChipEjNSt3__18functionIFvRKNS1_4V1_010WifiStatusERKNS_2spINS6_9IWifiChipEEEEEE
_ZN7android8hardware4wifi4V1_28BpHwWifi9isStartedEv
_ZN7android8hardware4wifi4V1_28BpHwWifiC1ERKNS_2spINS0_7IBinderEEE
_ZN7android8hardware4wifi4V1_28BpHwWifiC2ERKNS_2spINS0_7IBinderEEE
_ZN7android8hardware4wifi4V1_29IWifiChip10descriptorE
_ZN7android8hardware4wifi4V1_29IWifiChip10getServiceERKNSt3__112basic_stringIcNS4_11char_traitsIcEENS4_9allocatorIcEEEEb
_ZN7android8hardware4wifi4V1_29IWifiChip11linkToDeathERKNS_2spINS0_20hidl_death_recipientEEEy
_ZN7android8hardware4wifi4V1_29IWifiChip12getDebugInfoENSt3__18functionIFvRKNS_4hidl4base4V1_09DebugInfoEEEE
_ZN7android8hardware4wifi4V1_29IWifiChip12getHashChainENSt3__18functionIFvRKNS0_8hidl_vecINS0_10hidl_arrayIhLj32EJEEEEEEEE
_ZN7android8hardware4wifi4V1_29IWifiChip13tryGetServiceERKNSt3__112basic_stringIcNS4_11char_traitsIcEENS4_9allocatorIcEEEEb
_ZN7android8hardware4wifi4V1_29IWifiChip13unlinkToDeathERKNS_2spINS0_20hidl_death_recipientEEE
_ZN7android8hardware4wifi4V1_29IWifiChip14interfaceChainENSt3__18functionIFvRKNS0_8hidl_vecINS0_11hidl_stringEEEEEE
_ZN7android8hardware4wifi4V1_29IWifiChip17registerAsServiceERKNSt3__112basic_stringIcNS4_11char_traitsIcEENS4_9allocatorIcEEEE
_ZN7android8hardware4wifi4V1_29IWifiChip19interfaceDescriptorENSt3__18functionIFvRKNS0_11hidl_stringEEEE
_ZN7android8hardware4wifi4V1_29IWifiChip21notifySyspropsChangedEv
_ZN7android8hardware4wifi4V1_29IWifiChip21setHALInstrumentationEv
_ZN7android8hardware4wifi4V1_29IWifiChip24registerForNotificationsERKNSt3__112basic_stringIcNS4_11char_traitsIcEENS4_9allocatorIcEEEERKNS_2spINS_4hidl7manager4V1_020IServiceNotificationEEE
_ZN7android8hardware4wifi4V1_29IWifiChip4pingEv
_ZN7android8hardware4wifi4V1_29IWifiChip5debugERKNS0_11hidl_handleERKNS0_8hidl_vecINS0_11hidl_stringEEE
_ZN7android8hardware4wifi4V1_29IWifiChip8castFromERKNS_2spINS1_4V1_09IWifiChipEEEb
_ZN7android8hardware4wifi4V1_29IWifiChip8castFromERKNS_2spINS1_4V1_19IWifiChipEEEb
_ZN7android8hardware4wifi4V1_29IWifiChip8castFromERKNS_2spINS_4hidl4base4V1_05IBaseEEEb
_ZN7android8hardware4wifi4V1_29IWifiChip8castFromERKNS_2spIS3_EEb
_ZTCN7android8hardware4wifi4V1_212BnHwWifiChipE0_NS0_7IBinderE
_ZTCN7android8hardware4wifi4V1_212BnHwWifiChipE0_NS0_9BHwBinderE
_ZTCN7android8hardware4wifi4V1_212BnHwWifiChipE0_NS_4hidl4base4V1_08BnHwBaseE
_ZTCN7android8hardware4wifi4V1_212BpHwWifiChipE0_NS0_11BpInterfaceINS2_9IWifiChipEEE
_ZTCN7android8hardware4wifi4V1_212BpHwWifiChipE0_NS1_4V1_09IWifiChipE
_ZTCN7android8hardware4wifi4V1_212BpHwWifiChipE0_NS1_4V1_19IWifiChipE
_ZTCN7android8hardware4wifi4V1_212BpHwWifiChipE0_NS2_9IWifiChipE
_ZTCN7android8hardware4wifi4V1_212BpHwWifiChipE0_NS_4hidl4base4V1_05IBaseE
_ZTCN7android8hardware4wifi4V1_212BpHwWifiChipE4_NS0_10IInterfaceE
_ZTCN7android8hardware4wifi4V1_212BpHwWifiChipE8_NS0_11BpHwRefBaseE
_ZTCN7android8hardware4wifi4V1_213IWifiNanIfaceE0_NS1_4V1_010IWifiIfaceE
_ZTCN7android8hardware4wifi4V1_213IWifiNanIfaceE0_NS1_4V1_013IWifiNanIfaceE
_ZTCN7android8hardware4wifi4V1_213IWifiNanIfaceE0_NS_4hidl4base4V1_05IBaseE
_ZTCN7android8hardware4wifi4V1_213IWifiStaIfaceE0_NS1_4V1_010IWifiIfaceE
_ZTCN7android8hardware4wifi4V1_213IWifiStaIfaceE0_NS1_4V1_013IWifiStaIfaceE
_ZTCN7android8hardware4wifi4V1_213IWifiStaIfaceE0_NS_4hidl4base4V1_05IBaseE
_ZTCN7android8hardware4wifi4V1_216BnHwWifiNanIfaceE0_NS0_7IBinderE
_ZTCN7android8hardware4wifi4V1_216BnHwWifiNanIfaceE0_NS0_9BHwBinderE
_ZTCN7android8hardware4wifi4V1_216BnHwWifiNanIfaceE0_NS_4hidl4base4V1_08BnHwBaseE
_ZTCN7android8hardware4wifi4V1_216BnHwWifiStaIfaceE0_NS0_7IBinderE
_ZTCN7android8hardware4wifi4V1_216BnHwWifiStaIfaceE0_NS0_9BHwBinderE
_ZTCN7android8hardware4wifi4V1_216BnHwWifiStaIfaceE0_NS_4hidl4base4V1_08BnHwBaseE
_ZTCN7android8hardware4wifi4V1_216BpHwWifiNanIfaceE0_NS0_11BpInterfaceINS2_13IWifiNanIfaceEEE
_ZTCN7android8hardware4wifi4V1_216BpHwWifiNanIfaceE0_NS1_4V1_010IWifiIfaceE
_ZTCN7android8hardware4wifi4V1_216BpHwWifiNanIfaceE0_NS1_4V1_013IWifiNanIfaceE
_ZTCN7android8hardware4wifi4V1_216BpHwWifiNanIfaceE0_NS2_13IWifiNanIfaceE
_ZTCN7android8hardware4wifi4V1_216BpHwWifiNanIfaceE0_NS_4hidl4base4V1_05IBaseE
_ZTCN7android8hardware4wifi4V1_216BpHwWifiNanIfaceE4_NS0_10IInterfaceE
_ZTCN7android8hardware4wifi4V1_216BpHwWifiNanIfaceE8_NS0_11BpHwRefBaseE
_ZTCN7android8hardware4wifi4V1_216BpHwWifiStaIfaceE0_NS0_11BpInterfaceINS2_13IWifiStaIfaceEEE
_ZTCN7android8hardware4wifi4V1_216BpHwWifiStaIfaceE0_NS1_4V1_010IWifiIfaceE
_ZTCN7android8hardware4wifi4V1_216BpHwWifiStaIfaceE0_NS1_4V1_013IWifiStaIfaceE
_ZTCN7android8hardware4wifi4V1_216BpHwWifiStaIfaceE0_NS2_13IWifiStaIfaceE
_ZTCN7android8hardware4wifi4V1_216BpHwWifiStaIfaceE0_NS_4hidl4base4V1_05IBaseE
_ZTCN7android8hardware4wifi4V1_216BpHwWifiStaIfaceE4_NS0_10IInterfaceE
_ZTCN7android8hardware4wifi4V1_216BpHwWifiStaIfaceE8_NS0_11BpHwRefBaseE
_ZTCN7android8hardware4wifi4V1_222IWifiChipEventCallbackE0_NS1_4V1_022IWifiChipEventCallbackE
_ZTCN7android8hardware4wifi4V1_222IWifiChipEventCallbackE0_NS_4hidl4base4V1_05IBaseE
_ZTCN7android8hardware4wifi4V1_225BnHwWifiChipEventCallbackE0_NS0_7IBinderE
_ZTCN7android8hardware4wifi4V1_225BnHwWifiChipEventCallbackE0_NS0_9BHwBinderE
_ZTCN7android8hardware4wifi4V1_225BnHwWifiChipEventCallbackE0_NS_4hidl4base4V1_08BnHwBaseE
_ZTCN7android8hardware4wifi4V1_225BpHwWifiChipEventCallbackE0_NS0_11BpInterfaceINS2_22IWifiChipEventCallbackEEE
_ZTCN7android8hardware4wifi4V1_225BpHwWifiChipEventCallbackE0_NS1_4V1_022IWifiChipEventCallbackE
_ZTCN7android8hardware4wifi4V1_225BpHwWifiChipEventCallbackE0_NS2_22IWifiChipEventCallbackE
_ZTCN7android8hardware4wifi4V1_225BpHwWifiChipEventCallbackE0_NS_4hidl4base4V1_05IBaseE
_ZTCN7android8hardware4wifi4V1_225BpHwWifiChipEventCallbackE4_NS0_10IInterfaceE
_ZTCN7android8hardware4wifi4V1_225BpHwWifiChipEventCallbackE8_NS0_11BpHwRefBaseE
_ZTCN7android8hardware4wifi4V1_226IWifiNanIfaceEventCallbackE0_NS1_4V1_026IWifiNanIfaceEventCallbackE
_ZTCN7android8hardware4wifi4V1_226IWifiNanIfaceEventCallbackE0_NS_4hidl4base4V1_05IBaseE
_ZTCN7android8hardware4wifi4V1_229BnHwWifiNanIfaceEventCallbackE0_NS0_7IBinderE
_ZTCN7android8hardware4wifi4V1_229BnHwWifiNanIfaceEventCallbackE0_NS0_9BHwBinderE
_ZTCN7android8hardware4wifi4V1_229BnHwWifiNanIfaceEventCallbackE0_NS_4hidl4base4V1_08BnHwBaseE
_ZTCN7android8hardware4wifi4V1_229BpHwWifiNanIfaceEventCallbackE0_NS0_11BpInterfaceINS2_26IWifiNanIfaceEventCallbackEEE
_ZTCN7android8hardware4wifi4V1_229BpHwWifiNanIfaceEventCallbackE0_NS1_4V1_026IWifiNanIfaceEventCallbackE
_ZTCN7android8hardware4wifi4V1_229BpHwWifiNanIfaceEventCallbackE0_NS2_26IWifiNanIfaceEventCallbackE
_ZTCN7android8hardware4wifi4V1_229BpHwWifiNanIfaceEventCallbackE0_NS_4hidl4base4V1_05IBaseE
_ZTCN7android8hardware4wifi4V1_229BpHwWifiNanIfaceEventCallbackE4_NS0_10IInterfaceE
_ZTCN7android8hardware4wifi4V1_229BpHwWifiNanIfaceEventCallbackE8_NS0_11BpHwRefBaseE
_ZTCN7android8hardware4wifi4V1_25IWifiE0_NS1_4V1_05IWifiE
_ZTCN7android8hardware4wifi4V1_25IWifiE0_NS1_4V1_15IWifiE
_ZTCN7android8hardware4wifi4V1_25IWifiE0_NS_4hidl4base4V1_05IBaseE
_ZTCN7android8hardware4wifi4V1_28BnHwWifiE0_NS0_7IBinderE
_ZTCN7android8hardware4wifi4V1_28BnHwWifiE0_NS0_9BHwBinderE
_ZTCN7android8hardware4wifi4V1_28BnHwWifiE0_NS_4hidl4base4V1_08BnHwBaseE
_ZTCN7android8hardware4wifi4V1_28BpHwWifiE0_NS0_11BpInterfaceINS2_5IWifiEEE
_ZTCN7android8hardware4wifi4V1_28BpHwWifiE0_NS1_4V1_05IWifiE
_ZTCN7android8hardware4wifi4V1_28BpHwWifiE0_NS1_4V1_15IWifiE
_ZTCN7android8hardware4wifi4V1_28BpHwWifiE0_NS2_5IWifiE
_ZTCN7android8hardware4wifi4V1_28BpHwWifiE0_NS_4hidl4base4V1_05IBaseE
_ZTCN7android8hardware4wifi4V1_28BpHwWifiE4_NS0_10IInterfaceE
_ZTCN7android8hardware4wifi4V1_28BpHwWifiE8_NS0_11BpHwRefBaseE
_ZTCN7android8hardware4wifi4V1_29IWifiChipE0_NS1_4V1_09IWifiChipE
_ZTCN7android8hardware4wifi4V1_29IWifiChipE0_NS1_4V1_19IWifiChipE
_ZTCN7android8hardware4wifi4V1_29IWifiChipE0_NS_4hidl4base4V1_05IBaseE
_ZTTN7android8hardware4wifi4V1_212BnHwWifiChipE
_ZTTN7android8hardware4wifi4V1_212BpHwWifiChipE
_ZTTN7android8hardware4wifi4V1_213IWifiNanIfaceE
_ZTTN7android8hardware4wifi4V1_213IWifiStaIfaceE
_ZTTN7android8hardware4wifi4V1_216BnHwWifiNanIfaceE
_ZTTN7android8hardware4wifi4V1_216BnHwWifiStaIfaceE
_ZTTN7android8hardware4wifi4V1_216BpHwWifiNanIfaceE
_ZTTN7android8hardware4wifi4V1_216BpHwWifiStaIfaceE
_ZTTN7android8hardware4wifi4V1_222IWifiChipEventCallbackE
_ZTTN7android8hardware4wifi4V1_225BnHwWifiChipEventCallbackE
_ZTTN7android8hardware4wifi4V1_225BpHwWifiChipEventCallbackE
_ZTTN7android8hardware4wifi4V1_226IWifiNanIfaceEventCallbackE
_ZTTN7android8hardware4wifi4V1_229BnHwWifiNanIfaceEventCallbackE
_ZTTN7android8hardware4wifi4V1_229BpHwWifiNanIfaceEventCallbackE
_ZTTN7android8hardware4wifi4V1_25IWifiE
_ZTTN7android8hardware4wifi4V1_28BnHwWifiE
_ZTTN7android8hardware4wifi4V1_28BpHwWifiE
_ZTTN7android8hardware4wifi4V1_29IWifiChipE
_ZTVN7android8hardware4wifi4V1_212BnHwWifiChipE
_ZTVN7android8hardware4wifi4V1_212BpHwWifiChipE
_ZTVN7android8hardware4wifi4V1_213IWifiNanIfaceE
_ZTVN7android8hardware4wifi4V1_213IWifiStaIfaceE
_ZTVN7android8hardware4wifi4V1_216BnHwWifiNanIfaceE
_ZTVN7android8hardware4wifi4V1_216BnHwWifiStaIfaceE
_ZTVN7android8hardware4wifi4V1_216BpHwWifiNanIfaceE
_ZTVN7android8hardware4wifi4V1_216BpHwWifiStaIfaceE
_ZTVN7android8hardware4wifi4V1_222IWifiChipEventCallbackE
_ZTVN7android8hardware4wifi4V1_225BnHwWifiChipEventCallbackE
_ZTVN7android8hardware4wifi4V1_225BpHwWifiChipEventCallbackE
_ZTVN7android8hardware4wifi4V1_226IWifiNanIfaceEventCallbackE
_ZTVN7android8hardware4wifi4V1_229BnHwWifiNanIfaceEventCallbackE
_ZTVN7android8hardware4wifi4V1_229BpHwWifiNanIfaceEventCallbackE
_ZTVN7android8hardware4wifi4V1_25IWifiE
_ZTVN7android8hardware4wifi4V1_28BnHwWifiE
_ZTVN7android8hardware4wifi4V1_28BpHwWifiE
_ZTVN7android8hardware4wifi4V1_29IWifiChipE
_ZThn20_N7android8hardware4wifi4V1_212BnHwWifiChipD0Ev
_ZThn20_N7android8hardware4wifi4V1_212BnHwWifiChipD1Ev
_ZThn20_N7android8hardware4wifi4V1_216BnHwWifiNanIfaceD0Ev
_ZThn20_N7android8hardware4wifi4V1_216BnHwWifiNanIfaceD1Ev
_ZThn20_N7android8hardware4wifi4V1_216BnHwWifiStaIfaceD0Ev
_ZThn20_N7android8hardware4wifi4V1_216BnHwWifiStaIfaceD1Ev
_ZThn20_N7android8hardware4wifi4V1_225BnHwWifiChipEventCallbackD0Ev
_ZThn20_N7android8hardware4wifi4V1_225BnHwWifiChipEventCallbackD1Ev
_ZThn20_N7android8hardware4wifi4V1_229BnHwWifiNanIfaceEventCallbackD0Ev
_ZThn20_N7android8hardware4wifi4V1_229BnHwWifiNanIfaceEventCallbackD1Ev
_ZThn20_N7android8hardware4wifi4V1_28BnHwWifiD0Ev
_ZThn20_N7android8hardware4wifi4V1_28BnHwWifiD1Ev
_ZTv0_n12_N7android8hardware4wifi4V1_212BnHwWifiChipD0Ev
_ZTv0_n12_N7android8hardware4wifi4V1_212BnHwWifiChipD1Ev
_ZTv0_n12_N7android8hardware4wifi4V1_216BnHwWifiNanIfaceD0Ev
_ZTv0_n12_N7android8hardware4wifi4V1_216BnHwWifiNanIfaceD1Ev
_ZTv0_n12_N7android8hardware4wifi4V1_216BnHwWifiStaIfaceD0Ev
_ZTv0_n12_N7android8hardware4wifi4V1_216BnHwWifiStaIfaceD1Ev
_ZTv0_n12_N7android8hardware4wifi4V1_225BnHwWifiChipEventCallbackD0Ev
_ZTv0_n12_N7android8hardware4wifi4V1_225BnHwWifiChipEventCallbackD1Ev
_ZTv0_n12_N7android8hardware4wifi4V1_229BnHwWifiNanIfaceEventCallbackD0Ev
_ZTv0_n12_N7android8hardware4wifi4V1_229BnHwWifiNanIfaceEventCallbackD1Ev
_ZTv0_n12_N7android8hardware4wifi4V1_28BnHwWifiD0Ev
_ZTv0_n12_N7android8hardware4wifi4V1_28BnHwWifiD1Ev
