vtable for android::system::net::netd::V1_1::BpHwNetd
_ZTVN7android6system3net4netd4V1_18BpHwNetdE: 26 entries
16    (int (*)(...)) _ZN7android6system3net4netd4V1_18BpHwNetd14interfaceChainENSt3__18functionIFvRKNS_8hardware8hidl_vecINS7_11hidl_stringEEEEEE
20    (int (*)(...)) _ZN7android6system3net4netd4V1_18BpHwNetd5debugERKNS_8hardware11hidl_handleERKNS5_8hidl_vecINS5_11hidl_stringEEE
24    (int (*)(...)) _ZN7android6system3net4netd4V1_18BpHwNetd19interfaceDescriptorENSt3__18functionIFvRKNS_8hardware11hidl_stringEEEE
28    (int (*)(...)) _ZN7android6system3net4netd4V1_18BpHwNetd12getHashChainENSt3__18functionIFvRKNS_8hardware8hidl_vecINS7_10hidl_arrayIhLj32EJEEEEEEEE
32    (int (*)(...)) _ZN7android6system3net4netd4V1_18BpHwNetd21setHALInstrumentationEv
36    (int (*)(...)) _ZN7android6system3net4netd4V1_18BpHwNetd11linkToDeathERKNS_2spINS_8hardware20hidl_death_recipientEEEy
40    (int (*)(...)) _ZN7android6system3net4netd4V1_18BpHwNetd4pingEv
44    (int (*)(...)) _ZN7android6system3net4netd4V1_18BpHwNetd12getDebugInfoENSt3__18functionIFvRKNS_4hidl4base4V1_09DebugInfoEEEE
48    (int (*)(...)) _ZN7android6system3net4netd4V1_18BpHwNetd21notifySyspropsChangedEv
52    (int (*)(...)) _ZN7android6system3net4netd4V1_18BpHwNetd13unlinkToDeathERKNS_2spINS_8hardware20hidl_death_recipientEEE
64    (int (*)(...)) _ZN7android6system3net4netd4V1_18BpHwNetd16createOemNetworkENSt3__18functionIFvyjNS2_4V1_05INetd10StatusCodeEEEE
68    (int (*)(...)) _ZN7android6system3net4netd4V1_18BpHwNetd17destroyOemNetworkEy
72    (int (*)(...)) _ZN7android6system3net4netd4V1_18BpHwNetd20addRouteToOemNetworkEyRKNS_8hardware11hidl_stringES8_S8_
76    (int (*)(...)) _ZN7android6system3net4netd4V1_18BpHwNetd25removeRouteFromOemNetworkEyRKNS_8hardware11hidl_stringES8_S8_
80    (int (*)(...)) _ZN7android6system3net4netd4V1_18BpHwNetd24addInterfaceToOemNetworkEyRKNS_8hardware11hidl_stringE
84    (int (*)(...)) _ZN7android6system3net4netd4V1_18BpHwNetd29removeInterfaceFromOemNetworkEyRKNS_8hardware11hidl_stringE
88    (int (*)(...)) _ZN7android6system3net4netd4V1_18BpHwNetd18setIpForwardEnableEb
92    (int (*)(...)) _ZN7android6system3net4netd4V1_18BpHwNetd30setForwardingBetweenInterfacesERKNS_8hardware11hidl_stringES8_b
144    (int (*)(...)) _ZN7android8hardware11BpHwRefBase10onFirstRefEv
148    (int (*)(...)) _ZN7android8hardware11BpHwRefBase15onLastStrongRefEPKv
152    (int (*)(...)) _ZN7android8hardware11BpHwRefBase20onIncStrongAttemptedEjPKv
208    (int (*)(...)) _ZTv0_n16_N7android8hardware11BpHwRefBase10onFirstRefEv
212    (int (*)(...)) _ZTv0_n20_N7android8hardware11BpHwRefBase15onLastStrongRefEPKv
216    (int (*)(...)) _ZTv0_n24_N7android8hardware11BpHwRefBase20onIncStrongAttemptedEjPKv
220    (int (*)(...)) _ZN7android7RefBase13onLastWeakRefEPKv
224    (int (*)(...)) _ZTVN7android6system3net4netd4V1_18BpHwNetdE


vtable for android::system::net::netd::V1_1::BnHwNetd
_ZTVN7android6system3net4netd4V1_18BnHwNetdE: 20 entries
12    (int (*)(...)) _ZN7android8hardware9BHwBinder8transactEjRKNS0_6ParcelEPS2_jNSt3__18functionIFvRS2_EEE
16    (int (*)(...)) _ZN7android8hardware9BHwBinder11linkToDeathERKNS_2spINS0_7IBinder14DeathRecipientEEEPvj
20    (int (*)(...)) _ZN7android8hardware9BHwBinder13unlinkToDeathERKNS_2wpINS0_7IBinder14DeathRecipientEEEPvjPS5_
24    (int (*)(...)) _ZNK7android8hardware7IBinder13checkSubclassEPKv
28    (int (*)(...)) _ZN7android8hardware9BHwBinder12attachObjectEPKvPvS4_PFvS3_S4_S4_E
32    (int (*)(...)) _ZNK7android8hardware9BHwBinder10findObjectEPKv
36    (int (*)(...)) _ZN7android8hardware9BHwBinder12detachObjectEPKv
40    (int (*)(...)) _ZN7android8hardware9BHwBinder11localBinderEv
44    (int (*)(...)) _ZN7android8hardware7IBinder12remoteBinderEv
48    (int (*)(...)) _ZN7android6system3net4netd4V1_18BnHwNetdD1Ev
52    (int (*)(...)) _ZN7android6system3net4netd4V1_18BnHwNetdD0Ev
56    (int (*)(...)) _ZN7android6system3net4netd4V1_18BnHwNetd10onTransactEjRKNS_8hardware6ParcelEPS6_jNSt3__18functionIFvRS6_EEE
68    (int (*)(...)) _ZThn20_N7android6system3net4netd4V1_18BnHwNetdD1Ev
72    (int (*)(...)) _ZThn20_N7android6system3net4netd4V1_18BnHwNetdD0Ev
104    (int (*)(...)) _ZTv0_n12_N7android6system3net4netd4V1_18BnHwNetdD1Ev
108    (int (*)(...)) _ZTv0_n12_N7android6system3net4netd4V1_18BnHwNetdD0Ev
112    (int (*)(...)) _ZN7android7RefBase10onFirstRefEv
116    (int (*)(...)) _ZN7android7RefBase15onLastStrongRefEPKv
120    (int (*)(...)) _ZN7android7RefBase20onIncStrongAttemptedEjPKv
124    (int (*)(...)) _ZN7android7RefBase13onLastWeakRefEPKv


vtable for android::system::net::netd::V1_1::INetd
_ZTVN7android6system3net4netd4V1_15INetdE: 14 entries
16    (int (*)(...)) _ZN7android6system3net4netd4V1_15INetd14interfaceChainENSt3__18functionIFvRKNS_8hardware8hidl_vecINS7_11hidl_stringEEEEEE
20    (int (*)(...)) _ZN7android6system3net4netd4V1_15INetd5debugERKNS_8hardware11hidl_handleERKNS5_8hidl_vecINS5_11hidl_stringEEE
24    (int (*)(...)) _ZN7android6system3net4netd4V1_15INetd19interfaceDescriptorENSt3__18functionIFvRKNS_8hardware11hidl_stringEEEE
28    (int (*)(...)) _ZN7android6system3net4netd4V1_15INetd12getHashChainENSt3__18functionIFvRKNS_8hardware8hidl_vecINS7_10hidl_arrayIhLj32EJEEEEEEEE
32    (int (*)(...)) _ZN7android6system3net4netd4V1_15INetd21setHALInstrumentationEv
36    (int (*)(...)) _ZN7android6system3net4netd4V1_15INetd11linkToDeathERKNS_2spINS_8hardware20hidl_death_recipientEEEy
40    (int (*)(...)) _ZN7android6system3net4netd4V1_15INetd4pingEv
44    (int (*)(...)) _ZN7android6system3net4netd4V1_15INetd12getDebugInfoENSt3__18functionIFvRKNS_4hidl4base4V1_09DebugInfoEEEE
48    (int (*)(...)) _ZN7android6system3net4netd4V1_15INetd21notifySyspropsChangedEv
52    (int (*)(...)) _ZN7android6system3net4netd4V1_15INetd13unlinkToDeathERKNS_2spINS_8hardware20hidl_death_recipientEEE
132    (int (*)(...)) _ZN7android7RefBase10onFirstRefEv
136    (int (*)(...)) _ZN7android7RefBase15onLastStrongRefEPKv
140    (int (*)(...)) _ZN7android7RefBase20onIncStrongAttemptedEjPKv
144    (int (*)(...)) _ZN7android7RefBase13onLastWeakRefEPKv
