_ZN7android10frameworks13sensorservice4V1_011IEventQueue10descriptorE
_ZN7android10frameworks13sensorservice4V1_011IEventQueue10getServiceERKNSt3__112basic_stringIcNS4_11char_traitsIcEENS4_9allocatorIcEEEEb
_ZN7android10frameworks13sensorservice4V1_011IEventQueue11linkToDeathERKNS_2spINS_8hardware20hidl_death_recipientEEEy
_ZN7android10frameworks13sensorservice4V1_011IEventQueue12getDebugInfoENSt3__18functionIFvRKNS_4hidl4base4V1_09DebugInfoEEEE
_ZN7android10frameworks13sensorservice4V1_011IEventQueue12getHashChainENSt3__18functionIFvRKNS_8hardware8hidl_vecINS6_10hidl_arrayIhLj32EJEEEEEEEE
_ZN7android10frameworks13sensorservice4V1_011IEventQueue13tryGetServiceERKNSt3__112basic_stringIcNS4_11char_traitsIcEENS4_9allocatorIcEEEEb
_ZN7android10frameworks13sensorservice4V1_011IEventQueue13unlinkToDeathERKNS_2spINS_8hardware20hidl_death_recipientEEE
_ZN7android10frameworks13sensorservice4V1_011IEventQueue14interfaceChainENSt3__18functionIFvRKNS_8hardware8hidl_vecINS6_11hidl_stringEEEEEE
_ZN7android10frameworks13sensorservice4V1_011IEventQueue17registerAsServiceERKNSt3__112basic_stringIcNS4_11char_traitsIcEENS4_9allocatorIcEEEE
_ZN7android10frameworks13sensorservice4V1_011IEventQueue19interfaceDescriptorENSt3__18functionIFvRKNS_8hardware11hidl_stringEEEE
_ZN7android10frameworks13sensorservice4V1_011IEventQueue21notifySyspropsChangedEv
_ZN7android10frameworks13sensorservice4V1_011IEventQueue21setHALInstrumentationEv
_ZN7android10frameworks13sensorservice4V1_011IEventQueue24registerForNotificationsERKNSt3__112basic_stringIcNS4_11char_traitsIcEENS4_9allocatorIcEEEERKNS_2spINS_4hidl7manager4V1_020IServiceNotificationEEE
_ZN7android10frameworks13sensorservice4V1_011IEventQueue4pingEv
_ZN7android10frameworks13sensorservice4V1_011IEventQueue5debugERKNS_8hardware11hidl_handleERKNS4_8hidl_vecINS4_11hidl_stringEEE
_ZN7android10frameworks13sensorservice4V1_011IEventQueue8castFromERKNS_2spINS_4hidl4base4V1_05IBaseEEEb
_ZN7android10frameworks13sensorservice4V1_011IEventQueue8castFromERKNS_2spIS3_EEb
_ZN7android10frameworks13sensorservice4V1_012BsEventQueue13addOnewayTaskENSt3__18functionIFvvEEE
_ZN7android10frameworks13sensorservice4V1_012BsEventQueueC1ENS_2spINS2_11IEventQueueEEE
_ZN7android10frameworks13sensorservice4V1_012BsEventQueueC2ENS_2spINS2_11IEventQueueEEE
_ZN7android10frameworks13sensorservice4V1_014BnHwEventQueue10onTransactEjRKNS_8hardware6ParcelEPS5_jNSt3__18functionIFvRS5_EEE
_ZN7android10frameworks13sensorservice4V1_014BnHwEventQueue12getDebugInfoENSt3__18functionIFvRKNS_4hidl4base4V1_09DebugInfoEEEE
_ZN7android10frameworks13sensorservice4V1_014BnHwEventQueue18_hidl_enableSensorEPNS_4hidl4base4V1_08BnHwBaseERKNS_8hardware6ParcelEPSA_NSt3__18functionIFvRSA_EEE
_ZN7android10frameworks13sensorservice4V1_014BnHwEventQueue19_hidl_disableSensorEPNS_4hidl4base4V1_08BnHwBaseERKNS_8hardware6ParcelEPSA_NSt3__18functionIFvRSA_EEE
_ZN7android10frameworks13sensorservice4V1_014BnHwEventQueue4pingEv
_ZN7android10frameworks13sensorservice4V1_014BnHwEventQueueC1ERKNS_2spINS2_11IEventQueueEEE
_ZN7android10frameworks13sensorservice4V1_014BnHwEventQueueC2ERKNS_2spINS2_11IEventQueueEEE
_ZN7android10frameworks13sensorservice4V1_014BnHwEventQueueD0Ev
_ZN7android10frameworks13sensorservice4V1_014BnHwEventQueueD1Ev
_ZN7android10frameworks13sensorservice4V1_014BnHwEventQueueD2Ev
_ZN7android10frameworks13sensorservice4V1_014BpHwEventQueue11linkToDeathERKNS_2spINS_8hardware20hidl_death_recipientEEEy
_ZN7android10frameworks13sensorservice4V1_014BpHwEventQueue12enableSensorEiix
_ZN7android10frameworks13sensorservice4V1_014BpHwEventQueue12getDebugInfoENSt3__18functionIFvRKNS_4hidl4base4V1_09DebugInfoEEEE
_ZN7android10frameworks13sensorservice4V1_014BpHwEventQueue12getHashChainENSt3__18functionIFvRKNS_8hardware8hidl_vecINS6_10hidl_arrayIhLj32EJEEEEEEEE
_ZN7android10frameworks13sensorservice4V1_014BpHwEventQueue13disableSensorEi
_ZN7android10frameworks13sensorservice4V1_014BpHwEventQueue13unlinkToDeathERKNS_2spINS_8hardware20hidl_death_recipientEEE
_ZN7android10frameworks13sensorservice4V1_014BpHwEventQueue14interfaceChainENSt3__18functionIFvRKNS_8hardware8hidl_vecINS6_11hidl_stringEEEEEE
_ZN7android10frameworks13sensorservice4V1_014BpHwEventQueue18_hidl_enableSensorEPNS_8hardware10IInterfaceEPNS4_7details16HidlInstrumentorEiix
_ZN7android10frameworks13sensorservice4V1_014BpHwEventQueue19_hidl_disableSensorEPNS_8hardware10IInterfaceEPNS4_7details16HidlInstrumentorEi
_ZN7android10frameworks13sensorservice4V1_014BpHwEventQueue19interfaceDescriptorENSt3__18functionIFvRKNS_8hardware11hidl_stringEEEE
_ZN7android10frameworks13sensorservice4V1_014BpHwEventQueue21notifySyspropsChangedEv
_ZN7android10frameworks13sensorservice4V1_014BpHwEventQueue21setHALInstrumentationEv
_ZN7android10frameworks13sensorservice4V1_014BpHwEventQueue4pingEv
_ZN7android10frameworks13sensorservice4V1_014BpHwEventQueue5debugERKNS_8hardware11hidl_handleERKNS4_8hidl_vecINS4_11hidl_stringEEE
_ZN7android10frameworks13sensorservice4V1_014BpHwEventQueueC1ERKNS_2spINS_8hardware7IBinderEEE
_ZN7android10frameworks13sensorservice4V1_014BpHwEventQueueC2ERKNS_2spINS_8hardware7IBinderEEE
_ZN7android10frameworks13sensorservice4V1_014ISensorManager10descriptorE
_ZN7android10frameworks13sensorservice4V1_014ISensorManager10getServiceERKNSt3__112basic_stringIcNS4_11char_traitsIcEENS4_9allocatorIcEEEEb
_ZN7android10frameworks13sensorservice4V1_014ISensorManager11linkToDeathERKNS_2spINS_8hardware20hidl_death_recipientEEEy
_ZN7android10frameworks13sensorservice4V1_014ISensorManager12getDebugInfoENSt3__18functionIFvRKNS_4hidl4base4V1_09DebugInfoEEEE
_ZN7android10frameworks13sensorservice4V1_014ISensorManager12getHashChainENSt3__18functionIFvRKNS_8hardware8hidl_vecINS6_10hidl_arrayIhLj32EJEEEEEEEE
_ZN7android10frameworks13sensorservice4V1_014ISensorManager13tryGetServiceERKNSt3__112basic_stringIcNS4_11char_traitsIcEENS4_9allocatorIcEEEEb
_ZN7android10frameworks13sensorservice4V1_014ISensorManager13unlinkToDeathERKNS_2spINS_8hardware20hidl_death_recipientEEE
_ZN7android10frameworks13sensorservice4V1_014ISensorManager14interfaceChainENSt3__18functionIFvRKNS_8hardware8hidl_vecINS6_11hidl_stringEEEEEE
_ZN7android10frameworks13sensorservice4V1_014ISensorManager17registerAsServiceERKNSt3__112basic_stringIcNS4_11char_traitsIcEENS4_9allocatorIcEEEE
_ZN7android10frameworks13sensorservice4V1_014ISensorManager19interfaceDescriptorENSt3__18functionIFvRKNS_8hardware11hidl_stringEEEE
_ZN7android10frameworks13sensorservice4V1_014ISensorManager21notifySyspropsChangedEv
_ZN7android10frameworks13sensorservice4V1_014ISensorManager21setHALInstrumentationEv
_ZN7android10frameworks13sensorservice4V1_014ISensorManager24registerForNotificationsERKNSt3__112basic_stringIcNS4_11char_traitsIcEENS4_9allocatorIcEEEERKNS_2spINS_4hidl7manager4V1_020IServiceNotificationEEE
_ZN7android10frameworks13sensorservice4V1_014ISensorManager4pingEv
_ZN7android10frameworks13sensorservice4V1_014ISensorManager5debugERKNS_8hardware11hidl_handleERKNS4_8hidl_vecINS4_11hidl_stringEEE
_ZN7android10frameworks13sensorservice4V1_014ISensorManager8castFromERKNS_2spINS_4hidl4base4V1_05IBaseEEEb
_ZN7android10frameworks13sensorservice4V1_014ISensorManager8castFromERKNS_2spIS3_EEb
_ZN7android10frameworks13sensorservice4V1_015BsSensorManager13addOnewayTaskENSt3__18functionIFvvEEE
_ZN7android10frameworks13sensorservice4V1_015BsSensorManagerC1ENS_2spINS2_14ISensorManagerEEE
_ZN7android10frameworks13sensorservice4V1_015BsSensorManagerC2ENS_2spINS2_14ISensorManagerEEE
_ZN7android10frameworks13sensorservice4V1_017BnHwSensorManager10onTransactEjRKNS_8hardware6ParcelEPS5_jNSt3__18functionIFvRS5_EEE
_ZN7android10frameworks13sensorservice4V1_017BnHwSensorManager12getDebugInfoENSt3__18functionIFvRKNS_4hidl4base4V1_09DebugInfoEEEE
_ZN7android10frameworks13sensorservice4V1_017BnHwSensorManager19_hidl_getSensorListEPNS_4hidl4base4V1_08BnHwBaseERKNS_8hardware6ParcelEPSA_NSt3__18functionIFvRSA_EEE
_ZN7android10frameworks13sensorservice4V1_017BnHwSensorManager22_hidl_createEventQueueEPNS_4hidl4base4V1_08BnHwBaseERKNS_8hardware6ParcelEPSA_NSt3__18functionIFvRSA_EEE
_ZN7android10frameworks13sensorservice4V1_017BnHwSensorManager22_hidl_getDefaultSensorEPNS_4hidl4base4V1_08BnHwBaseERKNS_8hardware6ParcelEPSA_NSt3__18functionIFvRSA_EEE
_ZN7android10frameworks13sensorservice4V1_017BnHwSensorManager31_hidl_createAshmemDirectChannelEPNS_4hidl4base4V1_08BnHwBaseERKNS_8hardware6ParcelEPSA_NSt3__18functionIFvRSA_EEE
_ZN7android10frameworks13sensorservice4V1_017BnHwSensorManager32_hidl_createGrallocDirectChannelEPNS_4hidl4base4V1_08BnHwBaseERKNS_8hardware6ParcelEPSA_NSt3__18functionIFvRSA_EEE
_ZN7android10frameworks13sensorservice4V1_017BnHwSensorManager4pingEv
_ZN7android10frameworks13sensorservice4V1_017BnHwSensorManagerC1ERKNS_2spINS2_14ISensorManagerEEE
_ZN7android10frameworks13sensorservice4V1_017BnHwSensorManagerC2ERKNS_2spINS2_14ISensorManagerEEE
_ZN7android10frameworks13sensorservice4V1_017BnHwSensorManagerD0Ev
_ZN7android10frameworks13sensorservice4V1_017BnHwSensorManagerD1Ev
_ZN7android10frameworks13sensorservice4V1_017BnHwSensorManagerD2Ev
_ZN7android10frameworks13sensorservice4V1_017BpHwSensorManager11linkToDeathERKNS_2spINS_8hardware20hidl_death_recipientEEEy
_ZN7android10frameworks13sensorservice4V1_017BpHwSensorManager12getDebugInfoENSt3__18functionIFvRKNS_4hidl4base4V1_09DebugInfoEEEE
_ZN7android10frameworks13sensorservice4V1_017BpHwSensorManager12getHashChainENSt3__18functionIFvRKNS_8hardware8hidl_vecINS6_10hidl_arrayIhLj32EJEEEEEEEE
_ZN7android10frameworks13sensorservice4V1_017BpHwSensorManager13getSensorListENSt3__18functionIFvRKNS_8hardware8hidl_vecINS6_7sensors4V1_010SensorInfoEEENS2_6ResultEEEE
_ZN7android10frameworks13sensorservice4V1_017BpHwSensorManager13unlinkToDeathERKNS_2spINS_8hardware20hidl_death_recipientEEE
_ZN7android10frameworks13sensorservice4V1_017BpHwSensorManager14interfaceChainENSt3__18functionIFvRKNS_8hardware8hidl_vecINS6_11hidl_stringEEEEEE
_ZN7android10frameworks13sensorservice4V1_017BpHwSensorManager16createEventQueueERKNS_2spINS2_19IEventQueueCallbackEEENSt3__18functionIFvRKNS4_INS2_11IEventQueueEEENS2_6ResultEEEE
_ZN7android10frameworks13sensorservice4V1_017BpHwSensorManager16getDefaultSensorENS_8hardware7sensors4V1_010SensorTypeENSt3__18functionIFvRKNS6_10SensorInfoENS2_6ResultEEEE
_ZN7android10frameworks13sensorservice4V1_017BpHwSensorManager19_hidl_getSensorListEPNS_8hardware10IInterfaceEPNS4_7details16HidlInstrumentorENSt3__18functionIFvRKNS4_8hidl_vecINS4_7sensors4V1_010SensorInfoEEENS2_6ResultEEEE
_ZN7android10frameworks13sensorservice4V1_017BpHwSensorManager19interfaceDescriptorENSt3__18functionIFvRKNS_8hardware11hidl_stringEEEE
_ZN7android10frameworks13sensorservice4V1_017BpHwSensorManager21notifySyspropsChangedEv
_ZN7android10frameworks13sensorservice4V1_017BpHwSensorManager21setHALInstrumentationEv
_ZN7android10frameworks13sensorservice4V1_017BpHwSensorManager22_hidl_createEventQueueEPNS_8hardware10IInterfaceEPNS4_7details16HidlInstrumentorERKNS_2spINS2_19IEventQueueCallbackEEENSt3__18functionIFvRKNSA_INS2_11IEventQueueEEENS2_6ResultEEEE
_ZN7android10frameworks13sensorservice4V1_017BpHwSensorManager22_hidl_getDefaultSensorEPNS_8hardware10IInterfaceEPNS4_7details16HidlInstrumentorENS4_7sensors4V1_010SensorTypeENSt3__18functionIFvRKNSB_10SensorInfoENS2_6ResultEEEE
_ZN7android10frameworks13sensorservice4V1_017BpHwSensorManager25createAshmemDirectChannelERKNS_8hardware11hidl_memoryEyNSt3__18functionIFvRKNS_2spINS2_20IDirectReportChannelEEENS2_6ResultEEEE
_ZN7android10frameworks13sensorservice4V1_017BpHwSensorManager26createGrallocDirectChannelERKNS_8hardware11hidl_handleEyNSt3__18functionIFvRKNS_2spINS2_20IDirectReportChannelEEENS2_6ResultEEEE
_ZN7android10frameworks13sensorservice4V1_017BpHwSensorManager31_hidl_createAshmemDirectChannelEPNS_8hardware10IInterfaceEPNS4_7details16HidlInstrumentorERKNS4_11hidl_memoryEyNSt3__18functionIFvRKNS_2spINS2_20IDirectReportChannelEEENS2_6ResultEEEE
_ZN7android10frameworks13sensorservice4V1_017BpHwSensorManager32_hidl_createGrallocDirectChannelEPNS_8hardware10IInterfaceEPNS4_7details16HidlInstrumentorERKNS4_11hidl_handleEyNSt3__18functionIFvRKNS_2spINS2_20IDirectReportChannelEEENS2_6ResultEEEE
_ZN7android10frameworks13sensorservice4V1_017BpHwSensorManager4pingEv
_ZN7android10frameworks13sensorservice4V1_017BpHwSensorManager5debugERKNS_8hardware11hidl_handleERKNS4_8hidl_vecINS4_11hidl_stringEEE
_ZN7android10frameworks13sensorservice4V1_017BpHwSensorManagerC1ERKNS_2spINS_8hardware7IBinderEEE
_ZN7android10frameworks13sensorservice4V1_017BpHwSensorManagerC2ERKNS_2spINS_8hardware7IBinderEEE
_ZN7android10frameworks13sensorservice4V1_019IEventQueueCallback10descriptorE
_ZN7android10frameworks13sensorservice4V1_019IEventQueueCallback10getServiceERKNSt3__112basic_stringIcNS4_11char_traitsIcEENS4_9allocatorIcEEEEb
_ZN7android10frameworks13sensorservice4V1_019IEventQueueCallback11linkToDeathERKNS_2spINS_8hardware20hidl_death_recipientEEEy
_ZN7android10frameworks13sensorservice4V1_019IEventQueueCallback12getDebugInfoENSt3__18functionIFvRKNS_4hidl4base4V1_09DebugInfoEEEE
_ZN7android10frameworks13sensorservice4V1_019IEventQueueCallback12getHashChainENSt3__18functionIFvRKNS_8hardware8hidl_vecINS6_10hidl_arrayIhLj32EJEEEEEEEE
_ZN7android10frameworks13sensorservice4V1_019IEventQueueCallback13tryGetServiceERKNSt3__112basic_stringIcNS4_11char_traitsIcEENS4_9allocatorIcEEEEb
_ZN7android10frameworks13sensorservice4V1_019IEventQueueCallback13unlinkToDeathERKNS_2spINS_8hardware20hidl_death_recipientEEE
_ZN7android10frameworks13sensorservice4V1_019IEventQueueCallback14interfaceChainENSt3__18functionIFvRKNS_8hardware8hidl_vecINS6_11hidl_stringEEEEEE
_ZN7android10frameworks13sensorservice4V1_019IEventQueueCallback17registerAsServiceERKNSt3__112basic_stringIcNS4_11char_traitsIcEENS4_9allocatorIcEEEE
_ZN7android10frameworks13sensorservice4V1_019IEventQueueCallback19interfaceDescriptorENSt3__18functionIFvRKNS_8hardware11hidl_stringEEEE
_ZN7android10frameworks13sensorservice4V1_019IEventQueueCallback21notifySyspropsChangedEv
_ZN7android10frameworks13sensorservice4V1_019IEventQueueCallback21setHALInstrumentationEv
_ZN7android10frameworks13sensorservice4V1_019IEventQueueCallback24registerForNotificationsERKNSt3__112basic_stringIcNS4_11char_traitsIcEENS4_9allocatorIcEEEERKNS_2spINS_4hidl7manager4V1_020IServiceNotificationEEE
_ZN7android10frameworks13sensorservice4V1_019IEventQueueCallback4pingEv
_ZN7android10frameworks13sensorservice4V1_019IEventQueueCallback5debugERKNS_8hardware11hidl_handleERKNS4_8hidl_vecINS4_11hidl_stringEEE
_ZN7android10frameworks13sensorservice4V1_019IEventQueueCallback8castFromERKNS_2spINS_4hidl4base4V1_05IBaseEEEb
_ZN7android10frameworks13sensorservice4V1_019IEventQueueCallback8castFromERKNS_2spIS3_EEb
_ZN7android10frameworks13sensorservice4V1_020BsEventQueueCallback13addOnewayTaskENSt3__18functionIFvvEEE
_ZN7android10frameworks13sensorservice4V1_020BsEventQueueCallbackC1ENS_2spINS2_19IEventQueueCallbackEEE
_ZN7android10frameworks13sensorservice4V1_020BsEventQueueCallbackC2ENS_2spINS2_19IEventQueueCallbackEEE
_ZN7android10frameworks13sensorservice4V1_020IDirectReportChannel10descriptorE
_ZN7android10frameworks13sensorservice4V1_020IDirectReportChannel10getServiceERKNSt3__112basic_stringIcNS4_11char_traitsIcEENS4_9allocatorIcEEEEb
_ZN7android10frameworks13sensorservice4V1_020IDirectReportChannel11linkToDeathERKNS_2spINS_8hardware20hidl_death_recipientEEEy
_ZN7android10frameworks13sensorservice4V1_020IDirectReportChannel12getDebugInfoENSt3__18functionIFvRKNS_4hidl4base4V1_09DebugInfoEEEE
_ZN7android10frameworks13sensorservice4V1_020IDirectReportChannel12getHashChainENSt3__18functionIFvRKNS_8hardware8hidl_vecINS6_10hidl_arrayIhLj32EJEEEEEEEE
_ZN7android10frameworks13sensorservice4V1_020IDirectReportChannel13tryGetServiceERKNSt3__112basic_stringIcNS4_11char_traitsIcEENS4_9allocatorIcEEEEb
_ZN7android10frameworks13sensorservice4V1_020IDirectReportChannel13unlinkToDeathERKNS_2spINS_8hardware20hidl_death_recipientEEE
_ZN7android10frameworks13sensorservice4V1_020IDirectReportChannel14interfaceChainENSt3__18functionIFvRKNS_8hardware8hidl_vecINS6_11hidl_stringEEEEEE
_ZN7android10frameworks13sensorservice4V1_020IDirectReportChannel17registerAsServiceERKNSt3__112basic_stringIcNS4_11char_traitsIcEENS4_9allocatorIcEEEE
_ZN7android10frameworks13sensorservice4V1_020IDirectReportChannel19interfaceDescriptorENSt3__18functionIFvRKNS_8hardware11hidl_stringEEEE
_ZN7android10frameworks13sensorservice4V1_020IDirectReportChannel21notifySyspropsChangedEv
_ZN7android10frameworks13sensorservice4V1_020IDirectReportChannel21setHALInstrumentationEv
_ZN7android10frameworks13sensorservice4V1_020IDirectReportChannel24registerForNotificationsERKNSt3__112basic_stringIcNS4_11char_traitsIcEENS4_9allocatorIcEEEERKNS_2spINS_4hidl7manager4V1_020IServiceNotificationEEE
_ZN7android10frameworks13sensorservice4V1_020IDirectReportChannel4pingEv
_ZN7android10frameworks13sensorservice4V1_020IDirectReportChannel5debugERKNS_8hardware11hidl_handleERKNS4_8hidl_vecINS4_11hidl_stringEEE
_ZN7android10frameworks13sensorservice4V1_020IDirectReportChannel8castFromERKNS_2spINS_4hidl4base4V1_05IBaseEEEb
_ZN7android10frameworks13sensorservice4V1_020IDirectReportChannel8castFromERKNS_2spIS3_EEb
_ZN7android10frameworks13sensorservice4V1_021BsDirectReportChannel13addOnewayTaskENSt3__18functionIFvvEEE
_ZN7android10frameworks13sensorservice4V1_021BsDirectReportChannelC1ENS_2spINS2_20IDirectReportChannelEEE
_ZN7android10frameworks13sensorservice4V1_021BsDirectReportChannelC2ENS_2spINS2_20IDirectReportChannelEEE
_ZN7android10frameworks13sensorservice4V1_022BnHwEventQueueCallback10onTransactEjRKNS_8hardware6ParcelEPS5_jNSt3__18functionIFvRS5_EEE
_ZN7android10frameworks13sensorservice4V1_022BnHwEventQueueCallback12getDebugInfoENSt3__18functionIFvRKNS_4hidl4base4V1_09DebugInfoEEEE
_ZN7android10frameworks13sensorservice4V1_022BnHwEventQueueCallback13_hidl_onEventEPNS_4hidl4base4V1_08BnHwBaseERKNS_8hardware6ParcelEPSA_NSt3__18functionIFvRSA_EEE
_ZN7android10frameworks13sensorservice4V1_022BnHwEventQueueCallback4pingEv
_ZN7android10frameworks13sensorservice4V1_022BnHwEventQueueCallbackC1ERKNS_2spINS2_19IEventQueueCallbackEEE
_ZN7android10frameworks13sensorservice4V1_022BnHwEventQueueCallbackC2ERKNS_2spINS2_19IEventQueueCallbackEEE
_ZN7android10frameworks13sensorservice4V1_022BnHwEventQueueCallbackD0Ev
_ZN7android10frameworks13sensorservice4V1_022BnHwEventQueueCallbackD1Ev
_ZN7android10frameworks13sensorservice4V1_022BnHwEventQueueCallbackD2Ev
_ZN7android10frameworks13sensorservice4V1_022BpHwEventQueueCallback11linkToDeathERKNS_2spINS_8hardware20hidl_death_recipientEEEy
_ZN7android10frameworks13sensorservice4V1_022BpHwEventQueueCallback12getDebugInfoENSt3__18functionIFvRKNS_4hidl4base4V1_09DebugInfoEEEE
_ZN7android10frameworks13sensorservice4V1_022BpHwEventQueueCallback12getHashChainENSt3__18functionIFvRKNS_8hardware8hidl_vecINS6_10hidl_arrayIhLj32EJEEEEEEEE
_ZN7android10frameworks13sensorservice4V1_022BpHwEventQueueCallback13_hidl_onEventEPNS_8hardware10IInterfaceEPNS4_7details16HidlInstrumentorERKNS4_7sensors4V1_05EventE
_ZN7android10frameworks13sensorservice4V1_022BpHwEventQueueCallback13unlinkToDeathERKNS_2spINS_8hardware20hidl_death_recipientEEE
_ZN7android10frameworks13sensorservice4V1_022BpHwEventQueueCallback14interfaceChainENSt3__18functionIFvRKNS_8hardware8hidl_vecINS6_11hidl_stringEEEEEE
_ZN7android10frameworks13sensorservice4V1_022BpHwEventQueueCallback19interfaceDescriptorENSt3__18functionIFvRKNS_8hardware11hidl_stringEEEE
_ZN7android10frameworks13sensorservice4V1_022BpHwEventQueueCallback21notifySyspropsChangedEv
_ZN7android10frameworks13sensorservice4V1_022BpHwEventQueueCallback21setHALInstrumentationEv
_ZN7android10frameworks13sensorservice4V1_022BpHwEventQueueCallback4pingEv
_ZN7android10frameworks13sensorservice4V1_022BpHwEventQueueCallback5debugERKNS_8hardware11hidl_handleERKNS4_8hidl_vecINS4_11hidl_stringEEE
_ZN7android10frameworks13sensorservice4V1_022BpHwEventQueueCallback7onEventERKNS_8hardware7sensors4V1_05EventE
_ZN7android10frameworks13sensorservice4V1_022BpHwEventQueueCallbackC1ERKNS_2spINS_8hardware7IBinderEEE
_ZN7android10frameworks13sensorservice4V1_022BpHwEventQueueCallbackC2ERKNS_2spINS_8hardware7IBinderEEE
_ZN7android10frameworks13sensorservice4V1_023BnHwDirectReportChannel10onTransactEjRKNS_8hardware6ParcelEPS5_jNSt3__18functionIFvRS5_EEE
_ZN7android10frameworks13sensorservice4V1_023BnHwDirectReportChannel12getDebugInfoENSt3__18functionIFvRKNS_4hidl4base4V1_09DebugInfoEEEE
_ZN7android10frameworks13sensorservice4V1_023BnHwDirectReportChannel15_hidl_configureEPNS_4hidl4base4V1_08BnHwBaseERKNS_8hardware6ParcelEPSA_NSt3__18functionIFvRSA_EEE
_ZN7android10frameworks13sensorservice4V1_023BnHwDirectReportChannel4pingEv
_ZN7android10frameworks13sensorservice4V1_023BnHwDirectReportChannelC1ERKNS_2spINS2_20IDirectReportChannelEEE
_ZN7android10frameworks13sensorservice4V1_023BnHwDirectReportChannelC2ERKNS_2spINS2_20IDirectReportChannelEEE
_ZN7android10frameworks13sensorservice4V1_023BnHwDirectReportChannelD0Ev
_ZN7android10frameworks13sensorservice4V1_023BnHwDirectReportChannelD1Ev
_ZN7android10frameworks13sensorservice4V1_023BnHwDirectReportChannelD2Ev
_ZN7android10frameworks13sensorservice4V1_023BpHwDirectReportChannel11linkToDeathERKNS_2spINS_8hardware20hidl_death_recipientEEEy
_ZN7android10frameworks13sensorservice4V1_023BpHwDirectReportChannel12getDebugInfoENSt3__18functionIFvRKNS_4hidl4base4V1_09DebugInfoEEEE
_ZN7android10frameworks13sensorservice4V1_023BpHwDirectReportChannel12getHashChainENSt3__18functionIFvRKNS_8hardware8hidl_vecINS6_10hidl_arrayIhLj32EJEEEEEEEE
_ZN7android10frameworks13sensorservice4V1_023BpHwDirectReportChannel13unlinkToDeathERKNS_2spINS_8hardware20hidl_death_recipientEEE
_ZN7android10frameworks13sensorservice4V1_023BpHwDirectReportChannel14interfaceChainENSt3__18functionIFvRKNS_8hardware8hidl_vecINS6_11hidl_stringEEEEEE
_ZN7android10frameworks13sensorservice4V1_023BpHwDirectReportChannel15_hidl_configureEPNS_8hardware10IInterfaceEPNS4_7details16HidlInstrumentorEiNS4_7sensors4V1_09RateLevelENSt3__18functionIFviNS2_6ResultEEEE
_ZN7android10frameworks13sensorservice4V1_023BpHwDirectReportChannel19interfaceDescriptorENSt3__18functionIFvRKNS_8hardware11hidl_stringEEEE
_ZN7android10frameworks13sensorservice4V1_023BpHwDirectReportChannel21notifySyspropsChangedEv
_ZN7android10frameworks13sensorservice4V1_023BpHwDirectReportChannel21setHALInstrumentationEv
_ZN7android10frameworks13sensorservice4V1_023BpHwDirectReportChannel4pingEv
_ZN7android10frameworks13sensorservice4V1_023BpHwDirectReportChannel5debugERKNS_8hardware11hidl_handleERKNS4_8hidl_vecINS4_11hidl_stringEEE
_ZN7android10frameworks13sensorservice4V1_023BpHwDirectReportChannel9configureEiNS_8hardware7sensors4V1_09RateLevelENSt3__18functionIFviNS2_6ResultEEEE
_ZN7android10frameworks13sensorservice4V1_023BpHwDirectReportChannelC1ERKNS_2spINS_8hardware7IBinderEEE
_ZN7android10frameworks13sensorservice4V1_023BpHwDirectReportChannelC2ERKNS_2spINS_8hardware7IBinderEEE
_ZTCN7android10frameworks13sensorservice4V1_011IEventQueueE0_NS_4hidl4base4V1_05IBaseE
_ZTCN7android10frameworks13sensorservice4V1_014BnHwEventQueueE0_NS_4hidl4base4V1_08BnHwBaseE
_ZTCN7android10frameworks13sensorservice4V1_014BnHwEventQueueE0_NS_8hardware7IBinderE
_ZTCN7android10frameworks13sensorservice4V1_014BnHwEventQueueE0_NS_8hardware9BHwBinderE
_ZTCN7android10frameworks13sensorservice4V1_014BpHwEventQueueE0_NS2_11IEventQueueE
_ZTCN7android10frameworks13sensorservice4V1_014BpHwEventQueueE0_NS_4hidl4base4V1_05IBaseE
_ZTCN7android10frameworks13sensorservice4V1_014BpHwEventQueueE0_NS_8hardware11BpInterfaceINS2_11IEventQueueEEE
_ZTCN7android10frameworks13sensorservice4V1_014BpHwEventQueueE4_NS_8hardware10IInterfaceE
_ZTCN7android10frameworks13sensorservice4V1_014BpHwEventQueueE8_NS_8hardware11BpHwRefBaseE
_ZTCN7android10frameworks13sensorservice4V1_014ISensorManagerE0_NS_4hidl4base4V1_05IBaseE
_ZTCN7android10frameworks13sensorservice4V1_017BnHwSensorManagerE0_NS_4hidl4base4V1_08BnHwBaseE
_ZTCN7android10frameworks13sensorservice4V1_017BnHwSensorManagerE0_NS_8hardware7IBinderE
_ZTCN7android10frameworks13sensorservice4V1_017BnHwSensorManagerE0_NS_8hardware9BHwBinderE
_ZTCN7android10frameworks13sensorservice4V1_017BpHwSensorManagerE0_NS2_14ISensorManagerE
_ZTCN7android10frameworks13sensorservice4V1_017BpHwSensorManagerE0_NS_4hidl4base4V1_05IBaseE
_ZTCN7android10frameworks13sensorservice4V1_017BpHwSensorManagerE0_NS_8hardware11BpInterfaceINS2_14ISensorManagerEEE
_ZTCN7android10frameworks13sensorservice4V1_017BpHwSensorManagerE4_NS_8hardware10IInterfaceE
_ZTCN7android10frameworks13sensorservice4V1_017BpHwSensorManagerE8_NS_8hardware11BpHwRefBaseE
_ZTCN7android10frameworks13sensorservice4V1_019IEventQueueCallbackE0_NS_4hidl4base4V1_05IBaseE
_ZTCN7android10frameworks13sensorservice4V1_020IDirectReportChannelE0_NS_4hidl4base4V1_05IBaseE
_ZTCN7android10frameworks13sensorservice4V1_022BnHwEventQueueCallbackE0_NS_4hidl4base4V1_08BnHwBaseE
_ZTCN7android10frameworks13sensorservice4V1_022BnHwEventQueueCallbackE0_NS_8hardware7IBinderE
_ZTCN7android10frameworks13sensorservice4V1_022BnHwEventQueueCallbackE0_NS_8hardware9BHwBinderE
_ZTCN7android10frameworks13sensorservice4V1_022BpHwEventQueueCallbackE0_NS2_19IEventQueueCallbackE
_ZTCN7android10frameworks13sensorservice4V1_022BpHwEventQueueCallbackE0_NS_4hidl4base4V1_05IBaseE
_ZTCN7android10frameworks13sensorservice4V1_022BpHwEventQueueCallbackE0_NS_8hardware11BpInterfaceINS2_19IEventQueueCallbackEEE
_ZTCN7android10frameworks13sensorservice4V1_022BpHwEventQueueCallbackE4_NS_8hardware10IInterfaceE
_ZTCN7android10frameworks13sensorservice4V1_022BpHwEventQueueCallbackE8_NS_8hardware11BpHwRefBaseE
_ZTCN7android10frameworks13sensorservice4V1_023BnHwDirectReportChannelE0_NS_4hidl4base4V1_08BnHwBaseE
_ZTCN7android10frameworks13sensorservice4V1_023BnHwDirectReportChannelE0_NS_8hardware7IBinderE
_ZTCN7android10frameworks13sensorservice4V1_023BnHwDirectReportChannelE0_NS_8hardware9BHwBinderE
_ZTCN7android10frameworks13sensorservice4V1_023BpHwDirectReportChannelE0_NS2_20IDirectReportChannelE
_ZTCN7android10frameworks13sensorservice4V1_023BpHwDirectReportChannelE0_NS_4hidl4base4V1_05IBaseE
_ZTCN7android10frameworks13sensorservice4V1_023BpHwDirectReportChannelE0_NS_8hardware11BpInterfaceINS2_20IDirectReportChannelEEE
_ZTCN7android10frameworks13sensorservice4V1_023BpHwDirectReportChannelE4_NS_8hardware10IInterfaceE
_ZTCN7android10frameworks13sensorservice4V1_023BpHwDirectReportChannelE8_NS_8hardware11BpHwRefBaseE
_ZTTN7android10frameworks13sensorservice4V1_011IEventQueueE
_ZTTN7android10frameworks13sensorservice4V1_014BnHwEventQueueE
_ZTTN7android10frameworks13sensorservice4V1_014BpHwEventQueueE
_ZTTN7android10frameworks13sensorservice4V1_014ISensorManagerE
_ZTTN7android10frameworks13sensorservice4V1_017BnHwSensorManagerE
_ZTTN7android10frameworks13sensorservice4V1_017BpHwSensorManagerE
_ZTTN7android10frameworks13sensorservice4V1_019IEventQueueCallbackE
_ZTTN7android10frameworks13sensorservice4V1_020IDirectReportChannelE
_ZTTN7android10frameworks13sensorservice4V1_022BnHwEventQueueCallbackE
_ZTTN7android10frameworks13sensorservice4V1_022BpHwEventQueueCallbackE
_ZTTN7android10frameworks13sensorservice4V1_023BnHwDirectReportChannelE
_ZTTN7android10frameworks13sensorservice4V1_023BpHwDirectReportChannelE
_ZTVN7android10frameworks13sensorservice4V1_011IEventQueueE
_ZTVN7android10frameworks13sensorservice4V1_014BnHwEventQueueE
_ZTVN7android10frameworks13sensorservice4V1_014BpHwEventQueueE
_ZTVN7android10frameworks13sensorservice4V1_014ISensorManagerE
_ZTVN7android10frameworks13sensorservice4V1_017BnHwSensorManagerE
_ZTVN7android10frameworks13sensorservice4V1_017BpHwSensorManagerE
_ZTVN7android10frameworks13sensorservice4V1_019IEventQueueCallbackE
_ZTVN7android10frameworks13sensorservice4V1_020IDirectReportChannelE
_ZTVN7android10frameworks13sensorservice4V1_022BnHwEventQueueCallbackE
_ZTVN7android10frameworks13sensorservice4V1_022BpHwEventQueueCallbackE
_ZTVN7android10frameworks13sensorservice4V1_023BnHwDirectReportChannelE
_ZTVN7android10frameworks13sensorservice4V1_023BpHwDirectReportChannelE
_ZThn20_N7android10frameworks13sensorservice4V1_014BnHwEventQueueD0Ev
_ZThn20_N7android10frameworks13sensorservice4V1_014BnHwEventQueueD1Ev
_ZThn20_N7android10frameworks13sensorservice4V1_017BnHwSensorManagerD0Ev
_ZThn20_N7android10frameworks13sensorservice4V1_017BnHwSensorManagerD1Ev
_ZThn20_N7android10frameworks13sensorservice4V1_022BnHwEventQueueCallbackD0Ev
_ZThn20_N7android10frameworks13sensorservice4V1_022BnHwEventQueueCallbackD1Ev
_ZThn20_N7android10frameworks13sensorservice4V1_023BnHwDirectReportChannelD0Ev
_ZThn20_N7android10frameworks13sensorservice4V1_023BnHwDirectReportChannelD1Ev
_ZTv0_n12_N7android10frameworks13sensorservice4V1_014BnHwEventQueueD0Ev
_ZTv0_n12_N7android10frameworks13sensorservice4V1_014BnHwEventQueueD1Ev
_ZTv0_n12_N7android10frameworks13sensorservice4V1_017BnHwSensorManagerD0Ev
_ZTv0_n12_N7android10frameworks13sensorservice4V1_017BnHwSensorManagerD1Ev
_ZTv0_n12_N7android10frameworks13sensorservice4V1_022BnHwEventQueueCallbackD0Ev
_ZTv0_n12_N7android10frameworks13sensorservice4V1_022BnHwEventQueueCallbackD1Ev
_ZTv0_n12_N7android10frameworks13sensorservice4V1_023BnHwDirectReportChannelD0Ev
_ZTv0_n12_N7android10frameworks13sensorservice4V1_023BnHwDirectReportChannelD1Ev
