vtable for android::hardware::vr::V1_0::BpHwVr
_ZTVN7android8hardware2vr4V1_06BpHwVrE: 19 entries
16    (int (*)(...)) _ZN7android8hardware2vr4V1_06BpHwVr14interfaceChainENSt3__18functionIFvRKNS0_8hidl_vecINS0_11hidl_stringEEEEEE
20    (int (*)(...)) _ZN7android8hardware2vr4V1_06BpHwVr5debugERKNS0_11hidl_handleERKNS0_8hidl_vecINS0_11hidl_stringEEE
24    (int (*)(...)) _ZN7android8hardware2vr4V1_06BpHwVr19interfaceDescriptorENSt3__18functionIFvRKNS0_11hidl_stringEEEE
28    (int (*)(...)) _ZN7android8hardware2vr4V1_06BpHwVr12getHashChainENSt3__18functionIFvRKNS0_8hidl_vecINS0_10hidl_arrayIhLj32EJEEEEEEEE
32    (int (*)(...)) _ZN7android8hardware2vr4V1_06BpHwVr21setHALInstrumentationEv
36    (int (*)(...)) _ZN7android8hardware2vr4V1_06BpHwVr11linkToDeathERKNS_2spINS0_20hidl_death_recipientEEEy
40    (int (*)(...)) _ZN7android8hardware2vr4V1_06BpHwVr4pingEv
44    (int (*)(...)) _ZN7android8hardware2vr4V1_06BpHwVr12getDebugInfoENSt3__18functionIFvRKNS_4hidl4base4V1_09DebugInfoEEEE
48    (int (*)(...)) _ZN7android8hardware2vr4V1_06BpHwVr21notifySyspropsChangedEv
52    (int (*)(...)) _ZN7android8hardware2vr4V1_06BpHwVr13unlinkToDeathERKNS_2spINS0_20hidl_death_recipientEEE
64    (int (*)(...)) _ZN7android8hardware2vr4V1_06BpHwVr4initEv
68    (int (*)(...)) _ZN7android8hardware2vr4V1_06BpHwVr9setVrModeEb
120    (int (*)(...)) _ZN7android8hardware11BpHwRefBase10onFirstRefEv
124    (int (*)(...)) _ZN7android8hardware11BpHwRefBase15onLastStrongRefEPKv
128    (int (*)(...)) _ZN7android8hardware11BpHwRefBase20onIncStrongAttemptedEjPKv
184    (int (*)(...)) _ZTv0_n16_N7android8hardware11BpHwRefBase10onFirstRefEv
188    (int (*)(...)) _ZTv0_n20_N7android8hardware11BpHwRefBase15onLastStrongRefEPKv
192    (int (*)(...)) _ZTv0_n24_N7android8hardware11BpHwRefBase20onIncStrongAttemptedEjPKv
196    (int (*)(...)) _ZN7android7RefBase13onLastWeakRefEPKv


vtable for android::hardware::vr::V1_0::BnHwVr
_ZTVN7android8hardware2vr4V1_06BnHwVrE: 21 entries
12    (int (*)(...)) _ZN7android8hardware9BHwBinder8transactEjRKNS0_6ParcelEPS2_jNSt3__18functionIFvRS2_EEE
16    (int (*)(...)) _ZN7android8hardware9BHwBinder11linkToDeathERKNS_2spINS0_7IBinder14DeathRecipientEEEPvj
20    (int (*)(...)) _ZN7android8hardware9BHwBinder13unlinkToDeathERKNS_2wpINS0_7IBinder14DeathRecipientEEEPvjPS5_
24    (int (*)(...)) _ZNK7android8hardware7IBinder13checkSubclassEPKv
28    (int (*)(...)) _ZN7android8hardware9BHwBinder12attachObjectEPKvPvS4_PFvS3_S4_S4_E
32    (int (*)(...)) _ZNK7android8hardware9BHwBinder10findObjectEPKv
36    (int (*)(...)) _ZN7android8hardware9BHwBinder12detachObjectEPKv
40    (int (*)(...)) _ZN7android8hardware9BHwBinder11localBinderEv
44    (int (*)(...)) _ZN7android8hardware7IBinder12remoteBinderEv
48    (int (*)(...)) _ZN7android8hardware2vr4V1_06BnHwVrD1Ev
52    (int (*)(...)) _ZN7android8hardware2vr4V1_06BnHwVrD0Ev
56    (int (*)(...)) _ZN7android8hardware2vr4V1_06BnHwVr10onTransactEjRKNS0_6ParcelEPS4_jNSt3__18functionIFvRS4_EEE
68    (int (*)(...)) _ZThn20_N7android8hardware2vr4V1_06BnHwVrD1Ev
72    (int (*)(...)) _ZThn20_N7android8hardware2vr4V1_06BnHwVrD0Ev
104    (int (*)(...)) _ZTv0_n12_N7android8hardware2vr4V1_06BnHwVrD1Ev
108    (int (*)(...)) _ZTv0_n12_N7android8hardware2vr4V1_06BnHwVrD0Ev
112    (int (*)(...)) _ZN7android7RefBase10onFirstRefEv
116    (int (*)(...)) _ZN7android7RefBase15onLastStrongRefEPKv
120    (int (*)(...)) _ZN7android7RefBase20onIncStrongAttemptedEjPKv
124    (int (*)(...)) _ZN7android7RefBase13onLastWeakRefEPKv
128    (int (*)(...)) _ZTVN7android8hardware2vr4V1_06BnHwVrE


vtable for android::hardware::vr::V1_0::IVr
_ZTVN7android8hardware2vr4V1_03IVrE: 15 entries
16    (int (*)(...)) _ZN7android8hardware2vr4V1_03IVr14interfaceChainENSt3__18functionIFvRKNS0_8hidl_vecINS0_11hidl_stringEEEEEE
20    (int (*)(...)) _ZN7android8hardware2vr4V1_03IVr5debugERKNS0_11hidl_handleERKNS0_8hidl_vecINS0_11hidl_stringEEE
24    (int (*)(...)) _ZN7android8hardware2vr4V1_03IVr19interfaceDescriptorENSt3__18functionIFvRKNS0_11hidl_stringEEEE
28    (int (*)(...)) _ZN7android8hardware2vr4V1_03IVr12getHashChainENSt3__18functionIFvRKNS0_8hidl_vecINS0_10hidl_arrayIhLj32EJEEEEEEEE
32    (int (*)(...)) _ZN7android8hardware2vr4V1_03IVr21setHALInstrumentationEv
36    (int (*)(...)) _ZN7android8hardware2vr4V1_03IVr11linkToDeathERKNS_2spINS0_20hidl_death_recipientEEEy
40    (int (*)(...)) _ZN7android8hardware2vr4V1_03IVr4pingEv
44    (int (*)(...)) _ZN7android8hardware2vr4V1_03IVr12getDebugInfoENSt3__18functionIFvRKNS_4hidl4base4V1_09DebugInfoEEEE
48    (int (*)(...)) _ZN7android8hardware2vr4V1_03IVr21notifySyspropsChangedEv
52    (int (*)(...)) _ZN7android8hardware2vr4V1_03IVr13unlinkToDeathERKNS_2spINS0_20hidl_death_recipientEEE
108    (int (*)(...)) _ZN7android7RefBase10onFirstRefEv
112    (int (*)(...)) _ZN7android7RefBase15onLastStrongRefEPKv
116    (int (*)(...)) _ZN7android7RefBase20onIncStrongAttemptedEjPKv
120    (int (*)(...)) _ZN7android7RefBase13onLastWeakRefEPKv
124    (int (*)(...)) _ZTVN7android8hardware2vr4V1_03IVrE
