_Z9fixed_fftiPi
_ZN16audio_utils_fifoC1EjjPvR22audio_utils_fifo_indexPS1_
_ZN16audio_utils_fifoC1EjjPvb
_ZN16audio_utils_fifoC2EjjPvR22audio_utils_fifo_indexPS1_
_ZN16audio_utils_fifoC2EjjPvb
_ZN16audio_utils_fifoD1Ev
_ZN16audio_utils_fifoD2Ev
_ZN21audio_utils_fifo_baseC1EjR22audio_utils_fifo_indexPS0_
_ZN21audio_utils_fifo_baseC2EjR22audio_utils_fifo_indexPS0_
_ZN21audio_utils_fifo_baseD1Ev
_ZN21audio_utils_fifo_baseD2Ev
_ZN22audio_utils_fifo_index11loadAcquireEv
_ZN22audio_utils_fifo_index11loadConsumeEv
_ZN22audio_utils_fifo_index12storeReleaseEj
_ZN22audio_utils_fifo_index4waitEijPK8timespec
_ZN22audio_utils_fifo_index4wakeEii
_ZN23audio_utils_fifo_reader13setHysteresisEij
_ZN23audio_utils_fifo_reader4readEPvjPK8timespecPj
_ZN23audio_utils_fifo_reader5flushEPj
_ZN23audio_utils_fifo_reader6obtainEP17audio_utils_iovecjPK8timespec
_ZN23audio_utils_fifo_reader6obtainEP17audio_utils_iovecjPK8timespecPj
_ZN23audio_utils_fifo_reader7releaseEj
_ZN23audio_utils_fifo_reader9availableEPj
_ZN23audio_utils_fifo_reader9availableEv
_ZN23audio_utils_fifo_readerC1ER16audio_utils_fifobb
_ZN23audio_utils_fifo_readerC2ER16audio_utils_fifobb
_ZN23audio_utils_fifo_readerD0Ev
_ZN23audio_utils_fifo_readerD1Ev
_ZN23audio_utils_fifo_readerD2Ev
_ZN23audio_utils_fifo_writer13setHysteresisEjj
_ZN23audio_utils_fifo_writer5writeEPKvjPK8timespec
_ZN23audio_utils_fifo_writer6obtainEP17audio_utils_iovecjPK8timespec
_ZN23audio_utils_fifo_writer6resizeEj
_ZN23audio_utils_fifo_writer7releaseEj
_ZN23audio_utils_fifo_writer9availableEv
_ZN23audio_utils_fifo_writerC1ER16audio_utils_fifo
_ZN23audio_utils_fifo_writerC2ER16audio_utils_fifo
_ZN23audio_utils_fifo_writerD0Ev
_ZN23audio_utils_fifo_writerD1Ev
_ZN23audio_utils_fifo_writerD2Ev
_ZN25audio_utils_fifo_providerC2ER16audio_utils_fifo
_ZN25audio_utils_fifo_providerD0Ev
_ZN25audio_utils_fifo_providerD1Ev
_ZN25audio_utils_fifo_providerD2Ev
_ZN25audio_utils_fifo_writer325writeEPKij
_ZN25audio_utils_fifo_writer32C1ER16audio_utils_fifo
_ZN25audio_utils_fifo_writer32C2ER16audio_utils_fifo
_ZN25audio_utils_fifo_writer32D1Ev
_ZN25audio_utils_fifo_writer32D2Ev
_ZN37RefIndexCachedLoadAcquireDeferredWait10invalidateEv
_ZN37RefIndexCachedLoadAcquireDeferredWait3getEv
_ZN37RefIndexCachedLoadAcquireDeferredWait4waitEiPK8timespec
_ZN37RefIndexCachedLoadAcquireDeferredWait8prefetchEv
_ZN37RefIndexCachedLoadAcquireDeferredWaitC1ER22audio_utils_fifo_index
_ZN37RefIndexCachedLoadAcquireDeferredWaitC2ER22audio_utils_fifo_index
_ZN37RefIndexCachedLoadAcquireDeferredWaitD1Ev
_ZN37RefIndexCachedLoadAcquireDeferredWaitD2Ev
_ZN40RefIndexDeferredStoreReleaseDeferredWake12wakeDeferredEii
_ZN40RefIndexDeferredStoreReleaseDeferredWake12writethroughEj
_ZN40RefIndexDeferredStoreReleaseDeferredWake15wakeNowIfNeededEv
_ZN40RefIndexDeferredStoreReleaseDeferredWake3setEj
_ZN40RefIndexDeferredStoreReleaseDeferredWake7wakeNowEii
_ZN40RefIndexDeferredStoreReleaseDeferredWake9writebackEv
_ZN40RefIndexDeferredStoreReleaseDeferredWakeC1ER22audio_utils_fifo_index
_ZN40RefIndexDeferredStoreReleaseDeferredWakeC2ER22audio_utils_fifo_index
_ZN40RefIndexDeferredStoreReleaseDeferredWakeD1Ev
_ZN40RefIndexDeferredStoreReleaseDeferredWakeD2Ev
_ZN7android8PowerLog3logEPKvjx
_ZN7android8PowerLogC1Ejj14audio_format_tjj
_ZN7android8PowerLogC2Ejj14audio_format_tjj
_ZNK21audio_utils_fifo_base3sumEjj
_ZNK21audio_utils_fifo_base4diffEjjPjb
_ZNK21audio_utils_fifo_base8shutdownEv
_ZNK23audio_utils_fifo_reader13getHysteresisEPiPj
_ZNK23audio_utils_fifo_writer13getHysteresisEPjS0_
_ZNK23audio_utils_fifo_writer4sizeEv
_ZNK7android8PowerLog12dumpToStringEPKcjx
_ZNK7android8PowerLog4dumpEiPKcjx
_ZTV23audio_utils_fifo_reader
_ZTV23audio_utils_fifo_writer
_ZTV25audio_utils_fifo_provider
accumulate_float
accumulate_i16
accumulate_i32
accumulate_p24
accumulate_q8_23
accumulate_u8
adjust_channels
adjust_selected_channels
audio_utils_compute_energy_mono
audio_utils_compute_power_mono
audio_utils_is_compute_power_format_supported
create_echo_reference
create_resampler
ditherAndClamp
downmix_to_mono_float_from_stereo_float
downmix_to_mono_i16_from_stereo_i16
echo_reference_get_next_buffer
echo_reference_release_buffer
error_log_create
error_log_destroy
error_log_dump
error_log_log
fixed_fft_real
float_from_gain
gain_from_float
limiter
memcpy_by_audio_format
memcpy_by_channel_mask
memcpy_by_index_array
memcpy_by_index_array_initialization
memcpy_by_index_array_initialization_dst_index
memcpy_by_index_array_initialization_from_channel_mask
memcpy_by_index_array_initialization_src_index
memcpy_to_float_from_float_with_clamping
memcpy_to_float_from_i16
memcpy_to_float_from_i32
memcpy_to_float_from_p24
memcpy_to_float_from_q4_27
memcpy_to_float_from_q8_23
memcpy_to_float_from_u8
memcpy_to_i16_from_float
memcpy_to_i16_from_i32
memcpy_to_i16_from_p24
memcpy_to_i16_from_q4_27
memcpy_to_i16_from_q8_23
memcpy_to_i16_from_u8
memcpy_to_i32_from_float
memcpy_to_i32_from_i16
memcpy_to_i32_from_p24
memcpy_to_p24_from_float
memcpy_to_p24_from_i16
memcpy_to_p24_from_i32
memcpy_to_p24_from_q8_23
memcpy_to_q4_27_from_float
memcpy_to_q8_23_from_float_with_clamp
memcpy_to_q8_23_from_i16
memcpy_to_q8_23_from_p24
memcpy_to_u8_from_float
memcpy_to_u8_from_i16
mono_blend
nonZeroMono16
nonZeroMono32
nonZeroStereo16
nonZeroStereo32
power_log_create
power_log_destroy
power_log_dump
power_log_log
release_echo_reference
release_resampler
resampler_resample_from_input
resampler_resample_from_provider
roundup
upmix_to_stereo_float_from_mono_float
upmix_to_stereo_i16_from_mono_i16
