_ZN6google8protobuf10SimpleDtoaEd
_ZN6google8protobuf10SimpleFtoaEf
_ZN6google8protobuf10SimpleItoaEi
_ZN6google8protobuf10SimpleItoaEj
_ZN6google8protobuf10SimpleItoaEl
_ZN6google8protobuf10SimpleItoaEm
_ZN6google8protobuf10SimpleItoaEx
_ZN6google8protobuf10SimpleItoaEy
_ZN6google8protobuf11JoinStringsERKNSt3__16vectorINS1_12basic_stringIcNS1_11char_traitsIcEENS1_9allocatorIcEEEENS6_IS8_EEEEPKcPS8_
_ZN6google8protobuf11LogSilencerC1Ev
_ZN6google8protobuf11LogSilencerC2Ev
_ZN6google8protobuf11LogSilencerD1Ev
_ZN6google8protobuf11LogSilencerD2Ev
_ZN6google8protobuf11MessageLite14ParseFromArrayEPKvi
_ZN6google8protobuf11MessageLite15ParseFromStringERKNSt3__112basic_stringIcNS2_11char_traitsIcEENS2_9allocatorIcEEEE
_ZN6google8protobuf11MessageLite20MergeFromCodedStreamEPNS0_2io16CodedInputStreamE
_ZN6google8protobuf11MessageLite20ParseFromCodedStreamEPNS0_2io16CodedInputStreamE
_ZN6google8protobuf11MessageLite21ParsePartialFromArrayEPKvi
_ZN6google8protobuf11MessageLite22ParsePartialFromStringERKNSt3__112basic_stringIcNS2_11char_traitsIcEENS2_9allocatorIcEEEE
_ZN6google8protobuf11MessageLite23ParseFromZeroCopyStreamEPNS0_2io19ZeroCopyInputStreamE
_ZN6google8protobuf11MessageLite27ParsePartialFromCodedStreamEPNS0_2io16CodedInputStreamE
_ZN6google8protobuf11MessageLite30ParseFromBoundedZeroCopyStreamEPNS0_2io19ZeroCopyInputStreamEi
_ZN6google8protobuf11MessageLite30ParsePartialFromZeroCopyStreamEPNS0_2io19ZeroCopyInputStreamE
_ZN6google8protobuf11MessageLite37ParsePartialFromBoundedZeroCopyStreamEPNS0_2io19ZeroCopyInputStreamEi
_ZN6google8protobuf11MessageLiteD0Ev
_ZN6google8protobuf11MessageLiteD1Ev
_ZN6google8protobuf11MessageLiteD2Ev
_ZN6google8protobuf11StringPiece14ConsumeFromEndES1_
_ZN6google8protobuf11StringPiece18LogFatalSizeTooBigEjPKc
_ZN6google8protobuf11StringPiece4nposE
_ZN6google8protobuf11StringPiece7ConsumeES1_
_ZN6google8protobuf11StringPieceC1ES1_i
_ZN6google8protobuf11StringPieceC1ES1_ii
_ZN6google8protobuf11StringPieceC2ES1_i
_ZN6google8protobuf11StringPieceC2ES1_ii
_ZN6google8protobuf11StripStringEPNSt3__112basic_stringIcNS1_11char_traitsIcEENS1_9allocatorIcEEEEPKcc
_ZN6google8protobuf11kuint128maxE
_ZN6google8protobuf11safe_strtobENS0_11StringPieceEPb
_ZN6google8protobuf11safe_strtodEPKcPd
_ZN6google8protobuf11safe_strtofEPKcPf
_ZN6google8protobuf12Base64EscapeENS0_11StringPieceEPNSt3__112basic_stringIcNS2_11char_traitsIcEENS2_9allocatorIcEEEE
_ZN6google8protobuf12Base64EscapeEPKhiPNSt3__112basic_stringIcNS3_11char_traitsIcEENS3_9allocatorIcEEEEb
_ZN6google8protobuf12Base64EscapeEPKhiPci
_ZN6google8protobuf12StringPrintfEPKcz
_ZN6google8protobuf12safe_strto32ERKNSt3__112basic_stringIcNS1_11char_traitsIcEENS1_9allocatorIcEEEEPi
_ZN6google8protobuf12safe_strto64ERKNSt3__112basic_stringIcNS1_11char_traitsIcEENS1_9allocatorIcEEEEPx
_ZN6google8protobuf13FloatToBufferEfPc
_ZN6google8protobuf13SStringPrintfEPNSt3__112basic_stringIcNS1_11char_traitsIcEENS1_9allocatorIcEEEEPKcz
_ZN6google8protobuf13SetLogHandlerEPFvNS0_8LogLevelEPKciRKNSt3__112basic_stringIcNS4_11char_traitsIcEENS4_9allocatorIcEEEEE
_ZN6google8protobuf13StringAppendFEPNSt3__112basic_stringIcNS1_11char_traitsIcEENS1_9allocatorIcEEEEPKcz
_ZN6google8protobuf13StringAppendVEPNSt3__112basic_stringIcNS1_11char_traitsIcEENS1_9allocatorIcEEEEPKcSt9__va_list
_ZN6google8protobuf13StringReplaceERKNSt3__112basic_stringIcNS1_11char_traitsIcEENS1_9allocatorIcEEEES9_S9_b
_ZN6google8protobuf13StringReplaceERKNSt3__112basic_stringIcNS1_11char_traitsIcEENS1_9allocatorIcEEEES9_S9_bPS7_
_ZN6google8protobuf13safe_strtou32ERKNSt3__112basic_stringIcNS1_11char_traitsIcEENS1_9allocatorIcEEEEPj
_ZN6google8protobuf13safe_strtou64ERKNSt3__112basic_stringIcNS1_11char_traitsIcEENS1_9allocatorIcEEEEPy
_ZN6google8protobuf14Base64UnescapeENS0_11StringPieceEPNSt3__112basic_stringIcNS2_11char_traitsIcEENS2_9allocatorIcEEEE
_ZN6google8protobuf14DoubleToBufferEdPc
_ZN6google8protobuf15CEscapeInternalEPKciPcibb
_ZN6google8protobuf15DelocalizeRadixEPc
_ZN6google8protobuf15FastHexToBufferEiPc
_ZN6google8protobuf15StripWhitespaceEPNSt3__112basic_stringIcNS1_11char_traitsIcEENS1_9allocatorIcEEEE
_ZN6google8protobuf15strto32_adaptorEPKcPPci
_ZN6google8protobuf16CEscapeAndAppendENS0_11StringPieceEPNSt3__112basic_stringIcNS2_11char_traitsIcEENS2_9allocatorIcEEEE
_ZN6google8protobuf16EncodeAsUTF8CharEjPc
_ZN6google8protobuf16SplitStringUsingERKNSt3__112basic_stringIcNS1_11char_traitsIcEENS1_9allocatorIcEEEEPKcPNS1_6vectorIS7_NS5_IS7_EEEE
_ZN6google8protobuf16strtou32_adaptorEPKcPPci
_ZN6google8protobuf17FastHex32ToBufferEjPc
_ZN6google8protobuf17FastHex64ToBufferEyPc
_ZN6google8protobuf17FastInt32ToBufferEiPc
_ZN6google8protobuf17FastInt64ToBufferExPc
_ZN6google8protobuf18GoogleOnceInitImplEPiPNS0_7ClosureE
_ZN6google8protobuf18StringPrintfVectorEPKcRKNSt3__16vectorINS3_12basic_stringIcNS3_11char_traitsIcEENS3_9allocatorIcEEEENS8_ISA_EEEE
_ZN6google8protobuf19WebSafeBase64EscapeENS0_11StringPieceEPNSt3__112basic_stringIcNS2_11char_traitsIcEENS2_9allocatorIcEEEE
_ZN6google8protobuf19WebSafeBase64EscapeEPKhiPNSt3__112basic_stringIcNS3_11char_traitsIcEENS3_9allocatorIcEEEEb
_ZN6google8protobuf19WebSafeBase64EscapeEPKhiPcib
_ZN6google8protobuf20Base64EscapeInternalEPKhiPNSt3__112basic_stringIcNS3_11char_traitsIcEENS3_9allocatorIcEEEEbPKc
_ZN6google8protobuf20Base64EscapeInternalEPKhiPciPKcb
_ZN6google8protobuf21FastInt32ToBufferLeftEiPc
_ZN6google8protobuf21FastInt64ToBufferLeftExPc
_ZN6google8protobuf21SplitStringAllowEmptyERKNSt3__112basic_stringIcNS1_11char_traitsIcEENS1_9allocatorIcEEEEPKcPNS1_6vectorIS7_NS5_IS7_EEEE
_ZN6google8protobuf21UnescapeCEscapeStringERKNSt3__112basic_stringIcNS1_11char_traitsIcEENS1_9allocatorIcEEEE
_ZN6google8protobuf21UnescapeCEscapeStringERKNSt3__112basic_stringIcNS1_11char_traitsIcEENS1_9allocatorIcEEEEPS7_
_ZN6google8protobuf21UnescapeCEscapeStringERKNSt3__112basic_stringIcNS1_11char_traitsIcEENS1_9allocatorIcEEEEPS7_PNS1_6vectorIS7_NS5_IS7_EEEE
_ZN6google8protobuf21WebSafeBase64UnescapeENS0_11StringPieceEPNSt3__112basic_stringIcNS2_11char_traitsIcEENS2_9allocatorIcEEEE
_ZN6google8protobuf21WebSafeBase64UnescapeEPKciPci
_ZN6google8protobuf22Base64UnescapeInternalEPKciPciPKa
_ZN6google8protobuf22FastUInt32ToBufferLeftEjPc
_ZN6google8protobuf22FastUInt64ToBufferLeftEyPc
_ZN6google8protobuf22GlobalReplaceSubstringERKNSt3__112basic_stringIcNS1_11char_traitsIcEENS1_9allocatorIcEEEES9_PS7_
_ZN6google8protobuf23InternalFastHexToBufferEyPci
_ZN6google8protobuf23ShutdownProtobufLibraryEv
_ZN6google8protobuf23UTF8FirstLetterNumBytesEPKci
_ZN6google8protobuf24UnescapeCEscapeSequencesEPKcPc
_ZN6google8protobuf24UnescapeCEscapeSequencesEPKcPcPNSt3__16vectorINS4_12basic_stringIcNS4_11char_traitsIcEENS4_9allocatorIcEEEENS9_ISB_EEEE
_ZN6google8protobuf25CalculateBase64EscapedLenEi
_ZN6google8protobuf25CalculateBase64EscapedLenEib
_ZN6google8protobuf26kStringPrintfVectorMaxArgsE
_ZN6google8protobuf2io16ArrayInputStream4NextEPPKvPi
_ZN6google8protobuf2io16ArrayInputStream4SkipEi
_ZN6google8protobuf2io16ArrayInputStream6BackUpEi
_ZN6google8protobuf2io16ArrayInputStreamC1EPKvii
_ZN6google8protobuf2io16ArrayInputStreamC2EPKvii
_ZN6google8protobuf2io16ArrayInputStreamD0Ev
_ZN6google8protobuf2io16ArrayInputStreamD1Ev
_ZN6google8protobuf2io16ArrayInputStreamD2Ev
_ZN6google8protobuf2io16CodedInputStream10ReadStringEPNSt3__112basic_stringIcNS3_11char_traitsIcEENS3_9allocatorIcEEEEi
_ZN6google8protobuf2io16CodedInputStream11ReadTagSlowEv
_ZN6google8protobuf2io16CodedInputStream15ReadTagFallbackEj
_ZN6google8protobuf2io16CodedInputStream16ReadVarint32SlowEPj
_ZN6google8protobuf2io16CodedInputStream16ReadVarint64SlowEPy
_ZN6google8protobuf2io16CodedInputStream18ReadStringFallbackEPNSt3__112basic_stringIcNS3_11char_traitsIcEENS3_9allocatorIcEEEEi
_ZN6google8protobuf2io16CodedInputStream18SetTotalBytesLimitEii
_ZN6google8protobuf2io16CodedInputStream20ReadVarint32FallbackEj
_ZN6google8protobuf2io16CodedInputStream20ReadVarint64FallbackEv
_ZN6google8protobuf2io16CodedInputStream22GetDirectBufferPointerEPPKvPi
_ZN6google8protobuf2io16CodedInputStream22ReadLengthAndPushLimitEv
_ZN6google8protobuf2io16CodedInputStream24default_recursion_limit_E
_ZN6google8protobuf2io16CodedInputStream25PrintTotalBytesLimitErrorEv
_ZN6google8protobuf2io16CodedInputStream26ReadLittleEndian32FallbackEPj
_ZN6google8protobuf2io16CodedInputStream26ReadLittleEndian64FallbackEPy
_ZN6google8protobuf2io16CodedInputStream28BackUpInputToCurrentPositionEv
_ZN6google8protobuf2io16CodedInputStream34DecrementRecursionDepthAndPopLimitEi
_ZN6google8protobuf2io16CodedInputStream35IncrementRecursionDepthAndPushLimitEi
_ZN6google8protobuf2io16CodedInputStream37CheckEntireMessageConsumedAndPopLimitEi
_ZN6google8protobuf2io16CodedInputStream4SkipEi
_ZN6google8protobuf2io16CodedInputStream7ReadRawEPvi
_ZN6google8protobuf2io16CodedInputStream7RefreshEv
_ZN6google8protobuf2io16CodedInputStream8PopLimitEi
_ZN6google8protobuf2io16CodedInputStream9PushLimitEi
_ZN6google8protobuf2io16CodedInputStreamD1Ev
_ZN6google8protobuf2io16CodedInputStreamD2Ev
_ZN6google8protobuf2io17ArrayOutputStream4NextEPPvPi
_ZN6google8protobuf2io17ArrayOutputStream6BackUpEi
_ZN6google8protobuf2io17ArrayOutputStreamC1EPvii
_ZN6google8protobuf2io17ArrayOutputStreamC2EPvii
_ZN6google8protobuf2io17ArrayOutputStreamD0Ev
_ZN6google8protobuf2io17ArrayOutputStreamD1Ev
_ZN6google8protobuf2io17ArrayOutputStreamD2Ev
_ZN6google8protobuf2io17CodedOutputStream12VarintSize64Ey
_ZN6google8protobuf2io17CodedOutputStream13WriteVarint64Ey
_ZN6google8protobuf2io17CodedOutputStream14EnableAliasingEb
_ZN6google8protobuf2io17CodedOutputStream15WriteAliasedRawEPKvi
_ZN6google8protobuf2io17CodedOutputStream15WriteRawToArrayEPKviPh
_ZN6google8protobuf2io17CodedOutputStream19WriteLittleEndian32Ej
_ZN6google8protobuf2io17CodedOutputStream19WriteLittleEndian64Ey
_ZN6google8protobuf2io17CodedOutputStream20VarintSize32FallbackEj
_ZN6google8protobuf2io17CodedOutputStream20WriteVarint64ToArrayEyPh
_ZN6google8protobuf2io17CodedOutputStream21WriteVarint32SlowPathEj
_ZN6google8protobuf2io17CodedOutputStream22GetDirectBufferPointerEPPvPi
_ZN6google8protobuf2io17CodedOutputStream26WriteStringWithSizeToArrayERKNSt3__112basic_stringIcNS3_11char_traitsIcEENS3_9allocatorIcEEEEPh
_ZN6google8protobuf2io17CodedOutputStream4SkipEi
_ZN6google8protobuf2io17CodedOutputStream4TrimEv
_ZN6google8protobuf2io17CodedOutputStream7RefreshEv
_ZN6google8protobuf2io17CodedOutputStream8WriteRawEPKvi
_ZN6google8protobuf2io17CodedOutputStreamC1EPNS1_20ZeroCopyOutputStreamE
_ZN6google8protobuf2io17CodedOutputStreamC1EPNS1_20ZeroCopyOutputStreamEb
_ZN6google8protobuf2io17CodedOutputStreamC2EPNS1_20ZeroCopyOutputStreamE
_ZN6google8protobuf2io17CodedOutputStreamC2EPNS1_20ZeroCopyOutputStreamEb
_ZN6google8protobuf2io17CodedOutputStreamD1Ev
_ZN6google8protobuf2io17CodedOutputStreamD2Ev
_ZN6google8protobuf2io18CopyingInputStream4SkipEi
_ZN6google8protobuf2io18CopyingInputStreamD0Ev
_ZN6google8protobuf2io18CopyingInputStreamD1Ev
_ZN6google8protobuf2io18CopyingInputStreamD2Ev
_ZN6google8protobuf2io18StringOutputStream4NextEPPvPi
_ZN6google8protobuf2io18StringOutputStream6BackUpEi
_ZN6google8protobuf2io18StringOutputStream9SetStringEPNSt3__112basic_stringIcNS3_11char_traitsIcEENS3_9allocatorIcEEEE
_ZN6google8protobuf2io18StringOutputStreamC1EPNSt3__112basic_stringIcNS3_11char_traitsIcEENS3_9allocatorIcEEEE
_ZN6google8protobuf2io18StringOutputStreamC2EPNSt3__112basic_stringIcNS3_11char_traitsIcEENS3_9allocatorIcEEEE
_ZN6google8protobuf2io18StringOutputStreamD0Ev
_ZN6google8protobuf2io18StringOutputStreamD1Ev
_ZN6google8protobuf2io18StringOutputStreamD2Ev
_ZN6google8protobuf2io19CopyingOutputStreamD0Ev
_ZN6google8protobuf2io19CopyingOutputStreamD1Ev
_ZN6google8protobuf2io19CopyingOutputStreamD2Ev
_ZN6google8protobuf2io19ZeroCopyInputStreamD0Ev
_ZN6google8protobuf2io19ZeroCopyInputStreamD1Ev
_ZN6google8protobuf2io19ZeroCopyInputStreamD2Ev
_ZN6google8protobuf2io20ZeroCopyOutputStream15WriteAliasedRawEPKvi
_ZN6google8protobuf2io20ZeroCopyOutputStreamD0Ev
_ZN6google8protobuf2io20ZeroCopyOutputStreamD1Ev
_ZN6google8protobuf2io20ZeroCopyOutputStreamD2Ev
_ZN6google8protobuf2io22LazyStringOutputStream4NextEPPvPi
_ZN6google8protobuf2io22LazyStringOutputStreamC1EPNS0_14ResultCallbackIPNSt3__112basic_stringIcNS4_11char_traitsIcEENS4_9allocatorIcEEEEEE
_ZN6google8protobuf2io22LazyStringOutputStreamC2EPNS0_14ResultCallbackIPNSt3__112basic_stringIcNS4_11char_traitsIcEENS4_9allocatorIcEEEEEE
_ZN6google8protobuf2io22LazyStringOutputStreamD0Ev
_ZN6google8protobuf2io22LazyStringOutputStreamD1Ev
_ZN6google8protobuf2io22LazyStringOutputStreamD2Ev
_ZN6google8protobuf2io25CopyingInputStreamAdaptor10FreeBufferEv
_ZN6google8protobuf2io25CopyingInputStreamAdaptor22AllocateBufferIfNeededEv
_ZN6google8protobuf2io25CopyingInputStreamAdaptor4NextEPPKvPi
_ZN6google8protobuf2io25CopyingInputStreamAdaptor4SkipEi
_ZN6google8protobuf2io25CopyingInputStreamAdaptor6BackUpEi
_ZN6google8protobuf2io25CopyingInputStreamAdaptorC1EPNS1_18CopyingInputStreamEi
_ZN6google8protobuf2io25CopyingInputStreamAdaptorC2EPNS1_18CopyingInputStreamEi
_ZN6google8protobuf2io25CopyingInputStreamAdaptorD0Ev
_ZN6google8protobuf2io25CopyingInputStreamAdaptorD1Ev
_ZN6google8protobuf2io25CopyingInputStreamAdaptorD2Ev
_ZN6google8protobuf2io26CopyingOutputStreamAdaptor10FreeBufferEv
_ZN6google8protobuf2io26CopyingOutputStreamAdaptor11WriteBufferEv
_ZN6google8protobuf2io26CopyingOutputStreamAdaptor22AllocateBufferIfNeededEv
_ZN6google8protobuf2io26CopyingOutputStreamAdaptor4NextEPPvPi
_ZN6google8protobuf2io26CopyingOutputStreamAdaptor5FlushEv
_ZN6google8protobuf2io26CopyingOutputStreamAdaptor6BackUpEi
_ZN6google8protobuf2io26CopyingOutputStreamAdaptorC1EPNS1_19CopyingOutputStreamEi
_ZN6google8protobuf2io26CopyingOutputStreamAdaptorC2EPNS1_19CopyingOutputStreamEi
_ZN6google8protobuf2io26CopyingOutputStreamAdaptorD0Ev
_ZN6google8protobuf2io26CopyingOutputStreamAdaptorD1Ev
_ZN6google8protobuf2io26CopyingOutputStreamAdaptorD2Ev
_ZN6google8protobuf30WebSafeBase64EscapeWithPaddingENS0_11StringPieceEPNSt3__112basic_stringIcNS2_11char_traitsIcEENS2_9allocatorIcEEEE
_ZN6google8protobuf4util6Status2OKE
_ZN6google8protobuf4util6Status7UNKNOWNE
_ZN6google8protobuf4util6Status9CANCELLEDE
_ZN6google8protobuf4util6StatusC1ENS1_5error4CodeENS0_11StringPieceE
_ZN6google8protobuf4util6StatusC1ERKS2_
_ZN6google8protobuf4util6StatusC1Ev
_ZN6google8protobuf4util6StatusC2ENS1_5error4CodeENS0_11StringPieceE
_ZN6google8protobuf4util6StatusC2ERKS2_
_ZN6google8protobuf4util6StatusC2Ev
_ZN6google8protobuf4util6StatusaSERKS2_
_ZN6google8protobuf4util8internal14StatusOrHelper5CrashERKNS1_6StatusE
_ZN6google8protobuf4utillsERNSt3__113basic_ostreamIcNS2_11char_traitsIcEEEERKNS1_6StatusE
_ZN6google8protobuf5Arena10FreeBlocksEv
_ZN6google8protobuf5Arena11AddListNodeEPvPFvS2_E
_ZN6google8protobuf5Arena11CleanupListEv
_ZN6google8protobuf5Arena12thread_cacheEv
_ZN6google8protobuf5Arena13ResetInternalEv
_ZN6google8protobuf5Arena14AllocFromBlockEPNS1_5BlockEj
_ZN6google8protobuf5Arena15AllocateAlignedEPKSt9type_infoj
_ZN6google8protobuf5Arena16AddBlockInternalEPNS1_5BlockE
_ZN6google8protobuf5Arena23lifecycle_id_generator_E
_ZN6google8protobuf5Arena4InitEv
_ZN6google8protobuf5Arena5ResetEv
_ZN6google8protobuf5Arena8AddBlockEPNS1_5BlockE
_ZN6google8protobuf5Arena8NewBlockEPvPNS1_5BlockEjjj
_ZN6google8protobuf5Arena9FindBlockEPv
_ZN6google8protobuf5Arena9SlowAllocEj
_ZN6google8protobuf5ArenaD1Ev
_ZN6google8protobuf5ArenaD2Ev
_ZN6google8protobuf6StrCatERKNS0_7strings8AlphaNumES4_
_ZN6google8protobuf6StrCatERKNS0_7strings8AlphaNumES4_S4_
_ZN6google8protobuf6StrCatERKNS0_7strings8AlphaNumES4_S4_S4_
_ZN6google8protobuf6StrCatERKNS0_7strings8AlphaNumES4_S4_S4_S4_
_ZN6google8protobuf6StrCatERKNS0_7strings8AlphaNumES4_S4_S4_S4_S4_
_ZN6google8protobuf6StrCatERKNS0_7strings8AlphaNumES4_S4_S4_S4_S4_S4_
_ZN6google8protobuf6StrCatERKNS0_7strings8AlphaNumES4_S4_S4_S4_S4_S4_S4_
_ZN6google8protobuf6StrCatERKNS0_7strings8AlphaNumES4_S4_S4_S4_S4_S4_S4_S4_
_ZN6google8protobuf6ghtonlEj
_ZN6google8protobuf7CEscapeERKNSt3__112basic_stringIcNS1_11char_traitsIcEENS1_9allocatorIcEEEE
_ZN6google8protobuf7ClosureD0Ev
_ZN6google8protobuf7ClosureD1Ev
_ZN6google8protobuf7ClosureD2Ev
_ZN6google8protobuf7strings10ByteSource6CopyToEPNS1_8ByteSinkEj
_ZN6google8protobuf7strings10CHexEscapeERKNSt3__112basic_stringIcNS2_11char_traitsIcEENS2_9allocatorIcEEEE
_ZN6google8protobuf7strings14StringByteSink6AppendEPKcj
_ZN6google8protobuf7strings15ArrayByteSource4PeekEv
_ZN6google8protobuf7strings15ArrayByteSource4SkipEj
_ZN6google8protobuf7strings15LimitByteSource4PeekEv
_ZN6google8protobuf7strings15LimitByteSource4SkipEj
_ZN6google8protobuf7strings15LimitByteSource6CopyToEPNS1_8ByteSinkEj
_ZN6google8protobuf7strings15LimitByteSourceC1EPNS1_10ByteSourceEj
_ZN6google8protobuf7strings15LimitByteSourceC2EPNS1_10ByteSourceEj
_ZN6google8protobuf7strings15Utf8SafeCEscapeERKNSt3__112basic_stringIcNS2_11char_traitsIcEENS2_9allocatorIcEEEE
_ZN6google8protobuf7strings20CheckedArrayByteSink6AppendEPKcj
_ZN6google8protobuf7strings20CheckedArrayByteSinkC1EPcj
_ZN6google8protobuf7strings20CheckedArrayByteSinkC2EPcj
_ZN6google8protobuf7strings20GrowingArrayByteSink11ShrinkToFitEv
_ZN6google8protobuf7strings20GrowingArrayByteSink6AppendEPKcj
_ZN6google8protobuf7strings20GrowingArrayByteSink6ExpandEj
_ZN6google8protobuf7strings20GrowingArrayByteSink9GetBufferEPj
_ZN6google8protobuf7strings20GrowingArrayByteSinkC1Ej
_ZN6google8protobuf7strings20GrowingArrayByteSinkC2Ej
_ZN6google8protobuf7strings20GrowingArrayByteSinkD0Ev
_ZN6google8protobuf7strings20GrowingArrayByteSinkD1Ev
_ZN6google8protobuf7strings20GrowingArrayByteSinkD2Ev
_ZN6google8protobuf7strings22UncheckedArrayByteSink6AppendEPKcj
_ZN6google8protobuf7strings8AlphaNumC1ENS1_3HexE
_ZN6google8protobuf7strings8AlphaNumC2ENS1_3HexE
_ZN6google8protobuf7strings8ByteSink5FlushEv
_ZN6google8protobuf7uint12810DivModImplES1_S1_PS1_S2_
_ZN6google8protobuf7uint128dVERKS1_
_ZN6google8protobuf7uint128rMERKS1_
_ZN6google8protobuf8internal10FormatTimeExi
_ZN6google8protobuf8internal10LogMessage6FinishEv
_ZN6google8protobuf8internal10LogMessageC1ENS0_8LogLevelEPKci
_ZN6google8protobuf8internal10LogMessageC2ENS0_8LogLevelEPKci
_ZN6google8protobuf8internal10LogMessageD1Ev
_ZN6google8protobuf8internal10LogMessageD2Ev
_ZN6google8protobuf8internal10LogMessagelsEPKc
_ZN6google8protobuf8internal10LogMessagelsEPv
_ZN6google8protobuf8internal10LogMessagelsERKNS0_11StringPieceE
_ZN6google8protobuf8internal10LogMessagelsERKNS0_4util6StatusE
_ZN6google8protobuf8internal10LogMessagelsERKNS0_7uint128E
_ZN6google8protobuf8internal10LogMessagelsERKNSt3__112basic_stringIcNS3_11char_traitsIcEENS3_9allocatorIcEEEE
_ZN6google8protobuf8internal10LogMessagelsEc
_ZN6google8protobuf8internal10LogMessagelsEd
_ZN6google8protobuf8internal10LogMessagelsEi
_ZN6google8protobuf8internal10LogMessagelsEj
_ZN6google8protobuf8internal10LogMessagelsEl
_ZN6google8protobuf8internal10LogMessagelsEm
_ZN6google8protobuf8internal10LogMessagelsEx
_ZN6google8protobuf8internal10LogMessagelsEy
_ZN6google8protobuf8internal10OnShutdownEPFvvE
_ZN6google8protobuf8internal11LogFinisheraSERNS1_10LogMessageE
_ZN6google8protobuf8internal12ExtensionSet10AddMessageEihRKNS0_11MessageLiteEPKNS0_15FieldDescriptorE
_ZN6google8protobuf8internal12ExtensionSet10ParseFieldEjPNS0_2io16CodedInputStreamEPKNS0_11MessageLiteE
_ZN6google8protobuf8internal12ExtensionSet10ParseFieldEjPNS0_2io16CodedInputStreamEPKNS0_11MessageLiteEPNS3_17CodedOutputStreamE
_ZN6google8protobuf8internal12ExtensionSet10ParseFieldEjPNS0_2io16CodedInputStreamEPNS1_15ExtensionFinderEPNS1_12FieldSkipperE
_ZN6google8protobuf8internal12ExtensionSet10RemoveLastEi
_ZN6google8protobuf8internal12ExtensionSet11ReleaseLastEi
_ZN6google8protobuf8internal12ExtensionSet12SwapElementsEiii
_ZN6google8protobuf8internal12ExtensionSet13MutableStringEihPKNS0_15FieldDescriptorE
_ZN6google8protobuf8internal12ExtensionSet13SwapExtensionEPS2_i
_ZN6google8protobuf8internal12ExtensionSet14ClearExtensionEi
_ZN6google8protobuf8internal12ExtensionSet14MutableMessageEihRKNS0_11MessageLiteEPKNS0_15FieldDescriptorE
_ZN6google8protobuf8internal12ExtensionSet14ReleaseMessageEiRKNS0_11MessageLiteE
_ZN6google8protobuf8internal12ExtensionSet15SetRepeatedBoolEiib
_ZN6google8protobuf8internal12ExtensionSet15SetRepeatedEnumEiii
_ZN6google8protobuf8internal12ExtensionSet16SetRepeatedFloatEiif
_ZN6google8protobuf8internal12ExtensionSet16SetRepeatedInt32Eiii
_ZN6google8protobuf8internal12ExtensionSet16SetRepeatedInt64Eiix
_ZN6google8protobuf8internal12ExtensionSet17MaybeNewExtensionEiPKNS0_15FieldDescriptorEPPNS2_9ExtensionE
_ZN6google8protobuf8internal12ExtensionSet17RegisterExtensionEPKNS0_11MessageLiteEihbb
_ZN6google8protobuf8internal12ExtensionSet17SetRepeatedDoubleEiid
_ZN6google8protobuf8internal12ExtensionSet17SetRepeatedUInt32Eiij
_ZN6google8protobuf8internal12ExtensionSet17SetRepeatedUInt64Eiiy
_ZN6google8protobuf8internal12ExtensionSet19SetAllocatedMessageEihPKNS0_15FieldDescriptorEPNS0_11MessageLiteE
_ZN6google8protobuf8internal12ExtensionSet21MutableRepeatedStringEii
_ZN6google8protobuf8internal12ExtensionSet21RegisterEnumExtensionEPKNS0_11MessageLiteEihbbPFbiE
_ZN6google8protobuf8internal12ExtensionSet22MutableRepeatedMessageEii
_ZN6google8protobuf8internal12ExtensionSet23MutableRawRepeatedFieldEi
_ZN6google8protobuf8internal12ExtensionSet23MutableRawRepeatedFieldEihbPKNS0_15FieldDescriptorE
_ZN6google8protobuf8internal12ExtensionSet24FindExtensionInfoFromTagEjPNS1_15ExtensionFinderEPiPNS1_13ExtensionInfoEPb
_ZN6google8protobuf8internal12ExtensionSet24RegisterMessageExtensionEPKNS0_11MessageLiteEihbbS5_
_ZN6google8protobuf8internal12ExtensionSet25UnsafeArenaReleaseMessageEiRKNS0_11MessageLiteE
_ZN6google8protobuf8internal12ExtensionSet26InternalExtensionMergeFromEiRKNS2_9ExtensionE
_ZN6google8protobuf8internal12ExtensionSet27ParseFieldWithExtensionInfoEibRKNS1_13ExtensionInfoEPNS0_2io16CodedInputStreamEPNS1_12FieldSkipperE
_ZN6google8protobuf8internal12ExtensionSet30UnsafeArenaSetAllocatedMessageEihPKNS0_15FieldDescriptorEPNS0_11MessageLiteE
_ZN6google8protobuf8internal12ExtensionSet32FindExtensionInfoFromFieldNumberEiiPNS1_15ExtensionFinderEPNS1_13ExtensionInfoEPb
_ZN6google8protobuf8internal12ExtensionSet4SwapEPS2_
_ZN6google8protobuf8internal12ExtensionSet5ClearEv
_ZN6google8protobuf8internal12ExtensionSet7AddBoolEihbbPKNS0_15FieldDescriptorE
_ZN6google8protobuf8internal12ExtensionSet7AddEnumEihbiPKNS0_15FieldDescriptorE
_ZN6google8protobuf8internal12ExtensionSet7SetBoolEihbPKNS0_15FieldDescriptorE
_ZN6google8protobuf8internal12ExtensionSet7SetEnumEihiPKNS0_15FieldDescriptorE
_ZN6google8protobuf8internal12ExtensionSet8AddFloatEihbfPKNS0_15FieldDescriptorE
_ZN6google8protobuf8internal12ExtensionSet8AddInt32EihbiPKNS0_15FieldDescriptorE
_ZN6google8protobuf8internal12ExtensionSet8AddInt64EihbxPKNS0_15FieldDescriptorE
_ZN6google8protobuf8internal12ExtensionSet8SetFloatEihfPKNS0_15FieldDescriptorE
_ZN6google8protobuf8internal12ExtensionSet8SetInt32EihiPKNS0_15FieldDescriptorE
_ZN6google8protobuf8internal12ExtensionSet8SetInt64EihxPKNS0_15FieldDescriptorE
_ZN6google8protobuf8internal12ExtensionSet9AddDoubleEihbdPKNS0_15FieldDescriptorE
_ZN6google8protobuf8internal12ExtensionSet9AddStringEihPKNS0_15FieldDescriptorE
_ZN6google8protobuf8internal12ExtensionSet9AddUInt32EihbjPKNS0_15FieldDescriptorE
_ZN6google8protobuf8internal12ExtensionSet9AddUInt64EihbyPKNS0_15FieldDescriptorE
_ZN6google8protobuf8internal12ExtensionSet9Extension4FreeEv
_ZN6google8protobuf8internal12ExtensionSet9Extension5ClearEv
_ZN6google8protobuf8internal12ExtensionSet9MergeFromERKS2_
_ZN6google8protobuf8internal12ExtensionSet9SetDoubleEihdPKNS0_15FieldDescriptorE
_ZN6google8protobuf8internal12ExtensionSet9SetUInt32EihjPKNS0_15FieldDescriptorE
_ZN6google8protobuf8internal12ExtensionSet9SetUInt64EihyPKNS0_15FieldDescriptorE
_ZN6google8protobuf8internal12ExtensionSetC1EPNS0_5ArenaE
_ZN6google8protobuf8internal12ExtensionSetC1Ev
_ZN6google8protobuf8internal12ExtensionSetC2EPNS0_5ArenaE
_ZN6google8protobuf8internal12ExtensionSetC2Ev
_ZN6google8protobuf8internal12ExtensionSetD1Ev
_ZN6google8protobuf8internal12ExtensionSetD2Ev
_ZN6google8protobuf8internal12FieldSkipper11SkipMessageEPNS0_2io16CodedInputStreamE
_ZN6google8protobuf8internal12FieldSkipper15SkipUnknownEnumEii
_ZN6google8protobuf8internal12FieldSkipper9SkipFieldEPNS0_2io16CodedInputStreamEj
_ZN6google8protobuf8internal13VerifyVersionEiiPKc
_ZN6google8protobuf8internal13VersionStringEi
_ZN6google8protobuf8internal13empty_string_E
_ZN6google8protobuf8internal14ArenaStringPtr17AssignWithDefaultEPKNSt3__112basic_stringIcNS3_11char_traitsIcEENS3_9allocatorIcEEEES2_
_ZN6google8protobuf8internal14GetCurrentTimeEPxPi
_ZN6google8protobuf8internal14NullLogHandlerENS0_8LogLevelEPKciRKNSt3__112basic_stringIcNS5_11char_traitsIcEENS5_9allocatorIcEEEE
_ZN6google8protobuf8internal14WireFormatLite10WriteBytesEiRKNSt3__112basic_stringIcNS3_11char_traitsIcEENS3_9allocatorIcEEEEPNS0_2io17CodedOutputStreamE
_ZN6google8protobuf8internal14WireFormatLite10WriteFloatEifPNS0_2io17CodedOutputStreamE
_ZN6google8protobuf8internal14WireFormatLite10WriteGroupEiRKNS0_11MessageLiteEPNS0_2io17CodedOutputStreamE
_ZN6google8protobuf8internal14WireFormatLite10WriteInt32EiiPNS0_2io17CodedOutputStreamE
_ZN6google8protobuf8internal14WireFormatLite10WriteInt64EixPNS0_2io17CodedOutputStreamE
_ZN6google8protobuf8internal14WireFormatLite11SkipMessageEPNS0_2io16CodedInputStreamE
_ZN6google8protobuf8internal14WireFormatLite11SkipMessageEPNS0_2io16CodedInputStreamEPNS3_17CodedOutputStreamE
_ZN6google8protobuf8internal14WireFormatLite11WriteDoubleEidPNS0_2io17CodedOutputStreamE
_ZN6google8protobuf8internal14WireFormatLite11WriteSInt32EiiPNS0_2io17CodedOutputStreamE
_ZN6google8protobuf8internal14WireFormatLite11WriteSInt64EixPNS0_2io17CodedOutputStreamE
_ZN6google8protobuf8internal14WireFormatLite11WriteStringEiRKNSt3__112basic_stringIcNS3_11char_traitsIcEENS3_9allocatorIcEEEEPNS0_2io17CodedOutputStreamE
_ZN6google8protobuf8internal14WireFormatLite11WriteUInt32EijPNS0_2io17CodedOutputStreamE
_ZN6google8protobuf8internal14WireFormatLite11WriteUInt64EiyPNS0_2io17CodedOutputStreamE
_ZN6google8protobuf8internal14WireFormatLite12WriteFixed32EijPNS0_2io17CodedOutputStreamE
_ZN6google8protobuf8internal14WireFormatLite12WriteFixed64EiyPNS0_2io17CodedOutputStreamE
_ZN6google8protobuf8internal14WireFormatLite12WriteMessageEiRKNS0_11MessageLiteEPNS0_2io17CodedOutputStreamE
_ZN6google8protobuf8internal14WireFormatLite13WriteSFixed32EiiPNS0_2io17CodedOutputStreamE
_ZN6google8protobuf8internal14WireFormatLite13WriteSFixed64EixPNS0_2io17CodedOutputStreamE
_ZN6google8protobuf8internal14WireFormatLite16VerifyUtf8StringEPKciNS2_9OperationES4_
_ZN6google8protobuf8internal14WireFormatLite20kMessageSetTypeIdTagE
_ZN6google8protobuf8internal14WireFormatLite21kMessageSetItemEndTagE
_ZN6google8protobuf8internal14WireFormatLite21kMessageSetMessageTagE
_ZN6google8protobuf8internal14WireFormatLite21kWireTypeForFieldTypeE
_ZN6google8protobuf8internal14WireFormatLite22ReadPackedEnumNoInlineEPNS0_2io16CodedInputStreamEPFbiEPNS0_13RepeatedFieldIiEE
_ZN6google8protobuf8internal14WireFormatLite22WriteBytesMaybeAliasedEiRKNSt3__112basic_stringIcNS3_11char_traitsIcEENS3_9allocatorIcEEEEPNS0_2io17CodedOutputStreamE
_ZN6google8protobuf8internal14WireFormatLite22WriteGroupMaybeToArrayEiRKNS0_11MessageLiteEPNS0_2io17CodedOutputStreamE
_ZN6google8protobuf8internal14WireFormatLite22kFieldTypeToCppTypeMapE
_ZN6google8protobuf8internal14WireFormatLite23WriteStringMaybeAliasedEiRKNSt3__112basic_stringIcNS3_11char_traitsIcEENS3_9allocatorIcEEEEPNS0_2io17CodedOutputStreamE
_ZN6google8protobuf8internal14WireFormatLite23kMessageSetItemStartTagE
_ZN6google8protobuf8internal14WireFormatLite23kMessageSetItemTagsSizeE
_ZN6google8protobuf8internal14WireFormatLite24WriteMessageMaybeToArrayEiRKNS0_11MessageLiteEPNS0_2io17CodedOutputStreamE
_ZN6google8protobuf8internal14WireFormatLite30ReadPackedEnumPreserveUnknownsEPNS0_2io16CodedInputStreamEiPFbiEPNS3_17CodedOutputStreamEPNS0_13RepeatedFieldIiEE
_ZN6google8protobuf8internal14WireFormatLite9ReadBytesEPNS0_2io16CodedInputStreamEPNSt3__112basic_stringIcNS6_11char_traitsIcEENS6_9allocatorIcEEEE
_ZN6google8protobuf8internal14WireFormatLite9ReadBytesEPNS0_2io16CodedInputStreamEPPNSt3__112basic_stringIcNS6_11char_traitsIcEENS6_9allocatorIcEEEE
_ZN6google8protobuf8internal14WireFormatLite9SkipFieldEPNS0_2io16CodedInputStreamEj
_ZN6google8protobuf8internal14WireFormatLite9SkipFieldEPNS0_2io16CodedInputStreamEjPNS3_17CodedOutputStreamE
_ZN6google8protobuf8internal14WireFormatLite9WriteBoolEibPNS0_2io17CodedOutputStreamE
_ZN6google8protobuf8internal14WireFormatLite9WriteEnumEiiPNS0_2io17CodedOutputStreamE
_ZN6google8protobuf8internal15ExtensionFinderD0Ev
_ZN6google8protobuf8internal15ExtensionFinderD1Ev
_ZN6google8protobuf8internal15ExtensionFinderD2Ev
_ZN6google8protobuf8internal15InitEmptyStringEv
_ZN6google8protobuf8internal15UTF8GenericScanEPKNS1_19UTF8StateMachineObjEPKciPi
_ZN6google8protobuf8internal16FunctionClosure0D0Ev
_ZN6google8protobuf8internal16FunctionClosure0D1Ev
_ZN6google8protobuf8internal16FunctionClosure0D2Ev
_ZN6google8protobuf8internal17DateTimeToSecondsERKNS1_8DateTimeEPx
_ZN6google8protobuf8internal17DeleteEmptyStringEv
_ZN6google8protobuf8internal17SecondsToDateTimeExPNS1_8DateTimeE
_ZN6google8protobuf8internal18GenericTypeHandlerINS0_11MessageLiteEE16NewFromPrototypeEPKS3_PNS0_5ArenaE
_ZN6google8protobuf8internal18GenericTypeHandlerINS0_11MessageLiteEE5MergeERKS3_PS3_
_ZN6google8protobuf8internal18GenericTypeHandlerINSt3__112basic_stringIcNS3_11char_traitsIcEENS3_9allocatorIcEEEEE5MergeERKS9_PS9_
_ZN6google8protobuf8internal18shutdown_functionsE
_ZN6google8protobuf8internal20InitLogSilencerCountEv
_ZN6google8protobuf8internal20RepeatedPtrFieldBase14InternalExtendEi
_ZN6google8protobuf8internal20RepeatedPtrFieldBase7ReserveEi
_ZN6google8protobuf8internal20RepeatedPtrFieldBase8CloseGapEii
_ZN6google8protobuf8internal21InitShutdownFunctionsEv
_ZN6google8protobuf8internal22DeleteLogSilencerCountEv
_ZN6google8protobuf8internal23IsStructurallyValidUTF8EPKci
_ZN6google8protobuf8internal23empty_string_once_init_E
_ZN6google8protobuf8internal23shutdown_functions_initE
_ZN6google8protobuf8internal24GeneratedExtensionFinder4FindEiPNS1_13ExtensionInfoE
_ZN6google8protobuf8internal24InitLogSilencerCountOnceEv
_ZN6google8protobuf8internal24RepeatedStringTypeTraits23default_repeated_field_E
_ZN6google8protobuf8internal24RepeatedStringTypeTraits28DestroyDefaultRepeatedFieldsEv
_ZN6google8protobuf8internal24RepeatedStringTypeTraits31InitializeDefaultRepeatedFieldsEv
_ZN6google8protobuf8internal24UTF8GenericScanFastAsciiEPKNS1_19UTF8StateMachineObjEPKciPi
_ZN6google8protobuf8internal24UTF8SpnStructurallyValidERKNS0_11StringPieceE
_ZN6google8protobuf8internal24log_silencer_count_init_E
_ZN6google8protobuf8internal24shutdown_functions_mutexE
_ZN6google8protobuf8internal28StringSpaceUsedExcludingSelfERKNSt3__112basic_stringIcNS2_11char_traitsIcEENS2_9allocatorIcEEEE
_ZN6google8protobuf8internal29CodedOutputStreamFieldSkipper11SkipMessageEPNS0_2io16CodedInputStreamE
_ZN6google8protobuf8internal29CodedOutputStreamFieldSkipper15SkipUnknownEnumEii
_ZN6google8protobuf8internal29CodedOutputStreamFieldSkipper9SkipFieldEPNS0_2io16CodedInputStreamEj
_ZN6google8protobuf8internal29UTF8CoerceToStructurallyValidERKNS0_11StringPieceEPcc
_ZN6google8protobuf8internal32RepeatedMessageGenericTypeTraits23default_repeated_field_E
_ZN6google8protobuf8internal32RepeatedMessageGenericTypeTraits28DestroyDefaultRepeatedFieldsEv
_ZN6google8protobuf8internal32RepeatedMessageGenericTypeTraits31InitializeDefaultRepeatedFieldsEv
_ZN6google8protobuf8internal34RepeatedPrimitiveGenericTypeTraits28DestroyDefaultRepeatedFieldsEv
_ZN6google8protobuf8internal34RepeatedPrimitiveGenericTypeTraits28default_repeated_field_bool_E
_ZN6google8protobuf8internal34RepeatedPrimitiveGenericTypeTraits29default_repeated_field_float_E
_ZN6google8protobuf8internal34RepeatedPrimitiveGenericTypeTraits29default_repeated_field_int32_E
_ZN6google8protobuf8internal34RepeatedPrimitiveGenericTypeTraits29default_repeated_field_int64_E
_ZN6google8protobuf8internal34RepeatedPrimitiveGenericTypeTraits30default_repeated_field_double_E
_ZN6google8protobuf8internal34RepeatedPrimitiveGenericTypeTraits30default_repeated_field_uint32_E
_ZN6google8protobuf8internal34RepeatedPrimitiveGenericTypeTraits30default_repeated_field_uint64_E
_ZN6google8protobuf8internal34RepeatedPrimitiveGenericTypeTraits31InitializeDefaultRepeatedFieldsEv
_ZN6google8protobuf8internal38repeated_string_type_traits_once_init_E
_ZN6google8protobuf8internal3NaNEv
_ZN6google8protobuf8internal47repeated_message_generic_type_traits_once_init_E
_ZN6google8protobuf8internal49repeated_primitive_generic_type_traits_once_init_E
_ZN6google8protobuf8internal5Mutex10AssertHeldEv
_ZN6google8protobuf8internal5Mutex4LockEv
_ZN6google8protobuf8internal5Mutex6UnlockEv
_ZN6google8protobuf8internal5MutexC1Ev
_ZN6google8protobuf8internal5MutexC2Ev
_ZN6google8protobuf8internal5MutexD1Ev
_ZN6google8protobuf8internal5MutexD2Ev
_ZN6google8protobuf8internal8InfinityEv
_ZN6google8protobuf8internal9ParseTimeERKNSt3__112basic_stringIcNS2_11char_traitsIcEENS2_9allocatorIcEEEEPxPi
_ZN6google8protobuf9DoNothingEv
_ZN6google8protobuf9StrAppendEPNSt3__112basic_stringIcNS1_11char_traitsIcEENS1_9allocatorIcEEEERKNS0_7strings8AlphaNumE
_ZN6google8protobuf9StrAppendEPNSt3__112basic_stringIcNS1_11char_traitsIcEENS1_9allocatorIcEEEERKNS0_7strings8AlphaNumESC_
_ZN6google8protobuf9StrAppendEPNSt3__112basic_stringIcNS1_11char_traitsIcEENS1_9allocatorIcEEEERKNS0_7strings8AlphaNumESC_SC_
_ZN6google8protobuf9StrAppendEPNSt3__112basic_stringIcNS1_11char_traitsIcEENS1_9allocatorIcEEEERKNS0_7strings8AlphaNumESC_SC_SC_
_ZN6google8protobuflsERNSt3__113basic_ostreamIcNS1_11char_traitsIcEEEENS0_11StringPieceE
_ZN6google8protobuflsERNSt3__113basic_ostreamIcNS1_11char_traitsIcEEEERKNS0_7uint128E
_ZNK6google8protobuf11MessageLite14AppendToStringEPNSt3__112basic_stringIcNS2_11char_traitsIcEENS2_9allocatorIcEEEE
_ZNK6google8protobuf11MessageLite16SerializeToArrayEPvi
_ZNK6google8protobuf11MessageLite17SerializeAsStringEv
_ZNK6google8protobuf11MessageLite17SerializeToStringEPNSt3__112basic_stringIcNS2_11char_traitsIcEENS2_9allocatorIcEEEE
_ZNK6google8protobuf11MessageLite21AppendPartialToStringEPNSt3__112basic_stringIcNS2_11char_traitsIcEENS2_9allocatorIcEEEE
_ZNK6google8protobuf11MessageLite22SerializeToCodedStreamEPNS0_2io17CodedOutputStreamE
_ZNK6google8protobuf11MessageLite23SerializePartialToArrayEPvi
_ZNK6google8protobuf11MessageLite24SerializePartialAsStringEv
_ZNK6google8protobuf11MessageLite24SerializePartialToStringEPNSt3__112basic_stringIcNS2_11char_traitsIcEENS2_9allocatorIcEEEE
_ZNK6google8protobuf11MessageLite25InitializationErrorStringEv
_ZNK6google8protobuf11MessageLite25SerializeToZeroCopyStreamEPNS0_2io20ZeroCopyOutputStreamE
_ZNK6google8protobuf11MessageLite29SerializePartialToCodedStreamEPNS0_2io17CodedOutputStreamE
_ZNK6google8protobuf11MessageLite31SerializeWithCachedSizesToArrayEPh
_ZNK6google8protobuf11MessageLite32SerializePartialToZeroCopyStreamEPNS0_2io20ZeroCopyOutputStreamE
_ZNK6google8protobuf11MessageLite3NewEPNS0_5ArenaE
_ZNK6google8protobuf11StringPiece12CopyToStringEPNSt3__112basic_stringIcNS2_11char_traitsIcEENS2_9allocatorIcEEEE
_ZNK6google8protobuf11StringPiece12find_last_ofES1_j
_ZNK6google8protobuf11StringPiece13find_first_ofES1_j
_ZNK6google8protobuf11StringPiece14AppendToStringEPNSt3__112basic_stringIcNS2_11char_traitsIcEENS2_9allocatorIcEEEE
_ZNK6google8protobuf11StringPiece16find_last_not_ofES1_j
_ZNK6google8protobuf11StringPiece16find_last_not_ofEcj
_ZNK6google8protobuf11StringPiece17find_first_not_ofES1_j
_ZNK6google8protobuf11StringPiece17find_first_not_ofEcj
_ZNK6google8protobuf11StringPiece4copyEPcjj
_ZNK6google8protobuf11StringPiece4findES1_j
_ZNK6google8protobuf11StringPiece4findEcj
_ZNK6google8protobuf11StringPiece5rfindES1_j
_ZNK6google8protobuf11StringPiece5rfindEcj
_ZNK6google8protobuf11StringPiece6substrEjj
_ZNK6google8protobuf11StringPiece8containsES1_
_ZNK6google8protobuf2io16ArrayInputStream9ByteCountEv
_ZNK6google8protobuf2io16CodedInputStream15BytesUntilLimitEv
_ZNK6google8protobuf2io16CodedInputStream25BytesUntilTotalBytesLimitEv
_ZNK6google8protobuf2io17ArrayOutputStream9ByteCountEv
_ZNK6google8protobuf2io18StringOutputStream9ByteCountEv
_ZNK6google8protobuf2io22LazyStringOutputStream9ByteCountEv
_ZNK6google8protobuf2io25CopyingInputStreamAdaptor9ByteCountEv
_ZNK6google8protobuf2io26CopyingOutputStreamAdaptor9ByteCountEv
_ZNK6google8protobuf4util6Status8ToStringEv
_ZNK6google8protobuf4util6StatuseqERKS2_
_ZNK6google8protobuf5Arena14SpaceAllocatedEv
_ZNK6google8protobuf5Arena21SpaceAllocatedAndUsedEv
_ZNK6google8protobuf5Arena9SpaceUsedEv
_ZNK6google8protobuf7strings15ArrayByteSource9AvailableEv
_ZNK6google8protobuf7strings15LimitByteSource9AvailableEv
_ZNK6google8protobuf8internal12ExtensionSet10GetMessageEiRKNS0_11MessageLiteE
_ZNK6google8protobuf8internal12ExtensionSet13ExtensionSizeEi
_ZNK6google8protobuf8internal12ExtensionSet13ExtensionTypeEi
_ZNK6google8protobuf8internal12ExtensionSet13IsInitializedEv
_ZNK6google8protobuf8internal12ExtensionSet13NumExtensionsEv
_ZNK6google8protobuf8internal12ExtensionSet15GetRepeatedBoolEii
_ZNK6google8protobuf8internal12ExtensionSet15GetRepeatedEnumEii
_ZNK6google8protobuf8internal12ExtensionSet16GetRepeatedFloatEii
_ZNK6google8protobuf8internal12ExtensionSet16GetRepeatedInt32Eii
_ZNK6google8protobuf8internal12ExtensionSet16GetRepeatedInt64Eii
_ZNK6google8protobuf8internal12ExtensionSet17GetRepeatedDoubleEii
_ZNK6google8protobuf8internal12ExtensionSet17GetRepeatedStringEii
_ZNK6google8protobuf8internal12ExtensionSet17GetRepeatedUInt32Eii
_ZNK6google8protobuf8internal12ExtensionSet17GetRepeatedUInt64Eii
_ZNK6google8protobuf8internal12ExtensionSet18GetRepeatedMessageEii
_ZNK6google8protobuf8internal12ExtensionSet19GetRawRepeatedFieldEiPKv
_ZNK6google8protobuf8internal12ExtensionSet24SerializeWithCachedSizesEiiPNS0_2io17CodedOutputStreamE
_ZNK6google8protobuf8internal12ExtensionSet3HasEi
_ZNK6google8protobuf8internal12ExtensionSet7GetBoolEib
_ZNK6google8protobuf8internal12ExtensionSet7GetEnumEii
_ZNK6google8protobuf8internal12ExtensionSet8ByteSizeEv
_ZNK6google8protobuf8internal12ExtensionSet8GetFloatEif
_ZNK6google8protobuf8internal12ExtensionSet8GetInt32Eii
_ZNK6google8protobuf8internal12ExtensionSet8GetInt64Eix
_ZNK6google8protobuf8internal12ExtensionSet9Extension29SerializeFieldWithCachedSizesEiPNS0_2io17CodedOutputStreamE
_ZNK6google8protobuf8internal12ExtensionSet9Extension7GetSizeEv
_ZNK6google8protobuf8internal12ExtensionSet9Extension8ByteSizeEi
_ZNK6google8protobuf8internal12ExtensionSet9GetDoubleEid
_ZNK6google8protobuf8internal12ExtensionSet9GetStringEiRKNSt3__112basic_stringIcNS3_11char_traitsIcEENS3_9allocatorIcEEEE
_ZNK6google8protobuf8internal12ExtensionSet9GetUInt32Eij
_ZNK6google8protobuf8internal12ExtensionSet9GetUInt64Eiy
_ZTVN6google8protobuf11MessageLiteE
_ZTVN6google8protobuf2io16ArrayInputStreamE
_ZTVN6google8protobuf2io17ArrayOutputStreamE
_ZTVN6google8protobuf2io18CopyingInputStreamE
_ZTVN6google8protobuf2io18StringOutputStreamE
_ZTVN6google8protobuf2io19CopyingOutputStreamE
_ZTVN6google8protobuf2io19ZeroCopyInputStreamE
_ZTVN6google8protobuf2io20ZeroCopyOutputStreamE
_ZTVN6google8protobuf2io22LazyStringOutputStreamE
_ZTVN6google8protobuf2io25CopyingInputStreamAdaptorE
_ZTVN6google8protobuf2io26CopyingOutputStreamAdaptorE
_ZTVN6google8protobuf7ClosureE
_ZTVN6google8protobuf7strings10ByteSourceE
_ZTVN6google8protobuf7strings14StringByteSinkE
_ZTVN6google8protobuf7strings15ArrayByteSourceE
_ZTVN6google8protobuf7strings15LimitByteSourceE
_ZTVN6google8protobuf7strings20CheckedArrayByteSinkE
_ZTVN6google8protobuf7strings20GrowingArrayByteSinkE
_ZTVN6google8protobuf7strings22UncheckedArrayByteSinkE
_ZTVN6google8protobuf7strings8ByteSinkE
_ZTVN6google8protobuf8internal12FieldSkipperE
_ZTVN6google8protobuf8internal15ExtensionFinderE
_ZTVN6google8protobuf8internal16FunctionClosure0E
_ZTVN6google8protobuf8internal24GeneratedExtensionFinderE
_ZTVN6google8protobuf8internal29CodedOutputStreamFieldSkipperE
