HIDL_FETCH_IOmx
_ZN7android11MediaImage210initFromV1ERKNS_10MediaImageE
_ZN7android13SoftOMXPlugin19enumerateComponentsEPcjj
_ZN7android13SoftOMXPlugin19getRolesOfComponentEPKcPNS_6VectorINS_7String8EEE
_ZN7android13SoftOMXPlugin21makeComponentInstanceEPKcPK16OMX_CALLBACKTYPEPvPP17OMX_COMPONENTTYPE
_ZN7android13SoftOMXPlugin24destroyComponentInstanceEP17OMX_COMPONENTTYPE
_ZN7android13SoftOMXPluginC1Ev
_ZN7android13SoftOMXPluginC2Ev
_ZN7android15OMXNodeInstance10fillBufferEjRKNS_9OMXBufferEi
_ZN7android15OMXNodeInstance10freeBufferEjj
_ZN7android15OMXNodeInstance10kCallbacksE
_ZN7android15OMXNodeInstance10onMessagesERNSt3__14listINS_11omx_messageENS1_9allocatorIS3_EEEE
_ZN7android15OMXNodeInstance11emptyBufferEjRKNS_9OMXBufferEjxi
_ZN7android15OMXNodeInstance11sendCommandE15OMX_COMMANDTYPEi
_ZN7android15OMXNodeInstance11setPortModeEjNS_4IOMX8PortModeE
_ZN7android15OMXNodeInstance11useBuffer_lEjRKNS_2spINS_7IMemoryEEERKNS1_INS_4hidl6memory4V1_07IMemoryEEEPj
_ZN7android15OMXNodeInstance12findBufferIDEP20OMX_BUFFERHEADERTYPE
_ZN7android15OMXNodeInstance12getParameterE13OMX_INDEXTYPEPvj
_ZN7android15OMXNodeInstance12makeBufferIDEP20OMX_BUFFERHEADERTYPE
_ZN7android15OMXNodeInstance12setParameterE13OMX_INDEXTYPEPKvj
_ZN7android15OMXNodeInstance13emptyBuffer_lEP20OMX_BUFFERHEADERTYPEjxii
_ZN7android15OMXNodeInstance13emptyBuffer_lEjjjjxi
_ZN7android15OMXNodeInstance13handleMessageERNS_11omx_messageE
_ZN7android15OMXNodeInstance14onObserverDiedEv
_ZN7android15OMXNodeInstance14setMaxPtsGapUsEPKvj
_ZN7android15OMXNodeInstance15addActiveBufferEjj
_ZN7android15OMXNodeInstance15dispatchMessageERKNS_11omx_messageE
_ZN7android15OMXNodeInstance15getBufferSourceEv
_ZN7android15OMXNodeInstance15setBufferSourceERKNS_2spINS_16IOMXBufferSourceEEE
_ZN7android15OMXNodeInstance15setInputSurfaceERKNS_2spINS_16IOMXBufferSourceEEE
_ZN7android15OMXNodeInstance16OnFillBufferDoneEPvS1_P20OMX_BUFFERHEADERTYPE
_ZN7android15OMXNodeInstance16bumpDebugLevel_lEjj
_ZN7android15OMXNodeInstance16findBufferHeaderEjj
_ZN7android15OMXNodeInstance17OnEmptyBufferDoneEPvS1_P20OMX_BUFFERHEADERTYPE
_ZN7android15OMXNodeInstance17codecBufferFilledERNS_11omx_messageE
_ZN7android15OMXNodeInstance17freeActiveBuffersEv
_ZN7android15OMXNodeInstance17getCodecTimestampEx
_ZN7android15OMXNodeInstance17getExtensionIndexEPKcP13OMX_INDEXTYPE
_ZN7android15OMXNodeInstance18CallbackDispatcher4loopEv
_ZN7android15OMXNodeInstance18CallbackDispatcher4postERKNS_11omx_messageEb
_ZN7android15OMXNodeInstance18CallbackDispatcher8dispatchERNSt3__14listINS_11omx_messageENS2_9allocatorIS4_EEEE
_ZN7android15OMXNodeInstance18CallbackDispatcherC1ERKNS_2spIS0_EE
_ZN7android15OMXNodeInstance18CallbackDispatcherC2ERKNS_2spIS0_EE
_ZN7android15OMXNodeInstance18CallbackDispatcherD0Ev
_ZN7android15OMXNodeInstance18CallbackDispatcherD1Ev
_ZN7android15OMXNodeInstance18CallbackDispatcherD2Ev
_ZN7android15OMXNodeInstance18invalidateBufferIDEj
_ZN7android15OMXNodeInstance18removeActiveBufferEjj
_ZN7android15OMXNodeInstance18storeFenceInMeta_lEP20OMX_BUFFERHEADERTYPEij
_ZN7android15OMXNodeInstance18unbumpDebugLevel_lEj
_ZN7android15OMXNodeInstance18useGraphicBuffer_lEjRKNS_2spINS_13GraphicBufferEEEPj
_ZN7android15OMXNodeInstance19isProhibitedIndex_lE13OMX_INDEXTYPE
_ZN7android15OMXNodeInstance19useGraphicBuffer2_lEjRKNS_2spINS_13GraphicBufferEEEPj
_ZN7android15OMXNodeInstance20allocateSecureBufferEjjPjPPvPNS_2spINS_12NativeHandleEEE
_ZN7android15OMXNodeInstance20emptyGraphicBuffer_lEjRKNS_2spINS_13GraphicBufferEEEjxi
_ZN7android15OMXNodeInstance21enableNativeBuffers_lEj8OMX_BOOLS1_
_ZN7android15OMXNodeInstance21getGraphicBufferUsageEjPj
_ZN7android15OMXNodeInstance22handleDataSpaceChangedERNS_11omx_messageE
_ZN7android15OMXNodeInstance23retrieveFenceFromMeta_lEP20OMX_BUFFERHEADERTYPEj
_ZN7android15OMXNodeInstance24CallbackDispatcherThread10threadLoopEv
_ZN7android15OMXNodeInstance24configureVideoTunnelModeEj8OMX_BOOLjPP13native_handle
_ZN7android15OMXNodeInstance24storeMetaDataInBuffers_lEj8OMX_BOOLPNS_18MetadataBufferTypeE
_ZN7android15OMXNodeInstance25emptyNativeHandleBuffer_lEjRKNS_2spINS_12NativeHandleEEEjxi
_ZN7android15OMXNodeInstance26prepareForAdaptivePlaybackEj8OMX_BOOLjj
_ZN7android15OMXNodeInstance26updateNativeHandleInMeta_lEjRKNS_2spINS_12NativeHandleEEEjP20OMX_BUFFERHEADERTYPE
_ZN7android15OMXNodeInstance27updateGraphicBufferInMeta_lEjRKNS_2spINS_13GraphicBufferEEEjP20OMX_BUFFERHEADERTYPE
_ZN7android15OMXNodeInstance30useGraphicBufferWithMetadata_lEjRKNS_2spINS_13GraphicBufferEEEPj
_ZN7android15OMXNodeInstance6handleEv
_ZN7android15OMXNodeInstance7OnEventEPvS1_13OMX_EVENTTYPEjjS1_
_ZN7android15OMXNodeInstance7onEventE13OMX_EVENTTYPEjj
_ZN7android15OMXNodeInstance8freeNodeEv
_ZN7android15OMXNodeInstance8observerEv
_ZN7android15OMXNodeInstance9getConfigE13OMX_INDEXTYPEPvj
_ZN7android15OMXNodeInstance9setConfigE13OMX_INDEXTYPEPKvj
_ZN7android15OMXNodeInstance9setHandleEPv
_ZN7android15OMXNodeInstance9setQuirksEj
_ZN7android15OMXNodeInstance9useBufferEjRKNS_9OMXBufferEPj
_ZN7android15OMXNodeInstanceC1EPNS_8hardware5media3omx4V1_014implementation3OmxERKNS_2spINS_12IOMXObserverEEEPKc
_ZN7android15OMXNodeInstanceC2EPNS_8hardware5media3omx4V1_014implementation3OmxERKNS_2spINS_12IOMXObserverEEEPKc
_ZN7android15OMXNodeInstanceD0Ev
_ZN7android15OMXNodeInstanceD1Ev
_ZN7android15OMXNodeInstanceD2Ev
_ZN7android16GetComponentRoleEbPKc
_ZN7android16SetComponentRoleERKNS_2spINS_8IOMXNodeEEEPKc
_ZN7android16SoftOMXComponent10freeBufferEjP20OMX_BUFFERHEADERTYPE
_ZN7android16SoftOMXComponent11sendCommandE15OMX_COMMANDTYPEjPv
_ZN7android16SoftOMXComponent12getParameterE13OMX_INDEXTYPEPv
_ZN7android16SoftOMXComponent12setLibHandleEPv
_ZN7android16SoftOMXComponent12setParameterE13OMX_INDEXTYPEPv
_ZN7android16SoftOMXComponent14allocateBufferEPP20OMX_BUFFERHEADERTYPEjPvj
_ZN7android16SoftOMXComponent14fillThisBufferEP20OMX_BUFFERHEADERTYPE
_ZN7android16SoftOMXComponent15GetStateWrapperEPvP13OMX_STATETYPE
_ZN7android16SoftOMXComponent15emptyThisBufferEP20OMX_BUFFERHEADERTYPE
_ZN7android16SoftOMXComponent16GetConfigWrapperEPv13OMX_INDEXTYPES1_
_ZN7android16SoftOMXComponent16SetConfigWrapperEPv13OMX_INDEXTYPES1_
_ZN7android16SoftOMXComponent16UseBufferWrapperEPvPP20OMX_BUFFERHEADERTYPEjS1_jPh
_ZN7android16SoftOMXComponent17FreeBufferWrapperEPvjP20OMX_BUFFERHEADERTYPE
_ZN7android16SoftOMXComponent17getExtensionIndexEPKcP13OMX_INDEXTYPE
_ZN7android16SoftOMXComponent18SendCommandWrapperEPv15OMX_COMMANDTYPEjS1_
_ZN7android16SoftOMXComponent19GetParameterWrapperEPv13OMX_INDEXTYPES1_
_ZN7android16SoftOMXComponent19SetParameterWrapperEPv13OMX_INDEXTYPES1_
_ZN7android16SoftOMXComponent20notifyFillBufferDoneEP20OMX_BUFFERHEADERTYPE
_ZN7android16SoftOMXComponent21AllocateBufferWrapperEPvPP20OMX_BUFFERHEADERTYPEjS1_j
_ZN7android16SoftOMXComponent21FillThisBufferWrapperEPvP20OMX_BUFFERHEADERTYPE
_ZN7android16SoftOMXComponent21notifyEmptyBufferDoneEP20OMX_BUFFERHEADERTYPE
_ZN7android16SoftOMXComponent22EmptyThisBufferWrapperEPvP20OMX_BUFFERHEADERTYPE
_ZN7android16SoftOMXComponent24GetExtensionIndexWrapperEPvPcP13OMX_INDEXTYPE
_ZN7android16SoftOMXComponent6notifyE13OMX_EVENTTYPEjjPv
_ZN7android16SoftOMXComponent8getStateEP13OMX_STATETYPE
_ZN7android16SoftOMXComponent9getConfigE13OMX_INDEXTYPEPv
_ZN7android16SoftOMXComponent9setConfigE13OMX_INDEXTYPEPv
_ZN7android16SoftOMXComponent9useBufferEPP20OMX_BUFFERHEADERTYPEjPvjPh
_ZN7android16SoftOMXComponentC1EPKcPK16OMX_CALLBACKTYPEPvPP17OMX_COMPONENTTYPE
_ZN7android16SoftOMXComponentC2EPKcPK16OMX_CALLBACKTYPEPvPP17OMX_COMPONENTTYPE
_ZN7android16SoftOMXComponentD0Ev
_ZN7android16SoftOMXComponentD1Ev
_ZN7android16SoftOMXComponentD2Ev
_ZN7android18StatusFromOMXErrorE13OMX_ERRORTYPE
_ZN7android19DescribeColorFormatERKNS_2spINS_8IOMXNodeEEERNS_26DescribeColorFormat2ParamsE
_ZN7android21BWGraphicBufferSource10setSuspendEbx
_ZN7android21BWGraphicBufferSource13setStopTimeUsEx
_ZN7android21BWGraphicBufferSource14setStartTimeUsEx
_ZN7android21BWGraphicBufferSource15setColorAspectsEi
_ZN7android21BWGraphicBufferSource15setTimeOffsetUsEx
_ZN7android21BWGraphicBufferSource18setTimeLapseConfigEdd
_ZN7android21BWGraphicBufferSource19getStopTimeOffsetUsEPx
_ZN7android21BWGraphicBufferSource22signalEndOfInputStreamEv
_ZN7android21BWGraphicBufferSource29setRepeatPreviousFrameDelayUsEx
_ZN7android21BWGraphicBufferSource9configureERKNS_2spINS_8IOMXNodeEEEi
_ZN7android21BWGraphicBufferSource9setMaxFpsEf
_ZN7android21BWGraphicBufferSourceC1ERKNS_2spINS_22OmxGraphicBufferSourceEEE
_ZN7android21BWGraphicBufferSourceC2ERKNS_2spINS_22OmxGraphicBufferSourceEEE
_ZN7android21IsFlexibleColorFormatERKNS_2spINS_8IOMXNodeEEEjbPj
_ZN7android22OmxGraphicBufferSource11onOmxLoadedEv
_ZN7android22OmxGraphicBufferSource14onOmxExecutingEv
_ZN7android22OmxGraphicBufferSource9configureERKNS_2spINS_15IOmxNodeWrapperEEEiijjj
_ZN7android22OmxGraphicBufferSource9onOmxIdleEv
_ZN7android22SimpleSoftOMXComponent10freeBufferEjP20OMX_BUFFERHEADERTYPE
_ZN7android22SimpleSoftOMXComponent11onPortFlushEjb
_ZN7android22SimpleSoftOMXComponent11sendCommandE15OMX_COMMANDTYPEjPv
_ZN7android22SimpleSoftOMXComponent12editPortInfoEj
_ZN7android22SimpleSoftOMXComponent12getParameterE13OMX_INDEXTYPEPv
_ZN7android22SimpleSoftOMXComponent12getPortQueueEj
_ZN7android22SimpleSoftOMXComponent12onPortEnableEjb
_ZN7android22SimpleSoftOMXComponent12setParameterE13OMX_INDEXTYPEPv
_ZN7android22SimpleSoftOMXComponent13onChangeStateE13OMX_STATETYPE
_ZN7android22SimpleSoftOMXComponent13onQueueFilledEj
_ZN7android22SimpleSoftOMXComponent13onSendCommandE15OMX_COMMANDTYPEj
_ZN7android22SimpleSoftOMXComponent14allocateBufferEPP20OMX_BUFFERHEADERTYPEjPvj
_ZN7android22SimpleSoftOMXComponent14fillThisBufferEP20OMX_BUFFERHEADERTYPE
_ZN7android22SimpleSoftOMXComponent15emptyThisBufferEP20OMX_BUFFERHEADERTYPE
_ZN7android22SimpleSoftOMXComponent16checkTransitionsEv
_ZN7android22SimpleSoftOMXComponent17onMessageReceivedERKNS_2spINS_8AMessageEEE
_ZN7android22SimpleSoftOMXComponent20internalGetParameterE13OMX_INDEXTYPEPv
_ZN7android22SimpleSoftOMXComponent20internalSetParameterE13OMX_INDEXTYPEPv
_ZN7android22SimpleSoftOMXComponent20onPortFlushCompletedEj
_ZN7android22SimpleSoftOMXComponent21onPortEnableCompletedEjb
_ZN7android22SimpleSoftOMXComponent21prepareForDestructionEv
_ZN7android22SimpleSoftOMXComponent7addPortERK28OMX_PARAM_PORTDEFINITIONTYPE
_ZN7android22SimpleSoftOMXComponent7onResetEv
_ZN7android22SimpleSoftOMXComponent8getStateEP13OMX_STATETYPE
_ZN7android22SimpleSoftOMXComponent9useBufferEPP20OMX_BUFFERHEADERTYPEjPvjPh
_ZN7android22SimpleSoftOMXComponentC1EPKcPK16OMX_CALLBACKTYPEPvPP17OMX_COMPONENTTYPE
_ZN7android22SimpleSoftOMXComponentC2EPKcPK16OMX_CALLBACKTYPEPvPP17OMX_COMPONENTTYPE
_ZN7android25DescribeColorFormatParamsC1ERKNS_26DescribeColorFormat2ParamsE
_ZN7android25DescribeColorFormatParamsC2ERKNS_26DescribeColorFormat2ParamsE
_ZN7android26DescribeColorFormat2Params10initFromV1ERKNS_25DescribeColorFormatParamsE
_ZN7android26DescribeDefaultColorFormatERNS_26DescribeColorFormat2ParamsE
_ZN7android28SoftVideoDecoderOMXComponent16dumpColorAspectsERKNS_12ColorAspectsE
_ZN7android28SoftVideoDecoderOMXComponent17getExtensionIndexEPKcP13OMX_INDEXTYPE
_ZN7android28SoftVideoDecoderOMXComponent17outputBufferWidthEv
_ZN7android28SoftVideoDecoderOMXComponent18colorAspectsDifferERKNS_12ColorAspectsES3_
_ZN7android28SoftVideoDecoderOMXComponent18outputBufferHeightEv
_ZN7android28SoftVideoDecoderOMXComponent20internalGetParameterE13OMX_INDEXTYPEPv
_ZN7android28SoftVideoDecoderOMXComponent20internalSetParameterE13OMX_INDEXTYPEPv
_ZN7android28SoftVideoDecoderOMXComponent21onPortEnableCompletedEjb
_ZN7android28SoftVideoDecoderOMXComponent21updatePortDefinitionsEbb
_ZN7android28SoftVideoDecoderOMXComponent23updateFinalColorAspectsERKNS_12ColorAspectsES3_
_ZN7android28SoftVideoDecoderOMXComponent24getColorAspectPreferenceEv
_ZN7android28SoftVideoDecoderOMXComponent24handleColorAspectsChangeEv
_ZN7android28SoftVideoDecoderOMXComponent24handlePortSettingsChangeEPbjj20OMX_COLOR_FORMATTYPENS0_16CropSettingsModeEb
_ZN7android28SoftVideoDecoderOMXComponent27copyYV12FrameToOutputBufferEPhPKhS3_S3_jjj
_ZN7android28SoftVideoDecoderOMXComponent28supportDescribeHdrStaticInfoEv
_ZN7android28SoftVideoDecoderOMXComponent28supportsDescribeColorAspectsEv
_ZN7android28SoftVideoDecoderOMXComponent7onResetEv
_ZN7android28SoftVideoDecoderOMXComponent9getConfigE13OMX_INDEXTYPEPv
_ZN7android28SoftVideoDecoderOMXComponent9initPortsEjjjPKcj
_ZN7android28SoftVideoDecoderOMXComponent9initPortsEjjjjjPKcj
_ZN7android28SoftVideoDecoderOMXComponent9setConfigE13OMX_INDEXTYPEPv
_ZN7android28SoftVideoDecoderOMXComponentC1EPKcS2_20OMX_VIDEO_CODINGTYPEPKNS_17CodecProfileLevelEjiiPK16OMX_CALLBACKTYPEPvPP17OMX_COMPONENTTYPE
_ZN7android28SoftVideoDecoderOMXComponentC2EPKcS2_20OMX_VIDEO_CODINGTYPEPKNS_17CodecProfileLevelEjiiPK16OMX_CALLBACKTYPEPvPP17OMX_COMPONENTTYPE
_ZN7android28SoftVideoEncoderOMXComponent16updatePortParamsEv
_ZN7android28SoftVideoEncoderOMXComponent17getExtensionIndexEPKcP13OMX_INDEXTYPE
_ZN7android28SoftVideoEncoderOMXComponent19validateInputBufferEPK20OMX_BUFFERHEADERTYPE
_ZN7android28SoftVideoEncoderOMXComponent20ConvertRGB32ToPlanarEPhjjPKhjjjb
_ZN7android28SoftVideoEncoderOMXComponent20internalGetParameterE13OMX_INDEXTYPEPv
_ZN7android28SoftVideoEncoderOMXComponent20internalSetParameterE13OMX_INDEXTYPEPv
_ZN7android28SoftVideoEncoderOMXComponent21internalSetPortParamsEPK28OMX_PARAM_PORTDEFINITIONTYPE
_ZN7android28SoftVideoEncoderOMXComponent22ConvertFlexYUVToPlanarEPhjjP13android_ycbcrii
_ZN7android28SoftVideoEncoderOMXComponent37ConvertYUV420SemiPlanarToYUV420PlanarEPKhPhii
_ZN7android28SoftVideoEncoderOMXComponent9initPortsEjjjPKcj
_ZN7android28SoftVideoEncoderOMXComponentC1EPKcS2_20OMX_VIDEO_CODINGTYPEPKNS_17CodecProfileLevelEjiiPK16OMX_CALLBACKTYPEPvPP17OMX_COMPONENTTYPE
_ZN7android28SoftVideoEncoderOMXComponentC2EPKcS2_20OMX_VIDEO_CODINGTYPEPKNS_17CodecProfileLevelEjiiPK16OMX_CALLBACKTYPEPvPP17OMX_COMPONENTTYPE
_ZN7android8hardware5media3omx4V1_014implementation13LWOmxObserver10onMessagesERKNSt3__14listINS_11omx_messageENS6_9allocatorIS8_EEEE
_ZN7android8hardware5media3omx4V1_014implementation13LWOmxObserverC1ERKNS_2spINS3_12IOmxObserverEEE
_ZN7android8hardware5media3omx4V1_014implementation13LWOmxObserverC2ERKNS_2spINS3_12IOmxObserverEEE
_ZN7android8hardware5media3omx4V1_014implementation13TWOmxObserver10onMessagesERKNS0_8hidl_vecINS3_7MessageEEE
_ZN7android8hardware5media3omx4V1_014implementation13TWOmxObserverC1ERKNS_2spINS_12IOMXObserverEEE
_ZN7android8hardware5media3omx4V1_014implementation13TWOmxObserverC2ERKNS_2spINS_12IOMXObserverEEE
_ZN7android8hardware5media3omx4V1_014implementation17LWOmxBufferSource11onOmxLoadedEv
_ZN7android8hardware5media3omx4V1_014implementation17LWOmxBufferSource14onOmxExecutingEv
_ZN7android8hardware5media3omx4V1_014implementation17LWOmxBufferSource18onInputBufferAddedEi
_ZN7android8hardware5media3omx4V1_014implementation17LWOmxBufferSource20onInputBufferEmptiedEiRKNS_18OMXFenceParcelableE
_ZN7android8hardware5media3omx4V1_014implementation17LWOmxBufferSource9onOmxIdleEv
_ZN7android8hardware5media3omx4V1_014implementation17LWOmxBufferSourceC1ERKNS_2spINS3_16IOmxBufferSourceEEE
_ZN7android8hardware5media3omx4V1_014implementation17LWOmxBufferSourceC2ERKNS_2spINS3_16IOmxBufferSourceEEE
_ZN7android8hardware5media3omx4V1_014implementation17TWOmxBufferSource11onOmxLoadedEv
_ZN7android8hardware5media3omx4V1_014implementation17TWOmxBufferSource14onOmxExecutingEv
_ZN7android8hardware5media3omx4V1_014implementation17TWOmxBufferSource18onInputBufferAddedEj
_ZN7android8hardware5media3omx4V1_014implementation17TWOmxBufferSource20onInputBufferEmptiedEjRKNS0_11hidl_handleE
_ZN7android8hardware5media3omx4V1_014implementation17TWOmxBufferSource9onOmxIdleEv
_ZN7android8hardware5media3omx4V1_014implementation17TWOmxBufferSourceC1ERKNS_2spINS_16IOMXBufferSourceEEE
_ZN7android8hardware5media3omx4V1_014implementation17TWOmxBufferSourceC2ERKNS_2spINS_16IOMXBufferSourceEEE
_ZN7android8hardware5media3omx4V1_014implementation21TWGraphicBufferSource10setSuspendEbx
_ZN7android8hardware5media3omx4V1_014implementation21TWGraphicBufferSource13setStopTimeUsEx
_ZN7android8hardware5media3omx4V1_014implementation21TWGraphicBufferSource14setStartTimeUsEx
_ZN7android8hardware5media3omx4V1_014implementation21TWGraphicBufferSource15setColorAspectsERKNS3_12ColorAspectsE
_ZN7android8hardware5media3omx4V1_014implementation21TWGraphicBufferSource15setTimeOffsetUsEx
_ZN7android8hardware5media3omx4V1_014implementation21TWGraphicBufferSource18setTimeLapseConfigEdd
_ZN7android8hardware5media3omx4V1_014implementation21TWGraphicBufferSource19getStopTimeOffsetUsENSt3__18functionIFvNS3_6StatusExEEE
_ZN7android8hardware5media3omx4V1_014implementation21TWGraphicBufferSource22signalEndOfInputStreamEv
_ZN7android8hardware5media3omx4V1_014implementation21TWGraphicBufferSource29setRepeatPreviousFrameDelayUsEx
_ZN7android8hardware5media3omx4V1_014implementation21TWGraphicBufferSource9configureERKNS_2spINS3_8IOmxNodeEEENS0_8graphics6common4V1_09DataspaceE
_ZN7android8hardware5media3omx4V1_014implementation21TWGraphicBufferSource9setMaxFpsEf
_ZN7android8hardware5media3omx4V1_014implementation21TWGraphicBufferSourceC1ERKNS_2spINS_22OmxGraphicBufferSourceEEE
_ZN7android8hardware5media3omx4V1_014implementation21TWGraphicBufferSourceC2ERKNS_2spINS_22OmxGraphicBufferSourceEEE
_ZN7android8hardware5media3omx4V1_014implementation3Omx11serviceDiedEyRKNS_2wpINS_4hidl4base4V1_05IBaseEEE
_ZN7android8hardware5media3omx4V1_014implementation3Omx12allocateNodeERKNS0_11hidl_stringERKNS_2spINS3_12IOmxObserverEEENSt3__18functionIFvNS3_6StatusERKNS9_INS3_8IOmxNodeEEEEEE
_ZN7android8hardware5media3omx4V1_014implementation3Omx18createInputSurfaceENSt3__18functionIFvNS3_6StatusERKNS_2spINS0_8graphics11bufferqueue4V1_022IGraphicBufferProducerEEERKNS9_INS3_20IGraphicBufferSourceEEEEEE
_ZN7android8hardware5media3omx4V1_014implementation3Omx8freeNodeERKNS_2spINS_15OMXNodeInstanceEEE
_ZN7android8hardware5media3omx4V1_014implementation3Omx9listNodesENSt3__18functionIFvNS3_6StatusERKNS0_8hidl_vecINS3_4IOmx13ComponentInfoEEEEEE
_ZN7android8hardware5media3omx4V1_014implementation3OmxC1Ev
_ZN7android8hardware5media3omx4V1_014implementation3OmxC2Ev
_ZN7android8hardware5media3omx4V1_014implementation3OmxD0Ev
_ZN7android8hardware5media3omx4V1_014implementation3OmxD1Ev
_ZN7android8hardware5media3omx4V1_014implementation3OmxD2Ev
_ZN7android8hardware5media3omx4V1_014implementation8OmxStore13getNodePrefixENSt3__18functionIFvRKNS0_11hidl_stringEEEE
_ZN7android8hardware5media3omx4V1_014implementation8OmxStore21listServiceAttributesENSt3__18functionIFvNS3_6StatusERKNS0_8hidl_vecINS3_9IOmxStore9AttributeEEEEEE
_ZN7android8hardware5media3omx4V1_014implementation8OmxStore6getOmxERKNS0_11hidl_stringE
_ZN7android8hardware5media3omx4V1_014implementation8OmxStore9listRolesENSt3__18functionIFvRKNS0_8hidl_vecINS3_9IOmxStore8RoleInfoEEEEEE
_ZN7android8hardware5media3omx4V1_014implementation8OmxStoreC1EPKcPKS7_S7_S7_S7_
_ZN7android8hardware5media3omx4V1_014implementation8OmxStoreC2EPKcPKS7_S7_S7_S7_
_ZN7android8hardware5media3omx4V1_014implementation8OmxStoreD0Ev
_ZN7android8hardware5media3omx4V1_014implementation8OmxStoreD1Ev
_ZN7android8hardware5media3omx4V1_014implementation8OmxStoreD2Ev
_ZN7android8hardware5media3omx4V1_014implementation9LWOmxNode10fillBufferEjRKNS_9OMXBufferEi
_ZN7android8hardware5media3omx4V1_014implementation9LWOmxNode10freeBufferEjj
_ZN7android8hardware5media3omx4V1_014implementation9LWOmxNode11emptyBufferEjRKNS_9OMXBufferEjxi
_ZN7android8hardware5media3omx4V1_014implementation9LWOmxNode11sendCommandE15OMX_COMMANDTYPEi
_ZN7android8hardware5media3omx4V1_014implementation9LWOmxNode11setPortModeEjNS_4IOMX8PortModeE
_ZN7android8hardware5media3omx4V1_014implementation9LWOmxNode12getParameterE13OMX_INDEXTYPEPvj
_ZN7android8hardware5media3omx4V1_014implementation9LWOmxNode12setParameterE13OMX_INDEXTYPEPKvj
_ZN7android8hardware5media3omx4V1_014implementation9LWOmxNode15dispatchMessageERKNS_11omx_messageE
_ZN7android8hardware5media3omx4V1_014implementation9LWOmxNode15setInputSurfaceERKNS_2spINS_16IOMXBufferSourceEEE
_ZN7android8hardware5media3omx4V1_014implementation9LWOmxNode17getExtensionIndexEPKcP13OMX_INDEXTYPE
_ZN7android8hardware5media3omx4V1_014implementation9LWOmxNode20allocateSecureBufferEjjPjPPvPNS_2spINS_12NativeHandleEEE
_ZN7android8hardware5media3omx4V1_014implementation9LWOmxNode21getGraphicBufferUsageEjPj
_ZN7android8hardware5media3omx4V1_014implementation9LWOmxNode24configureVideoTunnelModeEj8OMX_BOOLjPP13native_handle
_ZN7android8hardware5media3omx4V1_014implementation9LWOmxNode26prepareForAdaptivePlaybackEj8OMX_BOOLjj
_ZN7android8hardware5media3omx4V1_014implementation9LWOmxNode8freeNodeEv
_ZN7android8hardware5media3omx4V1_014implementation9LWOmxNode9getConfigE13OMX_INDEXTYPEPvj
_ZN7android8hardware5media3omx4V1_014implementation9LWOmxNode9setConfigE13OMX_INDEXTYPEPKvj
_ZN7android8hardware5media3omx4V1_014implementation9LWOmxNode9useBufferEjRKNS_9OMXBufferEPj
_ZN7android8hardware5media3omx4V1_014implementation9LWOmxNodeC1ERKNS_2spINS3_8IOmxNodeEEE
_ZN7android8hardware5media3omx4V1_014implementation9LWOmxNodeC2ERKNS_2spINS3_8IOmxNodeEEE
_ZN7android8hardware5media3omx4V1_014implementation9TWOmxNode10fillBufferEjRKNS3_11CodecBufferERKNS0_11hidl_handleE
_ZN7android8hardware5media3omx4V1_014implementation9TWOmxNode10freeBufferEjj
_ZN7android8hardware5media3omx4V1_014implementation9TWOmxNode11emptyBufferEjRKNS3_11CodecBufferEjyRKNS0_11hidl_handleE
_ZN7android8hardware5media3omx4V1_014implementation9TWOmxNode11sendCommandEji
_ZN7android8hardware5media3omx4V1_014implementation9TWOmxNode11setPortModeEjNS3_8PortModeE
_ZN7android8hardware5media3omx4V1_014implementation9TWOmxNode12getParameterEjRKNS0_8hidl_vecIhEENSt3__18functionIFvNS3_6StatusES9_EEE
_ZN7android8hardware5media3omx4V1_014implementation9TWOmxNode12setParameterEjRKNS0_8hidl_vecIhEE
_ZN7android8hardware5media3omx4V1_014implementation9TWOmxNode15dispatchMessageERKNS3_7MessageE
_ZN7android8hardware5media3omx4V1_014implementation9TWOmxNode15setInputSurfaceERKNS_2spINS3_16IOmxBufferSourceEEE
_ZN7android8hardware5media3omx4V1_014implementation9TWOmxNode17getExtensionIndexERKNS0_11hidl_stringENSt3__18functionIFvNS3_6StatusEjEEE
_ZN7android8hardware5media3omx4V1_014implementation9TWOmxNode20allocateSecureBufferEjyNSt3__18functionIFvNS3_6StatusEjRKNS0_11hidl_handleEEEE
_ZN7android8hardware5media3omx4V1_014implementation9TWOmxNode21getGraphicBufferUsageEjNSt3__18functionIFvNS3_6StatusEjEEE
_ZN7android8hardware5media3omx4V1_014implementation9TWOmxNode24configureVideoTunnelModeEjbjNSt3__18functionIFvNS3_6StatusERKNS0_11hidl_handleEEEE
_ZN7android8hardware5media3omx4V1_014implementation9TWOmxNode26prepareForAdaptivePlaybackEjbjj
_ZN7android8hardware5media3omx4V1_014implementation9TWOmxNode8freeNodeEv
_ZN7android8hardware5media3omx4V1_014implementation9TWOmxNode9getConfigEjRKNS0_8hidl_vecIhEENSt3__18functionIFvNS3_6StatusES9_EEE
_ZN7android8hardware5media3omx4V1_014implementation9TWOmxNode9setConfigEjRKNS0_8hidl_vecIhEE
_ZN7android8hardware5media3omx4V1_014implementation9TWOmxNode9useBufferEjRKNS3_11CodecBufferENSt3__18functionIFvNS3_6StatusEjEEE
_ZN7android8hardware5media3omx4V1_014implementation9TWOmxNodeC1ERKNS_2spINS_8IOMXNodeEEE
_ZN7android8hardware5media3omx4V1_014implementation9TWOmxNodeC2ERKNS_2spINS_8IOMXNodeEEE
_ZN7android9OMXMaster12clearPluginsEv
_ZN7android9OMXMaster15addVendorPluginEv
_ZN7android9OMXMaster19enumerateComponentsEPcjj
_ZN7android9OMXMaster19getRolesOfComponentEPKcPNS_6VectorINS_7String8EEE
_ZN7android9OMXMaster21makeComponentInstanceEPKcPK16OMX_CALLBACKTYPEPvPP17OMX_COMPONENTTYPE
_ZN7android9OMXMaster24destroyComponentInstanceEP17OMX_COMPONENTTYPE
_ZN7android9OMXMaster9addPluginEPKc
_ZN7android9OMXMaster9addPluginEPNS_13OMXPluginBaseE
_ZN7android9OMXMasterC1Ev
_ZN7android9OMXMasterC2Ev
_ZN7android9OMXMasterD0Ev
_ZN7android9OMXMasterD1Ev
_ZN7android9OMXMasterD2Ev
_ZNK7android16SoftOMXComponent4nameEv
_ZNK7android16SoftOMXComponent9initCheckEv
_ZNK7android16SoftOMXComponent9libHandleEv
_ZNK7android22SimpleSoftOMXComponent21isSetParameterAllowedE13OMX_INDEXTYPEPv
_ZNK7android28SoftVideoEncoderOMXComponent20extractGraphicBufferEPhjPKhjjj
_ZTCN7android15OMXNodeInstance24CallbackDispatcherThreadE0_NS_6ThreadE
_ZTCN7android15OMXNodeInstanceE0_NS_10IInterfaceE
_ZTCN7android15OMXNodeInstanceE0_NS_11BnInterfaceINS_8IOMXNodeEEE
_ZTCN7android15OMXNodeInstanceE0_NS_8IOMXNodeE
_ZTCN7android15OMXNodeInstanceE0_NS_9BnOMXNodeE
_ZTCN7android15OMXNodeInstanceE4_NS_7BBinderE
_ZTCN7android15OMXNodeInstanceE4_NS_7IBinderE
_ZTCN7android21BWGraphicBufferSourceE0_NS_10IInterfaceE
_ZTCN7android21BWGraphicBufferSourceE0_NS_11BnInterfaceINS_20IGraphicBufferSourceEEE
_ZTCN7android21BWGraphicBufferSourceE0_NS_20IGraphicBufferSourceE
_ZTCN7android21BWGraphicBufferSourceE0_NS_21BnGraphicBufferSourceE
_ZTCN7android21BWGraphicBufferSourceE4_NS_7BBinderE
_ZTCN7android21BWGraphicBufferSourceE4_NS_7IBinderE
_ZTCN7android8hardware5media3omx4V1_014implementation13LWOmxObserverE0_NS_10IInterfaceE
_ZTCN7android8hardware5media3omx4V1_014implementation13LWOmxObserverE0_NS_11BnInterfaceINS_12IOMXObserverEEE
_ZTCN7android8hardware5media3omx4V1_014implementation13LWOmxObserverE0_NS_12IOMXObserverE
_ZTCN7android8hardware5media3omx4V1_014implementation13LWOmxObserverE0_NS_13BnOMXObserverE
_ZTCN7android8hardware5media3omx4V1_014implementation13LWOmxObserverE4_NS_7BBinderE
_ZTCN7android8hardware5media3omx4V1_014implementation13LWOmxObserverE4_NS_7IBinderE
_ZTCN7android8hardware5media3omx4V1_014implementation13TWOmxObserverE0_NS3_12IOmxObserverE
_ZTCN7android8hardware5media3omx4V1_014implementation13TWOmxObserverE0_NS_4hidl4base4V1_05IBaseE
_ZTCN7android8hardware5media3omx4V1_014implementation17LWOmxBufferSourceE0_NS_10IInterfaceE
_ZTCN7android8hardware5media3omx4V1_014implementation17LWOmxBufferSourceE0_NS_11BnInterfaceINS_16IOMXBufferSourceEEE
_ZTCN7android8hardware5media3omx4V1_014implementation17LWOmxBufferSourceE0_NS_16IOMXBufferSourceE
_ZTCN7android8hardware5media3omx4V1_014implementation17LWOmxBufferSourceE0_NS_17BnOMXBufferSourceE
_ZTCN7android8hardware5media3omx4V1_014implementation17LWOmxBufferSourceE4_NS_7BBinderE
_ZTCN7android8hardware5media3omx4V1_014implementation17LWOmxBufferSourceE4_NS_7IBinderE
_ZTCN7android8hardware5media3omx4V1_014implementation17TWOmxBufferSourceE0_NS3_16IOmxBufferSourceE
_ZTCN7android8hardware5media3omx4V1_014implementation17TWOmxBufferSourceE0_NS_4hidl4base4V1_05IBaseE
_ZTCN7android8hardware5media3omx4V1_014implementation21TWGraphicBufferSourceE0_NS3_20IGraphicBufferSourceE
_ZTCN7android8hardware5media3omx4V1_014implementation21TWGraphicBufferSourceE0_NS_4hidl4base4V1_05IBaseE
_ZTCN7android8hardware5media3omx4V1_014implementation3OmxE0_NS3_4IOmxE
_ZTCN7android8hardware5media3omx4V1_014implementation3OmxE0_NS_4hidl4base4V1_05IBaseE
_ZTCN7android8hardware5media3omx4V1_014implementation3OmxE4_NS0_20hidl_death_recipientE
_ZTCN7android8hardware5media3omx4V1_014implementation8OmxStoreE0_NS3_9IOmxStoreE
_ZTCN7android8hardware5media3omx4V1_014implementation8OmxStoreE0_NS_4hidl4base4V1_05IBaseE
_ZTCN7android8hardware5media3omx4V1_014implementation9LWOmxNodeE0_NS_10IInterfaceE
_ZTCN7android8hardware5media3omx4V1_014implementation9LWOmxNodeE0_NS_11BnInterfaceINS_8IOMXNodeEEE
_ZTCN7android8hardware5media3omx4V1_014implementation9LWOmxNodeE0_NS_8IOMXNodeE
_ZTCN7android8hardware5media3omx4V1_014implementation9LWOmxNodeE0_NS_9BnOMXNodeE
_ZTCN7android8hardware5media3omx4V1_014implementation9LWOmxNodeE4_NS_7BBinderE
_ZTCN7android8hardware5media3omx4V1_014implementation9LWOmxNodeE4_NS_7IBinderE
_ZTCN7android8hardware5media3omx4V1_014implementation9TWOmxNodeE0_NS3_8IOmxNodeE
_ZTCN7android8hardware5media3omx4V1_014implementation9TWOmxNodeE0_NS_4hidl4base4V1_05IBaseE
_ZTTN7android15OMXNodeInstance24CallbackDispatcherThreadE
_ZTTN7android15OMXNodeInstanceE
_ZTTN7android21BWGraphicBufferSourceE
_ZTTN7android8hardware5media3omx4V1_014implementation13LWOmxObserverE
_ZTTN7android8hardware5media3omx4V1_014implementation13TWOmxObserverE
_ZTTN7android8hardware5media3omx4V1_014implementation17LWOmxBufferSourceE
_ZTTN7android8hardware5media3omx4V1_014implementation17TWOmxBufferSourceE
_ZTTN7android8hardware5media3omx4V1_014implementation21TWGraphicBufferSourceE
_ZTTN7android8hardware5media3omx4V1_014implementation3OmxE
_ZTTN7android8hardware5media3omx4V1_014implementation8OmxStoreE
_ZTTN7android8hardware5media3omx4V1_014implementation9LWOmxNodeE
_ZTTN7android8hardware5media3omx4V1_014implementation9TWOmxNodeE
_ZTVN7android13SoftOMXPluginE
_ZTVN7android15OMXNodeInstance18CallbackDispatcherE
_ZTVN7android15OMXNodeInstance24CallbackDispatcherThreadE
_ZTVN7android15OMXNodeInstanceE
_ZTVN7android16SoftOMXComponentE
_ZTVN7android21BWGraphicBufferSourceE
_ZTVN7android22SimpleSoftOMXComponentE
_ZTVN7android28SoftVideoDecoderOMXComponentE
_ZTVN7android28SoftVideoEncoderOMXComponentE
_ZTVN7android8hardware5media3omx4V1_014implementation13LWOmxObserverE
_ZTVN7android8hardware5media3omx4V1_014implementation13TWOmxObserverE
_ZTVN7android8hardware5media3omx4V1_014implementation17LWOmxBufferSourceE
_ZTVN7android8hardware5media3omx4V1_014implementation17TWOmxBufferSourceE
_ZTVN7android8hardware5media3omx4V1_014implementation21TWGraphicBufferSourceE
_ZTVN7android8hardware5media3omx4V1_014implementation3OmxE
_ZTVN7android8hardware5media3omx4V1_014implementation8OmxStoreE
_ZTVN7android8hardware5media3omx4V1_014implementation9LWOmxNodeE
_ZTVN7android8hardware5media3omx4V1_014implementation9TWOmxNodeE
_ZTVN7android9OMXMasterE
_ZThn4_N7android15OMXNodeInstanceD0Ev
_ZThn4_N7android15OMXNodeInstanceD1Ev
_ZThn4_N7android8hardware5media3omx4V1_014implementation3Omx11serviceDiedEyRKNS_2wpINS_4hidl4base4V1_05IBaseEEE
_ZThn4_N7android8hardware5media3omx4V1_014implementation3OmxD0Ev
_ZThn4_N7android8hardware5media3omx4V1_014implementation3OmxD1Ev
_ZTv0_n12_N7android15OMXNodeInstanceD0Ev
_ZTv0_n12_N7android15OMXNodeInstanceD1Ev
_ZTv0_n12_N7android8hardware5media3omx4V1_014implementation3OmxD0Ev
_ZTv0_n12_N7android8hardware5media3omx4V1_014implementation3OmxD1Ev
_ZTv0_n12_N7android8hardware5media3omx4V1_014implementation8OmxStoreD0Ev
_ZTv0_n12_N7android8hardware5media3omx4V1_014implementation8OmxStoreD1Ev
