_ZN7android8hardware12soundtrigger4V2_014implementation19SoundTriggerHalImpl10onFirstRefEv
_ZN7android8hardware12soundtrigger4V2_014implementation19SoundTriggerHalImpl13getPropertiesENSt3__18functionIFviRKNS2_15ISoundTriggerHw10PropertiesEEEE
_ZN7android8hardware12soundtrigger4V2_014implementation19SoundTriggerHalImpl14loadSoundModelERKNS2_15ISoundTriggerHw10SoundModelERKNS_2spINS2_23ISoundTriggerHwCallbackEEEiNSt3__18functionIFviiEEE
_ZN7android8hardware12soundtrigger4V2_014implementation19SoundTriggerHalImpl15stopRecognitionEi
_ZN7android8hardware12soundtrigger4V2_014implementation19SoundTriggerHalImpl16convertUuidToHalEP12audio_uuid_sPKNS0_5audio6common4V2_04UuidE
_ZN7android8hardware12soundtrigger4V2_014implementation19SoundTriggerHalImpl16doLoadSoundModelERKNS2_15ISoundTriggerHw10SoundModelENS_2spINS4_16SoundModelClientEEE
_ZN7android8hardware12soundtrigger4V2_014implementation19SoundTriggerHalImpl16startRecognitionEiRKNS2_15ISoundTriggerHw17RecognitionConfigE
_ZN7android8hardware12soundtrigger4V2_014implementation19SoundTriggerHalImpl16unloadSoundModelEi
_ZN7android8hardware12soundtrigger4V2_014implementation19SoundTriggerHalImpl17nextUniqueModelIdEv
_ZN7android8hardware12soundtrigger4V2_014implementation19SoundTriggerHalImpl18convertUuidFromHalEPNS0_5audio6common4V2_04UuidEPK12audio_uuid_s
_ZN7android8hardware12soundtrigger4V2_014implementation19SoundTriggerHalImpl18soundModelCallbackEP25sound_trigger_model_eventPv
_ZN7android8hardware12soundtrigger4V2_014implementation19SoundTriggerHalImpl19recognitionCallbackEP31sound_trigger_recognition_eventPv
_ZN7android8hardware12soundtrigger4V2_014implementation19SoundTriggerHalImpl19stopAllRecognitionsEv
_ZN7android8hardware12soundtrigger4V2_014implementation19SoundTriggerHalImpl20SoundModelClient_2_018soundModelCallbackEP25sound_trigger_model_event
_ZN7android8hardware12soundtrigger4V2_014implementation19SoundTriggerHalImpl20SoundModelClient_2_019recognitionCallbackEP31sound_trigger_recognition_event
_ZN7android8hardware12soundtrigger4V2_014implementation19SoundTriggerHalImpl20loadPhraseSoundModelERKNS2_15ISoundTriggerHw16PhraseSoundModelERKNS_2spINS2_23ISoundTriggerHwCallbackEEEiNSt3__18functionIFviiEEE
_ZN7android8hardware12soundtrigger4V2_014implementation19SoundTriggerHalImpl22convertSoundModelToHalEPKNS2_15ISoundTriggerHw10SoundModelE
_ZN7android8hardware12soundtrigger4V2_014implementation19SoundTriggerHalImpl24convertPropertiesFromHalEPNS2_15ISoundTriggerHw10PropertiesEPK24sound_trigger_properties
_ZN7android8hardware12soundtrigger4V2_014implementation19SoundTriggerHalImpl25convertTriggerPhraseToHalEP20sound_trigger_phrasePKNS2_15ISoundTriggerHw6PhraseE
_ZN7android8hardware12soundtrigger4V2_014implementation19SoundTriggerHalImpl29convertRecognitionConfigToHalEPKNS2_15ISoundTriggerHw17RecognitionConfigE
_ZN7android8hardware12soundtrigger4V2_014implementation19SoundTriggerHalImpl29convertSoundModelEventFromHalEPNS2_23ISoundTriggerHwCallback10ModelEventEPK25sound_trigger_model_event
_ZN7android8hardware12soundtrigger4V2_014implementation19SoundTriggerHalImpl30convertRecognitionEventFromHalEPNS2_23ISoundTriggerHwCallback16RecognitionEventEPK31sound_trigger_recognition_event
_ZN7android8hardware12soundtrigger4V2_014implementation19SoundTriggerHalImpl34convertPhraseRecognitionExtraToHalEP38sound_trigger_phrase_recognition_extraPKNS2_22PhraseRecognitionExtraE
_ZN7android8hardware12soundtrigger4V2_014implementation19SoundTriggerHalImpl35convertPhaseRecognitionEventFromHalEPNS2_23ISoundTriggerHwCallback22PhraseRecognitionEventEPK38sound_trigger_phrase_recognition_event
_ZN7android8hardware12soundtrigger4V2_014implementation19SoundTriggerHalImpl36convertPhraseRecognitionExtraFromHalEPNS2_22PhraseRecognitionExtraEPK38sound_trigger_phrase_recognition_extra
_ZN7android8hardware12soundtrigger4V2_014implementation19SoundTriggerHalImplC1Ev
_ZN7android8hardware12soundtrigger4V2_014implementation19SoundTriggerHalImplC2Ev
_ZN7android8hardware12soundtrigger4V2_014implementation19SoundTriggerHalImplD0Ev
_ZN7android8hardware12soundtrigger4V2_014implementation19SoundTriggerHalImplD1Ev
_ZN7android8hardware12soundtrigger4V2_014implementation19SoundTriggerHalImplD2Ev
_ZTVN7android8hardware12soundtrigger4V2_014implementation19SoundTriggerHalImpl20SoundModelClient_2_0E
_ZTVN7android8hardware12soundtrigger4V2_014implementation19SoundTriggerHalImplE
