_ZN7android8hardware4gnss4V1_113IGnssCallback10descriptorE
_ZN7android8hardware4gnss4V1_113IGnssCallback10getServiceERKNSt3__112basic_stringIcNS4_11char_traitsIcEENS4_9allocatorIcEEEEb
_ZN7android8hardware4gnss4V1_113IGnssCallback11linkToDeathERKNS_2spINS0_20hidl_death_recipientEEEm
_ZN7android8hardware4gnss4V1_113IGnssCallback12getDebugInfoENSt3__18functionIFvRKNS_4hidl4base4V1_09DebugInfoEEEE
_ZN7android8hardware4gnss4V1_113IGnssCallback12getHashChainENSt3__18functionIFvRKNS0_8hidl_vecINS0_10hidl_arrayIhLm32EJEEEEEEEE
_ZN7android8hardware4gnss4V1_113IGnssCallback13tryGetServiceERKNSt3__112basic_stringIcNS4_11char_traitsIcEENS4_9allocatorIcEEEEb
_ZN7android8hardware4gnss4V1_113IGnssCallback13unlinkToDeathERKNS_2spINS0_20hidl_death_recipientEEE
_ZN7android8hardware4gnss4V1_113IGnssCallback14interfaceChainENSt3__18functionIFvRKNS0_8hidl_vecINS0_11hidl_stringEEEEEE
_ZN7android8hardware4gnss4V1_113IGnssCallback17registerAsServiceERKNSt3__112basic_stringIcNS4_11char_traitsIcEENS4_9allocatorIcEEEE
_ZN7android8hardware4gnss4V1_113IGnssCallback19interfaceDescriptorENSt3__18functionIFvRKNS0_11hidl_stringEEEE
_ZN7android8hardware4gnss4V1_113IGnssCallback21notifySyspropsChangedEv
_ZN7android8hardware4gnss4V1_113IGnssCallback21setHALInstrumentationEv
_ZN7android8hardware4gnss4V1_113IGnssCallback24registerForNotificationsERKNSt3__112basic_stringIcNS4_11char_traitsIcEENS4_9allocatorIcEEEERKNS_2spINS_4hidl7manager4V1_020IServiceNotificationEEE
_ZN7android8hardware4gnss4V1_113IGnssCallback4pingEv
_ZN7android8hardware4gnss4V1_113IGnssCallback5debugERKNS0_11hidl_handleERKNS0_8hidl_vecINS0_11hidl_stringEEE
_ZN7android8hardware4gnss4V1_113IGnssCallback8castFromERKNS_2spINS1_4V1_013IGnssCallbackEEEb
_ZN7android8hardware4gnss4V1_113IGnssCallback8castFromERKNS_2spINS_4hidl4base4V1_05IBaseEEEb
_ZN7android8hardware4gnss4V1_113IGnssCallback8castFromERKNS_2spIS3_EEb
_ZN7android8hardware4gnss4V1_114BsGnssCallback13addOnewayTaskENSt3__18functionIFvvEEE
_ZN7android8hardware4gnss4V1_114BsGnssCallbackC1ENS_2spINS2_13IGnssCallbackEEE
_ZN7android8hardware4gnss4V1_114BsGnssCallbackC2ENS_2spINS2_13IGnssCallbackEEE
_ZN7android8hardware4gnss4V1_116BnHwGnssCallback10onTransactEjRKNS0_6ParcelEPS4_jNSt3__18functionIFvRS4_EEE
_ZN7android8hardware4gnss4V1_116BnHwGnssCallback12getDebugInfoENSt3__18functionIFvRKNS_4hidl4base4V1_09DebugInfoEEEE
_ZN7android8hardware4gnss4V1_116BnHwGnssCallback16_hidl_gnssNameCbEPNS_4hidl4base4V1_08BnHwBaseERKNS0_6ParcelEPS9_NSt3__18functionIFvRS9_EEE
_ZN7android8hardware4gnss4V1_116BnHwGnssCallback27_hidl_gnssRequestLocationCbEPNS_4hidl4base4V1_08BnHwBaseERKNS0_6ParcelEPS9_NSt3__18functionIFvRS9_EEE
_ZN7android8hardware4gnss4V1_116BnHwGnssCallback4pingEv
_ZN7android8hardware4gnss4V1_116BnHwGnssCallbackC1ERKNS_2spINS2_13IGnssCallbackEEE
_ZN7android8hardware4gnss4V1_116BnHwGnssCallbackC2ERKNS_2spINS2_13IGnssCallbackEEE
_ZN7android8hardware4gnss4V1_116BnHwGnssCallbackD0Ev
_ZN7android8hardware4gnss4V1_116BnHwGnssCallbackD1Ev
_ZN7android8hardware4gnss4V1_116BnHwGnssCallbackD2Ev
_ZN7android8hardware4gnss4V1_116BpHwGnssCallback10gnssNameCbERKNS0_11hidl_stringE
_ZN7android8hardware4gnss4V1_116BpHwGnssCallback10gnssNmeaCbElRKNS0_11hidl_stringE
_ZN7android8hardware4gnss4V1_116BpHwGnssCallback11linkToDeathERKNS_2spINS0_20hidl_death_recipientEEEm
_ZN7android8hardware4gnss4V1_116BpHwGnssCallback12getDebugInfoENSt3__18functionIFvRKNS_4hidl4base4V1_09DebugInfoEEEE
_ZN7android8hardware4gnss4V1_116BpHwGnssCallback12getHashChainENSt3__18functionIFvRKNS0_8hidl_vecINS0_10hidl_arrayIhLm32EJEEEEEEEE
_ZN7android8hardware4gnss4V1_116BpHwGnssCallback12gnssStatusCbENS1_4V1_013IGnssCallback15GnssStatusValueE
_ZN7android8hardware4gnss4V1_116BpHwGnssCallback13unlinkToDeathERKNS_2spINS0_20hidl_death_recipientEEE
_ZN7android8hardware4gnss4V1_116BpHwGnssCallback14gnssLocationCbERKNS1_4V1_012GnssLocationE
_ZN7android8hardware4gnss4V1_116BpHwGnssCallback14gnssSvStatusCbERKNS1_4V1_013IGnssCallback12GnssSvStatusE
_ZN7android8hardware4gnss4V1_116BpHwGnssCallback14interfaceChainENSt3__18functionIFvRKNS0_8hidl_vecINS0_11hidl_stringEEEEEE
_ZN7android8hardware4gnss4V1_116BpHwGnssCallback16_hidl_gnssNameCbEPNS0_10IInterfaceEPNS0_7details16HidlInstrumentorERKNS0_11hidl_stringE
_ZN7android8hardware4gnss4V1_116BpHwGnssCallback17gnssRequestTimeCbEv
_ZN7android8hardware4gnss4V1_116BpHwGnssCallback19gnssSetSystemInfoCbERKNS1_4V1_013IGnssCallback14GnssSystemInfoE
_ZN7android8hardware4gnss4V1_116BpHwGnssCallback19interfaceDescriptorENSt3__18functionIFvRKNS0_11hidl_stringEEEE
_ZN7android8hardware4gnss4V1_116BpHwGnssCallback20gnssSetCapabilitesCbEj
_ZN7android8hardware4gnss4V1_116BpHwGnssCallback21gnssAcquireWakelockCbEv
_ZN7android8hardware4gnss4V1_116BpHwGnssCallback21gnssReleaseWakelockCbEv
_ZN7android8hardware4gnss4V1_116BpHwGnssCallback21gnssRequestLocationCbEb
_ZN7android8hardware4gnss4V1_116BpHwGnssCallback21notifySyspropsChangedEv
_ZN7android8hardware4gnss4V1_116BpHwGnssCallback21setHALInstrumentationEv
_ZN7android8hardware4gnss4V1_116BpHwGnssCallback27_hidl_gnssRequestLocationCbEPNS0_10IInterfaceEPNS0_7details16HidlInstrumentorEb
_ZN7android8hardware4gnss4V1_116BpHwGnssCallback4pingEv
_ZN7android8hardware4gnss4V1_116BpHwGnssCallback5debugERKNS0_11hidl_handleERKNS0_8hidl_vecINS0_11hidl_stringEEE
_ZN7android8hardware4gnss4V1_116BpHwGnssCallbackC1ERKNS_2spINS0_7IBinderEEE
_ZN7android8hardware4gnss4V1_116BpHwGnssCallbackC2ERKNS_2spINS0_7IBinderEEE
_ZN7android8hardware4gnss4V1_116IGnssMeasurement10descriptorE
_ZN7android8hardware4gnss4V1_116IGnssMeasurement10getServiceERKNSt3__112basic_stringIcNS4_11char_traitsIcEENS4_9allocatorIcEEEEb
_ZN7android8hardware4gnss4V1_116IGnssMeasurement11linkToDeathERKNS_2spINS0_20hidl_death_recipientEEEm
_ZN7android8hardware4gnss4V1_116IGnssMeasurement12getDebugInfoENSt3__18functionIFvRKNS_4hidl4base4V1_09DebugInfoEEEE
_ZN7android8hardware4gnss4V1_116IGnssMeasurement12getHashChainENSt3__18functionIFvRKNS0_8hidl_vecINS0_10hidl_arrayIhLm32EJEEEEEEEE
_ZN7android8hardware4gnss4V1_116IGnssMeasurement13tryGetServiceERKNSt3__112basic_stringIcNS4_11char_traitsIcEENS4_9allocatorIcEEEEb
_ZN7android8hardware4gnss4V1_116IGnssMeasurement13unlinkToDeathERKNS_2spINS0_20hidl_death_recipientEEE
_ZN7android8hardware4gnss4V1_116IGnssMeasurement14interfaceChainENSt3__18functionIFvRKNS0_8hidl_vecINS0_11hidl_stringEEEEEE
_ZN7android8hardware4gnss4V1_116IGnssMeasurement17registerAsServiceERKNSt3__112basic_stringIcNS4_11char_traitsIcEENS4_9allocatorIcEEEE
_ZN7android8hardware4gnss4V1_116IGnssMeasurement19interfaceDescriptorENSt3__18functionIFvRKNS0_11hidl_stringEEEE
_ZN7android8hardware4gnss4V1_116IGnssMeasurement21notifySyspropsChangedEv
_ZN7android8hardware4gnss4V1_116IGnssMeasurement21setHALInstrumentationEv
_ZN7android8hardware4gnss4V1_116IGnssMeasurement24registerForNotificationsERKNSt3__112basic_stringIcNS4_11char_traitsIcEENS4_9allocatorIcEEEERKNS_2spINS_4hidl7manager4V1_020IServiceNotificationEEE
_ZN7android8hardware4gnss4V1_116IGnssMeasurement4pingEv
_ZN7android8hardware4gnss4V1_116IGnssMeasurement5debugERKNS0_11hidl_handleERKNS0_8hidl_vecINS0_11hidl_stringEEE
_ZN7android8hardware4gnss4V1_116IGnssMeasurement8castFromERKNS_2spINS1_4V1_016IGnssMeasurementEEEb
_ZN7android8hardware4gnss4V1_116IGnssMeasurement8castFromERKNS_2spINS_4hidl4base4V1_05IBaseEEEb
_ZN7android8hardware4gnss4V1_116IGnssMeasurement8castFromERKNS_2spIS3_EEb
_ZN7android8hardware4gnss4V1_117BsGnssMeasurement13addOnewayTaskENSt3__18functionIFvvEEE
_ZN7android8hardware4gnss4V1_117BsGnssMeasurementC1ENS_2spINS2_16IGnssMeasurementEEE
_ZN7android8hardware4gnss4V1_117BsGnssMeasurementC2ENS_2spINS2_16IGnssMeasurementEEE
_ZN7android8hardware4gnss4V1_118IGnssConfiguration10descriptorE
_ZN7android8hardware4gnss4V1_118IGnssConfiguration10getServiceERKNSt3__112basic_stringIcNS4_11char_traitsIcEENS4_9allocatorIcEEEEb
_ZN7android8hardware4gnss4V1_118IGnssConfiguration11linkToDeathERKNS_2spINS0_20hidl_death_recipientEEEm
_ZN7android8hardware4gnss4V1_118IGnssConfiguration12getDebugInfoENSt3__18functionIFvRKNS_4hidl4base4V1_09DebugInfoEEEE
_ZN7android8hardware4gnss4V1_118IGnssConfiguration12getHashChainENSt3__18functionIFvRKNS0_8hidl_vecINS0_10hidl_arrayIhLm32EJEEEEEEEE
_ZN7android8hardware4gnss4V1_118IGnssConfiguration13tryGetServiceERKNSt3__112basic_stringIcNS4_11char_traitsIcEENS4_9allocatorIcEEEEb
_ZN7android8hardware4gnss4V1_118IGnssConfiguration13unlinkToDeathERKNS_2spINS0_20hidl_death_recipientEEE
_ZN7android8hardware4gnss4V1_118IGnssConfiguration14interfaceChainENSt3__18functionIFvRKNS0_8hidl_vecINS0_11hidl_stringEEEEEE
_ZN7android8hardware4gnss4V1_118IGnssConfiguration17registerAsServiceERKNSt3__112basic_stringIcNS4_11char_traitsIcEENS4_9allocatorIcEEEE
_ZN7android8hardware4gnss4V1_118IGnssConfiguration19interfaceDescriptorENSt3__18functionIFvRKNS0_11hidl_stringEEEE
_ZN7android8hardware4gnss4V1_118IGnssConfiguration21notifySyspropsChangedEv
_ZN7android8hardware4gnss4V1_118IGnssConfiguration21setHALInstrumentationEv
_ZN7android8hardware4gnss4V1_118IGnssConfiguration24registerForNotificationsERKNSt3__112basic_stringIcNS4_11char_traitsIcEENS4_9allocatorIcEEEERKNS_2spINS_4hidl7manager4V1_020IServiceNotificationEEE
_ZN7android8hardware4gnss4V1_118IGnssConfiguration4pingEv
_ZN7android8hardware4gnss4V1_118IGnssConfiguration5debugERKNS0_11hidl_handleERKNS0_8hidl_vecINS0_11hidl_stringEEE
_ZN7android8hardware4gnss4V1_118IGnssConfiguration8castFromERKNS_2spINS1_4V1_018IGnssConfigurationEEEb
_ZN7android8hardware4gnss4V1_118IGnssConfiguration8castFromERKNS_2spINS_4hidl4base4V1_05IBaseEEEb
_ZN7android8hardware4gnss4V1_118IGnssConfiguration8castFromERKNS_2spIS3_EEb
_ZN7android8hardware4gnss4V1_119BnHwGnssMeasurement10onTransactEjRKNS0_6ParcelEPS4_jNSt3__18functionIFvRS4_EEE
_ZN7android8hardware4gnss4V1_119BnHwGnssMeasurement12getDebugInfoENSt3__18functionIFvRKNS_4hidl4base4V1_09DebugInfoEEEE
_ZN7android8hardware4gnss4V1_119BnHwGnssMeasurement21_hidl_setCallback_1_1EPNS_4hidl4base4V1_08BnHwBaseERKNS0_6ParcelEPS9_NSt3__18functionIFvRS9_EEE
_ZN7android8hardware4gnss4V1_119BnHwGnssMeasurement4pingEv
_ZN7android8hardware4gnss4V1_119BnHwGnssMeasurementC1ERKNS_2spINS2_16IGnssMeasurementEEE
_ZN7android8hardware4gnss4V1_119BnHwGnssMeasurementC2ERKNS_2spINS2_16IGnssMeasurementEEE
_ZN7android8hardware4gnss4V1_119BnHwGnssMeasurementD0Ev
_ZN7android8hardware4gnss4V1_119BnHwGnssMeasurementD1Ev
_ZN7android8hardware4gnss4V1_119BnHwGnssMeasurementD2Ev
_ZN7android8hardware4gnss4V1_119BpHwGnssMeasurement11linkToDeathERKNS_2spINS0_20hidl_death_recipientEEEm
_ZN7android8hardware4gnss4V1_119BpHwGnssMeasurement11setCallbackERKNS_2spINS1_4V1_024IGnssMeasurementCallbackEEE
_ZN7android8hardware4gnss4V1_119BpHwGnssMeasurement12getDebugInfoENSt3__18functionIFvRKNS_4hidl4base4V1_09DebugInfoEEEE
_ZN7android8hardware4gnss4V1_119BpHwGnssMeasurement12getHashChainENSt3__18functionIFvRKNS0_8hidl_vecINS0_10hidl_arrayIhLm32EJEEEEEEEE
_ZN7android8hardware4gnss4V1_119BpHwGnssMeasurement13unlinkToDeathERKNS_2spINS0_20hidl_death_recipientEEE
_ZN7android8hardware4gnss4V1_119BpHwGnssMeasurement14interfaceChainENSt3__18functionIFvRKNS0_8hidl_vecINS0_11hidl_stringEEEEEE
_ZN7android8hardware4gnss4V1_119BpHwGnssMeasurement15setCallback_1_1ERKNS_2spINS2_24IGnssMeasurementCallbackEEEb
_ZN7android8hardware4gnss4V1_119BpHwGnssMeasurement19interfaceDescriptorENSt3__18functionIFvRKNS0_11hidl_stringEEEE
_ZN7android8hardware4gnss4V1_119BpHwGnssMeasurement21_hidl_setCallback_1_1EPNS0_10IInterfaceEPNS0_7details16HidlInstrumentorERKNS_2spINS2_24IGnssMeasurementCallbackEEEb
_ZN7android8hardware4gnss4V1_119BpHwGnssMeasurement21notifySyspropsChangedEv
_ZN7android8hardware4gnss4V1_119BpHwGnssMeasurement21setHALInstrumentationEv
_ZN7android8hardware4gnss4V1_119BpHwGnssMeasurement4pingEv
_ZN7android8hardware4gnss4V1_119BpHwGnssMeasurement5closeEv
_ZN7android8hardware4gnss4V1_119BpHwGnssMeasurement5debugERKNS0_11hidl_handleERKNS0_8hidl_vecINS0_11hidl_stringEEE
_ZN7android8hardware4gnss4V1_119BpHwGnssMeasurementC1ERKNS_2spINS0_7IBinderEEE
_ZN7android8hardware4gnss4V1_119BpHwGnssMeasurementC2ERKNS_2spINS0_7IBinderEEE
_ZN7android8hardware4gnss4V1_119BsGnssConfiguration13addOnewayTaskENSt3__18functionIFvvEEE
_ZN7android8hardware4gnss4V1_119BsGnssConfigurationC1ENS_2spINS2_18IGnssConfigurationEEE
_ZN7android8hardware4gnss4V1_119BsGnssConfigurationC2ENS_2spINS2_18IGnssConfigurationEEE
_ZN7android8hardware4gnss4V1_121BnHwGnssConfiguration10onTransactEjRKNS0_6ParcelEPS4_jNSt3__18functionIFvRS4_EEE
_ZN7android8hardware4gnss4V1_121BnHwGnssConfiguration12getDebugInfoENSt3__18functionIFvRKNS_4hidl4base4V1_09DebugInfoEEEE
_ZN7android8hardware4gnss4V1_121BnHwGnssConfiguration18_hidl_setBlacklistEPNS_4hidl4base4V1_08BnHwBaseERKNS0_6ParcelEPS9_NSt3__18functionIFvRS9_EEE
_ZN7android8hardware4gnss4V1_121BnHwGnssConfiguration4pingEv
_ZN7android8hardware4gnss4V1_121BnHwGnssConfigurationC1ERKNS_2spINS2_18IGnssConfigurationEEE
_ZN7android8hardware4gnss4V1_121BnHwGnssConfigurationC2ERKNS_2spINS2_18IGnssConfigurationEEE
_ZN7android8hardware4gnss4V1_121BnHwGnssConfigurationD0Ev
_ZN7android8hardware4gnss4V1_121BnHwGnssConfigurationD1Ev
_ZN7android8hardware4gnss4V1_121BnHwGnssConfigurationD2Ev
_ZN7android8hardware4gnss4V1_121BpHwGnssConfiguration10setGpsLockEh
_ZN7android8hardware4gnss4V1_121BpHwGnssConfiguration11linkToDeathERKNS_2spINS0_20hidl_death_recipientEEEm
_ZN7android8hardware4gnss4V1_121BpHwGnssConfiguration11setSuplModeEh
_ZN7android8hardware4gnss4V1_121BpHwGnssConfiguration12getDebugInfoENSt3__18functionIFvRKNS_4hidl4base4V1_09DebugInfoEEEE
_ZN7android8hardware4gnss4V1_121BpHwGnssConfiguration12getHashChainENSt3__18functionIFvRKNS0_8hidl_vecINS0_10hidl_arrayIhLm32EJEEEEEEEE
_ZN7android8hardware4gnss4V1_121BpHwGnssConfiguration12setBlacklistERKNS0_8hidl_vecINS2_18IGnssConfiguration17BlacklistedSourceEEE
_ZN7android8hardware4gnss4V1_121BpHwGnssConfiguration13setLppProfileEh
_ZN7android8hardware4gnss4V1_121BpHwGnssConfiguration13unlinkToDeathERKNS_2spINS0_20hidl_death_recipientEEE
_ZN7android8hardware4gnss4V1_121BpHwGnssConfiguration14interfaceChainENSt3__18functionIFvRKNS0_8hidl_vecINS0_11hidl_stringEEEEEE
_ZN7android8hardware4gnss4V1_121BpHwGnssConfiguration14setSuplVersionEj
_ZN7android8hardware4gnss4V1_121BpHwGnssConfiguration18_hidl_setBlacklistEPNS0_10IInterfaceEPNS0_7details16HidlInstrumentorERKNS0_8hidl_vecINS2_18IGnssConfiguration17BlacklistedSourceEEE
_ZN7android8hardware4gnss4V1_121BpHwGnssConfiguration19interfaceDescriptorENSt3__18functionIFvRKNS0_11hidl_stringEEEE
_ZN7android8hardware4gnss4V1_121BpHwGnssConfiguration19setEmergencySuplPdnEb
_ZN7android8hardware4gnss4V1_121BpHwGnssConfiguration21notifySyspropsChangedEv
_ZN7android8hardware4gnss4V1_121BpHwGnssConfiguration21setHALInstrumentationEv
_ZN7android8hardware4gnss4V1_121BpHwGnssConfiguration29setGlonassPositioningProtocolEh
_ZN7android8hardware4gnss4V1_121BpHwGnssConfiguration4pingEv
_ZN7android8hardware4gnss4V1_121BpHwGnssConfiguration5debugERKNS0_11hidl_handleERKNS0_8hidl_vecINS0_11hidl_stringEEE
_ZN7android8hardware4gnss4V1_121BpHwGnssConfiguration9setSuplEsEb
_ZN7android8hardware4gnss4V1_121BpHwGnssConfigurationC1ERKNS_2spINS0_7IBinderEEE
_ZN7android8hardware4gnss4V1_121BpHwGnssConfigurationC2ERKNS_2spINS0_7IBinderEEE
_ZN7android8hardware4gnss4V1_121writeEmbeddedToParcelERKNS2_24IGnssMeasurementCallback8GnssDataEPNS0_6ParcelEmm
_ZN7android8hardware4gnss4V1_122readEmbeddedFromParcelERKNS2_24IGnssMeasurementCallback8GnssDataERKNS0_6ParcelEmm
_ZN7android8hardware4gnss4V1_124IGnssMeasurementCallback10descriptorE
_ZN7android8hardware4gnss4V1_124IGnssMeasurementCallback10getServiceERKNSt3__112basic_stringIcNS4_11char_traitsIcEENS4_9allocatorIcEEEEb
_ZN7android8hardware4gnss4V1_124IGnssMeasurementCallback11linkToDeathERKNS_2spINS0_20hidl_death_recipientEEEm
_ZN7android8hardware4gnss4V1_124IGnssMeasurementCallback12getDebugInfoENSt3__18functionIFvRKNS_4hidl4base4V1_09DebugInfoEEEE
_ZN7android8hardware4gnss4V1_124IGnssMeasurementCallback12getHashChainENSt3__18functionIFvRKNS0_8hidl_vecINS0_10hidl_arrayIhLm32EJEEEEEEEE
_ZN7android8hardware4gnss4V1_124IGnssMeasurementCallback13tryGetServiceERKNSt3__112basic_stringIcNS4_11char_traitsIcEENS4_9allocatorIcEEEEb
_ZN7android8hardware4gnss4V1_124IGnssMeasurementCallback13unlinkToDeathERKNS_2spINS0_20hidl_death_recipientEEE
_ZN7android8hardware4gnss4V1_124IGnssMeasurementCallback14interfaceChainENSt3__18functionIFvRKNS0_8hidl_vecINS0_11hidl_stringEEEEEE
_ZN7android8hardware4gnss4V1_124IGnssMeasurementCallback17registerAsServiceERKNSt3__112basic_stringIcNS4_11char_traitsIcEENS4_9allocatorIcEEEE
_ZN7android8hardware4gnss4V1_124IGnssMeasurementCallback19interfaceDescriptorENSt3__18functionIFvRKNS0_11hidl_stringEEEE
_ZN7android8hardware4gnss4V1_124IGnssMeasurementCallback21notifySyspropsChangedEv
_ZN7android8hardware4gnss4V1_124IGnssMeasurementCallback21setHALInstrumentationEv
_ZN7android8hardware4gnss4V1_124IGnssMeasurementCallback24registerForNotificationsERKNSt3__112basic_stringIcNS4_11char_traitsIcEENS4_9allocatorIcEEEERKNS_2spINS_4hidl7manager4V1_020IServiceNotificationEEE
_ZN7android8hardware4gnss4V1_124IGnssMeasurementCallback4pingEv
_ZN7android8hardware4gnss4V1_124IGnssMeasurementCallback5debugERKNS0_11hidl_handleERKNS0_8hidl_vecINS0_11hidl_stringEEE
_ZN7android8hardware4gnss4V1_124IGnssMeasurementCallback8castFromERKNS_2spINS1_4V1_024IGnssMeasurementCallbackEEEb
_ZN7android8hardware4gnss4V1_124IGnssMeasurementCallback8castFromERKNS_2spINS_4hidl4base4V1_05IBaseEEEb
_ZN7android8hardware4gnss4V1_124IGnssMeasurementCallback8castFromERKNS_2spIS3_EEb
_ZN7android8hardware4gnss4V1_125BsGnssMeasurementCallback13addOnewayTaskENSt3__18functionIFvvEEE
_ZN7android8hardware4gnss4V1_125BsGnssMeasurementCallbackC1ENS_2spINS2_24IGnssMeasurementCallbackEEE
_ZN7android8hardware4gnss4V1_125BsGnssMeasurementCallbackC2ENS_2spINS2_24IGnssMeasurementCallbackEEE
_ZN7android8hardware4gnss4V1_127BnHwGnssMeasurementCallback10onTransactEjRKNS0_6ParcelEPS4_jNSt3__18functionIFvRS4_EEE
_ZN7android8hardware4gnss4V1_127BnHwGnssMeasurementCallback12getDebugInfoENSt3__18functionIFvRKNS_4hidl4base4V1_09DebugInfoEEEE
_ZN7android8hardware4gnss4V1_127BnHwGnssMeasurementCallback23_hidl_gnssMeasurementCbEPNS_4hidl4base4V1_08BnHwBaseERKNS0_6ParcelEPS9_NSt3__18functionIFvRS9_EEE
_ZN7android8hardware4gnss4V1_127BnHwGnssMeasurementCallback4pingEv
_ZN7android8hardware4gnss4V1_127BnHwGnssMeasurementCallbackC1ERKNS_2spINS2_24IGnssMeasurementCallbackEEE
_ZN7android8hardware4gnss4V1_127BnHwGnssMeasurementCallbackC2ERKNS_2spINS2_24IGnssMeasurementCallbackEEE
_ZN7android8hardware4gnss4V1_127BnHwGnssMeasurementCallbackD0Ev
_ZN7android8hardware4gnss4V1_127BnHwGnssMeasurementCallbackD1Ev
_ZN7android8hardware4gnss4V1_127BnHwGnssMeasurementCallbackD2Ev
_ZN7android8hardware4gnss4V1_127BpHwGnssMeasurementCallback11linkToDeathERKNS_2spINS0_20hidl_death_recipientEEEm
_ZN7android8hardware4gnss4V1_127BpHwGnssMeasurementCallback12getDebugInfoENSt3__18functionIFvRKNS_4hidl4base4V1_09DebugInfoEEEE
_ZN7android8hardware4gnss4V1_127BpHwGnssMeasurementCallback12getHashChainENSt3__18functionIFvRKNS0_8hidl_vecINS0_10hidl_arrayIhLm32EJEEEEEEEE
_ZN7android8hardware4gnss4V1_127BpHwGnssMeasurementCallback13unlinkToDeathERKNS_2spINS0_20hidl_death_recipientEEE
_ZN7android8hardware4gnss4V1_127BpHwGnssMeasurementCallback14interfaceChainENSt3__18functionIFvRKNS0_8hidl_vecINS0_11hidl_stringEEEEEE
_ZN7android8hardware4gnss4V1_127BpHwGnssMeasurementCallback17GnssMeasurementCbERKNS1_4V1_024IGnssMeasurementCallback8GnssDataE
_ZN7android8hardware4gnss4V1_127BpHwGnssMeasurementCallback17gnssMeasurementCbERKNS2_24IGnssMeasurementCallback8GnssDataE
_ZN7android8hardware4gnss4V1_127BpHwGnssMeasurementCallback19interfaceDescriptorENSt3__18functionIFvRKNS0_11hidl_stringEEEE
_ZN7android8hardware4gnss4V1_127BpHwGnssMeasurementCallback21notifySyspropsChangedEv
_ZN7android8hardware4gnss4V1_127BpHwGnssMeasurementCallback21setHALInstrumentationEv
_ZN7android8hardware4gnss4V1_127BpHwGnssMeasurementCallback23_hidl_gnssMeasurementCbEPNS0_10IInterfaceEPNS0_7details16HidlInstrumentorERKNS2_24IGnssMeasurementCallback8GnssDataE
_ZN7android8hardware4gnss4V1_127BpHwGnssMeasurementCallback4pingEv
_ZN7android8hardware4gnss4V1_127BpHwGnssMeasurementCallback5debugERKNS0_11hidl_handleERKNS0_8hidl_vecINS0_11hidl_stringEEE
_ZN7android8hardware4gnss4V1_127BpHwGnssMeasurementCallbackC1ERKNS_2spINS0_7IBinderEEE
_ZN7android8hardware4gnss4V1_127BpHwGnssMeasurementCallbackC2ERKNS_2spINS0_7IBinderEEE
_ZN7android8hardware4gnss4V1_15IGnss10descriptorE
_ZN7android8hardware4gnss4V1_15IGnss10getServiceERKNSt3__112basic_stringIcNS4_11char_traitsIcEENS4_9allocatorIcEEEEb
_ZN7android8hardware4gnss4V1_15IGnss11linkToDeathERKNS_2spINS0_20hidl_death_recipientEEEm
_ZN7android8hardware4gnss4V1_15IGnss12getDebugInfoENSt3__18functionIFvRKNS_4hidl4base4V1_09DebugInfoEEEE
_ZN7android8hardware4gnss4V1_15IGnss12getHashChainENSt3__18functionIFvRKNS0_8hidl_vecINS0_10hidl_arrayIhLm32EJEEEEEEEE
_ZN7android8hardware4gnss4V1_15IGnss13tryGetServiceERKNSt3__112basic_stringIcNS4_11char_traitsIcEENS4_9allocatorIcEEEEb
_ZN7android8hardware4gnss4V1_15IGnss13unlinkToDeathERKNS_2spINS0_20hidl_death_recipientEEE
_ZN7android8hardware4gnss4V1_15IGnss14interfaceChainENSt3__18functionIFvRKNS0_8hidl_vecINS0_11hidl_stringEEEEEE
_ZN7android8hardware4gnss4V1_15IGnss17registerAsServiceERKNSt3__112basic_stringIcNS4_11char_traitsIcEENS4_9allocatorIcEEEE
_ZN7android8hardware4gnss4V1_15IGnss19interfaceDescriptorENSt3__18functionIFvRKNS0_11hidl_stringEEEE
_ZN7android8hardware4gnss4V1_15IGnss21notifySyspropsChangedEv
_ZN7android8hardware4gnss4V1_15IGnss21setHALInstrumentationEv
_ZN7android8hardware4gnss4V1_15IGnss24registerForNotificationsERKNSt3__112basic_stringIcNS4_11char_traitsIcEENS4_9allocatorIcEEEERKNS_2spINS_4hidl7manager4V1_020IServiceNotificationEEE
_ZN7android8hardware4gnss4V1_15IGnss4pingEv
_ZN7android8hardware4gnss4V1_15IGnss5debugERKNS0_11hidl_handleERKNS0_8hidl_vecINS0_11hidl_stringEEE
_ZN7android8hardware4gnss4V1_15IGnss8castFromERKNS_2spINS1_4V1_05IGnssEEEb
_ZN7android8hardware4gnss4V1_15IGnss8castFromERKNS_2spINS_4hidl4base4V1_05IBaseEEEb
_ZN7android8hardware4gnss4V1_15IGnss8castFromERKNS_2spIS3_EEb
_ZN7android8hardware4gnss4V1_16BsGnss13addOnewayTaskENSt3__18functionIFvvEEE
_ZN7android8hardware4gnss4V1_16BsGnssC1ENS_2spINS2_5IGnssEEE
_ZN7android8hardware4gnss4V1_16BsGnssC2ENS_2spINS2_5IGnssEEE
_ZN7android8hardware4gnss4V1_18BnHwGnss10onTransactEjRKNS0_6ParcelEPS4_jNSt3__18functionIFvRS4_EEE
_ZN7android8hardware4gnss4V1_18BnHwGnss12getDebugInfoENSt3__18functionIFvRKNS_4hidl4base4V1_09DebugInfoEEEE
_ZN7android8hardware4gnss4V1_18BnHwGnss21_hidl_setCallback_1_1EPNS_4hidl4base4V1_08BnHwBaseERKNS0_6ParcelEPS9_NSt3__18functionIFvRS9_EEE
_ZN7android8hardware4gnss4V1_18BnHwGnss24_hidl_injectBestLocationEPNS_4hidl4base4V1_08BnHwBaseERKNS0_6ParcelEPS9_NSt3__18functionIFvRS9_EEE
_ZN7android8hardware4gnss4V1_18BnHwGnss25_hidl_setPositionMode_1_1EPNS_4hidl4base4V1_08BnHwBaseERKNS0_6ParcelEPS9_NSt3__18functionIFvRS9_EEE
_ZN7android8hardware4gnss4V1_18BnHwGnss37_hidl_getExtensionGnssMeasurement_1_1EPNS_4hidl4base4V1_08BnHwBaseERKNS0_6ParcelEPS9_NSt3__18functionIFvRS9_EEE
_ZN7android8hardware4gnss4V1_18BnHwGnss39_hidl_getExtensionGnssConfiguration_1_1EPNS_4hidl4base4V1_08BnHwBaseERKNS0_6ParcelEPS9_NSt3__18functionIFvRS9_EEE
_ZN7android8hardware4gnss4V1_18BnHwGnss4pingEv
_ZN7android8hardware4gnss4V1_18BnHwGnssC1ERKNS_2spINS2_5IGnssEEE
_ZN7android8hardware4gnss4V1_18BnHwGnssC2ERKNS_2spINS2_5IGnssEEE
_ZN7android8hardware4gnss4V1_18BnHwGnssD0Ev
_ZN7android8hardware4gnss4V1_18BnHwGnssD1Ev
_ZN7android8hardware4gnss4V1_18BnHwGnssD2Ev
_ZN7android8hardware4gnss4V1_18BpHwGnss10injectTimeElli
_ZN7android8hardware4gnss4V1_18BpHwGnss11linkToDeathERKNS_2spINS0_20hidl_death_recipientEEEm
_ZN7android8hardware4gnss4V1_18BpHwGnss11setCallbackERKNS_2spINS1_4V1_013IGnssCallbackEEE
_ZN7android8hardware4gnss4V1_18BpHwGnss12getDebugInfoENSt3__18functionIFvRKNS_4hidl4base4V1_09DebugInfoEEEE
_ZN7android8hardware4gnss4V1_18BpHwGnss12getHashChainENSt3__18functionIFvRKNS0_8hidl_vecINS0_10hidl_arrayIhLm32EJEEEEEEEE
_ZN7android8hardware4gnss4V1_18BpHwGnss13unlinkToDeathERKNS_2spINS0_20hidl_death_recipientEEE
_ZN7android8hardware4gnss4V1_18BpHwGnss14injectLocationEddf
_ZN7android8hardware4gnss4V1_18BpHwGnss14interfaceChainENSt3__18functionIFvRKNS0_8hidl_vecINS0_11hidl_stringEEEEEE
_ZN7android8hardware4gnss4V1_18BpHwGnss15setCallback_1_1ERKNS_2spINS2_13IGnssCallbackEEE
_ZN7android8hardware4gnss4V1_18BpHwGnss15setPositionModeENS1_4V1_05IGnss16GnssPositionModeENS5_22GnssPositionRecurrenceEjjj
_ZN7android8hardware4gnss4V1_18BpHwGnss16deleteAidingDataENS1_4V1_05IGnss14GnssAidingDataE
_ZN7android8hardware4gnss4V1_18BpHwGnss16getExtensionXtraEv
_ZN7android8hardware4gnss4V1_18BpHwGnss17getExtensionAGnssEv
_ZN7android8hardware4gnss4V1_18BpHwGnss18getExtensionGnssNiEv
_ZN7android8hardware4gnss4V1_18BpHwGnss18injectBestLocationERKNS1_4V1_012GnssLocationE
_ZN7android8hardware4gnss4V1_18BpHwGnss19interfaceDescriptorENSt3__18functionIFvRKNS0_11hidl_stringEEEE
_ZN7android8hardware4gnss4V1_18BpHwGnss19setPositionMode_1_1ENS1_4V1_05IGnss16GnssPositionModeENS5_22GnssPositionRecurrenceEjjjb
_ZN7android8hardware4gnss4V1_18BpHwGnss20getExtensionAGnssRilEv
_ZN7android8hardware4gnss4V1_18BpHwGnss21_hidl_setCallback_1_1EPNS0_10IInterfaceEPNS0_7details16HidlInstrumentorERKNS_2spINS2_13IGnssCallbackEEE
_ZN7android8hardware4gnss4V1_18BpHwGnss21getExtensionGnssDebugEv
_ZN7android8hardware4gnss4V1_18BpHwGnss21notifySyspropsChangedEv
_ZN7android8hardware4gnss4V1_18BpHwGnss21setHALInstrumentationEv
_ZN7android8hardware4gnss4V1_18BpHwGnss24_hidl_injectBestLocationEPNS0_10IInterfaceEPNS0_7details16HidlInstrumentorERKNS1_4V1_012GnssLocationE
_ZN7android8hardware4gnss4V1_18BpHwGnss24getExtensionGnssBatchingEv
_ZN7android8hardware4gnss4V1_18BpHwGnss25_hidl_setPositionMode_1_1EPNS0_10IInterfaceEPNS0_7details16HidlInstrumentorENS1_4V1_05IGnss16GnssPositionModeENSA_22GnssPositionRecurrenceEjjjb
_ZN7android8hardware4gnss4V1_18BpHwGnss26getExtensionGnssGeofencingEv
_ZN7android8hardware4gnss4V1_18BpHwGnss27getExtensionGnssMeasurementEv
_ZN7android8hardware4gnss4V1_18BpHwGnss29getExtensionGnssConfigurationEv
_ZN7android8hardware4gnss4V1_18BpHwGnss31getExtensionGnssMeasurement_1_1Ev
_ZN7android8hardware4gnss4V1_18BpHwGnss33getExtensionGnssConfiguration_1_1Ev
_ZN7android8hardware4gnss4V1_18BpHwGnss33getExtensionGnssNavigationMessageEv
_ZN7android8hardware4gnss4V1_18BpHwGnss37_hidl_getExtensionGnssMeasurement_1_1EPNS0_10IInterfaceEPNS0_7details16HidlInstrumentorE
_ZN7android8hardware4gnss4V1_18BpHwGnss39_hidl_getExtensionGnssConfiguration_1_1EPNS0_10IInterfaceEPNS0_7details16HidlInstrumentorE
_ZN7android8hardware4gnss4V1_18BpHwGnss4pingEv
_ZN7android8hardware4gnss4V1_18BpHwGnss4stopEv
_ZN7android8hardware4gnss4V1_18BpHwGnss5debugERKNS0_11hidl_handleERKNS0_8hidl_vecINS0_11hidl_stringEEE
_ZN7android8hardware4gnss4V1_18BpHwGnss5startEv
_ZN7android8hardware4gnss4V1_18BpHwGnss7cleanupEv
_ZN7android8hardware4gnss4V1_18BpHwGnssC1ERKNS_2spINS0_7IBinderEEE
_ZN7android8hardware4gnss4V1_18BpHwGnssC2ERKNS_2spINS0_7IBinderEEE
_ZTCN7android8hardware4gnss4V1_113IGnssCallbackE0_NS1_4V1_013IGnssCallbackE
_ZTCN7android8hardware4gnss4V1_113IGnssCallbackE0_NS_4hidl4base4V1_05IBaseE
_ZTCN7android8hardware4gnss4V1_116BnHwGnssCallbackE0_NS0_7IBinderE
_ZTCN7android8hardware4gnss4V1_116BnHwGnssCallbackE0_NS0_9BHwBinderE
_ZTCN7android8hardware4gnss4V1_116BnHwGnssCallbackE0_NS_4hidl4base4V1_08BnHwBaseE
_ZTCN7android8hardware4gnss4V1_116BpHwGnssCallbackE0_NS0_11BpInterfaceINS2_13IGnssCallbackEEE
_ZTCN7android8hardware4gnss4V1_116BpHwGnssCallbackE0_NS1_4V1_013IGnssCallbackE
_ZTCN7android8hardware4gnss4V1_116BpHwGnssCallbackE0_NS2_13IGnssCallbackE
_ZTCN7android8hardware4gnss4V1_116BpHwGnssCallbackE0_NS_4hidl4base4V1_05IBaseE
_ZTCN7android8hardware4gnss4V1_116BpHwGnssCallbackE16_NS0_11BpHwRefBaseE
_ZTCN7android8hardware4gnss4V1_116BpHwGnssCallbackE8_NS0_10IInterfaceE
_ZTCN7android8hardware4gnss4V1_116IGnssMeasurementE0_NS1_4V1_016IGnssMeasurementE
_ZTCN7android8hardware4gnss4V1_116IGnssMeasurementE0_NS_4hidl4base4V1_05IBaseE
_ZTCN7android8hardware4gnss4V1_118IGnssConfigurationE0_NS1_4V1_018IGnssConfigurationE
_ZTCN7android8hardware4gnss4V1_118IGnssConfigurationE0_NS_4hidl4base4V1_05IBaseE
_ZTCN7android8hardware4gnss4V1_119BnHwGnssMeasurementE0_NS0_7IBinderE
_ZTCN7android8hardware4gnss4V1_119BnHwGnssMeasurementE0_NS0_9BHwBinderE
_ZTCN7android8hardware4gnss4V1_119BnHwGnssMeasurementE0_NS_4hidl4base4V1_08BnHwBaseE
_ZTCN7android8hardware4gnss4V1_119BpHwGnssMeasurementE0_NS0_11BpInterfaceINS2_16IGnssMeasurementEEE
_ZTCN7android8hardware4gnss4V1_119BpHwGnssMeasurementE0_NS1_4V1_016IGnssMeasurementE
_ZTCN7android8hardware4gnss4V1_119BpHwGnssMeasurementE0_NS2_16IGnssMeasurementE
_ZTCN7android8hardware4gnss4V1_119BpHwGnssMeasurementE0_NS_4hidl4base4V1_05IBaseE
_ZTCN7android8hardware4gnss4V1_119BpHwGnssMeasurementE16_NS0_11BpHwRefBaseE
_ZTCN7android8hardware4gnss4V1_119BpHwGnssMeasurementE8_NS0_10IInterfaceE
_ZTCN7android8hardware4gnss4V1_121BnHwGnssConfigurationE0_NS0_7IBinderE
_ZTCN7android8hardware4gnss4V1_121BnHwGnssConfigurationE0_NS0_9BHwBinderE
_ZTCN7android8hardware4gnss4V1_121BnHwGnssConfigurationE0_NS_4hidl4base4V1_08BnHwBaseE
_ZTCN7android8hardware4gnss4V1_121BpHwGnssConfigurationE0_NS0_11BpInterfaceINS2_18IGnssConfigurationEEE
_ZTCN7android8hardware4gnss4V1_121BpHwGnssConfigurationE0_NS1_4V1_018IGnssConfigurationE
_ZTCN7android8hardware4gnss4V1_121BpHwGnssConfigurationE0_NS2_18IGnssConfigurationE
_ZTCN7android8hardware4gnss4V1_121BpHwGnssConfigurationE0_NS_4hidl4base4V1_05IBaseE
_ZTCN7android8hardware4gnss4V1_121BpHwGnssConfigurationE16_NS0_11BpHwRefBaseE
_ZTCN7android8hardware4gnss4V1_121BpHwGnssConfigurationE8_NS0_10IInterfaceE
_ZTCN7android8hardware4gnss4V1_124IGnssMeasurementCallbackE0_NS1_4V1_024IGnssMeasurementCallbackE
_ZTCN7android8hardware4gnss4V1_124IGnssMeasurementCallbackE0_NS_4hidl4base4V1_05IBaseE
_ZTCN7android8hardware4gnss4V1_127BnHwGnssMeasurementCallbackE0_NS0_7IBinderE
_ZTCN7android8hardware4gnss4V1_127BnHwGnssMeasurementCallbackE0_NS0_9BHwBinderE
_ZTCN7android8hardware4gnss4V1_127BnHwGnssMeasurementCallbackE0_NS_4hidl4base4V1_08BnHwBaseE
_ZTCN7android8hardware4gnss4V1_127BpHwGnssMeasurementCallbackE0_NS0_11BpInterfaceINS2_24IGnssMeasurementCallbackEEE
_ZTCN7android8hardware4gnss4V1_127BpHwGnssMeasurementCallbackE0_NS1_4V1_024IGnssMeasurementCallbackE
_ZTCN7android8hardware4gnss4V1_127BpHwGnssMeasurementCallbackE0_NS2_24IGnssMeasurementCallbackE
_ZTCN7android8hardware4gnss4V1_127BpHwGnssMeasurementCallbackE0_NS_4hidl4base4V1_05IBaseE
_ZTCN7android8hardware4gnss4V1_127BpHwGnssMeasurementCallbackE16_NS0_11BpHwRefBaseE
_ZTCN7android8hardware4gnss4V1_127BpHwGnssMeasurementCallbackE8_NS0_10IInterfaceE
_ZTCN7android8hardware4gnss4V1_15IGnssE0_NS1_4V1_05IGnssE
_ZTCN7android8hardware4gnss4V1_15IGnssE0_NS_4hidl4base4V1_05IBaseE
_ZTCN7android8hardware4gnss4V1_18BnHwGnssE0_NS0_7IBinderE
_ZTCN7android8hardware4gnss4V1_18BnHwGnssE0_NS0_9BHwBinderE
_ZTCN7android8hardware4gnss4V1_18BnHwGnssE0_NS_4hidl4base4V1_08BnHwBaseE
_ZTCN7android8hardware4gnss4V1_18BpHwGnssE0_NS0_11BpInterfaceINS2_5IGnssEEE
_ZTCN7android8hardware4gnss4V1_18BpHwGnssE0_NS1_4V1_05IGnssE
_ZTCN7android8hardware4gnss4V1_18BpHwGnssE0_NS2_5IGnssE
_ZTCN7android8hardware4gnss4V1_18BpHwGnssE0_NS_4hidl4base4V1_05IBaseE
_ZTCN7android8hardware4gnss4V1_18BpHwGnssE16_NS0_11BpHwRefBaseE
_ZTCN7android8hardware4gnss4V1_18BpHwGnssE8_NS0_10IInterfaceE
_ZTTN7android8hardware4gnss4V1_113IGnssCallbackE
_ZTTN7android8hardware4gnss4V1_116BnHwGnssCallbackE
_ZTTN7android8hardware4gnss4V1_116BpHwGnssCallbackE
_ZTTN7android8hardware4gnss4V1_116IGnssMeasurementE
_ZTTN7android8hardware4gnss4V1_118IGnssConfigurationE
_ZTTN7android8hardware4gnss4V1_119BnHwGnssMeasurementE
_ZTTN7android8hardware4gnss4V1_119BpHwGnssMeasurementE
_ZTTN7android8hardware4gnss4V1_121BnHwGnssConfigurationE
_ZTTN7android8hardware4gnss4V1_121BpHwGnssConfigurationE
_ZTTN7android8hardware4gnss4V1_124IGnssMeasurementCallbackE
_ZTTN7android8hardware4gnss4V1_127BnHwGnssMeasurementCallbackE
_ZTTN7android8hardware4gnss4V1_127BpHwGnssMeasurementCallbackE
_ZTTN7android8hardware4gnss4V1_15IGnssE
_ZTTN7android8hardware4gnss4V1_18BnHwGnssE
_ZTTN7android8hardware4gnss4V1_18BpHwGnssE
_ZTVN7android8hardware4gnss4V1_113IGnssCallbackE
_ZTVN7android8hardware4gnss4V1_116BnHwGnssCallbackE
_ZTVN7android8hardware4gnss4V1_116BpHwGnssCallbackE
_ZTVN7android8hardware4gnss4V1_116IGnssMeasurementE
_ZTVN7android8hardware4gnss4V1_118IGnssConfigurationE
_ZTVN7android8hardware4gnss4V1_119BnHwGnssMeasurementE
_ZTVN7android8hardware4gnss4V1_119BpHwGnssMeasurementE
_ZTVN7android8hardware4gnss4V1_121BnHwGnssConfigurationE
_ZTVN7android8hardware4gnss4V1_121BpHwGnssConfigurationE
_ZTVN7android8hardware4gnss4V1_124IGnssMeasurementCallbackE
_ZTVN7android8hardware4gnss4V1_127BnHwGnssMeasurementCallbackE
_ZTVN7android8hardware4gnss4V1_127BpHwGnssMeasurementCallbackE
_ZTVN7android8hardware4gnss4V1_15IGnssE
_ZTVN7android8hardware4gnss4V1_18BnHwGnssE
_ZTVN7android8hardware4gnss4V1_18BpHwGnssE
_ZThn32_N7android8hardware4gnss4V1_116BnHwGnssCallbackD0Ev
_ZThn32_N7android8hardware4gnss4V1_116BnHwGnssCallbackD1Ev
_ZThn32_N7android8hardware4gnss4V1_119BnHwGnssMeasurementD0Ev
_ZThn32_N7android8hardware4gnss4V1_119BnHwGnssMeasurementD1Ev
_ZThn32_N7android8hardware4gnss4V1_121BnHwGnssConfigurationD0Ev
_ZThn32_N7android8hardware4gnss4V1_121BnHwGnssConfigurationD1Ev
_ZThn32_N7android8hardware4gnss4V1_127BnHwGnssMeasurementCallbackD0Ev
_ZThn32_N7android8hardware4gnss4V1_127BnHwGnssMeasurementCallbackD1Ev
_ZThn32_N7android8hardware4gnss4V1_18BnHwGnssD0Ev
_ZThn32_N7android8hardware4gnss4V1_18BnHwGnssD1Ev
_ZTv0_n24_N7android8hardware4gnss4V1_116BnHwGnssCallbackD0Ev
_ZTv0_n24_N7android8hardware4gnss4V1_116BnHwGnssCallbackD1Ev
_ZTv0_n24_N7android8hardware4gnss4V1_119BnHwGnssMeasurementD0Ev
_ZTv0_n24_N7android8hardware4gnss4V1_119BnHwGnssMeasurementD1Ev
_ZTv0_n24_N7android8hardware4gnss4V1_121BnHwGnssConfigurationD0Ev
_ZTv0_n24_N7android8hardware4gnss4V1_121BnHwGnssConfigurationD1Ev
_ZTv0_n24_N7android8hardware4gnss4V1_127BnHwGnssMeasurementCallbackD0Ev
_ZTv0_n24_N7android8hardware4gnss4V1_127BnHwGnssMeasurementCallbackD1Ev
_ZTv0_n24_N7android8hardware4gnss4V1_18BnHwGnssD0Ev
_ZTv0_n24_N7android8hardware4gnss4V1_18BnHwGnssD1Ev
