_ZN7android8hardware5audio6effect4V2_010BnHwEffect10_hidl_initEPNS_4hidl4base4V1_08BnHwBaseERKNS0_6ParcelEPSA_NSt3__18functionIFvRSA_EEE
_ZN7android8hardware5audio6effect4V2_010BnHwEffect10onTransactEjRKNS0_6ParcelEPS5_jNSt3__18functionIFvRS5_EEE
_ZN7android8hardware5audio6effect4V2_010BnHwEffect11_hidl_closeEPNS_4hidl4base4V1_08BnHwBaseERKNS0_6ParcelEPSA_NSt3__18functionIFvRSA_EEE
_ZN7android8hardware5audio6effect4V2_010BnHwEffect11_hidl_resetEPNS_4hidl4base4V1_08BnHwBaseERKNS0_6ParcelEPSA_NSt3__18functionIFvRSA_EEE
_ZN7android8hardware5audio6effect4V2_010BnHwEffect12_hidl_enableEPNS_4hidl4base4V1_08BnHwBaseERKNS0_6ParcelEPSA_NSt3__18functionIFvRSA_EEE
_ZN7android8hardware5audio6effect4V2_010BnHwEffect12getDebugInfoENSt3__18functionIFvRKNS_4hidl4base4V1_09DebugInfoEEEE
_ZN7android8hardware5audio6effect4V2_010BnHwEffect13_hidl_commandEPNS_4hidl4base4V1_08BnHwBaseERKNS0_6ParcelEPSA_NSt3__18functionIFvRSA_EEE
_ZN7android8hardware5audio6effect4V2_010BnHwEffect13_hidl_disableEPNS_4hidl4base4V1_08BnHwBaseERKNS0_6ParcelEPSA_NSt3__18functionIFvRSA_EEE
_ZN7android8hardware5audio6effect4V2_010BnHwEffect13_hidl_offloadEPNS_4hidl4base4V1_08BnHwBaseERKNS0_6ParcelEPSA_NSt3__18functionIFvRSA_EEE
_ZN7android8hardware5audio6effect4V2_010BnHwEffect15_hidl_getConfigEPNS_4hidl4base4V1_08BnHwBaseERKNS0_6ParcelEPSA_NSt3__18functionIFvRSA_EEE
_ZN7android8hardware5audio6effect4V2_010BnHwEffect15_hidl_setConfigEPNS_4hidl4base4V1_08BnHwBaseERKNS0_6ParcelEPSA_NSt3__18functionIFvRSA_EEE
_ZN7android8hardware5audio6effect4V2_010BnHwEffect15_hidl_setDeviceEPNS_4hidl4base4V1_08BnHwBaseERKNS0_6ParcelEPSA_NSt3__18functionIFvRSA_EEE
_ZN7android8hardware5audio6effect4V2_010BnHwEffect18_hidl_getParameterEPNS_4hidl4base4V1_08BnHwBaseERKNS0_6ParcelEPSA_NSt3__18functionIFvRSA_EEE
_ZN7android8hardware5audio6effect4V2_010BnHwEffect18_hidl_setAudioModeEPNS_4hidl4base4V1_08BnHwBaseERKNS0_6ParcelEPSA_NSt3__18functionIFvRSA_EEE
_ZN7android8hardware5audio6effect4V2_010BnHwEffect18_hidl_setParameterEPNS_4hidl4base4V1_08BnHwBaseERKNS0_6ParcelEPSA_NSt3__18functionIFvRSA_EEE
_ZN7android8hardware5audio6effect4V2_010BnHwEffect19_hidl_getDescriptorEPNS_4hidl4base4V1_08BnHwBaseERKNS0_6ParcelEPSA_NSt3__18functionIFvRSA_EEE
_ZN7android8hardware5audio6effect4V2_010BnHwEffect20_hidl_setAudioSourceEPNS_4hidl4base4V1_08BnHwBaseERKNS0_6ParcelEPSA_NSt3__18functionIFvRSA_EEE
_ZN7android8hardware5audio6effect4V2_010BnHwEffect20_hidl_setInputDeviceEPNS_4hidl4base4V1_08BnHwBaseERKNS0_6ParcelEPSA_NSt3__18functionIFvRSA_EEE
_ZN7android8hardware5audio6effect4V2_010BnHwEffect21_hidl_setAndGetVolumeEPNS_4hidl4base4V1_08BnHwBaseERKNS0_6ParcelEPSA_NSt3__18functionIFvRSA_EEE
_ZN7android8hardware5audio6effect4V2_010BnHwEffect22_hidl_getConfigReverseEPNS_4hidl4base4V1_08BnHwBaseERKNS0_6ParcelEPSA_NSt3__18functionIFvRSA_EEE
_ZN7android8hardware5audio6effect4V2_010BnHwEffect22_hidl_setConfigReverseEPNS_4hidl4base4V1_08BnHwBaseERKNS0_6ParcelEPSA_NSt3__18functionIFvRSA_EEE
_ZN7android8hardware5audio6effect4V2_010BnHwEffect23_hidl_setProcessBuffersEPNS_4hidl4base4V1_08BnHwBaseERKNS0_6ParcelEPSA_NSt3__18functionIFvRSA_EEE
_ZN7android8hardware5audio6effect4V2_010BnHwEffect26_hidl_getAuxChannelsConfigEPNS_4hidl4base4V1_08BnHwBaseERKNS0_6ParcelEPSA_NSt3__18functionIFvRSA_EEE
_ZN7android8hardware5audio6effect4V2_010BnHwEffect26_hidl_prepareForProcessingEPNS_4hidl4base4V1_08BnHwBaseERKNS0_6ParcelEPSA_NSt3__18functionIFvRSA_EEE
_ZN7android8hardware5audio6effect4V2_010BnHwEffect26_hidl_setAuxChannelsConfigEPNS_4hidl4base4V1_08BnHwBaseERKNS0_6ParcelEPSA_NSt3__18functionIFvRSA_EEE
_ZN7android8hardware5audio6effect4V2_010BnHwEffect30_hidl_volumeChangeNotificationEPNS_4hidl4base4V1_08BnHwBaseERKNS0_6ParcelEPSA_NSt3__18functionIFvRSA_EEE
_ZN7android8hardware5audio6effect4V2_010BnHwEffect32_hidl_getCurrentConfigForFeatureEPNS_4hidl4base4V1_08BnHwBaseERKNS0_6ParcelEPSA_NSt3__18functionIFvRSA_EEE
_ZN7android8hardware5audio6effect4V2_010BnHwEffect32_hidl_setCurrentConfigForFeatureEPNS_4hidl4base4V1_08BnHwBaseERKNS0_6ParcelEPSA_NSt3__18functionIFvRSA_EEE
_ZN7android8hardware5audio6effect4V2_010BnHwEffect35_hidl_getSupportedConfigsForFeatureEPNS_4hidl4base4V1_08BnHwBaseERKNS0_6ParcelEPSA_NSt3__18functionIFvRSA_EEE
_ZN7android8hardware5audio6effect4V2_010BnHwEffect36_hidl_getSupportedAuxChannelsConfigsEPNS_4hidl4base4V1_08BnHwBaseERKNS0_6ParcelEPSA_NSt3__18functionIFvRSA_EEE
_ZN7android8hardware5audio6effect4V2_010BnHwEffect4pingEv
_ZN7android8hardware5audio6effect4V2_010BnHwEffectC1ERKNS_2spINS3_7IEffectEEE
_ZN7android8hardware5audio6effect4V2_010BnHwEffectC2ERKNS_2spINS3_7IEffectEEE
_ZN7android8hardware5audio6effect4V2_010BnHwEffectD0Ev
_ZN7android8hardware5audio6effect4V2_010BnHwEffectD1Ev
_ZN7android8hardware5audio6effect4V2_010BnHwEffectD2Ev
_ZN7android8hardware5audio6effect4V2_010BpHwEffect10_hidl_initEPNS0_10IInterfaceEPNS0_7details16HidlInstrumentorE
_ZN7android8hardware5audio6effect4V2_010BpHwEffect11_hidl_closeEPNS0_10IInterfaceEPNS0_7details16HidlInstrumentorE
_ZN7android8hardware5audio6effect4V2_010BpHwEffect11_hidl_resetEPNS0_10IInterfaceEPNS0_7details16HidlInstrumentorE
_ZN7android8hardware5audio6effect4V2_010BpHwEffect11linkToDeathERKNS_2spINS0_20hidl_death_recipientEEEm
_ZN7android8hardware5audio6effect4V2_010BpHwEffect12_hidl_enableEPNS0_10IInterfaceEPNS0_7details16HidlInstrumentorE
_ZN7android8hardware5audio6effect4V2_010BpHwEffect12getDebugInfoENSt3__18functionIFvRKNS_4hidl4base4V1_09DebugInfoEEEE
_ZN7android8hardware5audio6effect4V2_010BpHwEffect12getHashChainENSt3__18functionIFvRKNS0_8hidl_vecINS0_10hidl_arrayIhLm32EJEEEEEEEE
_ZN7android8hardware5audio6effect4V2_010BpHwEffect12getParameterERKNS0_8hidl_vecIhEEjNSt3__18functionIFvNS3_6ResultES8_EEE
_ZN7android8hardware5audio6effect4V2_010BpHwEffect12setAudioModeENS1_6common4V2_09AudioModeE
_ZN7android8hardware5audio6effect4V2_010BpHwEffect12setParameterERKNS0_8hidl_vecIhEES8_
_ZN7android8hardware5audio6effect4V2_010BpHwEffect13_hidl_commandEPNS0_10IInterfaceEPNS0_7details16HidlInstrumentorEjRKNS0_8hidl_vecIhEEjNSt3__18functionIFviSD_EEE
_ZN7android8hardware5audio6effect4V2_010BpHwEffect13_hidl_disableEPNS0_10IInterfaceEPNS0_7details16HidlInstrumentorE
_ZN7android8hardware5audio6effect4V2_010BpHwEffect13_hidl_offloadEPNS0_10IInterfaceEPNS0_7details16HidlInstrumentorERKNS3_22EffectOffloadParameterE
_ZN7android8hardware5audio6effect4V2_010BpHwEffect13getDescriptorENSt3__18functionIFvNS3_6ResultERKNS3_16EffectDescriptorEEEE
_ZN7android8hardware5audio6effect4V2_010BpHwEffect13unlinkToDeathERKNS_2spINS0_20hidl_death_recipientEEE
_ZN7android8hardware5audio6effect4V2_010BpHwEffect14interfaceChainENSt3__18functionIFvRKNS0_8hidl_vecINS0_11hidl_stringEEEEEE
_ZN7android8hardware5audio6effect4V2_010BpHwEffect14setAudioSourceENS1_6common4V2_011AudioSourceE
_ZN7android8hardware5audio6effect4V2_010BpHwEffect14setInputDeviceENS1_6common4V2_011AudioDeviceE
_ZN7android8hardware5audio6effect4V2_010BpHwEffect15_hidl_getConfigEPNS0_10IInterfaceEPNS0_7details16HidlInstrumentorENSt3__18functionIFvNS3_6ResultERKNS3_12EffectConfigEEEE
_ZN7android8hardware5audio6effect4V2_010BpHwEffect15_hidl_setConfigEPNS0_10IInterfaceEPNS0_7details16HidlInstrumentorERKNS3_12EffectConfigERKNS_2spINS3_29IEffectBufferProviderCallbackEEESH_
_ZN7android8hardware5audio6effect4V2_010BpHwEffect15_hidl_setDeviceEPNS0_10IInterfaceEPNS0_7details16HidlInstrumentorENS1_6common4V2_011AudioDeviceE
_ZN7android8hardware5audio6effect4V2_010BpHwEffect15setAndGetVolumeERKNS0_8hidl_vecIjEENSt3__18functionIFvNS3_6ResultES8_EEE
_ZN7android8hardware5audio6effect4V2_010BpHwEffect16getConfigReverseENSt3__18functionIFvNS3_6ResultERKNS3_12EffectConfigEEEE
_ZN7android8hardware5audio6effect4V2_010BpHwEffect16setConfigReverseERKNS3_12EffectConfigERKNS_2spINS3_29IEffectBufferProviderCallbackEEESC_
_ZN7android8hardware5audio6effect4V2_010BpHwEffect17setProcessBuffersERKNS3_11AudioBufferES7_
_ZN7android8hardware5audio6effect4V2_010BpHwEffect18_hidl_getParameterEPNS0_10IInterfaceEPNS0_7details16HidlInstrumentorERKNS0_8hidl_vecIhEEjNSt3__18functionIFvNS3_6ResultESD_EEE
_ZN7android8hardware5audio6effect4V2_010BpHwEffect18_hidl_setAudioModeEPNS0_10IInterfaceEPNS0_7details16HidlInstrumentorENS1_6common4V2_09AudioModeE
_ZN7android8hardware5audio6effect4V2_010BpHwEffect18_hidl_setParameterEPNS0_10IInterfaceEPNS0_7details16HidlInstrumentorERKNS0_8hidl_vecIhEESD_
_ZN7android8hardware5audio6effect4V2_010BpHwEffect19_hidl_getDescriptorEPNS0_10IInterfaceEPNS0_7details16HidlInstrumentorENSt3__18functionIFvNS3_6ResultERKNS3_16EffectDescriptorEEEE
_ZN7android8hardware5audio6effect4V2_010BpHwEffect19interfaceDescriptorENSt3__18functionIFvRKNS0_11hidl_stringEEEE
_ZN7android8hardware5audio6effect4V2_010BpHwEffect20_hidl_setAudioSourceEPNS0_10IInterfaceEPNS0_7details16HidlInstrumentorENS1_6common4V2_011AudioSourceE
_ZN7android8hardware5audio6effect4V2_010BpHwEffect20_hidl_setInputDeviceEPNS0_10IInterfaceEPNS0_7details16HidlInstrumentorENS1_6common4V2_011AudioDeviceE
_ZN7android8hardware5audio6effect4V2_010BpHwEffect20getAuxChannelsConfigENSt3__18functionIFvNS3_6ResultERKNS3_23EffectAuxChannelsConfigEEEE
_ZN7android8hardware5audio6effect4V2_010BpHwEffect20prepareForProcessingENSt3__18functionIFvNS3_6ResultERKNS0_12MQDescriptorIS7_LNS0_8MQFlavorE1EEEEEE
_ZN7android8hardware5audio6effect4V2_010BpHwEffect20setAuxChannelsConfigERKNS3_23EffectAuxChannelsConfigE
_ZN7android8hardware5audio6effect4V2_010BpHwEffect21_hidl_setAndGetVolumeEPNS0_10IInterfaceEPNS0_7details16HidlInstrumentorERKNS0_8hidl_vecIjEENSt3__18functionIFvNS3_6ResultESD_EEE
_ZN7android8hardware5audio6effect4V2_010BpHwEffect21notifySyspropsChangedEv
_ZN7android8hardware5audio6effect4V2_010BpHwEffect21setHALInstrumentationEv
_ZN7android8hardware5audio6effect4V2_010BpHwEffect22_hidl_getConfigReverseEPNS0_10IInterfaceEPNS0_7details16HidlInstrumentorENSt3__18functionIFvNS3_6ResultERKNS3_12EffectConfigEEEE
_ZN7android8hardware5audio6effect4V2_010BpHwEffect22_hidl_setConfigReverseEPNS0_10IInterfaceEPNS0_7details16HidlInstrumentorERKNS3_12EffectConfigERKNS_2spINS3_29IEffectBufferProviderCallbackEEESH_
_ZN7android8hardware5audio6effect4V2_010BpHwEffect23_hidl_setProcessBuffersEPNS0_10IInterfaceEPNS0_7details16HidlInstrumentorERKNS3_11AudioBufferESC_
_ZN7android8hardware5audio6effect4V2_010BpHwEffect24volumeChangeNotificationERKNS0_8hidl_vecIjEE
_ZN7android8hardware5audio6effect4V2_010BpHwEffect26_hidl_getAuxChannelsConfigEPNS0_10IInterfaceEPNS0_7details16HidlInstrumentorENSt3__18functionIFvNS3_6ResultERKNS3_23EffectAuxChannelsConfigEEEE
_ZN7android8hardware5audio6effect4V2_010BpHwEffect26_hidl_prepareForProcessingEPNS0_10IInterfaceEPNS0_7details16HidlInstrumentorENSt3__18functionIFvNS3_6ResultERKNS0_12MQDescriptorISC_LNS0_8MQFlavorE1EEEEEE
_ZN7android8hardware5audio6effect4V2_010BpHwEffect26_hidl_setAuxChannelsConfigEPNS0_10IInterfaceEPNS0_7details16HidlInstrumentorERKNS3_23EffectAuxChannelsConfigE
_ZN7android8hardware5audio6effect4V2_010BpHwEffect26getCurrentConfigForFeatureEjjNSt3__18functionIFvNS3_6ResultERKNS0_8hidl_vecIhEEEEE
_ZN7android8hardware5audio6effect4V2_010BpHwEffect26setCurrentConfigForFeatureEjRKNS0_8hidl_vecIhEE
_ZN7android8hardware5audio6effect4V2_010BpHwEffect29getSupportedConfigsForFeatureEjjjNSt3__18functionIFvNS3_6ResultEjRKNS0_8hidl_vecIhEEEEE
_ZN7android8hardware5audio6effect4V2_010BpHwEffect30_hidl_volumeChangeNotificationEPNS0_10IInterfaceEPNS0_7details16HidlInstrumentorERKNS0_8hidl_vecIjEE
_ZN7android8hardware5audio6effect4V2_010BpHwEffect30getSupportedAuxChannelsConfigsEjNSt3__18functionIFvNS3_6ResultERKNS0_8hidl_vecINS3_23EffectAuxChannelsConfigEEEEEE
_ZN7android8hardware5audio6effect4V2_010BpHwEffect32_hidl_getCurrentConfigForFeatureEPNS0_10IInterfaceEPNS0_7details16HidlInstrumentorEjjNSt3__18functionIFvNS3_6ResultERKNS0_8hidl_vecIhEEEEE
_ZN7android8hardware5audio6effect4V2_010BpHwEffect32_hidl_setCurrentConfigForFeatureEPNS0_10IInterfaceEPNS0_7details16HidlInstrumentorEjRKNS0_8hidl_vecIhEE
_ZN7android8hardware5audio6effect4V2_010BpHwEffect35_hidl_getSupportedConfigsForFeatureEPNS0_10IInterfaceEPNS0_7details16HidlInstrumentorEjjjNSt3__18functionIFvNS3_6ResultEjRKNS0_8hidl_vecIhEEEEE
_ZN7android8hardware5audio6effect4V2_010BpHwEffect36_hidl_getSupportedAuxChannelsConfigsEPNS0_10IInterfaceEPNS0_7details16HidlInstrumentorEjNSt3__18functionIFvNS3_6ResultERKNS0_8hidl_vecINS3_23EffectAuxChannelsConfigEEEEEE
_ZN7android8hardware5audio6effect4V2_010BpHwEffect4initEv
_ZN7android8hardware5audio6effect4V2_010BpHwEffect4pingEv
_ZN7android8hardware5audio6effect4V2_010BpHwEffect5closeEv
_ZN7android8hardware5audio6effect4V2_010BpHwEffect5debugERKNS0_11hidl_handleERKNS0_8hidl_vecINS0_11hidl_stringEEE
_ZN7android8hardware5audio6effect4V2_010BpHwEffect5resetEv
_ZN7android8hardware5audio6effect4V2_010BpHwEffect6enableEv
_ZN7android8hardware5audio6effect4V2_010BpHwEffect7commandEjRKNS0_8hidl_vecIhEEjNSt3__18functionIFviS8_EEE
_ZN7android8hardware5audio6effect4V2_010BpHwEffect7disableEv
_ZN7android8hardware5audio6effect4V2_010BpHwEffect7offloadERKNS3_22EffectOffloadParameterE
_ZN7android8hardware5audio6effect4V2_010BpHwEffect9getConfigENSt3__18functionIFvNS3_6ResultERKNS3_12EffectConfigEEEE
_ZN7android8hardware5audio6effect4V2_010BpHwEffect9setConfigERKNS3_12EffectConfigERKNS_2spINS3_29IEffectBufferProviderCallbackEEESC_
_ZN7android8hardware5audio6effect4V2_010BpHwEffect9setDeviceENS1_6common4V2_011AudioDeviceE
_ZN7android8hardware5audio6effect4V2_010BpHwEffectC1ERKNS_2spINS0_7IBinderEEE
_ZN7android8hardware5audio6effect4V2_010BpHwEffectC2ERKNS_2spINS0_7IBinderEEE
_ZN7android8hardware5audio6effect4V2_014IDownmixEffect10descriptorE
_ZN7android8hardware5audio6effect4V2_014IDownmixEffect10getServiceERKNSt3__112basic_stringIcNS5_11char_traitsIcEENS5_9allocatorIcEEEEb
_ZN7android8hardware5audio6effect4V2_014IDownmixEffect11linkToDeathERKNS_2spINS0_20hidl_death_recipientEEEm
_ZN7android8hardware5audio6effect4V2_014IDownmixEffect12getDebugInfoENSt3__18functionIFvRKNS_4hidl4base4V1_09DebugInfoEEEE
_ZN7android8hardware5audio6effect4V2_014IDownmixEffect12getHashChainENSt3__18functionIFvRKNS0_8hidl_vecINS0_10hidl_arrayIhLm32EJEEEEEEEE
_ZN7android8hardware5audio6effect4V2_014IDownmixEffect13tryGetServiceERKNSt3__112basic_stringIcNS5_11char_traitsIcEENS5_9allocatorIcEEEEb
_ZN7android8hardware5audio6effect4V2_014IDownmixEffect13unlinkToDeathERKNS_2spINS0_20hidl_death_recipientEEE
_ZN7android8hardware5audio6effect4V2_014IDownmixEffect14interfaceChainENSt3__18functionIFvRKNS0_8hidl_vecINS0_11hidl_stringEEEEEE
_ZN7android8hardware5audio6effect4V2_014IDownmixEffect17registerAsServiceERKNSt3__112basic_stringIcNS5_11char_traitsIcEENS5_9allocatorIcEEEE
_ZN7android8hardware5audio6effect4V2_014IDownmixEffect19interfaceDescriptorENSt3__18functionIFvRKNS0_11hidl_stringEEEE
_ZN7android8hardware5audio6effect4V2_014IDownmixEffect21notifySyspropsChangedEv
_ZN7android8hardware5audio6effect4V2_014IDownmixEffect21setHALInstrumentationEv
_ZN7android8hardware5audio6effect4V2_014IDownmixEffect24registerForNotificationsERKNSt3__112basic_stringIcNS5_11char_traitsIcEENS5_9allocatorIcEEEERKNS_2spINS_4hidl7manager4V1_020IServiceNotificationEEE
_ZN7android8hardware5audio6effect4V2_014IDownmixEffect4pingEv
_ZN7android8hardware5audio6effect4V2_014IDownmixEffect5debugERKNS0_11hidl_handleERKNS0_8hidl_vecINS0_11hidl_stringEEE
_ZN7android8hardware5audio6effect4V2_014IDownmixEffect8castFromERKNS_2spINS3_7IEffectEEEb
_ZN7android8hardware5audio6effect4V2_014IDownmixEffect8castFromERKNS_2spINS_4hidl4base4V1_05IBaseEEEb
_ZN7android8hardware5audio6effect4V2_014IDownmixEffect8castFromERKNS_2spIS4_EEb
_ZN7android8hardware5audio6effect4V2_015BsDownmixEffect13addOnewayTaskENSt3__18functionIFvvEEE
_ZN7android8hardware5audio6effect4V2_015BsDownmixEffectC1ENS_2spINS3_14IDownmixEffectEEE
_ZN7android8hardware5audio6effect4V2_015BsDownmixEffectC2ENS_2spINS3_14IDownmixEffectEEE
_ZN7android8hardware5audio6effect4V2_015IEffectsFactory10descriptorE
_ZN7android8hardware5audio6effect4V2_015IEffectsFactory10getServiceERKNSt3__112basic_stringIcNS5_11char_traitsIcEENS5_9allocatorIcEEEEb
_ZN7android8hardware5audio6effect4V2_015IEffectsFactory11linkToDeathERKNS_2spINS0_20hidl_death_recipientEEEm
_ZN7android8hardware5audio6effect4V2_015IEffectsFactory12getDebugInfoENSt3__18functionIFvRKNS_4hidl4base4V1_09DebugInfoEEEE
_ZN7android8hardware5audio6effect4V2_015IEffectsFactory12getHashChainENSt3__18functionIFvRKNS0_8hidl_vecINS0_10hidl_arrayIhLm32EJEEEEEEEE
_ZN7android8hardware5audio6effect4V2_015IEffectsFactory13tryGetServiceERKNSt3__112basic_stringIcNS5_11char_traitsIcEENS5_9allocatorIcEEEEb
_ZN7android8hardware5audio6effect4V2_015IEffectsFactory13unlinkToDeathERKNS_2spINS0_20hidl_death_recipientEEE
_ZN7android8hardware5audio6effect4V2_015IEffectsFactory14interfaceChainENSt3__18functionIFvRKNS0_8hidl_vecINS0_11hidl_stringEEEEEE
_ZN7android8hardware5audio6effect4V2_015IEffectsFactory17registerAsServiceERKNSt3__112basic_stringIcNS5_11char_traitsIcEENS5_9allocatorIcEEEE
_ZN7android8hardware5audio6effect4V2_015IEffectsFactory19interfaceDescriptorENSt3__18functionIFvRKNS0_11hidl_stringEEEE
_ZN7android8hardware5audio6effect4V2_015IEffectsFactory21notifySyspropsChangedEv
_ZN7android8hardware5audio6effect4V2_015IEffectsFactory21setHALInstrumentationEv
_ZN7android8hardware5audio6effect4V2_015IEffectsFactory24registerForNotificationsERKNSt3__112basic_stringIcNS5_11char_traitsIcEENS5_9allocatorIcEEEERKNS_2spINS_4hidl7manager4V1_020IServiceNotificationEEE
_ZN7android8hardware5audio6effect4V2_015IEffectsFactory4pingEv
_ZN7android8hardware5audio6effect4V2_015IEffectsFactory5debugERKNS0_11hidl_handleERKNS0_8hidl_vecINS0_11hidl_stringEEE
_ZN7android8hardware5audio6effect4V2_015IEffectsFactory8castFromERKNS_2spINS_4hidl4base4V1_05IBaseEEEb
_ZN7android8hardware5audio6effect4V2_015IEffectsFactory8castFromERKNS_2spIS4_EEb
_ZN7android8hardware5audio6effect4V2_016BsEffectsFactory13addOnewayTaskENSt3__18functionIFvvEEE
_ZN7android8hardware5audio6effect4V2_016BsEffectsFactoryC1ENS_2spINS3_15IEffectsFactoryEEE
_ZN7android8hardware5audio6effect4V2_016BsEffectsFactoryC2ENS_2spINS3_15IEffectsFactoryEEE
_ZN7android8hardware5audio6effect4V2_016IBassBoostEffect10descriptorE
_ZN7android8hardware5audio6effect4V2_016IBassBoostEffect10getServiceERKNSt3__112basic_stringIcNS5_11char_traitsIcEENS5_9allocatorIcEEEEb
_ZN7android8hardware5audio6effect4V2_016IBassBoostEffect11linkToDeathERKNS_2spINS0_20hidl_death_recipientEEEm
_ZN7android8hardware5audio6effect4V2_016IBassBoostEffect12getDebugInfoENSt3__18functionIFvRKNS_4hidl4base4V1_09DebugInfoEEEE
_ZN7android8hardware5audio6effect4V2_016IBassBoostEffect12getHashChainENSt3__18functionIFvRKNS0_8hidl_vecINS0_10hidl_arrayIhLm32EJEEEEEEEE
_ZN7android8hardware5audio6effect4V2_016IBassBoostEffect13tryGetServiceERKNSt3__112basic_stringIcNS5_11char_traitsIcEENS5_9allocatorIcEEEEb
_ZN7android8hardware5audio6effect4V2_016IBassBoostEffect13unlinkToDeathERKNS_2spINS0_20hidl_death_recipientEEE
_ZN7android8hardware5audio6effect4V2_016IBassBoostEffect14interfaceChainENSt3__18functionIFvRKNS0_8hidl_vecINS0_11hidl_stringEEEEEE
_ZN7android8hardware5audio6effect4V2_016IBassBoostEffect17registerAsServiceERKNSt3__112basic_stringIcNS5_11char_traitsIcEENS5_9allocatorIcEEEE
_ZN7android8hardware5audio6effect4V2_016IBassBoostEffect19interfaceDescriptorENSt3__18functionIFvRKNS0_11hidl_stringEEEE
_ZN7android8hardware5audio6effect4V2_016IBassBoostEffect21notifySyspropsChangedEv
_ZN7android8hardware5audio6effect4V2_016IBassBoostEffect21setHALInstrumentationEv
_ZN7android8hardware5audio6effect4V2_016IBassBoostEffect24registerForNotificationsERKNSt3__112basic_stringIcNS5_11char_traitsIcEENS5_9allocatorIcEEEERKNS_2spINS_4hidl7manager4V1_020IServiceNotificationEEE
_ZN7android8hardware5audio6effect4V2_016IBassBoostEffect4pingEv
_ZN7android8hardware5audio6effect4V2_016IBassBoostEffect5debugERKNS0_11hidl_handleERKNS0_8hidl_vecINS0_11hidl_stringEEE
_ZN7android8hardware5audio6effect4V2_016IBassBoostEffect8castFromERKNS_2spINS3_7IEffectEEEb
_ZN7android8hardware5audio6effect4V2_016IBassBoostEffect8castFromERKNS_2spINS_4hidl4base4V1_05IBaseEEEb
_ZN7android8hardware5audio6effect4V2_016IBassBoostEffect8castFromERKNS_2spIS4_EEb
_ZN7android8hardware5audio6effect4V2_016IEqualizerEffect10descriptorE
_ZN7android8hardware5audio6effect4V2_016IEqualizerEffect10getServiceERKNSt3__112basic_stringIcNS5_11char_traitsIcEENS5_9allocatorIcEEEEb
_ZN7android8hardware5audio6effect4V2_016IEqualizerEffect11linkToDeathERKNS_2spINS0_20hidl_death_recipientEEEm
_ZN7android8hardware5audio6effect4V2_016IEqualizerEffect12getDebugInfoENSt3__18functionIFvRKNS_4hidl4base4V1_09DebugInfoEEEE
_ZN7android8hardware5audio6effect4V2_016IEqualizerEffect12getHashChainENSt3__18functionIFvRKNS0_8hidl_vecINS0_10hidl_arrayIhLm32EJEEEEEEEE
_ZN7android8hardware5audio6effect4V2_016IEqualizerEffect13tryGetServiceERKNSt3__112basic_stringIcNS5_11char_traitsIcEENS5_9allocatorIcEEEEb
_ZN7android8hardware5audio6effect4V2_016IEqualizerEffect13unlinkToDeathERKNS_2spINS0_20hidl_death_recipientEEE
_ZN7android8hardware5audio6effect4V2_016IEqualizerEffect14interfaceChainENSt3__18functionIFvRKNS0_8hidl_vecINS0_11hidl_stringEEEEEE
_ZN7android8hardware5audio6effect4V2_016IEqualizerEffect17registerAsServiceERKNSt3__112basic_stringIcNS5_11char_traitsIcEENS5_9allocatorIcEEEE
_ZN7android8hardware5audio6effect4V2_016IEqualizerEffect19interfaceDescriptorENSt3__18functionIFvRKNS0_11hidl_stringEEEE
_ZN7android8hardware5audio6effect4V2_016IEqualizerEffect21notifySyspropsChangedEv
_ZN7android8hardware5audio6effect4V2_016IEqualizerEffect21setHALInstrumentationEv
_ZN7android8hardware5audio6effect4V2_016IEqualizerEffect24registerForNotificationsERKNSt3__112basic_stringIcNS5_11char_traitsIcEENS5_9allocatorIcEEEERKNS_2spINS_4hidl7manager4V1_020IServiceNotificationEEE
_ZN7android8hardware5audio6effect4V2_016IEqualizerEffect4pingEv
_ZN7android8hardware5audio6effect4V2_016IEqualizerEffect5debugERKNS0_11hidl_handleERKNS0_8hidl_vecINS0_11hidl_stringEEE
_ZN7android8hardware5audio6effect4V2_016IEqualizerEffect8castFromERKNS_2spINS3_7IEffectEEEb
_ZN7android8hardware5audio6effect4V2_016IEqualizerEffect8castFromERKNS_2spINS_4hidl4base4V1_05IBaseEEEb
_ZN7android8hardware5audio6effect4V2_016IEqualizerEffect8castFromERKNS_2spIS4_EEb
_ZN7android8hardware5audio6effect4V2_017BnHwDownmixEffect10onTransactEjRKNS0_6ParcelEPS5_jNSt3__18functionIFvRS5_EEE
_ZN7android8hardware5audio6effect4V2_017BnHwDownmixEffect12getDebugInfoENSt3__18functionIFvRKNS_4hidl4base4V1_09DebugInfoEEEE
_ZN7android8hardware5audio6effect4V2_017BnHwDownmixEffect13_hidl_getTypeEPNS_4hidl4base4V1_08BnHwBaseERKNS0_6ParcelEPSA_NSt3__18functionIFvRSA_EEE
_ZN7android8hardware5audio6effect4V2_017BnHwDownmixEffect13_hidl_setTypeEPNS_4hidl4base4V1_08BnHwBaseERKNS0_6ParcelEPSA_NSt3__18functionIFvRSA_EEE
_ZN7android8hardware5audio6effect4V2_017BnHwDownmixEffect4pingEv
_ZN7android8hardware5audio6effect4V2_017BnHwDownmixEffectC1ERKNS_2spINS3_14IDownmixEffectEEE
_ZN7android8hardware5audio6effect4V2_017BnHwDownmixEffectC2ERKNS_2spINS3_14IDownmixEffectEEE
_ZN7android8hardware5audio6effect4V2_017BnHwDownmixEffectD0Ev
_ZN7android8hardware5audio6effect4V2_017BnHwDownmixEffectD1Ev
_ZN7android8hardware5audio6effect4V2_017BnHwDownmixEffectD2Ev
_ZN7android8hardware5audio6effect4V2_017BpHwDownmixEffect11linkToDeathERKNS_2spINS0_20hidl_death_recipientEEEm
_ZN7android8hardware5audio6effect4V2_017BpHwDownmixEffect12getDebugInfoENSt3__18functionIFvRKNS_4hidl4base4V1_09DebugInfoEEEE
_ZN7android8hardware5audio6effect4V2_017BpHwDownmixEffect12getHashChainENSt3__18functionIFvRKNS0_8hidl_vecINS0_10hidl_arrayIhLm32EJEEEEEEEE
_ZN7android8hardware5audio6effect4V2_017BpHwDownmixEffect12getParameterERKNS0_8hidl_vecIhEEjNSt3__18functionIFvNS3_6ResultES8_EEE
_ZN7android8hardware5audio6effect4V2_017BpHwDownmixEffect12setAudioModeENS1_6common4V2_09AudioModeE
_ZN7android8hardware5audio6effect4V2_017BpHwDownmixEffect12setParameterERKNS0_8hidl_vecIhEES8_
_ZN7android8hardware5audio6effect4V2_017BpHwDownmixEffect13_hidl_getTypeEPNS0_10IInterfaceEPNS0_7details16HidlInstrumentorENSt3__18functionIFvNS3_6ResultENS3_14IDownmixEffect4TypeEEEE
_ZN7android8hardware5audio6effect4V2_017BpHwDownmixEffect13_hidl_setTypeEPNS0_10IInterfaceEPNS0_7details16HidlInstrumentorENS3_14IDownmixEffect4TypeE
_ZN7android8hardware5audio6effect4V2_017BpHwDownmixEffect13getDescriptorENSt3__18functionIFvNS3_6ResultERKNS3_16EffectDescriptorEEEE
_ZN7android8hardware5audio6effect4V2_017BpHwDownmixEffect13unlinkToDeathERKNS_2spINS0_20hidl_death_recipientEEE
_ZN7android8hardware5audio6effect4V2_017BpHwDownmixEffect14interfaceChainENSt3__18functionIFvRKNS0_8hidl_vecINS0_11hidl_stringEEEEEE
_ZN7android8hardware5audio6effect4V2_017BpHwDownmixEffect14setAudioSourceENS1_6common4V2_011AudioSourceE
_ZN7android8hardware5audio6effect4V2_017BpHwDownmixEffect14setInputDeviceENS1_6common4V2_011AudioDeviceE
_ZN7android8hardware5audio6effect4V2_017BpHwDownmixEffect15setAndGetVolumeERKNS0_8hidl_vecIjEENSt3__18functionIFvNS3_6ResultES8_EEE
_ZN7android8hardware5audio6effect4V2_017BpHwDownmixEffect16getConfigReverseENSt3__18functionIFvNS3_6ResultERKNS3_12EffectConfigEEEE
_ZN7android8hardware5audio6effect4V2_017BpHwDownmixEffect16setConfigReverseERKNS3_12EffectConfigERKNS_2spINS3_29IEffectBufferProviderCallbackEEESC_
_ZN7android8hardware5audio6effect4V2_017BpHwDownmixEffect17setProcessBuffersERKNS3_11AudioBufferES7_
_ZN7android8hardware5audio6effect4V2_017BpHwDownmixEffect19interfaceDescriptorENSt3__18functionIFvRKNS0_11hidl_stringEEEE
_ZN7android8hardware5audio6effect4V2_017BpHwDownmixEffect20getAuxChannelsConfigENSt3__18functionIFvNS3_6ResultERKNS3_23EffectAuxChannelsConfigEEEE
_ZN7android8hardware5audio6effect4V2_017BpHwDownmixEffect20prepareForProcessingENSt3__18functionIFvNS3_6ResultERKNS0_12MQDescriptorIS7_LNS0_8MQFlavorE1EEEEEE
_ZN7android8hardware5audio6effect4V2_017BpHwDownmixEffect20setAuxChannelsConfigERKNS3_23EffectAuxChannelsConfigE
_ZN7android8hardware5audio6effect4V2_017BpHwDownmixEffect21notifySyspropsChangedEv
_ZN7android8hardware5audio6effect4V2_017BpHwDownmixEffect21setHALInstrumentationEv
_ZN7android8hardware5audio6effect4V2_017BpHwDownmixEffect24volumeChangeNotificationERKNS0_8hidl_vecIjEE
_ZN7android8hardware5audio6effect4V2_017BpHwDownmixEffect26getCurrentConfigForFeatureEjjNSt3__18functionIFvNS3_6ResultERKNS0_8hidl_vecIhEEEEE
_ZN7android8hardware5audio6effect4V2_017BpHwDownmixEffect26setCurrentConfigForFeatureEjRKNS0_8hidl_vecIhEE
_ZN7android8hardware5audio6effect4V2_017BpHwDownmixEffect29getSupportedConfigsForFeatureEjjjNSt3__18functionIFvNS3_6ResultEjRKNS0_8hidl_vecIhEEEEE
_ZN7android8hardware5audio6effect4V2_017BpHwDownmixEffect30getSupportedAuxChannelsConfigsEjNSt3__18functionIFvNS3_6ResultERKNS0_8hidl_vecINS3_23EffectAuxChannelsConfigEEEEEE
_ZN7android8hardware5audio6effect4V2_017BpHwDownmixEffect4initEv
_ZN7android8hardware5audio6effect4V2_017BpHwDownmixEffect4pingEv
_ZN7android8hardware5audio6effect4V2_017BpHwDownmixEffect5closeEv
_ZN7android8hardware5audio6effect4V2_017BpHwDownmixEffect5debugERKNS0_11hidl_handleERKNS0_8hidl_vecINS0_11hidl_stringEEE
_ZN7android8hardware5audio6effect4V2_017BpHwDownmixEffect5resetEv
_ZN7android8hardware5audio6effect4V2_017BpHwDownmixEffect6enableEv
_ZN7android8hardware5audio6effect4V2_017BpHwDownmixEffect7commandEjRKNS0_8hidl_vecIhEEjNSt3__18functionIFviS8_EEE
_ZN7android8hardware5audio6effect4V2_017BpHwDownmixEffect7disableEv
_ZN7android8hardware5audio6effect4V2_017BpHwDownmixEffect7getTypeENSt3__18functionIFvNS3_6ResultENS3_14IDownmixEffect4TypeEEEE
_ZN7android8hardware5audio6effect4V2_017BpHwDownmixEffect7offloadERKNS3_22EffectOffloadParameterE
_ZN7android8hardware5audio6effect4V2_017BpHwDownmixEffect7setTypeENS3_14IDownmixEffect4TypeE
_ZN7android8hardware5audio6effect4V2_017BpHwDownmixEffect9getConfigENSt3__18functionIFvNS3_6ResultERKNS3_12EffectConfigEEEE
_ZN7android8hardware5audio6effect4V2_017BpHwDownmixEffect9setConfigERKNS3_12EffectConfigERKNS_2spINS3_29IEffectBufferProviderCallbackEEESC_
_ZN7android8hardware5audio6effect4V2_017BpHwDownmixEffect9setDeviceENS1_6common4V2_011AudioDeviceE
_ZN7android8hardware5audio6effect4V2_017BpHwDownmixEffectC1ERKNS_2spINS0_7IBinderEEE
_ZN7android8hardware5audio6effect4V2_017BpHwDownmixEffectC2ERKNS_2spINS0_7IBinderEEE
_ZN7android8hardware5audio6effect4V2_017BsBassBoostEffect13addOnewayTaskENSt3__18functionIFvvEEE
_ZN7android8hardware5audio6effect4V2_017BsBassBoostEffectC1ENS_2spINS3_16IBassBoostEffectEEE
_ZN7android8hardware5audio6effect4V2_017BsBassBoostEffectC2ENS_2spINS3_16IBassBoostEffectEEE
_ZN7android8hardware5audio6effect4V2_017BsEqualizerEffect13addOnewayTaskENSt3__18functionIFvvEEE
_ZN7android8hardware5audio6effect4V2_017BsEqualizerEffectC1ENS_2spINS3_16IEqualizerEffectEEE
_ZN7android8hardware5audio6effect4V2_017BsEqualizerEffectC2ENS_2spINS3_16IEqualizerEffectEEE
_ZN7android8hardware5audio6effect4V2_017IVisualizerEffect10descriptorE
_ZN7android8hardware5audio6effect4V2_017IVisualizerEffect10getServiceERKNSt3__112basic_stringIcNS5_11char_traitsIcEENS5_9allocatorIcEEEEb
_ZN7android8hardware5audio6effect4V2_017IVisualizerEffect11linkToDeathERKNS_2spINS0_20hidl_death_recipientEEEm
_ZN7android8hardware5audio6effect4V2_017IVisualizerEffect12getDebugInfoENSt3__18functionIFvRKNS_4hidl4base4V1_09DebugInfoEEEE
_ZN7android8hardware5audio6effect4V2_017IVisualizerEffect12getHashChainENSt3__18functionIFvRKNS0_8hidl_vecINS0_10hidl_arrayIhLm32EJEEEEEEEE
_ZN7android8hardware5audio6effect4V2_017IVisualizerEffect13tryGetServiceERKNSt3__112basic_stringIcNS5_11char_traitsIcEENS5_9allocatorIcEEEEb
_ZN7android8hardware5audio6effect4V2_017IVisualizerEffect13unlinkToDeathERKNS_2spINS0_20hidl_death_recipientEEE
_ZN7android8hardware5audio6effect4V2_017IVisualizerEffect14interfaceChainENSt3__18functionIFvRKNS0_8hidl_vecINS0_11hidl_stringEEEEEE
_ZN7android8hardware5audio6effect4V2_017IVisualizerEffect17registerAsServiceERKNSt3__112basic_stringIcNS5_11char_traitsIcEENS5_9allocatorIcEEEE
_ZN7android8hardware5audio6effect4V2_017IVisualizerEffect19interfaceDescriptorENSt3__18functionIFvRKNS0_11hidl_stringEEEE
_ZN7android8hardware5audio6effect4V2_017IVisualizerEffect21notifySyspropsChangedEv
_ZN7android8hardware5audio6effect4V2_017IVisualizerEffect21setHALInstrumentationEv
_ZN7android8hardware5audio6effect4V2_017IVisualizerEffect24registerForNotificationsERKNSt3__112basic_stringIcNS5_11char_traitsIcEENS5_9allocatorIcEEEERKNS_2spINS_4hidl7manager4V1_020IServiceNotificationEEE
_ZN7android8hardware5audio6effect4V2_017IVisualizerEffect4pingEv
_ZN7android8hardware5audio6effect4V2_017IVisualizerEffect5debugERKNS0_11hidl_handleERKNS0_8hidl_vecINS0_11hidl_stringEEE
_ZN7android8hardware5audio6effect4V2_017IVisualizerEffect8castFromERKNS_2spINS3_7IEffectEEEb
_ZN7android8hardware5audio6effect4V2_017IVisualizerEffect8castFromERKNS_2spINS_4hidl4base4V1_05IBaseEEEb
_ZN7android8hardware5audio6effect4V2_017IVisualizerEffect8castFromERKNS_2spIS4_EEb
_ZN7android8hardware5audio6effect4V2_018BnHwEffectsFactory10onTransactEjRKNS0_6ParcelEPS5_jNSt3__18functionIFvRS5_EEE
_ZN7android8hardware5audio6effect4V2_018BnHwEffectsFactory12getDebugInfoENSt3__18functionIFvRKNS_4hidl4base4V1_09DebugInfoEEEE
_ZN7android8hardware5audio6effect4V2_018BnHwEffectsFactory15_hidl_debugDumpEPNS_4hidl4base4V1_08BnHwBaseERKNS0_6ParcelEPSA_NSt3__18functionIFvRSA_EEE
_ZN7android8hardware5audio6effect4V2_018BnHwEffectsFactory18_hidl_createEffectEPNS_4hidl4base4V1_08BnHwBaseERKNS0_6ParcelEPSA_NSt3__18functionIFvRSA_EEE
_ZN7android8hardware5audio6effect4V2_018BnHwEffectsFactory19_hidl_getDescriptorEPNS_4hidl4base4V1_08BnHwBaseERKNS0_6ParcelEPSA_NSt3__18functionIFvRSA_EEE
_ZN7android8hardware5audio6effect4V2_018BnHwEffectsFactory23_hidl_getAllDescriptorsEPNS_4hidl4base4V1_08BnHwBaseERKNS0_6ParcelEPSA_NSt3__18functionIFvRSA_EEE
_ZN7android8hardware5audio6effect4V2_018BnHwEffectsFactory4pingEv
_ZN7android8hardware5audio6effect4V2_018BnHwEffectsFactoryC1ERKNS_2spINS3_15IEffectsFactoryEEE
_ZN7android8hardware5audio6effect4V2_018BnHwEffectsFactoryC2ERKNS_2spINS3_15IEffectsFactoryEEE
_ZN7android8hardware5audio6effect4V2_018BnHwEffectsFactoryD0Ev
_ZN7android8hardware5audio6effect4V2_018BnHwEffectsFactoryD1Ev
_ZN7android8hardware5audio6effect4V2_018BnHwEffectsFactoryD2Ev
_ZN7android8hardware5audio6effect4V2_018BpHwEffectsFactory11linkToDeathERKNS_2spINS0_20hidl_death_recipientEEEm
_ZN7android8hardware5audio6effect4V2_018BpHwEffectsFactory12createEffectERKNS1_6common4V2_04UuidEiiNSt3__18functionIFvNS3_6ResultERKNS_2spINS3_7IEffectEEEmEEE
_ZN7android8hardware5audio6effect4V2_018BpHwEffectsFactory12getDebugInfoENSt3__18functionIFvRKNS_4hidl4base4V1_09DebugInfoEEEE
_ZN7android8hardware5audio6effect4V2_018BpHwEffectsFactory12getHashChainENSt3__18functionIFvRKNS0_8hidl_vecINS0_10hidl_arrayIhLm32EJEEEEEEEE
_ZN7android8hardware5audio6effect4V2_018BpHwEffectsFactory13getDescriptorERKNS1_6common4V2_04UuidENSt3__18functionIFvNS3_6ResultERKNS3_16EffectDescriptorEEEE
_ZN7android8hardware5audio6effect4V2_018BpHwEffectsFactory13unlinkToDeathERKNS_2spINS0_20hidl_death_recipientEEE
_ZN7android8hardware5audio6effect4V2_018BpHwEffectsFactory14interfaceChainENSt3__18functionIFvRKNS0_8hidl_vecINS0_11hidl_stringEEEEEE
_ZN7android8hardware5audio6effect4V2_018BpHwEffectsFactory15_hidl_debugDumpEPNS0_10IInterfaceEPNS0_7details16HidlInstrumentorERKNS0_11hidl_handleE
_ZN7android8hardware5audio6effect4V2_018BpHwEffectsFactory17getAllDescriptorsENSt3__18functionIFvNS3_6ResultERKNS0_8hidl_vecINS3_16EffectDescriptorEEEEEE
_ZN7android8hardware5audio6effect4V2_018BpHwEffectsFactory18_hidl_createEffectEPNS0_10IInterfaceEPNS0_7details16HidlInstrumentorERKNS1_6common4V2_04UuidEiiNSt3__18functionIFvNS3_6ResultERKNS_2spINS3_7IEffectEEEmEEE
_ZN7android8hardware5audio6effect4V2_018BpHwEffectsFactory19_hidl_getDescriptorEPNS0_10IInterfaceEPNS0_7details16HidlInstrumentorERKNS1_6common4V2_04UuidENSt3__18functionIFvNS3_6ResultERKNS3_16EffectDescriptorEEEE
_ZN7android8hardware5audio6effect4V2_018BpHwEffectsFactory19interfaceDescriptorENSt3__18functionIFvRKNS0_11hidl_stringEEEE
_ZN7android8hardware5audio6effect4V2_018BpHwEffectsFactory21notifySyspropsChangedEv
_ZN7android8hardware5audio6effect4V2_018BpHwEffectsFactory21setHALInstrumentationEv
_ZN7android8hardware5audio6effect4V2_018BpHwEffectsFactory23_hidl_getAllDescriptorsEPNS0_10IInterfaceEPNS0_7details16HidlInstrumentorENSt3__18functionIFvNS3_6ResultERKNS0_8hidl_vecINS3_16EffectDescriptorEEEEEE
_ZN7android8hardware5audio6effect4V2_018BpHwEffectsFactory4pingEv
_ZN7android8hardware5audio6effect4V2_018BpHwEffectsFactory5debugERKNS0_11hidl_handleERKNS0_8hidl_vecINS0_11hidl_stringEEE
_ZN7android8hardware5audio6effect4V2_018BpHwEffectsFactory9debugDumpERKNS0_11hidl_handleE
_ZN7android8hardware5audio6effect4V2_018BpHwEffectsFactoryC1ERKNS_2spINS0_7IBinderEEE
_ZN7android8hardware5audio6effect4V2_018BpHwEffectsFactoryC2ERKNS_2spINS0_7IBinderEEE
_ZN7android8hardware5audio6effect4V2_018BsVisualizerEffect13addOnewayTaskENSt3__18functionIFvvEEE
_ZN7android8hardware5audio6effect4V2_018BsVisualizerEffectC1ENS_2spINS3_17IVisualizerEffectEEE
_ZN7android8hardware5audio6effect4V2_018BsVisualizerEffectC2ENS_2spINS3_17IVisualizerEffectEEE
_ZN7android8hardware5audio6effect4V2_018IVirtualizerEffect10descriptorE
_ZN7android8hardware5audio6effect4V2_018IVirtualizerEffect10getServiceERKNSt3__112basic_stringIcNS5_11char_traitsIcEENS5_9allocatorIcEEEEb
_ZN7android8hardware5audio6effect4V2_018IVirtualizerEffect11linkToDeathERKNS_2spINS0_20hidl_death_recipientEEEm
_ZN7android8hardware5audio6effect4V2_018IVirtualizerEffect12getDebugInfoENSt3__18functionIFvRKNS_4hidl4base4V1_09DebugInfoEEEE
_ZN7android8hardware5audio6effect4V2_018IVirtualizerEffect12getHashChainENSt3__18functionIFvRKNS0_8hidl_vecINS0_10hidl_arrayIhLm32EJEEEEEEEE
_ZN7android8hardware5audio6effect4V2_018IVirtualizerEffect13tryGetServiceERKNSt3__112basic_stringIcNS5_11char_traitsIcEENS5_9allocatorIcEEEEb
_ZN7android8hardware5audio6effect4V2_018IVirtualizerEffect13unlinkToDeathERKNS_2spINS0_20hidl_death_recipientEEE
_ZN7android8hardware5audio6effect4V2_018IVirtualizerEffect14interfaceChainENSt3__18functionIFvRKNS0_8hidl_vecINS0_11hidl_stringEEEEEE
_ZN7android8hardware5audio6effect4V2_018IVirtualizerEffect17registerAsServiceERKNSt3__112basic_stringIcNS5_11char_traitsIcEENS5_9allocatorIcEEEE
_ZN7android8hardware5audio6effect4V2_018IVirtualizerEffect19interfaceDescriptorENSt3__18functionIFvRKNS0_11hidl_stringEEEE
_ZN7android8hardware5audio6effect4V2_018IVirtualizerEffect21notifySyspropsChangedEv
_ZN7android8hardware5audio6effect4V2_018IVirtualizerEffect21setHALInstrumentationEv
_ZN7android8hardware5audio6effect4V2_018IVirtualizerEffect24registerForNotificationsERKNSt3__112basic_stringIcNS5_11char_traitsIcEENS5_9allocatorIcEEEERKNS_2spINS_4hidl7manager4V1_020IServiceNotificationEEE
_ZN7android8hardware5audio6effect4V2_018IVirtualizerEffect4pingEv
_ZN7android8hardware5audio6effect4V2_018IVirtualizerEffect5debugERKNS0_11hidl_handleERKNS0_8hidl_vecINS0_11hidl_stringEEE
_ZN7android8hardware5audio6effect4V2_018IVirtualizerEffect8castFromERKNS_2spINS3_7IEffectEEEb
_ZN7android8hardware5audio6effect4V2_018IVirtualizerEffect8castFromERKNS_2spINS_4hidl4base4V1_05IBaseEEEb
_ZN7android8hardware5audio6effect4V2_018IVirtualizerEffect8castFromERKNS_2spIS4_EEb
_ZN7android8hardware5audio6effect4V2_019BnHwBassBoostEffect10onTransactEjRKNS0_6ParcelEPS5_jNSt3__18functionIFvRS5_EEE
_ZN7android8hardware5audio6effect4V2_019BnHwBassBoostEffect12getDebugInfoENSt3__18functionIFvRKNS_4hidl4base4V1_09DebugInfoEEEE
_ZN7android8hardware5audio6effect4V2_019BnHwBassBoostEffect17_hidl_getStrengthEPNS_4hidl4base4V1_08BnHwBaseERKNS0_6ParcelEPSA_NSt3__18functionIFvRSA_EEE
_ZN7android8hardware5audio6effect4V2_019BnHwBassBoostEffect17_hidl_setStrengthEPNS_4hidl4base4V1_08BnHwBaseERKNS0_6ParcelEPSA_NSt3__18functionIFvRSA_EEE
_ZN7android8hardware5audio6effect4V2_019BnHwBassBoostEffect25_hidl_isStrengthSupportedEPNS_4hidl4base4V1_08BnHwBaseERKNS0_6ParcelEPSA_NSt3__18functionIFvRSA_EEE
_ZN7android8hardware5audio6effect4V2_019BnHwBassBoostEffect4pingEv
_ZN7android8hardware5audio6effect4V2_019BnHwBassBoostEffectC1ERKNS_2spINS3_16IBassBoostEffectEEE
_ZN7android8hardware5audio6effect4V2_019BnHwBassBoostEffectC2ERKNS_2spINS3_16IBassBoostEffectEEE
_ZN7android8hardware5audio6effect4V2_019BnHwBassBoostEffectD0Ev
_ZN7android8hardware5audio6effect4V2_019BnHwBassBoostEffectD1Ev
_ZN7android8hardware5audio6effect4V2_019BnHwBassBoostEffectD2Ev
_ZN7android8hardware5audio6effect4V2_019BnHwEqualizerEffect10onTransactEjRKNS0_6ParcelEPS5_jNSt3__18functionIFvRS5_EEE
_ZN7android8hardware5audio6effect4V2_019BnHwEqualizerEffect12getDebugInfoENSt3__18functionIFvRKNS_4hidl4base4V1_09DebugInfoEEEE
_ZN7android8hardware5audio6effect4V2_019BnHwEqualizerEffect17_hidl_getNumBandsEPNS_4hidl4base4V1_08BnHwBaseERKNS0_6ParcelEPSA_NSt3__18functionIFvRSA_EEE
_ZN7android8hardware5audio6effect4V2_019BnHwEqualizerEffect18_hidl_getBandLevelEPNS_4hidl4base4V1_08BnHwBaseERKNS0_6ParcelEPSA_NSt3__18functionIFvRSA_EEE
_ZN7android8hardware5audio6effect4V2_019BnHwEqualizerEffect18_hidl_setBandLevelEPNS_4hidl4base4V1_08BnHwBaseERKNS0_6ParcelEPSA_NSt3__18functionIFvRSA_EEE
_ZN7android8hardware5audio6effect4V2_019BnHwEqualizerEffect19_hidl_getLevelRangeEPNS_4hidl4base4V1_08BnHwBaseERKNS0_6ParcelEPSA_NSt3__18functionIFvRSA_EEE
_ZN7android8hardware5audio6effect4V2_019BnHwEqualizerEffect20_hidl_getPresetNamesEPNS_4hidl4base4V1_08BnHwBaseERKNS0_6ParcelEPSA_NSt3__18functionIFvRSA_EEE
_ZN7android8hardware5audio6effect4V2_019BnHwEqualizerEffect22_hidl_getAllPropertiesEPNS_4hidl4base4V1_08BnHwBaseERKNS0_6ParcelEPSA_NSt3__18functionIFvRSA_EEE
_ZN7android8hardware5audio6effect4V2_019BnHwEqualizerEffect22_hidl_getCurrentPresetEPNS_4hidl4base4V1_08BnHwBaseERKNS0_6ParcelEPSA_NSt3__18functionIFvRSA_EEE
_ZN7android8hardware5audio6effect4V2_019BnHwEqualizerEffect22_hidl_setAllPropertiesEPNS_4hidl4base4V1_08BnHwBaseERKNS0_6ParcelEPSA_NSt3__18functionIFvRSA_EEE
_ZN7android8hardware5audio6effect4V2_019BnHwEqualizerEffect22_hidl_setCurrentPresetEPNS_4hidl4base4V1_08BnHwBaseERKNS0_6ParcelEPSA_NSt3__18functionIFvRSA_EEE
_ZN7android8hardware5audio6effect4V2_019BnHwEqualizerEffect25_hidl_getBandForFrequencyEPNS_4hidl4base4V1_08BnHwBaseERKNS0_6ParcelEPSA_NSt3__18functionIFvRSA_EEE
_ZN7android8hardware5audio6effect4V2_019BnHwEqualizerEffect27_hidl_getBandFrequencyRangeEPNS_4hidl4base4V1_08BnHwBaseERKNS0_6ParcelEPSA_NSt3__18functionIFvRSA_EEE
_ZN7android8hardware5audio6effect4V2_019BnHwEqualizerEffect28_hidl_getBandCenterFrequencyEPNS_4hidl4base4V1_08BnHwBaseERKNS0_6ParcelEPSA_NSt3__18functionIFvRSA_EEE
_ZN7android8hardware5audio6effect4V2_019BnHwEqualizerEffect4pingEv
_ZN7android8hardware5audio6effect4V2_019BnHwEqualizerEffectC1ERKNS_2spINS3_16IEqualizerEffectEEE
_ZN7android8hardware5audio6effect4V2_019BnHwEqualizerEffectC2ERKNS_2spINS3_16IEqualizerEffectEEE
_ZN7android8hardware5audio6effect4V2_019BnHwEqualizerEffectD0Ev
_ZN7android8hardware5audio6effect4V2_019BnHwEqualizerEffectD1Ev
_ZN7android8hardware5audio6effect4V2_019BnHwEqualizerEffectD2Ev
_ZN7android8hardware5audio6effect4V2_019BpHwBassBoostEffect11getStrengthENSt3__18functionIFvNS3_6ResultEtEEE
_ZN7android8hardware5audio6effect4V2_019BpHwBassBoostEffect11linkToDeathERKNS_2spINS0_20hidl_death_recipientEEEm
_ZN7android8hardware5audio6effect4V2_019BpHwBassBoostEffect11setStrengthEt
_ZN7android8hardware5audio6effect4V2_019BpHwBassBoostEffect12getDebugInfoENSt3__18functionIFvRKNS_4hidl4base4V1_09DebugInfoEEEE
_ZN7android8hardware5audio6effect4V2_019BpHwBassBoostEffect12getHashChainENSt3__18functionIFvRKNS0_8hidl_vecINS0_10hidl_arrayIhLm32EJEEEEEEEE
_ZN7android8hardware5audio6effect4V2_019BpHwBassBoostEffect12getParameterERKNS0_8hidl_vecIhEEjNSt3__18functionIFvNS3_6ResultES8_EEE
_ZN7android8hardware5audio6effect4V2_019BpHwBassBoostEffect12setAudioModeENS1_6common4V2_09AudioModeE
_ZN7android8hardware5audio6effect4V2_019BpHwBassBoostEffect12setParameterERKNS0_8hidl_vecIhEES8_
_ZN7android8hardware5audio6effect4V2_019BpHwBassBoostEffect13getDescriptorENSt3__18functionIFvNS3_6ResultERKNS3_16EffectDescriptorEEEE
_ZN7android8hardware5audio6effect4V2_019BpHwBassBoostEffect13unlinkToDeathERKNS_2spINS0_20hidl_death_recipientEEE
_ZN7android8hardware5audio6effect4V2_019BpHwBassBoostEffect14interfaceChainENSt3__18functionIFvRKNS0_8hidl_vecINS0_11hidl_stringEEEEEE
_ZN7android8hardware5audio6effect4V2_019BpHwBassBoostEffect14setAudioSourceENS1_6common4V2_011AudioSourceE
_ZN7android8hardware5audio6effect4V2_019BpHwBassBoostEffect14setInputDeviceENS1_6common4V2_011AudioDeviceE
_ZN7android8hardware5audio6effect4V2_019BpHwBassBoostEffect15setAndGetVolumeERKNS0_8hidl_vecIjEENSt3__18functionIFvNS3_6ResultES8_EEE
_ZN7android8hardware5audio6effect4V2_019BpHwBassBoostEffect16getConfigReverseENSt3__18functionIFvNS3_6ResultERKNS3_12EffectConfigEEEE
_ZN7android8hardware5audio6effect4V2_019BpHwBassBoostEffect16setConfigReverseERKNS3_12EffectConfigERKNS_2spINS3_29IEffectBufferProviderCallbackEEESC_
_ZN7android8hardware5audio6effect4V2_019BpHwBassBoostEffect17_hidl_getStrengthEPNS0_10IInterfaceEPNS0_7details16HidlInstrumentorENSt3__18functionIFvNS3_6ResultEtEEE
_ZN7android8hardware5audio6effect4V2_019BpHwBassBoostEffect17_hidl_setStrengthEPNS0_10IInterfaceEPNS0_7details16HidlInstrumentorEt
_ZN7android8hardware5audio6effect4V2_019BpHwBassBoostEffect17setProcessBuffersERKNS3_11AudioBufferES7_
_ZN7android8hardware5audio6effect4V2_019BpHwBassBoostEffect19interfaceDescriptorENSt3__18functionIFvRKNS0_11hidl_stringEEEE
_ZN7android8hardware5audio6effect4V2_019BpHwBassBoostEffect19isStrengthSupportedENSt3__18functionIFvNS3_6ResultEbEEE
_ZN7android8hardware5audio6effect4V2_019BpHwBassBoostEffect20getAuxChannelsConfigENSt3__18functionIFvNS3_6ResultERKNS3_23EffectAuxChannelsConfigEEEE
_ZN7android8hardware5audio6effect4V2_019BpHwBassBoostEffect20prepareForProcessingENSt3__18functionIFvNS3_6ResultERKNS0_12MQDescriptorIS7_LNS0_8MQFlavorE1EEEEEE
_ZN7android8hardware5audio6effect4V2_019BpHwBassBoostEffect20setAuxChannelsConfigERKNS3_23EffectAuxChannelsConfigE
_ZN7android8hardware5audio6effect4V2_019BpHwBassBoostEffect21notifySyspropsChangedEv
_ZN7android8hardware5audio6effect4V2_019BpHwBassBoostEffect21setHALInstrumentationEv
_ZN7android8hardware5audio6effect4V2_019BpHwBassBoostEffect24volumeChangeNotificationERKNS0_8hidl_vecIjEE
_ZN7android8hardware5audio6effect4V2_019BpHwBassBoostEffect25_hidl_isStrengthSupportedEPNS0_10IInterfaceEPNS0_7details16HidlInstrumentorENSt3__18functionIFvNS3_6ResultEbEEE
_ZN7android8hardware5audio6effect4V2_019BpHwBassBoostEffect26getCurrentConfigForFeatureEjjNSt3__18functionIFvNS3_6ResultERKNS0_8hidl_vecIhEEEEE
_ZN7android8hardware5audio6effect4V2_019BpHwBassBoostEffect26setCurrentConfigForFeatureEjRKNS0_8hidl_vecIhEE
_ZN7android8hardware5audio6effect4V2_019BpHwBassBoostEffect29getSupportedConfigsForFeatureEjjjNSt3__18functionIFvNS3_6ResultEjRKNS0_8hidl_vecIhEEEEE
_ZN7android8hardware5audio6effect4V2_019BpHwBassBoostEffect30getSupportedAuxChannelsConfigsEjNSt3__18functionIFvNS3_6ResultERKNS0_8hidl_vecINS3_23EffectAuxChannelsConfigEEEEEE
_ZN7android8hardware5audio6effect4V2_019BpHwBassBoostEffect4initEv
_ZN7android8hardware5audio6effect4V2_019BpHwBassBoostEffect4pingEv
_ZN7android8hardware5audio6effect4V2_019BpHwBassBoostEffect5closeEv
_ZN7android8hardware5audio6effect4V2_019BpHwBassBoostEffect5debugERKNS0_11hidl_handleERKNS0_8hidl_vecINS0_11hidl_stringEEE
_ZN7android8hardware5audio6effect4V2_019BpHwBassBoostEffect5resetEv
_ZN7android8hardware5audio6effect4V2_019BpHwBassBoostEffect6enableEv
_ZN7android8hardware5audio6effect4V2_019BpHwBassBoostEffect7commandEjRKNS0_8hidl_vecIhEEjNSt3__18functionIFviS8_EEE
_ZN7android8hardware5audio6effect4V2_019BpHwBassBoostEffect7disableEv
_ZN7android8hardware5audio6effect4V2_019BpHwBassBoostEffect7offloadERKNS3_22EffectOffloadParameterE
_ZN7android8hardware5audio6effect4V2_019BpHwBassBoostEffect9getConfigENSt3__18functionIFvNS3_6ResultERKNS3_12EffectConfigEEEE
_ZN7android8hardware5audio6effect4V2_019BpHwBassBoostEffect9setConfigERKNS3_12EffectConfigERKNS_2spINS3_29IEffectBufferProviderCallbackEEESC_
_ZN7android8hardware5audio6effect4V2_019BpHwBassBoostEffect9setDeviceENS1_6common4V2_011AudioDeviceE
_ZN7android8hardware5audio6effect4V2_019BpHwBassBoostEffectC1ERKNS_2spINS0_7IBinderEEE
_ZN7android8hardware5audio6effect4V2_019BpHwBassBoostEffectC2ERKNS_2spINS0_7IBinderEEE
_ZN7android8hardware5audio6effect4V2_019BpHwEqualizerEffect11getNumBandsENSt3__18functionIFvNS3_6ResultEtEEE
_ZN7android8hardware5audio6effect4V2_019BpHwEqualizerEffect11linkToDeathERKNS_2spINS0_20hidl_death_recipientEEEm
_ZN7android8hardware5audio6effect4V2_019BpHwEqualizerEffect12getBandLevelEtNSt3__18functionIFvNS3_6ResultEsEEE
_ZN7android8hardware5audio6effect4V2_019BpHwEqualizerEffect12getDebugInfoENSt3__18functionIFvRKNS_4hidl4base4V1_09DebugInfoEEEE
_ZN7android8hardware5audio6effect4V2_019BpHwEqualizerEffect12getHashChainENSt3__18functionIFvRKNS0_8hidl_vecINS0_10hidl_arrayIhLm32EJEEEEEEEE
_ZN7android8hardware5audio6effect4V2_019BpHwEqualizerEffect12getParameterERKNS0_8hidl_vecIhEEjNSt3__18functionIFvNS3_6ResultES8_EEE
_ZN7android8hardware5audio6effect4V2_019BpHwEqualizerEffect12setAudioModeENS1_6common4V2_09AudioModeE
_ZN7android8hardware5audio6effect4V2_019BpHwEqualizerEffect12setBandLevelEts
_ZN7android8hardware5audio6effect4V2_019BpHwEqualizerEffect12setParameterERKNS0_8hidl_vecIhEES8_
_ZN7android8hardware5audio6effect4V2_019BpHwEqualizerEffect13getDescriptorENSt3__18functionIFvNS3_6ResultERKNS3_16EffectDescriptorEEEE
_ZN7android8hardware5audio6effect4V2_019BpHwEqualizerEffect13getLevelRangeENSt3__18functionIFvNS3_6ResultEssEEE
_ZN7android8hardware5audio6effect4V2_019BpHwEqualizerEffect13unlinkToDeathERKNS_2spINS0_20hidl_death_recipientEEE
_ZN7android8hardware5audio6effect4V2_019BpHwEqualizerEffect14getPresetNamesENSt3__18functionIFvNS3_6ResultERKNS0_8hidl_vecINS0_11hidl_stringEEEEEE
_ZN7android8hardware5audio6effect4V2_019BpHwEqualizerEffect14interfaceChainENSt3__18functionIFvRKNS0_8hidl_vecINS0_11hidl_stringEEEEEE
_ZN7android8hardware5audio6effect4V2_019BpHwEqualizerEffect14setAudioSourceENS1_6common4V2_011AudioSourceE
_ZN7android8hardware5audio6effect4V2_019BpHwEqualizerEffect14setInputDeviceENS1_6common4V2_011AudioDeviceE
_ZN7android8hardware5audio6effect4V2_019BpHwEqualizerEffect15setAndGetVolumeERKNS0_8hidl_vecIjEENSt3__18functionIFvNS3_6ResultES8_EEE
_ZN7android8hardware5audio6effect4V2_019BpHwEqualizerEffect16getAllPropertiesENSt3__18functionIFvNS3_6ResultERKNS3_16IEqualizerEffect13AllPropertiesEEEE
_ZN7android8hardware5audio6effect4V2_019BpHwEqualizerEffect16getConfigReverseENSt3__18functionIFvNS3_6ResultERKNS3_12EffectConfigEEEE
_ZN7android8hardware5audio6effect4V2_019BpHwEqualizerEffect16getCurrentPresetENSt3__18functionIFvNS3_6ResultEtEEE
_ZN7android8hardware5audio6effect4V2_019BpHwEqualizerEffect16setAllPropertiesERKNS3_16IEqualizerEffect13AllPropertiesE
_ZN7android8hardware5audio6effect4V2_019BpHwEqualizerEffect16setConfigReverseERKNS3_12EffectConfigERKNS_2spINS3_29IEffectBufferProviderCallbackEEESC_
_ZN7android8hardware5audio6effect4V2_019BpHwEqualizerEffect16setCurrentPresetEt
_ZN7android8hardware5audio6effect4V2_019BpHwEqualizerEffect17_hidl_getNumBandsEPNS0_10IInterfaceEPNS0_7details16HidlInstrumentorENSt3__18functionIFvNS3_6ResultEtEEE
_ZN7android8hardware5audio6effect4V2_019BpHwEqualizerEffect17setProcessBuffersERKNS3_11AudioBufferES7_
_ZN7android8hardware5audio6effect4V2_019BpHwEqualizerEffect18_hidl_getBandLevelEPNS0_10IInterfaceEPNS0_7details16HidlInstrumentorEtNSt3__18functionIFvNS3_6ResultEsEEE
_ZN7android8hardware5audio6effect4V2_019BpHwEqualizerEffect18_hidl_setBandLevelEPNS0_10IInterfaceEPNS0_7details16HidlInstrumentorEts
_ZN7android8hardware5audio6effect4V2_019BpHwEqualizerEffect19_hidl_getLevelRangeEPNS0_10IInterfaceEPNS0_7details16HidlInstrumentorENSt3__18functionIFvNS3_6ResultEssEEE
_ZN7android8hardware5audio6effect4V2_019BpHwEqualizerEffect19getBandForFrequencyEjNSt3__18functionIFvNS3_6ResultEtEEE
_ZN7android8hardware5audio6effect4V2_019BpHwEqualizerEffect19interfaceDescriptorENSt3__18functionIFvRKNS0_11hidl_stringEEEE
_ZN7android8hardware5audio6effect4V2_019BpHwEqualizerEffect20_hidl_getPresetNamesEPNS0_10IInterfaceEPNS0_7details16HidlInstrumentorENSt3__18functionIFvNS3_6ResultERKNS0_8hidl_vecINS0_11hidl_stringEEEEEE
_ZN7android8hardware5audio6effect4V2_019BpHwEqualizerEffect20getAuxChannelsConfigENSt3__18functionIFvNS3_6ResultERKNS3_23EffectAuxChannelsConfigEEEE
_ZN7android8hardware5audio6effect4V2_019BpHwEqualizerEffect20prepareForProcessingENSt3__18functionIFvNS3_6ResultERKNS0_12MQDescriptorIS7_LNS0_8MQFlavorE1EEEEEE
_ZN7android8hardware5audio6effect4V2_019BpHwEqualizerEffect20setAuxChannelsConfigERKNS3_23EffectAuxChannelsConfigE
_ZN7android8hardware5audio6effect4V2_019BpHwEqualizerEffect21getBandFrequencyRangeEtNSt3__18functionIFvNS3_6ResultEjjEEE
_ZN7android8hardware5audio6effect4V2_019BpHwEqualizerEffect21notifySyspropsChangedEv
_ZN7android8hardware5audio6effect4V2_019BpHwEqualizerEffect21setHALInstrumentationEv
_ZN7android8hardware5audio6effect4V2_019BpHwEqualizerEffect22_hidl_getAllPropertiesEPNS0_10IInterfaceEPNS0_7details16HidlInstrumentorENSt3__18functionIFvNS3_6ResultERKNS3_16IEqualizerEffect13AllPropertiesEEEE
_ZN7android8hardware5audio6effect4V2_019BpHwEqualizerEffect22_hidl_getCurrentPresetEPNS0_10IInterfaceEPNS0_7details16HidlInstrumentorENSt3__18functionIFvNS3_6ResultEtEEE
_ZN7android8hardware5audio6effect4V2_019BpHwEqualizerEffect22_hidl_setAllPropertiesEPNS0_10IInterfaceEPNS0_7details16HidlInstrumentorERKNS3_16IEqualizerEffect13AllPropertiesE
_ZN7android8hardware5audio6effect4V2_019BpHwEqualizerEffect22_hidl_setCurrentPresetEPNS0_10IInterfaceEPNS0_7details16HidlInstrumentorEt
_ZN7android8hardware5audio6effect4V2_019BpHwEqualizerEffect22getBandCenterFrequencyEtNSt3__18functionIFvNS3_6ResultEjEEE
_ZN7android8hardware5audio6effect4V2_019BpHwEqualizerEffect24volumeChangeNotificationERKNS0_8hidl_vecIjEE
_ZN7android8hardware5audio6effect4V2_019BpHwEqualizerEffect25_hidl_getBandForFrequencyEPNS0_10IInterfaceEPNS0_7details16HidlInstrumentorEjNSt3__18functionIFvNS3_6ResultEtEEE
_ZN7android8hardware5audio6effect4V2_019BpHwEqualizerEffect26getCurrentConfigForFeatureEjjNSt3__18functionIFvNS3_6ResultERKNS0_8hidl_vecIhEEEEE
_ZN7android8hardware5audio6effect4V2_019BpHwEqualizerEffect26setCurrentConfigForFeatureEjRKNS0_8hidl_vecIhEE
_ZN7android8hardware5audio6effect4V2_019BpHwEqualizerEffect27_hidl_getBandFrequencyRangeEPNS0_10IInterfaceEPNS0_7details16HidlInstrumentorEtNSt3__18functionIFvNS3_6ResultEjjEEE
_ZN7android8hardware5audio6effect4V2_019BpHwEqualizerEffect28_hidl_getBandCenterFrequencyEPNS0_10IInterfaceEPNS0_7details16HidlInstrumentorEtNSt3__18functionIFvNS3_6ResultEjEEE
_ZN7android8hardware5audio6effect4V2_019BpHwEqualizerEffect29getSupportedConfigsForFeatureEjjjNSt3__18functionIFvNS3_6ResultEjRKNS0_8hidl_vecIhEEEEE
_ZN7android8hardware5audio6effect4V2_019BpHwEqualizerEffect30getSupportedAuxChannelsConfigsEjNSt3__18functionIFvNS3_6ResultERKNS0_8hidl_vecINS3_23EffectAuxChannelsConfigEEEEEE
_ZN7android8hardware5audio6effect4V2_019BpHwEqualizerEffect4initEv
_ZN7android8hardware5audio6effect4V2_019BpHwEqualizerEffect4pingEv
_ZN7android8hardware5audio6effect4V2_019BpHwEqualizerEffect5closeEv
_ZN7android8hardware5audio6effect4V2_019BpHwEqualizerEffect5debugERKNS0_11hidl_handleERKNS0_8hidl_vecINS0_11hidl_stringEEE
_ZN7android8hardware5audio6effect4V2_019BpHwEqualizerEffect5resetEv
_ZN7android8hardware5audio6effect4V2_019BpHwEqualizerEffect6enableEv
_ZN7android8hardware5audio6effect4V2_019BpHwEqualizerEffect7commandEjRKNS0_8hidl_vecIhEEjNSt3__18functionIFviS8_EEE
_ZN7android8hardware5audio6effect4V2_019BpHwEqualizerEffect7disableEv
_ZN7android8hardware5audio6effect4V2_019BpHwEqualizerEffect7offloadERKNS3_22EffectOffloadParameterE
_ZN7android8hardware5audio6effect4V2_019BpHwEqualizerEffect9getConfigENSt3__18functionIFvNS3_6ResultERKNS3_12EffectConfigEEEE
_ZN7android8hardware5audio6effect4V2_019BpHwEqualizerEffect9setConfigERKNS3_12EffectConfigERKNS_2spINS3_29IEffectBufferProviderCallbackEEESC_
_ZN7android8hardware5audio6effect4V2_019BpHwEqualizerEffect9setDeviceENS1_6common4V2_011AudioDeviceE
_ZN7android8hardware5audio6effect4V2_019BpHwEqualizerEffectC1ERKNS_2spINS0_7IBinderEEE
_ZN7android8hardware5audio6effect4V2_019BpHwEqualizerEffectC2ERKNS_2spINS0_7IBinderEEE
_ZN7android8hardware5audio6effect4V2_019BsVirtualizerEffect13addOnewayTaskENSt3__18functionIFvvEEE
_ZN7android8hardware5audio6effect4V2_019BsVirtualizerEffectC1ENS_2spINS3_18IVirtualizerEffectEEE
_ZN7android8hardware5audio6effect4V2_019BsVirtualizerEffectC2ENS_2spINS3_18IVirtualizerEffectEEE
_ZN7android8hardware5audio6effect4V2_019IPresetReverbEffect10descriptorE
_ZN7android8hardware5audio6effect4V2_019IPresetReverbEffect10getServiceERKNSt3__112basic_stringIcNS5_11char_traitsIcEENS5_9allocatorIcEEEEb
_ZN7android8hardware5audio6effect4V2_019IPresetReverbEffect11linkToDeathERKNS_2spINS0_20hidl_death_recipientEEEm
_ZN7android8hardware5audio6effect4V2_019IPresetReverbEffect12getDebugInfoENSt3__18functionIFvRKNS_4hidl4base4V1_09DebugInfoEEEE
_ZN7android8hardware5audio6effect4V2_019IPresetReverbEffect12getHashChainENSt3__18functionIFvRKNS0_8hidl_vecINS0_10hidl_arrayIhLm32EJEEEEEEEE
_ZN7android8hardware5audio6effect4V2_019IPresetReverbEffect13tryGetServiceERKNSt3__112basic_stringIcNS5_11char_traitsIcEENS5_9allocatorIcEEEEb
_ZN7android8hardware5audio6effect4V2_019IPresetReverbEffect13unlinkToDeathERKNS_2spINS0_20hidl_death_recipientEEE
_ZN7android8hardware5audio6effect4V2_019IPresetReverbEffect14interfaceChainENSt3__18functionIFvRKNS0_8hidl_vecINS0_11hidl_stringEEEEEE
_ZN7android8hardware5audio6effect4V2_019IPresetReverbEffect17registerAsServiceERKNSt3__112basic_stringIcNS5_11char_traitsIcEENS5_9allocatorIcEEEE
_ZN7android8hardware5audio6effect4V2_019IPresetReverbEffect19interfaceDescriptorENSt3__18functionIFvRKNS0_11hidl_stringEEEE
_ZN7android8hardware5audio6effect4V2_019IPresetReverbEffect21notifySyspropsChangedEv
_ZN7android8hardware5audio6effect4V2_019IPresetReverbEffect21setHALInstrumentationEv
_ZN7android8hardware5audio6effect4V2_019IPresetReverbEffect24registerForNotificationsERKNSt3__112basic_stringIcNS5_11char_traitsIcEENS5_9allocatorIcEEEERKNS_2spINS_4hidl7manager4V1_020IServiceNotificationEEE
_ZN7android8hardware5audio6effect4V2_019IPresetReverbEffect4pingEv
_ZN7android8hardware5audio6effect4V2_019IPresetReverbEffect5debugERKNS0_11hidl_handleERKNS0_8hidl_vecINS0_11hidl_stringEEE
_ZN7android8hardware5audio6effect4V2_019IPresetReverbEffect8castFromERKNS_2spINS3_7IEffectEEEb
_ZN7android8hardware5audio6effect4V2_019IPresetReverbEffect8castFromERKNS_2spINS_4hidl4base4V1_05IBaseEEEb
_ZN7android8hardware5audio6effect4V2_019IPresetReverbEffect8castFromERKNS_2spIS4_EEb
_ZN7android8hardware5audio6effect4V2_020BnHwVisualizerEffect10onTransactEjRKNS0_6ParcelEPS5_jNSt3__18functionIFvRS5_EEE
_ZN7android8hardware5audio6effect4V2_020BnHwVisualizerEffect12getDebugInfoENSt3__18functionIFvRKNS_4hidl4base4V1_09DebugInfoEEEE
_ZN7android8hardware5audio6effect4V2_020BnHwVisualizerEffect13_hidl_captureEPNS_4hidl4base4V1_08BnHwBaseERKNS0_6ParcelEPSA_NSt3__18functionIFvRSA_EEE
_ZN7android8hardware5audio6effect4V2_020BnHwVisualizerEffect13_hidl_measureEPNS_4hidl4base4V1_08BnHwBaseERKNS0_6ParcelEPSA_NSt3__18functionIFvRSA_EEE
_ZN7android8hardware5audio6effect4V2_020BnHwVisualizerEffect16_hidl_getLatencyEPNS_4hidl4base4V1_08BnHwBaseERKNS0_6ParcelEPSA_NSt3__18functionIFvRSA_EEE
_ZN7android8hardware5audio6effect4V2_020BnHwVisualizerEffect16_hidl_setLatencyEPNS_4hidl4base4V1_08BnHwBaseERKNS0_6ParcelEPSA_NSt3__18functionIFvRSA_EEE
_ZN7android8hardware5audio6effect4V2_020BnHwVisualizerEffect20_hidl_getCaptureSizeEPNS_4hidl4base4V1_08BnHwBaseERKNS0_6ParcelEPSA_NSt3__18functionIFvRSA_EEE
_ZN7android8hardware5audio6effect4V2_020BnHwVisualizerEffect20_hidl_getScalingModeEPNS_4hidl4base4V1_08BnHwBaseERKNS0_6ParcelEPSA_NSt3__18functionIFvRSA_EEE
_ZN7android8hardware5audio6effect4V2_020BnHwVisualizerEffect20_hidl_setCaptureSizeEPNS_4hidl4base4V1_08BnHwBaseERKNS0_6ParcelEPSA_NSt3__18functionIFvRSA_EEE
_ZN7android8hardware5audio6effect4V2_020BnHwVisualizerEffect20_hidl_setScalingModeEPNS_4hidl4base4V1_08BnHwBaseERKNS0_6ParcelEPSA_NSt3__18functionIFvRSA_EEE
_ZN7android8hardware5audio6effect4V2_020BnHwVisualizerEffect24_hidl_getMeasurementModeEPNS_4hidl4base4V1_08BnHwBaseERKNS0_6ParcelEPSA_NSt3__18functionIFvRSA_EEE
_ZN7android8hardware5audio6effect4V2_020BnHwVisualizerEffect24_hidl_setMeasurementModeEPNS_4hidl4base4V1_08BnHwBaseERKNS0_6ParcelEPSA_NSt3__18functionIFvRSA_EEE
_ZN7android8hardware5audio6effect4V2_020BnHwVisualizerEffect4pingEv
_ZN7android8hardware5audio6effect4V2_020BnHwVisualizerEffectC1ERKNS_2spINS3_17IVisualizerEffectEEE
_ZN7android8hardware5audio6effect4V2_020BnHwVisualizerEffectC2ERKNS_2spINS3_17IVisualizerEffectEEE
_ZN7android8hardware5audio6effect4V2_020BnHwVisualizerEffectD0Ev
_ZN7android8hardware5audio6effect4V2_020BnHwVisualizerEffectD1Ev
_ZN7android8hardware5audio6effect4V2_020BnHwVisualizerEffectD2Ev
_ZN7android8hardware5audio6effect4V2_020BpHwVisualizerEffect10getLatencyENSt3__18functionIFvNS3_6ResultEjEEE
_ZN7android8hardware5audio6effect4V2_020BpHwVisualizerEffect10setLatencyEj
_ZN7android8hardware5audio6effect4V2_020BpHwVisualizerEffect11linkToDeathERKNS_2spINS0_20hidl_death_recipientEEEm
_ZN7android8hardware5audio6effect4V2_020BpHwVisualizerEffect12getDebugInfoENSt3__18functionIFvRKNS_4hidl4base4V1_09DebugInfoEEEE
_ZN7android8hardware5audio6effect4V2_020BpHwVisualizerEffect12getHashChainENSt3__18functionIFvRKNS0_8hidl_vecINS0_10hidl_arrayIhLm32EJEEEEEEEE
_ZN7android8hardware5audio6effect4V2_020BpHwVisualizerEffect12getParameterERKNS0_8hidl_vecIhEEjNSt3__18functionIFvNS3_6ResultES8_EEE
_ZN7android8hardware5audio6effect4V2_020BpHwVisualizerEffect12setAudioModeENS1_6common4V2_09AudioModeE
_ZN7android8hardware5audio6effect4V2_020BpHwVisualizerEffect12setParameterERKNS0_8hidl_vecIhEES8_
_ZN7android8hardware5audio6effect4V2_020BpHwVisualizerEffect13_hidl_captureEPNS0_10IInterfaceEPNS0_7details16HidlInstrumentorENSt3__18functionIFvNS3_6ResultERKNS0_8hidl_vecIhEEEEE
_ZN7android8hardware5audio6effect4V2_020BpHwVisualizerEffect13_hidl_measureEPNS0_10IInterfaceEPNS0_7details16HidlInstrumentorENSt3__18functionIFvNS3_6ResultERKNS3_17IVisualizerEffect11MeasurementEEEE
_ZN7android8hardware5audio6effect4V2_020BpHwVisualizerEffect13getDescriptorENSt3__18functionIFvNS3_6ResultERKNS3_16EffectDescriptorEEEE
_ZN7android8hardware5audio6effect4V2_020BpHwVisualizerEffect13unlinkToDeathERKNS_2spINS0_20hidl_death_recipientEEE
_ZN7android8hardware5audio6effect4V2_020BpHwVisualizerEffect14getCaptureSizeENSt3__18functionIFvNS3_6ResultEtEEE
_ZN7android8hardware5audio6effect4V2_020BpHwVisualizerEffect14getScalingModeENSt3__18functionIFvNS3_6ResultENS3_17IVisualizerEffect11ScalingModeEEEE
_ZN7android8hardware5audio6effect4V2_020BpHwVisualizerEffect14interfaceChainENSt3__18functionIFvRKNS0_8hidl_vecINS0_11hidl_stringEEEEEE
_ZN7android8hardware5audio6effect4V2_020BpHwVisualizerEffect14setAudioSourceENS1_6common4V2_011AudioSourceE
_ZN7android8hardware5audio6effect4V2_020BpHwVisualizerEffect14setCaptureSizeEt
_ZN7android8hardware5audio6effect4V2_020BpHwVisualizerEffect14setInputDeviceENS1_6common4V2_011AudioDeviceE
_ZN7android8hardware5audio6effect4V2_020BpHwVisualizerEffect14setScalingModeENS3_17IVisualizerEffect11ScalingModeE
_ZN7android8hardware5audio6effect4V2_020BpHwVisualizerEffect15setAndGetVolumeERKNS0_8hidl_vecIjEENSt3__18functionIFvNS3_6ResultES8_EEE
_ZN7android8hardware5audio6effect4V2_020BpHwVisualizerEffect16_hidl_getLatencyEPNS0_10IInterfaceEPNS0_7details16HidlInstrumentorENSt3__18functionIFvNS3_6ResultEjEEE
_ZN7android8hardware5audio6effect4V2_020BpHwVisualizerEffect16_hidl_setLatencyEPNS0_10IInterfaceEPNS0_7details16HidlInstrumentorEj
_ZN7android8hardware5audio6effect4V2_020BpHwVisualizerEffect16getConfigReverseENSt3__18functionIFvNS3_6ResultERKNS3_12EffectConfigEEEE
_ZN7android8hardware5audio6effect4V2_020BpHwVisualizerEffect16setConfigReverseERKNS3_12EffectConfigERKNS_2spINS3_29IEffectBufferProviderCallbackEEESC_
_ZN7android8hardware5audio6effect4V2_020BpHwVisualizerEffect17setProcessBuffersERKNS3_11AudioBufferES7_
_ZN7android8hardware5audio6effect4V2_020BpHwVisualizerEffect18getMeasurementModeENSt3__18functionIFvNS3_6ResultENS3_17IVisualizerEffect15MeasurementModeEEEE
_ZN7android8hardware5audio6effect4V2_020BpHwVisualizerEffect18setMeasurementModeENS3_17IVisualizerEffect15MeasurementModeE
_ZN7android8hardware5audio6effect4V2_020BpHwVisualizerEffect19interfaceDescriptorENSt3__18functionIFvRKNS0_11hidl_stringEEEE
_ZN7android8hardware5audio6effect4V2_020BpHwVisualizerEffect20_hidl_getCaptureSizeEPNS0_10IInterfaceEPNS0_7details16HidlInstrumentorENSt3__18functionIFvNS3_6ResultEtEEE
_ZN7android8hardware5audio6effect4V2_020BpHwVisualizerEffect20_hidl_getScalingModeEPNS0_10IInterfaceEPNS0_7details16HidlInstrumentorENSt3__18functionIFvNS3_6ResultENS3_17IVisualizerEffect11ScalingModeEEEE
_ZN7android8hardware5audio6effect4V2_020BpHwVisualizerEffect20_hidl_setCaptureSizeEPNS0_10IInterfaceEPNS0_7details16HidlInstrumentorEt
_ZN7android8hardware5audio6effect4V2_020BpHwVisualizerEffect20_hidl_setScalingModeEPNS0_10IInterfaceEPNS0_7details16HidlInstrumentorENS3_17IVisualizerEffect11ScalingModeE
_ZN7android8hardware5audio6effect4V2_020BpHwVisualizerEffect20getAuxChannelsConfigENSt3__18functionIFvNS3_6ResultERKNS3_23EffectAuxChannelsConfigEEEE
_ZN7android8hardware5audio6effect4V2_020BpHwVisualizerEffect20prepareForProcessingENSt3__18functionIFvNS3_6ResultERKNS0_12MQDescriptorIS7_LNS0_8MQFlavorE1EEEEEE
_ZN7android8hardware5audio6effect4V2_020BpHwVisualizerEffect20setAuxChannelsConfigERKNS3_23EffectAuxChannelsConfigE
_ZN7android8hardware5audio6effect4V2_020BpHwVisualizerEffect21notifySyspropsChangedEv
_ZN7android8hardware5audio6effect4V2_020BpHwVisualizerEffect21setHALInstrumentationEv
_ZN7android8hardware5audio6effect4V2_020BpHwVisualizerEffect24_hidl_getMeasurementModeEPNS0_10IInterfaceEPNS0_7details16HidlInstrumentorENSt3__18functionIFvNS3_6ResultENS3_17IVisualizerEffect15MeasurementModeEEEE
_ZN7android8hardware5audio6effect4V2_020BpHwVisualizerEffect24_hidl_setMeasurementModeEPNS0_10IInterfaceEPNS0_7details16HidlInstrumentorENS3_17IVisualizerEffect15MeasurementModeE
_ZN7android8hardware5audio6effect4V2_020BpHwVisualizerEffect24volumeChangeNotificationERKNS0_8hidl_vecIjEE
_ZN7android8hardware5audio6effect4V2_020BpHwVisualizerEffect26getCurrentConfigForFeatureEjjNSt3__18functionIFvNS3_6ResultERKNS0_8hidl_vecIhEEEEE
_ZN7android8hardware5audio6effect4V2_020BpHwVisualizerEffect26setCurrentConfigForFeatureEjRKNS0_8hidl_vecIhEE
_ZN7android8hardware5audio6effect4V2_020BpHwVisualizerEffect29getSupportedConfigsForFeatureEjjjNSt3__18functionIFvNS3_6ResultEjRKNS0_8hidl_vecIhEEEEE
_ZN7android8hardware5audio6effect4V2_020BpHwVisualizerEffect30getSupportedAuxChannelsConfigsEjNSt3__18functionIFvNS3_6ResultERKNS0_8hidl_vecINS3_23EffectAuxChannelsConfigEEEEEE
_ZN7android8hardware5audio6effect4V2_020BpHwVisualizerEffect4initEv
_ZN7android8hardware5audio6effect4V2_020BpHwVisualizerEffect4pingEv
_ZN7android8hardware5audio6effect4V2_020BpHwVisualizerEffect5closeEv
_ZN7android8hardware5audio6effect4V2_020BpHwVisualizerEffect5debugERKNS0_11hidl_handleERKNS0_8hidl_vecINS0_11hidl_stringEEE
_ZN7android8hardware5audio6effect4V2_020BpHwVisualizerEffect5resetEv
_ZN7android8hardware5audio6effect4V2_020BpHwVisualizerEffect6enableEv
_ZN7android8hardware5audio6effect4V2_020BpHwVisualizerEffect7captureENSt3__18functionIFvNS3_6ResultERKNS0_8hidl_vecIhEEEEE
_ZN7android8hardware5audio6effect4V2_020BpHwVisualizerEffect7commandEjRKNS0_8hidl_vecIhEEjNSt3__18functionIFviS8_EEE
_ZN7android8hardware5audio6effect4V2_020BpHwVisualizerEffect7disableEv
_ZN7android8hardware5audio6effect4V2_020BpHwVisualizerEffect7measureENSt3__18functionIFvNS3_6ResultERKNS3_17IVisualizerEffect11MeasurementEEEE
_ZN7android8hardware5audio6effect4V2_020BpHwVisualizerEffect7offloadERKNS3_22EffectOffloadParameterE
_ZN7android8hardware5audio6effect4V2_020BpHwVisualizerEffect9getConfigENSt3__18functionIFvNS3_6ResultERKNS3_12EffectConfigEEEE
_ZN7android8hardware5audio6effect4V2_020BpHwVisualizerEffect9setConfigERKNS3_12EffectConfigERKNS_2spINS3_29IEffectBufferProviderCallbackEEESC_
_ZN7android8hardware5audio6effect4V2_020BpHwVisualizerEffect9setDeviceENS1_6common4V2_011AudioDeviceE
_ZN7android8hardware5audio6effect4V2_020BpHwVisualizerEffectC1ERKNS_2spINS0_7IBinderEEE
_ZN7android8hardware5audio6effect4V2_020BpHwVisualizerEffectC2ERKNS_2spINS0_7IBinderEEE
_ZN7android8hardware5audio6effect4V2_020BsPresetReverbEffect13addOnewayTaskENSt3__18functionIFvvEEE
_ZN7android8hardware5audio6effect4V2_020BsPresetReverbEffectC1ENS_2spINS3_19IPresetReverbEffectEEE
_ZN7android8hardware5audio6effect4V2_020BsPresetReverbEffectC2ENS_2spINS3_19IPresetReverbEffectEEE
_ZN7android8hardware5audio6effect4V2_021BnHwVirtualizerEffect10onTransactEjRKNS0_6ParcelEPS5_jNSt3__18functionIFvRS5_EEE
_ZN7android8hardware5audio6effect4V2_021BnHwVirtualizerEffect12getDebugInfoENSt3__18functionIFvRKNS_4hidl4base4V1_09DebugInfoEEEE
_ZN7android8hardware5audio6effect4V2_021BnHwVirtualizerEffect17_hidl_getStrengthEPNS_4hidl4base4V1_08BnHwBaseERKNS0_6ParcelEPSA_NSt3__18functionIFvRSA_EEE
_ZN7android8hardware5audio6effect4V2_021BnHwVirtualizerEffect17_hidl_setStrengthEPNS_4hidl4base4V1_08BnHwBaseERKNS0_6ParcelEPSA_NSt3__18functionIFvRSA_EEE
_ZN7android8hardware5audio6effect4V2_021BnHwVirtualizerEffect25_hidl_isStrengthSupportedEPNS_4hidl4base4V1_08BnHwBaseERKNS0_6ParcelEPSA_NSt3__18functionIFvRSA_EEE
_ZN7android8hardware5audio6effect4V2_021BnHwVirtualizerEffect27_hidl_getVirtualizationModeEPNS_4hidl4base4V1_08BnHwBaseERKNS0_6ParcelEPSA_NSt3__18functionIFvRSA_EEE
_ZN7android8hardware5audio6effect4V2_021BnHwVirtualizerEffect29_hidl_forceVirtualizationModeEPNS_4hidl4base4V1_08BnHwBaseERKNS0_6ParcelEPSA_NSt3__18functionIFvRSA_EEE
_ZN7android8hardware5audio6effect4V2_021BnHwVirtualizerEffect29_hidl_getVirtualSpeakerAnglesEPNS_4hidl4base4V1_08BnHwBaseERKNS0_6ParcelEPSA_NSt3__18functionIFvRSA_EEE
_ZN7android8hardware5audio6effect4V2_021BnHwVirtualizerEffect4pingEv
_ZN7android8hardware5audio6effect4V2_021BnHwVirtualizerEffectC1ERKNS_2spINS3_18IVirtualizerEffectEEE
_ZN7android8hardware5audio6effect4V2_021BnHwVirtualizerEffectC2ERKNS_2spINS3_18IVirtualizerEffectEEE
_ZN7android8hardware5audio6effect4V2_021BnHwVirtualizerEffectD0Ev
_ZN7android8hardware5audio6effect4V2_021BnHwVirtualizerEffectD1Ev
_ZN7android8hardware5audio6effect4V2_021BnHwVirtualizerEffectD2Ev
_ZN7android8hardware5audio6effect4V2_021BpHwVirtualizerEffect11getStrengthENSt3__18functionIFvNS3_6ResultEtEEE
_ZN7android8hardware5audio6effect4V2_021BpHwVirtualizerEffect11linkToDeathERKNS_2spINS0_20hidl_death_recipientEEEm
_ZN7android8hardware5audio6effect4V2_021BpHwVirtualizerEffect11setStrengthEt
_ZN7android8hardware5audio6effect4V2_021BpHwVirtualizerEffect12getDebugInfoENSt3__18functionIFvRKNS_4hidl4base4V1_09DebugInfoEEEE
_ZN7android8hardware5audio6effect4V2_021BpHwVirtualizerEffect12getHashChainENSt3__18functionIFvRKNS0_8hidl_vecINS0_10hidl_arrayIhLm32EJEEEEEEEE
_ZN7android8hardware5audio6effect4V2_021BpHwVirtualizerEffect12getParameterERKNS0_8hidl_vecIhEEjNSt3__18functionIFvNS3_6ResultES8_EEE
_ZN7android8hardware5audio6effect4V2_021BpHwVirtualizerEffect12setAudioModeENS1_6common4V2_09AudioModeE
_ZN7android8hardware5audio6effect4V2_021BpHwVirtualizerEffect12setParameterERKNS0_8hidl_vecIhEES8_
_ZN7android8hardware5audio6effect4V2_021BpHwVirtualizerEffect13getDescriptorENSt3__18functionIFvNS3_6ResultERKNS3_16EffectDescriptorEEEE
_ZN7android8hardware5audio6effect4V2_021BpHwVirtualizerEffect13unlinkToDeathERKNS_2spINS0_20hidl_death_recipientEEE
_ZN7android8hardware5audio6effect4V2_021BpHwVirtualizerEffect14interfaceChainENSt3__18functionIFvRKNS0_8hidl_vecINS0_11hidl_stringEEEEEE
_ZN7android8hardware5audio6effect4V2_021BpHwVirtualizerEffect14setAudioSourceENS1_6common4V2_011AudioSourceE
_ZN7android8hardware5audio6effect4V2_021BpHwVirtualizerEffect14setInputDeviceENS1_6common4V2_011AudioDeviceE
_ZN7android8hardware5audio6effect4V2_021BpHwVirtualizerEffect15setAndGetVolumeERKNS0_8hidl_vecIjEENSt3__18functionIFvNS3_6ResultES8_EEE
_ZN7android8hardware5audio6effect4V2_021BpHwVirtualizerEffect16getConfigReverseENSt3__18functionIFvNS3_6ResultERKNS3_12EffectConfigEEEE
_ZN7android8hardware5audio6effect4V2_021BpHwVirtualizerEffect16setConfigReverseERKNS3_12EffectConfigERKNS_2spINS3_29IEffectBufferProviderCallbackEEESC_
_ZN7android8hardware5audio6effect4V2_021BpHwVirtualizerEffect17_hidl_getStrengthEPNS0_10IInterfaceEPNS0_7details16HidlInstrumentorENSt3__18functionIFvNS3_6ResultEtEEE
_ZN7android8hardware5audio6effect4V2_021BpHwVirtualizerEffect17_hidl_setStrengthEPNS0_10IInterfaceEPNS0_7details16HidlInstrumentorEt
_ZN7android8hardware5audio6effect4V2_021BpHwVirtualizerEffect17setProcessBuffersERKNS3_11AudioBufferES7_
_ZN7android8hardware5audio6effect4V2_021BpHwVirtualizerEffect19interfaceDescriptorENSt3__18functionIFvRKNS0_11hidl_stringEEEE
_ZN7android8hardware5audio6effect4V2_021BpHwVirtualizerEffect19isStrengthSupportedEv
_ZN7android8hardware5audio6effect4V2_021BpHwVirtualizerEffect20getAuxChannelsConfigENSt3__18functionIFvNS3_6ResultERKNS3_23EffectAuxChannelsConfigEEEE
_ZN7android8hardware5audio6effect4V2_021BpHwVirtualizerEffect20prepareForProcessingENSt3__18functionIFvNS3_6ResultERKNS0_12MQDescriptorIS7_LNS0_8MQFlavorE1EEEEEE
_ZN7android8hardware5audio6effect4V2_021BpHwVirtualizerEffect20setAuxChannelsConfigERKNS3_23EffectAuxChannelsConfigE
_ZN7android8hardware5audio6effect4V2_021BpHwVirtualizerEffect21getVirtualizationModeENSt3__18functionIFvNS3_6ResultENS1_6common4V2_011AudioDeviceEEEE
_ZN7android8hardware5audio6effect4V2_021BpHwVirtualizerEffect21notifySyspropsChangedEv
_ZN7android8hardware5audio6effect4V2_021BpHwVirtualizerEffect21setHALInstrumentationEv
_ZN7android8hardware5audio6effect4V2_021BpHwVirtualizerEffect23forceVirtualizationModeENS1_6common4V2_011AudioDeviceE
_ZN7android8hardware5audio6effect4V2_021BpHwVirtualizerEffect23getVirtualSpeakerAnglesENS1_6common4V2_016AudioChannelMaskENS6_11AudioDeviceENSt3__18functionIFvNS3_6ResultERKNS0_8hidl_vecINS3_18IVirtualizerEffect12SpeakerAngleEEEEEE
_ZN7android8hardware5audio6effect4V2_021BpHwVirtualizerEffect24volumeChangeNotificationERKNS0_8hidl_vecIjEE
_ZN7android8hardware5audio6effect4V2_021BpHwVirtualizerEffect25_hidl_isStrengthSupportedEPNS0_10IInterfaceEPNS0_7details16HidlInstrumentorE
_ZN7android8hardware5audio6effect4V2_021BpHwVirtualizerEffect26getCurrentConfigForFeatureEjjNSt3__18functionIFvNS3_6ResultERKNS0_8hidl_vecIhEEEEE
_ZN7android8hardware5audio6effect4V2_021BpHwVirtualizerEffect26setCurrentConfigForFeatureEjRKNS0_8hidl_vecIhEE
_ZN7android8hardware5audio6effect4V2_021BpHwVirtualizerEffect27_hidl_getVirtualizationModeEPNS0_10IInterfaceEPNS0_7details16HidlInstrumentorENSt3__18functionIFvNS3_6ResultENS1_6common4V2_011AudioDeviceEEEE
_ZN7android8hardware5audio6effect4V2_021BpHwVirtualizerEffect29_hidl_forceVirtualizationModeEPNS0_10IInterfaceEPNS0_7details16HidlInstrumentorENS1_6common4V2_011AudioDeviceE
_ZN7android8hardware5audio6effect4V2_021BpHwVirtualizerEffect29_hidl_getVirtualSpeakerAnglesEPNS0_10IInterfaceEPNS0_7details16HidlInstrumentorENS1_6common4V2_016AudioChannelMaskENSB_11AudioDeviceENSt3__18functionIFvNS3_6ResultERKNS0_8hidl_vecINS3_18IVirtualizerEffect12SpeakerAngleEEEEEE
_ZN7android8hardware5audio6effect4V2_021BpHwVirtualizerEffect29getSupportedConfigsForFeatureEjjjNSt3__18functionIFvNS3_6ResultEjRKNS0_8hidl_vecIhEEEEE
_ZN7android8hardware5audio6effect4V2_021BpHwVirtualizerEffect30getSupportedAuxChannelsConfigsEjNSt3__18functionIFvNS3_6ResultERKNS0_8hidl_vecINS3_23EffectAuxChannelsConfigEEEEEE
_ZN7android8hardware5audio6effect4V2_021BpHwVirtualizerEffect4initEv
_ZN7android8hardware5audio6effect4V2_021BpHwVirtualizerEffect4pingEv
_ZN7android8hardware5audio6effect4V2_021BpHwVirtualizerEffect5closeEv
_ZN7android8hardware5audio6effect4V2_021BpHwVirtualizerEffect5debugERKNS0_11hidl_handleERKNS0_8hidl_vecINS0_11hidl_stringEEE
_ZN7android8hardware5audio6effect4V2_021BpHwVirtualizerEffect5resetEv
_ZN7android8hardware5audio6effect4V2_021BpHwVirtualizerEffect6enableEv
_ZN7android8hardware5audio6effect4V2_021BpHwVirtualizerEffect7commandEjRKNS0_8hidl_vecIhEEjNSt3__18functionIFviS8_EEE
_ZN7android8hardware5audio6effect4V2_021BpHwVirtualizerEffect7disableEv
_ZN7android8hardware5audio6effect4V2_021BpHwVirtualizerEffect7offloadERKNS3_22EffectOffloadParameterE
_ZN7android8hardware5audio6effect4V2_021BpHwVirtualizerEffect9getConfigENSt3__18functionIFvNS3_6ResultERKNS3_12EffectConfigEEEE
_ZN7android8hardware5audio6effect4V2_021BpHwVirtualizerEffect9setConfigERKNS3_12EffectConfigERKNS_2spINS3_29IEffectBufferProviderCallbackEEESC_
_ZN7android8hardware5audio6effect4V2_021BpHwVirtualizerEffect9setDeviceENS1_6common4V2_011AudioDeviceE
_ZN7android8hardware5audio6effect4V2_021BpHwVirtualizerEffectC1ERKNS_2spINS0_7IBinderEEE
_ZN7android8hardware5audio6effect4V2_021BpHwVirtualizerEffectC2ERKNS_2spINS0_7IBinderEEE
_ZN7android8hardware5audio6effect4V2_021writeEmbeddedToParcelERKNS3_11AudioBufferEPNS0_6ParcelEmm
_ZN7android8hardware5audio6effect4V2_021writeEmbeddedToParcelERKNS3_12EffectConfigEPNS0_6ParcelEmm
_ZN7android8hardware5audio6effect4V2_021writeEmbeddedToParcelERKNS3_16IEqualizerEffect13AllPropertiesEPNS0_6ParcelEmm
_ZN7android8hardware5audio6effect4V2_021writeEmbeddedToParcelERKNS3_18EffectBufferConfigEPNS0_6ParcelEmm
_ZN7android8hardware5audio6effect4V2_022BnHwPresetReverbEffect10onTransactEjRKNS0_6ParcelEPS5_jNSt3__18functionIFvRS5_EEE
_ZN7android8hardware5audio6effect4V2_022BnHwPresetReverbEffect12getDebugInfoENSt3__18functionIFvRKNS_4hidl4base4V1_09DebugInfoEEEE
_ZN7android8hardware5audio6effect4V2_022BnHwPresetReverbEffect15_hidl_getPresetEPNS_4hidl4base4V1_08BnHwBaseERKNS0_6ParcelEPSA_NSt3__18functionIFvRSA_EEE
_ZN7android8hardware5audio6effect4V2_022BnHwPresetReverbEffect15_hidl_setPresetEPNS_4hidl4base4V1_08BnHwBaseERKNS0_6ParcelEPSA_NSt3__18functionIFvRSA_EEE
_ZN7android8hardware5audio6effect4V2_022BnHwPresetReverbEffect4pingEv
_ZN7android8hardware5audio6effect4V2_022BnHwPresetReverbEffectC1ERKNS_2spINS3_19IPresetReverbEffectEEE
_ZN7android8hardware5audio6effect4V2_022BnHwPresetReverbEffectC2ERKNS_2spINS3_19IPresetReverbEffectEEE
_ZN7android8hardware5audio6effect4V2_022BnHwPresetReverbEffectD0Ev
_ZN7android8hardware5audio6effect4V2_022BnHwPresetReverbEffectD1Ev
_ZN7android8hardware5audio6effect4V2_022BnHwPresetReverbEffectD2Ev
_ZN7android8hardware5audio6effect4V2_022BpHwPresetReverbEffect11linkToDeathERKNS_2spINS0_20hidl_death_recipientEEEm
_ZN7android8hardware5audio6effect4V2_022BpHwPresetReverbEffect12getDebugInfoENSt3__18functionIFvRKNS_4hidl4base4V1_09DebugInfoEEEE
_ZN7android8hardware5audio6effect4V2_022BpHwPresetReverbEffect12getHashChainENSt3__18functionIFvRKNS0_8hidl_vecINS0_10hidl_arrayIhLm32EJEEEEEEEE
_ZN7android8hardware5audio6effect4V2_022BpHwPresetReverbEffect12getParameterERKNS0_8hidl_vecIhEEjNSt3__18functionIFvNS3_6ResultES8_EEE
_ZN7android8hardware5audio6effect4V2_022BpHwPresetReverbEffect12setAudioModeENS1_6common4V2_09AudioModeE
_ZN7android8hardware5audio6effect4V2_022BpHwPresetReverbEffect12setParameterERKNS0_8hidl_vecIhEES8_
_ZN7android8hardware5audio6effect4V2_022BpHwPresetReverbEffect13getDescriptorENSt3__18functionIFvNS3_6ResultERKNS3_16EffectDescriptorEEEE
_ZN7android8hardware5audio6effect4V2_022BpHwPresetReverbEffect13unlinkToDeathERKNS_2spINS0_20hidl_death_recipientEEE
_ZN7android8hardware5audio6effect4V2_022BpHwPresetReverbEffect14interfaceChainENSt3__18functionIFvRKNS0_8hidl_vecINS0_11hidl_stringEEEEEE
_ZN7android8hardware5audio6effect4V2_022BpHwPresetReverbEffect14setAudioSourceENS1_6common4V2_011AudioSourceE
_ZN7android8hardware5audio6effect4V2_022BpHwPresetReverbEffect14setInputDeviceENS1_6common4V2_011AudioDeviceE
_ZN7android8hardware5audio6effect4V2_022BpHwPresetReverbEffect15_hidl_getPresetEPNS0_10IInterfaceEPNS0_7details16HidlInstrumentorENSt3__18functionIFvNS3_6ResultENS3_19IPresetReverbEffect6PresetEEEE
_ZN7android8hardware5audio6effect4V2_022BpHwPresetReverbEffect15_hidl_setPresetEPNS0_10IInterfaceEPNS0_7details16HidlInstrumentorENS3_19IPresetReverbEffect6PresetE
_ZN7android8hardware5audio6effect4V2_022BpHwPresetReverbEffect15setAndGetVolumeERKNS0_8hidl_vecIjEENSt3__18functionIFvNS3_6ResultES8_EEE
_ZN7android8hardware5audio6effect4V2_022BpHwPresetReverbEffect16getConfigReverseENSt3__18functionIFvNS3_6ResultERKNS3_12EffectConfigEEEE
_ZN7android8hardware5audio6effect4V2_022BpHwPresetReverbEffect16setConfigReverseERKNS3_12EffectConfigERKNS_2spINS3_29IEffectBufferProviderCallbackEEESC_
_ZN7android8hardware5audio6effect4V2_022BpHwPresetReverbEffect17setProcessBuffersERKNS3_11AudioBufferES7_
_ZN7android8hardware5audio6effect4V2_022BpHwPresetReverbEffect19interfaceDescriptorENSt3__18functionIFvRKNS0_11hidl_stringEEEE
_ZN7android8hardware5audio6effect4V2_022BpHwPresetReverbEffect20getAuxChannelsConfigENSt3__18functionIFvNS3_6ResultERKNS3_23EffectAuxChannelsConfigEEEE
_ZN7android8hardware5audio6effect4V2_022BpHwPresetReverbEffect20prepareForProcessingENSt3__18functionIFvNS3_6ResultERKNS0_12MQDescriptorIS7_LNS0_8MQFlavorE1EEEEEE
_ZN7android8hardware5audio6effect4V2_022BpHwPresetReverbEffect20setAuxChannelsConfigERKNS3_23EffectAuxChannelsConfigE
_ZN7android8hardware5audio6effect4V2_022BpHwPresetReverbEffect21notifySyspropsChangedEv
_ZN7android8hardware5audio6effect4V2_022BpHwPresetReverbEffect21setHALInstrumentationEv
_ZN7android8hardware5audio6effect4V2_022BpHwPresetReverbEffect24volumeChangeNotificationERKNS0_8hidl_vecIjEE
_ZN7android8hardware5audio6effect4V2_022BpHwPresetReverbEffect26getCurrentConfigForFeatureEjjNSt3__18functionIFvNS3_6ResultERKNS0_8hidl_vecIhEEEEE
_ZN7android8hardware5audio6effect4V2_022BpHwPresetReverbEffect26setCurrentConfigForFeatureEjRKNS0_8hidl_vecIhEE
_ZN7android8hardware5audio6effect4V2_022BpHwPresetReverbEffect29getSupportedConfigsForFeatureEjjjNSt3__18functionIFvNS3_6ResultEjRKNS0_8hidl_vecIhEEEEE
_ZN7android8hardware5audio6effect4V2_022BpHwPresetReverbEffect30getSupportedAuxChannelsConfigsEjNSt3__18functionIFvNS3_6ResultERKNS0_8hidl_vecINS3_23EffectAuxChannelsConfigEEEEEE
_ZN7android8hardware5audio6effect4V2_022BpHwPresetReverbEffect4initEv
_ZN7android8hardware5audio6effect4V2_022BpHwPresetReverbEffect4pingEv
_ZN7android8hardware5audio6effect4V2_022BpHwPresetReverbEffect5closeEv
_ZN7android8hardware5audio6effect4V2_022BpHwPresetReverbEffect5debugERKNS0_11hidl_handleERKNS0_8hidl_vecINS0_11hidl_stringEEE
_ZN7android8hardware5audio6effect4V2_022BpHwPresetReverbEffect5resetEv
_ZN7android8hardware5audio6effect4V2_022BpHwPresetReverbEffect6enableEv
_ZN7android8hardware5audio6effect4V2_022BpHwPresetReverbEffect7commandEjRKNS0_8hidl_vecIhEEjNSt3__18functionIFviS8_EEE
_ZN7android8hardware5audio6effect4V2_022BpHwPresetReverbEffect7disableEv
_ZN7android8hardware5audio6effect4V2_022BpHwPresetReverbEffect7offloadERKNS3_22EffectOffloadParameterE
_ZN7android8hardware5audio6effect4V2_022BpHwPresetReverbEffect9getConfigENSt3__18functionIFvNS3_6ResultERKNS3_12EffectConfigEEEE
_ZN7android8hardware5audio6effect4V2_022BpHwPresetReverbEffect9getPresetENSt3__18functionIFvNS3_6ResultENS3_19IPresetReverbEffect6PresetEEEE
_ZN7android8hardware5audio6effect4V2_022BpHwPresetReverbEffect9setConfigERKNS3_12EffectConfigERKNS_2spINS3_29IEffectBufferProviderCallbackEEESC_
_ZN7android8hardware5audio6effect4V2_022BpHwPresetReverbEffect9setDeviceENS1_6common4V2_011AudioDeviceE
_ZN7android8hardware5audio6effect4V2_022BpHwPresetReverbEffect9setPresetENS3_19IPresetReverbEffect6PresetE
_ZN7android8hardware5audio6effect4V2_022BpHwPresetReverbEffectC1ERKNS_2spINS0_7IBinderEEE
_ZN7android8hardware5audio6effect4V2_022BpHwPresetReverbEffectC2ERKNS_2spINS0_7IBinderEEE
_ZN7android8hardware5audio6effect4V2_022readEmbeddedFromParcelERKNS3_11AudioBufferERKNS0_6ParcelEmm
_ZN7android8hardware5audio6effect4V2_022readEmbeddedFromParcelERKNS3_12EffectConfigERKNS0_6ParcelEmm
_ZN7android8hardware5audio6effect4V2_022readEmbeddedFromParcelERKNS3_16IEqualizerEffect13AllPropertiesERKNS0_6ParcelEmm
_ZN7android8hardware5audio6effect4V2_022readEmbeddedFromParcelERKNS3_18EffectBufferConfigERKNS0_6ParcelEmm
_ZN7android8hardware5audio6effect4V2_023ILoudnessEnhancerEffect10descriptorE
_ZN7android8hardware5audio6effect4V2_023ILoudnessEnhancerEffect10getServiceERKNSt3__112basic_stringIcNS5_11char_traitsIcEENS5_9allocatorIcEEEEb
_ZN7android8hardware5audio6effect4V2_023ILoudnessEnhancerEffect11linkToDeathERKNS_2spINS0_20hidl_death_recipientEEEm
_ZN7android8hardware5audio6effect4V2_023ILoudnessEnhancerEffect12getDebugInfoENSt3__18functionIFvRKNS_4hidl4base4V1_09DebugInfoEEEE
_ZN7android8hardware5audio6effect4V2_023ILoudnessEnhancerEffect12getHashChainENSt3__18functionIFvRKNS0_8hidl_vecINS0_10hidl_arrayIhLm32EJEEEEEEEE
_ZN7android8hardware5audio6effect4V2_023ILoudnessEnhancerEffect13tryGetServiceERKNSt3__112basic_stringIcNS5_11char_traitsIcEENS5_9allocatorIcEEEEb
_ZN7android8hardware5audio6effect4V2_023ILoudnessEnhancerEffect13unlinkToDeathERKNS_2spINS0_20hidl_death_recipientEEE
_ZN7android8hardware5audio6effect4V2_023ILoudnessEnhancerEffect14interfaceChainENSt3__18functionIFvRKNS0_8hidl_vecINS0_11hidl_stringEEEEEE
_ZN7android8hardware5audio6effect4V2_023ILoudnessEnhancerEffect17registerAsServiceERKNSt3__112basic_stringIcNS5_11char_traitsIcEENS5_9allocatorIcEEEE
_ZN7android8hardware5audio6effect4V2_023ILoudnessEnhancerEffect19interfaceDescriptorENSt3__18functionIFvRKNS0_11hidl_stringEEEE
_ZN7android8hardware5audio6effect4V2_023ILoudnessEnhancerEffect21notifySyspropsChangedEv
_ZN7android8hardware5audio6effect4V2_023ILoudnessEnhancerEffect21setHALInstrumentationEv
_ZN7android8hardware5audio6effect4V2_023ILoudnessEnhancerEffect24registerForNotificationsERKNSt3__112basic_stringIcNS5_11char_traitsIcEENS5_9allocatorIcEEEERKNS_2spINS_4hidl7manager4V1_020IServiceNotificationEEE
_ZN7android8hardware5audio6effect4V2_023ILoudnessEnhancerEffect4pingEv
_ZN7android8hardware5audio6effect4V2_023ILoudnessEnhancerEffect5debugERKNS0_11hidl_handleERKNS0_8hidl_vecINS0_11hidl_stringEEE
_ZN7android8hardware5audio6effect4V2_023ILoudnessEnhancerEffect8castFromERKNS_2spINS3_7IEffectEEEb
_ZN7android8hardware5audio6effect4V2_023ILoudnessEnhancerEffect8castFromERKNS_2spINS_4hidl4base4V1_05IBaseEEEb
_ZN7android8hardware5audio6effect4V2_023ILoudnessEnhancerEffect8castFromERKNS_2spIS4_EEb
_ZN7android8hardware5audio6effect4V2_023INoiseSuppressionEffect10descriptorE
_ZN7android8hardware5audio6effect4V2_023INoiseSuppressionEffect10getServiceERKNSt3__112basic_stringIcNS5_11char_traitsIcEENS5_9allocatorIcEEEEb
_ZN7android8hardware5audio6effect4V2_023INoiseSuppressionEffect11linkToDeathERKNS_2spINS0_20hidl_death_recipientEEEm
_ZN7android8hardware5audio6effect4V2_023INoiseSuppressionEffect12getDebugInfoENSt3__18functionIFvRKNS_4hidl4base4V1_09DebugInfoEEEE
_ZN7android8hardware5audio6effect4V2_023INoiseSuppressionEffect12getHashChainENSt3__18functionIFvRKNS0_8hidl_vecINS0_10hidl_arrayIhLm32EJEEEEEEEE
_ZN7android8hardware5audio6effect4V2_023INoiseSuppressionEffect13tryGetServiceERKNSt3__112basic_stringIcNS5_11char_traitsIcEENS5_9allocatorIcEEEEb
_ZN7android8hardware5audio6effect4V2_023INoiseSuppressionEffect13unlinkToDeathERKNS_2spINS0_20hidl_death_recipientEEE
_ZN7android8hardware5audio6effect4V2_023INoiseSuppressionEffect14interfaceChainENSt3__18functionIFvRKNS0_8hidl_vecINS0_11hidl_stringEEEEEE
_ZN7android8hardware5audio6effect4V2_023INoiseSuppressionEffect17registerAsServiceERKNSt3__112basic_stringIcNS5_11char_traitsIcEENS5_9allocatorIcEEEE
_ZN7android8hardware5audio6effect4V2_023INoiseSuppressionEffect19interfaceDescriptorENSt3__18functionIFvRKNS0_11hidl_stringEEEE
_ZN7android8hardware5audio6effect4V2_023INoiseSuppressionEffect21notifySyspropsChangedEv
_ZN7android8hardware5audio6effect4V2_023INoiseSuppressionEffect21setHALInstrumentationEv
_ZN7android8hardware5audio6effect4V2_023INoiseSuppressionEffect24registerForNotificationsERKNSt3__112basic_stringIcNS5_11char_traitsIcEENS5_9allocatorIcEEEERKNS_2spINS_4hidl7manager4V1_020IServiceNotificationEEE
_ZN7android8hardware5audio6effect4V2_023INoiseSuppressionEffect4pingEv
_ZN7android8hardware5audio6effect4V2_023INoiseSuppressionEffect5debugERKNS0_11hidl_handleERKNS0_8hidl_vecINS0_11hidl_stringEEE
_ZN7android8hardware5audio6effect4V2_023INoiseSuppressionEffect8castFromERKNS_2spINS3_7IEffectEEEb
_ZN7android8hardware5audio6effect4V2_023INoiseSuppressionEffect8castFromERKNS_2spINS_4hidl4base4V1_05IBaseEEEb
_ZN7android8hardware5audio6effect4V2_023INoiseSuppressionEffect8castFromERKNS_2spIS4_EEb
_ZN7android8hardware5audio6effect4V2_024BsLoudnessEnhancerEffect13addOnewayTaskENSt3__18functionIFvvEEE
_ZN7android8hardware5audio6effect4V2_024BsLoudnessEnhancerEffectC1ENS_2spINS3_23ILoudnessEnhancerEffectEEE
_ZN7android8hardware5audio6effect4V2_024BsLoudnessEnhancerEffectC2ENS_2spINS3_23ILoudnessEnhancerEffectEEE
_ZN7android8hardware5audio6effect4V2_024BsNoiseSuppressionEffect13addOnewayTaskENSt3__18functionIFvvEEE
_ZN7android8hardware5audio6effect4V2_024BsNoiseSuppressionEffectC1ENS_2spINS3_23INoiseSuppressionEffectEEE
_ZN7android8hardware5audio6effect4V2_024BsNoiseSuppressionEffectC2ENS_2spINS3_23INoiseSuppressionEffectEEE
_ZN7android8hardware5audio6effect4V2_026BnHwLoudnessEnhancerEffect10onTransactEjRKNS0_6ParcelEPS5_jNSt3__18functionIFvRS5_EEE
_ZN7android8hardware5audio6effect4V2_026BnHwLoudnessEnhancerEffect12getDebugInfoENSt3__18functionIFvRKNS_4hidl4base4V1_09DebugInfoEEEE
_ZN7android8hardware5audio6effect4V2_026BnHwLoudnessEnhancerEffect19_hidl_getTargetGainEPNS_4hidl4base4V1_08BnHwBaseERKNS0_6ParcelEPSA_NSt3__18functionIFvRSA_EEE
_ZN7android8hardware5audio6effect4V2_026BnHwLoudnessEnhancerEffect19_hidl_setTargetGainEPNS_4hidl4base4V1_08BnHwBaseERKNS0_6ParcelEPSA_NSt3__18functionIFvRSA_EEE
_ZN7android8hardware5audio6effect4V2_026BnHwLoudnessEnhancerEffect4pingEv
_ZN7android8hardware5audio6effect4V2_026BnHwLoudnessEnhancerEffectC1ERKNS_2spINS3_23ILoudnessEnhancerEffectEEE
_ZN7android8hardware5audio6effect4V2_026BnHwLoudnessEnhancerEffectC2ERKNS_2spINS3_23ILoudnessEnhancerEffectEEE
_ZN7android8hardware5audio6effect4V2_026BnHwLoudnessEnhancerEffectD0Ev
_ZN7android8hardware5audio6effect4V2_026BnHwLoudnessEnhancerEffectD1Ev
_ZN7android8hardware5audio6effect4V2_026BnHwLoudnessEnhancerEffectD2Ev
_ZN7android8hardware5audio6effect4V2_026BnHwNoiseSuppressionEffect10onTransactEjRKNS0_6ParcelEPS5_jNSt3__18functionIFvRS5_EEE
_ZN7android8hardware5audio6effect4V2_026BnHwNoiseSuppressionEffect12getDebugInfoENSt3__18functionIFvRKNS_4hidl4base4V1_09DebugInfoEEEE
_ZN7android8hardware5audio6effect4V2_026BnHwNoiseSuppressionEffect22_hidl_getAllPropertiesEPNS_4hidl4base4V1_08BnHwBaseERKNS0_6ParcelEPSA_NSt3__18functionIFvRSA_EEE
_ZN7android8hardware5audio6effect4V2_026BnHwNoiseSuppressionEffect22_hidl_setAllPropertiesEPNS_4hidl4base4V1_08BnHwBaseERKNS0_6ParcelEPSA_NSt3__18functionIFvRSA_EEE
_ZN7android8hardware5audio6effect4V2_026BnHwNoiseSuppressionEffect24_hidl_getSuppressionTypeEPNS_4hidl4base4V1_08BnHwBaseERKNS0_6ParcelEPSA_NSt3__18functionIFvRSA_EEE
_ZN7android8hardware5audio6effect4V2_026BnHwNoiseSuppressionEffect24_hidl_setSuppressionTypeEPNS_4hidl4base4V1_08BnHwBaseERKNS0_6ParcelEPSA_NSt3__18functionIFvRSA_EEE
_ZN7android8hardware5audio6effect4V2_026BnHwNoiseSuppressionEffect25_hidl_getSuppressionLevelEPNS_4hidl4base4V1_08BnHwBaseERKNS0_6ParcelEPSA_NSt3__18functionIFvRSA_EEE
_ZN7android8hardware5audio6effect4V2_026BnHwNoiseSuppressionEffect25_hidl_setSuppressionLevelEPNS_4hidl4base4V1_08BnHwBaseERKNS0_6ParcelEPSA_NSt3__18functionIFvRSA_EEE
_ZN7android8hardware5audio6effect4V2_026BnHwNoiseSuppressionEffect4pingEv
_ZN7android8hardware5audio6effect4V2_026BnHwNoiseSuppressionEffectC1ERKNS_2spINS3_23INoiseSuppressionEffectEEE
_ZN7android8hardware5audio6effect4V2_026BnHwNoiseSuppressionEffectC2ERKNS_2spINS3_23INoiseSuppressionEffectEEE
_ZN7android8hardware5audio6effect4V2_026BnHwNoiseSuppressionEffectD0Ev
_ZN7android8hardware5audio6effect4V2_026BnHwNoiseSuppressionEffectD1Ev
_ZN7android8hardware5audio6effect4V2_026BnHwNoiseSuppressionEffectD2Ev
_ZN7android8hardware5audio6effect4V2_026BpHwLoudnessEnhancerEffect11linkToDeathERKNS_2spINS0_20hidl_death_recipientEEEm
_ZN7android8hardware5audio6effect4V2_026BpHwLoudnessEnhancerEffect12getDebugInfoENSt3__18functionIFvRKNS_4hidl4base4V1_09DebugInfoEEEE
_ZN7android8hardware5audio6effect4V2_026BpHwLoudnessEnhancerEffect12getHashChainENSt3__18functionIFvRKNS0_8hidl_vecINS0_10hidl_arrayIhLm32EJEEEEEEEE
_ZN7android8hardware5audio6effect4V2_026BpHwLoudnessEnhancerEffect12getParameterERKNS0_8hidl_vecIhEEjNSt3__18functionIFvNS3_6ResultES8_EEE
_ZN7android8hardware5audio6effect4V2_026BpHwLoudnessEnhancerEffect12setAudioModeENS1_6common4V2_09AudioModeE
_ZN7android8hardware5audio6effect4V2_026BpHwLoudnessEnhancerEffect12setParameterERKNS0_8hidl_vecIhEES8_
_ZN7android8hardware5audio6effect4V2_026BpHwLoudnessEnhancerEffect13getDescriptorENSt3__18functionIFvNS3_6ResultERKNS3_16EffectDescriptorEEEE
_ZN7android8hardware5audio6effect4V2_026BpHwLoudnessEnhancerEffect13getTargetGainENSt3__18functionIFvNS3_6ResultEiEEE
_ZN7android8hardware5audio6effect4V2_026BpHwLoudnessEnhancerEffect13setTargetGainEi
_ZN7android8hardware5audio6effect4V2_026BpHwLoudnessEnhancerEffect13unlinkToDeathERKNS_2spINS0_20hidl_death_recipientEEE
_ZN7android8hardware5audio6effect4V2_026BpHwLoudnessEnhancerEffect14interfaceChainENSt3__18functionIFvRKNS0_8hidl_vecINS0_11hidl_stringEEEEEE
_ZN7android8hardware5audio6effect4V2_026BpHwLoudnessEnhancerEffect14setAudioSourceENS1_6common4V2_011AudioSourceE
_ZN7android8hardware5audio6effect4V2_026BpHwLoudnessEnhancerEffect14setInputDeviceENS1_6common4V2_011AudioDeviceE
_ZN7android8hardware5audio6effect4V2_026BpHwLoudnessEnhancerEffect15setAndGetVolumeERKNS0_8hidl_vecIjEENSt3__18functionIFvNS3_6ResultES8_EEE
_ZN7android8hardware5audio6effect4V2_026BpHwLoudnessEnhancerEffect16getConfigReverseENSt3__18functionIFvNS3_6ResultERKNS3_12EffectConfigEEEE
_ZN7android8hardware5audio6effect4V2_026BpHwLoudnessEnhancerEffect16setConfigReverseERKNS3_12EffectConfigERKNS_2spINS3_29IEffectBufferProviderCallbackEEESC_
_ZN7android8hardware5audio6effect4V2_026BpHwLoudnessEnhancerEffect17setProcessBuffersERKNS3_11AudioBufferES7_
_ZN7android8hardware5audio6effect4V2_026BpHwLoudnessEnhancerEffect19_hidl_getTargetGainEPNS0_10IInterfaceEPNS0_7details16HidlInstrumentorENSt3__18functionIFvNS3_6ResultEiEEE
_ZN7android8hardware5audio6effect4V2_026BpHwLoudnessEnhancerEffect19_hidl_setTargetGainEPNS0_10IInterfaceEPNS0_7details16HidlInstrumentorEi
_ZN7android8hardware5audio6effect4V2_026BpHwLoudnessEnhancerEffect19interfaceDescriptorENSt3__18functionIFvRKNS0_11hidl_stringEEEE
_ZN7android8hardware5audio6effect4V2_026BpHwLoudnessEnhancerEffect20getAuxChannelsConfigENSt3__18functionIFvNS3_6ResultERKNS3_23EffectAuxChannelsConfigEEEE
_ZN7android8hardware5audio6effect4V2_026BpHwLoudnessEnhancerEffect20prepareForProcessingENSt3__18functionIFvNS3_6ResultERKNS0_12MQDescriptorIS7_LNS0_8MQFlavorE1EEEEEE
_ZN7android8hardware5audio6effect4V2_026BpHwLoudnessEnhancerEffect20setAuxChannelsConfigERKNS3_23EffectAuxChannelsConfigE
_ZN7android8hardware5audio6effect4V2_026BpHwLoudnessEnhancerEffect21notifySyspropsChangedEv
_ZN7android8hardware5audio6effect4V2_026BpHwLoudnessEnhancerEffect21setHALInstrumentationEv
_ZN7android8hardware5audio6effect4V2_026BpHwLoudnessEnhancerEffect24volumeChangeNotificationERKNS0_8hidl_vecIjEE
_ZN7android8hardware5audio6effect4V2_026BpHwLoudnessEnhancerEffect26getCurrentConfigForFeatureEjjNSt3__18functionIFvNS3_6ResultERKNS0_8hidl_vecIhEEEEE
_ZN7android8hardware5audio6effect4V2_026BpHwLoudnessEnhancerEffect26setCurrentConfigForFeatureEjRKNS0_8hidl_vecIhEE
_ZN7android8hardware5audio6effect4V2_026BpHwLoudnessEnhancerEffect29getSupportedConfigsForFeatureEjjjNSt3__18functionIFvNS3_6ResultEjRKNS0_8hidl_vecIhEEEEE
_ZN7android8hardware5audio6effect4V2_026BpHwLoudnessEnhancerEffect30getSupportedAuxChannelsConfigsEjNSt3__18functionIFvNS3_6ResultERKNS0_8hidl_vecINS3_23EffectAuxChannelsConfigEEEEEE
_ZN7android8hardware5audio6effect4V2_026BpHwLoudnessEnhancerEffect4initEv
_ZN7android8hardware5audio6effect4V2_026BpHwLoudnessEnhancerEffect4pingEv
_ZN7android8hardware5audio6effect4V2_026BpHwLoudnessEnhancerEffect5closeEv
_ZN7android8hardware5audio6effect4V2_026BpHwLoudnessEnhancerEffect5debugERKNS0_11hidl_handleERKNS0_8hidl_vecINS0_11hidl_stringEEE
_ZN7android8hardware5audio6effect4V2_026BpHwLoudnessEnhancerEffect5resetEv
_ZN7android8hardware5audio6effect4V2_026BpHwLoudnessEnhancerEffect6enableEv
_ZN7android8hardware5audio6effect4V2_026BpHwLoudnessEnhancerEffect7commandEjRKNS0_8hidl_vecIhEEjNSt3__18functionIFviS8_EEE
_ZN7android8hardware5audio6effect4V2_026BpHwLoudnessEnhancerEffect7disableEv
_ZN7android8hardware5audio6effect4V2_026BpHwLoudnessEnhancerEffect7offloadERKNS3_22EffectOffloadParameterE
_ZN7android8hardware5audio6effect4V2_026BpHwLoudnessEnhancerEffect9getConfigENSt3__18functionIFvNS3_6ResultERKNS3_12EffectConfigEEEE
_ZN7android8hardware5audio6effect4V2_026BpHwLoudnessEnhancerEffect9setConfigERKNS3_12EffectConfigERKNS_2spINS3_29IEffectBufferProviderCallbackEEESC_
_ZN7android8hardware5audio6effect4V2_026BpHwLoudnessEnhancerEffect9setDeviceENS1_6common4V2_011AudioDeviceE
_ZN7android8hardware5audio6effect4V2_026BpHwLoudnessEnhancerEffectC1ERKNS_2spINS0_7IBinderEEE
_ZN7android8hardware5audio6effect4V2_026BpHwLoudnessEnhancerEffectC2ERKNS_2spINS0_7IBinderEEE
_ZN7android8hardware5audio6effect4V2_026BpHwNoiseSuppressionEffect11linkToDeathERKNS_2spINS0_20hidl_death_recipientEEEm
_ZN7android8hardware5audio6effect4V2_026BpHwNoiseSuppressionEffect12getDebugInfoENSt3__18functionIFvRKNS_4hidl4base4V1_09DebugInfoEEEE
_ZN7android8hardware5audio6effect4V2_026BpHwNoiseSuppressionEffect12getHashChainENSt3__18functionIFvRKNS0_8hidl_vecINS0_10hidl_arrayIhLm32EJEEEEEEEE
_ZN7android8hardware5audio6effect4V2_026BpHwNoiseSuppressionEffect12getParameterERKNS0_8hidl_vecIhEEjNSt3__18functionIFvNS3_6ResultES8_EEE
_ZN7android8hardware5audio6effect4V2_026BpHwNoiseSuppressionEffect12setAudioModeENS1_6common4V2_09AudioModeE
_ZN7android8hardware5audio6effect4V2_026BpHwNoiseSuppressionEffect12setParameterERKNS0_8hidl_vecIhEES8_
_ZN7android8hardware5audio6effect4V2_026BpHwNoiseSuppressionEffect13getDescriptorENSt3__18functionIFvNS3_6ResultERKNS3_16EffectDescriptorEEEE
_ZN7android8hardware5audio6effect4V2_026BpHwNoiseSuppressionEffect13unlinkToDeathERKNS_2spINS0_20hidl_death_recipientEEE
_ZN7android8hardware5audio6effect4V2_026BpHwNoiseSuppressionEffect14interfaceChainENSt3__18functionIFvRKNS0_8hidl_vecINS0_11hidl_stringEEEEEE
_ZN7android8hardware5audio6effect4V2_026BpHwNoiseSuppressionEffect14setAudioSourceENS1_6common4V2_011AudioSourceE
_ZN7android8hardware5audio6effect4V2_026BpHwNoiseSuppressionEffect14setInputDeviceENS1_6common4V2_011AudioDeviceE
_ZN7android8hardware5audio6effect4V2_026BpHwNoiseSuppressionEffect15setAndGetVolumeERKNS0_8hidl_vecIjEENSt3__18functionIFvNS3_6ResultES8_EEE
_ZN7android8hardware5audio6effect4V2_026BpHwNoiseSuppressionEffect16getAllPropertiesENSt3__18functionIFvNS3_6ResultERKNS3_23INoiseSuppressionEffect13AllPropertiesEEEE
_ZN7android8hardware5audio6effect4V2_026BpHwNoiseSuppressionEffect16getConfigReverseENSt3__18functionIFvNS3_6ResultERKNS3_12EffectConfigEEEE
_ZN7android8hardware5audio6effect4V2_026BpHwNoiseSuppressionEffect16setAllPropertiesERKNS3_23INoiseSuppressionEffect13AllPropertiesE
_ZN7android8hardware5audio6effect4V2_026BpHwNoiseSuppressionEffect16setConfigReverseERKNS3_12EffectConfigERKNS_2spINS3_29IEffectBufferProviderCallbackEEESC_
_ZN7android8hardware5audio6effect4V2_026BpHwNoiseSuppressionEffect17setProcessBuffersERKNS3_11AudioBufferES7_
_ZN7android8hardware5audio6effect4V2_026BpHwNoiseSuppressionEffect18getSuppressionTypeENSt3__18functionIFvNS3_6ResultENS3_23INoiseSuppressionEffect4TypeEEEE
_ZN7android8hardware5audio6effect4V2_026BpHwNoiseSuppressionEffect18setSuppressionTypeENS3_23INoiseSuppressionEffect4TypeE
_ZN7android8hardware5audio6effect4V2_026BpHwNoiseSuppressionEffect19getSuppressionLevelENSt3__18functionIFvNS3_6ResultENS3_23INoiseSuppressionEffect5LevelEEEE
_ZN7android8hardware5audio6effect4V2_026BpHwNoiseSuppressionEffect19interfaceDescriptorENSt3__18functionIFvRKNS0_11hidl_stringEEEE
_ZN7android8hardware5audio6effect4V2_026BpHwNoiseSuppressionEffect19setSuppressionLevelENS3_23INoiseSuppressionEffect5LevelE
_ZN7android8hardware5audio6effect4V2_026BpHwNoiseSuppressionEffect20getAuxChannelsConfigENSt3__18functionIFvNS3_6ResultERKNS3_23EffectAuxChannelsConfigEEEE
_ZN7android8hardware5audio6effect4V2_026BpHwNoiseSuppressionEffect20prepareForProcessingENSt3__18functionIFvNS3_6ResultERKNS0_12MQDescriptorIS7_LNS0_8MQFlavorE1EEEEEE
_ZN7android8hardware5audio6effect4V2_026BpHwNoiseSuppressionEffect20setAuxChannelsConfigERKNS3_23EffectAuxChannelsConfigE
_ZN7android8hardware5audio6effect4V2_026BpHwNoiseSuppressionEffect21notifySyspropsChangedEv
_ZN7android8hardware5audio6effect4V2_026BpHwNoiseSuppressionEffect21setHALInstrumentationEv
_ZN7android8hardware5audio6effect4V2_026BpHwNoiseSuppressionEffect22_hidl_getAllPropertiesEPNS0_10IInterfaceEPNS0_7details16HidlInstrumentorENSt3__18functionIFvNS3_6ResultERKNS3_23INoiseSuppressionEffect13AllPropertiesEEEE
_ZN7android8hardware5audio6effect4V2_026BpHwNoiseSuppressionEffect22_hidl_setAllPropertiesEPNS0_10IInterfaceEPNS0_7details16HidlInstrumentorERKNS3_23INoiseSuppressionEffect13AllPropertiesE
_ZN7android8hardware5audio6effect4V2_026BpHwNoiseSuppressionEffect24_hidl_getSuppressionTypeEPNS0_10IInterfaceEPNS0_7details16HidlInstrumentorENSt3__18functionIFvNS3_6ResultENS3_23INoiseSuppressionEffect4TypeEEEE
_ZN7android8hardware5audio6effect4V2_026BpHwNoiseSuppressionEffect24_hidl_setSuppressionTypeEPNS0_10IInterfaceEPNS0_7details16HidlInstrumentorENS3_23INoiseSuppressionEffect4TypeE
_ZN7android8hardware5audio6effect4V2_026BpHwNoiseSuppressionEffect24volumeChangeNotificationERKNS0_8hidl_vecIjEE
_ZN7android8hardware5audio6effect4V2_026BpHwNoiseSuppressionEffect25_hidl_getSuppressionLevelEPNS0_10IInterfaceEPNS0_7details16HidlInstrumentorENSt3__18functionIFvNS3_6ResultENS3_23INoiseSuppressionEffect5LevelEEEE
_ZN7android8hardware5audio6effect4V2_026BpHwNoiseSuppressionEffect25_hidl_setSuppressionLevelEPNS0_10IInterfaceEPNS0_7details16HidlInstrumentorENS3_23INoiseSuppressionEffect5LevelE
_ZN7android8hardware5audio6effect4V2_026BpHwNoiseSuppressionEffect26getCurrentConfigForFeatureEjjNSt3__18functionIFvNS3_6ResultERKNS0_8hidl_vecIhEEEEE
_ZN7android8hardware5audio6effect4V2_026BpHwNoiseSuppressionEffect26setCurrentConfigForFeatureEjRKNS0_8hidl_vecIhEE
_ZN7android8hardware5audio6effect4V2_026BpHwNoiseSuppressionEffect29getSupportedConfigsForFeatureEjjjNSt3__18functionIFvNS3_6ResultEjRKNS0_8hidl_vecIhEEEEE
_ZN7android8hardware5audio6effect4V2_026BpHwNoiseSuppressionEffect30getSupportedAuxChannelsConfigsEjNSt3__18functionIFvNS3_6ResultERKNS0_8hidl_vecINS3_23EffectAuxChannelsConfigEEEEEE
_ZN7android8hardware5audio6effect4V2_026BpHwNoiseSuppressionEffect4initEv
_ZN7android8hardware5audio6effect4V2_026BpHwNoiseSuppressionEffect4pingEv
_ZN7android8hardware5audio6effect4V2_026BpHwNoiseSuppressionEffect5closeEv
_ZN7android8hardware5audio6effect4V2_026BpHwNoiseSuppressionEffect5debugERKNS0_11hidl_handleERKNS0_8hidl_vecINS0_11hidl_stringEEE
_ZN7android8hardware5audio6effect4V2_026BpHwNoiseSuppressionEffect5resetEv
_ZN7android8hardware5audio6effect4V2_026BpHwNoiseSuppressionEffect6enableEv
_ZN7android8hardware5audio6effect4V2_026BpHwNoiseSuppressionEffect7commandEjRKNS0_8hidl_vecIhEEjNSt3__18functionIFviS8_EEE
_ZN7android8hardware5audio6effect4V2_026BpHwNoiseSuppressionEffect7disableEv
_ZN7android8hardware5audio6effect4V2_026BpHwNoiseSuppressionEffect7offloadERKNS3_22EffectOffloadParameterE
_ZN7android8hardware5audio6effect4V2_026BpHwNoiseSuppressionEffect9getConfigENSt3__18functionIFvNS3_6ResultERKNS3_12EffectConfigEEEE
_ZN7android8hardware5audio6effect4V2_026BpHwNoiseSuppressionEffect9setConfigERKNS3_12EffectConfigERKNS_2spINS3_29IEffectBufferProviderCallbackEEESC_
_ZN7android8hardware5audio6effect4V2_026BpHwNoiseSuppressionEffect9setDeviceENS1_6common4V2_011AudioDeviceE
_ZN7android8hardware5audio6effect4V2_026BpHwNoiseSuppressionEffectC1ERKNS_2spINS0_7IBinderEEE
_ZN7android8hardware5audio6effect4V2_026BpHwNoiseSuppressionEffectC2ERKNS_2spINS0_7IBinderEEE
_ZN7android8hardware5audio6effect4V2_026IEnvironmentalReverbEffect10descriptorE
_ZN7android8hardware5audio6effect4V2_026IEnvironmentalReverbEffect10getServiceERKNSt3__112basic_stringIcNS5_11char_traitsIcEENS5_9allocatorIcEEEEb
_ZN7android8hardware5audio6effect4V2_026IEnvironmentalReverbEffect11linkToDeathERKNS_2spINS0_20hidl_death_recipientEEEm
_ZN7android8hardware5audio6effect4V2_026IEnvironmentalReverbEffect12getDebugInfoENSt3__18functionIFvRKNS_4hidl4base4V1_09DebugInfoEEEE
_ZN7android8hardware5audio6effect4V2_026IEnvironmentalReverbEffect12getHashChainENSt3__18functionIFvRKNS0_8hidl_vecINS0_10hidl_arrayIhLm32EJEEEEEEEE
_ZN7android8hardware5audio6effect4V2_026IEnvironmentalReverbEffect13tryGetServiceERKNSt3__112basic_stringIcNS5_11char_traitsIcEENS5_9allocatorIcEEEEb
_ZN7android8hardware5audio6effect4V2_026IEnvironmentalReverbEffect13unlinkToDeathERKNS_2spINS0_20hidl_death_recipientEEE
_ZN7android8hardware5audio6effect4V2_026IEnvironmentalReverbEffect14interfaceChainENSt3__18functionIFvRKNS0_8hidl_vecINS0_11hidl_stringEEEEEE
_ZN7android8hardware5audio6effect4V2_026IEnvironmentalReverbEffect17registerAsServiceERKNSt3__112basic_stringIcNS5_11char_traitsIcEENS5_9allocatorIcEEEE
_ZN7android8hardware5audio6effect4V2_026IEnvironmentalReverbEffect19interfaceDescriptorENSt3__18functionIFvRKNS0_11hidl_stringEEEE
_ZN7android8hardware5audio6effect4V2_026IEnvironmentalReverbEffect21notifySyspropsChangedEv
_ZN7android8hardware5audio6effect4V2_026IEnvironmentalReverbEffect21setHALInstrumentationEv
_ZN7android8hardware5audio6effect4V2_026IEnvironmentalReverbEffect24registerForNotificationsERKNSt3__112basic_stringIcNS5_11char_traitsIcEENS5_9allocatorIcEEEERKNS_2spINS_4hidl7manager4V1_020IServiceNotificationEEE
_ZN7android8hardware5audio6effect4V2_026IEnvironmentalReverbEffect4pingEv
_ZN7android8hardware5audio6effect4V2_026IEnvironmentalReverbEffect5debugERKNS0_11hidl_handleERKNS0_8hidl_vecINS0_11hidl_stringEEE
_ZN7android8hardware5audio6effect4V2_026IEnvironmentalReverbEffect8castFromERKNS_2spINS3_7IEffectEEEb
_ZN7android8hardware5audio6effect4V2_026IEnvironmentalReverbEffect8castFromERKNS_2spINS_4hidl4base4V1_05IBaseEEEb
_ZN7android8hardware5audio6effect4V2_026IEnvironmentalReverbEffect8castFromERKNS_2spIS4_EEb
_ZN7android8hardware5audio6effect4V2_027BsEnvironmentalReverbEffect13addOnewayTaskENSt3__18functionIFvvEEE
_ZN7android8hardware5audio6effect4V2_027BsEnvironmentalReverbEffectC1ENS_2spINS3_26IEnvironmentalReverbEffectEEE
_ZN7android8hardware5audio6effect4V2_027BsEnvironmentalReverbEffectC2ENS_2spINS3_26IEnvironmentalReverbEffectEEE
_ZN7android8hardware5audio6effect4V2_027IAcousticEchoCancelerEffect10descriptorE
_ZN7android8hardware5audio6effect4V2_027IAcousticEchoCancelerEffect10getServiceERKNSt3__112basic_stringIcNS5_11char_traitsIcEENS5_9allocatorIcEEEEb
_ZN7android8hardware5audio6effect4V2_027IAcousticEchoCancelerEffect11linkToDeathERKNS_2spINS0_20hidl_death_recipientEEEm
_ZN7android8hardware5audio6effect4V2_027IAcousticEchoCancelerEffect12getDebugInfoENSt3__18functionIFvRKNS_4hidl4base4V1_09DebugInfoEEEE
_ZN7android8hardware5audio6effect4V2_027IAcousticEchoCancelerEffect12getHashChainENSt3__18functionIFvRKNS0_8hidl_vecINS0_10hidl_arrayIhLm32EJEEEEEEEE
_ZN7android8hardware5audio6effect4V2_027IAcousticEchoCancelerEffect13tryGetServiceERKNSt3__112basic_stringIcNS5_11char_traitsIcEENS5_9allocatorIcEEEEb
_ZN7android8hardware5audio6effect4V2_027IAcousticEchoCancelerEffect13unlinkToDeathERKNS_2spINS0_20hidl_death_recipientEEE
_ZN7android8hardware5audio6effect4V2_027IAcousticEchoCancelerEffect14interfaceChainENSt3__18functionIFvRKNS0_8hidl_vecINS0_11hidl_stringEEEEEE
_ZN7android8hardware5audio6effect4V2_027IAcousticEchoCancelerEffect17registerAsServiceERKNSt3__112basic_stringIcNS5_11char_traitsIcEENS5_9allocatorIcEEEE
_ZN7android8hardware5audio6effect4V2_027IAcousticEchoCancelerEffect19interfaceDescriptorENSt3__18functionIFvRKNS0_11hidl_stringEEEE
_ZN7android8hardware5audio6effect4V2_027IAcousticEchoCancelerEffect21notifySyspropsChangedEv
_ZN7android8hardware5audio6effect4V2_027IAcousticEchoCancelerEffect21setHALInstrumentationEv
_ZN7android8hardware5audio6effect4V2_027IAcousticEchoCancelerEffect24registerForNotificationsERKNSt3__112basic_stringIcNS5_11char_traitsIcEENS5_9allocatorIcEEEERKNS_2spINS_4hidl7manager4V1_020IServiceNotificationEEE
_ZN7android8hardware5audio6effect4V2_027IAcousticEchoCancelerEffect4pingEv
_ZN7android8hardware5audio6effect4V2_027IAcousticEchoCancelerEffect5debugERKNS0_11hidl_handleERKNS0_8hidl_vecINS0_11hidl_stringEEE
_ZN7android8hardware5audio6effect4V2_027IAcousticEchoCancelerEffect8castFromERKNS_2spINS3_7IEffectEEEb
_ZN7android8hardware5audio6effect4V2_027IAcousticEchoCancelerEffect8castFromERKNS_2spINS_4hidl4base4V1_05IBaseEEEb
_ZN7android8hardware5audio6effect4V2_027IAcousticEchoCancelerEffect8castFromERKNS_2spIS4_EEb
_ZN7android8hardware5audio6effect4V2_027IAutomaticGainControlEffect10descriptorE
_ZN7android8hardware5audio6effect4V2_027IAutomaticGainControlEffect10getServiceERKNSt3__112basic_stringIcNS5_11char_traitsIcEENS5_9allocatorIcEEEEb
_ZN7android8hardware5audio6effect4V2_027IAutomaticGainControlEffect11linkToDeathERKNS_2spINS0_20hidl_death_recipientEEEm
_ZN7android8hardware5audio6effect4V2_027IAutomaticGainControlEffect12getDebugInfoENSt3__18functionIFvRKNS_4hidl4base4V1_09DebugInfoEEEE
_ZN7android8hardware5audio6effect4V2_027IAutomaticGainControlEffect12getHashChainENSt3__18functionIFvRKNS0_8hidl_vecINS0_10hidl_arrayIhLm32EJEEEEEEEE
_ZN7android8hardware5audio6effect4V2_027IAutomaticGainControlEffect13tryGetServiceERKNSt3__112basic_stringIcNS5_11char_traitsIcEENS5_9allocatorIcEEEEb
_ZN7android8hardware5audio6effect4V2_027IAutomaticGainControlEffect13unlinkToDeathERKNS_2spINS0_20hidl_death_recipientEEE
_ZN7android8hardware5audio6effect4V2_027IAutomaticGainControlEffect14interfaceChainENSt3__18functionIFvRKNS0_8hidl_vecINS0_11hidl_stringEEEEEE
_ZN7android8hardware5audio6effect4V2_027IAutomaticGainControlEffect17registerAsServiceERKNSt3__112basic_stringIcNS5_11char_traitsIcEENS5_9allocatorIcEEEE
_ZN7android8hardware5audio6effect4V2_027IAutomaticGainControlEffect19interfaceDescriptorENSt3__18functionIFvRKNS0_11hidl_stringEEEE
_ZN7android8hardware5audio6effect4V2_027IAutomaticGainControlEffect21notifySyspropsChangedEv
_ZN7android8hardware5audio6effect4V2_027IAutomaticGainControlEffect21setHALInstrumentationEv
_ZN7android8hardware5audio6effect4V2_027IAutomaticGainControlEffect24registerForNotificationsERKNSt3__112basic_stringIcNS5_11char_traitsIcEENS5_9allocatorIcEEEERKNS_2spINS_4hidl7manager4V1_020IServiceNotificationEEE
_ZN7android8hardware5audio6effect4V2_027IAutomaticGainControlEffect4pingEv
_ZN7android8hardware5audio6effect4V2_027IAutomaticGainControlEffect5debugERKNS0_11hidl_handleERKNS0_8hidl_vecINS0_11hidl_stringEEE
_ZN7android8hardware5audio6effect4V2_027IAutomaticGainControlEffect8castFromERKNS_2spINS3_7IEffectEEEb
_ZN7android8hardware5audio6effect4V2_027IAutomaticGainControlEffect8castFromERKNS_2spINS_4hidl4base4V1_05IBaseEEEb
_ZN7android8hardware5audio6effect4V2_027IAutomaticGainControlEffect8castFromERKNS_2spIS4_EEb
_ZN7android8hardware5audio6effect4V2_028BsAcousticEchoCancelerEffect13addOnewayTaskENSt3__18functionIFvvEEE
_ZN7android8hardware5audio6effect4V2_028BsAcousticEchoCancelerEffectC1ENS_2spINS3_27IAcousticEchoCancelerEffectEEE
_ZN7android8hardware5audio6effect4V2_028BsAcousticEchoCancelerEffectC2ENS_2spINS3_27IAcousticEchoCancelerEffectEEE
_ZN7android8hardware5audio6effect4V2_028BsAutomaticGainControlEffect13addOnewayTaskENSt3__18functionIFvvEEE
_ZN7android8hardware5audio6effect4V2_028BsAutomaticGainControlEffectC1ENS_2spINS3_27IAutomaticGainControlEffectEEE
_ZN7android8hardware5audio6effect4V2_028BsAutomaticGainControlEffectC2ENS_2spINS3_27IAutomaticGainControlEffectEEE
_ZN7android8hardware5audio6effect4V2_029BnHwEnvironmentalReverbEffect10onTransactEjRKNS0_6ParcelEPS5_jNSt3__18functionIFvRS5_EEE
_ZN7android8hardware5audio6effect4V2_029BnHwEnvironmentalReverbEffect12getDebugInfoENSt3__18functionIFvRKNS_4hidl4base4V1_09DebugInfoEEEE
_ZN7android8hardware5audio6effect4V2_029BnHwEnvironmentalReverbEffect15_hidl_getBypassEPNS_4hidl4base4V1_08BnHwBaseERKNS0_6ParcelEPSA_NSt3__18functionIFvRSA_EEE
_ZN7android8hardware5audio6effect4V2_029BnHwEnvironmentalReverbEffect15_hidl_setBypassEPNS_4hidl4base4V1_08BnHwBaseERKNS0_6ParcelEPSA_NSt3__18functionIFvRSA_EEE
_ZN7android8hardware5audio6effect4V2_029BnHwEnvironmentalReverbEffect16_hidl_getDensityEPNS_4hidl4base4V1_08BnHwBaseERKNS0_6ParcelEPSA_NSt3__18functionIFvRSA_EEE
_ZN7android8hardware5audio6effect4V2_029BnHwEnvironmentalReverbEffect16_hidl_setDensityEPNS_4hidl4base4V1_08BnHwBaseERKNS0_6ParcelEPSA_NSt3__18functionIFvRSA_EEE
_ZN7android8hardware5audio6effect4V2_029BnHwEnvironmentalReverbEffect18_hidl_getDecayTimeEPNS_4hidl4base4V1_08BnHwBaseERKNS0_6ParcelEPSA_NSt3__18functionIFvRSA_EEE
_ZN7android8hardware5audio6effect4V2_029BnHwEnvironmentalReverbEffect18_hidl_getDiffusionEPNS_4hidl4base4V1_08BnHwBaseERKNS0_6ParcelEPSA_NSt3__18functionIFvRSA_EEE
_ZN7android8hardware5audio6effect4V2_029BnHwEnvironmentalReverbEffect18_hidl_getRoomLevelEPNS_4hidl4base4V1_08BnHwBaseERKNS0_6ParcelEPSA_NSt3__18functionIFvRSA_EEE
_ZN7android8hardware5audio6effect4V2_029BnHwEnvironmentalReverbEffect18_hidl_setDecayTimeEPNS_4hidl4base4V1_08BnHwBaseERKNS0_6ParcelEPSA_NSt3__18functionIFvRSA_EEE
_ZN7android8hardware5audio6effect4V2_029BnHwEnvironmentalReverbEffect18_hidl_setDiffusionEPNS_4hidl4base4V1_08BnHwBaseERKNS0_6ParcelEPSA_NSt3__18functionIFvRSA_EEE
_ZN7android8hardware5audio6effect4V2_029BnHwEnvironmentalReverbEffect18_hidl_setRoomLevelEPNS_4hidl4base4V1_08BnHwBaseERKNS0_6ParcelEPSA_NSt3__18functionIFvRSA_EEE
_ZN7android8hardware5audio6effect4V2_029BnHwEnvironmentalReverbEffect20_hidl_getReverbDelayEPNS_4hidl4base4V1_08BnHwBaseERKNS0_6ParcelEPSA_NSt3__18functionIFvRSA_EEE
_ZN7android8hardware5audio6effect4V2_029BnHwEnvironmentalReverbEffect20_hidl_getReverbLevelEPNS_4hidl4base4V1_08BnHwBaseERKNS0_6ParcelEPSA_NSt3__18functionIFvRSA_EEE
_ZN7android8hardware5audio6effect4V2_029BnHwEnvironmentalReverbEffect20_hidl_getRoomHfLevelEPNS_4hidl4base4V1_08BnHwBaseERKNS0_6ParcelEPSA_NSt3__18functionIFvRSA_EEE
_ZN7android8hardware5audio6effect4V2_029BnHwEnvironmentalReverbEffect20_hidl_setReverbDelayEPNS_4hidl4base4V1_08BnHwBaseERKNS0_6ParcelEPSA_NSt3__18functionIFvRSA_EEE
_ZN7android8hardware5audio6effect4V2_029BnHwEnvironmentalReverbEffect20_hidl_setReverbLevelEPNS_4hidl4base4V1_08BnHwBaseERKNS0_6ParcelEPSA_NSt3__18functionIFvRSA_EEE
_ZN7android8hardware5audio6effect4V2_029BnHwEnvironmentalReverbEffect20_hidl_setRoomHfLevelEPNS_4hidl4base4V1_08BnHwBaseERKNS0_6ParcelEPSA_NSt3__18functionIFvRSA_EEE
_ZN7android8hardware5audio6effect4V2_029BnHwEnvironmentalReverbEffect21_hidl_getDecayHfRatioEPNS_4hidl4base4V1_08BnHwBaseERKNS0_6ParcelEPSA_NSt3__18functionIFvRSA_EEE
_ZN7android8hardware5audio6effect4V2_029BnHwEnvironmentalReverbEffect21_hidl_setDecayHfRatioEPNS_4hidl4base4V1_08BnHwBaseERKNS0_6ParcelEPSA_NSt3__18functionIFvRSA_EEE
_ZN7android8hardware5audio6effect4V2_029BnHwEnvironmentalReverbEffect22_hidl_getAllPropertiesEPNS_4hidl4base4V1_08BnHwBaseERKNS0_6ParcelEPSA_NSt3__18functionIFvRSA_EEE
_ZN7android8hardware5audio6effect4V2_029BnHwEnvironmentalReverbEffect22_hidl_setAllPropertiesEPNS_4hidl4base4V1_08BnHwBaseERKNS0_6ParcelEPSA_NSt3__18functionIFvRSA_EEE
_ZN7android8hardware5audio6effect4V2_029BnHwEnvironmentalReverbEffect25_hidl_getReflectionsDelayEPNS_4hidl4base4V1_08BnHwBaseERKNS0_6ParcelEPSA_NSt3__18functionIFvRSA_EEE
_ZN7android8hardware5audio6effect4V2_029BnHwEnvironmentalReverbEffect25_hidl_getReflectionsLevelEPNS_4hidl4base4V1_08BnHwBaseERKNS0_6ParcelEPSA_NSt3__18functionIFvRSA_EEE
_ZN7android8hardware5audio6effect4V2_029BnHwEnvironmentalReverbEffect25_hidl_setReflectionsDelayEPNS_4hidl4base4V1_08BnHwBaseERKNS0_6ParcelEPSA_NSt3__18functionIFvRSA_EEE
_ZN7android8hardware5audio6effect4V2_029BnHwEnvironmentalReverbEffect25_hidl_setReflectionsLevelEPNS_4hidl4base4V1_08BnHwBaseERKNS0_6ParcelEPSA_NSt3__18functionIFvRSA_EEE
_ZN7android8hardware5audio6effect4V2_029BnHwEnvironmentalReverbEffect4pingEv
_ZN7android8hardware5audio6effect4V2_029BnHwEnvironmentalReverbEffectC1ERKNS_2spINS3_26IEnvironmentalReverbEffectEEE
_ZN7android8hardware5audio6effect4V2_029BnHwEnvironmentalReverbEffectC2ERKNS_2spINS3_26IEnvironmentalReverbEffectEEE
_ZN7android8hardware5audio6effect4V2_029BnHwEnvironmentalReverbEffectD0Ev
_ZN7android8hardware5audio6effect4V2_029BnHwEnvironmentalReverbEffectD1Ev
_ZN7android8hardware5audio6effect4V2_029BnHwEnvironmentalReverbEffectD2Ev
_ZN7android8hardware5audio6effect4V2_029BpHwEnvironmentalReverbEffect10getDensityENSt3__18functionIFvNS3_6ResultEsEEE
_ZN7android8hardware5audio6effect4V2_029BpHwEnvironmentalReverbEffect10setDensityEs
_ZN7android8hardware5audio6effect4V2_029BpHwEnvironmentalReverbEffect11linkToDeathERKNS_2spINS0_20hidl_death_recipientEEEm
_ZN7android8hardware5audio6effect4V2_029BpHwEnvironmentalReverbEffect12getDebugInfoENSt3__18functionIFvRKNS_4hidl4base4V1_09DebugInfoEEEE
_ZN7android8hardware5audio6effect4V2_029BpHwEnvironmentalReverbEffect12getDecayTimeENSt3__18functionIFvNS3_6ResultEjEEE
_ZN7android8hardware5audio6effect4V2_029BpHwEnvironmentalReverbEffect12getDiffusionENSt3__18functionIFvNS3_6ResultEsEEE
_ZN7android8hardware5audio6effect4V2_029BpHwEnvironmentalReverbEffect12getHashChainENSt3__18functionIFvRKNS0_8hidl_vecINS0_10hidl_arrayIhLm32EJEEEEEEEE
_ZN7android8hardware5audio6effect4V2_029BpHwEnvironmentalReverbEffect12getParameterERKNS0_8hidl_vecIhEEjNSt3__18functionIFvNS3_6ResultES8_EEE
_ZN7android8hardware5audio6effect4V2_029BpHwEnvironmentalReverbEffect12getRoomLevelENSt3__18functionIFvNS3_6ResultEsEEE
_ZN7android8hardware5audio6effect4V2_029BpHwEnvironmentalReverbEffect12setAudioModeENS1_6common4V2_09AudioModeE
_ZN7android8hardware5audio6effect4V2_029BpHwEnvironmentalReverbEffect12setDecayTimeEj
_ZN7android8hardware5audio6effect4V2_029BpHwEnvironmentalReverbEffect12setDiffusionEs
_ZN7android8hardware5audio6effect4V2_029BpHwEnvironmentalReverbEffect12setParameterERKNS0_8hidl_vecIhEES8_
_ZN7android8hardware5audio6effect4V2_029BpHwEnvironmentalReverbEffect12setRoomLevelEs
_ZN7android8hardware5audio6effect4V2_029BpHwEnvironmentalReverbEffect13getDescriptorENSt3__18functionIFvNS3_6ResultERKNS3_16EffectDescriptorEEEE
_ZN7android8hardware5audio6effect4V2_029BpHwEnvironmentalReverbEffect13unlinkToDeathERKNS_2spINS0_20hidl_death_recipientEEE
_ZN7android8hardware5audio6effect4V2_029BpHwEnvironmentalReverbEffect14getReverbDelayENSt3__18functionIFvNS3_6ResultEjEEE
_ZN7android8hardware5audio6effect4V2_029BpHwEnvironmentalReverbEffect14getReverbLevelENSt3__18functionIFvNS3_6ResultEsEEE
_ZN7android8hardware5audio6effect4V2_029BpHwEnvironmentalReverbEffect14getRoomHfLevelENSt3__18functionIFvNS3_6ResultEsEEE
_ZN7android8hardware5audio6effect4V2_029BpHwEnvironmentalReverbEffect14interfaceChainENSt3__18functionIFvRKNS0_8hidl_vecINS0_11hidl_stringEEEEEE
_ZN7android8hardware5audio6effect4V2_029BpHwEnvironmentalReverbEffect14setAudioSourceENS1_6common4V2_011AudioSourceE
_ZN7android8hardware5audio6effect4V2_029BpHwEnvironmentalReverbEffect14setInputDeviceENS1_6common4V2_011AudioDeviceE
_ZN7android8hardware5audio6effect4V2_029BpHwEnvironmentalReverbEffect14setReverbDelayEj
_ZN7android8hardware5audio6effect4V2_029BpHwEnvironmentalReverbEffect14setReverbLevelEs
_ZN7android8hardware5audio6effect4V2_029BpHwEnvironmentalReverbEffect14setRoomHfLevelEs
_ZN7android8hardware5audio6effect4V2_029BpHwEnvironmentalReverbEffect15_hidl_getBypassEPNS0_10IInterfaceEPNS0_7details16HidlInstrumentorENSt3__18functionIFvNS3_6ResultEbEEE
_ZN7android8hardware5audio6effect4V2_029BpHwEnvironmentalReverbEffect15_hidl_setBypassEPNS0_10IInterfaceEPNS0_7details16HidlInstrumentorEb
_ZN7android8hardware5audio6effect4V2_029BpHwEnvironmentalReverbEffect15getDecayHfRatioENSt3__18functionIFvNS3_6ResultEsEEE
_ZN7android8hardware5audio6effect4V2_029BpHwEnvironmentalReverbEffect15setAndGetVolumeERKNS0_8hidl_vecIjEENSt3__18functionIFvNS3_6ResultES8_EEE
_ZN7android8hardware5audio6effect4V2_029BpHwEnvironmentalReverbEffect15setDecayHfRatioEs
_ZN7android8hardware5audio6effect4V2_029BpHwEnvironmentalReverbEffect16_hidl_getDensityEPNS0_10IInterfaceEPNS0_7details16HidlInstrumentorENSt3__18functionIFvNS3_6ResultEsEEE
_ZN7android8hardware5audio6effect4V2_029BpHwEnvironmentalReverbEffect16_hidl_setDensityEPNS0_10IInterfaceEPNS0_7details16HidlInstrumentorEs
_ZN7android8hardware5audio6effect4V2_029BpHwEnvironmentalReverbEffect16getAllPropertiesENSt3__18functionIFvNS3_6ResultERKNS3_26IEnvironmentalReverbEffect13AllPropertiesEEEE
_ZN7android8hardware5audio6effect4V2_029BpHwEnvironmentalReverbEffect16getConfigReverseENSt3__18functionIFvNS3_6ResultERKNS3_12EffectConfigEEEE
_ZN7android8hardware5audio6effect4V2_029BpHwEnvironmentalReverbEffect16setAllPropertiesERKNS3_26IEnvironmentalReverbEffect13AllPropertiesE
_ZN7android8hardware5audio6effect4V2_029BpHwEnvironmentalReverbEffect16setConfigReverseERKNS3_12EffectConfigERKNS_2spINS3_29IEffectBufferProviderCallbackEEESC_
_ZN7android8hardware5audio6effect4V2_029BpHwEnvironmentalReverbEffect17setProcessBuffersERKNS3_11AudioBufferES7_
_ZN7android8hardware5audio6effect4V2_029BpHwEnvironmentalReverbEffect18_hidl_getDecayTimeEPNS0_10IInterfaceEPNS0_7details16HidlInstrumentorENSt3__18functionIFvNS3_6ResultEjEEE
_ZN7android8hardware5audio6effect4V2_029BpHwEnvironmentalReverbEffect18_hidl_getDiffusionEPNS0_10IInterfaceEPNS0_7details16HidlInstrumentorENSt3__18functionIFvNS3_6ResultEsEEE
_ZN7android8hardware5audio6effect4V2_029BpHwEnvironmentalReverbEffect18_hidl_getRoomLevelEPNS0_10IInterfaceEPNS0_7details16HidlInstrumentorENSt3__18functionIFvNS3_6ResultEsEEE
_ZN7android8hardware5audio6effect4V2_029BpHwEnvironmentalReverbEffect18_hidl_setDecayTimeEPNS0_10IInterfaceEPNS0_7details16HidlInstrumentorEj
_ZN7android8hardware5audio6effect4V2_029BpHwEnvironmentalReverbEffect18_hidl_setDiffusionEPNS0_10IInterfaceEPNS0_7details16HidlInstrumentorEs
_ZN7android8hardware5audio6effect4V2_029BpHwEnvironmentalReverbEffect18_hidl_setRoomLevelEPNS0_10IInterfaceEPNS0_7details16HidlInstrumentorEs
_ZN7android8hardware5audio6effect4V2_029BpHwEnvironmentalReverbEffect19getReflectionsDelayENSt3__18functionIFvNS3_6ResultEjEEE
_ZN7android8hardware5audio6effect4V2_029BpHwEnvironmentalReverbEffect19getReflectionsLevelENSt3__18functionIFvNS3_6ResultEsEEE
_ZN7android8hardware5audio6effect4V2_029BpHwEnvironmentalReverbEffect19interfaceDescriptorENSt3__18functionIFvRKNS0_11hidl_stringEEEE
_ZN7android8hardware5audio6effect4V2_029BpHwEnvironmentalReverbEffect19setReflectionsDelayEj
_ZN7android8hardware5audio6effect4V2_029BpHwEnvironmentalReverbEffect19setReflectionsLevelEs
_ZN7android8hardware5audio6effect4V2_029BpHwEnvironmentalReverbEffect20_hidl_getReverbDelayEPNS0_10IInterfaceEPNS0_7details16HidlInstrumentorENSt3__18functionIFvNS3_6ResultEjEEE
_ZN7android8hardware5audio6effect4V2_029BpHwEnvironmentalReverbEffect20_hidl_getReverbLevelEPNS0_10IInterfaceEPNS0_7details16HidlInstrumentorENSt3__18functionIFvNS3_6ResultEsEEE
_ZN7android8hardware5audio6effect4V2_029BpHwEnvironmentalReverbEffect20_hidl_getRoomHfLevelEPNS0_10IInterfaceEPNS0_7details16HidlInstrumentorENSt3__18functionIFvNS3_6ResultEsEEE
_ZN7android8hardware5audio6effect4V2_029BpHwEnvironmentalReverbEffect20_hidl_setReverbDelayEPNS0_10IInterfaceEPNS0_7details16HidlInstrumentorEj
_ZN7android8hardware5audio6effect4V2_029BpHwEnvironmentalReverbEffect20_hidl_setReverbLevelEPNS0_10IInterfaceEPNS0_7details16HidlInstrumentorEs
_ZN7android8hardware5audio6effect4V2_029BpHwEnvironmentalReverbEffect20_hidl_setRoomHfLevelEPNS0_10IInterfaceEPNS0_7details16HidlInstrumentorEs
_ZN7android8hardware5audio6effect4V2_029BpHwEnvironmentalReverbEffect20getAuxChannelsConfigENSt3__18functionIFvNS3_6ResultERKNS3_23EffectAuxChannelsConfigEEEE
_ZN7android8hardware5audio6effect4V2_029BpHwEnvironmentalReverbEffect20prepareForProcessingENSt3__18functionIFvNS3_6ResultERKNS0_12MQDescriptorIS7_LNS0_8MQFlavorE1EEEEEE
_ZN7android8hardware5audio6effect4V2_029BpHwEnvironmentalReverbEffect20setAuxChannelsConfigERKNS3_23EffectAuxChannelsConfigE
_ZN7android8hardware5audio6effect4V2_029BpHwEnvironmentalReverbEffect21_hidl_getDecayHfRatioEPNS0_10IInterfaceEPNS0_7details16HidlInstrumentorENSt3__18functionIFvNS3_6ResultEsEEE
_ZN7android8hardware5audio6effect4V2_029BpHwEnvironmentalReverbEffect21_hidl_setDecayHfRatioEPNS0_10IInterfaceEPNS0_7details16HidlInstrumentorEs
_ZN7android8hardware5audio6effect4V2_029BpHwEnvironmentalReverbEffect21notifySyspropsChangedEv
_ZN7android8hardware5audio6effect4V2_029BpHwEnvironmentalReverbEffect21setHALInstrumentationEv
_ZN7android8hardware5audio6effect4V2_029BpHwEnvironmentalReverbEffect22_hidl_getAllPropertiesEPNS0_10IInterfaceEPNS0_7details16HidlInstrumentorENSt3__18functionIFvNS3_6ResultERKNS3_26IEnvironmentalReverbEffect13AllPropertiesEEEE
_ZN7android8hardware5audio6effect4V2_029BpHwEnvironmentalReverbEffect22_hidl_setAllPropertiesEPNS0_10IInterfaceEPNS0_7details16HidlInstrumentorERKNS3_26IEnvironmentalReverbEffect13AllPropertiesE
_ZN7android8hardware5audio6effect4V2_029BpHwEnvironmentalReverbEffect24volumeChangeNotificationERKNS0_8hidl_vecIjEE
_ZN7android8hardware5audio6effect4V2_029BpHwEnvironmentalReverbEffect25_hidl_getReflectionsDelayEPNS0_10IInterfaceEPNS0_7details16HidlInstrumentorENSt3__18functionIFvNS3_6ResultEjEEE
_ZN7android8hardware5audio6effect4V2_029BpHwEnvironmentalReverbEffect25_hidl_getReflectionsLevelEPNS0_10IInterfaceEPNS0_7details16HidlInstrumentorENSt3__18functionIFvNS3_6ResultEsEEE
_ZN7android8hardware5audio6effect4V2_029BpHwEnvironmentalReverbEffect25_hidl_setReflectionsDelayEPNS0_10IInterfaceEPNS0_7details16HidlInstrumentorEj
_ZN7android8hardware5audio6effect4V2_029BpHwEnvironmentalReverbEffect25_hidl_setReflectionsLevelEPNS0_10IInterfaceEPNS0_7details16HidlInstrumentorEs
_ZN7android8hardware5audio6effect4V2_029BpHwEnvironmentalReverbEffect26getCurrentConfigForFeatureEjjNSt3__18functionIFvNS3_6ResultERKNS0_8hidl_vecIhEEEEE
_ZN7android8hardware5audio6effect4V2_029BpHwEnvironmentalReverbEffect26setCurrentConfigForFeatureEjRKNS0_8hidl_vecIhEE
_ZN7android8hardware5audio6effect4V2_029BpHwEnvironmentalReverbEffect29getSupportedConfigsForFeatureEjjjNSt3__18functionIFvNS3_6ResultEjRKNS0_8hidl_vecIhEEEEE
_ZN7android8hardware5audio6effect4V2_029BpHwEnvironmentalReverbEffect30getSupportedAuxChannelsConfigsEjNSt3__18functionIFvNS3_6ResultERKNS0_8hidl_vecINS3_23EffectAuxChannelsConfigEEEEEE
_ZN7android8hardware5audio6effect4V2_029BpHwEnvironmentalReverbEffect4initEv
_ZN7android8hardware5audio6effect4V2_029BpHwEnvironmentalReverbEffect4pingEv
_ZN7android8hardware5audio6effect4V2_029BpHwEnvironmentalReverbEffect5closeEv
_ZN7android8hardware5audio6effect4V2_029BpHwEnvironmentalReverbEffect5debugERKNS0_11hidl_handleERKNS0_8hidl_vecINS0_11hidl_stringEEE
_ZN7android8hardware5audio6effect4V2_029BpHwEnvironmentalReverbEffect5resetEv
_ZN7android8hardware5audio6effect4V2_029BpHwEnvironmentalReverbEffect6enableEv
_ZN7android8hardware5audio6effect4V2_029BpHwEnvironmentalReverbEffect7commandEjRKNS0_8hidl_vecIhEEjNSt3__18functionIFviS8_EEE
_ZN7android8hardware5audio6effect4V2_029BpHwEnvironmentalReverbEffect7disableEv
_ZN7android8hardware5audio6effect4V2_029BpHwEnvironmentalReverbEffect7offloadERKNS3_22EffectOffloadParameterE
_ZN7android8hardware5audio6effect4V2_029BpHwEnvironmentalReverbEffect9getBypassENSt3__18functionIFvNS3_6ResultEbEEE
_ZN7android8hardware5audio6effect4V2_029BpHwEnvironmentalReverbEffect9getConfigENSt3__18functionIFvNS3_6ResultERKNS3_12EffectConfigEEEE
_ZN7android8hardware5audio6effect4V2_029BpHwEnvironmentalReverbEffect9setBypassEb
_ZN7android8hardware5audio6effect4V2_029BpHwEnvironmentalReverbEffect9setConfigERKNS3_12EffectConfigERKNS_2spINS3_29IEffectBufferProviderCallbackEEESC_
_ZN7android8hardware5audio6effect4V2_029BpHwEnvironmentalReverbEffect9setDeviceENS1_6common4V2_011AudioDeviceE
_ZN7android8hardware5audio6effect4V2_029BpHwEnvironmentalReverbEffectC1ERKNS_2spINS0_7IBinderEEE
_ZN7android8hardware5audio6effect4V2_029BpHwEnvironmentalReverbEffectC2ERKNS_2spINS0_7IBinderEEE
_ZN7android8hardware5audio6effect4V2_029IEffectBufferProviderCallback10descriptorE
_ZN7android8hardware5audio6effect4V2_029IEffectBufferProviderCallback10getServiceERKNSt3__112basic_stringIcNS5_11char_traitsIcEENS5_9allocatorIcEEEEb
_ZN7android8hardware5audio6effect4V2_029IEffectBufferProviderCallback11linkToDeathERKNS_2spINS0_20hidl_death_recipientEEEm
_ZN7android8hardware5audio6effect4V2_029IEffectBufferProviderCallback12getDebugInfoENSt3__18functionIFvRKNS_4hidl4base4V1_09DebugInfoEEEE
_ZN7android8hardware5audio6effect4V2_029IEffectBufferProviderCallback12getHashChainENSt3__18functionIFvRKNS0_8hidl_vecINS0_10hidl_arrayIhLm32EJEEEEEEEE
_ZN7android8hardware5audio6effect4V2_029IEffectBufferProviderCallback13tryGetServiceERKNSt3__112basic_stringIcNS5_11char_traitsIcEENS5_9allocatorIcEEEEb
_ZN7android8hardware5audio6effect4V2_029IEffectBufferProviderCallback13unlinkToDeathERKNS_2spINS0_20hidl_death_recipientEEE
_ZN7android8hardware5audio6effect4V2_029IEffectBufferProviderCallback14interfaceChainENSt3__18functionIFvRKNS0_8hidl_vecINS0_11hidl_stringEEEEEE
_ZN7android8hardware5audio6effect4V2_029IEffectBufferProviderCallback17registerAsServiceERKNSt3__112basic_stringIcNS5_11char_traitsIcEENS5_9allocatorIcEEEE
_ZN7android8hardware5audio6effect4V2_029IEffectBufferProviderCallback19interfaceDescriptorENSt3__18functionIFvRKNS0_11hidl_stringEEEE
_ZN7android8hardware5audio6effect4V2_029IEffectBufferProviderCallback21notifySyspropsChangedEv
_ZN7android8hardware5audio6effect4V2_029IEffectBufferProviderCallback21setHALInstrumentationEv
_ZN7android8hardware5audio6effect4V2_029IEffectBufferProviderCallback24registerForNotificationsERKNSt3__112basic_stringIcNS5_11char_traitsIcEENS5_9allocatorIcEEEERKNS_2spINS_4hidl7manager4V1_020IServiceNotificationEEE
_ZN7android8hardware5audio6effect4V2_029IEffectBufferProviderCallback4pingEv
_ZN7android8hardware5audio6effect4V2_029IEffectBufferProviderCallback5debugERKNS0_11hidl_handleERKNS0_8hidl_vecINS0_11hidl_stringEEE
_ZN7android8hardware5audio6effect4V2_029IEffectBufferProviderCallback8castFromERKNS_2spINS_4hidl4base4V1_05IBaseEEEb
_ZN7android8hardware5audio6effect4V2_029IEffectBufferProviderCallback8castFromERKNS_2spIS4_EEb
_ZN7android8hardware5audio6effect4V2_030BnHwAcousticEchoCancelerEffect10onTransactEjRKNS0_6ParcelEPS5_jNSt3__18functionIFvRS5_EEE
_ZN7android8hardware5audio6effect4V2_030BnHwAcousticEchoCancelerEffect12getDebugInfoENSt3__18functionIFvRKNS_4hidl4base4V1_09DebugInfoEEEE
_ZN7android8hardware5audio6effect4V2_030BnHwAcousticEchoCancelerEffect18_hidl_getEchoDelayEPNS_4hidl4base4V1_08BnHwBaseERKNS0_6ParcelEPSA_NSt3__18functionIFvRSA_EEE
_ZN7android8hardware5audio6effect4V2_030BnHwAcousticEchoCancelerEffect18_hidl_setEchoDelayEPNS_4hidl4base4V1_08BnHwBaseERKNS0_6ParcelEPSA_NSt3__18functionIFvRSA_EEE
_ZN7android8hardware5audio6effect4V2_030BnHwAcousticEchoCancelerEffect4pingEv
_ZN7android8hardware5audio6effect4V2_030BnHwAcousticEchoCancelerEffectC1ERKNS_2spINS3_27IAcousticEchoCancelerEffectEEE
_ZN7android8hardware5audio6effect4V2_030BnHwAcousticEchoCancelerEffectC2ERKNS_2spINS3_27IAcousticEchoCancelerEffectEEE
_ZN7android8hardware5audio6effect4V2_030BnHwAcousticEchoCancelerEffectD0Ev
_ZN7android8hardware5audio6effect4V2_030BnHwAcousticEchoCancelerEffectD1Ev
_ZN7android8hardware5audio6effect4V2_030BnHwAcousticEchoCancelerEffectD2Ev
_ZN7android8hardware5audio6effect4V2_030BnHwAutomaticGainControlEffect10onTransactEjRKNS0_6ParcelEPS5_jNSt3__18functionIFvRS5_EEE
_ZN7android8hardware5audio6effect4V2_030BnHwAutomaticGainControlEffect12getDebugInfoENSt3__18functionIFvRKNS_4hidl4base4V1_09DebugInfoEEEE
_ZN7android8hardware5audio6effect4V2_030BnHwAutomaticGainControlEffect17_hidl_getCompGainEPNS_4hidl4base4V1_08BnHwBaseERKNS0_6ParcelEPSA_NSt3__18functionIFvRSA_EEE
_ZN7android8hardware5audio6effect4V2_030BnHwAutomaticGainControlEffect17_hidl_setCompGainEPNS_4hidl4base4V1_08BnHwBaseERKNS0_6ParcelEPSA_NSt3__18functionIFvRSA_EEE
_ZN7android8hardware5audio6effect4V2_030BnHwAutomaticGainControlEffect20_hidl_getTargetLevelEPNS_4hidl4base4V1_08BnHwBaseERKNS0_6ParcelEPSA_NSt3__18functionIFvRSA_EEE
_ZN7android8hardware5audio6effect4V2_030BnHwAutomaticGainControlEffect20_hidl_setTargetLevelEPNS_4hidl4base4V1_08BnHwBaseERKNS0_6ParcelEPSA_NSt3__18functionIFvRSA_EEE
_ZN7android8hardware5audio6effect4V2_030BnHwAutomaticGainControlEffect22_hidl_getAllPropertiesEPNS_4hidl4base4V1_08BnHwBaseERKNS0_6ParcelEPSA_NSt3__18functionIFvRSA_EEE
_ZN7android8hardware5audio6effect4V2_030BnHwAutomaticGainControlEffect22_hidl_isLimiterEnabledEPNS_4hidl4base4V1_08BnHwBaseERKNS0_6ParcelEPSA_NSt3__18functionIFvRSA_EEE
_ZN7android8hardware5audio6effect4V2_030BnHwAutomaticGainControlEffect22_hidl_setAllPropertiesEPNS_4hidl4base4V1_08BnHwBaseERKNS0_6ParcelEPSA_NSt3__18functionIFvRSA_EEE
_ZN7android8hardware5audio6effect4V2_030BnHwAutomaticGainControlEffect23_hidl_setLimiterEnabledEPNS_4hidl4base4V1_08BnHwBaseERKNS0_6ParcelEPSA_NSt3__18functionIFvRSA_EEE
_ZN7android8hardware5audio6effect4V2_030BnHwAutomaticGainControlEffect4pingEv
_ZN7android8hardware5audio6effect4V2_030BnHwAutomaticGainControlEffectC1ERKNS_2spINS3_27IAutomaticGainControlEffectEEE
_ZN7android8hardware5audio6effect4V2_030BnHwAutomaticGainControlEffectC2ERKNS_2spINS3_27IAutomaticGainControlEffectEEE
_ZN7android8hardware5audio6effect4V2_030BnHwAutomaticGainControlEffectD0Ev
_ZN7android8hardware5audio6effect4V2_030BnHwAutomaticGainControlEffectD1Ev
_ZN7android8hardware5audio6effect4V2_030BnHwAutomaticGainControlEffectD2Ev
_ZN7android8hardware5audio6effect4V2_030BpHwAcousticEchoCancelerEffect11linkToDeathERKNS_2spINS0_20hidl_death_recipientEEEm
_ZN7android8hardware5audio6effect4V2_030BpHwAcousticEchoCancelerEffect12getDebugInfoENSt3__18functionIFvRKNS_4hidl4base4V1_09DebugInfoEEEE
_ZN7android8hardware5audio6effect4V2_030BpHwAcousticEchoCancelerEffect12getEchoDelayENSt3__18functionIFvNS3_6ResultEjEEE
_ZN7android8hardware5audio6effect4V2_030BpHwAcousticEchoCancelerEffect12getHashChainENSt3__18functionIFvRKNS0_8hidl_vecINS0_10hidl_arrayIhLm32EJEEEEEEEE
_ZN7android8hardware5audio6effect4V2_030BpHwAcousticEchoCancelerEffect12getParameterERKNS0_8hidl_vecIhEEjNSt3__18functionIFvNS3_6ResultES8_EEE
_ZN7android8hardware5audio6effect4V2_030BpHwAcousticEchoCancelerEffect12setAudioModeENS1_6common4V2_09AudioModeE
_ZN7android8hardware5audio6effect4V2_030BpHwAcousticEchoCancelerEffect12setEchoDelayEj
_ZN7android8hardware5audio6effect4V2_030BpHwAcousticEchoCancelerEffect12setParameterERKNS0_8hidl_vecIhEES8_
_ZN7android8hardware5audio6effect4V2_030BpHwAcousticEchoCancelerEffect13getDescriptorENSt3__18functionIFvNS3_6ResultERKNS3_16EffectDescriptorEEEE
_ZN7android8hardware5audio6effect4V2_030BpHwAcousticEchoCancelerEffect13unlinkToDeathERKNS_2spINS0_20hidl_death_recipientEEE
_ZN7android8hardware5audio6effect4V2_030BpHwAcousticEchoCancelerEffect14interfaceChainENSt3__18functionIFvRKNS0_8hidl_vecINS0_11hidl_stringEEEEEE
_ZN7android8hardware5audio6effect4V2_030BpHwAcousticEchoCancelerEffect14setAudioSourceENS1_6common4V2_011AudioSourceE
_ZN7android8hardware5audio6effect4V2_030BpHwAcousticEchoCancelerEffect14setInputDeviceENS1_6common4V2_011AudioDeviceE
_ZN7android8hardware5audio6effect4V2_030BpHwAcousticEchoCancelerEffect15setAndGetVolumeERKNS0_8hidl_vecIjEENSt3__18functionIFvNS3_6ResultES8_EEE
_ZN7android8hardware5audio6effect4V2_030BpHwAcousticEchoCancelerEffect16getConfigReverseENSt3__18functionIFvNS3_6ResultERKNS3_12EffectConfigEEEE
_ZN7android8hardware5audio6effect4V2_030BpHwAcousticEchoCancelerEffect16setConfigReverseERKNS3_12EffectConfigERKNS_2spINS3_29IEffectBufferProviderCallbackEEESC_
_ZN7android8hardware5audio6effect4V2_030BpHwAcousticEchoCancelerEffect17setProcessBuffersERKNS3_11AudioBufferES7_
_ZN7android8hardware5audio6effect4V2_030BpHwAcousticEchoCancelerEffect18_hidl_getEchoDelayEPNS0_10IInterfaceEPNS0_7details16HidlInstrumentorENSt3__18functionIFvNS3_6ResultEjEEE
_ZN7android8hardware5audio6effect4V2_030BpHwAcousticEchoCancelerEffect18_hidl_setEchoDelayEPNS0_10IInterfaceEPNS0_7details16HidlInstrumentorEj
_ZN7android8hardware5audio6effect4V2_030BpHwAcousticEchoCancelerEffect19interfaceDescriptorENSt3__18functionIFvRKNS0_11hidl_stringEEEE
_ZN7android8hardware5audio6effect4V2_030BpHwAcousticEchoCancelerEffect20getAuxChannelsConfigENSt3__18functionIFvNS3_6ResultERKNS3_23EffectAuxChannelsConfigEEEE
_ZN7android8hardware5audio6effect4V2_030BpHwAcousticEchoCancelerEffect20prepareForProcessingENSt3__18functionIFvNS3_6ResultERKNS0_12MQDescriptorIS7_LNS0_8MQFlavorE1EEEEEE
_ZN7android8hardware5audio6effect4V2_030BpHwAcousticEchoCancelerEffect20setAuxChannelsConfigERKNS3_23EffectAuxChannelsConfigE
_ZN7android8hardware5audio6effect4V2_030BpHwAcousticEchoCancelerEffect21notifySyspropsChangedEv
_ZN7android8hardware5audio6effect4V2_030BpHwAcousticEchoCancelerEffect21setHALInstrumentationEv
_ZN7android8hardware5audio6effect4V2_030BpHwAcousticEchoCancelerEffect24volumeChangeNotificationERKNS0_8hidl_vecIjEE
_ZN7android8hardware5audio6effect4V2_030BpHwAcousticEchoCancelerEffect26getCurrentConfigForFeatureEjjNSt3__18functionIFvNS3_6ResultERKNS0_8hidl_vecIhEEEEE
_ZN7android8hardware5audio6effect4V2_030BpHwAcousticEchoCancelerEffect26setCurrentConfigForFeatureEjRKNS0_8hidl_vecIhEE
_ZN7android8hardware5audio6effect4V2_030BpHwAcousticEchoCancelerEffect29getSupportedConfigsForFeatureEjjjNSt3__18functionIFvNS3_6ResultEjRKNS0_8hidl_vecIhEEEEE
_ZN7android8hardware5audio6effect4V2_030BpHwAcousticEchoCancelerEffect30getSupportedAuxChannelsConfigsEjNSt3__18functionIFvNS3_6ResultERKNS0_8hidl_vecINS3_23EffectAuxChannelsConfigEEEEEE
_ZN7android8hardware5audio6effect4V2_030BpHwAcousticEchoCancelerEffect4initEv
_ZN7android8hardware5audio6effect4V2_030BpHwAcousticEchoCancelerEffect4pingEv
_ZN7android8hardware5audio6effect4V2_030BpHwAcousticEchoCancelerEffect5closeEv
_ZN7android8hardware5audio6effect4V2_030BpHwAcousticEchoCancelerEffect5debugERKNS0_11hidl_handleERKNS0_8hidl_vecINS0_11hidl_stringEEE
_ZN7android8hardware5audio6effect4V2_030BpHwAcousticEchoCancelerEffect5resetEv
_ZN7android8hardware5audio6effect4V2_030BpHwAcousticEchoCancelerEffect6enableEv
_ZN7android8hardware5audio6effect4V2_030BpHwAcousticEchoCancelerEffect7commandEjRKNS0_8hidl_vecIhEEjNSt3__18functionIFviS8_EEE
_ZN7android8hardware5audio6effect4V2_030BpHwAcousticEchoCancelerEffect7disableEv
_ZN7android8hardware5audio6effect4V2_030BpHwAcousticEchoCancelerEffect7offloadERKNS3_22EffectOffloadParameterE
_ZN7android8hardware5audio6effect4V2_030BpHwAcousticEchoCancelerEffect9getConfigENSt3__18functionIFvNS3_6ResultERKNS3_12EffectConfigEEEE
_ZN7android8hardware5audio6effect4V2_030BpHwAcousticEchoCancelerEffect9setConfigERKNS3_12EffectConfigERKNS_2spINS3_29IEffectBufferProviderCallbackEEESC_
_ZN7android8hardware5audio6effect4V2_030BpHwAcousticEchoCancelerEffect9setDeviceENS1_6common4V2_011AudioDeviceE
_ZN7android8hardware5audio6effect4V2_030BpHwAcousticEchoCancelerEffectC1ERKNS_2spINS0_7IBinderEEE
_ZN7android8hardware5audio6effect4V2_030BpHwAcousticEchoCancelerEffectC2ERKNS_2spINS0_7IBinderEEE
_ZN7android8hardware5audio6effect4V2_030BpHwAutomaticGainControlEffect11getCompGainENSt3__18functionIFvNS3_6ResultEsEEE
_ZN7android8hardware5audio6effect4V2_030BpHwAutomaticGainControlEffect11linkToDeathERKNS_2spINS0_20hidl_death_recipientEEEm
_ZN7android8hardware5audio6effect4V2_030BpHwAutomaticGainControlEffect11setCompGainEs
_ZN7android8hardware5audio6effect4V2_030BpHwAutomaticGainControlEffect12getDebugInfoENSt3__18functionIFvRKNS_4hidl4base4V1_09DebugInfoEEEE
_ZN7android8hardware5audio6effect4V2_030BpHwAutomaticGainControlEffect12getHashChainENSt3__18functionIFvRKNS0_8hidl_vecINS0_10hidl_arrayIhLm32EJEEEEEEEE
_ZN7android8hardware5audio6effect4V2_030BpHwAutomaticGainControlEffect12getParameterERKNS0_8hidl_vecIhEEjNSt3__18functionIFvNS3_6ResultES8_EEE
_ZN7android8hardware5audio6effect4V2_030BpHwAutomaticGainControlEffect12setAudioModeENS1_6common4V2_09AudioModeE
_ZN7android8hardware5audio6effect4V2_030BpHwAutomaticGainControlEffect12setParameterERKNS0_8hidl_vecIhEES8_
_ZN7android8hardware5audio6effect4V2_030BpHwAutomaticGainControlEffect13getDescriptorENSt3__18functionIFvNS3_6ResultERKNS3_16EffectDescriptorEEEE
_ZN7android8hardware5audio6effect4V2_030BpHwAutomaticGainControlEffect13unlinkToDeathERKNS_2spINS0_20hidl_death_recipientEEE
_ZN7android8hardware5audio6effect4V2_030BpHwAutomaticGainControlEffect14getTargetLevelENSt3__18functionIFvNS3_6ResultEsEEE
_ZN7android8hardware5audio6effect4V2_030BpHwAutomaticGainControlEffect14interfaceChainENSt3__18functionIFvRKNS0_8hidl_vecINS0_11hidl_stringEEEEEE
_ZN7android8hardware5audio6effect4V2_030BpHwAutomaticGainControlEffect14setAudioSourceENS1_6common4V2_011AudioSourceE
_ZN7android8hardware5audio6effect4V2_030BpHwAutomaticGainControlEffect14setInputDeviceENS1_6common4V2_011AudioDeviceE
_ZN7android8hardware5audio6effect4V2_030BpHwAutomaticGainControlEffect14setTargetLevelEs
_ZN7android8hardware5audio6effect4V2_030BpHwAutomaticGainControlEffect15setAndGetVolumeERKNS0_8hidl_vecIjEENSt3__18functionIFvNS3_6ResultES8_EEE
_ZN7android8hardware5audio6effect4V2_030BpHwAutomaticGainControlEffect16getAllPropertiesENSt3__18functionIFvNS3_6ResultERKNS3_27IAutomaticGainControlEffect13AllPropertiesEEEE
_ZN7android8hardware5audio6effect4V2_030BpHwAutomaticGainControlEffect16getConfigReverseENSt3__18functionIFvNS3_6ResultERKNS3_12EffectConfigEEEE
_ZN7android8hardware5audio6effect4V2_030BpHwAutomaticGainControlEffect16isLimiterEnabledENSt3__18functionIFvNS3_6ResultEbEEE
_ZN7android8hardware5audio6effect4V2_030BpHwAutomaticGainControlEffect16setAllPropertiesERKNS3_27IAutomaticGainControlEffect13AllPropertiesE
_ZN7android8hardware5audio6effect4V2_030BpHwAutomaticGainControlEffect16setConfigReverseERKNS3_12EffectConfigERKNS_2spINS3_29IEffectBufferProviderCallbackEEESC_
_ZN7android8hardware5audio6effect4V2_030BpHwAutomaticGainControlEffect17_hidl_getCompGainEPNS0_10IInterfaceEPNS0_7details16HidlInstrumentorENSt3__18functionIFvNS3_6ResultEsEEE
_ZN7android8hardware5audio6effect4V2_030BpHwAutomaticGainControlEffect17_hidl_setCompGainEPNS0_10IInterfaceEPNS0_7details16HidlInstrumentorEs
_ZN7android8hardware5audio6effect4V2_030BpHwAutomaticGainControlEffect17setLimiterEnabledEb
_ZN7android8hardware5audio6effect4V2_030BpHwAutomaticGainControlEffect17setProcessBuffersERKNS3_11AudioBufferES7_
_ZN7android8hardware5audio6effect4V2_030BpHwAutomaticGainControlEffect19interfaceDescriptorENSt3__18functionIFvRKNS0_11hidl_stringEEEE
_ZN7android8hardware5audio6effect4V2_030BpHwAutomaticGainControlEffect20_hidl_getTargetLevelEPNS0_10IInterfaceEPNS0_7details16HidlInstrumentorENSt3__18functionIFvNS3_6ResultEsEEE
_ZN7android8hardware5audio6effect4V2_030BpHwAutomaticGainControlEffect20_hidl_setTargetLevelEPNS0_10IInterfaceEPNS0_7details16HidlInstrumentorEs
_ZN7android8hardware5audio6effect4V2_030BpHwAutomaticGainControlEffect20getAuxChannelsConfigENSt3__18functionIFvNS3_6ResultERKNS3_23EffectAuxChannelsConfigEEEE
_ZN7android8hardware5audio6effect4V2_030BpHwAutomaticGainControlEffect20prepareForProcessingENSt3__18functionIFvNS3_6ResultERKNS0_12MQDescriptorIS7_LNS0_8MQFlavorE1EEEEEE
_ZN7android8hardware5audio6effect4V2_030BpHwAutomaticGainControlEffect20setAuxChannelsConfigERKNS3_23EffectAuxChannelsConfigE
_ZN7android8hardware5audio6effect4V2_030BpHwAutomaticGainControlEffect21notifySyspropsChangedEv
_ZN7android8hardware5audio6effect4V2_030BpHwAutomaticGainControlEffect21setHALInstrumentationEv
_ZN7android8hardware5audio6effect4V2_030BpHwAutomaticGainControlEffect22_hidl_getAllPropertiesEPNS0_10IInterfaceEPNS0_7details16HidlInstrumentorENSt3__18functionIFvNS3_6ResultERKNS3_27IAutomaticGainControlEffect13AllPropertiesEEEE
_ZN7android8hardware5audio6effect4V2_030BpHwAutomaticGainControlEffect22_hidl_isLimiterEnabledEPNS0_10IInterfaceEPNS0_7details16HidlInstrumentorENSt3__18functionIFvNS3_6ResultEbEEE
_ZN7android8hardware5audio6effect4V2_030BpHwAutomaticGainControlEffect22_hidl_setAllPropertiesEPNS0_10IInterfaceEPNS0_7details16HidlInstrumentorERKNS3_27IAutomaticGainControlEffect13AllPropertiesE
_ZN7android8hardware5audio6effect4V2_030BpHwAutomaticGainControlEffect23_hidl_setLimiterEnabledEPNS0_10IInterfaceEPNS0_7details16HidlInstrumentorEb
_ZN7android8hardware5audio6effect4V2_030BpHwAutomaticGainControlEffect24volumeChangeNotificationERKNS0_8hidl_vecIjEE
_ZN7android8hardware5audio6effect4V2_030BpHwAutomaticGainControlEffect26getCurrentConfigForFeatureEjjNSt3__18functionIFvNS3_6ResultERKNS0_8hidl_vecIhEEEEE
_ZN7android8hardware5audio6effect4V2_030BpHwAutomaticGainControlEffect26setCurrentConfigForFeatureEjRKNS0_8hidl_vecIhEE
_ZN7android8hardware5audio6effect4V2_030BpHwAutomaticGainControlEffect29getSupportedConfigsForFeatureEjjjNSt3__18functionIFvNS3_6ResultEjRKNS0_8hidl_vecIhEEEEE
_ZN7android8hardware5audio6effect4V2_030BpHwAutomaticGainControlEffect30getSupportedAuxChannelsConfigsEjNSt3__18functionIFvNS3_6ResultERKNS0_8hidl_vecINS3_23EffectAuxChannelsConfigEEEEEE
_ZN7android8hardware5audio6effect4V2_030BpHwAutomaticGainControlEffect4initEv
_ZN7android8hardware5audio6effect4V2_030BpHwAutomaticGainControlEffect4pingEv
_ZN7android8hardware5audio6effect4V2_030BpHwAutomaticGainControlEffect5closeEv
_ZN7android8hardware5audio6effect4V2_030BpHwAutomaticGainControlEffect5debugERKNS0_11hidl_handleERKNS0_8hidl_vecINS0_11hidl_stringEEE
_ZN7android8hardware5audio6effect4V2_030BpHwAutomaticGainControlEffect5resetEv
_ZN7android8hardware5audio6effect4V2_030BpHwAutomaticGainControlEffect6enableEv
_ZN7android8hardware5audio6effect4V2_030BpHwAutomaticGainControlEffect7commandEjRKNS0_8hidl_vecIhEEjNSt3__18functionIFviS8_EEE
_ZN7android8hardware5audio6effect4V2_030BpHwAutomaticGainControlEffect7disableEv
_ZN7android8hardware5audio6effect4V2_030BpHwAutomaticGainControlEffect7offloadERKNS3_22EffectOffloadParameterE
_ZN7android8hardware5audio6effect4V2_030BpHwAutomaticGainControlEffect9getConfigENSt3__18functionIFvNS3_6ResultERKNS3_12EffectConfigEEEE
_ZN7android8hardware5audio6effect4V2_030BpHwAutomaticGainControlEffect9setConfigERKNS3_12EffectConfigERKNS_2spINS3_29IEffectBufferProviderCallbackEEESC_
_ZN7android8hardware5audio6effect4V2_030BpHwAutomaticGainControlEffect9setDeviceENS1_6common4V2_011AudioDeviceE
_ZN7android8hardware5audio6effect4V2_030BpHwAutomaticGainControlEffectC1ERKNS_2spINS0_7IBinderEEE
_ZN7android8hardware5audio6effect4V2_030BpHwAutomaticGainControlEffectC2ERKNS_2spINS0_7IBinderEEE
_ZN7android8hardware5audio6effect4V2_030BsEffectBufferProviderCallback13addOnewayTaskENSt3__18functionIFvvEEE
_ZN7android8hardware5audio6effect4V2_030BsEffectBufferProviderCallbackC1ENS_2spINS3_29IEffectBufferProviderCallbackEEE
_ZN7android8hardware5audio6effect4V2_030BsEffectBufferProviderCallbackC2ENS_2spINS3_29IEffectBufferProviderCallbackEEE
_ZN7android8hardware5audio6effect4V2_032BnHwEffectBufferProviderCallback10onTransactEjRKNS0_6ParcelEPS5_jNSt3__18functionIFvRS5_EEE
_ZN7android8hardware5audio6effect4V2_032BnHwEffectBufferProviderCallback12getDebugInfoENSt3__18functionIFvRKNS_4hidl4base4V1_09DebugInfoEEEE
_ZN7android8hardware5audio6effect4V2_032BnHwEffectBufferProviderCallback15_hidl_getBufferEPNS_4hidl4base4V1_08BnHwBaseERKNS0_6ParcelEPSA_NSt3__18functionIFvRSA_EEE
_ZN7android8hardware5audio6effect4V2_032BnHwEffectBufferProviderCallback15_hidl_putBufferEPNS_4hidl4base4V1_08BnHwBaseERKNS0_6ParcelEPSA_NSt3__18functionIFvRSA_EEE
_ZN7android8hardware5audio6effect4V2_032BnHwEffectBufferProviderCallback4pingEv
_ZN7android8hardware5audio6effect4V2_032BnHwEffectBufferProviderCallbackC1ERKNS_2spINS3_29IEffectBufferProviderCallbackEEE
_ZN7android8hardware5audio6effect4V2_032BnHwEffectBufferProviderCallbackC2ERKNS_2spINS3_29IEffectBufferProviderCallbackEEE
_ZN7android8hardware5audio6effect4V2_032BnHwEffectBufferProviderCallbackD0Ev
_ZN7android8hardware5audio6effect4V2_032BnHwEffectBufferProviderCallbackD1Ev
_ZN7android8hardware5audio6effect4V2_032BnHwEffectBufferProviderCallbackD2Ev
_ZN7android8hardware5audio6effect4V2_032BpHwEffectBufferProviderCallback11linkToDeathERKNS_2spINS0_20hidl_death_recipientEEEm
_ZN7android8hardware5audio6effect4V2_032BpHwEffectBufferProviderCallback12getDebugInfoENSt3__18functionIFvRKNS_4hidl4base4V1_09DebugInfoEEEE
_ZN7android8hardware5audio6effect4V2_032BpHwEffectBufferProviderCallback12getHashChainENSt3__18functionIFvRKNS0_8hidl_vecINS0_10hidl_arrayIhLm32EJEEEEEEEE
_ZN7android8hardware5audio6effect4V2_032BpHwEffectBufferProviderCallback13unlinkToDeathERKNS_2spINS0_20hidl_death_recipientEEE
_ZN7android8hardware5audio6effect4V2_032BpHwEffectBufferProviderCallback14interfaceChainENSt3__18functionIFvRKNS0_8hidl_vecINS0_11hidl_stringEEEEEE
_ZN7android8hardware5audio6effect4V2_032BpHwEffectBufferProviderCallback15_hidl_getBufferEPNS0_10IInterfaceEPNS0_7details16HidlInstrumentorENSt3__18functionIFvRKNS3_11AudioBufferEEEE
_ZN7android8hardware5audio6effect4V2_032BpHwEffectBufferProviderCallback15_hidl_putBufferEPNS0_10IInterfaceEPNS0_7details16HidlInstrumentorERKNS3_11AudioBufferE
_ZN7android8hardware5audio6effect4V2_032BpHwEffectBufferProviderCallback19interfaceDescriptorENSt3__18functionIFvRKNS0_11hidl_stringEEEE
_ZN7android8hardware5audio6effect4V2_032BpHwEffectBufferProviderCallback21notifySyspropsChangedEv
_ZN7android8hardware5audio6effect4V2_032BpHwEffectBufferProviderCallback21setHALInstrumentationEv
_ZN7android8hardware5audio6effect4V2_032BpHwEffectBufferProviderCallback4pingEv
_ZN7android8hardware5audio6effect4V2_032BpHwEffectBufferProviderCallback5debugERKNS0_11hidl_handleERKNS0_8hidl_vecINS0_11hidl_stringEEE
_ZN7android8hardware5audio6effect4V2_032BpHwEffectBufferProviderCallback9getBufferENSt3__18functionIFvRKNS3_11AudioBufferEEEE
_ZN7android8hardware5audio6effect4V2_032BpHwEffectBufferProviderCallback9putBufferERKNS3_11AudioBufferE
_ZN7android8hardware5audio6effect4V2_032BpHwEffectBufferProviderCallbackC1ERKNS_2spINS0_7IBinderEEE
_ZN7android8hardware5audio6effect4V2_032BpHwEffectBufferProviderCallbackC2ERKNS_2spINS0_7IBinderEEE
_ZN7android8hardware5audio6effect4V2_07IEffect10descriptorE
_ZN7android8hardware5audio6effect4V2_07IEffect10getServiceERKNSt3__112basic_stringIcNS5_11char_traitsIcEENS5_9allocatorIcEEEEb
_ZN7android8hardware5audio6effect4V2_07IEffect11linkToDeathERKNS_2spINS0_20hidl_death_recipientEEEm
_ZN7android8hardware5audio6effect4V2_07IEffect12getDebugInfoENSt3__18functionIFvRKNS_4hidl4base4V1_09DebugInfoEEEE
_ZN7android8hardware5audio6effect4V2_07IEffect12getHashChainENSt3__18functionIFvRKNS0_8hidl_vecINS0_10hidl_arrayIhLm32EJEEEEEEEE
_ZN7android8hardware5audio6effect4V2_07IEffect13tryGetServiceERKNSt3__112basic_stringIcNS5_11char_traitsIcEENS5_9allocatorIcEEEEb
_ZN7android8hardware5audio6effect4V2_07IEffect13unlinkToDeathERKNS_2spINS0_20hidl_death_recipientEEE
_ZN7android8hardware5audio6effect4V2_07IEffect14interfaceChainENSt3__18functionIFvRKNS0_8hidl_vecINS0_11hidl_stringEEEEEE
_ZN7android8hardware5audio6effect4V2_07IEffect17registerAsServiceERKNSt3__112basic_stringIcNS5_11char_traitsIcEENS5_9allocatorIcEEEE
_ZN7android8hardware5audio6effect4V2_07IEffect19interfaceDescriptorENSt3__18functionIFvRKNS0_11hidl_stringEEEE
_ZN7android8hardware5audio6effect4V2_07IEffect21notifySyspropsChangedEv
_ZN7android8hardware5audio6effect4V2_07IEffect21setHALInstrumentationEv
_ZN7android8hardware5audio6effect4V2_07IEffect24registerForNotificationsERKNSt3__112basic_stringIcNS5_11char_traitsIcEENS5_9allocatorIcEEEERKNS_2spINS_4hidl7manager4V1_020IServiceNotificationEEE
_ZN7android8hardware5audio6effect4V2_07IEffect4pingEv
_ZN7android8hardware5audio6effect4V2_07IEffect5debugERKNS0_11hidl_handleERKNS0_8hidl_vecINS0_11hidl_stringEEE
_ZN7android8hardware5audio6effect4V2_07IEffect8castFromERKNS_2spINS_4hidl4base4V1_05IBaseEEEb
_ZN7android8hardware5audio6effect4V2_07IEffect8castFromERKNS_2spIS4_EEb
_ZN7android8hardware5audio6effect4V2_08BsEffect13addOnewayTaskENSt3__18functionIFvvEEE
_ZN7android8hardware5audio6effect4V2_08BsEffectC1ENS_2spINS3_7IEffectEEE
_ZN7android8hardware5audio6effect4V2_08BsEffectC2ENS_2spINS3_7IEffectEEE
_ZTCN7android8hardware5audio6effect4V2_010BnHwEffectE0_NS0_7IBinderE
_ZTCN7android8hardware5audio6effect4V2_010BnHwEffectE0_NS0_9BHwBinderE
_ZTCN7android8hardware5audio6effect4V2_010BnHwEffectE0_NS_4hidl4base4V1_08BnHwBaseE
_ZTCN7android8hardware5audio6effect4V2_010BpHwEffectE0_NS0_11BpInterfaceINS3_7IEffectEEE
_ZTCN7android8hardware5audio6effect4V2_010BpHwEffectE0_NS3_7IEffectE
_ZTCN7android8hardware5audio6effect4V2_010BpHwEffectE0_NS_4hidl4base4V1_05IBaseE
_ZTCN7android8hardware5audio6effect4V2_010BpHwEffectE16_NS0_11BpHwRefBaseE
_ZTCN7android8hardware5audio6effect4V2_010BpHwEffectE8_NS0_10IInterfaceE
_ZTCN7android8hardware5audio6effect4V2_014IDownmixEffectE0_NS3_7IEffectE
_ZTCN7android8hardware5audio6effect4V2_014IDownmixEffectE0_NS_4hidl4base4V1_05IBaseE
_ZTCN7android8hardware5audio6effect4V2_015IEffectsFactoryE0_NS_4hidl4base4V1_05IBaseE
_ZTCN7android8hardware5audio6effect4V2_016IBassBoostEffectE0_NS3_7IEffectE
_ZTCN7android8hardware5audio6effect4V2_016IBassBoostEffectE0_NS_4hidl4base4V1_05IBaseE
_ZTCN7android8hardware5audio6effect4V2_016IEqualizerEffectE0_NS3_7IEffectE
_ZTCN7android8hardware5audio6effect4V2_016IEqualizerEffectE0_NS_4hidl4base4V1_05IBaseE
_ZTCN7android8hardware5audio6effect4V2_017BnHwDownmixEffectE0_NS0_7IBinderE
_ZTCN7android8hardware5audio6effect4V2_017BnHwDownmixEffectE0_NS0_9BHwBinderE
_ZTCN7android8hardware5audio6effect4V2_017BnHwDownmixEffectE0_NS_4hidl4base4V1_08BnHwBaseE
_ZTCN7android8hardware5audio6effect4V2_017BpHwDownmixEffectE0_NS0_11BpInterfaceINS3_14IDownmixEffectEEE
_ZTCN7android8hardware5audio6effect4V2_017BpHwDownmixEffectE0_NS3_14IDownmixEffectE
_ZTCN7android8hardware5audio6effect4V2_017BpHwDownmixEffectE0_NS3_7IEffectE
_ZTCN7android8hardware5audio6effect4V2_017BpHwDownmixEffectE0_NS_4hidl4base4V1_05IBaseE
_ZTCN7android8hardware5audio6effect4V2_017BpHwDownmixEffectE16_NS0_11BpHwRefBaseE
_ZTCN7android8hardware5audio6effect4V2_017BpHwDownmixEffectE8_NS0_10IInterfaceE
_ZTCN7android8hardware5audio6effect4V2_017IVisualizerEffectE0_NS3_7IEffectE
_ZTCN7android8hardware5audio6effect4V2_017IVisualizerEffectE0_NS_4hidl4base4V1_05IBaseE
_ZTCN7android8hardware5audio6effect4V2_018BnHwEffectsFactoryE0_NS0_7IBinderE
_ZTCN7android8hardware5audio6effect4V2_018BnHwEffectsFactoryE0_NS0_9BHwBinderE
_ZTCN7android8hardware5audio6effect4V2_018BnHwEffectsFactoryE0_NS_4hidl4base4V1_08BnHwBaseE
_ZTCN7android8hardware5audio6effect4V2_018BpHwEffectsFactoryE0_NS0_11BpInterfaceINS3_15IEffectsFactoryEEE
_ZTCN7android8hardware5audio6effect4V2_018BpHwEffectsFactoryE0_NS3_15IEffectsFactoryE
_ZTCN7android8hardware5audio6effect4V2_018BpHwEffectsFactoryE0_NS_4hidl4base4V1_05IBaseE
_ZTCN7android8hardware5audio6effect4V2_018BpHwEffectsFactoryE16_NS0_11BpHwRefBaseE
_ZTCN7android8hardware5audio6effect4V2_018BpHwEffectsFactoryE8_NS0_10IInterfaceE
_ZTCN7android8hardware5audio6effect4V2_018IVirtualizerEffectE0_NS3_7IEffectE
_ZTCN7android8hardware5audio6effect4V2_018IVirtualizerEffectE0_NS_4hidl4base4V1_05IBaseE
_ZTCN7android8hardware5audio6effect4V2_019BnHwBassBoostEffectE0_NS0_7IBinderE
_ZTCN7android8hardware5audio6effect4V2_019BnHwBassBoostEffectE0_NS0_9BHwBinderE
_ZTCN7android8hardware5audio6effect4V2_019BnHwBassBoostEffectE0_NS_4hidl4base4V1_08BnHwBaseE
_ZTCN7android8hardware5audio6effect4V2_019BnHwEqualizerEffectE0_NS0_7IBinderE
_ZTCN7android8hardware5audio6effect4V2_019BnHwEqualizerEffectE0_NS0_9BHwBinderE
_ZTCN7android8hardware5audio6effect4V2_019BnHwEqualizerEffectE0_NS_4hidl4base4V1_08BnHwBaseE
_ZTCN7android8hardware5audio6effect4V2_019BpHwBassBoostEffectE0_NS0_11BpInterfaceINS3_16IBassBoostEffectEEE
_ZTCN7android8hardware5audio6effect4V2_019BpHwBassBoostEffectE0_NS3_16IBassBoostEffectE
_ZTCN7android8hardware5audio6effect4V2_019BpHwBassBoostEffectE0_NS3_7IEffectE
_ZTCN7android8hardware5audio6effect4V2_019BpHwBassBoostEffectE0_NS_4hidl4base4V1_05IBaseE
_ZTCN7android8hardware5audio6effect4V2_019BpHwBassBoostEffectE16_NS0_11BpHwRefBaseE
_ZTCN7android8hardware5audio6effect4V2_019BpHwBassBoostEffectE8_NS0_10IInterfaceE
_ZTCN7android8hardware5audio6effect4V2_019BpHwEqualizerEffectE0_NS0_11BpInterfaceINS3_16IEqualizerEffectEEE
_ZTCN7android8hardware5audio6effect4V2_019BpHwEqualizerEffectE0_NS3_16IEqualizerEffectE
_ZTCN7android8hardware5audio6effect4V2_019BpHwEqualizerEffectE0_NS3_7IEffectE
_ZTCN7android8hardware5audio6effect4V2_019BpHwEqualizerEffectE0_NS_4hidl4base4V1_05IBaseE
_ZTCN7android8hardware5audio6effect4V2_019BpHwEqualizerEffectE16_NS0_11BpHwRefBaseE
_ZTCN7android8hardware5audio6effect4V2_019BpHwEqualizerEffectE8_NS0_10IInterfaceE
_ZTCN7android8hardware5audio6effect4V2_019IPresetReverbEffectE0_NS3_7IEffectE
_ZTCN7android8hardware5audio6effect4V2_019IPresetReverbEffectE0_NS_4hidl4base4V1_05IBaseE
_ZTCN7android8hardware5audio6effect4V2_020BnHwVisualizerEffectE0_NS0_7IBinderE
_ZTCN7android8hardware5audio6effect4V2_020BnHwVisualizerEffectE0_NS0_9BHwBinderE
_ZTCN7android8hardware5audio6effect4V2_020BnHwVisualizerEffectE0_NS_4hidl4base4V1_08BnHwBaseE
_ZTCN7android8hardware5audio6effect4V2_020BpHwVisualizerEffectE0_NS0_11BpInterfaceINS3_17IVisualizerEffectEEE
_ZTCN7android8hardware5audio6effect4V2_020BpHwVisualizerEffectE0_NS3_17IVisualizerEffectE
_ZTCN7android8hardware5audio6effect4V2_020BpHwVisualizerEffectE0_NS3_7IEffectE
_ZTCN7android8hardware5audio6effect4V2_020BpHwVisualizerEffectE0_NS_4hidl4base4V1_05IBaseE
_ZTCN7android8hardware5audio6effect4V2_020BpHwVisualizerEffectE16_NS0_11BpHwRefBaseE
_ZTCN7android8hardware5audio6effect4V2_020BpHwVisualizerEffectE8_NS0_10IInterfaceE
_ZTCN7android8hardware5audio6effect4V2_021BnHwVirtualizerEffectE0_NS0_7IBinderE
_ZTCN7android8hardware5audio6effect4V2_021BnHwVirtualizerEffectE0_NS0_9BHwBinderE
_ZTCN7android8hardware5audio6effect4V2_021BnHwVirtualizerEffectE0_NS_4hidl4base4V1_08BnHwBaseE
_ZTCN7android8hardware5audio6effect4V2_021BpHwVirtualizerEffectE0_NS0_11BpInterfaceINS3_18IVirtualizerEffectEEE
_ZTCN7android8hardware5audio6effect4V2_021BpHwVirtualizerEffectE0_NS3_18IVirtualizerEffectE
_ZTCN7android8hardware5audio6effect4V2_021BpHwVirtualizerEffectE0_NS3_7IEffectE
_ZTCN7android8hardware5audio6effect4V2_021BpHwVirtualizerEffectE0_NS_4hidl4base4V1_05IBaseE
_ZTCN7android8hardware5audio6effect4V2_021BpHwVirtualizerEffectE16_NS0_11BpHwRefBaseE
_ZTCN7android8hardware5audio6effect4V2_021BpHwVirtualizerEffectE8_NS0_10IInterfaceE
_ZTCN7android8hardware5audio6effect4V2_022BnHwPresetReverbEffectE0_NS0_7IBinderE
_ZTCN7android8hardware5audio6effect4V2_022BnHwPresetReverbEffectE0_NS0_9BHwBinderE
_ZTCN7android8hardware5audio6effect4V2_022BnHwPresetReverbEffectE0_NS_4hidl4base4V1_08BnHwBaseE
_ZTCN7android8hardware5audio6effect4V2_022BpHwPresetReverbEffectE0_NS0_11BpInterfaceINS3_19IPresetReverbEffectEEE
_ZTCN7android8hardware5audio6effect4V2_022BpHwPresetReverbEffectE0_NS3_19IPresetReverbEffectE
_ZTCN7android8hardware5audio6effect4V2_022BpHwPresetReverbEffectE0_NS3_7IEffectE
_ZTCN7android8hardware5audio6effect4V2_022BpHwPresetReverbEffectE0_NS_4hidl4base4V1_05IBaseE
_ZTCN7android8hardware5audio6effect4V2_022BpHwPresetReverbEffectE16_NS0_11BpHwRefBaseE
_ZTCN7android8hardware5audio6effect4V2_022BpHwPresetReverbEffectE8_NS0_10IInterfaceE
_ZTCN7android8hardware5audio6effect4V2_023ILoudnessEnhancerEffectE0_NS3_7IEffectE
_ZTCN7android8hardware5audio6effect4V2_023ILoudnessEnhancerEffectE0_NS_4hidl4base4V1_05IBaseE
_ZTCN7android8hardware5audio6effect4V2_023INoiseSuppressionEffectE0_NS3_7IEffectE
_ZTCN7android8hardware5audio6effect4V2_023INoiseSuppressionEffectE0_NS_4hidl4base4V1_05IBaseE
_ZTCN7android8hardware5audio6effect4V2_026BnHwLoudnessEnhancerEffectE0_NS0_7IBinderE
_ZTCN7android8hardware5audio6effect4V2_026BnHwLoudnessEnhancerEffectE0_NS0_9BHwBinderE
_ZTCN7android8hardware5audio6effect4V2_026BnHwLoudnessEnhancerEffectE0_NS_4hidl4base4V1_08BnHwBaseE
_ZTCN7android8hardware5audio6effect4V2_026BnHwNoiseSuppressionEffectE0_NS0_7IBinderE
_ZTCN7android8hardware5audio6effect4V2_026BnHwNoiseSuppressionEffectE0_NS0_9BHwBinderE
_ZTCN7android8hardware5audio6effect4V2_026BnHwNoiseSuppressionEffectE0_NS_4hidl4base4V1_08BnHwBaseE
_ZTCN7android8hardware5audio6effect4V2_026BpHwLoudnessEnhancerEffectE0_NS0_11BpInterfaceINS3_23ILoudnessEnhancerEffectEEE
_ZTCN7android8hardware5audio6effect4V2_026BpHwLoudnessEnhancerEffectE0_NS3_23ILoudnessEnhancerEffectE
_ZTCN7android8hardware5audio6effect4V2_026BpHwLoudnessEnhancerEffectE0_NS3_7IEffectE
_ZTCN7android8hardware5audio6effect4V2_026BpHwLoudnessEnhancerEffectE0_NS_4hidl4base4V1_05IBaseE
_ZTCN7android8hardware5audio6effect4V2_026BpHwLoudnessEnhancerEffectE16_NS0_11BpHwRefBaseE
_ZTCN7android8hardware5audio6effect4V2_026BpHwLoudnessEnhancerEffectE8_NS0_10IInterfaceE
_ZTCN7android8hardware5audio6effect4V2_026BpHwNoiseSuppressionEffectE0_NS0_11BpInterfaceINS3_23INoiseSuppressionEffectEEE
_ZTCN7android8hardware5audio6effect4V2_026BpHwNoiseSuppressionEffectE0_NS3_23INoiseSuppressionEffectE
_ZTCN7android8hardware5audio6effect4V2_026BpHwNoiseSuppressionEffectE0_NS3_7IEffectE
_ZTCN7android8hardware5audio6effect4V2_026BpHwNoiseSuppressionEffectE0_NS_4hidl4base4V1_05IBaseE
_ZTCN7android8hardware5audio6effect4V2_026BpHwNoiseSuppressionEffectE16_NS0_11BpHwRefBaseE
_ZTCN7android8hardware5audio6effect4V2_026BpHwNoiseSuppressionEffectE8_NS0_10IInterfaceE
_ZTCN7android8hardware5audio6effect4V2_026IEnvironmentalReverbEffectE0_NS3_7IEffectE
_ZTCN7android8hardware5audio6effect4V2_026IEnvironmentalReverbEffectE0_NS_4hidl4base4V1_05IBaseE
_ZTCN7android8hardware5audio6effect4V2_027IAcousticEchoCancelerEffectE0_NS3_7IEffectE
_ZTCN7android8hardware5audio6effect4V2_027IAcousticEchoCancelerEffectE0_NS_4hidl4base4V1_05IBaseE
_ZTCN7android8hardware5audio6effect4V2_027IAutomaticGainControlEffectE0_NS3_7IEffectE
_ZTCN7android8hardware5audio6effect4V2_027IAutomaticGainControlEffectE0_NS_4hidl4base4V1_05IBaseE
_ZTCN7android8hardware5audio6effect4V2_029BnHwEnvironmentalReverbEffectE0_NS0_7IBinderE
_ZTCN7android8hardware5audio6effect4V2_029BnHwEnvironmentalReverbEffectE0_NS0_9BHwBinderE
_ZTCN7android8hardware5audio6effect4V2_029BnHwEnvironmentalReverbEffectE0_NS_4hidl4base4V1_08BnHwBaseE
_ZTCN7android8hardware5audio6effect4V2_029BpHwEnvironmentalReverbEffectE0_NS0_11BpInterfaceINS3_26IEnvironmentalReverbEffectEEE
_ZTCN7android8hardware5audio6effect4V2_029BpHwEnvironmentalReverbEffectE0_NS3_26IEnvironmentalReverbEffectE
_ZTCN7android8hardware5audio6effect4V2_029BpHwEnvironmentalReverbEffectE0_NS3_7IEffectE
_ZTCN7android8hardware5audio6effect4V2_029BpHwEnvironmentalReverbEffectE0_NS_4hidl4base4V1_05IBaseE
_ZTCN7android8hardware5audio6effect4V2_029BpHwEnvironmentalReverbEffectE16_NS0_11BpHwRefBaseE
_ZTCN7android8hardware5audio6effect4V2_029BpHwEnvironmentalReverbEffectE8_NS0_10IInterfaceE
_ZTCN7android8hardware5audio6effect4V2_029IEffectBufferProviderCallbackE0_NS_4hidl4base4V1_05IBaseE
_ZTCN7android8hardware5audio6effect4V2_030BnHwAcousticEchoCancelerEffectE0_NS0_7IBinderE
_ZTCN7android8hardware5audio6effect4V2_030BnHwAcousticEchoCancelerEffectE0_NS0_9BHwBinderE
_ZTCN7android8hardware5audio6effect4V2_030BnHwAcousticEchoCancelerEffectE0_NS_4hidl4base4V1_08BnHwBaseE
_ZTCN7android8hardware5audio6effect4V2_030BnHwAutomaticGainControlEffectE0_NS0_7IBinderE
_ZTCN7android8hardware5audio6effect4V2_030BnHwAutomaticGainControlEffectE0_NS0_9BHwBinderE
_ZTCN7android8hardware5audio6effect4V2_030BnHwAutomaticGainControlEffectE0_NS_4hidl4base4V1_08BnHwBaseE
_ZTCN7android8hardware5audio6effect4V2_030BpHwAcousticEchoCancelerEffectE0_NS0_11BpInterfaceINS3_27IAcousticEchoCancelerEffectEEE
_ZTCN7android8hardware5audio6effect4V2_030BpHwAcousticEchoCancelerEffectE0_NS3_27IAcousticEchoCancelerEffectE
_ZTCN7android8hardware5audio6effect4V2_030BpHwAcousticEchoCancelerEffectE0_NS3_7IEffectE
_ZTCN7android8hardware5audio6effect4V2_030BpHwAcousticEchoCancelerEffectE0_NS_4hidl4base4V1_05IBaseE
_ZTCN7android8hardware5audio6effect4V2_030BpHwAcousticEchoCancelerEffectE16_NS0_11BpHwRefBaseE
_ZTCN7android8hardware5audio6effect4V2_030BpHwAcousticEchoCancelerEffectE8_NS0_10IInterfaceE
_ZTCN7android8hardware5audio6effect4V2_030BpHwAutomaticGainControlEffectE0_NS0_11BpInterfaceINS3_27IAutomaticGainControlEffectEEE
_ZTCN7android8hardware5audio6effect4V2_030BpHwAutomaticGainControlEffectE0_NS3_27IAutomaticGainControlEffectE
_ZTCN7android8hardware5audio6effect4V2_030BpHwAutomaticGainControlEffectE0_NS3_7IEffectE
_ZTCN7android8hardware5audio6effect4V2_030BpHwAutomaticGainControlEffectE0_NS_4hidl4base4V1_05IBaseE
_ZTCN7android8hardware5audio6effect4V2_030BpHwAutomaticGainControlEffectE16_NS0_11BpHwRefBaseE
_ZTCN7android8hardware5audio6effect4V2_030BpHwAutomaticGainControlEffectE8_NS0_10IInterfaceE
_ZTCN7android8hardware5audio6effect4V2_032BnHwEffectBufferProviderCallbackE0_NS0_7IBinderE
_ZTCN7android8hardware5audio6effect4V2_032BnHwEffectBufferProviderCallbackE0_NS0_9BHwBinderE
_ZTCN7android8hardware5audio6effect4V2_032BnHwEffectBufferProviderCallbackE0_NS_4hidl4base4V1_08BnHwBaseE
_ZTCN7android8hardware5audio6effect4V2_032BpHwEffectBufferProviderCallbackE0_NS0_11BpInterfaceINS3_29IEffectBufferProviderCallbackEEE
_ZTCN7android8hardware5audio6effect4V2_032BpHwEffectBufferProviderCallbackE0_NS3_29IEffectBufferProviderCallbackE
_ZTCN7android8hardware5audio6effect4V2_032BpHwEffectBufferProviderCallbackE0_NS_4hidl4base4V1_05IBaseE
_ZTCN7android8hardware5audio6effect4V2_032BpHwEffectBufferProviderCallbackE16_NS0_11BpHwRefBaseE
_ZTCN7android8hardware5audio6effect4V2_032BpHwEffectBufferProviderCallbackE8_NS0_10IInterfaceE
_ZTCN7android8hardware5audio6effect4V2_07IEffectE0_NS_4hidl4base4V1_05IBaseE
_ZTTN7android8hardware5audio6effect4V2_010BnHwEffectE
_ZTTN7android8hardware5audio6effect4V2_010BpHwEffectE
_ZTTN7android8hardware5audio6effect4V2_014IDownmixEffectE
_ZTTN7android8hardware5audio6effect4V2_015IEffectsFactoryE
_ZTTN7android8hardware5audio6effect4V2_016IBassBoostEffectE
_ZTTN7android8hardware5audio6effect4V2_016IEqualizerEffectE
_ZTTN7android8hardware5audio6effect4V2_017BnHwDownmixEffectE
_ZTTN7android8hardware5audio6effect4V2_017BpHwDownmixEffectE
_ZTTN7android8hardware5audio6effect4V2_017IVisualizerEffectE
_ZTTN7android8hardware5audio6effect4V2_018BnHwEffectsFactoryE
_ZTTN7android8hardware5audio6effect4V2_018BpHwEffectsFactoryE
_ZTTN7android8hardware5audio6effect4V2_018IVirtualizerEffectE
_ZTTN7android8hardware5audio6effect4V2_019BnHwBassBoostEffectE
_ZTTN7android8hardware5audio6effect4V2_019BnHwEqualizerEffectE
_ZTTN7android8hardware5audio6effect4V2_019BpHwBassBoostEffectE
_ZTTN7android8hardware5audio6effect4V2_019BpHwEqualizerEffectE
_ZTTN7android8hardware5audio6effect4V2_019IPresetReverbEffectE
_ZTTN7android8hardware5audio6effect4V2_020BnHwVisualizerEffectE
_ZTTN7android8hardware5audio6effect4V2_020BpHwVisualizerEffectE
_ZTTN7android8hardware5audio6effect4V2_021BnHwVirtualizerEffectE
_ZTTN7android8hardware5audio6effect4V2_021BpHwVirtualizerEffectE
_ZTTN7android8hardware5audio6effect4V2_022BnHwPresetReverbEffectE
_ZTTN7android8hardware5audio6effect4V2_022BpHwPresetReverbEffectE
_ZTTN7android8hardware5audio6effect4V2_023ILoudnessEnhancerEffectE
_ZTTN7android8hardware5audio6effect4V2_023INoiseSuppressionEffectE
_ZTTN7android8hardware5audio6effect4V2_026BnHwLoudnessEnhancerEffectE
_ZTTN7android8hardware5audio6effect4V2_026BnHwNoiseSuppressionEffectE
_ZTTN7android8hardware5audio6effect4V2_026BpHwLoudnessEnhancerEffectE
_ZTTN7android8hardware5audio6effect4V2_026BpHwNoiseSuppressionEffectE
_ZTTN7android8hardware5audio6effect4V2_026IEnvironmentalReverbEffectE
_ZTTN7android8hardware5audio6effect4V2_027IAcousticEchoCancelerEffectE
_ZTTN7android8hardware5audio6effect4V2_027IAutomaticGainControlEffectE
_ZTTN7android8hardware5audio6effect4V2_029BnHwEnvironmentalReverbEffectE
_ZTTN7android8hardware5audio6effect4V2_029BpHwEnvironmentalReverbEffectE
_ZTTN7android8hardware5audio6effect4V2_029IEffectBufferProviderCallbackE
_ZTTN7android8hardware5audio6effect4V2_030BnHwAcousticEchoCancelerEffectE
_ZTTN7android8hardware5audio6effect4V2_030BnHwAutomaticGainControlEffectE
_ZTTN7android8hardware5audio6effect4V2_030BpHwAcousticEchoCancelerEffectE
_ZTTN7android8hardware5audio6effect4V2_030BpHwAutomaticGainControlEffectE
_ZTTN7android8hardware5audio6effect4V2_032BnHwEffectBufferProviderCallbackE
_ZTTN7android8hardware5audio6effect4V2_032BpHwEffectBufferProviderCallbackE
_ZTTN7android8hardware5audio6effect4V2_07IEffectE
_ZTVN7android8hardware5audio6effect4V2_010BnHwEffectE
_ZTVN7android8hardware5audio6effect4V2_010BpHwEffectE
_ZTVN7android8hardware5audio6effect4V2_014IDownmixEffectE
_ZTVN7android8hardware5audio6effect4V2_015IEffectsFactoryE
_ZTVN7android8hardware5audio6effect4V2_016IBassBoostEffectE
_ZTVN7android8hardware5audio6effect4V2_016IEqualizerEffectE
_ZTVN7android8hardware5audio6effect4V2_017BnHwDownmixEffectE
_ZTVN7android8hardware5audio6effect4V2_017BpHwDownmixEffectE
_ZTVN7android8hardware5audio6effect4V2_017IVisualizerEffectE
_ZTVN7android8hardware5audio6effect4V2_018BnHwEffectsFactoryE
_ZTVN7android8hardware5audio6effect4V2_018BpHwEffectsFactoryE
_ZTVN7android8hardware5audio6effect4V2_018IVirtualizerEffectE
_ZTVN7android8hardware5audio6effect4V2_019BnHwBassBoostEffectE
_ZTVN7android8hardware5audio6effect4V2_019BnHwEqualizerEffectE
_ZTVN7android8hardware5audio6effect4V2_019BpHwBassBoostEffectE
_ZTVN7android8hardware5audio6effect4V2_019BpHwEqualizerEffectE
_ZTVN7android8hardware5audio6effect4V2_019IPresetReverbEffectE
_ZTVN7android8hardware5audio6effect4V2_020BnHwVisualizerEffectE
_ZTVN7android8hardware5audio6effect4V2_020BpHwVisualizerEffectE
_ZTVN7android8hardware5audio6effect4V2_021BnHwVirtualizerEffectE
_ZTVN7android8hardware5audio6effect4V2_021BpHwVirtualizerEffectE
_ZTVN7android8hardware5audio6effect4V2_022BnHwPresetReverbEffectE
_ZTVN7android8hardware5audio6effect4V2_022BpHwPresetReverbEffectE
_ZTVN7android8hardware5audio6effect4V2_023ILoudnessEnhancerEffectE
_ZTVN7android8hardware5audio6effect4V2_023INoiseSuppressionEffectE
_ZTVN7android8hardware5audio6effect4V2_026BnHwLoudnessEnhancerEffectE
_ZTVN7android8hardware5audio6effect4V2_026BnHwNoiseSuppressionEffectE
_ZTVN7android8hardware5audio6effect4V2_026BpHwLoudnessEnhancerEffectE
_ZTVN7android8hardware5audio6effect4V2_026BpHwNoiseSuppressionEffectE
_ZTVN7android8hardware5audio6effect4V2_026IEnvironmentalReverbEffectE
_ZTVN7android8hardware5audio6effect4V2_027IAcousticEchoCancelerEffectE
_ZTVN7android8hardware5audio6effect4V2_027IAutomaticGainControlEffectE
_ZTVN7android8hardware5audio6effect4V2_029BnHwEnvironmentalReverbEffectE
_ZTVN7android8hardware5audio6effect4V2_029BpHwEnvironmentalReverbEffectE
_ZTVN7android8hardware5audio6effect4V2_029IEffectBufferProviderCallbackE
_ZTVN7android8hardware5audio6effect4V2_030BnHwAcousticEchoCancelerEffectE
_ZTVN7android8hardware5audio6effect4V2_030BnHwAutomaticGainControlEffectE
_ZTVN7android8hardware5audio6effect4V2_030BpHwAcousticEchoCancelerEffectE
_ZTVN7android8hardware5audio6effect4V2_030BpHwAutomaticGainControlEffectE
_ZTVN7android8hardware5audio6effect4V2_032BnHwEffectBufferProviderCallbackE
_ZTVN7android8hardware5audio6effect4V2_032BpHwEffectBufferProviderCallbackE
_ZTVN7android8hardware5audio6effect4V2_07IEffectE
_ZThn32_N7android8hardware5audio6effect4V2_010BnHwEffectD0Ev
_ZThn32_N7android8hardware5audio6effect4V2_010BnHwEffectD1Ev
_ZThn32_N7android8hardware5audio6effect4V2_017BnHwDownmixEffectD0Ev
_ZThn32_N7android8hardware5audio6effect4V2_017BnHwDownmixEffectD1Ev
_ZThn32_N7android8hardware5audio6effect4V2_018BnHwEffectsFactoryD0Ev
_ZThn32_N7android8hardware5audio6effect4V2_018BnHwEffectsFactoryD1Ev
_ZThn32_N7android8hardware5audio6effect4V2_019BnHwBassBoostEffectD0Ev
_ZThn32_N7android8hardware5audio6effect4V2_019BnHwBassBoostEffectD1Ev
_ZThn32_N7android8hardware5audio6effect4V2_019BnHwEqualizerEffectD0Ev
_ZThn32_N7android8hardware5audio6effect4V2_019BnHwEqualizerEffectD1Ev
_ZThn32_N7android8hardware5audio6effect4V2_020BnHwVisualizerEffectD0Ev
_ZThn32_N7android8hardware5audio6effect4V2_020BnHwVisualizerEffectD1Ev
_ZThn32_N7android8hardware5audio6effect4V2_021BnHwVirtualizerEffectD0Ev
_ZThn32_N7android8hardware5audio6effect4V2_021BnHwVirtualizerEffectD1Ev
_ZThn32_N7android8hardware5audio6effect4V2_022BnHwPresetReverbEffectD0Ev
_ZThn32_N7android8hardware5audio6effect4V2_022BnHwPresetReverbEffectD1Ev
_ZThn32_N7android8hardware5audio6effect4V2_026BnHwLoudnessEnhancerEffectD0Ev
_ZThn32_N7android8hardware5audio6effect4V2_026BnHwLoudnessEnhancerEffectD1Ev
_ZThn32_N7android8hardware5audio6effect4V2_026BnHwNoiseSuppressionEffectD0Ev
_ZThn32_N7android8hardware5audio6effect4V2_026BnHwNoiseSuppressionEffectD1Ev
_ZThn32_N7android8hardware5audio6effect4V2_029BnHwEnvironmentalReverbEffectD0Ev
_ZThn32_N7android8hardware5audio6effect4V2_029BnHwEnvironmentalReverbEffectD1Ev
_ZThn32_N7android8hardware5audio6effect4V2_030BnHwAcousticEchoCancelerEffectD0Ev
_ZThn32_N7android8hardware5audio6effect4V2_030BnHwAcousticEchoCancelerEffectD1Ev
_ZThn32_N7android8hardware5audio6effect4V2_030BnHwAutomaticGainControlEffectD0Ev
_ZThn32_N7android8hardware5audio6effect4V2_030BnHwAutomaticGainControlEffectD1Ev
_ZThn32_N7android8hardware5audio6effect4V2_032BnHwEffectBufferProviderCallbackD0Ev
_ZThn32_N7android8hardware5audio6effect4V2_032BnHwEffectBufferProviderCallbackD1Ev
_ZTv0_n24_N7android8hardware5audio6effect4V2_010BnHwEffectD0Ev
_ZTv0_n24_N7android8hardware5audio6effect4V2_010BnHwEffectD1Ev
_ZTv0_n24_N7android8hardware5audio6effect4V2_017BnHwDownmixEffectD0Ev
_ZTv0_n24_N7android8hardware5audio6effect4V2_017BnHwDownmixEffectD1Ev
_ZTv0_n24_N7android8hardware5audio6effect4V2_018BnHwEffectsFactoryD0Ev
_ZTv0_n24_N7android8hardware5audio6effect4V2_018BnHwEffectsFactoryD1Ev
_ZTv0_n24_N7android8hardware5audio6effect4V2_019BnHwBassBoostEffectD0Ev
_ZTv0_n24_N7android8hardware5audio6effect4V2_019BnHwBassBoostEffectD1Ev
_ZTv0_n24_N7android8hardware5audio6effect4V2_019BnHwEqualizerEffectD0Ev
_ZTv0_n24_N7android8hardware5audio6effect4V2_019BnHwEqualizerEffectD1Ev
_ZTv0_n24_N7android8hardware5audio6effect4V2_020BnHwVisualizerEffectD0Ev
_ZTv0_n24_N7android8hardware5audio6effect4V2_020BnHwVisualizerEffectD1Ev
_ZTv0_n24_N7android8hardware5audio6effect4V2_021BnHwVirtualizerEffectD0Ev
_ZTv0_n24_N7android8hardware5audio6effect4V2_021BnHwVirtualizerEffectD1Ev
_ZTv0_n24_N7android8hardware5audio6effect4V2_022BnHwPresetReverbEffectD0Ev
_ZTv0_n24_N7android8hardware5audio6effect4V2_022BnHwPresetReverbEffectD1Ev
_ZTv0_n24_N7android8hardware5audio6effect4V2_026BnHwLoudnessEnhancerEffectD0Ev
_ZTv0_n24_N7android8hardware5audio6effect4V2_026BnHwLoudnessEnhancerEffectD1Ev
_ZTv0_n24_N7android8hardware5audio6effect4V2_026BnHwNoiseSuppressionEffectD0Ev
_ZTv0_n24_N7android8hardware5audio6effect4V2_026BnHwNoiseSuppressionEffectD1Ev
_ZTv0_n24_N7android8hardware5audio6effect4V2_029BnHwEnvironmentalReverbEffectD0Ev
_ZTv0_n24_N7android8hardware5audio6effect4V2_029BnHwEnvironmentalReverbEffectD1Ev
_ZTv0_n24_N7android8hardware5audio6effect4V2_030BnHwAcousticEchoCancelerEffectD0Ev
_ZTv0_n24_N7android8hardware5audio6effect4V2_030BnHwAcousticEchoCancelerEffectD1Ev
_ZTv0_n24_N7android8hardware5audio6effect4V2_030BnHwAutomaticGainControlEffectD0Ev
_ZTv0_n24_N7android8hardware5audio6effect4V2_030BnHwAutomaticGainControlEffectD1Ev
_ZTv0_n24_N7android8hardware5audio6effect4V2_032BnHwEffectBufferProviderCallbackD0Ev
_ZTv0_n24_N7android8hardware5audio6effect4V2_032BnHwEffectBufferProviderCallbackD1Ev
