_ZN7android8hardware5radio6config4V1_012IRadioConfig10descriptorE
_ZN7android8hardware5radio6config4V1_012IRadioConfig10getServiceERKNSt3__112basic_stringIcNS5_11char_traitsIcEENS5_9allocatorIcEEEEb
_ZN7android8hardware5radio6config4V1_012IRadioConfig11linkToDeathERKNS_2spINS0_20hidl_death_recipientEEEm
_ZN7android8hardware5radio6config4V1_012IRadioConfig12getDebugInfoENSt3__18functionIFvRKNS_4hidl4base4V1_09DebugInfoEEEE
_ZN7android8hardware5radio6config4V1_012IRadioConfig12getHashChainENSt3__18functionIFvRKNS0_8hidl_vecINS0_10hidl_arrayIhLm32EJEEEEEEEE
_ZN7android8hardware5radio6config4V1_012IRadioConfig13tryGetServiceERKNSt3__112basic_stringIcNS5_11char_traitsIcEENS5_9allocatorIcEEEEb
_ZN7android8hardware5radio6config4V1_012IRadioConfig13unlinkToDeathERKNS_2spINS0_20hidl_death_recipientEEE
_ZN7android8hardware5radio6config4V1_012IRadioConfig14interfaceChainENSt3__18functionIFvRKNS0_8hidl_vecINS0_11hidl_stringEEEEEE
_ZN7android8hardware5radio6config4V1_012IRadioConfig17registerAsServiceERKNSt3__112basic_stringIcNS5_11char_traitsIcEENS5_9allocatorIcEEEE
_ZN7android8hardware5radio6config4V1_012IRadioConfig19interfaceDescriptorENSt3__18functionIFvRKNS0_11hidl_stringEEEE
_ZN7android8hardware5radio6config4V1_012IRadioConfig21notifySyspropsChangedEv
_ZN7android8hardware5radio6config4V1_012IRadioConfig21setHALInstrumentationEv
_ZN7android8hardware5radio6config4V1_012IRadioConfig24registerForNotificationsERKNSt3__112basic_stringIcNS5_11char_traitsIcEENS5_9allocatorIcEEEERKNS_2spINS_4hidl7manager4V1_020IServiceNotificationEEE
_ZN7android8hardware5radio6config4V1_012IRadioConfig4pingEv
_ZN7android8hardware5radio6config4V1_012IRadioConfig5debugERKNS0_11hidl_handleERKNS0_8hidl_vecINS0_11hidl_stringEEE
_ZN7android8hardware5radio6config4V1_012IRadioConfig8castFromERKNS_2spINS_4hidl4base4V1_05IBaseEEEb
_ZN7android8hardware5radio6config4V1_012IRadioConfig8castFromERKNS_2spIS4_EEb
_ZN7android8hardware5radio6config4V1_013BsRadioConfig13addOnewayTaskENSt3__18functionIFvvEEE
_ZN7android8hardware5radio6config4V1_013BsRadioConfigC1ENS_2spINS3_12IRadioConfigEEE
_ZN7android8hardware5radio6config4V1_013BsRadioConfigC2ENS_2spINS3_12IRadioConfigEEE
_ZN7android8hardware5radio6config4V1_015BnHwRadioConfig10onTransactEjRKNS0_6ParcelEPS5_jNSt3__18functionIFvRS5_EEE
_ZN7android8hardware5radio6config4V1_015BnHwRadioConfig12getDebugInfoENSt3__18functionIFvRKNS_4hidl4base4V1_09DebugInfoEEEE
_ZN7android8hardware5radio6config4V1_015BnHwRadioConfig23_hidl_getSimSlotsStatusEPNS_4hidl4base4V1_08BnHwBaseERKNS0_6ParcelEPSA_NSt3__18functionIFvRSA_EEE
_ZN7android8hardware5radio6config4V1_015BnHwRadioConfig24_hidl_setSimSlotsMappingEPNS_4hidl4base4V1_08BnHwBaseERKNS0_6ParcelEPSA_NSt3__18functionIFvRSA_EEE
_ZN7android8hardware5radio6config4V1_015BnHwRadioConfig26_hidl_setResponseFunctionsEPNS_4hidl4base4V1_08BnHwBaseERKNS0_6ParcelEPSA_NSt3__18functionIFvRSA_EEE
_ZN7android8hardware5radio6config4V1_015BnHwRadioConfig4pingEv
_ZN7android8hardware5radio6config4V1_015BnHwRadioConfigC1ERKNS_2spINS3_12IRadioConfigEEE
_ZN7android8hardware5radio6config4V1_015BnHwRadioConfigC2ERKNS_2spINS3_12IRadioConfigEEE
_ZN7android8hardware5radio6config4V1_015BnHwRadioConfigD0Ev
_ZN7android8hardware5radio6config4V1_015BnHwRadioConfigD1Ev
_ZN7android8hardware5radio6config4V1_015BnHwRadioConfigD2Ev
_ZN7android8hardware5radio6config4V1_015BpHwRadioConfig11linkToDeathERKNS_2spINS0_20hidl_death_recipientEEEm
_ZN7android8hardware5radio6config4V1_015BpHwRadioConfig12getDebugInfoENSt3__18functionIFvRKNS_4hidl4base4V1_09DebugInfoEEEE
_ZN7android8hardware5radio6config4V1_015BpHwRadioConfig12getHashChainENSt3__18functionIFvRKNS0_8hidl_vecINS0_10hidl_arrayIhLm32EJEEEEEEEE
_ZN7android8hardware5radio6config4V1_015BpHwRadioConfig13unlinkToDeathERKNS_2spINS0_20hidl_death_recipientEEE
_ZN7android8hardware5radio6config4V1_015BpHwRadioConfig14interfaceChainENSt3__18functionIFvRKNS0_8hidl_vecINS0_11hidl_stringEEEEEE
_ZN7android8hardware5radio6config4V1_015BpHwRadioConfig17getSimSlotsStatusEi
_ZN7android8hardware5radio6config4V1_015BpHwRadioConfig18setSimSlotsMappingEiRKNS0_8hidl_vecIjEE
_ZN7android8hardware5radio6config4V1_015BpHwRadioConfig19interfaceDescriptorENSt3__18functionIFvRKNS0_11hidl_stringEEEE
_ZN7android8hardware5radio6config4V1_015BpHwRadioConfig20setResponseFunctionsERKNS_2spINS3_20IRadioConfigResponseEEERKNS5_INS3_22IRadioConfigIndicationEEE
_ZN7android8hardware5radio6config4V1_015BpHwRadioConfig21notifySyspropsChangedEv
_ZN7android8hardware5radio6config4V1_015BpHwRadioConfig21setHALInstrumentationEv
_ZN7android8hardware5radio6config4V1_015BpHwRadioConfig23_hidl_getSimSlotsStatusEPNS0_10IInterfaceEPNS0_7details16HidlInstrumentorEi
_ZN7android8hardware5radio6config4V1_015BpHwRadioConfig24_hidl_setSimSlotsMappingEPNS0_10IInterfaceEPNS0_7details16HidlInstrumentorEiRKNS0_8hidl_vecIjEE
_ZN7android8hardware5radio6config4V1_015BpHwRadioConfig26_hidl_setResponseFunctionsEPNS0_10IInterfaceEPNS0_7details16HidlInstrumentorERKNS_2spINS3_20IRadioConfigResponseEEERKNSA_INS3_22IRadioConfigIndicationEEE
_ZN7android8hardware5radio6config4V1_015BpHwRadioConfig4pingEv
_ZN7android8hardware5radio6config4V1_015BpHwRadioConfig5debugERKNS0_11hidl_handleERKNS0_8hidl_vecINS0_11hidl_stringEEE
_ZN7android8hardware5radio6config4V1_015BpHwRadioConfigC1ERKNS_2spINS0_7IBinderEEE
_ZN7android8hardware5radio6config4V1_015BpHwRadioConfigC2ERKNS_2spINS0_7IBinderEEE
_ZN7android8hardware5radio6config4V1_020IRadioConfigResponse10descriptorE
_ZN7android8hardware5radio6config4V1_020IRadioConfigResponse10getServiceERKNSt3__112basic_stringIcNS5_11char_traitsIcEENS5_9allocatorIcEEEEb
_ZN7android8hardware5radio6config4V1_020IRadioConfigResponse11linkToDeathERKNS_2spINS0_20hidl_death_recipientEEEm
_ZN7android8hardware5radio6config4V1_020IRadioConfigResponse12getDebugInfoENSt3__18functionIFvRKNS_4hidl4base4V1_09DebugInfoEEEE
_ZN7android8hardware5radio6config4V1_020IRadioConfigResponse12getHashChainENSt3__18functionIFvRKNS0_8hidl_vecINS0_10hidl_arrayIhLm32EJEEEEEEEE
_ZN7android8hardware5radio6config4V1_020IRadioConfigResponse13tryGetServiceERKNSt3__112basic_stringIcNS5_11char_traitsIcEENS5_9allocatorIcEEEEb
_ZN7android8hardware5radio6config4V1_020IRadioConfigResponse13unlinkToDeathERKNS_2spINS0_20hidl_death_recipientEEE
_ZN7android8hardware5radio6config4V1_020IRadioConfigResponse14interfaceChainENSt3__18functionIFvRKNS0_8hidl_vecINS0_11hidl_stringEEEEEE
_ZN7android8hardware5radio6config4V1_020IRadioConfigResponse17registerAsServiceERKNSt3__112basic_stringIcNS5_11char_traitsIcEENS5_9allocatorIcEEEE
_ZN7android8hardware5radio6config4V1_020IRadioConfigResponse19interfaceDescriptorENSt3__18functionIFvRKNS0_11hidl_stringEEEE
_ZN7android8hardware5radio6config4V1_020IRadioConfigResponse21notifySyspropsChangedEv
_ZN7android8hardware5radio6config4V1_020IRadioConfigResponse21setHALInstrumentationEv
_ZN7android8hardware5radio6config4V1_020IRadioConfigResponse24registerForNotificationsERKNSt3__112basic_stringIcNS5_11char_traitsIcEENS5_9allocatorIcEEEERKNS_2spINS_4hidl7manager4V1_020IServiceNotificationEEE
_ZN7android8hardware5radio6config4V1_020IRadioConfigResponse4pingEv
_ZN7android8hardware5radio6config4V1_020IRadioConfigResponse5debugERKNS0_11hidl_handleERKNS0_8hidl_vecINS0_11hidl_stringEEE
_ZN7android8hardware5radio6config4V1_020IRadioConfigResponse8castFromERKNS_2spINS_4hidl4base4V1_05IBaseEEEb
_ZN7android8hardware5radio6config4V1_020IRadioConfigResponse8castFromERKNS_2spIS4_EEb
_ZN7android8hardware5radio6config4V1_021BsRadioConfigResponse13addOnewayTaskENSt3__18functionIFvvEEE
_ZN7android8hardware5radio6config4V1_021BsRadioConfigResponseC1ENS_2spINS3_20IRadioConfigResponseEEE
_ZN7android8hardware5radio6config4V1_021BsRadioConfigResponseC2ENS_2spINS3_20IRadioConfigResponseEEE
_ZN7android8hardware5radio6config4V1_021writeEmbeddedToParcelERKNS3_13SimSlotStatusEPNS0_6ParcelEmm
_ZN7android8hardware5radio6config4V1_022IRadioConfigIndication10descriptorE
_ZN7android8hardware5radio6config4V1_022IRadioConfigIndication10getServiceERKNSt3__112basic_stringIcNS5_11char_traitsIcEENS5_9allocatorIcEEEEb
_ZN7android8hardware5radio6config4V1_022IRadioConfigIndication11linkToDeathERKNS_2spINS0_20hidl_death_recipientEEEm
_ZN7android8hardware5radio6config4V1_022IRadioConfigIndication12getDebugInfoENSt3__18functionIFvRKNS_4hidl4base4V1_09DebugInfoEEEE
_ZN7android8hardware5radio6config4V1_022IRadioConfigIndication12getHashChainENSt3__18functionIFvRKNS0_8hidl_vecINS0_10hidl_arrayIhLm32EJEEEEEEEE
_ZN7android8hardware5radio6config4V1_022IRadioConfigIndication13tryGetServiceERKNSt3__112basic_stringIcNS5_11char_traitsIcEENS5_9allocatorIcEEEEb
_ZN7android8hardware5radio6config4V1_022IRadioConfigIndication13unlinkToDeathERKNS_2spINS0_20hidl_death_recipientEEE
_ZN7android8hardware5radio6config4V1_022IRadioConfigIndication14interfaceChainENSt3__18functionIFvRKNS0_8hidl_vecINS0_11hidl_stringEEEEEE
_ZN7android8hardware5radio6config4V1_022IRadioConfigIndication17registerAsServiceERKNSt3__112basic_stringIcNS5_11char_traitsIcEENS5_9allocatorIcEEEE
_ZN7android8hardware5radio6config4V1_022IRadioConfigIndication19interfaceDescriptorENSt3__18functionIFvRKNS0_11hidl_stringEEEE
_ZN7android8hardware5radio6config4V1_022IRadioConfigIndication21notifySyspropsChangedEv
_ZN7android8hardware5radio6config4V1_022IRadioConfigIndication21setHALInstrumentationEv
_ZN7android8hardware5radio6config4V1_022IRadioConfigIndication24registerForNotificationsERKNSt3__112basic_stringIcNS5_11char_traitsIcEENS5_9allocatorIcEEEERKNS_2spINS_4hidl7manager4V1_020IServiceNotificationEEE
_ZN7android8hardware5radio6config4V1_022IRadioConfigIndication4pingEv
_ZN7android8hardware5radio6config4V1_022IRadioConfigIndication5debugERKNS0_11hidl_handleERKNS0_8hidl_vecINS0_11hidl_stringEEE
_ZN7android8hardware5radio6config4V1_022IRadioConfigIndication8castFromERKNS_2spINS_4hidl4base4V1_05IBaseEEEb
_ZN7android8hardware5radio6config4V1_022IRadioConfigIndication8castFromERKNS_2spIS4_EEb
_ZN7android8hardware5radio6config4V1_022readEmbeddedFromParcelERKNS3_13SimSlotStatusERKNS0_6ParcelEmm
_ZN7android8hardware5radio6config4V1_023BnHwRadioConfigResponse10onTransactEjRKNS0_6ParcelEPS5_jNSt3__18functionIFvRS5_EEE
_ZN7android8hardware5radio6config4V1_023BnHwRadioConfigResponse12getDebugInfoENSt3__18functionIFvRKNS_4hidl4base4V1_09DebugInfoEEEE
_ZN7android8hardware5radio6config4V1_023BnHwRadioConfigResponse31_hidl_getSimSlotsStatusResponseEPNS_4hidl4base4V1_08BnHwBaseERKNS0_6ParcelEPSA_NSt3__18functionIFvRSA_EEE
_ZN7android8hardware5radio6config4V1_023BnHwRadioConfigResponse32_hidl_setSimSlotsMappingResponseEPNS_4hidl4base4V1_08BnHwBaseERKNS0_6ParcelEPSA_NSt3__18functionIFvRSA_EEE
_ZN7android8hardware5radio6config4V1_023BnHwRadioConfigResponse4pingEv
_ZN7android8hardware5radio6config4V1_023BnHwRadioConfigResponseC1ERKNS_2spINS3_20IRadioConfigResponseEEE
_ZN7android8hardware5radio6config4V1_023BnHwRadioConfigResponseC2ERKNS_2spINS3_20IRadioConfigResponseEEE
_ZN7android8hardware5radio6config4V1_023BnHwRadioConfigResponseD0Ev
_ZN7android8hardware5radio6config4V1_023BnHwRadioConfigResponseD1Ev
_ZN7android8hardware5radio6config4V1_023BnHwRadioConfigResponseD2Ev
_ZN7android8hardware5radio6config4V1_023BpHwRadioConfigResponse11linkToDeathERKNS_2spINS0_20hidl_death_recipientEEEm
_ZN7android8hardware5radio6config4V1_023BpHwRadioConfigResponse12getDebugInfoENSt3__18functionIFvRKNS_4hidl4base4V1_09DebugInfoEEEE
_ZN7android8hardware5radio6config4V1_023BpHwRadioConfigResponse12getHashChainENSt3__18functionIFvRKNS0_8hidl_vecINS0_10hidl_arrayIhLm32EJEEEEEEEE
_ZN7android8hardware5radio6config4V1_023BpHwRadioConfigResponse13unlinkToDeathERKNS_2spINS0_20hidl_death_recipientEEE
_ZN7android8hardware5radio6config4V1_023BpHwRadioConfigResponse14interfaceChainENSt3__18functionIFvRKNS0_8hidl_vecINS0_11hidl_stringEEEEEE
_ZN7android8hardware5radio6config4V1_023BpHwRadioConfigResponse19interfaceDescriptorENSt3__18functionIFvRKNS0_11hidl_stringEEEE
_ZN7android8hardware5radio6config4V1_023BpHwRadioConfigResponse21notifySyspropsChangedEv
_ZN7android8hardware5radio6config4V1_023BpHwRadioConfigResponse21setHALInstrumentationEv
_ZN7android8hardware5radio6config4V1_023BpHwRadioConfigResponse25getSimSlotsStatusResponseERKNS1_4V1_017RadioResponseInfoERKNS0_8hidl_vecINS3_13SimSlotStatusEEE
_ZN7android8hardware5radio6config4V1_023BpHwRadioConfigResponse26setSimSlotsMappingResponseERKNS1_4V1_017RadioResponseInfoE
_ZN7android8hardware5radio6config4V1_023BpHwRadioConfigResponse31_hidl_getSimSlotsStatusResponseEPNS0_10IInterfaceEPNS0_7details16HidlInstrumentorERKNS1_4V1_017RadioResponseInfoERKNS0_8hidl_vecINS3_13SimSlotStatusEEE
_ZN7android8hardware5radio6config4V1_023BpHwRadioConfigResponse32_hidl_setSimSlotsMappingResponseEPNS0_10IInterfaceEPNS0_7details16HidlInstrumentorERKNS1_4V1_017RadioResponseInfoE
_ZN7android8hardware5radio6config4V1_023BpHwRadioConfigResponse4pingEv
_ZN7android8hardware5radio6config4V1_023BpHwRadioConfigResponse5debugERKNS0_11hidl_handleERKNS0_8hidl_vecINS0_11hidl_stringEEE
_ZN7android8hardware5radio6config4V1_023BpHwRadioConfigResponseC1ERKNS_2spINS0_7IBinderEEE
_ZN7android8hardware5radio6config4V1_023BpHwRadioConfigResponseC2ERKNS_2spINS0_7IBinderEEE
_ZN7android8hardware5radio6config4V1_023BsRadioConfigIndication13addOnewayTaskENSt3__18functionIFvvEEE
_ZN7android8hardware5radio6config4V1_023BsRadioConfigIndicationC1ENS_2spINS3_22IRadioConfigIndicationEEE
_ZN7android8hardware5radio6config4V1_023BsRadioConfigIndicationC2ENS_2spINS3_22IRadioConfigIndicationEEE
_ZN7android8hardware5radio6config4V1_025BnHwRadioConfigIndication10onTransactEjRKNS0_6ParcelEPS5_jNSt3__18functionIFvRS5_EEE
_ZN7android8hardware5radio6config4V1_025BnHwRadioConfigIndication12getDebugInfoENSt3__18functionIFvRKNS_4hidl4base4V1_09DebugInfoEEEE
_ZN7android8hardware5radio6config4V1_025BnHwRadioConfigIndication27_hidl_simSlotsStatusChangedEPNS_4hidl4base4V1_08BnHwBaseERKNS0_6ParcelEPSA_NSt3__18functionIFvRSA_EEE
_ZN7android8hardware5radio6config4V1_025BnHwRadioConfigIndication4pingEv
_ZN7android8hardware5radio6config4V1_025BnHwRadioConfigIndicationC1ERKNS_2spINS3_22IRadioConfigIndicationEEE
_ZN7android8hardware5radio6config4V1_025BnHwRadioConfigIndicationC2ERKNS_2spINS3_22IRadioConfigIndicationEEE
_ZN7android8hardware5radio6config4V1_025BnHwRadioConfigIndicationD0Ev
_ZN7android8hardware5radio6config4V1_025BnHwRadioConfigIndicationD1Ev
_ZN7android8hardware5radio6config4V1_025BnHwRadioConfigIndicationD2Ev
_ZN7android8hardware5radio6config4V1_025BpHwRadioConfigIndication11linkToDeathERKNS_2spINS0_20hidl_death_recipientEEEm
_ZN7android8hardware5radio6config4V1_025BpHwRadioConfigIndication12getDebugInfoENSt3__18functionIFvRKNS_4hidl4base4V1_09DebugInfoEEEE
_ZN7android8hardware5radio6config4V1_025BpHwRadioConfigIndication12getHashChainENSt3__18functionIFvRKNS0_8hidl_vecINS0_10hidl_arrayIhLm32EJEEEEEEEE
_ZN7android8hardware5radio6config4V1_025BpHwRadioConfigIndication13unlinkToDeathERKNS_2spINS0_20hidl_death_recipientEEE
_ZN7android8hardware5radio6config4V1_025BpHwRadioConfigIndication14interfaceChainENSt3__18functionIFvRKNS0_8hidl_vecINS0_11hidl_stringEEEEEE
_ZN7android8hardware5radio6config4V1_025BpHwRadioConfigIndication19interfaceDescriptorENSt3__18functionIFvRKNS0_11hidl_stringEEEE
_ZN7android8hardware5radio6config4V1_025BpHwRadioConfigIndication21notifySyspropsChangedEv
_ZN7android8hardware5radio6config4V1_025BpHwRadioConfigIndication21setHALInstrumentationEv
_ZN7android8hardware5radio6config4V1_025BpHwRadioConfigIndication21simSlotsStatusChangedENS1_4V1_019RadioIndicationTypeERKNS0_8hidl_vecINS3_13SimSlotStatusEEE
_ZN7android8hardware5radio6config4V1_025BpHwRadioConfigIndication27_hidl_simSlotsStatusChangedEPNS0_10IInterfaceEPNS0_7details16HidlInstrumentorENS1_4V1_019RadioIndicationTypeERKNS0_8hidl_vecINS3_13SimSlotStatusEEE
_ZN7android8hardware5radio6config4V1_025BpHwRadioConfigIndication4pingEv
_ZN7android8hardware5radio6config4V1_025BpHwRadioConfigIndication5debugERKNS0_11hidl_handleERKNS0_8hidl_vecINS0_11hidl_stringEEE
_ZN7android8hardware5radio6config4V1_025BpHwRadioConfigIndicationC1ERKNS_2spINS0_7IBinderEEE
_ZN7android8hardware5radio6config4V1_025BpHwRadioConfigIndicationC2ERKNS_2spINS0_7IBinderEEE
_ZTCN7android8hardware5radio6config4V1_012IRadioConfigE0_NS_4hidl4base4V1_05IBaseE
_ZTCN7android8hardware5radio6config4V1_015BnHwRadioConfigE0_NS0_7IBinderE
_ZTCN7android8hardware5radio6config4V1_015BnHwRadioConfigE0_NS0_9BHwBinderE
_ZTCN7android8hardware5radio6config4V1_015BnHwRadioConfigE0_NS_4hidl4base4V1_08BnHwBaseE
_ZTCN7android8hardware5radio6config4V1_015BpHwRadioConfigE0_NS0_11BpInterfaceINS3_12IRadioConfigEEE
_ZTCN7android8hardware5radio6config4V1_015BpHwRadioConfigE0_NS3_12IRadioConfigE
_ZTCN7android8hardware5radio6config4V1_015BpHwRadioConfigE0_NS_4hidl4base4V1_05IBaseE
_ZTCN7android8hardware5radio6config4V1_015BpHwRadioConfigE16_NS0_11BpHwRefBaseE
_ZTCN7android8hardware5radio6config4V1_015BpHwRadioConfigE8_NS0_10IInterfaceE
_ZTCN7android8hardware5radio6config4V1_020IRadioConfigResponseE0_NS_4hidl4base4V1_05IBaseE
_ZTCN7android8hardware5radio6config4V1_022IRadioConfigIndicationE0_NS_4hidl4base4V1_05IBaseE
_ZTCN7android8hardware5radio6config4V1_023BnHwRadioConfigResponseE0_NS0_7IBinderE
_ZTCN7android8hardware5radio6config4V1_023BnHwRadioConfigResponseE0_NS0_9BHwBinderE
_ZTCN7android8hardware5radio6config4V1_023BnHwRadioConfigResponseE0_NS_4hidl4base4V1_08BnHwBaseE
_ZTCN7android8hardware5radio6config4V1_023BpHwRadioConfigResponseE0_NS0_11BpInterfaceINS3_20IRadioConfigResponseEEE
_ZTCN7android8hardware5radio6config4V1_023BpHwRadioConfigResponseE0_NS3_20IRadioConfigResponseE
_ZTCN7android8hardware5radio6config4V1_023BpHwRadioConfigResponseE0_NS_4hidl4base4V1_05IBaseE
_ZTCN7android8hardware5radio6config4V1_023BpHwRadioConfigResponseE16_NS0_11BpHwRefBaseE
_ZTCN7android8hardware5radio6config4V1_023BpHwRadioConfigResponseE8_NS0_10IInterfaceE
_ZTCN7android8hardware5radio6config4V1_025BnHwRadioConfigIndicationE0_NS0_7IBinderE
_ZTCN7android8hardware5radio6config4V1_025BnHwRadioConfigIndicationE0_NS0_9BHwBinderE
_ZTCN7android8hardware5radio6config4V1_025BnHwRadioConfigIndicationE0_NS_4hidl4base4V1_08BnHwBaseE
_ZTCN7android8hardware5radio6config4V1_025BpHwRadioConfigIndicationE0_NS0_11BpInterfaceINS3_22IRadioConfigIndicationEEE
_ZTCN7android8hardware5radio6config4V1_025BpHwRadioConfigIndicationE0_NS3_22IRadioConfigIndicationE
_ZTCN7android8hardware5radio6config4V1_025BpHwRadioConfigIndicationE0_NS_4hidl4base4V1_05IBaseE
_ZTCN7android8hardware5radio6config4V1_025BpHwRadioConfigIndicationE16_NS0_11BpHwRefBaseE
_ZTCN7android8hardware5radio6config4V1_025BpHwRadioConfigIndicationE8_NS0_10IInterfaceE
_ZTTN7android8hardware5radio6config4V1_012IRadioConfigE
_ZTTN7android8hardware5radio6config4V1_015BnHwRadioConfigE
_ZTTN7android8hardware5radio6config4V1_015BpHwRadioConfigE
_ZTTN7android8hardware5radio6config4V1_020IRadioConfigResponseE
_ZTTN7android8hardware5radio6config4V1_022IRadioConfigIndicationE
_ZTTN7android8hardware5radio6config4V1_023BnHwRadioConfigResponseE
_ZTTN7android8hardware5radio6config4V1_023BpHwRadioConfigResponseE
_ZTTN7android8hardware5radio6config4V1_025BnHwRadioConfigIndicationE
_ZTTN7android8hardware5radio6config4V1_025BpHwRadioConfigIndicationE
_ZTVN7android8hardware5radio6config4V1_012IRadioConfigE
_ZTVN7android8hardware5radio6config4V1_015BnHwRadioConfigE
_ZTVN7android8hardware5radio6config4V1_015BpHwRadioConfigE
_ZTVN7android8hardware5radio6config4V1_020IRadioConfigResponseE
_ZTVN7android8hardware5radio6config4V1_022IRadioConfigIndicationE
_ZTVN7android8hardware5radio6config4V1_023BnHwRadioConfigResponseE
_ZTVN7android8hardware5radio6config4V1_023BpHwRadioConfigResponseE
_ZTVN7android8hardware5radio6config4V1_025BnHwRadioConfigIndicationE
_ZTVN7android8hardware5radio6config4V1_025BpHwRadioConfigIndicationE
_ZThn32_N7android8hardware5radio6config4V1_015BnHwRadioConfigD0Ev
_ZThn32_N7android8hardware5radio6config4V1_015BnHwRadioConfigD1Ev
_ZThn32_N7android8hardware5radio6config4V1_023BnHwRadioConfigResponseD0Ev
_ZThn32_N7android8hardware5radio6config4V1_023BnHwRadioConfigResponseD1Ev
_ZThn32_N7android8hardware5radio6config4V1_025BnHwRadioConfigIndicationD0Ev
_ZThn32_N7android8hardware5radio6config4V1_025BnHwRadioConfigIndicationD1Ev
_ZTv0_n24_N7android8hardware5radio6config4V1_015BnHwRadioConfigD0Ev
_ZTv0_n24_N7android8hardware5radio6config4V1_015BnHwRadioConfigD1Ev
_ZTv0_n24_N7android8hardware5radio6config4V1_023BnHwRadioConfigResponseD0Ev
_ZTv0_n24_N7android8hardware5radio6config4V1_023BnHwRadioConfigResponseD1Ev
_ZTv0_n24_N7android8hardware5radio6config4V1_025BnHwRadioConfigIndicationD0Ev
_ZTv0_n24_N7android8hardware5radio6config4V1_025BnHwRadioConfigIndicationD1Ev
