_ZN7android8hardware3drm4V1_110IDrmPlugin10descriptorE
_ZN7android8hardware3drm4V1_110IDrmPlugin10getServiceERKNSt3__112basic_stringIcNS4_11char_traitsIcEENS4_9allocatorIcEEEEb
_ZN7android8hardware3drm4V1_110IDrmPlugin11linkToDeathERKNS_2spINS0_20hidl_death_recipientEEEm
_ZN7android8hardware3drm4V1_110IDrmPlugin12getDebugInfoENSt3__18functionIFvRKNS_4hidl4base4V1_09DebugInfoEEEE
_ZN7android8hardware3drm4V1_110IDrmPlugin12getHashChainENSt3__18functionIFvRKNS0_8hidl_vecINS0_10hidl_arrayIhLm32EJEEEEEEEE
_ZN7android8hardware3drm4V1_110IDrmPlugin13tryGetServiceERKNSt3__112basic_stringIcNS4_11char_traitsIcEENS4_9allocatorIcEEEEb
_ZN7android8hardware3drm4V1_110IDrmPlugin13unlinkToDeathERKNS_2spINS0_20hidl_death_recipientEEE
_ZN7android8hardware3drm4V1_110IDrmPlugin14interfaceChainENSt3__18functionIFvRKNS0_8hidl_vecINS0_11hidl_stringEEEEEE
_ZN7android8hardware3drm4V1_110IDrmPlugin17registerAsServiceERKNSt3__112basic_stringIcNS4_11char_traitsIcEENS4_9allocatorIcEEEE
_ZN7android8hardware3drm4V1_110IDrmPlugin19interfaceDescriptorENSt3__18functionIFvRKNS0_11hidl_stringEEEE
_ZN7android8hardware3drm4V1_110IDrmPlugin21notifySyspropsChangedEv
_ZN7android8hardware3drm4V1_110IDrmPlugin21setHALInstrumentationEv
_ZN7android8hardware3drm4V1_110IDrmPlugin24registerForNotificationsERKNSt3__112basic_stringIcNS4_11char_traitsIcEENS4_9allocatorIcEEEERKNS_2spINS_4hidl7manager4V1_020IServiceNotificationEEE
_ZN7android8hardware3drm4V1_110IDrmPlugin4pingEv
_ZN7android8hardware3drm4V1_110IDrmPlugin5debugERKNS0_11hidl_handleERKNS0_8hidl_vecINS0_11hidl_stringEEE
_ZN7android8hardware3drm4V1_110IDrmPlugin8castFromERKNS_2spINS1_4V1_010IDrmPluginEEEb
_ZN7android8hardware3drm4V1_110IDrmPlugin8castFromERKNS_2spINS_4hidl4base4V1_05IBaseEEEb
_ZN7android8hardware3drm4V1_110IDrmPlugin8castFromERKNS_2spIS3_EEb
_ZN7android8hardware3drm4V1_111BsDrmPlugin13addOnewayTaskENSt3__18functionIFvvEEE
_ZN7android8hardware3drm4V1_111BsDrmPluginC1ENS_2spINS2_10IDrmPluginEEE
_ZN7android8hardware3drm4V1_111BsDrmPluginC2ENS_2spINS2_10IDrmPluginEEE
_ZN7android8hardware3drm4V1_111IDrmFactory10descriptorE
_ZN7android8hardware3drm4V1_111IDrmFactory10getServiceERKNSt3__112basic_stringIcNS4_11char_traitsIcEENS4_9allocatorIcEEEEb
_ZN7android8hardware3drm4V1_111IDrmFactory11linkToDeathERKNS_2spINS0_20hidl_death_recipientEEEm
_ZN7android8hardware3drm4V1_111IDrmFactory12getDebugInfoENSt3__18functionIFvRKNS_4hidl4base4V1_09DebugInfoEEEE
_ZN7android8hardware3drm4V1_111IDrmFactory12getHashChainENSt3__18functionIFvRKNS0_8hidl_vecINS0_10hidl_arrayIhLm32EJEEEEEEEE
_ZN7android8hardware3drm4V1_111IDrmFactory13tryGetServiceERKNSt3__112basic_stringIcNS4_11char_traitsIcEENS4_9allocatorIcEEEEb
_ZN7android8hardware3drm4V1_111IDrmFactory13unlinkToDeathERKNS_2spINS0_20hidl_death_recipientEEE
_ZN7android8hardware3drm4V1_111IDrmFactory14interfaceChainENSt3__18functionIFvRKNS0_8hidl_vecINS0_11hidl_stringEEEEEE
_ZN7android8hardware3drm4V1_111IDrmFactory17registerAsServiceERKNSt3__112basic_stringIcNS4_11char_traitsIcEENS4_9allocatorIcEEEE
_ZN7android8hardware3drm4V1_111IDrmFactory19interfaceDescriptorENSt3__18functionIFvRKNS0_11hidl_stringEEEE
_ZN7android8hardware3drm4V1_111IDrmFactory21notifySyspropsChangedEv
_ZN7android8hardware3drm4V1_111IDrmFactory21setHALInstrumentationEv
_ZN7android8hardware3drm4V1_111IDrmFactory24registerForNotificationsERKNSt3__112basic_stringIcNS4_11char_traitsIcEENS4_9allocatorIcEEEERKNS_2spINS_4hidl7manager4V1_020IServiceNotificationEEE
_ZN7android8hardware3drm4V1_111IDrmFactory4pingEv
_ZN7android8hardware3drm4V1_111IDrmFactory5debugERKNS0_11hidl_handleERKNS0_8hidl_vecINS0_11hidl_stringEEE
_ZN7android8hardware3drm4V1_111IDrmFactory8castFromERKNS_2spINS1_4V1_011IDrmFactoryEEEb
_ZN7android8hardware3drm4V1_111IDrmFactory8castFromERKNS_2spINS_4hidl4base4V1_05IBaseEEEb
_ZN7android8hardware3drm4V1_111IDrmFactory8castFromERKNS_2spIS3_EEb
_ZN7android8hardware3drm4V1_112BsDrmFactory13addOnewayTaskENSt3__18functionIFvvEEE
_ZN7android8hardware3drm4V1_112BsDrmFactoryC1ENS_2spINS2_11IDrmFactoryEEE
_ZN7android8hardware3drm4V1_112BsDrmFactoryC2ENS_2spINS2_11IDrmFactoryEEE
_ZN7android8hardware3drm4V1_113BnHwDrmPlugin10onTransactEjRKNS0_6ParcelEPS4_jNSt3__18functionIFvRS4_EEE
_ZN7android8hardware3drm4V1_113BnHwDrmPlugin12getDebugInfoENSt3__18functionIFvRKNS_4hidl4base4V1_09DebugInfoEEEE
_ZN7android8hardware3drm4V1_113BnHwDrmPlugin16_hidl_getMetricsEPNS_4hidl4base4V1_08BnHwBaseERKNS0_6ParcelEPS9_NSt3__18functionIFvRS9_EEE
_ZN7android8hardware3drm4V1_113BnHwDrmPlugin19_hidl_getHdcpLevelsEPNS_4hidl4base4V1_08BnHwBaseERKNS0_6ParcelEPS9_NSt3__18functionIFvRS9_EEE
_ZN7android8hardware3drm4V1_113BnHwDrmPlugin21_hidl_openSession_1_1EPNS_4hidl4base4V1_08BnHwBaseERKNS0_6ParcelEPS9_NSt3__18functionIFvRS9_EEE
_ZN7android8hardware3drm4V1_113BnHwDrmPlugin22_hidl_getSecureStopIdsEPNS_4hidl4base4V1_08BnHwBaseERKNS0_6ParcelEPS9_NSt3__18functionIFvRS9_EEE
_ZN7android8hardware3drm4V1_113BnHwDrmPlugin22_hidl_getSecurityLevelEPNS_4hidl4base4V1_08BnHwBaseERKNS0_6ParcelEPS9_NSt3__18functionIFvRS9_EEE
_ZN7android8hardware3drm4V1_113BnHwDrmPlugin22_hidl_removeSecureStopEPNS_4hidl4base4V1_08BnHwBaseERKNS0_6ParcelEPS9_NSt3__18functionIFvRS9_EEE
_ZN7android8hardware3drm4V1_113BnHwDrmPlugin23_hidl_getKeyRequest_1_1EPNS_4hidl4base4V1_08BnHwBaseERKNS0_6ParcelEPS9_NSt3__18functionIFvRS9_EEE
_ZN7android8hardware3drm4V1_113BnHwDrmPlugin24_hidl_releaseSecureStopsEPNS_4hidl4base4V1_08BnHwBaseERKNS0_6ParcelEPS9_NSt3__18functionIFvRS9_EEE
_ZN7android8hardware3drm4V1_113BnHwDrmPlugin25_hidl_getNumberOfSessionsEPNS_4hidl4base4V1_08BnHwBaseERKNS0_6ParcelEPS9_NSt3__18functionIFvRS9_EEE
_ZN7android8hardware3drm4V1_113BnHwDrmPlugin26_hidl_removeAllSecureStopsEPNS_4hidl4base4V1_08BnHwBaseERKNS0_6ParcelEPS9_NSt3__18functionIFvRS9_EEE
_ZN7android8hardware3drm4V1_113BnHwDrmPlugin4pingEv
_ZN7android8hardware3drm4V1_113BnHwDrmPluginC1ERKNS_2spINS2_10IDrmPluginEEE
_ZN7android8hardware3drm4V1_113BnHwDrmPluginC2ERKNS_2spINS2_10IDrmPluginEEE
_ZN7android8hardware3drm4V1_113BnHwDrmPluginD0Ev
_ZN7android8hardware3drm4V1_113BnHwDrmPluginD1Ev
_ZN7android8hardware3drm4V1_113BnHwDrmPluginD2Ev
_ZN7android8hardware3drm4V1_113BpHwDrmPlugin10getMetricsENSt3__18functionIFvNS1_4V1_06StatusERKNS0_8hidl_vecINS2_14DrmMetricGroupEEEEEE
_ZN7android8hardware3drm4V1_113BpHwDrmPlugin10removeKeysERKNS0_8hidl_vecIhEE
_ZN7android8hardware3drm4V1_113BpHwDrmPlugin11linkToDeathERKNS_2spINS0_20hidl_death_recipientEEEm
_ZN7android8hardware3drm4V1_113BpHwDrmPlugin11openSessionENSt3__18functionIFvNS1_4V1_06StatusERKNS0_8hidl_vecIhEEEEE
_ZN7android8hardware3drm4V1_113BpHwDrmPlugin11restoreKeysERKNS0_8hidl_vecIhEES7_
_ZN7android8hardware3drm4V1_113BpHwDrmPlugin11setListenerERKNS_2spINS1_4V1_018IDrmPluginListenerEEE
_ZN7android8hardware3drm4V1_113BpHwDrmPlugin12closeSessionERKNS0_8hidl_vecIhEE
_ZN7android8hardware3drm4V1_113BpHwDrmPlugin12getDebugInfoENSt3__18functionIFvRKNS_4hidl4base4V1_09DebugInfoEEEE
_ZN7android8hardware3drm4V1_113BpHwDrmPlugin12getHashChainENSt3__18functionIFvRKNS0_8hidl_vecINS0_10hidl_arrayIhLm32EJEEEEEEEE
_ZN7android8hardware3drm4V1_113BpHwDrmPlugin13getHdcpLevelsENSt3__18functionIFvNS1_4V1_06StatusENS2_9HdcpLevelES8_EEE
_ZN7android8hardware3drm4V1_113BpHwDrmPlugin13getKeyRequestERKNS0_8hidl_vecIhEES7_RKNS0_11hidl_stringENS1_4V1_07KeyTypeERKNS4_INSB_8KeyValueEEENSt3__18functionIFvNSB_6StatusES7_NSB_14KeyRequestTypeESA_EEE
_ZN7android8hardware3drm4V1_113BpHwDrmPlugin13getSecureStopERKNS0_8hidl_vecIhEENSt3__18functionIFvNS1_4V1_06StatusERKNSA_10SecureStopEEEE
_ZN7android8hardware3drm4V1_113BpHwDrmPlugin13unlinkToDeathERKNS_2spINS0_20hidl_death_recipientEEE
_ZN7android8hardware3drm4V1_113BpHwDrmPlugin14getSecureStopsENSt3__18functionIFvNS1_4V1_06StatusERKNS0_8hidl_vecINS6_10SecureStopEEEEEE
_ZN7android8hardware3drm4V1_113BpHwDrmPlugin14interfaceChainENSt3__18functionIFvRKNS0_8hidl_vecINS0_11hidl_stringEEEEEE
_ZN7android8hardware3drm4V1_113BpHwDrmPlugin14queryKeyStatusERKNS0_8hidl_vecIhEENSt3__18functionIFvNS1_4V1_06StatusERKNS4_INSA_8KeyValueEEEEEE
_ZN7android8hardware3drm4V1_113BpHwDrmPlugin14sendKeysChangeERKNS0_8hidl_vecIhEERKNS4_INS1_4V1_09KeyStatusEEEb
_ZN7android8hardware3drm4V1_113BpHwDrmPlugin15openSession_1_1ENS2_13SecurityLevelENSt3__18functionIFvNS1_4V1_06StatusERKNS0_8hidl_vecIhEEEEE
_ZN7android8hardware3drm4V1_113BpHwDrmPlugin15setMacAlgorithmERKNS0_8hidl_vecIhEERKNS0_11hidl_stringE
_ZN7android8hardware3drm4V1_113BpHwDrmPlugin16_hidl_getMetricsEPNS0_10IInterfaceEPNS0_7details16HidlInstrumentorENSt3__18functionIFvNS1_4V1_06StatusERKNS0_8hidl_vecINS2_14DrmMetricGroupEEEEEE
_ZN7android8hardware3drm4V1_113BpHwDrmPlugin16getSecureStopIdsENSt3__18functionIFvNS1_4V1_06StatusERKNS0_8hidl_vecINS8_IhEEEEEEE
_ZN7android8hardware3drm4V1_113BpHwDrmPlugin16getSecurityLevelERKNS0_8hidl_vecIhEENSt3__18functionIFvNS1_4V1_06StatusENS2_13SecurityLevelEEEE
_ZN7android8hardware3drm4V1_113BpHwDrmPlugin16removeSecureStopERKNS0_8hidl_vecIhEE
_ZN7android8hardware3drm4V1_113BpHwDrmPlugin17getKeyRequest_1_1ERKNS0_8hidl_vecIhEES7_RKNS0_11hidl_stringENS1_4V1_07KeyTypeERKNS4_INSB_8KeyValueEEENSt3__18functionIFvNSB_6StatusES7_NS2_14KeyRequestTypeESA_EEE
_ZN7android8hardware3drm4V1_113BpHwDrmPlugin17getPropertyStringERKNS0_11hidl_stringENSt3__18functionIFvNS1_4V1_06StatusES6_EEE
_ZN7android8hardware3drm4V1_113BpHwDrmPlugin17releaseSecureStopERKNS0_8hidl_vecIhEE
_ZN7android8hardware3drm4V1_113BpHwDrmPlugin17setPropertyStringERKNS0_11hidl_stringES6_
_ZN7android8hardware3drm4V1_113BpHwDrmPlugin18provideKeyResponseERKNS0_8hidl_vecIhEES7_NSt3__18functionIFvNS1_4V1_06StatusES7_EEE
_ZN7android8hardware3drm4V1_113BpHwDrmPlugin18releaseSecureStopsERKNS2_17SecureStopReleaseE
_ZN7android8hardware3drm4V1_113BpHwDrmPlugin18setCipherAlgorithmERKNS0_8hidl_vecIhEERKNS0_11hidl_stringE
_ZN7android8hardware3drm4V1_113BpHwDrmPlugin19_hidl_getHdcpLevelsEPNS0_10IInterfaceEPNS0_7details16HidlInstrumentorENSt3__18functionIFvNS1_4V1_06StatusENS2_9HdcpLevelESD_EEE
_ZN7android8hardware3drm4V1_113BpHwDrmPlugin19getNumberOfSessionsENSt3__18functionIFvNS1_4V1_06StatusEjjEEE
_ZN7android8hardware3drm4V1_113BpHwDrmPlugin19getProvisionRequestERKNS0_11hidl_stringES6_NSt3__18functionIFvNS1_4V1_06StatusERKNS0_8hidl_vecIhEES6_EEE
_ZN7android8hardware3drm4V1_113BpHwDrmPlugin19interfaceDescriptorENSt3__18functionIFvRKNS0_11hidl_stringEEEE
_ZN7android8hardware3drm4V1_113BpHwDrmPlugin20getPropertyByteArrayERKNS0_11hidl_stringENSt3__18functionIFvNS1_4V1_06StatusERKNS0_8hidl_vecIhEEEEE
_ZN7android8hardware3drm4V1_113BpHwDrmPlugin20removeAllSecureStopsEv
_ZN7android8hardware3drm4V1_113BpHwDrmPlugin20sendExpirationUpdateERKNS0_8hidl_vecIhEEl
_ZN7android8hardware3drm4V1_113BpHwDrmPlugin20setPropertyByteArrayERKNS0_11hidl_stringERKNS0_8hidl_vecIhEE
_ZN7android8hardware3drm4V1_113BpHwDrmPlugin21_hidl_openSession_1_1EPNS0_10IInterfaceEPNS0_7details16HidlInstrumentorENS2_13SecurityLevelENSt3__18functionIFvNS1_4V1_06StatusERKNS0_8hidl_vecIhEEEEE
_ZN7android8hardware3drm4V1_113BpHwDrmPlugin21notifySyspropsChangedEv
_ZN7android8hardware3drm4V1_113BpHwDrmPlugin21releaseAllSecureStopsEv
_ZN7android8hardware3drm4V1_113BpHwDrmPlugin21setHALInstrumentationEv
_ZN7android8hardware3drm4V1_113BpHwDrmPlugin22_hidl_getSecureStopIdsEPNS0_10IInterfaceEPNS0_7details16HidlInstrumentorENSt3__18functionIFvNS1_4V1_06StatusERKNS0_8hidl_vecINSD_IhEEEEEEE
_ZN7android8hardware3drm4V1_113BpHwDrmPlugin22_hidl_getSecurityLevelEPNS0_10IInterfaceEPNS0_7details16HidlInstrumentorERKNS0_8hidl_vecIhEENSt3__18functionIFvNS1_4V1_06StatusENS2_13SecurityLevelEEEE
_ZN7android8hardware3drm4V1_113BpHwDrmPlugin22_hidl_removeSecureStopEPNS0_10IInterfaceEPNS0_7details16HidlInstrumentorERKNS0_8hidl_vecIhEE
_ZN7android8hardware3drm4V1_113BpHwDrmPlugin23_hidl_getKeyRequest_1_1EPNS0_10IInterfaceEPNS0_7details16HidlInstrumentorERKNS0_8hidl_vecIhEESC_RKNS0_11hidl_stringENS1_4V1_07KeyTypeERKNS9_INSG_8KeyValueEEENSt3__18functionIFvNSG_6StatusESC_NS2_14KeyRequestTypeESF_EEE
_ZN7android8hardware3drm4V1_113BpHwDrmPlugin24_hidl_releaseSecureStopsEPNS0_10IInterfaceEPNS0_7details16HidlInstrumentorERKNS2_17SecureStopReleaseE
_ZN7android8hardware3drm4V1_113BpHwDrmPlugin24provideProvisionResponseERKNS0_8hidl_vecIhEENSt3__18functionIFvNS1_4V1_06StatusES7_S7_EEE
_ZN7android8hardware3drm4V1_113BpHwDrmPlugin25_hidl_getNumberOfSessionsEPNS0_10IInterfaceEPNS0_7details16HidlInstrumentorENSt3__18functionIFvNS1_4V1_06StatusEjjEEE
_ZN7android8hardware3drm4V1_113BpHwDrmPlugin26_hidl_removeAllSecureStopsEPNS0_10IInterfaceEPNS0_7details16HidlInstrumentorE
_ZN7android8hardware3drm4V1_113BpHwDrmPlugin4pingEv
_ZN7android8hardware3drm4V1_113BpHwDrmPlugin4signERKNS0_8hidl_vecIhEES7_S7_NSt3__18functionIFvNS1_4V1_06StatusES7_EEE
_ZN7android8hardware3drm4V1_113BpHwDrmPlugin5debugERKNS0_11hidl_handleERKNS0_8hidl_vecINS0_11hidl_stringEEE
_ZN7android8hardware3drm4V1_113BpHwDrmPlugin6verifyERKNS0_8hidl_vecIhEES7_S7_S7_NSt3__18functionIFvNS1_4V1_06StatusEbEEE
_ZN7android8hardware3drm4V1_113BpHwDrmPlugin7decryptERKNS0_8hidl_vecIhEES7_S7_S7_NSt3__18functionIFvNS1_4V1_06StatusES7_EEE
_ZN7android8hardware3drm4V1_113BpHwDrmPlugin7encryptERKNS0_8hidl_vecIhEES7_S7_S7_NSt3__18functionIFvNS1_4V1_06StatusES7_EEE
_ZN7android8hardware3drm4V1_113BpHwDrmPlugin7signRSAERKNS0_8hidl_vecIhEERKNS0_11hidl_stringES7_S7_NSt3__18functionIFvNS1_4V1_06StatusES7_EEE
_ZN7android8hardware3drm4V1_113BpHwDrmPlugin9sendEventENS1_4V1_09EventTypeERKNS0_8hidl_vecIhEES9_
_ZN7android8hardware3drm4V1_113BpHwDrmPluginC1ERKNS_2spINS0_7IBinderEEE
_ZN7android8hardware3drm4V1_113BpHwDrmPluginC2ERKNS_2spINS0_7IBinderEEE
_ZN7android8hardware3drm4V1_114BnHwDrmFactory10onTransactEjRKNS0_6ParcelEPS4_jNSt3__18functionIFvRS4_EEE
_ZN7android8hardware3drm4V1_114BnHwDrmFactory12getDebugInfoENSt3__18functionIFvRKNS_4hidl4base4V1_09DebugInfoEEEE
_ZN7android8hardware3drm4V1_114BnHwDrmFactory4pingEv
_ZN7android8hardware3drm4V1_114BnHwDrmFactoryC1ERKNS_2spINS2_11IDrmFactoryEEE
_ZN7android8hardware3drm4V1_114BnHwDrmFactoryC2ERKNS_2spINS2_11IDrmFactoryEEE
_ZN7android8hardware3drm4V1_114BnHwDrmFactoryD0Ev
_ZN7android8hardware3drm4V1_114BnHwDrmFactoryD1Ev
_ZN7android8hardware3drm4V1_114BnHwDrmFactoryD2Ev
_ZN7android8hardware3drm4V1_114BpHwDrmFactory11linkToDeathERKNS_2spINS0_20hidl_death_recipientEEEm
_ZN7android8hardware3drm4V1_114BpHwDrmFactory12createPluginERKNS0_10hidl_arrayIhLm16EJEEERKNS0_11hidl_stringENSt3__18functionIFvNS1_4V1_06StatusERKNS_2spINSD_10IDrmPluginEEEEEE
_ZN7android8hardware3drm4V1_114BpHwDrmFactory12getDebugInfoENSt3__18functionIFvRKNS_4hidl4base4V1_09DebugInfoEEEE
_ZN7android8hardware3drm4V1_114BpHwDrmFactory12getHashChainENSt3__18functionIFvRKNS0_8hidl_vecINS0_10hidl_arrayIhLm32EJEEEEEEEE
_ZN7android8hardware3drm4V1_114BpHwDrmFactory13unlinkToDeathERKNS_2spINS0_20hidl_death_recipientEEE
_ZN7android8hardware3drm4V1_114BpHwDrmFactory14interfaceChainENSt3__18functionIFvRKNS0_8hidl_vecINS0_11hidl_stringEEEEEE
_ZN7android8hardware3drm4V1_114BpHwDrmFactory19interfaceDescriptorENSt3__18functionIFvRKNS0_11hidl_stringEEEE
_ZN7android8hardware3drm4V1_114BpHwDrmFactory21notifySyspropsChangedEv
_ZN7android8hardware3drm4V1_114BpHwDrmFactory21setHALInstrumentationEv
_ZN7android8hardware3drm4V1_114BpHwDrmFactory22isContentTypeSupportedERKNS0_11hidl_stringE
_ZN7android8hardware3drm4V1_114BpHwDrmFactory23isCryptoSchemeSupportedERKNS0_10hidl_arrayIhLm16EJEEE
_ZN7android8hardware3drm4V1_114BpHwDrmFactory4pingEv
_ZN7android8hardware3drm4V1_114BpHwDrmFactory5debugERKNS0_11hidl_handleERKNS0_8hidl_vecINS0_11hidl_stringEEE
_ZN7android8hardware3drm4V1_114BpHwDrmFactoryC1ERKNS_2spINS0_7IBinderEEE
_ZN7android8hardware3drm4V1_114BpHwDrmFactoryC2ERKNS_2spINS0_7IBinderEEE
_ZN7android8hardware3drm4V1_114ICryptoFactory10descriptorE
_ZN7android8hardware3drm4V1_114ICryptoFactory10getServiceERKNSt3__112basic_stringIcNS4_11char_traitsIcEENS4_9allocatorIcEEEEb
_ZN7android8hardware3drm4V1_114ICryptoFactory11linkToDeathERKNS_2spINS0_20hidl_death_recipientEEEm
_ZN7android8hardware3drm4V1_114ICryptoFactory12getDebugInfoENSt3__18functionIFvRKNS_4hidl4base4V1_09DebugInfoEEEE
_ZN7android8hardware3drm4V1_114ICryptoFactory12getHashChainENSt3__18functionIFvRKNS0_8hidl_vecINS0_10hidl_arrayIhLm32EJEEEEEEEE
_ZN7android8hardware3drm4V1_114ICryptoFactory13tryGetServiceERKNSt3__112basic_stringIcNS4_11char_traitsIcEENS4_9allocatorIcEEEEb
_ZN7android8hardware3drm4V1_114ICryptoFactory13unlinkToDeathERKNS_2spINS0_20hidl_death_recipientEEE
_ZN7android8hardware3drm4V1_114ICryptoFactory14interfaceChainENSt3__18functionIFvRKNS0_8hidl_vecINS0_11hidl_stringEEEEEE
_ZN7android8hardware3drm4V1_114ICryptoFactory17registerAsServiceERKNSt3__112basic_stringIcNS4_11char_traitsIcEENS4_9allocatorIcEEEE
_ZN7android8hardware3drm4V1_114ICryptoFactory19interfaceDescriptorENSt3__18functionIFvRKNS0_11hidl_stringEEEE
_ZN7android8hardware3drm4V1_114ICryptoFactory21notifySyspropsChangedEv
_ZN7android8hardware3drm4V1_114ICryptoFactory21setHALInstrumentationEv
_ZN7android8hardware3drm4V1_114ICryptoFactory24registerForNotificationsERKNSt3__112basic_stringIcNS4_11char_traitsIcEENS4_9allocatorIcEEEERKNS_2spINS_4hidl7manager4V1_020IServiceNotificationEEE
_ZN7android8hardware3drm4V1_114ICryptoFactory4pingEv
_ZN7android8hardware3drm4V1_114ICryptoFactory5debugERKNS0_11hidl_handleERKNS0_8hidl_vecINS0_11hidl_stringEEE
_ZN7android8hardware3drm4V1_114ICryptoFactory8castFromERKNS_2spINS1_4V1_014ICryptoFactoryEEEb
_ZN7android8hardware3drm4V1_114ICryptoFactory8castFromERKNS_2spINS_4hidl4base4V1_05IBaseEEEb
_ZN7android8hardware3drm4V1_114ICryptoFactory8castFromERKNS_2spIS3_EEb
_ZN7android8hardware3drm4V1_115BsCryptoFactory13addOnewayTaskENSt3__18functionIFvvEEE
_ZN7android8hardware3drm4V1_115BsCryptoFactoryC1ENS_2spINS2_14ICryptoFactoryEEE
_ZN7android8hardware3drm4V1_115BsCryptoFactoryC2ENS_2spINS2_14ICryptoFactoryEEE
_ZN7android8hardware3drm4V1_117BnHwCryptoFactory10onTransactEjRKNS0_6ParcelEPS4_jNSt3__18functionIFvRS4_EEE
_ZN7android8hardware3drm4V1_117BnHwCryptoFactory12getDebugInfoENSt3__18functionIFvRKNS_4hidl4base4V1_09DebugInfoEEEE
_ZN7android8hardware3drm4V1_117BnHwCryptoFactory4pingEv
_ZN7android8hardware3drm4V1_117BnHwCryptoFactoryC1ERKNS_2spINS2_14ICryptoFactoryEEE
_ZN7android8hardware3drm4V1_117BnHwCryptoFactoryC2ERKNS_2spINS2_14ICryptoFactoryEEE
_ZN7android8hardware3drm4V1_117BnHwCryptoFactoryD0Ev
_ZN7android8hardware3drm4V1_117BnHwCryptoFactoryD1Ev
_ZN7android8hardware3drm4V1_117BnHwCryptoFactoryD2Ev
_ZN7android8hardware3drm4V1_117BpHwCryptoFactory11linkToDeathERKNS_2spINS0_20hidl_death_recipientEEEm
_ZN7android8hardware3drm4V1_117BpHwCryptoFactory12createPluginERKNS0_10hidl_arrayIhLm16EJEEERKNS0_8hidl_vecIhEENSt3__18functionIFvNS1_4V1_06StatusERKNS_2spINSE_13ICryptoPluginEEEEEE
_ZN7android8hardware3drm4V1_117BpHwCryptoFactory12getDebugInfoENSt3__18functionIFvRKNS_4hidl4base4V1_09DebugInfoEEEE
_ZN7android8hardware3drm4V1_117BpHwCryptoFactory12getHashChainENSt3__18functionIFvRKNS0_8hidl_vecINS0_10hidl_arrayIhLm32EJEEEEEEEE
_ZN7android8hardware3drm4V1_117BpHwCryptoFactory13unlinkToDeathERKNS_2spINS0_20hidl_death_recipientEEE
_ZN7android8hardware3drm4V1_117BpHwCryptoFactory14interfaceChainENSt3__18functionIFvRKNS0_8hidl_vecINS0_11hidl_stringEEEEEE
_ZN7android8hardware3drm4V1_117BpHwCryptoFactory19interfaceDescriptorENSt3__18functionIFvRKNS0_11hidl_stringEEEE
_ZN7android8hardware3drm4V1_117BpHwCryptoFactory21notifySyspropsChangedEv
_ZN7android8hardware3drm4V1_117BpHwCryptoFactory21setHALInstrumentationEv
_ZN7android8hardware3drm4V1_117BpHwCryptoFactory23isCryptoSchemeSupportedERKNS0_10hidl_arrayIhLm16EJEEE
_ZN7android8hardware3drm4V1_117BpHwCryptoFactory4pingEv
_ZN7android8hardware3drm4V1_117BpHwCryptoFactory5debugERKNS0_11hidl_handleERKNS0_8hidl_vecINS0_11hidl_stringEEE
_ZN7android8hardware3drm4V1_117BpHwCryptoFactoryC1ERKNS_2spINS0_7IBinderEEE
_ZN7android8hardware3drm4V1_117BpHwCryptoFactoryC2ERKNS_2spINS0_7IBinderEEE
_ZN7android8hardware3drm4V1_121writeEmbeddedToParcelERKNS2_14DrmMetricGroup5ValueEPNS0_6ParcelEmm
_ZN7android8hardware3drm4V1_121writeEmbeddedToParcelERKNS2_14DrmMetricGroup6MetricEPNS0_6ParcelEmm
_ZN7android8hardware3drm4V1_121writeEmbeddedToParcelERKNS2_14DrmMetricGroup9AttributeEPNS0_6ParcelEmm
_ZN7android8hardware3drm4V1_121writeEmbeddedToParcelERKNS2_14DrmMetricGroupEPNS0_6ParcelEmm
_ZN7android8hardware3drm4V1_121writeEmbeddedToParcelERKNS2_17SecureStopReleaseEPNS0_6ParcelEmm
_ZN7android8hardware3drm4V1_122readEmbeddedFromParcelERKNS2_14DrmMetricGroup5ValueERKNS0_6ParcelEmm
_ZN7android8hardware3drm4V1_122readEmbeddedFromParcelERKNS2_14DrmMetricGroup6MetricERKNS0_6ParcelEmm
_ZN7android8hardware3drm4V1_122readEmbeddedFromParcelERKNS2_14DrmMetricGroup9AttributeERKNS0_6ParcelEmm
_ZN7android8hardware3drm4V1_122readEmbeddedFromParcelERKNS2_14DrmMetricGroupERKNS0_6ParcelEmm
_ZN7android8hardware3drm4V1_122readEmbeddedFromParcelERKNS2_17SecureStopReleaseERKNS0_6ParcelEmm
_ZTCN7android8hardware3drm4V1_110IDrmPluginE0_NS1_4V1_010IDrmPluginE
_ZTCN7android8hardware3drm4V1_110IDrmPluginE0_NS_4hidl4base4V1_05IBaseE
_ZTCN7android8hardware3drm4V1_111IDrmFactoryE0_NS1_4V1_011IDrmFactoryE
_ZTCN7android8hardware3drm4V1_111IDrmFactoryE0_NS_4hidl4base4V1_05IBaseE
_ZTCN7android8hardware3drm4V1_113BnHwDrmPluginE0_NS0_7IBinderE
_ZTCN7android8hardware3drm4V1_113BnHwDrmPluginE0_NS0_9BHwBinderE
_ZTCN7android8hardware3drm4V1_113BnHwDrmPluginE0_NS_4hidl4base4V1_08BnHwBaseE
_ZTCN7android8hardware3drm4V1_113BpHwDrmPluginE0_NS0_11BpInterfaceINS2_10IDrmPluginEEE
_ZTCN7android8hardware3drm4V1_113BpHwDrmPluginE0_NS1_4V1_010IDrmPluginE
_ZTCN7android8hardware3drm4V1_113BpHwDrmPluginE0_NS2_10IDrmPluginE
_ZTCN7android8hardware3drm4V1_113BpHwDrmPluginE0_NS_4hidl4base4V1_05IBaseE
_ZTCN7android8hardware3drm4V1_113BpHwDrmPluginE16_NS0_11BpHwRefBaseE
_ZTCN7android8hardware3drm4V1_113BpHwDrmPluginE8_NS0_10IInterfaceE
_ZTCN7android8hardware3drm4V1_114BnHwDrmFactoryE0_NS0_7IBinderE
_ZTCN7android8hardware3drm4V1_114BnHwDrmFactoryE0_NS0_9BHwBinderE
_ZTCN7android8hardware3drm4V1_114BnHwDrmFactoryE0_NS_4hidl4base4V1_08BnHwBaseE
_ZTCN7android8hardware3drm4V1_114BpHwDrmFactoryE0_NS0_11BpInterfaceINS2_11IDrmFactoryEEE
_ZTCN7android8hardware3drm4V1_114BpHwDrmFactoryE0_NS1_4V1_011IDrmFactoryE
_ZTCN7android8hardware3drm4V1_114BpHwDrmFactoryE0_NS2_11IDrmFactoryE
_ZTCN7android8hardware3drm4V1_114BpHwDrmFactoryE0_NS_4hidl4base4V1_05IBaseE
_ZTCN7android8hardware3drm4V1_114BpHwDrmFactoryE16_NS0_11BpHwRefBaseE
_ZTCN7android8hardware3drm4V1_114BpHwDrmFactoryE8_NS0_10IInterfaceE
_ZTCN7android8hardware3drm4V1_114ICryptoFactoryE0_NS1_4V1_014ICryptoFactoryE
_ZTCN7android8hardware3drm4V1_114ICryptoFactoryE0_NS_4hidl4base4V1_05IBaseE
_ZTCN7android8hardware3drm4V1_117BnHwCryptoFactoryE0_NS0_7IBinderE
_ZTCN7android8hardware3drm4V1_117BnHwCryptoFactoryE0_NS0_9BHwBinderE
_ZTCN7android8hardware3drm4V1_117BnHwCryptoFactoryE0_NS_4hidl4base4V1_08BnHwBaseE
_ZTCN7android8hardware3drm4V1_117BpHwCryptoFactoryE0_NS0_11BpInterfaceINS2_14ICryptoFactoryEEE
_ZTCN7android8hardware3drm4V1_117BpHwCryptoFactoryE0_NS1_4V1_014ICryptoFactoryE
_ZTCN7android8hardware3drm4V1_117BpHwCryptoFactoryE0_NS2_14ICryptoFactoryE
_ZTCN7android8hardware3drm4V1_117BpHwCryptoFactoryE0_NS_4hidl4base4V1_05IBaseE
_ZTCN7android8hardware3drm4V1_117BpHwCryptoFactoryE16_NS0_11BpHwRefBaseE
_ZTCN7android8hardware3drm4V1_117BpHwCryptoFactoryE8_NS0_10IInterfaceE
_ZTTN7android8hardware3drm4V1_110IDrmPluginE
_ZTTN7android8hardware3drm4V1_111IDrmFactoryE
_ZTTN7android8hardware3drm4V1_113BnHwDrmPluginE
_ZTTN7android8hardware3drm4V1_113BpHwDrmPluginE
_ZTTN7android8hardware3drm4V1_114BnHwDrmFactoryE
_ZTTN7android8hardware3drm4V1_114BpHwDrmFactoryE
_ZTTN7android8hardware3drm4V1_114ICryptoFactoryE
_ZTTN7android8hardware3drm4V1_117BnHwCryptoFactoryE
_ZTTN7android8hardware3drm4V1_117BpHwCryptoFactoryE
_ZTVN7android8hardware3drm4V1_110IDrmPluginE
_ZTVN7android8hardware3drm4V1_111IDrmFactoryE
_ZTVN7android8hardware3drm4V1_113BnHwDrmPluginE
_ZTVN7android8hardware3drm4V1_113BpHwDrmPluginE
_ZTVN7android8hardware3drm4V1_114BnHwDrmFactoryE
_ZTVN7android8hardware3drm4V1_114BpHwDrmFactoryE
_ZTVN7android8hardware3drm4V1_114ICryptoFactoryE
_ZTVN7android8hardware3drm4V1_117BnHwCryptoFactoryE
_ZTVN7android8hardware3drm4V1_117BpHwCryptoFactoryE
_ZThn32_N7android8hardware3drm4V1_113BnHwDrmPluginD0Ev
_ZThn32_N7android8hardware3drm4V1_113BnHwDrmPluginD1Ev
_ZThn32_N7android8hardware3drm4V1_114BnHwDrmFactoryD0Ev
_ZThn32_N7android8hardware3drm4V1_114BnHwDrmFactoryD1Ev
_ZThn32_N7android8hardware3drm4V1_117BnHwCryptoFactoryD0Ev
_ZThn32_N7android8hardware3drm4V1_117BnHwCryptoFactoryD1Ev
_ZTv0_n24_N7android8hardware3drm4V1_113BnHwDrmPluginD0Ev
_ZTv0_n24_N7android8hardware3drm4V1_113BnHwDrmPluginD1Ev
_ZTv0_n24_N7android8hardware3drm4V1_114BnHwDrmFactoryD0Ev
_ZTv0_n24_N7android8hardware3drm4V1_114BnHwDrmFactoryD1Ev
_ZTv0_n24_N7android8hardware3drm4V1_117BnHwCryptoFactoryD0Ev
_ZTv0_n24_N7android8hardware3drm4V1_117BnHwCryptoFactoryD1Ev
