_ZN7android8hardware4wifi4V1_110BsWifiChip13addOnewayTaskENSt3__18functionIFvvEEE
_ZN7android8hardware4wifi4V1_110BsWifiChipC1ENS_2spINS2_9IWifiChipEEE
_ZN7android8hardware4wifi4V1_110BsWifiChipC2ENS_2spINS2_9IWifiChipEEE
_ZN7android8hardware4wifi4V1_112BnHwWifiChip10onTransactEjRKNS0_6ParcelEPS4_jNSt3__18functionIFvRS4_EEE
_ZN7android8hardware4wifi4V1_112BnHwWifiChip12getDebugInfoENSt3__18functionIFvRKNS_4hidl4base4V1_09DebugInfoEEEE
_ZN7android8hardware4wifi4V1_112BnHwWifiChip26_hidl_resetTxPowerScenarioEPNS_4hidl4base4V1_08BnHwBaseERKNS0_6ParcelEPS9_NSt3__18functionIFvRS9_EEE
_ZN7android8hardware4wifi4V1_112BnHwWifiChip27_hidl_selectTxPowerScenarioEPNS_4hidl4base4V1_08BnHwBaseERKNS0_6ParcelEPS9_NSt3__18functionIFvRS9_EEE
_ZN7android8hardware4wifi4V1_112BnHwWifiChip4pingEv
_ZN7android8hardware4wifi4V1_112BnHwWifiChipC1ERKNS_2spINS2_9IWifiChipEEE
_ZN7android8hardware4wifi4V1_112BnHwWifiChipC2ERKNS_2spINS2_9IWifiChipEEE
_ZN7android8hardware4wifi4V1_112BnHwWifiChipD0Ev
_ZN7android8hardware4wifi4V1_112BnHwWifiChipD1Ev
_ZN7android8hardware4wifi4V1_112BnHwWifiChipD2Ev
_ZN7android8hardware4wifi4V1_112BpHwWifiChip10getApIfaceERKNS0_11hidl_stringENSt3__18functionIFvRKNS1_4V1_010WifiStatusERKNS_2spINS9_12IWifiApIfaceEEEEEE
_ZN7android8hardware4wifi4V1_112BpHwWifiChip11getNanIfaceERKNS0_11hidl_stringENSt3__18functionIFvRKNS1_4V1_010WifiStatusERKNS_2spINS9_13IWifiNanIfaceEEEEEE
_ZN7android8hardware4wifi4V1_112BpHwWifiChip11getP2pIfaceERKNS0_11hidl_stringENSt3__18functionIFvRKNS1_4V1_010WifiStatusERKNS_2spINS9_13IWifiP2pIfaceEEEEEE
_ZN7android8hardware4wifi4V1_112BpHwWifiChip11getStaIfaceERKNS0_11hidl_stringENSt3__18functionIFvRKNS1_4V1_010WifiStatusERKNS_2spINS9_13IWifiStaIfaceEEEEEE
_ZN7android8hardware4wifi4V1_112BpHwWifiChip11linkToDeathERKNS_2spINS0_20hidl_death_recipientEEEm
_ZN7android8hardware4wifi4V1_112BpHwWifiChip12getDebugInfoENSt3__18functionIFvRKNS_4hidl4base4V1_09DebugInfoEEEE
_ZN7android8hardware4wifi4V1_112BpHwWifiChip12getHashChainENSt3__18functionIFvRKNS0_8hidl_vecINS0_10hidl_arrayIhLm32EJEEEEEEEE
_ZN7android8hardware4wifi4V1_112BpHwWifiChip13configureChipEjNSt3__18functionIFvRKNS1_4V1_010WifiStatusEEEE
_ZN7android8hardware4wifi4V1_112BpHwWifiChip13createApIfaceENSt3__18functionIFvRKNS1_4V1_010WifiStatusERKNS_2spINS6_12IWifiApIfaceEEEEEE
_ZN7android8hardware4wifi4V1_112BpHwWifiChip13removeApIfaceERKNS0_11hidl_stringENSt3__18functionIFvRKNS1_4V1_010WifiStatusEEEE
_ZN7android8hardware4wifi4V1_112BpHwWifiChip13unlinkToDeathERKNS_2spINS0_20hidl_death_recipientEEE
_ZN7android8hardware4wifi4V1_112BpHwWifiChip14createNanIfaceENSt3__18functionIFvRKNS1_4V1_010WifiStatusERKNS_2spINS6_13IWifiNanIfaceEEEEEE
_ZN7android8hardware4wifi4V1_112BpHwWifiChip14createP2pIfaceENSt3__18functionIFvRKNS1_4V1_010WifiStatusERKNS_2spINS6_13IWifiP2pIfaceEEEEEE
_ZN7android8hardware4wifi4V1_112BpHwWifiChip14createStaIfaceENSt3__18functionIFvRKNS1_4V1_010WifiStatusERKNS_2spINS6_13IWifiStaIfaceEEEEEE
_ZN7android8hardware4wifi4V1_112BpHwWifiChip14interfaceChainENSt3__18functionIFvRKNS0_8hidl_vecINS0_11hidl_stringEEEEEE
_ZN7android8hardware4wifi4V1_112BpHwWifiChip14removeNanIfaceERKNS0_11hidl_stringENSt3__18functionIFvRKNS1_4V1_010WifiStatusEEEE
_ZN7android8hardware4wifi4V1_112BpHwWifiChip14removeP2pIfaceERKNS0_11hidl_stringENSt3__18functionIFvRKNS1_4V1_010WifiStatusEEEE
_ZN7android8hardware4wifi4V1_112BpHwWifiChip14removeStaIfaceERKNS0_11hidl_stringENSt3__18functionIFvRKNS1_4V1_010WifiStatusEEEE
_ZN7android8hardware4wifi4V1_112BpHwWifiChip15getApIfaceNamesENSt3__18functionIFvRKNS1_4V1_010WifiStatusERKNS0_8hidl_vecINS0_11hidl_stringEEEEEE
_ZN7android8hardware4wifi4V1_112BpHwWifiChip15getCapabilitiesENSt3__18functionIFvRKNS1_4V1_010WifiStatusEjEEE
_ZN7android8hardware4wifi4V1_112BpHwWifiChip16getNanIfaceNamesENSt3__18functionIFvRKNS1_4V1_010WifiStatusERKNS0_8hidl_vecINS0_11hidl_stringEEEEEE
_ZN7android8hardware4wifi4V1_112BpHwWifiChip16getP2pIfaceNamesENSt3__18functionIFvRKNS1_4V1_010WifiStatusERKNS0_8hidl_vecINS0_11hidl_stringEEEEEE
_ZN7android8hardware4wifi4V1_112BpHwWifiChip16getStaIfaceNamesENSt3__18functionIFvRKNS1_4V1_010WifiStatusERKNS0_8hidl_vecINS0_11hidl_stringEEEEEE
_ZN7android8hardware4wifi4V1_112BpHwWifiChip17getAvailableModesENSt3__18functionIFvRKNS1_4V1_010WifiStatusERKNS0_8hidl_vecINS6_9IWifiChip8ChipModeEEEEEE
_ZN7android8hardware4wifi4V1_112BpHwWifiChip19createRttControllerERKNS_2spINS1_4V1_010IWifiIfaceEEENSt3__18functionIFvRKNS5_10WifiStatusERKNS4_INS5_18IWifiRttControllerEEEEEE
_ZN7android8hardware4wifi4V1_112BpHwWifiChip19interfaceDescriptorENSt3__18functionIFvRKNS0_11hidl_stringEEEE
_ZN7android8hardware4wifi4V1_112BpHwWifiChip20requestChipDebugInfoENSt3__18functionIFvRKNS1_4V1_010WifiStatusERKNS6_9IWifiChip13ChipDebugInfoEEEE
_ZN7android8hardware4wifi4V1_112BpHwWifiChip20resetTxPowerScenarioENSt3__18functionIFvRKNS1_4V1_010WifiStatusEEEE
_ZN7android8hardware4wifi4V1_112BpHwWifiChip21notifySyspropsChangedEv
_ZN7android8hardware4wifi4V1_112BpHwWifiChip21registerEventCallbackERKNS_2spINS1_4V1_022IWifiChipEventCallbackEEENSt3__18functionIFvRKNS5_10WifiStatusEEEE
_ZN7android8hardware4wifi4V1_112BpHwWifiChip21selectTxPowerScenarioENS2_9IWifiChip15TxPowerScenarioENSt3__18functionIFvRKNS1_4V1_010WifiStatusEEEE
_ZN7android8hardware4wifi4V1_112BpHwWifiChip21setHALInstrumentationEv
_ZN7android8hardware4wifi4V1_112BpHwWifiChip22enableDebugErrorAlertsEbNSt3__18functionIFvRKNS1_4V1_010WifiStatusEEEE
_ZN7android8hardware4wifi4V1_112BpHwWifiChip22requestDriverDebugDumpENSt3__18functionIFvRKNS1_4V1_010WifiStatusERKNS0_8hidl_vecIhEEEEE
_ZN7android8hardware4wifi4V1_112BpHwWifiChip24requestFirmwareDebugDumpENSt3__18functionIFvRKNS1_4V1_010WifiStatusERKNS0_8hidl_vecIhEEEEE
_ZN7android8hardware4wifi4V1_112BpHwWifiChip25getDebugRingBuffersStatusENSt3__18functionIFvRKNS1_4V1_010WifiStatusERKNS0_8hidl_vecINS6_25WifiDebugRingBufferStatusEEEEEE
_ZN7android8hardware4wifi4V1_112BpHwWifiChip26_hidl_resetTxPowerScenarioEPNS0_10IInterfaceEPNS0_7details16HidlInstrumentorENSt3__18functionIFvRKNS1_4V1_010WifiStatusEEEE
_ZN7android8hardware4wifi4V1_112BpHwWifiChip26forceDumpToDebugRingBufferERKNS0_11hidl_stringENSt3__18functionIFvRKNS1_4V1_010WifiStatusEEEE
_ZN7android8hardware4wifi4V1_112BpHwWifiChip27_hidl_selectTxPowerScenarioEPNS0_10IInterfaceEPNS0_7details16HidlInstrumentorENS2_9IWifiChip15TxPowerScenarioENSt3__18functionIFvRKNS1_4V1_010WifiStatusEEEE
_ZN7android8hardware4wifi4V1_112BpHwWifiChip27getDebugHostWakeReasonStatsENSt3__18functionIFvRKNS1_4V1_010WifiStatusERKNS6_28WifiDebugHostWakeReasonStatsEEEE
_ZN7android8hardware4wifi4V1_112BpHwWifiChip28stopLoggingToDebugRingBufferENSt3__18functionIFvRKNS1_4V1_010WifiStatusEEEE
_ZN7android8hardware4wifi4V1_112BpHwWifiChip29startLoggingToDebugRingBufferERKNS0_11hidl_stringENS1_4V1_031WifiDebugRingBufferVerboseLevelEjjNSt3__18functionIFvRKNS7_10WifiStatusEEEE
_ZN7android8hardware4wifi4V1_112BpHwWifiChip4pingEv
_ZN7android8hardware4wifi4V1_112BpHwWifiChip5debugERKNS0_11hidl_handleERKNS0_8hidl_vecINS0_11hidl_stringEEE
_ZN7android8hardware4wifi4V1_112BpHwWifiChip5getIdENSt3__18functionIFvRKNS1_4V1_010WifiStatusEjEEE
_ZN7android8hardware4wifi4V1_112BpHwWifiChip7getModeENSt3__18functionIFvRKNS1_4V1_010WifiStatusEjEEE
_ZN7android8hardware4wifi4V1_112BpHwWifiChipC1ERKNS_2spINS0_7IBinderEEE
_ZN7android8hardware4wifi4V1_112BpHwWifiChipC2ERKNS_2spINS0_7IBinderEEE
_ZN7android8hardware4wifi4V1_15IWifi10descriptorE
_ZN7android8hardware4wifi4V1_15IWifi10getServiceERKNSt3__112basic_stringIcNS4_11char_traitsIcEENS4_9allocatorIcEEEEb
_ZN7android8hardware4wifi4V1_15IWifi11linkToDeathERKNS_2spINS0_20hidl_death_recipientEEEm
_ZN7android8hardware4wifi4V1_15IWifi12getDebugInfoENSt3__18functionIFvRKNS_4hidl4base4V1_09DebugInfoEEEE
_ZN7android8hardware4wifi4V1_15IWifi12getHashChainENSt3__18functionIFvRKNS0_8hidl_vecINS0_10hidl_arrayIhLm32EJEEEEEEEE
_ZN7android8hardware4wifi4V1_15IWifi13tryGetServiceERKNSt3__112basic_stringIcNS4_11char_traitsIcEENS4_9allocatorIcEEEEb
_ZN7android8hardware4wifi4V1_15IWifi13unlinkToDeathERKNS_2spINS0_20hidl_death_recipientEEE
_ZN7android8hardware4wifi4V1_15IWifi14interfaceChainENSt3__18functionIFvRKNS0_8hidl_vecINS0_11hidl_stringEEEEEE
_ZN7android8hardware4wifi4V1_15IWifi17registerAsServiceERKNSt3__112basic_stringIcNS4_11char_traitsIcEENS4_9allocatorIcEEEE
_ZN7android8hardware4wifi4V1_15IWifi19interfaceDescriptorENSt3__18functionIFvRKNS0_11hidl_stringEEEE
_ZN7android8hardware4wifi4V1_15IWifi21notifySyspropsChangedEv
_ZN7android8hardware4wifi4V1_15IWifi21setHALInstrumentationEv
_ZN7android8hardware4wifi4V1_15IWifi24registerForNotificationsERKNSt3__112basic_stringIcNS4_11char_traitsIcEENS4_9allocatorIcEEEERKNS_2spINS_4hidl7manager4V1_020IServiceNotificationEEE
_ZN7android8hardware4wifi4V1_15IWifi4pingEv
_ZN7android8hardware4wifi4V1_15IWifi5debugERKNS0_11hidl_handleERKNS0_8hidl_vecINS0_11hidl_stringEEE
_ZN7android8hardware4wifi4V1_15IWifi8castFromERKNS_2spINS1_4V1_05IWifiEEEb
_ZN7android8hardware4wifi4V1_15IWifi8castFromERKNS_2spINS_4hidl4base4V1_05IBaseEEEb
_ZN7android8hardware4wifi4V1_15IWifi8castFromERKNS_2spIS3_EEb
_ZN7android8hardware4wifi4V1_16BsWifi13addOnewayTaskENSt3__18functionIFvvEEE
_ZN7android8hardware4wifi4V1_16BsWifiC1ENS_2spINS2_5IWifiEEE
_ZN7android8hardware4wifi4V1_16BsWifiC2ENS_2spINS2_5IWifiEEE
_ZN7android8hardware4wifi4V1_18BnHwWifi10onTransactEjRKNS0_6ParcelEPS4_jNSt3__18functionIFvRS4_EEE
_ZN7android8hardware4wifi4V1_18BnHwWifi12getDebugInfoENSt3__18functionIFvRKNS_4hidl4base4V1_09DebugInfoEEEE
_ZN7android8hardware4wifi4V1_18BnHwWifi4pingEv
_ZN7android8hardware4wifi4V1_18BnHwWifiC1ERKNS_2spINS2_5IWifiEEE
_ZN7android8hardware4wifi4V1_18BnHwWifiC2ERKNS_2spINS2_5IWifiEEE
_ZN7android8hardware4wifi4V1_18BnHwWifiD0Ev
_ZN7android8hardware4wifi4V1_18BnHwWifiD1Ev
_ZN7android8hardware4wifi4V1_18BnHwWifiD2Ev
_ZN7android8hardware4wifi4V1_18BpHwWifi10getChipIdsENSt3__18functionIFvRKNS1_4V1_010WifiStatusERKNS0_8hidl_vecIjEEEEE
_ZN7android8hardware4wifi4V1_18BpHwWifi11linkToDeathERKNS_2spINS0_20hidl_death_recipientEEEm
_ZN7android8hardware4wifi4V1_18BpHwWifi12getDebugInfoENSt3__18functionIFvRKNS_4hidl4base4V1_09DebugInfoEEEE
_ZN7android8hardware4wifi4V1_18BpHwWifi12getHashChainENSt3__18functionIFvRKNS0_8hidl_vecINS0_10hidl_arrayIhLm32EJEEEEEEEE
_ZN7android8hardware4wifi4V1_18BpHwWifi13unlinkToDeathERKNS_2spINS0_20hidl_death_recipientEEE
_ZN7android8hardware4wifi4V1_18BpHwWifi14interfaceChainENSt3__18functionIFvRKNS0_8hidl_vecINS0_11hidl_stringEEEEEE
_ZN7android8hardware4wifi4V1_18BpHwWifi19interfaceDescriptorENSt3__18functionIFvRKNS0_11hidl_stringEEEE
_ZN7android8hardware4wifi4V1_18BpHwWifi21notifySyspropsChangedEv
_ZN7android8hardware4wifi4V1_18BpHwWifi21registerEventCallbackERKNS_2spINS1_4V1_018IWifiEventCallbackEEENSt3__18functionIFvRKNS5_10WifiStatusEEEE
_ZN7android8hardware4wifi4V1_18BpHwWifi21setHALInstrumentationEv
_ZN7android8hardware4wifi4V1_18BpHwWifi4pingEv
_ZN7android8hardware4wifi4V1_18BpHwWifi4stopENSt3__18functionIFvRKNS1_4V1_010WifiStatusEEEE
_ZN7android8hardware4wifi4V1_18BpHwWifi5debugERKNS0_11hidl_handleERKNS0_8hidl_vecINS0_11hidl_stringEEE
_ZN7android8hardware4wifi4V1_18BpHwWifi5startENSt3__18functionIFvRKNS1_4V1_010WifiStatusEEEE
_ZN7android8hardware4wifi4V1_18BpHwWifi7getChipEjNSt3__18functionIFvRKNS1_4V1_010WifiStatusERKNS_2spINS6_9IWifiChipEEEEEE
_ZN7android8hardware4wifi4V1_18BpHwWifi9isStartedEv
_ZN7android8hardware4wifi4V1_18BpHwWifiC1ERKNS_2spINS0_7IBinderEEE
_ZN7android8hardware4wifi4V1_18BpHwWifiC2ERKNS_2spINS0_7IBinderEEE
_ZN7android8hardware4wifi4V1_19IWifiChip10descriptorE
_ZN7android8hardware4wifi4V1_19IWifiChip10getServiceERKNSt3__112basic_stringIcNS4_11char_traitsIcEENS4_9allocatorIcEEEEb
_ZN7android8hardware4wifi4V1_19IWifiChip11linkToDeathERKNS_2spINS0_20hidl_death_recipientEEEm
_ZN7android8hardware4wifi4V1_19IWifiChip12getDebugInfoENSt3__18functionIFvRKNS_4hidl4base4V1_09DebugInfoEEEE
_ZN7android8hardware4wifi4V1_19IWifiChip12getHashChainENSt3__18functionIFvRKNS0_8hidl_vecINS0_10hidl_arrayIhLm32EJEEEEEEEE
_ZN7android8hardware4wifi4V1_19IWifiChip13tryGetServiceERKNSt3__112basic_stringIcNS4_11char_traitsIcEENS4_9allocatorIcEEEEb
_ZN7android8hardware4wifi4V1_19IWifiChip13unlinkToDeathERKNS_2spINS0_20hidl_death_recipientEEE
_ZN7android8hardware4wifi4V1_19IWifiChip14interfaceChainENSt3__18functionIFvRKNS0_8hidl_vecINS0_11hidl_stringEEEEEE
_ZN7android8hardware4wifi4V1_19IWifiChip17registerAsServiceERKNSt3__112basic_stringIcNS4_11char_traitsIcEENS4_9allocatorIcEEEE
_ZN7android8hardware4wifi4V1_19IWifiChip19interfaceDescriptorENSt3__18functionIFvRKNS0_11hidl_stringEEEE
_ZN7android8hardware4wifi4V1_19IWifiChip21notifySyspropsChangedEv
_ZN7android8hardware4wifi4V1_19IWifiChip21setHALInstrumentationEv
_ZN7android8hardware4wifi4V1_19IWifiChip24registerForNotificationsERKNSt3__112basic_stringIcNS4_11char_traitsIcEENS4_9allocatorIcEEEERKNS_2spINS_4hidl7manager4V1_020IServiceNotificationEEE
_ZN7android8hardware4wifi4V1_19IWifiChip4pingEv
_ZN7android8hardware4wifi4V1_19IWifiChip5debugERKNS0_11hidl_handleERKNS0_8hidl_vecINS0_11hidl_stringEEE
_ZN7android8hardware4wifi4V1_19IWifiChip8castFromERKNS_2spINS1_4V1_09IWifiChipEEEb
_ZN7android8hardware4wifi4V1_19IWifiChip8castFromERKNS_2spINS_4hidl4base4V1_05IBaseEEEb
_ZN7android8hardware4wifi4V1_19IWifiChip8castFromERKNS_2spIS3_EEb
_ZTCN7android8hardware4wifi4V1_112BnHwWifiChipE0_NS0_7IBinderE
_ZTCN7android8hardware4wifi4V1_112BnHwWifiChipE0_NS0_9BHwBinderE
_ZTCN7android8hardware4wifi4V1_112BnHwWifiChipE0_NS_4hidl4base4V1_08BnHwBaseE
_ZTCN7android8hardware4wifi4V1_112BpHwWifiChipE0_NS0_11BpInterfaceINS2_9IWifiChipEEE
_ZTCN7android8hardware4wifi4V1_112BpHwWifiChipE0_NS1_4V1_09IWifiChipE
_ZTCN7android8hardware4wifi4V1_112BpHwWifiChipE0_NS2_9IWifiChipE
_ZTCN7android8hardware4wifi4V1_112BpHwWifiChipE0_NS_4hidl4base4V1_05IBaseE
_ZTCN7android8hardware4wifi4V1_112BpHwWifiChipE16_NS0_11BpHwRefBaseE
_ZTCN7android8hardware4wifi4V1_112BpHwWifiChipE8_NS0_10IInterfaceE
_ZTCN7android8hardware4wifi4V1_15IWifiE0_NS1_4V1_05IWifiE
_ZTCN7android8hardware4wifi4V1_15IWifiE0_NS_4hidl4base4V1_05IBaseE
_ZTCN7android8hardware4wifi4V1_18BnHwWifiE0_NS0_7IBinderE
_ZTCN7android8hardware4wifi4V1_18BnHwWifiE0_NS0_9BHwBinderE
_ZTCN7android8hardware4wifi4V1_18BnHwWifiE0_NS_4hidl4base4V1_08BnHwBaseE
_ZTCN7android8hardware4wifi4V1_18BpHwWifiE0_NS0_11BpInterfaceINS2_5IWifiEEE
_ZTCN7android8hardware4wifi4V1_18BpHwWifiE0_NS1_4V1_05IWifiE
_ZTCN7android8hardware4wifi4V1_18BpHwWifiE0_NS2_5IWifiE
_ZTCN7android8hardware4wifi4V1_18BpHwWifiE0_NS_4hidl4base4V1_05IBaseE
_ZTCN7android8hardware4wifi4V1_18BpHwWifiE16_NS0_11BpHwRefBaseE
_ZTCN7android8hardware4wifi4V1_18BpHwWifiE8_NS0_10IInterfaceE
_ZTCN7android8hardware4wifi4V1_19IWifiChipE0_NS1_4V1_09IWifiChipE
_ZTCN7android8hardware4wifi4V1_19IWifiChipE0_NS_4hidl4base4V1_05IBaseE
_ZTTN7android8hardware4wifi4V1_112BnHwWifiChipE
_ZTTN7android8hardware4wifi4V1_112BpHwWifiChipE
_ZTTN7android8hardware4wifi4V1_15IWifiE
_ZTTN7android8hardware4wifi4V1_18BnHwWifiE
_ZTTN7android8hardware4wifi4V1_18BpHwWifiE
_ZTTN7android8hardware4wifi4V1_19IWifiChipE
_ZTVN7android8hardware4wifi4V1_112BnHwWifiChipE
_ZTVN7android8hardware4wifi4V1_112BpHwWifiChipE
_ZTVN7android8hardware4wifi4V1_15IWifiE
_ZTVN7android8hardware4wifi4V1_18BnHwWifiE
_ZTVN7android8hardware4wifi4V1_18BpHwWifiE
_ZTVN7android8hardware4wifi4V1_19IWifiChipE
_ZThn32_N7android8hardware4wifi4V1_112BnHwWifiChipD0Ev
_ZThn32_N7android8hardware4wifi4V1_112BnHwWifiChipD1Ev
_ZThn32_N7android8hardware4wifi4V1_18BnHwWifiD0Ev
_ZThn32_N7android8hardware4wifi4V1_18BnHwWifiD1Ev
_ZTv0_n24_N7android8hardware4wifi4V1_112BnHwWifiChipD0Ev
_ZTv0_n24_N7android8hardware4wifi4V1_112BnHwWifiChipD1Ev
_ZTv0_n24_N7android8hardware4wifi4V1_18BnHwWifiD0Ev
_ZTv0_n24_N7android8hardware4wifi4V1_18BnHwWifiD1Ev
