_ZN7android8hardware4wifi7offload4V1_011BnHwOffload10onTransactEjRKNS0_6ParcelEPS5_jNSt3__18functionIFvRS5_EEE
_ZN7android8hardware4wifi7offload4V1_011BnHwOffload12getDebugInfoENSt3__18functionIFvRKNS_4hidl4base4V1_09DebugInfoEEEE
_ZN7android8hardware4wifi7offload4V1_011BnHwOffload18_hidl_getScanStatsEPNS_4hidl4base4V1_08BnHwBaseERKNS0_6ParcelEPSA_NSt3__18functionIFvRSA_EEE
_ZN7android8hardware4wifi7offload4V1_011BnHwOffload20_hidl_configureScansEPNS_4hidl4base4V1_08BnHwBaseERKNS0_6ParcelEPSA_NSt3__18functionIFvRSA_EEE
_ZN7android8hardware4wifi7offload4V1_011BnHwOffload22_hidl_setEventCallbackEPNS_4hidl4base4V1_08BnHwBaseERKNS0_6ParcelEPSA_NSt3__18functionIFvRSA_EEE
_ZN7android8hardware4wifi7offload4V1_011BnHwOffload26_hidl_subscribeScanResultsEPNS_4hidl4base4V1_08BnHwBaseERKNS0_6ParcelEPSA_NSt3__18functionIFvRSA_EEE
_ZN7android8hardware4wifi7offload4V1_011BnHwOffload28_hidl_unsubscribeScanResultsEPNS_4hidl4base4V1_08BnHwBaseERKNS0_6ParcelEPSA_NSt3__18functionIFvRSA_EEE
_ZN7android8hardware4wifi7offload4V1_011BnHwOffload4pingEv
_ZN7android8hardware4wifi7offload4V1_011BnHwOffloadC1ERKNS_2spINS3_8IOffloadEEE
_ZN7android8hardware4wifi7offload4V1_011BnHwOffloadC2ERKNS_2spINS3_8IOffloadEEE
_ZN7android8hardware4wifi7offload4V1_011BnHwOffloadD0Ev
_ZN7android8hardware4wifi7offload4V1_011BnHwOffloadD1Ev
_ZN7android8hardware4wifi7offload4V1_011BnHwOffloadD2Ev
_ZN7android8hardware4wifi7offload4V1_011BpHwOffload11linkToDeathERKNS_2spINS0_20hidl_death_recipientEEEm
_ZN7android8hardware4wifi7offload4V1_011BpHwOffload12getDebugInfoENSt3__18functionIFvRKNS_4hidl4base4V1_09DebugInfoEEEE
_ZN7android8hardware4wifi7offload4V1_011BpHwOffload12getHashChainENSt3__18functionIFvRKNS0_8hidl_vecINS0_10hidl_arrayIhLm32EJEEEEEEEE
_ZN7android8hardware4wifi7offload4V1_011BpHwOffload12getScanStatsENSt3__18functionIFvRKNS3_13OffloadStatusERKNS3_9ScanStatsEEEE
_ZN7android8hardware4wifi7offload4V1_011BpHwOffload13unlinkToDeathERKNS_2spINS0_20hidl_death_recipientEEE
_ZN7android8hardware4wifi7offload4V1_011BpHwOffload14configureScansERKNS3_9ScanParamERKNS3_10ScanFilterENSt3__18functionIFvRKNS3_13OffloadStatusEEEE
_ZN7android8hardware4wifi7offload4V1_011BpHwOffload14interfaceChainENSt3__18functionIFvRKNS0_8hidl_vecINS0_11hidl_stringEEEEEE
_ZN7android8hardware4wifi7offload4V1_011BpHwOffload16setEventCallbackERKNS_2spINS3_16IOffloadCallbackEEE
_ZN7android8hardware4wifi7offload4V1_011BpHwOffload18_hidl_getScanStatsEPNS0_10IInterfaceEPNS0_7details16HidlInstrumentorENSt3__18functionIFvRKNS3_13OffloadStatusERKNS3_9ScanStatsEEEE
_ZN7android8hardware4wifi7offload4V1_011BpHwOffload19interfaceDescriptorENSt3__18functionIFvRKNS0_11hidl_stringEEEE
_ZN7android8hardware4wifi7offload4V1_011BpHwOffload20_hidl_configureScansEPNS0_10IInterfaceEPNS0_7details16HidlInstrumentorERKNS3_9ScanParamERKNS3_10ScanFilterENSt3__18functionIFvRKNS3_13OffloadStatusEEEE
_ZN7android8hardware4wifi7offload4V1_011BpHwOffload20subscribeScanResultsEjNSt3__18functionIFvRKNS3_13OffloadStatusEEEE
_ZN7android8hardware4wifi7offload4V1_011BpHwOffload21notifySyspropsChangedEv
_ZN7android8hardware4wifi7offload4V1_011BpHwOffload21setHALInstrumentationEv
_ZN7android8hardware4wifi7offload4V1_011BpHwOffload22_hidl_setEventCallbackEPNS0_10IInterfaceEPNS0_7details16HidlInstrumentorERKNS_2spINS3_16IOffloadCallbackEEE
_ZN7android8hardware4wifi7offload4V1_011BpHwOffload22unsubscribeScanResultsEv
_ZN7android8hardware4wifi7offload4V1_011BpHwOffload26_hidl_subscribeScanResultsEPNS0_10IInterfaceEPNS0_7details16HidlInstrumentorEjNSt3__18functionIFvRKNS3_13OffloadStatusEEEE
_ZN7android8hardware4wifi7offload4V1_011BpHwOffload28_hidl_unsubscribeScanResultsEPNS0_10IInterfaceEPNS0_7details16HidlInstrumentorE
_ZN7android8hardware4wifi7offload4V1_011BpHwOffload4pingEv
_ZN7android8hardware4wifi7offload4V1_011BpHwOffload5debugERKNS0_11hidl_handleERKNS0_8hidl_vecINS0_11hidl_stringEEE
_ZN7android8hardware4wifi7offload4V1_011BpHwOffloadC1ERKNS_2spINS0_7IBinderEEE
_ZN7android8hardware4wifi7offload4V1_011BpHwOffloadC2ERKNS_2spINS0_7IBinderEEE
_ZN7android8hardware4wifi7offload4V1_016IOffloadCallback10descriptorE
_ZN7android8hardware4wifi7offload4V1_016IOffloadCallback10getServiceERKNSt3__112basic_stringIcNS5_11char_traitsIcEENS5_9allocatorIcEEEEb
_ZN7android8hardware4wifi7offload4V1_016IOffloadCallback11linkToDeathERKNS_2spINS0_20hidl_death_recipientEEEm
_ZN7android8hardware4wifi7offload4V1_016IOffloadCallback12getDebugInfoENSt3__18functionIFvRKNS_4hidl4base4V1_09DebugInfoEEEE
_ZN7android8hardware4wifi7offload4V1_016IOffloadCallback12getHashChainENSt3__18functionIFvRKNS0_8hidl_vecINS0_10hidl_arrayIhLm32EJEEEEEEEE
_ZN7android8hardware4wifi7offload4V1_016IOffloadCallback13tryGetServiceERKNSt3__112basic_stringIcNS5_11char_traitsIcEENS5_9allocatorIcEEEEb
_ZN7android8hardware4wifi7offload4V1_016IOffloadCallback13unlinkToDeathERKNS_2spINS0_20hidl_death_recipientEEE
_ZN7android8hardware4wifi7offload4V1_016IOffloadCallback14interfaceChainENSt3__18functionIFvRKNS0_8hidl_vecINS0_11hidl_stringEEEEEE
_ZN7android8hardware4wifi7offload4V1_016IOffloadCallback17registerAsServiceERKNSt3__112basic_stringIcNS5_11char_traitsIcEENS5_9allocatorIcEEEE
_ZN7android8hardware4wifi7offload4V1_016IOffloadCallback19interfaceDescriptorENSt3__18functionIFvRKNS0_11hidl_stringEEEE
_ZN7android8hardware4wifi7offload4V1_016IOffloadCallback21notifySyspropsChangedEv
_ZN7android8hardware4wifi7offload4V1_016IOffloadCallback21setHALInstrumentationEv
_ZN7android8hardware4wifi7offload4V1_016IOffloadCallback24registerForNotificationsERKNSt3__112basic_stringIcNS5_11char_traitsIcEENS5_9allocatorIcEEEERKNS_2spINS_4hidl7manager4V1_020IServiceNotificationEEE
_ZN7android8hardware4wifi7offload4V1_016IOffloadCallback4pingEv
_ZN7android8hardware4wifi7offload4V1_016IOffloadCallback5debugERKNS0_11hidl_handleERKNS0_8hidl_vecINS0_11hidl_stringEEE
_ZN7android8hardware4wifi7offload4V1_016IOffloadCallback8castFromERKNS_2spINS_4hidl4base4V1_05IBaseEEEb
_ZN7android8hardware4wifi7offload4V1_016IOffloadCallback8castFromERKNS_2spIS4_EEb
_ZN7android8hardware4wifi7offload4V1_017BsOffloadCallback13addOnewayTaskENSt3__18functionIFvvEEE
_ZN7android8hardware4wifi7offload4V1_017BsOffloadCallbackC1ENS_2spINS3_16IOffloadCallbackEEE
_ZN7android8hardware4wifi7offload4V1_017BsOffloadCallbackC2ENS_2spINS3_16IOffloadCallbackEEE
_ZN7android8hardware4wifi7offload4V1_019BnHwOffloadCallback10onTransactEjRKNS0_6ParcelEPS5_jNSt3__18functionIFvRS5_EEE
_ZN7android8hardware4wifi7offload4V1_019BnHwOffloadCallback12getDebugInfoENSt3__18functionIFvRKNS_4hidl4base4V1_09DebugInfoEEEE
_ZN7android8hardware4wifi7offload4V1_019BnHwOffloadCallback13_hidl_onErrorEPNS_4hidl4base4V1_08BnHwBaseERKNS0_6ParcelEPSA_NSt3__18functionIFvRSA_EEE
_ZN7android8hardware4wifi7offload4V1_019BnHwOffloadCallback18_hidl_onScanResultEPNS_4hidl4base4V1_08BnHwBaseERKNS0_6ParcelEPSA_NSt3__18functionIFvRSA_EEE
_ZN7android8hardware4wifi7offload4V1_019BnHwOffloadCallback4pingEv
_ZN7android8hardware4wifi7offload4V1_019BnHwOffloadCallbackC1ERKNS_2spINS3_16IOffloadCallbackEEE
_ZN7android8hardware4wifi7offload4V1_019BnHwOffloadCallbackC2ERKNS_2spINS3_16IOffloadCallbackEEE
_ZN7android8hardware4wifi7offload4V1_019BnHwOffloadCallbackD0Ev
_ZN7android8hardware4wifi7offload4V1_019BnHwOffloadCallbackD1Ev
_ZN7android8hardware4wifi7offload4V1_019BnHwOffloadCallbackD2Ev
_ZN7android8hardware4wifi7offload4V1_019BpHwOffloadCallback11linkToDeathERKNS_2spINS0_20hidl_death_recipientEEEm
_ZN7android8hardware4wifi7offload4V1_019BpHwOffloadCallback12getDebugInfoENSt3__18functionIFvRKNS_4hidl4base4V1_09DebugInfoEEEE
_ZN7android8hardware4wifi7offload4V1_019BpHwOffloadCallback12getHashChainENSt3__18functionIFvRKNS0_8hidl_vecINS0_10hidl_arrayIhLm32EJEEEEEEEE
_ZN7android8hardware4wifi7offload4V1_019BpHwOffloadCallback12onScanResultERKNS0_8hidl_vecINS3_10ScanResultEEE
_ZN7android8hardware4wifi7offload4V1_019BpHwOffloadCallback13_hidl_onErrorEPNS0_10IInterfaceEPNS0_7details16HidlInstrumentorERKNS3_13OffloadStatusE
_ZN7android8hardware4wifi7offload4V1_019BpHwOffloadCallback13unlinkToDeathERKNS_2spINS0_20hidl_death_recipientEEE
_ZN7android8hardware4wifi7offload4V1_019BpHwOffloadCallback14interfaceChainENSt3__18functionIFvRKNS0_8hidl_vecINS0_11hidl_stringEEEEEE
_ZN7android8hardware4wifi7offload4V1_019BpHwOffloadCallback18_hidl_onScanResultEPNS0_10IInterfaceEPNS0_7details16HidlInstrumentorERKNS0_8hidl_vecINS3_10ScanResultEEE
_ZN7android8hardware4wifi7offload4V1_019BpHwOffloadCallback19interfaceDescriptorENSt3__18functionIFvRKNS0_11hidl_stringEEEE
_ZN7android8hardware4wifi7offload4V1_019BpHwOffloadCallback21notifySyspropsChangedEv
_ZN7android8hardware4wifi7offload4V1_019BpHwOffloadCallback21setHALInstrumentationEv
_ZN7android8hardware4wifi7offload4V1_019BpHwOffloadCallback4pingEv
_ZN7android8hardware4wifi7offload4V1_019BpHwOffloadCallback5debugERKNS0_11hidl_handleERKNS0_8hidl_vecINS0_11hidl_stringEEE
_ZN7android8hardware4wifi7offload4V1_019BpHwOffloadCallback7onErrorERKNS3_13OffloadStatusE
_ZN7android8hardware4wifi7offload4V1_019BpHwOffloadCallbackC1ERKNS_2spINS0_7IBinderEEE
_ZN7android8hardware4wifi7offload4V1_019BpHwOffloadCallbackC2ERKNS_2spINS0_7IBinderEEE
_ZN7android8hardware4wifi7offload4V1_021writeEmbeddedToParcelERKNS3_10ScanFilterEPNS0_6ParcelEmm
_ZN7android8hardware4wifi7offload4V1_021writeEmbeddedToParcelERKNS3_10ScanResultEPNS0_6ParcelEmm
_ZN7android8hardware4wifi7offload4V1_021writeEmbeddedToParcelERKNS3_11NetworkInfoEPNS0_6ParcelEmm
_ZN7android8hardware4wifi7offload4V1_021writeEmbeddedToParcelERKNS3_13OffloadStatusEPNS0_6ParcelEmm
_ZN7android8hardware4wifi7offload4V1_021writeEmbeddedToParcelERKNS3_9ScanParamEPNS0_6ParcelEmm
_ZN7android8hardware4wifi7offload4V1_021writeEmbeddedToParcelERKNS3_9ScanStatsEPNS0_6ParcelEmm
_ZN7android8hardware4wifi7offload4V1_022readEmbeddedFromParcelERKNS3_10ScanFilterERKNS0_6ParcelEmm
_ZN7android8hardware4wifi7offload4V1_022readEmbeddedFromParcelERKNS3_10ScanResultERKNS0_6ParcelEmm
_ZN7android8hardware4wifi7offload4V1_022readEmbeddedFromParcelERKNS3_11NetworkInfoERKNS0_6ParcelEmm
_ZN7android8hardware4wifi7offload4V1_022readEmbeddedFromParcelERKNS3_13OffloadStatusERKNS0_6ParcelEmm
_ZN7android8hardware4wifi7offload4V1_022readEmbeddedFromParcelERKNS3_9ScanParamERKNS0_6ParcelEmm
_ZN7android8hardware4wifi7offload4V1_022readEmbeddedFromParcelERKNS3_9ScanStatsERKNS0_6ParcelEmm
_ZN7android8hardware4wifi7offload4V1_08IOffload10descriptorE
_ZN7android8hardware4wifi7offload4V1_08IOffload10getServiceERKNSt3__112basic_stringIcNS5_11char_traitsIcEENS5_9allocatorIcEEEEb
_ZN7android8hardware4wifi7offload4V1_08IOffload11linkToDeathERKNS_2spINS0_20hidl_death_recipientEEEm
_ZN7android8hardware4wifi7offload4V1_08IOffload12getDebugInfoENSt3__18functionIFvRKNS_4hidl4base4V1_09DebugInfoEEEE
_ZN7android8hardware4wifi7offload4V1_08IOffload12getHashChainENSt3__18functionIFvRKNS0_8hidl_vecINS0_10hidl_arrayIhLm32EJEEEEEEEE
_ZN7android8hardware4wifi7offload4V1_08IOffload13tryGetServiceERKNSt3__112basic_stringIcNS5_11char_traitsIcEENS5_9allocatorIcEEEEb
_ZN7android8hardware4wifi7offload4V1_08IOffload13unlinkToDeathERKNS_2spINS0_20hidl_death_recipientEEE
_ZN7android8hardware4wifi7offload4V1_08IOffload14interfaceChainENSt3__18functionIFvRKNS0_8hidl_vecINS0_11hidl_stringEEEEEE
_ZN7android8hardware4wifi7offload4V1_08IOffload17registerAsServiceERKNSt3__112basic_stringIcNS5_11char_traitsIcEENS5_9allocatorIcEEEE
_ZN7android8hardware4wifi7offload4V1_08IOffload19interfaceDescriptorENSt3__18functionIFvRKNS0_11hidl_stringEEEE
_ZN7android8hardware4wifi7offload4V1_08IOffload21notifySyspropsChangedEv
_ZN7android8hardware4wifi7offload4V1_08IOffload21setHALInstrumentationEv
_ZN7android8hardware4wifi7offload4V1_08IOffload24registerForNotificationsERKNSt3__112basic_stringIcNS5_11char_traitsIcEENS5_9allocatorIcEEEERKNS_2spINS_4hidl7manager4V1_020IServiceNotificationEEE
_ZN7android8hardware4wifi7offload4V1_08IOffload4pingEv
_ZN7android8hardware4wifi7offload4V1_08IOffload5debugERKNS0_11hidl_handleERKNS0_8hidl_vecINS0_11hidl_stringEEE
_ZN7android8hardware4wifi7offload4V1_08IOffload8castFromERKNS_2spINS_4hidl4base4V1_05IBaseEEEb
_ZN7android8hardware4wifi7offload4V1_08IOffload8castFromERKNS_2spIS4_EEb
_ZN7android8hardware4wifi7offload4V1_09BsOffload13addOnewayTaskENSt3__18functionIFvvEEE
_ZN7android8hardware4wifi7offload4V1_09BsOffloadC1ENS_2spINS3_8IOffloadEEE
_ZN7android8hardware4wifi7offload4V1_09BsOffloadC2ENS_2spINS3_8IOffloadEEE
_ZTCN7android8hardware4wifi7offload4V1_011BnHwOffloadE0_NS0_7IBinderE
_ZTCN7android8hardware4wifi7offload4V1_011BnHwOffloadE0_NS0_9BHwBinderE
_ZTCN7android8hardware4wifi7offload4V1_011BnHwOffloadE0_NS_4hidl4base4V1_08BnHwBaseE
_ZTCN7android8hardware4wifi7offload4V1_011BpHwOffloadE0_NS0_11BpInterfaceINS3_8IOffloadEEE
_ZTCN7android8hardware4wifi7offload4V1_011BpHwOffloadE0_NS3_8IOffloadE
_ZTCN7android8hardware4wifi7offload4V1_011BpHwOffloadE0_NS_4hidl4base4V1_05IBaseE
_ZTCN7android8hardware4wifi7offload4V1_011BpHwOffloadE16_NS0_11BpHwRefBaseE
_ZTCN7android8hardware4wifi7offload4V1_011BpHwOffloadE8_NS0_10IInterfaceE
_ZTCN7android8hardware4wifi7offload4V1_016IOffloadCallbackE0_NS_4hidl4base4V1_05IBaseE
_ZTCN7android8hardware4wifi7offload4V1_019BnHwOffloadCallbackE0_NS0_7IBinderE
_ZTCN7android8hardware4wifi7offload4V1_019BnHwOffloadCallbackE0_NS0_9BHwBinderE
_ZTCN7android8hardware4wifi7offload4V1_019BnHwOffloadCallbackE0_NS_4hidl4base4V1_08BnHwBaseE
_ZTCN7android8hardware4wifi7offload4V1_019BpHwOffloadCallbackE0_NS0_11BpInterfaceINS3_16IOffloadCallbackEEE
_ZTCN7android8hardware4wifi7offload4V1_019BpHwOffloadCallbackE0_NS3_16IOffloadCallbackE
_ZTCN7android8hardware4wifi7offload4V1_019BpHwOffloadCallbackE0_NS_4hidl4base4V1_05IBaseE
_ZTCN7android8hardware4wifi7offload4V1_019BpHwOffloadCallbackE16_NS0_11BpHwRefBaseE
_ZTCN7android8hardware4wifi7offload4V1_019BpHwOffloadCallbackE8_NS0_10IInterfaceE
_ZTCN7android8hardware4wifi7offload4V1_08IOffloadE0_NS_4hidl4base4V1_05IBaseE
_ZTTN7android8hardware4wifi7offload4V1_011BnHwOffloadE
_ZTTN7android8hardware4wifi7offload4V1_011BpHwOffloadE
_ZTTN7android8hardware4wifi7offload4V1_016IOffloadCallbackE
_ZTTN7android8hardware4wifi7offload4V1_019BnHwOffloadCallbackE
_ZTTN7android8hardware4wifi7offload4V1_019BpHwOffloadCallbackE
_ZTTN7android8hardware4wifi7offload4V1_08IOffloadE
_ZTVN7android8hardware4wifi7offload4V1_011BnHwOffloadE
_ZTVN7android8hardware4wifi7offload4V1_011BpHwOffloadE
_ZTVN7android8hardware4wifi7offload4V1_016IOffloadCallbackE
_ZTVN7android8hardware4wifi7offload4V1_019BnHwOffloadCallbackE
_ZTVN7android8hardware4wifi7offload4V1_019BpHwOffloadCallbackE
_ZTVN7android8hardware4wifi7offload4V1_08IOffloadE
_ZThn32_N7android8hardware4wifi7offload4V1_011BnHwOffloadD0Ev
_ZThn32_N7android8hardware4wifi7offload4V1_011BnHwOffloadD1Ev
_ZThn32_N7android8hardware4wifi7offload4V1_019BnHwOffloadCallbackD0Ev
_ZThn32_N7android8hardware4wifi7offload4V1_019BnHwOffloadCallbackD1Ev
_ZTv0_n24_N7android8hardware4wifi7offload4V1_011BnHwOffloadD0Ev
_ZTv0_n24_N7android8hardware4wifi7offload4V1_011BnHwOffloadD1Ev
_ZTv0_n24_N7android8hardware4wifi7offload4V1_019BnHwOffloadCallbackD0Ev
_ZTv0_n24_N7android8hardware4wifi7offload4V1_019BnHwOffloadCallbackD1Ev
