_ZN7android8hardware10authsecret4V1_011IAuthSecret10descriptorE
_ZN7android8hardware10authsecret4V1_011IAuthSecret10getServiceERKNSt3__112basic_stringIcNS4_11char_traitsIcEENS4_9allocatorIcEEEEb
_ZN7android8hardware10authsecret4V1_011IAuthSecret11linkToDeathERKNS_2spINS0_20hidl_death_recipientEEEm
_ZN7android8hardware10authsecret4V1_011IAuthSecret12getDebugInfoENSt3__18functionIFvRKNS_4hidl4base4V1_09DebugInfoEEEE
_ZN7android8hardware10authsecret4V1_011IAuthSecret12getHashChainENSt3__18functionIFvRKNS0_8hidl_vecINS0_10hidl_arrayIhLm32EJEEEEEEEE
_ZN7android8hardware10authsecret4V1_011IAuthSecret13tryGetServiceERKNSt3__112basic_stringIcNS4_11char_traitsIcEENS4_9allocatorIcEEEEb
_ZN7android8hardware10authsecret4V1_011IAuthSecret13unlinkToDeathERKNS_2spINS0_20hidl_death_recipientEEE
_ZN7android8hardware10authsecret4V1_011IAuthSecret14interfaceChainENSt3__18functionIFvRKNS0_8hidl_vecINS0_11hidl_stringEEEEEE
_ZN7android8hardware10authsecret4V1_011IAuthSecret17registerAsServiceERKNSt3__112basic_stringIcNS4_11char_traitsIcEENS4_9allocatorIcEEEE
_ZN7android8hardware10authsecret4V1_011IAuthSecret19interfaceDescriptorENSt3__18functionIFvRKNS0_11hidl_stringEEEE
_ZN7android8hardware10authsecret4V1_011IAuthSecret21notifySyspropsChangedEv
_ZN7android8hardware10authsecret4V1_011IAuthSecret21setHALInstrumentationEv
_ZN7android8hardware10authsecret4V1_011IAuthSecret24registerForNotificationsERKNSt3__112basic_stringIcNS4_11char_traitsIcEENS4_9allocatorIcEEEERKNS_2spINS_4hidl7manager4V1_020IServiceNotificationEEE
_ZN7android8hardware10authsecret4V1_011IAuthSecret4pingEv
_ZN7android8hardware10authsecret4V1_011IAuthSecret5debugERKNS0_11hidl_handleERKNS0_8hidl_vecINS0_11hidl_stringEEE
_ZN7android8hardware10authsecret4V1_011IAuthSecret8castFromERKNS_2spINS_4hidl4base4V1_05IBaseEEEb
_ZN7android8hardware10authsecret4V1_011IAuthSecret8castFromERKNS_2spIS3_EEb
_ZN7android8hardware10authsecret4V1_012BsAuthSecret13addOnewayTaskENSt3__18functionIFvvEEE
_ZN7android8hardware10authsecret4V1_012BsAuthSecretC1ENS_2spINS2_11IAuthSecretEEE
_ZN7android8hardware10authsecret4V1_012BsAuthSecretC2ENS_2spINS2_11IAuthSecretEEE
_ZN7android8hardware10authsecret4V1_014BnHwAuthSecret10onTransactEjRKNS0_6ParcelEPS4_jNSt3__18functionIFvRS4_EEE
_ZN7android8hardware10authsecret4V1_014BnHwAuthSecret12getDebugInfoENSt3__18functionIFvRKNS_4hidl4base4V1_09DebugInfoEEEE
_ZN7android8hardware10authsecret4V1_014BnHwAuthSecret27_hidl_primaryUserCredentialEPNS_4hidl4base4V1_08BnHwBaseERKNS0_6ParcelEPS9_NSt3__18functionIFvRS9_EEE
_ZN7android8hardware10authsecret4V1_014BnHwAuthSecret4pingEv
_ZN7android8hardware10authsecret4V1_014BnHwAuthSecretC1ERKNS_2spINS2_11IAuthSecretEEE
_ZN7android8hardware10authsecret4V1_014BnHwAuthSecretC2ERKNS_2spINS2_11IAuthSecretEEE
_ZN7android8hardware10authsecret4V1_014BnHwAuthSecretD0Ev
_ZN7android8hardware10authsecret4V1_014BnHwAuthSecretD1Ev
_ZN7android8hardware10authsecret4V1_014BnHwAuthSecretD2Ev
_ZN7android8hardware10authsecret4V1_014BpHwAuthSecret11linkToDeathERKNS_2spINS0_20hidl_death_recipientEEEm
_ZN7android8hardware10authsecret4V1_014BpHwAuthSecret12getDebugInfoENSt3__18functionIFvRKNS_4hidl4base4V1_09DebugInfoEEEE
_ZN7android8hardware10authsecret4V1_014BpHwAuthSecret12getHashChainENSt3__18functionIFvRKNS0_8hidl_vecINS0_10hidl_arrayIhLm32EJEEEEEEEE
_ZN7android8hardware10authsecret4V1_014BpHwAuthSecret13unlinkToDeathERKNS_2spINS0_20hidl_death_recipientEEE
_ZN7android8hardware10authsecret4V1_014BpHwAuthSecret14interfaceChainENSt3__18functionIFvRKNS0_8hidl_vecINS0_11hidl_stringEEEEEE
_ZN7android8hardware10authsecret4V1_014BpHwAuthSecret19interfaceDescriptorENSt3__18functionIFvRKNS0_11hidl_stringEEEE
_ZN7android8hardware10authsecret4V1_014BpHwAuthSecret21notifySyspropsChangedEv
_ZN7android8hardware10authsecret4V1_014BpHwAuthSecret21primaryUserCredentialERKNS0_8hidl_vecIhEE
_ZN7android8hardware10authsecret4V1_014BpHwAuthSecret21setHALInstrumentationEv
_ZN7android8hardware10authsecret4V1_014BpHwAuthSecret27_hidl_primaryUserCredentialEPNS0_10IInterfaceEPNS0_7details16HidlInstrumentorERKNS0_8hidl_vecIhEE
_ZN7android8hardware10authsecret4V1_014BpHwAuthSecret4pingEv
_ZN7android8hardware10authsecret4V1_014BpHwAuthSecret5debugERKNS0_11hidl_handleERKNS0_8hidl_vecINS0_11hidl_stringEEE
_ZN7android8hardware10authsecret4V1_014BpHwAuthSecretC1ERKNS_2spINS0_7IBinderEEE
_ZN7android8hardware10authsecret4V1_014BpHwAuthSecretC2ERKNS_2spINS0_7IBinderEEE
_ZTCN7android8hardware10authsecret4V1_011IAuthSecretE0_NS_4hidl4base4V1_05IBaseE
_ZTCN7android8hardware10authsecret4V1_014BnHwAuthSecretE0_NS0_7IBinderE
_ZTCN7android8hardware10authsecret4V1_014BnHwAuthSecretE0_NS0_9BHwBinderE
_ZTCN7android8hardware10authsecret4V1_014BnHwAuthSecretE0_NS_4hidl4base4V1_08BnHwBaseE
_ZTCN7android8hardware10authsecret4V1_014BpHwAuthSecretE0_NS0_11BpInterfaceINS2_11IAuthSecretEEE
_ZTCN7android8hardware10authsecret4V1_014BpHwAuthSecretE0_NS2_11IAuthSecretE
_ZTCN7android8hardware10authsecret4V1_014BpHwAuthSecretE0_NS_4hidl4base4V1_05IBaseE
_ZTCN7android8hardware10authsecret4V1_014BpHwAuthSecretE16_NS0_11BpHwRefBaseE
_ZTCN7android8hardware10authsecret4V1_014BpHwAuthSecretE8_NS0_10IInterfaceE
_ZTTN7android8hardware10authsecret4V1_011IAuthSecretE
_ZTTN7android8hardware10authsecret4V1_014BnHwAuthSecretE
_ZTTN7android8hardware10authsecret4V1_014BpHwAuthSecretE
_ZTVN7android8hardware10authsecret4V1_011IAuthSecretE
_ZTVN7android8hardware10authsecret4V1_014BnHwAuthSecretE
_ZTVN7android8hardware10authsecret4V1_014BpHwAuthSecretE
_ZThn32_N7android8hardware10authsecret4V1_014BnHwAuthSecretD0Ev
_ZThn32_N7android8hardware10authsecret4V1_014BnHwAuthSecretD1Ev
_ZTv0_n24_N7android8hardware10authsecret4V1_014BnHwAuthSecretD0Ev
_ZTv0_n24_N7android8hardware10authsecret4V1_014BnHwAuthSecretD1Ev
