_ZN7android8hardware4boot4V1_012IBootControl10descriptorE
_ZN7android8hardware4boot4V1_012IBootControl10getServiceERKNSt3__112basic_stringIcNS4_11char_traitsIcEENS4_9allocatorIcEEEEb
_ZN7android8hardware4boot4V1_012IBootControl11linkToDeathERKNS_2spINS0_20hidl_death_recipientEEEm
_ZN7android8hardware4boot4V1_012IBootControl12getDebugInfoENSt3__18functionIFvRKNS_4hidl4base4V1_09DebugInfoEEEE
_ZN7android8hardware4boot4V1_012IBootControl12getHashChainENSt3__18functionIFvRKNS0_8hidl_vecINS0_10hidl_arrayIhLm32EJEEEEEEEE
_ZN7android8hardware4boot4V1_012IBootControl13tryGetServiceERKNSt3__112basic_stringIcNS4_11char_traitsIcEENS4_9allocatorIcEEEEb
_ZN7android8hardware4boot4V1_012IBootControl13unlinkToDeathERKNS_2spINS0_20hidl_death_recipientEEE
_ZN7android8hardware4boot4V1_012IBootControl14interfaceChainENSt3__18functionIFvRKNS0_8hidl_vecINS0_11hidl_stringEEEEEE
_ZN7android8hardware4boot4V1_012IBootControl17registerAsServiceERKNSt3__112basic_stringIcNS4_11char_traitsIcEENS4_9allocatorIcEEEE
_ZN7android8hardware4boot4V1_012IBootControl19interfaceDescriptorENSt3__18functionIFvRKNS0_11hidl_stringEEEE
_ZN7android8hardware4boot4V1_012IBootControl21notifySyspropsChangedEv
_ZN7android8hardware4boot4V1_012IBootControl21setHALInstrumentationEv
_ZN7android8hardware4boot4V1_012IBootControl24registerForNotificationsERKNSt3__112basic_stringIcNS4_11char_traitsIcEENS4_9allocatorIcEEEERKNS_2spINS_4hidl7manager4V1_020IServiceNotificationEEE
_ZN7android8hardware4boot4V1_012IBootControl4pingEv
_ZN7android8hardware4boot4V1_012IBootControl5debugERKNS0_11hidl_handleERKNS0_8hidl_vecINS0_11hidl_stringEEE
_ZN7android8hardware4boot4V1_012IBootControl8castFromERKNS_2spINS_4hidl4base4V1_05IBaseEEEb
_ZN7android8hardware4boot4V1_012IBootControl8castFromERKNS_2spIS3_EEb
_ZN7android8hardware4boot4V1_013BsBootControl13addOnewayTaskENSt3__18functionIFvvEEE
_ZN7android8hardware4boot4V1_013BsBootControlC1ENS_2spINS2_12IBootControlEEE
_ZN7android8hardware4boot4V1_013BsBootControlC2ENS_2spINS2_12IBootControlEEE
_ZN7android8hardware4boot4V1_015BnHwBootControl10onTransactEjRKNS0_6ParcelEPS4_jNSt3__18functionIFvRS4_EEE
_ZN7android8hardware4boot4V1_015BnHwBootControl12getDebugInfoENSt3__18functionIFvRKNS_4hidl4base4V1_09DebugInfoEEEE
_ZN7android8hardware4boot4V1_015BnHwBootControl15_hidl_getSuffixEPNS_4hidl4base4V1_08BnHwBaseERKNS0_6ParcelEPS9_NSt3__18functionIFvRS9_EEE
_ZN7android8hardware4boot4V1_015BnHwBootControl20_hidl_getCurrentSlotEPNS_4hidl4base4V1_08BnHwBaseERKNS0_6ParcelEPS9_NSt3__18functionIFvRS9_EEE
_ZN7android8hardware4boot4V1_015BnHwBootControl20_hidl_getNumberSlotsEPNS_4hidl4base4V1_08BnHwBaseERKNS0_6ParcelEPS9_NSt3__18functionIFvRS9_EEE
_ZN7android8hardware4boot4V1_015BnHwBootControl20_hidl_isSlotBootableEPNS_4hidl4base4V1_08BnHwBaseERKNS0_6ParcelEPS9_NSt3__18functionIFvRS9_EEE
_ZN7android8hardware4boot4V1_015BnHwBootControl23_hidl_setActiveBootSlotEPNS_4hidl4base4V1_08BnHwBaseERKNS0_6ParcelEPS9_NSt3__18functionIFvRS9_EEE
_ZN7android8hardware4boot4V1_015BnHwBootControl24_hidl_markBootSuccessfulEPNS_4hidl4base4V1_08BnHwBaseERKNS0_6ParcelEPS9_NSt3__18functionIFvRS9_EEE
_ZN7android8hardware4boot4V1_015BnHwBootControl25_hidl_setSlotAsUnbootableEPNS_4hidl4base4V1_08BnHwBaseERKNS0_6ParcelEPS9_NSt3__18functionIFvRS9_EEE
_ZN7android8hardware4boot4V1_015BnHwBootControl28_hidl_isSlotMarkedSuccessfulEPNS_4hidl4base4V1_08BnHwBaseERKNS0_6ParcelEPS9_NSt3__18functionIFvRS9_EEE
_ZN7android8hardware4boot4V1_015BnHwBootControl4pingEv
_ZN7android8hardware4boot4V1_015BnHwBootControlC1ERKNS_2spINS2_12IBootControlEEE
_ZN7android8hardware4boot4V1_015BnHwBootControlC2ERKNS_2spINS2_12IBootControlEEE
_ZN7android8hardware4boot4V1_015BnHwBootControlD0Ev
_ZN7android8hardware4boot4V1_015BnHwBootControlD1Ev
_ZN7android8hardware4boot4V1_015BnHwBootControlD2Ev
_ZN7android8hardware4boot4V1_015BpHwBootControl11linkToDeathERKNS_2spINS0_20hidl_death_recipientEEEm
_ZN7android8hardware4boot4V1_015BpHwBootControl12getDebugInfoENSt3__18functionIFvRKNS_4hidl4base4V1_09DebugInfoEEEE
_ZN7android8hardware4boot4V1_015BpHwBootControl12getHashChainENSt3__18functionIFvRKNS0_8hidl_vecINS0_10hidl_arrayIhLm32EJEEEEEEEE
_ZN7android8hardware4boot4V1_015BpHwBootControl13unlinkToDeathERKNS_2spINS0_20hidl_death_recipientEEE
_ZN7android8hardware4boot4V1_015BpHwBootControl14getCurrentSlotEv
_ZN7android8hardware4boot4V1_015BpHwBootControl14getNumberSlotsEv
_ZN7android8hardware4boot4V1_015BpHwBootControl14interfaceChainENSt3__18functionIFvRKNS0_8hidl_vecINS0_11hidl_stringEEEEEE
_ZN7android8hardware4boot4V1_015BpHwBootControl14isSlotBootableEj
_ZN7android8hardware4boot4V1_015BpHwBootControl15_hidl_getSuffixEPNS0_10IInterfaceEPNS0_7details16HidlInstrumentorEjNSt3__18functionIFvRKNS0_11hidl_stringEEEE
_ZN7android8hardware4boot4V1_015BpHwBootControl17setActiveBootSlotEjNSt3__18functionIFvRKNS2_13CommandResultEEEE
_ZN7android8hardware4boot4V1_015BpHwBootControl18markBootSuccessfulENSt3__18functionIFvRKNS2_13CommandResultEEEE
_ZN7android8hardware4boot4V1_015BpHwBootControl19interfaceDescriptorENSt3__18functionIFvRKNS0_11hidl_stringEEEE
_ZN7android8hardware4boot4V1_015BpHwBootControl19setSlotAsUnbootableEjNSt3__18functionIFvRKNS2_13CommandResultEEEE
_ZN7android8hardware4boot4V1_015BpHwBootControl20_hidl_getCurrentSlotEPNS0_10IInterfaceEPNS0_7details16HidlInstrumentorE
_ZN7android8hardware4boot4V1_015BpHwBootControl20_hidl_getNumberSlotsEPNS0_10IInterfaceEPNS0_7details16HidlInstrumentorE
_ZN7android8hardware4boot4V1_015BpHwBootControl20_hidl_isSlotBootableEPNS0_10IInterfaceEPNS0_7details16HidlInstrumentorEj
_ZN7android8hardware4boot4V1_015BpHwBootControl21notifySyspropsChangedEv
_ZN7android8hardware4boot4V1_015BpHwBootControl21setHALInstrumentationEv
_ZN7android8hardware4boot4V1_015BpHwBootControl22isSlotMarkedSuccessfulEj
_ZN7android8hardware4boot4V1_015BpHwBootControl23_hidl_setActiveBootSlotEPNS0_10IInterfaceEPNS0_7details16HidlInstrumentorEjNSt3__18functionIFvRKNS2_13CommandResultEEEE
_ZN7android8hardware4boot4V1_015BpHwBootControl24_hidl_markBootSuccessfulEPNS0_10IInterfaceEPNS0_7details16HidlInstrumentorENSt3__18functionIFvRKNS2_13CommandResultEEEE
_ZN7android8hardware4boot4V1_015BpHwBootControl25_hidl_setSlotAsUnbootableEPNS0_10IInterfaceEPNS0_7details16HidlInstrumentorEjNSt3__18functionIFvRKNS2_13CommandResultEEEE
_ZN7android8hardware4boot4V1_015BpHwBootControl28_hidl_isSlotMarkedSuccessfulEPNS0_10IInterfaceEPNS0_7details16HidlInstrumentorEj
_ZN7android8hardware4boot4V1_015BpHwBootControl4pingEv
_ZN7android8hardware4boot4V1_015BpHwBootControl5debugERKNS0_11hidl_handleERKNS0_8hidl_vecINS0_11hidl_stringEEE
_ZN7android8hardware4boot4V1_015BpHwBootControl9getSuffixEjNSt3__18functionIFvRKNS0_11hidl_stringEEEE
_ZN7android8hardware4boot4V1_015BpHwBootControlC1ERKNS_2spINS0_7IBinderEEE
_ZN7android8hardware4boot4V1_015BpHwBootControlC2ERKNS_2spINS0_7IBinderEEE
_ZN7android8hardware4boot4V1_021writeEmbeddedToParcelERKNS2_13CommandResultEPNS0_6ParcelEmm
_ZN7android8hardware4boot4V1_022readEmbeddedFromParcelERKNS2_13CommandResultERKNS0_6ParcelEmm
_ZTCN7android8hardware4boot4V1_012IBootControlE0_NS_4hidl4base4V1_05IBaseE
_ZTCN7android8hardware4boot4V1_015BnHwBootControlE0_NS0_7IBinderE
_ZTCN7android8hardware4boot4V1_015BnHwBootControlE0_NS0_9BHwBinderE
_ZTCN7android8hardware4boot4V1_015BnHwBootControlE0_NS_4hidl4base4V1_08BnHwBaseE
_ZTCN7android8hardware4boot4V1_015BpHwBootControlE0_NS0_11BpInterfaceINS2_12IBootControlEEE
_ZTCN7android8hardware4boot4V1_015BpHwBootControlE0_NS2_12IBootControlE
_ZTCN7android8hardware4boot4V1_015BpHwBootControlE0_NS_4hidl4base4V1_05IBaseE
_ZTCN7android8hardware4boot4V1_015BpHwBootControlE16_NS0_11BpHwRefBaseE
_ZTCN7android8hardware4boot4V1_015BpHwBootControlE8_NS0_10IInterfaceE
_ZTTN7android8hardware4boot4V1_012IBootControlE
_ZTTN7android8hardware4boot4V1_015BnHwBootControlE
_ZTTN7android8hardware4boot4V1_015BpHwBootControlE
_ZTVN7android8hardware4boot4V1_012IBootControlE
_ZTVN7android8hardware4boot4V1_015BnHwBootControlE
_ZTVN7android8hardware4boot4V1_015BpHwBootControlE
_ZThn32_N7android8hardware4boot4V1_015BnHwBootControlD0Ev
_ZThn32_N7android8hardware4boot4V1_015BnHwBootControlD1Ev
_ZTv0_n24_N7android8hardware4boot4V1_015BnHwBootControlD0Ev
_ZTv0_n24_N7android8hardware4boot4V1_015BnHwBootControlD1Ev
