_ZN7android8hardware8graphics8composer4V2_110BsComposer13addOnewayTaskENSt3__18functionIFvvEEE
_ZN7android8hardware8graphics8composer4V2_110BsComposerC1ENS_2spINS3_9IComposerEEE
_ZN7android8hardware8graphics8composer4V2_110BsComposerC2ENS_2spINS3_9IComposerEEE
_ZN7android8hardware8graphics8composer4V2_112BnHwComposer10onTransactEjRKNS0_6ParcelEPS5_jNSt3__18functionIFvRS5_EEE
_ZN7android8hardware8graphics8composer4V2_112BnHwComposer12getDebugInfoENSt3__18functionIFvRKNS_4hidl4base4V1_09DebugInfoEEEE
_ZN7android8hardware8graphics8composer4V2_112BnHwComposer18_hidl_createClientEPNS_4hidl4base4V1_08BnHwBaseERKNS0_6ParcelEPSA_NSt3__18functionIFvRSA_EEE
_ZN7android8hardware8graphics8composer4V2_112BnHwComposer19_hidl_dumpDebugInfoEPNS_4hidl4base4V1_08BnHwBaseERKNS0_6ParcelEPSA_NSt3__18functionIFvRSA_EEE
_ZN7android8hardware8graphics8composer4V2_112BnHwComposer21_hidl_getCapabilitiesEPNS_4hidl4base4V1_08BnHwBaseERKNS0_6ParcelEPSA_NSt3__18functionIFvRSA_EEE
_ZN7android8hardware8graphics8composer4V2_112BnHwComposer4pingEv
_ZN7android8hardware8graphics8composer4V2_112BnHwComposerC1ERKNS_2spINS3_9IComposerEEE
_ZN7android8hardware8graphics8composer4V2_112BnHwComposerC2ERKNS_2spINS3_9IComposerEEE
_ZN7android8hardware8graphics8composer4V2_112BnHwComposerD0Ev
_ZN7android8hardware8graphics8composer4V2_112BnHwComposerD1Ev
_ZN7android8hardware8graphics8composer4V2_112BnHwComposerD2Ev
_ZN7android8hardware8graphics8composer4V2_112BpHwComposer11linkToDeathERKNS_2spINS0_20hidl_death_recipientEEEm
_ZN7android8hardware8graphics8composer4V2_112BpHwComposer12createClientENSt3__18functionIFvNS3_5ErrorERKNS_2spINS3_15IComposerClientEEEEEE
_ZN7android8hardware8graphics8composer4V2_112BpHwComposer12getDebugInfoENSt3__18functionIFvRKNS_4hidl4base4V1_09DebugInfoEEEE
_ZN7android8hardware8graphics8composer4V2_112BpHwComposer12getHashChainENSt3__18functionIFvRKNS0_8hidl_vecINS0_10hidl_arrayIhLm32EJEEEEEEEE
_ZN7android8hardware8graphics8composer4V2_112BpHwComposer13dumpDebugInfoENSt3__18functionIFvRKNS0_11hidl_stringEEEE
_ZN7android8hardware8graphics8composer4V2_112BpHwComposer13unlinkToDeathERKNS_2spINS0_20hidl_death_recipientEEE
_ZN7android8hardware8graphics8composer4V2_112BpHwComposer14interfaceChainENSt3__18functionIFvRKNS0_8hidl_vecINS0_11hidl_stringEEEEEE
_ZN7android8hardware8graphics8composer4V2_112BpHwComposer15getCapabilitiesENSt3__18functionIFvRKNS0_8hidl_vecINS3_9IComposer10CapabilityEEEEEE
_ZN7android8hardware8graphics8composer4V2_112BpHwComposer18_hidl_createClientEPNS0_10IInterfaceEPNS0_7details16HidlInstrumentorENSt3__18functionIFvNS3_5ErrorERKNS_2spINS3_15IComposerClientEEEEEE
_ZN7android8hardware8graphics8composer4V2_112BpHwComposer19_hidl_dumpDebugInfoEPNS0_10IInterfaceEPNS0_7details16HidlInstrumentorENSt3__18functionIFvRKNS0_11hidl_stringEEEE
_ZN7android8hardware8graphics8composer4V2_112BpHwComposer19interfaceDescriptorENSt3__18functionIFvRKNS0_11hidl_stringEEEE
_ZN7android8hardware8graphics8composer4V2_112BpHwComposer21_hidl_getCapabilitiesEPNS0_10IInterfaceEPNS0_7details16HidlInstrumentorENSt3__18functionIFvRKNS0_8hidl_vecINS3_9IComposer10CapabilityEEEEEE
_ZN7android8hardware8graphics8composer4V2_112BpHwComposer21notifySyspropsChangedEv
_ZN7android8hardware8graphics8composer4V2_112BpHwComposer21setHALInstrumentationEv
_ZN7android8hardware8graphics8composer4V2_112BpHwComposer4pingEv
_ZN7android8hardware8graphics8composer4V2_112BpHwComposer5debugERKNS0_11hidl_handleERKNS0_8hidl_vecINS0_11hidl_stringEEE
_ZN7android8hardware8graphics8composer4V2_112BpHwComposerC1ERKNS_2spINS0_7IBinderEEE
_ZN7android8hardware8graphics8composer4V2_112BpHwComposerC2ERKNS_2spINS0_7IBinderEEE
_ZN7android8hardware8graphics8composer4V2_115IComposerClient10descriptorE
_ZN7android8hardware8graphics8composer4V2_115IComposerClient10getServiceERKNSt3__112basic_stringIcNS5_11char_traitsIcEENS5_9allocatorIcEEEEb
_ZN7android8hardware8graphics8composer4V2_115IComposerClient11linkToDeathERKNS_2spINS0_20hidl_death_recipientEEEm
_ZN7android8hardware8graphics8composer4V2_115IComposerClient12getDebugInfoENSt3__18functionIFvRKNS_4hidl4base4V1_09DebugInfoEEEE
_ZN7android8hardware8graphics8composer4V2_115IComposerClient12getHashChainENSt3__18functionIFvRKNS0_8hidl_vecINS0_10hidl_arrayIhLm32EJEEEEEEEE
_ZN7android8hardware8graphics8composer4V2_115IComposerClient13tryGetServiceERKNSt3__112basic_stringIcNS5_11char_traitsIcEENS5_9allocatorIcEEEEb
_ZN7android8hardware8graphics8composer4V2_115IComposerClient13unlinkToDeathERKNS_2spINS0_20hidl_death_recipientEEE
_ZN7android8hardware8graphics8composer4V2_115IComposerClient14interfaceChainENSt3__18functionIFvRKNS0_8hidl_vecINS0_11hidl_stringEEEEEE
_ZN7android8hardware8graphics8composer4V2_115IComposerClient17registerAsServiceERKNSt3__112basic_stringIcNS5_11char_traitsIcEENS5_9allocatorIcEEEE
_ZN7android8hardware8graphics8composer4V2_115IComposerClient19interfaceDescriptorENSt3__18functionIFvRKNS0_11hidl_stringEEEE
_ZN7android8hardware8graphics8composer4V2_115IComposerClient21notifySyspropsChangedEv
_ZN7android8hardware8graphics8composer4V2_115IComposerClient21setHALInstrumentationEv
_ZN7android8hardware8graphics8composer4V2_115IComposerClient24registerForNotificationsERKNSt3__112basic_stringIcNS5_11char_traitsIcEENS5_9allocatorIcEEEERKNS_2spINS_4hidl7manager4V1_020IServiceNotificationEEE
_ZN7android8hardware8graphics8composer4V2_115IComposerClient4pingEv
_ZN7android8hardware8graphics8composer4V2_115IComposerClient5debugERKNS0_11hidl_handleERKNS0_8hidl_vecINS0_11hidl_stringEEE
_ZN7android8hardware8graphics8composer4V2_115IComposerClient8castFromERKNS_2spINS_4hidl4base4V1_05IBaseEEEb
_ZN7android8hardware8graphics8composer4V2_115IComposerClient8castFromERKNS_2spIS4_EEb
_ZN7android8hardware8graphics8composer4V2_116BsComposerClient13addOnewayTaskENSt3__18functionIFvvEEE
_ZN7android8hardware8graphics8composer4V2_116BsComposerClientC1ENS_2spINS3_15IComposerClientEEE
_ZN7android8hardware8graphics8composer4V2_116BsComposerClientC2ENS_2spINS3_15IComposerClientEEE
_ZN7android8hardware8graphics8composer4V2_117IComposerCallback10descriptorE
_ZN7android8hardware8graphics8composer4V2_117IComposerCallback10getServiceERKNSt3__112basic_stringIcNS5_11char_traitsIcEENS5_9allocatorIcEEEEb
_ZN7android8hardware8graphics8composer4V2_117IComposerCallback11linkToDeathERKNS_2spINS0_20hidl_death_recipientEEEm
_ZN7android8hardware8graphics8composer4V2_117IComposerCallback12getDebugInfoENSt3__18functionIFvRKNS_4hidl4base4V1_09DebugInfoEEEE
_ZN7android8hardware8graphics8composer4V2_117IComposerCallback12getHashChainENSt3__18functionIFvRKNS0_8hidl_vecINS0_10hidl_arrayIhLm32EJEEEEEEEE
_ZN7android8hardware8graphics8composer4V2_117IComposerCallback13tryGetServiceERKNSt3__112basic_stringIcNS5_11char_traitsIcEENS5_9allocatorIcEEEEb
_ZN7android8hardware8graphics8composer4V2_117IComposerCallback13unlinkToDeathERKNS_2spINS0_20hidl_death_recipientEEE
_ZN7android8hardware8graphics8composer4V2_117IComposerCallback14interfaceChainENSt3__18functionIFvRKNS0_8hidl_vecINS0_11hidl_stringEEEEEE
_ZN7android8hardware8graphics8composer4V2_117IComposerCallback17registerAsServiceERKNSt3__112basic_stringIcNS5_11char_traitsIcEENS5_9allocatorIcEEEE
_ZN7android8hardware8graphics8composer4V2_117IComposerCallback19interfaceDescriptorENSt3__18functionIFvRKNS0_11hidl_stringEEEE
_ZN7android8hardware8graphics8composer4V2_117IComposerCallback21notifySyspropsChangedEv
_ZN7android8hardware8graphics8composer4V2_117IComposerCallback21setHALInstrumentationEv
_ZN7android8hardware8graphics8composer4V2_117IComposerCallback24registerForNotificationsERKNSt3__112basic_stringIcNS5_11char_traitsIcEENS5_9allocatorIcEEEERKNS_2spINS_4hidl7manager4V1_020IServiceNotificationEEE
_ZN7android8hardware8graphics8composer4V2_117IComposerCallback4pingEv
_ZN7android8hardware8graphics8composer4V2_117IComposerCallback5debugERKNS0_11hidl_handleERKNS0_8hidl_vecINS0_11hidl_stringEEE
_ZN7android8hardware8graphics8composer4V2_117IComposerCallback8castFromERKNS_2spINS_4hidl4base4V1_05IBaseEEEb
_ZN7android8hardware8graphics8composer4V2_117IComposerCallback8castFromERKNS_2spIS4_EEb
_ZN7android8hardware8graphics8composer4V2_118BnHwComposerClient10onTransactEjRKNS0_6ParcelEPS5_jNSt3__18functionIFvRS5_EEE
_ZN7android8hardware8graphics8composer4V2_118BnHwComposerClient12getDebugInfoENSt3__18functionIFvRKNS_4hidl4base4V1_09DebugInfoEEEE
_ZN7android8hardware8graphics8composer4V2_118BnHwComposerClient17_hidl_createLayerEPNS_4hidl4base4V1_08BnHwBaseERKNS0_6ParcelEPSA_NSt3__18functionIFvRSA_EEE
_ZN7android8hardware8graphics8composer4V2_118BnHwComposerClient18_hidl_destroyLayerEPNS_4hidl4base4V1_08BnHwBaseERKNS0_6ParcelEPSA_NSt3__18functionIFvRSA_EEE
_ZN7android8hardware8graphics8composer4V2_118BnHwComposerClient18_hidl_setColorModeEPNS_4hidl4base4V1_08BnHwBaseERKNS0_6ParcelEPSA_NSt3__18functionIFvRSA_EEE
_ZN7android8hardware8graphics8composer4V2_118BnHwComposerClient18_hidl_setPowerModeEPNS_4hidl4base4V1_08BnHwBaseERKNS0_6ParcelEPSA_NSt3__18functionIFvRSA_EEE
_ZN7android8hardware8graphics8composer4V2_118BnHwComposerClient19_hidl_getColorModesEPNS_4hidl4base4V1_08BnHwBaseERKNS0_6ParcelEPSA_NSt3__18functionIFvRSA_EEE
_ZN7android8hardware8graphics8composer4V2_118BnHwComposerClient20_hidl_getDisplayNameEPNS_4hidl4base4V1_08BnHwBaseERKNS0_6ParcelEPSA_NSt3__18functionIFvRSA_EEE
_ZN7android8hardware8graphics8composer4V2_118BnHwComposerClient20_hidl_getDisplayTypeEPNS_4hidl4base4V1_08BnHwBaseERKNS0_6ParcelEPSA_NSt3__18functionIFvRSA_EEE
_ZN7android8hardware8graphics8composer4V2_118BnHwComposerClient20_hidl_getDozeSupportEPNS_4hidl4base4V1_08BnHwBaseERKNS0_6ParcelEPSA_NSt3__18functionIFvRSA_EEE
_ZN7android8hardware8graphics8composer4V2_118BnHwComposerClient21_hidl_executeCommandsEPNS_4hidl4base4V1_08BnHwBaseERKNS0_6ParcelEPSA_NSt3__18functionIFvRSA_EEE
_ZN7android8hardware8graphics8composer4V2_118BnHwComposerClient21_hidl_getActiveConfigEPNS_4hidl4base4V1_08BnHwBaseERKNS0_6ParcelEPSA_NSt3__18functionIFvRSA_EEE
_ZN7android8hardware8graphics8composer4V2_118BnHwComposerClient21_hidl_setActiveConfigEPNS_4hidl4base4V1_08BnHwBaseERKNS0_6ParcelEPSA_NSt3__18functionIFvRSA_EEE
_ZN7android8hardware8graphics8composer4V2_118BnHwComposerClient21_hidl_setVsyncEnabledEPNS_4hidl4base4V1_08BnHwBaseERKNS0_6ParcelEPSA_NSt3__18functionIFvRSA_EEE
_ZN7android8hardware8graphics8composer4V2_118BnHwComposerClient22_hidl_registerCallbackEPNS_4hidl4base4V1_08BnHwBaseERKNS0_6ParcelEPSA_NSt3__18functionIFvRSA_EEE
_ZN7android8hardware8graphics8composer4V2_118BnHwComposerClient23_hidl_getDisplayConfigsEPNS_4hidl4base4V1_08BnHwBaseERKNS0_6ParcelEPSA_NSt3__18functionIFvRSA_EEE
_ZN7android8hardware8graphics8composer4V2_118BnHwComposerClient24_hidl_getHdrCapabilitiesEPNS_4hidl4base4V1_08BnHwBaseERKNS0_6ParcelEPSA_NSt3__18functionIFvRSA_EEE
_ZN7android8hardware8graphics8composer4V2_118BnHwComposerClient25_hidl_getDisplayAttributeEPNS_4hidl4base4V1_08BnHwBaseERKNS0_6ParcelEPSA_NSt3__18functionIFvRSA_EEE
_ZN7android8hardware8graphics8composer4V2_118BnHwComposerClient26_hidl_createVirtualDisplayEPNS_4hidl4base4V1_08BnHwBaseERKNS0_6ParcelEPSA_NSt3__18functionIFvRSA_EEE
_ZN7android8hardware8graphics8composer4V2_118BnHwComposerClient26_hidl_setInputCommandQueueEPNS_4hidl4base4V1_08BnHwBaseERKNS0_6ParcelEPSA_NSt3__18functionIFvRSA_EEE
_ZN7android8hardware8graphics8composer4V2_118BnHwComposerClient27_hidl_destroyVirtualDisplayEPNS_4hidl4base4V1_08BnHwBaseERKNS0_6ParcelEPSA_NSt3__18functionIFvRSA_EEE
_ZN7android8hardware8graphics8composer4V2_118BnHwComposerClient27_hidl_getOutputCommandQueueEPNS_4hidl4base4V1_08BnHwBaseERKNS0_6ParcelEPSA_NSt3__18functionIFvRSA_EEE
_ZN7android8hardware8graphics8composer4V2_118BnHwComposerClient28_hidl_getClientTargetSupportEPNS_4hidl4base4V1_08BnHwBaseERKNS0_6ParcelEPSA_NSt3__18functionIFvRSA_EEE
_ZN7android8hardware8graphics8composer4V2_118BnHwComposerClient30_hidl_setClientTargetSlotCountEPNS_4hidl4base4V1_08BnHwBaseERKNS0_6ParcelEPSA_NSt3__18functionIFvRSA_EEE
_ZN7android8hardware8graphics8composer4V2_118BnHwComposerClient31_hidl_getMaxVirtualDisplayCountEPNS_4hidl4base4V1_08BnHwBaseERKNS0_6ParcelEPSA_NSt3__18functionIFvRSA_EEE
_ZN7android8hardware8graphics8composer4V2_118BnHwComposerClient4pingEv
_ZN7android8hardware8graphics8composer4V2_118BnHwComposerClientC1ERKNS_2spINS3_15IComposerClientEEE
_ZN7android8hardware8graphics8composer4V2_118BnHwComposerClientC2ERKNS_2spINS3_15IComposerClientEEE
_ZN7android8hardware8graphics8composer4V2_118BnHwComposerClientD0Ev
_ZN7android8hardware8graphics8composer4V2_118BnHwComposerClientD1Ev
_ZN7android8hardware8graphics8composer4V2_118BnHwComposerClientD2Ev
_ZN7android8hardware8graphics8composer4V2_118BpHwComposerClient11createLayerEmjNSt3__18functionIFvNS3_5ErrorEmEEE
_ZN7android8hardware8graphics8composer4V2_118BpHwComposerClient11linkToDeathERKNS_2spINS0_20hidl_death_recipientEEEm
_ZN7android8hardware8graphics8composer4V2_118BpHwComposerClient12destroyLayerEmm
_ZN7android8hardware8graphics8composer4V2_118BpHwComposerClient12getDebugInfoENSt3__18functionIFvRKNS_4hidl4base4V1_09DebugInfoEEEE
_ZN7android8hardware8graphics8composer4V2_118BpHwComposerClient12getHashChainENSt3__18functionIFvRKNS0_8hidl_vecINS0_10hidl_arrayIhLm32EJEEEEEEEE
_ZN7android8hardware8graphics8composer4V2_118BpHwComposerClient12setColorModeEmNS1_6common4V1_09ColorModeE
_ZN7android8hardware8graphics8composer4V2_118BpHwComposerClient12setPowerModeEmNS3_15IComposerClient9PowerModeE
_ZN7android8hardware8graphics8composer4V2_118BpHwComposerClient13getColorModesEmNSt3__18functionIFvNS3_5ErrorERKNS0_8hidl_vecINS1_6common4V1_09ColorModeEEEEEE
_ZN7android8hardware8graphics8composer4V2_118BpHwComposerClient13unlinkToDeathERKNS_2spINS0_20hidl_death_recipientEEE
_ZN7android8hardware8graphics8composer4V2_118BpHwComposerClient14getDisplayNameEmNSt3__18functionIFvNS3_5ErrorERKNS0_11hidl_stringEEEE
_ZN7android8hardware8graphics8composer4V2_118BpHwComposerClient14getDisplayTypeEmNSt3__18functionIFvNS3_5ErrorENS3_15IComposerClient11DisplayTypeEEEE
_ZN7android8hardware8graphics8composer4V2_118BpHwComposerClient14getDozeSupportEmNSt3__18functionIFvNS3_5ErrorEbEEE
_ZN7android8hardware8graphics8composer4V2_118BpHwComposerClient14interfaceChainENSt3__18functionIFvRKNS0_8hidl_vecINS0_11hidl_stringEEEEEE
_ZN7android8hardware8graphics8composer4V2_118BpHwComposerClient15executeCommandsEjRKNS0_8hidl_vecINS0_11hidl_handleEEENSt3__18functionIFvNS3_5ErrorEbjS9_EEE
_ZN7android8hardware8graphics8composer4V2_118BpHwComposerClient15getActiveConfigEmNSt3__18functionIFvNS3_5ErrorEjEEE
_ZN7android8hardware8graphics8composer4V2_118BpHwComposerClient15setActiveConfigEmj
_ZN7android8hardware8graphics8composer4V2_118BpHwComposerClient15setVsyncEnabledEmNS3_15IComposerClient5VsyncE
_ZN7android8hardware8graphics8composer4V2_118BpHwComposerClient16registerCallbackERKNS_2spINS3_17IComposerCallbackEEE
_ZN7android8hardware8graphics8composer4V2_118BpHwComposerClient17_hidl_createLayerEPNS0_10IInterfaceEPNS0_7details16HidlInstrumentorEmjNSt3__18functionIFvNS3_5ErrorEmEEE
_ZN7android8hardware8graphics8composer4V2_118BpHwComposerClient17getDisplayConfigsEmNSt3__18functionIFvNS3_5ErrorERKNS0_8hidl_vecIjEEEEE
_ZN7android8hardware8graphics8composer4V2_118BpHwComposerClient18_hidl_destroyLayerEPNS0_10IInterfaceEPNS0_7details16HidlInstrumentorEmm
_ZN7android8hardware8graphics8composer4V2_118BpHwComposerClient18_hidl_setColorModeEPNS0_10IInterfaceEPNS0_7details16HidlInstrumentorEmNS1_6common4V1_09ColorModeE
_ZN7android8hardware8graphics8composer4V2_118BpHwComposerClient18_hidl_setPowerModeEPNS0_10IInterfaceEPNS0_7details16HidlInstrumentorEmNS3_15IComposerClient9PowerModeE
_ZN7android8hardware8graphics8composer4V2_118BpHwComposerClient18getHdrCapabilitiesEmNSt3__18functionIFvNS3_5ErrorERKNS0_8hidl_vecINS1_6common4V1_03HdrEEEfffEEE
_ZN7android8hardware8graphics8composer4V2_118BpHwComposerClient19_hidl_getColorModesEPNS0_10IInterfaceEPNS0_7details16HidlInstrumentorEmNSt3__18functionIFvNS3_5ErrorERKNS0_8hidl_vecINS1_6common4V1_09ColorModeEEEEEE
_ZN7android8hardware8graphics8composer4V2_118BpHwComposerClient19getDisplayAttributeEmjNS3_15IComposerClient9AttributeENSt3__18functionIFvNS3_5ErrorEiEEE
_ZN7android8hardware8graphics8composer4V2_118BpHwComposerClient19interfaceDescriptorENSt3__18functionIFvRKNS0_11hidl_stringEEEE
_ZN7android8hardware8graphics8composer4V2_118BpHwComposerClient20_hidl_getDisplayNameEPNS0_10IInterfaceEPNS0_7details16HidlInstrumentorEmNSt3__18functionIFvNS3_5ErrorERKNS0_11hidl_stringEEEE
_ZN7android8hardware8graphics8composer4V2_118BpHwComposerClient20_hidl_getDisplayTypeEPNS0_10IInterfaceEPNS0_7details16HidlInstrumentorEmNSt3__18functionIFvNS3_5ErrorENS3_15IComposerClient11DisplayTypeEEEE
_ZN7android8hardware8graphics8composer4V2_118BpHwComposerClient20_hidl_getDozeSupportEPNS0_10IInterfaceEPNS0_7details16HidlInstrumentorEmNSt3__18functionIFvNS3_5ErrorEbEEE
_ZN7android8hardware8graphics8composer4V2_118BpHwComposerClient20createVirtualDisplayEjjNS1_6common4V1_011PixelFormatEjNSt3__18functionIFvNS3_5ErrorEmS7_EEE
_ZN7android8hardware8graphics8composer4V2_118BpHwComposerClient20setInputCommandQueueERKNS0_12MQDescriptorIjLNS0_8MQFlavorE1EEE
_ZN7android8hardware8graphics8composer4V2_118BpHwComposerClient21_hidl_executeCommandsEPNS0_10IInterfaceEPNS0_7details16HidlInstrumentorEjRKNS0_8hidl_vecINS0_11hidl_handleEEENSt3__18functionIFvNS3_5ErrorEbjSE_EEE
_ZN7android8hardware8graphics8composer4V2_118BpHwComposerClient21_hidl_getActiveConfigEPNS0_10IInterfaceEPNS0_7details16HidlInstrumentorEmNSt3__18functionIFvNS3_5ErrorEjEEE
_ZN7android8hardware8graphics8composer4V2_118BpHwComposerClient21_hidl_setActiveConfigEPNS0_10IInterfaceEPNS0_7details16HidlInstrumentorEmj
_ZN7android8hardware8graphics8composer4V2_118BpHwComposerClient21_hidl_setVsyncEnabledEPNS0_10IInterfaceEPNS0_7details16HidlInstrumentorEmNS3_15IComposerClient5VsyncE
_ZN7android8hardware8graphics8composer4V2_118BpHwComposerClient21destroyVirtualDisplayEm
_ZN7android8hardware8graphics8composer4V2_118BpHwComposerClient21getOutputCommandQueueENSt3__18functionIFvNS3_5ErrorERKNS0_12MQDescriptorIjLNS0_8MQFlavorE1EEEEEE
_ZN7android8hardware8graphics8composer4V2_118BpHwComposerClient21notifySyspropsChangedEv
_ZN7android8hardware8graphics8composer4V2_118BpHwComposerClient21setHALInstrumentationEv
_ZN7android8hardware8graphics8composer4V2_118BpHwComposerClient22_hidl_registerCallbackEPNS0_10IInterfaceEPNS0_7details16HidlInstrumentorERKNS_2spINS3_17IComposerCallbackEEE
_ZN7android8hardware8graphics8composer4V2_118BpHwComposerClient22getClientTargetSupportEmjjNS1_6common4V1_011PixelFormatENS6_9DataspaceE
_ZN7android8hardware8graphics8composer4V2_118BpHwComposerClient23_hidl_getDisplayConfigsEPNS0_10IInterfaceEPNS0_7details16HidlInstrumentorEmNSt3__18functionIFvNS3_5ErrorERKNS0_8hidl_vecIjEEEEE
_ZN7android8hardware8graphics8composer4V2_118BpHwComposerClient24_hidl_getHdrCapabilitiesEPNS0_10IInterfaceEPNS0_7details16HidlInstrumentorEmNSt3__18functionIFvNS3_5ErrorERKNS0_8hidl_vecINS1_6common4V1_03HdrEEEfffEEE
_ZN7android8hardware8graphics8composer4V2_118BpHwComposerClient24setClientTargetSlotCountEmj
_ZN7android8hardware8graphics8composer4V2_118BpHwComposerClient25_hidl_getDisplayAttributeEPNS0_10IInterfaceEPNS0_7details16HidlInstrumentorEmjNS3_15IComposerClient9AttributeENSt3__18functionIFvNS3_5ErrorEiEEE
_ZN7android8hardware8graphics8composer4V2_118BpHwComposerClient25getMaxVirtualDisplayCountEv
_ZN7android8hardware8graphics8composer4V2_118BpHwComposerClient26_hidl_createVirtualDisplayEPNS0_10IInterfaceEPNS0_7details16HidlInstrumentorEjjNS1_6common4V1_011PixelFormatEjNSt3__18functionIFvNS3_5ErrorEmSC_EEE
_ZN7android8hardware8graphics8composer4V2_118BpHwComposerClient26_hidl_setInputCommandQueueEPNS0_10IInterfaceEPNS0_7details16HidlInstrumentorERKNS0_12MQDescriptorIjLNS0_8MQFlavorE1EEE
_ZN7android8hardware8graphics8composer4V2_118BpHwComposerClient27_hidl_destroyVirtualDisplayEPNS0_10IInterfaceEPNS0_7details16HidlInstrumentorEm
_ZN7android8hardware8graphics8composer4V2_118BpHwComposerClient27_hidl_getOutputCommandQueueEPNS0_10IInterfaceEPNS0_7details16HidlInstrumentorENSt3__18functionIFvNS3_5ErrorERKNS0_12MQDescriptorIjLNS0_8MQFlavorE1EEEEEE
_ZN7android8hardware8graphics8composer4V2_118BpHwComposerClient28_hidl_getClientTargetSupportEPNS0_10IInterfaceEPNS0_7details16HidlInstrumentorEmjjNS1_6common4V1_011PixelFormatENSB_9DataspaceE
_ZN7android8hardware8graphics8composer4V2_118BpHwComposerClient30_hidl_setClientTargetSlotCountEPNS0_10IInterfaceEPNS0_7details16HidlInstrumentorEmj
_ZN7android8hardware8graphics8composer4V2_118BpHwComposerClient31_hidl_getMaxVirtualDisplayCountEPNS0_10IInterfaceEPNS0_7details16HidlInstrumentorE
_ZN7android8hardware8graphics8composer4V2_118BpHwComposerClient4pingEv
_ZN7android8hardware8graphics8composer4V2_118BpHwComposerClient5debugERKNS0_11hidl_handleERKNS0_8hidl_vecINS0_11hidl_stringEEE
_ZN7android8hardware8graphics8composer4V2_118BpHwComposerClientC1ERKNS_2spINS0_7IBinderEEE
_ZN7android8hardware8graphics8composer4V2_118BpHwComposerClientC2ERKNS_2spINS0_7IBinderEEE
_ZN7android8hardware8graphics8composer4V2_118BsComposerCallback13addOnewayTaskENSt3__18functionIFvvEEE
_ZN7android8hardware8graphics8composer4V2_118BsComposerCallbackC1ENS_2spINS3_17IComposerCallbackEEE
_ZN7android8hardware8graphics8composer4V2_118BsComposerCallbackC2ENS_2spINS3_17IComposerCallbackEEE
_ZN7android8hardware8graphics8composer4V2_120BnHwComposerCallback10onTransactEjRKNS0_6ParcelEPS5_jNSt3__18functionIFvRS5_EEE
_ZN7android8hardware8graphics8composer4V2_120BnHwComposerCallback12getDebugInfoENSt3__18functionIFvRKNS_4hidl4base4V1_09DebugInfoEEEE
_ZN7android8hardware8graphics8composer4V2_120BnHwComposerCallback13_hidl_onVsyncEPNS_4hidl4base4V1_08BnHwBaseERKNS0_6ParcelEPSA_NSt3__18functionIFvRSA_EEE
_ZN7android8hardware8graphics8composer4V2_120BnHwComposerCallback15_hidl_onHotplugEPNS_4hidl4base4V1_08BnHwBaseERKNS0_6ParcelEPSA_NSt3__18functionIFvRSA_EEE
_ZN7android8hardware8graphics8composer4V2_120BnHwComposerCallback15_hidl_onRefreshEPNS_4hidl4base4V1_08BnHwBaseERKNS0_6ParcelEPSA_NSt3__18functionIFvRSA_EEE
_ZN7android8hardware8graphics8composer4V2_120BnHwComposerCallback4pingEv
_ZN7android8hardware8graphics8composer4V2_120BnHwComposerCallbackC1ERKNS_2spINS3_17IComposerCallbackEEE
_ZN7android8hardware8graphics8composer4V2_120BnHwComposerCallbackC2ERKNS_2spINS3_17IComposerCallbackEEE
_ZN7android8hardware8graphics8composer4V2_120BnHwComposerCallbackD0Ev
_ZN7android8hardware8graphics8composer4V2_120BnHwComposerCallbackD1Ev
_ZN7android8hardware8graphics8composer4V2_120BnHwComposerCallbackD2Ev
_ZN7android8hardware8graphics8composer4V2_120BpHwComposerCallback11linkToDeathERKNS_2spINS0_20hidl_death_recipientEEEm
_ZN7android8hardware8graphics8composer4V2_120BpHwComposerCallback12getDebugInfoENSt3__18functionIFvRKNS_4hidl4base4V1_09DebugInfoEEEE
_ZN7android8hardware8graphics8composer4V2_120BpHwComposerCallback12getHashChainENSt3__18functionIFvRKNS0_8hidl_vecINS0_10hidl_arrayIhLm32EJEEEEEEEE
_ZN7android8hardware8graphics8composer4V2_120BpHwComposerCallback13_hidl_onVsyncEPNS0_10IInterfaceEPNS0_7details16HidlInstrumentorEml
_ZN7android8hardware8graphics8composer4V2_120BpHwComposerCallback13unlinkToDeathERKNS_2spINS0_20hidl_death_recipientEEE
_ZN7android8hardware8graphics8composer4V2_120BpHwComposerCallback14interfaceChainENSt3__18functionIFvRKNS0_8hidl_vecINS0_11hidl_stringEEEEEE
_ZN7android8hardware8graphics8composer4V2_120BpHwComposerCallback15_hidl_onHotplugEPNS0_10IInterfaceEPNS0_7details16HidlInstrumentorEmNS3_17IComposerCallback10ConnectionE
_ZN7android8hardware8graphics8composer4V2_120BpHwComposerCallback15_hidl_onRefreshEPNS0_10IInterfaceEPNS0_7details16HidlInstrumentorEm
_ZN7android8hardware8graphics8composer4V2_120BpHwComposerCallback19interfaceDescriptorENSt3__18functionIFvRKNS0_11hidl_stringEEEE
_ZN7android8hardware8graphics8composer4V2_120BpHwComposerCallback21notifySyspropsChangedEv
_ZN7android8hardware8graphics8composer4V2_120BpHwComposerCallback21setHALInstrumentationEv
_ZN7android8hardware8graphics8composer4V2_120BpHwComposerCallback4pingEv
_ZN7android8hardware8graphics8composer4V2_120BpHwComposerCallback5debugERKNS0_11hidl_handleERKNS0_8hidl_vecINS0_11hidl_stringEEE
_ZN7android8hardware8graphics8composer4V2_120BpHwComposerCallback7onVsyncEml
_ZN7android8hardware8graphics8composer4V2_120BpHwComposerCallback9onHotplugEmNS3_17IComposerCallback10ConnectionE
_ZN7android8hardware8graphics8composer4V2_120BpHwComposerCallback9onRefreshEm
_ZN7android8hardware8graphics8composer4V2_120BpHwComposerCallbackC1ERKNS_2spINS0_7IBinderEEE
_ZN7android8hardware8graphics8composer4V2_120BpHwComposerCallbackC2ERKNS_2spINS0_7IBinderEEE
_ZN7android8hardware8graphics8composer4V2_19IComposer10descriptorE
_ZN7android8hardware8graphics8composer4V2_19IComposer10getServiceERKNSt3__112basic_stringIcNS5_11char_traitsIcEENS5_9allocatorIcEEEEb
_ZN7android8hardware8graphics8composer4V2_19IComposer11linkToDeathERKNS_2spINS0_20hidl_death_recipientEEEm
_ZN7android8hardware8graphics8composer4V2_19IComposer12getDebugInfoENSt3__18functionIFvRKNS_4hidl4base4V1_09DebugInfoEEEE
_ZN7android8hardware8graphics8composer4V2_19IComposer12getHashChainENSt3__18functionIFvRKNS0_8hidl_vecINS0_10hidl_arrayIhLm32EJEEEEEEEE
_ZN7android8hardware8graphics8composer4V2_19IComposer13tryGetServiceERKNSt3__112basic_stringIcNS5_11char_traitsIcEENS5_9allocatorIcEEEEb
_ZN7android8hardware8graphics8composer4V2_19IComposer13unlinkToDeathERKNS_2spINS0_20hidl_death_recipientEEE
_ZN7android8hardware8graphics8composer4V2_19IComposer14interfaceChainENSt3__18functionIFvRKNS0_8hidl_vecINS0_11hidl_stringEEEEEE
_ZN7android8hardware8graphics8composer4V2_19IComposer17registerAsServiceERKNSt3__112basic_stringIcNS5_11char_traitsIcEENS5_9allocatorIcEEEE
_ZN7android8hardware8graphics8composer4V2_19IComposer19interfaceDescriptorENSt3__18functionIFvRKNS0_11hidl_stringEEEE
_ZN7android8hardware8graphics8composer4V2_19IComposer21notifySyspropsChangedEv
_ZN7android8hardware8graphics8composer4V2_19IComposer21setHALInstrumentationEv
_ZN7android8hardware8graphics8composer4V2_19IComposer24registerForNotificationsERKNSt3__112basic_stringIcNS5_11char_traitsIcEENS5_9allocatorIcEEEERKNS_2spINS_4hidl7manager4V1_020IServiceNotificationEEE
_ZN7android8hardware8graphics8composer4V2_19IComposer4pingEv
_ZN7android8hardware8graphics8composer4V2_19IComposer5debugERKNS0_11hidl_handleERKNS0_8hidl_vecINS0_11hidl_stringEEE
_ZN7android8hardware8graphics8composer4V2_19IComposer8castFromERKNS_2spINS_4hidl4base4V1_05IBaseEEEb
_ZN7android8hardware8graphics8composer4V2_19IComposer8castFromERKNS_2spIS4_EEb
_ZTCN7android8hardware8graphics8composer4V2_112BnHwComposerE0_NS0_7IBinderE
_ZTCN7android8hardware8graphics8composer4V2_112BnHwComposerE0_NS0_9BHwBinderE
_ZTCN7android8hardware8graphics8composer4V2_112BnHwComposerE0_NS_4hidl4base4V1_08BnHwBaseE
_ZTCN7android8hardware8graphics8composer4V2_112BpHwComposerE0_NS0_11BpInterfaceINS3_9IComposerEEE
_ZTCN7android8hardware8graphics8composer4V2_112BpHwComposerE0_NS3_9IComposerE
_ZTCN7android8hardware8graphics8composer4V2_112BpHwComposerE0_NS_4hidl4base4V1_05IBaseE
_ZTCN7android8hardware8graphics8composer4V2_112BpHwComposerE16_NS0_11BpHwRefBaseE
_ZTCN7android8hardware8graphics8composer4V2_112BpHwComposerE8_NS0_10IInterfaceE
_ZTCN7android8hardware8graphics8composer4V2_115IComposerClientE0_NS_4hidl4base4V1_05IBaseE
_ZTCN7android8hardware8graphics8composer4V2_117IComposerCallbackE0_NS_4hidl4base4V1_05IBaseE
_ZTCN7android8hardware8graphics8composer4V2_118BnHwComposerClientE0_NS0_7IBinderE
_ZTCN7android8hardware8graphics8composer4V2_118BnHwComposerClientE0_NS0_9BHwBinderE
_ZTCN7android8hardware8graphics8composer4V2_118BnHwComposerClientE0_NS_4hidl4base4V1_08BnHwBaseE
_ZTCN7android8hardware8graphics8composer4V2_118BpHwComposerClientE0_NS0_11BpInterfaceINS3_15IComposerClientEEE
_ZTCN7android8hardware8graphics8composer4V2_118BpHwComposerClientE0_NS3_15IComposerClientE
_ZTCN7android8hardware8graphics8composer4V2_118BpHwComposerClientE0_NS_4hidl4base4V1_05IBaseE
_ZTCN7android8hardware8graphics8composer4V2_118BpHwComposerClientE16_NS0_11BpHwRefBaseE
_ZTCN7android8hardware8graphics8composer4V2_118BpHwComposerClientE8_NS0_10IInterfaceE
_ZTCN7android8hardware8graphics8composer4V2_120BnHwComposerCallbackE0_NS0_7IBinderE
_ZTCN7android8hardware8graphics8composer4V2_120BnHwComposerCallbackE0_NS0_9BHwBinderE
_ZTCN7android8hardware8graphics8composer4V2_120BnHwComposerCallbackE0_NS_4hidl4base4V1_08BnHwBaseE
_ZTCN7android8hardware8graphics8composer4V2_120BpHwComposerCallbackE0_NS0_11BpInterfaceINS3_17IComposerCallbackEEE
_ZTCN7android8hardware8graphics8composer4V2_120BpHwComposerCallbackE0_NS3_17IComposerCallbackE
_ZTCN7android8hardware8graphics8composer4V2_120BpHwComposerCallbackE0_NS_4hidl4base4V1_05IBaseE
_ZTCN7android8hardware8graphics8composer4V2_120BpHwComposerCallbackE16_NS0_11BpHwRefBaseE
_ZTCN7android8hardware8graphics8composer4V2_120BpHwComposerCallbackE8_NS0_10IInterfaceE
_ZTCN7android8hardware8graphics8composer4V2_19IComposerE0_NS_4hidl4base4V1_05IBaseE
_ZTTN7android8hardware8graphics8composer4V2_112BnHwComposerE
_ZTTN7android8hardware8graphics8composer4V2_112BpHwComposerE
_ZTTN7android8hardware8graphics8composer4V2_115IComposerClientE
_ZTTN7android8hardware8graphics8composer4V2_117IComposerCallbackE
_ZTTN7android8hardware8graphics8composer4V2_118BnHwComposerClientE
_ZTTN7android8hardware8graphics8composer4V2_118BpHwComposerClientE
_ZTTN7android8hardware8graphics8composer4V2_120BnHwComposerCallbackE
_ZTTN7android8hardware8graphics8composer4V2_120BpHwComposerCallbackE
_ZTTN7android8hardware8graphics8composer4V2_19IComposerE
_ZTVN7android8hardware8graphics8composer4V2_112BnHwComposerE
_ZTVN7android8hardware8graphics8composer4V2_112BpHwComposerE
_ZTVN7android8hardware8graphics8composer4V2_115IComposerClientE
_ZTVN7android8hardware8graphics8composer4V2_117IComposerCallbackE
_ZTVN7android8hardware8graphics8composer4V2_118BnHwComposerClientE
_ZTVN7android8hardware8graphics8composer4V2_118BpHwComposerClientE
_ZTVN7android8hardware8graphics8composer4V2_120BnHwComposerCallbackE
_ZTVN7android8hardware8graphics8composer4V2_120BpHwComposerCallbackE
_ZTVN7android8hardware8graphics8composer4V2_19IComposerE
_ZThn32_N7android8hardware8graphics8composer4V2_112BnHwComposerD0Ev
_ZThn32_N7android8hardware8graphics8composer4V2_112BnHwComposerD1Ev
_ZThn32_N7android8hardware8graphics8composer4V2_118BnHwComposerClientD0Ev
_ZThn32_N7android8hardware8graphics8composer4V2_118BnHwComposerClientD1Ev
_ZThn32_N7android8hardware8graphics8composer4V2_120BnHwComposerCallbackD0Ev
_ZThn32_N7android8hardware8graphics8composer4V2_120BnHwComposerCallbackD1Ev
_ZTv0_n24_N7android8hardware8graphics8composer4V2_112BnHwComposerD0Ev
_ZTv0_n24_N7android8hardware8graphics8composer4V2_112BnHwComposerD1Ev
_ZTv0_n24_N7android8hardware8graphics8composer4V2_118BnHwComposerClientD0Ev
_ZTv0_n24_N7android8hardware8graphics8composer4V2_118BnHwComposerClientD1Ev
_ZTv0_n24_N7android8hardware8graphics8composer4V2_120BnHwComposerCallbackD0Ev
_ZTv0_n24_N7android8hardware8graphics8composer4V2_120BnHwComposerCallbackD1Ev
