_ZN7android8hardware14confirmationui4V1_015IConfirmationUI10descriptorE
_ZN7android8hardware14confirmationui4V1_015IConfirmationUI10getServiceERKNSt3__112basic_stringIcNS4_11char_traitsIcEENS4_9allocatorIcEEEEb
_ZN7android8hardware14confirmationui4V1_015IConfirmationUI11linkToDeathERKNS_2spINS0_20hidl_death_recipientEEEm
_ZN7android8hardware14confirmationui4V1_015IConfirmationUI12getDebugInfoENSt3__18functionIFvRKNS_4hidl4base4V1_09DebugInfoEEEE
_ZN7android8hardware14confirmationui4V1_015IConfirmationUI12getHashChainENSt3__18functionIFvRKNS0_8hidl_vecINS0_10hidl_arrayIhLm32EJEEEEEEEE
_ZN7android8hardware14confirmationui4V1_015IConfirmationUI13tryGetServiceERKNSt3__112basic_stringIcNS4_11char_traitsIcEENS4_9allocatorIcEEEEb
_ZN7android8hardware14confirmationui4V1_015IConfirmationUI13unlinkToDeathERKNS_2spINS0_20hidl_death_recipientEEE
_ZN7android8hardware14confirmationui4V1_015IConfirmationUI14interfaceChainENSt3__18functionIFvRKNS0_8hidl_vecINS0_11hidl_stringEEEEEE
_ZN7android8hardware14confirmationui4V1_015IConfirmationUI17registerAsServiceERKNSt3__112basic_stringIcNS4_11char_traitsIcEENS4_9allocatorIcEEEE
_ZN7android8hardware14confirmationui4V1_015IConfirmationUI19interfaceDescriptorENSt3__18functionIFvRKNS0_11hidl_stringEEEE
_ZN7android8hardware14confirmationui4V1_015IConfirmationUI21notifySyspropsChangedEv
_ZN7android8hardware14confirmationui4V1_015IConfirmationUI21setHALInstrumentationEv
_ZN7android8hardware14confirmationui4V1_015IConfirmationUI24registerForNotificationsERKNSt3__112basic_stringIcNS4_11char_traitsIcEENS4_9allocatorIcEEEERKNS_2spINS_4hidl7manager4V1_020IServiceNotificationEEE
_ZN7android8hardware14confirmationui4V1_015IConfirmationUI4pingEv
_ZN7android8hardware14confirmationui4V1_015IConfirmationUI5debugERKNS0_11hidl_handleERKNS0_8hidl_vecINS0_11hidl_stringEEE
_ZN7android8hardware14confirmationui4V1_015IConfirmationUI8castFromERKNS_2spINS_4hidl4base4V1_05IBaseEEEb
_ZN7android8hardware14confirmationui4V1_015IConfirmationUI8castFromERKNS_2spIS3_EEb
_ZN7android8hardware14confirmationui4V1_016BsConfirmationUI13addOnewayTaskENSt3__18functionIFvvEEE
_ZN7android8hardware14confirmationui4V1_016BsConfirmationUIC1ENS_2spINS2_15IConfirmationUIEEE
_ZN7android8hardware14confirmationui4V1_016BsConfirmationUIC2ENS_2spINS2_15IConfirmationUIEEE
_ZN7android8hardware14confirmationui4V1_018BnHwConfirmationUI10onTransactEjRKNS0_6ParcelEPS4_jNSt3__18functionIFvRS4_EEE
_ZN7android8hardware14confirmationui4V1_018BnHwConfirmationUI11_hidl_abortEPNS_4hidl4base4V1_08BnHwBaseERKNS0_6ParcelEPS9_NSt3__18functionIFvRS9_EEE
_ZN7android8hardware14confirmationui4V1_018BnHwConfirmationUI12getDebugInfoENSt3__18functionIFvRKNS_4hidl4base4V1_09DebugInfoEEEE
_ZN7android8hardware14confirmationui4V1_018BnHwConfirmationUI28_hidl_promptUserConfirmationEPNS_4hidl4base4V1_08BnHwBaseERKNS0_6ParcelEPS9_NSt3__18functionIFvRS9_EEE
_ZN7android8hardware14confirmationui4V1_018BnHwConfirmationUI29_hidl_deliverSecureInputEventEPNS_4hidl4base4V1_08BnHwBaseERKNS0_6ParcelEPS9_NSt3__18functionIFvRS9_EEE
_ZN7android8hardware14confirmationui4V1_018BnHwConfirmationUI4pingEv
_ZN7android8hardware14confirmationui4V1_018BnHwConfirmationUIC1ERKNS_2spINS2_15IConfirmationUIEEE
_ZN7android8hardware14confirmationui4V1_018BnHwConfirmationUIC2ERKNS_2spINS2_15IConfirmationUIEEE
_ZN7android8hardware14confirmationui4V1_018BnHwConfirmationUID0Ev
_ZN7android8hardware14confirmationui4V1_018BnHwConfirmationUID1Ev
_ZN7android8hardware14confirmationui4V1_018BnHwConfirmationUID2Ev
_ZN7android8hardware14confirmationui4V1_018BpHwConfirmationUI11_hidl_abortEPNS0_10IInterfaceEPNS0_7details16HidlInstrumentorE
_ZN7android8hardware14confirmationui4V1_018BpHwConfirmationUI11linkToDeathERKNS_2spINS0_20hidl_death_recipientEEEm
_ZN7android8hardware14confirmationui4V1_018BpHwConfirmationUI12getDebugInfoENSt3__18functionIFvRKNS_4hidl4base4V1_09DebugInfoEEEE
_ZN7android8hardware14confirmationui4V1_018BpHwConfirmationUI12getHashChainENSt3__18functionIFvRKNS0_8hidl_vecINS0_10hidl_arrayIhLm32EJEEEEEEEE
_ZN7android8hardware14confirmationui4V1_018BpHwConfirmationUI13unlinkToDeathERKNS_2spINS0_20hidl_death_recipientEEE
_ZN7android8hardware14confirmationui4V1_018BpHwConfirmationUI14interfaceChainENSt3__18functionIFvRKNS0_8hidl_vecINS0_11hidl_stringEEEEEE
_ZN7android8hardware14confirmationui4V1_018BpHwConfirmationUI19interfaceDescriptorENSt3__18functionIFvRKNS0_11hidl_stringEEEE
_ZN7android8hardware14confirmationui4V1_018BpHwConfirmationUI21notifySyspropsChangedEv
_ZN7android8hardware14confirmationui4V1_018BpHwConfirmationUI21setHALInstrumentationEv
_ZN7android8hardware14confirmationui4V1_018BpHwConfirmationUI22promptUserConfirmationERKNS_2spINS2_27IConfirmationResultCallbackEEERKNS0_11hidl_stringERKNS0_8hidl_vecIhEESB_RKNSC_INS2_8UIOptionEEE
_ZN7android8hardware14confirmationui4V1_018BpHwConfirmationUI23deliverSecureInputEventERKNS0_9keymaster4V4_017HardwareAuthTokenE
_ZN7android8hardware14confirmationui4V1_018BpHwConfirmationUI28_hidl_promptUserConfirmationEPNS0_10IInterfaceEPNS0_7details16HidlInstrumentorERKNS_2spINS2_27IConfirmationResultCallbackEEERKNS0_11hidl_stringERKNS0_8hidl_vecIhEESG_RKNSH_INS2_8UIOptionEEE
_ZN7android8hardware14confirmationui4V1_018BpHwConfirmationUI29_hidl_deliverSecureInputEventEPNS0_10IInterfaceEPNS0_7details16HidlInstrumentorERKNS0_9keymaster4V4_017HardwareAuthTokenE
_ZN7android8hardware14confirmationui4V1_018BpHwConfirmationUI4pingEv
_ZN7android8hardware14confirmationui4V1_018BpHwConfirmationUI5abortEv
_ZN7android8hardware14confirmationui4V1_018BpHwConfirmationUI5debugERKNS0_11hidl_handleERKNS0_8hidl_vecINS0_11hidl_stringEEE
_ZN7android8hardware14confirmationui4V1_018BpHwConfirmationUIC1ERKNS_2spINS0_7IBinderEEE
_ZN7android8hardware14confirmationui4V1_018BpHwConfirmationUIC2ERKNS_2spINS0_7IBinderEEE
_ZN7android8hardware14confirmationui4V1_027IConfirmationResultCallback10descriptorE
_ZN7android8hardware14confirmationui4V1_027IConfirmationResultCallback10getServiceERKNSt3__112basic_stringIcNS4_11char_traitsIcEENS4_9allocatorIcEEEEb
_ZN7android8hardware14confirmationui4V1_027IConfirmationResultCallback11linkToDeathERKNS_2spINS0_20hidl_death_recipientEEEm
_ZN7android8hardware14confirmationui4V1_027IConfirmationResultCallback12getDebugInfoENSt3__18functionIFvRKNS_4hidl4base4V1_09DebugInfoEEEE
_ZN7android8hardware14confirmationui4V1_027IConfirmationResultCallback12getHashChainENSt3__18functionIFvRKNS0_8hidl_vecINS0_10hidl_arrayIhLm32EJEEEEEEEE
_ZN7android8hardware14confirmationui4V1_027IConfirmationResultCallback13tryGetServiceERKNSt3__112basic_stringIcNS4_11char_traitsIcEENS4_9allocatorIcEEEEb
_ZN7android8hardware14confirmationui4V1_027IConfirmationResultCallback13unlinkToDeathERKNS_2spINS0_20hidl_death_recipientEEE
_ZN7android8hardware14confirmationui4V1_027IConfirmationResultCallback14interfaceChainENSt3__18functionIFvRKNS0_8hidl_vecINS0_11hidl_stringEEEEEE
_ZN7android8hardware14confirmationui4V1_027IConfirmationResultCallback17registerAsServiceERKNSt3__112basic_stringIcNS4_11char_traitsIcEENS4_9allocatorIcEEEE
_ZN7android8hardware14confirmationui4V1_027IConfirmationResultCallback19interfaceDescriptorENSt3__18functionIFvRKNS0_11hidl_stringEEEE
_ZN7android8hardware14confirmationui4V1_027IConfirmationResultCallback21notifySyspropsChangedEv
_ZN7android8hardware14confirmationui4V1_027IConfirmationResultCallback21setHALInstrumentationEv
_ZN7android8hardware14confirmationui4V1_027IConfirmationResultCallback24registerForNotificationsERKNSt3__112basic_stringIcNS4_11char_traitsIcEENS4_9allocatorIcEEEERKNS_2spINS_4hidl7manager4V1_020IServiceNotificationEEE
_ZN7android8hardware14confirmationui4V1_027IConfirmationResultCallback4pingEv
_ZN7android8hardware14confirmationui4V1_027IConfirmationResultCallback5debugERKNS0_11hidl_handleERKNS0_8hidl_vecINS0_11hidl_stringEEE
_ZN7android8hardware14confirmationui4V1_027IConfirmationResultCallback8castFromERKNS_2spINS_4hidl4base4V1_05IBaseEEEb
_ZN7android8hardware14confirmationui4V1_027IConfirmationResultCallback8castFromERKNS_2spIS3_EEb
_ZN7android8hardware14confirmationui4V1_028BsConfirmationResultCallback13addOnewayTaskENSt3__18functionIFvvEEE
_ZN7android8hardware14confirmationui4V1_028BsConfirmationResultCallbackC1ENS_2spINS2_27IConfirmationResultCallbackEEE
_ZN7android8hardware14confirmationui4V1_028BsConfirmationResultCallbackC2ENS_2spINS2_27IConfirmationResultCallbackEEE
_ZN7android8hardware14confirmationui4V1_030BnHwConfirmationResultCallback10onTransactEjRKNS0_6ParcelEPS4_jNSt3__18functionIFvRS4_EEE
_ZN7android8hardware14confirmationui4V1_030BnHwConfirmationResultCallback12_hidl_resultEPNS_4hidl4base4V1_08BnHwBaseERKNS0_6ParcelEPS9_NSt3__18functionIFvRS9_EEE
_ZN7android8hardware14confirmationui4V1_030BnHwConfirmationResultCallback12getDebugInfoENSt3__18functionIFvRKNS_4hidl4base4V1_09DebugInfoEEEE
_ZN7android8hardware14confirmationui4V1_030BnHwConfirmationResultCallback4pingEv
_ZN7android8hardware14confirmationui4V1_030BnHwConfirmationResultCallbackC1ERKNS_2spINS2_27IConfirmationResultCallbackEEE
_ZN7android8hardware14confirmationui4V1_030BnHwConfirmationResultCallbackC2ERKNS_2spINS2_27IConfirmationResultCallbackEEE
_ZN7android8hardware14confirmationui4V1_030BnHwConfirmationResultCallbackD0Ev
_ZN7android8hardware14confirmationui4V1_030BnHwConfirmationResultCallbackD1Ev
_ZN7android8hardware14confirmationui4V1_030BnHwConfirmationResultCallbackD2Ev
_ZN7android8hardware14confirmationui4V1_030BpHwConfirmationResultCallback11linkToDeathERKNS_2spINS0_20hidl_death_recipientEEEm
_ZN7android8hardware14confirmationui4V1_030BpHwConfirmationResultCallback12_hidl_resultEPNS0_10IInterfaceEPNS0_7details16HidlInstrumentorENS2_12ResponseCodeERKNS0_8hidl_vecIhEESD_
_ZN7android8hardware14confirmationui4V1_030BpHwConfirmationResultCallback12getDebugInfoENSt3__18functionIFvRKNS_4hidl4base4V1_09DebugInfoEEEE
_ZN7android8hardware14confirmationui4V1_030BpHwConfirmationResultCallback12getHashChainENSt3__18functionIFvRKNS0_8hidl_vecINS0_10hidl_arrayIhLm32EJEEEEEEEE
_ZN7android8hardware14confirmationui4V1_030BpHwConfirmationResultCallback13unlinkToDeathERKNS_2spINS0_20hidl_death_recipientEEE
_ZN7android8hardware14confirmationui4V1_030BpHwConfirmationResultCallback14interfaceChainENSt3__18functionIFvRKNS0_8hidl_vecINS0_11hidl_stringEEEEEE
_ZN7android8hardware14confirmationui4V1_030BpHwConfirmationResultCallback19interfaceDescriptorENSt3__18functionIFvRKNS0_11hidl_stringEEEE
_ZN7android8hardware14confirmationui4V1_030BpHwConfirmationResultCallback21notifySyspropsChangedEv
_ZN7android8hardware14confirmationui4V1_030BpHwConfirmationResultCallback21setHALInstrumentationEv
_ZN7android8hardware14confirmationui4V1_030BpHwConfirmationResultCallback4pingEv
_ZN7android8hardware14confirmationui4V1_030BpHwConfirmationResultCallback5debugERKNS0_11hidl_handleERKNS0_8hidl_vecINS0_11hidl_stringEEE
_ZN7android8hardware14confirmationui4V1_030BpHwConfirmationResultCallback6resultENS2_12ResponseCodeERKNS0_8hidl_vecIhEES8_
_ZN7android8hardware14confirmationui4V1_030BpHwConfirmationResultCallbackC1ERKNS_2spINS0_7IBinderEEE
_ZN7android8hardware14confirmationui4V1_030BpHwConfirmationResultCallbackC2ERKNS_2spINS0_7IBinderEEE
_ZTCN7android8hardware14confirmationui4V1_015IConfirmationUIE0_NS_4hidl4base4V1_05IBaseE
_ZTCN7android8hardware14confirmationui4V1_018BnHwConfirmationUIE0_NS0_7IBinderE
_ZTCN7android8hardware14confirmationui4V1_018BnHwConfirmationUIE0_NS0_9BHwBinderE
_ZTCN7android8hardware14confirmationui4V1_018BnHwConfirmationUIE0_NS_4hidl4base4V1_08BnHwBaseE
_ZTCN7android8hardware14confirmationui4V1_018BpHwConfirmationUIE0_NS0_11BpInterfaceINS2_15IConfirmationUIEEE
_ZTCN7android8hardware14confirmationui4V1_018BpHwConfirmationUIE0_NS2_15IConfirmationUIE
_ZTCN7android8hardware14confirmationui4V1_018BpHwConfirmationUIE0_NS_4hidl4base4V1_05IBaseE
_ZTCN7android8hardware14confirmationui4V1_018BpHwConfirmationUIE16_NS0_11BpHwRefBaseE
_ZTCN7android8hardware14confirmationui4V1_018BpHwConfirmationUIE8_NS0_10IInterfaceE
_ZTCN7android8hardware14confirmationui4V1_027IConfirmationResultCallbackE0_NS_4hidl4base4V1_05IBaseE
_ZTCN7android8hardware14confirmationui4V1_030BnHwConfirmationResultCallbackE0_NS0_7IBinderE
_ZTCN7android8hardware14confirmationui4V1_030BnHwConfirmationResultCallbackE0_NS0_9BHwBinderE
_ZTCN7android8hardware14confirmationui4V1_030BnHwConfirmationResultCallbackE0_NS_4hidl4base4V1_08BnHwBaseE
_ZTCN7android8hardware14confirmationui4V1_030BpHwConfirmationResultCallbackE0_NS0_11BpInterfaceINS2_27IConfirmationResultCallbackEEE
_ZTCN7android8hardware14confirmationui4V1_030BpHwConfirmationResultCallbackE0_NS2_27IConfirmationResultCallbackE
_ZTCN7android8hardware14confirmationui4V1_030BpHwConfirmationResultCallbackE0_NS_4hidl4base4V1_05IBaseE
_ZTCN7android8hardware14confirmationui4V1_030BpHwConfirmationResultCallbackE16_NS0_11BpHwRefBaseE
_ZTCN7android8hardware14confirmationui4V1_030BpHwConfirmationResultCallbackE8_NS0_10IInterfaceE
_ZTTN7android8hardware14confirmationui4V1_015IConfirmationUIE
_ZTTN7android8hardware14confirmationui4V1_018BnHwConfirmationUIE
_ZTTN7android8hardware14confirmationui4V1_018BpHwConfirmationUIE
_ZTTN7android8hardware14confirmationui4V1_027IConfirmationResultCallbackE
_ZTTN7android8hardware14confirmationui4V1_030BnHwConfirmationResultCallbackE
_ZTTN7android8hardware14confirmationui4V1_030BpHwConfirmationResultCallbackE
_ZTVN7android8hardware14confirmationui4V1_015IConfirmationUIE
_ZTVN7android8hardware14confirmationui4V1_018BnHwConfirmationUIE
_ZTVN7android8hardware14confirmationui4V1_018BpHwConfirmationUIE
_ZTVN7android8hardware14confirmationui4V1_027IConfirmationResultCallbackE
_ZTVN7android8hardware14confirmationui4V1_030BnHwConfirmationResultCallbackE
_ZTVN7android8hardware14confirmationui4V1_030BpHwConfirmationResultCallbackE
_ZThn32_N7android8hardware14confirmationui4V1_018BnHwConfirmationUID0Ev
_ZThn32_N7android8hardware14confirmationui4V1_018BnHwConfirmationUID1Ev
_ZThn32_N7android8hardware14confirmationui4V1_030BnHwConfirmationResultCallbackD0Ev
_ZThn32_N7android8hardware14confirmationui4V1_030BnHwConfirmationResultCallbackD1Ev
_ZTv0_n24_N7android8hardware14confirmationui4V1_018BnHwConfirmationUID0Ev
_ZTv0_n24_N7android8hardware14confirmationui4V1_018BnHwConfirmationUID1Ev
_ZTv0_n24_N7android8hardware14confirmationui4V1_030BnHwConfirmationResultCallbackD0Ev
_ZTv0_n24_N7android8hardware14confirmationui4V1_030BnHwConfirmationResultCallbackD1Ev
