_ZN7android8hardware3cas6native4V1_012IDescrambler10descriptorE
_ZN7android8hardware3cas6native4V1_012IDescrambler10getServiceERKNSt3__112basic_stringIcNS5_11char_traitsIcEENS5_9allocatorIcEEEEb
_ZN7android8hardware3cas6native4V1_012IDescrambler11linkToDeathERKNS_2spINS0_20hidl_death_recipientEEEm
_ZN7android8hardware3cas6native4V1_012IDescrambler12getDebugInfoENSt3__18functionIFvRKNS_4hidl4base4V1_09DebugInfoEEEE
_ZN7android8hardware3cas6native4V1_012IDescrambler12getHashChainENSt3__18functionIFvRKNS0_8hidl_vecINS0_10hidl_arrayIhLm32EJEEEEEEEE
_ZN7android8hardware3cas6native4V1_012IDescrambler13tryGetServiceERKNSt3__112basic_stringIcNS5_11char_traitsIcEENS5_9allocatorIcEEEEb
_ZN7android8hardware3cas6native4V1_012IDescrambler13unlinkToDeathERKNS_2spINS0_20hidl_death_recipientEEE
_ZN7android8hardware3cas6native4V1_012IDescrambler14interfaceChainENSt3__18functionIFvRKNS0_8hidl_vecINS0_11hidl_stringEEEEEE
_ZN7android8hardware3cas6native4V1_012IDescrambler17registerAsServiceERKNSt3__112basic_stringIcNS5_11char_traitsIcEENS5_9allocatorIcEEEE
_ZN7android8hardware3cas6native4V1_012IDescrambler19interfaceDescriptorENSt3__18functionIFvRKNS0_11hidl_stringEEEE
_ZN7android8hardware3cas6native4V1_012IDescrambler21notifySyspropsChangedEv
_ZN7android8hardware3cas6native4V1_012IDescrambler21setHALInstrumentationEv
_ZN7android8hardware3cas6native4V1_012IDescrambler24registerForNotificationsERKNSt3__112basic_stringIcNS5_11char_traitsIcEENS5_9allocatorIcEEEERKNS_2spINS_4hidl7manager4V1_020IServiceNotificationEEE
_ZN7android8hardware3cas6native4V1_012IDescrambler4pingEv
_ZN7android8hardware3cas6native4V1_012IDescrambler5debugERKNS0_11hidl_handleERKNS0_8hidl_vecINS0_11hidl_stringEEE
_ZN7android8hardware3cas6native4V1_012IDescrambler8castFromERKNS_2spINS1_4V1_016IDescramblerBaseEEEb
_ZN7android8hardware3cas6native4V1_012IDescrambler8castFromERKNS_2spINS_4hidl4base4V1_05IBaseEEEb
_ZN7android8hardware3cas6native4V1_012IDescrambler8castFromERKNS_2spIS4_EEb
_ZN7android8hardware3cas6native4V1_013BsDescrambler13addOnewayTaskENSt3__18functionIFvvEEE
_ZN7android8hardware3cas6native4V1_013BsDescramblerC1ENS_2spINS3_12IDescramblerEEE
_ZN7android8hardware3cas6native4V1_013BsDescramblerC2ENS_2spINS3_12IDescramblerEEE
_ZN7android8hardware3cas6native4V1_015BnHwDescrambler10onTransactEjRKNS0_6ParcelEPS5_jNSt3__18functionIFvRS5_EEE
_ZN7android8hardware3cas6native4V1_015BnHwDescrambler12getDebugInfoENSt3__18functionIFvRKNS_4hidl4base4V1_09DebugInfoEEEE
_ZN7android8hardware3cas6native4V1_015BnHwDescrambler16_hidl_descrambleEPNS_4hidl4base4V1_08BnHwBaseERKNS0_6ParcelEPSA_NSt3__18functionIFvRSA_EEE
_ZN7android8hardware3cas6native4V1_015BnHwDescrambler4pingEv
_ZN7android8hardware3cas6native4V1_015BnHwDescramblerC1ERKNS_2spINS3_12IDescramblerEEE
_ZN7android8hardware3cas6native4V1_015BnHwDescramblerC2ERKNS_2spINS3_12IDescramblerEEE
_ZN7android8hardware3cas6native4V1_015BnHwDescramblerD0Ev
_ZN7android8hardware3cas6native4V1_015BnHwDescramblerD1Ev
_ZN7android8hardware3cas6native4V1_015BnHwDescramblerD2Ev
_ZN7android8hardware3cas6native4V1_015BpHwDescrambler10descrambleENS3_17ScramblingControlERKNS0_8hidl_vecINS3_9SubSampleEEERKNS3_12SharedBufferEmRKNS3_17DestinationBufferEmNSt3__18functionIFvNS1_4V1_06StatusEjRKNS0_11hidl_stringEEEE
_ZN7android8hardware3cas6native4V1_015BpHwDescrambler11linkToDeathERKNS_2spINS0_20hidl_death_recipientEEEm
_ZN7android8hardware3cas6native4V1_015BpHwDescrambler12getDebugInfoENSt3__18functionIFvRKNS_4hidl4base4V1_09DebugInfoEEEE
_ZN7android8hardware3cas6native4V1_015BpHwDescrambler12getHashChainENSt3__18functionIFvRKNS0_8hidl_vecINS0_10hidl_arrayIhLm32EJEEEEEEEE
_ZN7android8hardware3cas6native4V1_015BpHwDescrambler13unlinkToDeathERKNS_2spINS0_20hidl_death_recipientEEE
_ZN7android8hardware3cas6native4V1_015BpHwDescrambler14interfaceChainENSt3__18functionIFvRKNS0_8hidl_vecINS0_11hidl_stringEEEEEE
_ZN7android8hardware3cas6native4V1_015BpHwDescrambler16_hidl_descrambleEPNS0_10IInterfaceEPNS0_7details16HidlInstrumentorENS3_17ScramblingControlERKNS0_8hidl_vecINS3_9SubSampleEEERKNS3_12SharedBufferEmRKNS3_17DestinationBufferEmNSt3__18functionIFvNS1_4V1_06StatusEjRKNS0_11hidl_stringEEEE
_ZN7android8hardware3cas6native4V1_015BpHwDescrambler18setMediaCasSessionERKNS0_8hidl_vecIhEE
_ZN7android8hardware3cas6native4V1_015BpHwDescrambler19interfaceDescriptorENSt3__18functionIFvRKNS0_11hidl_stringEEEE
_ZN7android8hardware3cas6native4V1_015BpHwDescrambler21notifySyspropsChangedEv
_ZN7android8hardware3cas6native4V1_015BpHwDescrambler21setHALInstrumentationEv
_ZN7android8hardware3cas6native4V1_015BpHwDescrambler30requiresSecureDecoderComponentERKNS0_11hidl_stringE
_ZN7android8hardware3cas6native4V1_015BpHwDescrambler4pingEv
_ZN7android8hardware3cas6native4V1_015BpHwDescrambler5debugERKNS0_11hidl_handleERKNS0_8hidl_vecINS0_11hidl_stringEEE
_ZN7android8hardware3cas6native4V1_015BpHwDescrambler7releaseEv
_ZN7android8hardware3cas6native4V1_015BpHwDescramblerC1ERKNS_2spINS0_7IBinderEEE
_ZN7android8hardware3cas6native4V1_015BpHwDescramblerC2ERKNS_2spINS0_7IBinderEEE
_ZN7android8hardware3cas6native4V1_021writeEmbeddedToParcelERKNS3_12SharedBufferEPNS0_6ParcelEmm
_ZN7android8hardware3cas6native4V1_021writeEmbeddedToParcelERKNS3_17DestinationBufferEPNS0_6ParcelEmm
_ZN7android8hardware3cas6native4V1_022readEmbeddedFromParcelERKNS3_12SharedBufferERKNS0_6ParcelEmm
_ZN7android8hardware3cas6native4V1_022readEmbeddedFromParcelERKNS3_17DestinationBufferERKNS0_6ParcelEmm
_ZTCN7android8hardware3cas6native4V1_012IDescramblerE0_NS1_4V1_016IDescramblerBaseE
_ZTCN7android8hardware3cas6native4V1_012IDescramblerE0_NS_4hidl4base4V1_05IBaseE
_ZTCN7android8hardware3cas6native4V1_015BnHwDescramblerE0_NS0_7IBinderE
_ZTCN7android8hardware3cas6native4V1_015BnHwDescramblerE0_NS0_9BHwBinderE
_ZTCN7android8hardware3cas6native4V1_015BnHwDescramblerE0_NS_4hidl4base4V1_08BnHwBaseE
_ZTCN7android8hardware3cas6native4V1_015BpHwDescramblerE0_NS0_11BpInterfaceINS3_12IDescramblerEEE
_ZTCN7android8hardware3cas6native4V1_015BpHwDescramblerE0_NS1_4V1_016IDescramblerBaseE
_ZTCN7android8hardware3cas6native4V1_015BpHwDescramblerE0_NS3_12IDescramblerE
_ZTCN7android8hardware3cas6native4V1_015BpHwDescramblerE0_NS_4hidl4base4V1_05IBaseE
_ZTCN7android8hardware3cas6native4V1_015BpHwDescramblerE16_NS0_11BpHwRefBaseE
_ZTCN7android8hardware3cas6native4V1_015BpHwDescramblerE8_NS0_10IInterfaceE
_ZTTN7android8hardware3cas6native4V1_012IDescramblerE
_ZTTN7android8hardware3cas6native4V1_015BnHwDescramblerE
_ZTTN7android8hardware3cas6native4V1_015BpHwDescramblerE
_ZTVN7android8hardware3cas6native4V1_012IDescramblerE
_ZTVN7android8hardware3cas6native4V1_015BnHwDescramblerE
_ZTVN7android8hardware3cas6native4V1_015BpHwDescramblerE
_ZThn32_N7android8hardware3cas6native4V1_015BnHwDescramblerD0Ev
_ZThn32_N7android8hardware3cas6native4V1_015BnHwDescramblerD1Ev
_ZTv0_n24_N7android8hardware3cas6native4V1_015BnHwDescramblerD0Ev
_ZTv0_n24_N7android8hardware3cas6native4V1_015BnHwDescramblerD1Ev
