_ZN7android8hardware3nfc4V1_018INfcClientCallback10descriptorE
_ZN7android8hardware3nfc4V1_018INfcClientCallback10getServiceERKNSt3__112basic_stringIcNS4_11char_traitsIcEENS4_9allocatorIcEEEEb
_ZN7android8hardware3nfc4V1_018INfcClientCallback11linkToDeathERKNS_2spINS0_20hidl_death_recipientEEEm
_ZN7android8hardware3nfc4V1_018INfcClientCallback12getDebugInfoENSt3__18functionIFvRKNS_4hidl4base4V1_09DebugInfoEEEE
_ZN7android8hardware3nfc4V1_018INfcClientCallback12getHashChainENSt3__18functionIFvRKNS0_8hidl_vecINS0_10hidl_arrayIhLm32EJEEEEEEEE
_ZN7android8hardware3nfc4V1_018INfcClientCallback13tryGetServiceERKNSt3__112basic_stringIcNS4_11char_traitsIcEENS4_9allocatorIcEEEEb
_ZN7android8hardware3nfc4V1_018INfcClientCallback13unlinkToDeathERKNS_2spINS0_20hidl_death_recipientEEE
_ZN7android8hardware3nfc4V1_018INfcClientCallback14interfaceChainENSt3__18functionIFvRKNS0_8hidl_vecINS0_11hidl_stringEEEEEE
_ZN7android8hardware3nfc4V1_018INfcClientCallback17registerAsServiceERKNSt3__112basic_stringIcNS4_11char_traitsIcEENS4_9allocatorIcEEEE
_ZN7android8hardware3nfc4V1_018INfcClientCallback19interfaceDescriptorENSt3__18functionIFvRKNS0_11hidl_stringEEEE
_ZN7android8hardware3nfc4V1_018INfcClientCallback21notifySyspropsChangedEv
_ZN7android8hardware3nfc4V1_018INfcClientCallback21setHALInstrumentationEv
_ZN7android8hardware3nfc4V1_018INfcClientCallback24registerForNotificationsERKNSt3__112basic_stringIcNS4_11char_traitsIcEENS4_9allocatorIcEEEERKNS_2spINS_4hidl7manager4V1_020IServiceNotificationEEE
_ZN7android8hardware3nfc4V1_018INfcClientCallback4pingEv
_ZN7android8hardware3nfc4V1_018INfcClientCallback5debugERKNS0_11hidl_handleERKNS0_8hidl_vecINS0_11hidl_stringEEE
_ZN7android8hardware3nfc4V1_018INfcClientCallback8castFromERKNS_2spINS_4hidl4base4V1_05IBaseEEEb
_ZN7android8hardware3nfc4V1_018INfcClientCallback8castFromERKNS_2spIS3_EEb
_ZN7android8hardware3nfc4V1_019BsNfcClientCallback13addOnewayTaskENSt3__18functionIFvvEEE
_ZN7android8hardware3nfc4V1_019BsNfcClientCallbackC1ENS_2spINS2_18INfcClientCallbackEEE
_ZN7android8hardware3nfc4V1_019BsNfcClientCallbackC2ENS_2spINS2_18INfcClientCallbackEEE
_ZN7android8hardware3nfc4V1_021BnHwNfcClientCallback10onTransactEjRKNS0_6ParcelEPS4_jNSt3__18functionIFvRS4_EEE
_ZN7android8hardware3nfc4V1_021BnHwNfcClientCallback12getDebugInfoENSt3__18functionIFvRKNS_4hidl4base4V1_09DebugInfoEEEE
_ZN7android8hardware3nfc4V1_021BnHwNfcClientCallback14_hidl_sendDataEPNS_4hidl4base4V1_08BnHwBaseERKNS0_6ParcelEPS9_NSt3__18functionIFvRS9_EEE
_ZN7android8hardware3nfc4V1_021BnHwNfcClientCallback15_hidl_sendEventEPNS_4hidl4base4V1_08BnHwBaseERKNS0_6ParcelEPS9_NSt3__18functionIFvRS9_EEE
_ZN7android8hardware3nfc4V1_021BnHwNfcClientCallback4pingEv
_ZN7android8hardware3nfc4V1_021BnHwNfcClientCallbackC1ERKNS_2spINS2_18INfcClientCallbackEEE
_ZN7android8hardware3nfc4V1_021BnHwNfcClientCallbackC2ERKNS_2spINS2_18INfcClientCallbackEEE
_ZN7android8hardware3nfc4V1_021BnHwNfcClientCallbackD0Ev
_ZN7android8hardware3nfc4V1_021BnHwNfcClientCallbackD1Ev
_ZN7android8hardware3nfc4V1_021BnHwNfcClientCallbackD2Ev
_ZN7android8hardware3nfc4V1_021BpHwNfcClientCallback11linkToDeathERKNS_2spINS0_20hidl_death_recipientEEEm
_ZN7android8hardware3nfc4V1_021BpHwNfcClientCallback12getDebugInfoENSt3__18functionIFvRKNS_4hidl4base4V1_09DebugInfoEEEE
_ZN7android8hardware3nfc4V1_021BpHwNfcClientCallback12getHashChainENSt3__18functionIFvRKNS0_8hidl_vecINS0_10hidl_arrayIhLm32EJEEEEEEEE
_ZN7android8hardware3nfc4V1_021BpHwNfcClientCallback13unlinkToDeathERKNS_2spINS0_20hidl_death_recipientEEE
_ZN7android8hardware3nfc4V1_021BpHwNfcClientCallback14_hidl_sendDataEPNS0_10IInterfaceEPNS0_7details16HidlInstrumentorERKNS0_8hidl_vecIhEE
_ZN7android8hardware3nfc4V1_021BpHwNfcClientCallback14interfaceChainENSt3__18functionIFvRKNS0_8hidl_vecINS0_11hidl_stringEEEEEE
_ZN7android8hardware3nfc4V1_021BpHwNfcClientCallback15_hidl_sendEventEPNS0_10IInterfaceEPNS0_7details16HidlInstrumentorENS2_8NfcEventENS2_9NfcStatusE
_ZN7android8hardware3nfc4V1_021BpHwNfcClientCallback19interfaceDescriptorENSt3__18functionIFvRKNS0_11hidl_stringEEEE
_ZN7android8hardware3nfc4V1_021BpHwNfcClientCallback21notifySyspropsChangedEv
_ZN7android8hardware3nfc4V1_021BpHwNfcClientCallback21setHALInstrumentationEv
_ZN7android8hardware3nfc4V1_021BpHwNfcClientCallback4pingEv
_ZN7android8hardware3nfc4V1_021BpHwNfcClientCallback5debugERKNS0_11hidl_handleERKNS0_8hidl_vecINS0_11hidl_stringEEE
_ZN7android8hardware3nfc4V1_021BpHwNfcClientCallback8sendDataERKNS0_8hidl_vecIhEE
_ZN7android8hardware3nfc4V1_021BpHwNfcClientCallback9sendEventENS2_8NfcEventENS2_9NfcStatusE
_ZN7android8hardware3nfc4V1_021BpHwNfcClientCallbackC1ERKNS_2spINS0_7IBinderEEE
_ZN7android8hardware3nfc4V1_021BpHwNfcClientCallbackC2ERKNS_2spINS0_7IBinderEEE
_ZN7android8hardware3nfc4V1_04INfc10descriptorE
_ZN7android8hardware3nfc4V1_04INfc10getServiceERKNSt3__112basic_stringIcNS4_11char_traitsIcEENS4_9allocatorIcEEEEb
_ZN7android8hardware3nfc4V1_04INfc11linkToDeathERKNS_2spINS0_20hidl_death_recipientEEEm
_ZN7android8hardware3nfc4V1_04INfc12getDebugInfoENSt3__18functionIFvRKNS_4hidl4base4V1_09DebugInfoEEEE
_ZN7android8hardware3nfc4V1_04INfc12getHashChainENSt3__18functionIFvRKNS0_8hidl_vecINS0_10hidl_arrayIhLm32EJEEEEEEEE
_ZN7android8hardware3nfc4V1_04INfc13tryGetServiceERKNSt3__112basic_stringIcNS4_11char_traitsIcEENS4_9allocatorIcEEEEb
_ZN7android8hardware3nfc4V1_04INfc13unlinkToDeathERKNS_2spINS0_20hidl_death_recipientEEE
_ZN7android8hardware3nfc4V1_04INfc14interfaceChainENSt3__18functionIFvRKNS0_8hidl_vecINS0_11hidl_stringEEEEEE
_ZN7android8hardware3nfc4V1_04INfc17registerAsServiceERKNSt3__112basic_stringIcNS4_11char_traitsIcEENS4_9allocatorIcEEEE
_ZN7android8hardware3nfc4V1_04INfc19interfaceDescriptorENSt3__18functionIFvRKNS0_11hidl_stringEEEE
_ZN7android8hardware3nfc4V1_04INfc21notifySyspropsChangedEv
_ZN7android8hardware3nfc4V1_04INfc21setHALInstrumentationEv
_ZN7android8hardware3nfc4V1_04INfc24registerForNotificationsERKNSt3__112basic_stringIcNS4_11char_traitsIcEENS4_9allocatorIcEEEERKNS_2spINS_4hidl7manager4V1_020IServiceNotificationEEE
_ZN7android8hardware3nfc4V1_04INfc4pingEv
_ZN7android8hardware3nfc4V1_04INfc5debugERKNS0_11hidl_handleERKNS0_8hidl_vecINS0_11hidl_stringEEE
_ZN7android8hardware3nfc4V1_04INfc8castFromERKNS_2spINS_4hidl4base4V1_05IBaseEEEb
_ZN7android8hardware3nfc4V1_04INfc8castFromERKNS_2spIS3_EEb
_ZN7android8hardware3nfc4V1_05BsNfc13addOnewayTaskENSt3__18functionIFvvEEE
_ZN7android8hardware3nfc4V1_05BsNfcC1ENS_2spINS2_4INfcEEE
_ZN7android8hardware3nfc4V1_05BsNfcC2ENS_2spINS2_4INfcEEE
_ZN7android8hardware3nfc4V1_07BnHwNfc10_hidl_openEPNS_4hidl4base4V1_08BnHwBaseERKNS0_6ParcelEPS9_NSt3__18functionIFvRS9_EEE
_ZN7android8hardware3nfc4V1_07BnHwNfc10onTransactEjRKNS0_6ParcelEPS4_jNSt3__18functionIFvRS4_EEE
_ZN7android8hardware3nfc4V1_07BnHwNfc11_hidl_closeEPNS_4hidl4base4V1_08BnHwBaseERKNS0_6ParcelEPS9_NSt3__18functionIFvRS9_EEE
_ZN7android8hardware3nfc4V1_07BnHwNfc11_hidl_writeEPNS_4hidl4base4V1_08BnHwBaseERKNS0_6ParcelEPS9_NSt3__18functionIFvRS9_EEE
_ZN7android8hardware3nfc4V1_07BnHwNfc12getDebugInfoENSt3__18functionIFvRKNS_4hidl4base4V1_09DebugInfoEEEE
_ZN7android8hardware3nfc4V1_07BnHwNfc16_hidl_powerCycleEPNS_4hidl4base4V1_08BnHwBaseERKNS0_6ParcelEPS9_NSt3__18functionIFvRS9_EEE
_ZN7android8hardware3nfc4V1_07BnHwNfc17_hidl_prediscoverEPNS_4hidl4base4V1_08BnHwBaseERKNS0_6ParcelEPS9_NSt3__18functionIFvRS9_EEE
_ZN7android8hardware3nfc4V1_07BnHwNfc20_hidl_controlGrantedEPNS_4hidl4base4V1_08BnHwBaseERKNS0_6ParcelEPS9_NSt3__18functionIFvRS9_EEE
_ZN7android8hardware3nfc4V1_07BnHwNfc21_hidl_coreInitializedEPNS_4hidl4base4V1_08BnHwBaseERKNS0_6ParcelEPS9_NSt3__18functionIFvRS9_EEE
_ZN7android8hardware3nfc4V1_07BnHwNfc4pingEv
_ZN7android8hardware3nfc4V1_07BnHwNfcC1ERKNS_2spINS2_4INfcEEE
_ZN7android8hardware3nfc4V1_07BnHwNfcC2ERKNS_2spINS2_4INfcEEE
_ZN7android8hardware3nfc4V1_07BnHwNfcD0Ev
_ZN7android8hardware3nfc4V1_07BnHwNfcD1Ev
_ZN7android8hardware3nfc4V1_07BnHwNfcD2Ev
_ZN7android8hardware3nfc4V1_07BpHwNfc10_hidl_openEPNS0_10IInterfaceEPNS0_7details16HidlInstrumentorERKNS_2spINS2_18INfcClientCallbackEEE
_ZN7android8hardware3nfc4V1_07BpHwNfc10powerCycleEv
_ZN7android8hardware3nfc4V1_07BpHwNfc11_hidl_closeEPNS0_10IInterfaceEPNS0_7details16HidlInstrumentorE
_ZN7android8hardware3nfc4V1_07BpHwNfc11_hidl_writeEPNS0_10IInterfaceEPNS0_7details16HidlInstrumentorERKNS0_8hidl_vecIhEE
_ZN7android8hardware3nfc4V1_07BpHwNfc11linkToDeathERKNS_2spINS0_20hidl_death_recipientEEEm
_ZN7android8hardware3nfc4V1_07BpHwNfc11prediscoverEv
_ZN7android8hardware3nfc4V1_07BpHwNfc12getDebugInfoENSt3__18functionIFvRKNS_4hidl4base4V1_09DebugInfoEEEE
_ZN7android8hardware3nfc4V1_07BpHwNfc12getHashChainENSt3__18functionIFvRKNS0_8hidl_vecINS0_10hidl_arrayIhLm32EJEEEEEEEE
_ZN7android8hardware3nfc4V1_07BpHwNfc13unlinkToDeathERKNS_2spINS0_20hidl_death_recipientEEE
_ZN7android8hardware3nfc4V1_07BpHwNfc14controlGrantedEv
_ZN7android8hardware3nfc4V1_07BpHwNfc14interfaceChainENSt3__18functionIFvRKNS0_8hidl_vecINS0_11hidl_stringEEEEEE
_ZN7android8hardware3nfc4V1_07BpHwNfc15coreInitializedERKNS0_8hidl_vecIhEE
_ZN7android8hardware3nfc4V1_07BpHwNfc16_hidl_powerCycleEPNS0_10IInterfaceEPNS0_7details16HidlInstrumentorE
_ZN7android8hardware3nfc4V1_07BpHwNfc17_hidl_prediscoverEPNS0_10IInterfaceEPNS0_7details16HidlInstrumentorE
_ZN7android8hardware3nfc4V1_07BpHwNfc19interfaceDescriptorENSt3__18functionIFvRKNS0_11hidl_stringEEEE
_ZN7android8hardware3nfc4V1_07BpHwNfc20_hidl_controlGrantedEPNS0_10IInterfaceEPNS0_7details16HidlInstrumentorE
_ZN7android8hardware3nfc4V1_07BpHwNfc21_hidl_coreInitializedEPNS0_10IInterfaceEPNS0_7details16HidlInstrumentorERKNS0_8hidl_vecIhEE
_ZN7android8hardware3nfc4V1_07BpHwNfc21notifySyspropsChangedEv
_ZN7android8hardware3nfc4V1_07BpHwNfc21setHALInstrumentationEv
_ZN7android8hardware3nfc4V1_07BpHwNfc4openERKNS_2spINS2_18INfcClientCallbackEEE
_ZN7android8hardware3nfc4V1_07BpHwNfc4pingEv
_ZN7android8hardware3nfc4V1_07BpHwNfc5closeEv
_ZN7android8hardware3nfc4V1_07BpHwNfc5debugERKNS0_11hidl_handleERKNS0_8hidl_vecINS0_11hidl_stringEEE
_ZN7android8hardware3nfc4V1_07BpHwNfc5writeERKNS0_8hidl_vecIhEE
_ZN7android8hardware3nfc4V1_07BpHwNfcC1ERKNS_2spINS0_7IBinderEEE
_ZN7android8hardware3nfc4V1_07BpHwNfcC2ERKNS_2spINS0_7IBinderEEE
_ZTCN7android8hardware3nfc4V1_018INfcClientCallbackE0_NS_4hidl4base4V1_05IBaseE
_ZTCN7android8hardware3nfc4V1_021BnHwNfcClientCallbackE0_NS0_7IBinderE
_ZTCN7android8hardware3nfc4V1_021BnHwNfcClientCallbackE0_NS0_9BHwBinderE
_ZTCN7android8hardware3nfc4V1_021BnHwNfcClientCallbackE0_NS_4hidl4base4V1_08BnHwBaseE
_ZTCN7android8hardware3nfc4V1_021BpHwNfcClientCallbackE0_NS0_11BpInterfaceINS2_18INfcClientCallbackEEE
_ZTCN7android8hardware3nfc4V1_021BpHwNfcClientCallbackE0_NS2_18INfcClientCallbackE
_ZTCN7android8hardware3nfc4V1_021BpHwNfcClientCallbackE0_NS_4hidl4base4V1_05IBaseE
_ZTCN7android8hardware3nfc4V1_021BpHwNfcClientCallbackE16_NS0_11BpHwRefBaseE
_ZTCN7android8hardware3nfc4V1_021BpHwNfcClientCallbackE8_NS0_10IInterfaceE
_ZTCN7android8hardware3nfc4V1_04INfcE0_NS_4hidl4base4V1_05IBaseE
_ZTCN7android8hardware3nfc4V1_07BnHwNfcE0_NS0_7IBinderE
_ZTCN7android8hardware3nfc4V1_07BnHwNfcE0_NS0_9BHwBinderE
_ZTCN7android8hardware3nfc4V1_07BnHwNfcE0_NS_4hidl4base4V1_08BnHwBaseE
_ZTCN7android8hardware3nfc4V1_07BpHwNfcE0_NS0_11BpInterfaceINS2_4INfcEEE
_ZTCN7android8hardware3nfc4V1_07BpHwNfcE0_NS2_4INfcE
_ZTCN7android8hardware3nfc4V1_07BpHwNfcE0_NS_4hidl4base4V1_05IBaseE
_ZTCN7android8hardware3nfc4V1_07BpHwNfcE16_NS0_11BpHwRefBaseE
_ZTCN7android8hardware3nfc4V1_07BpHwNfcE8_NS0_10IInterfaceE
_ZTTN7android8hardware3nfc4V1_018INfcClientCallbackE
_ZTTN7android8hardware3nfc4V1_021BnHwNfcClientCallbackE
_ZTTN7android8hardware3nfc4V1_021BpHwNfcClientCallbackE
_ZTTN7android8hardware3nfc4V1_04INfcE
_ZTTN7android8hardware3nfc4V1_07BnHwNfcE
_ZTTN7android8hardware3nfc4V1_07BpHwNfcE
_ZTVN7android8hardware3nfc4V1_018INfcClientCallbackE
_ZTVN7android8hardware3nfc4V1_021BnHwNfcClientCallbackE
_ZTVN7android8hardware3nfc4V1_021BpHwNfcClientCallbackE
_ZTVN7android8hardware3nfc4V1_04INfcE
_ZTVN7android8hardware3nfc4V1_07BnHwNfcE
_ZTVN7android8hardware3nfc4V1_07BpHwNfcE
_ZThn32_N7android8hardware3nfc4V1_021BnHwNfcClientCallbackD0Ev
_ZThn32_N7android8hardware3nfc4V1_021BnHwNfcClientCallbackD1Ev
_ZThn32_N7android8hardware3nfc4V1_07BnHwNfcD0Ev
_ZThn32_N7android8hardware3nfc4V1_07BnHwNfcD1Ev
_ZTv0_n24_N7android8hardware3nfc4V1_021BnHwNfcClientCallbackD0Ev
_ZTv0_n24_N7android8hardware3nfc4V1_021BnHwNfcClientCallbackD1Ev
_ZTv0_n24_N7android8hardware3nfc4V1_07BnHwNfcD0Ev
_ZTv0_n24_N7android8hardware3nfc4V1_07BnHwNfcD1Ev
