_ZN7android8hardware8graphics8composer4V2_210BsComposer13addOnewayTaskENSt3__18functionIFvvEEE
_ZN7android8hardware8graphics8composer4V2_210BsComposerC1ENS_2spINS3_9IComposerEEE
_ZN7android8hardware8graphics8composer4V2_210BsComposerC2ENS_2spINS3_9IComposerEEE
_ZN7android8hardware8graphics8composer4V2_212BnHwComposer10onTransactEjRKNS0_6ParcelEPS5_jNSt3__18functionIFvRS5_EEE
_ZN7android8hardware8graphics8composer4V2_212BnHwComposer12getDebugInfoENSt3__18functionIFvRKNS_4hidl4base4V1_09DebugInfoEEEE
_ZN7android8hardware8graphics8composer4V2_212BnHwComposer4pingEv
_ZN7android8hardware8graphics8composer4V2_212BnHwComposerC1ERKNS_2spINS3_9IComposerEEE
_ZN7android8hardware8graphics8composer4V2_212BnHwComposerC2ERKNS_2spINS3_9IComposerEEE
_ZN7android8hardware8graphics8composer4V2_212BnHwComposerD0Ev
_ZN7android8hardware8graphics8composer4V2_212BnHwComposerD1Ev
_ZN7android8hardware8graphics8composer4V2_212BnHwComposerD2Ev
_ZN7android8hardware8graphics8composer4V2_212BpHwComposer11linkToDeathERKNS_2spINS0_20hidl_death_recipientEEEm
_ZN7android8hardware8graphics8composer4V2_212BpHwComposer12createClientENSt3__18functionIFvNS2_4V2_15ErrorERKNS_2spINS7_15IComposerClientEEEEEE
_ZN7android8hardware8graphics8composer4V2_212BpHwComposer12getDebugInfoENSt3__18functionIFvRKNS_4hidl4base4V1_09DebugInfoEEEE
_ZN7android8hardware8graphics8composer4V2_212BpHwComposer12getHashChainENSt3__18functionIFvRKNS0_8hidl_vecINS0_10hidl_arrayIhLm32EJEEEEEEEE
_ZN7android8hardware8graphics8composer4V2_212BpHwComposer13dumpDebugInfoENSt3__18functionIFvRKNS0_11hidl_stringEEEE
_ZN7android8hardware8graphics8composer4V2_212BpHwComposer13unlinkToDeathERKNS_2spINS0_20hidl_death_recipientEEE
_ZN7android8hardware8graphics8composer4V2_212BpHwComposer14interfaceChainENSt3__18functionIFvRKNS0_8hidl_vecINS0_11hidl_stringEEEEEE
_ZN7android8hardware8graphics8composer4V2_212BpHwComposer15getCapabilitiesENSt3__18functionIFvRKNS0_8hidl_vecINS2_4V2_19IComposer10CapabilityEEEEEE
_ZN7android8hardware8graphics8composer4V2_212BpHwComposer19interfaceDescriptorENSt3__18functionIFvRKNS0_11hidl_stringEEEE
_ZN7android8hardware8graphics8composer4V2_212BpHwComposer21notifySyspropsChangedEv
_ZN7android8hardware8graphics8composer4V2_212BpHwComposer21setHALInstrumentationEv
_ZN7android8hardware8graphics8composer4V2_212BpHwComposer4pingEv
_ZN7android8hardware8graphics8composer4V2_212BpHwComposer5debugERKNS0_11hidl_handleERKNS0_8hidl_vecINS0_11hidl_stringEEE
_ZN7android8hardware8graphics8composer4V2_212BpHwComposerC1ERKNS_2spINS0_7IBinderEEE
_ZN7android8hardware8graphics8composer4V2_212BpHwComposerC2ERKNS_2spINS0_7IBinderEEE
_ZN7android8hardware8graphics8composer4V2_215IComposerClient10descriptorE
_ZN7android8hardware8graphics8composer4V2_215IComposerClient10getServiceERKNSt3__112basic_stringIcNS5_11char_traitsIcEENS5_9allocatorIcEEEEb
_ZN7android8hardware8graphics8composer4V2_215IComposerClient11linkToDeathERKNS_2spINS0_20hidl_death_recipientEEEm
_ZN7android8hardware8graphics8composer4V2_215IComposerClient12getDebugInfoENSt3__18functionIFvRKNS_4hidl4base4V1_09DebugInfoEEEE
_ZN7android8hardware8graphics8composer4V2_215IComposerClient12getHashChainENSt3__18functionIFvRKNS0_8hidl_vecINS0_10hidl_arrayIhLm32EJEEEEEEEE
_ZN7android8hardware8graphics8composer4V2_215IComposerClient13tryGetServiceERKNSt3__112basic_stringIcNS5_11char_traitsIcEENS5_9allocatorIcEEEEb
_ZN7android8hardware8graphics8composer4V2_215IComposerClient13unlinkToDeathERKNS_2spINS0_20hidl_death_recipientEEE
_ZN7android8hardware8graphics8composer4V2_215IComposerClient14interfaceChainENSt3__18functionIFvRKNS0_8hidl_vecINS0_11hidl_stringEEEEEE
_ZN7android8hardware8graphics8composer4V2_215IComposerClient17registerAsServiceERKNSt3__112basic_stringIcNS5_11char_traitsIcEENS5_9allocatorIcEEEE
_ZN7android8hardware8graphics8composer4V2_215IComposerClient19interfaceDescriptorENSt3__18functionIFvRKNS0_11hidl_stringEEEE
_ZN7android8hardware8graphics8composer4V2_215IComposerClient21notifySyspropsChangedEv
_ZN7android8hardware8graphics8composer4V2_215IComposerClient21setHALInstrumentationEv
_ZN7android8hardware8graphics8composer4V2_215IComposerClient24registerForNotificationsERKNSt3__112basic_stringIcNS5_11char_traitsIcEENS5_9allocatorIcEEEERKNS_2spINS_4hidl7manager4V1_020IServiceNotificationEEE
_ZN7android8hardware8graphics8composer4V2_215IComposerClient4pingEv
_ZN7android8hardware8graphics8composer4V2_215IComposerClient5debugERKNS0_11hidl_handleERKNS0_8hidl_vecINS0_11hidl_stringEEE
_ZN7android8hardware8graphics8composer4V2_215IComposerClient8castFromERKNS_2spINS2_4V2_115IComposerClientEEEb
_ZN7android8hardware8graphics8composer4V2_215IComposerClient8castFromERKNS_2spINS_4hidl4base4V1_05IBaseEEEb
_ZN7android8hardware8graphics8composer4V2_215IComposerClient8castFromERKNS_2spIS4_EEb
_ZN7android8hardware8graphics8composer4V2_216BsComposerClient13addOnewayTaskENSt3__18functionIFvvEEE
_ZN7android8hardware8graphics8composer4V2_216BsComposerClientC1ENS_2spINS3_15IComposerClientEEE
_ZN7android8hardware8graphics8composer4V2_216BsComposerClientC2ENS_2spINS3_15IComposerClientEEE
_ZN7android8hardware8graphics8composer4V2_218BnHwComposerClient10onTransactEjRKNS0_6ParcelEPS5_jNSt3__18functionIFvRS5_EEE
_ZN7android8hardware8graphics8composer4V2_218BnHwComposerClient12getDebugInfoENSt3__18functionIFvRKNS_4hidl4base4V1_09DebugInfoEEEE
_ZN7android8hardware8graphics8composer4V2_218BnHwComposerClient22_hidl_getRenderIntentsEPNS_4hidl4base4V1_08BnHwBaseERKNS0_6ParcelEPSA_NSt3__18functionIFvRSA_EEE
_ZN7android8hardware8graphics8composer4V2_218BnHwComposerClient22_hidl_setColorMode_2_2EPNS_4hidl4base4V1_08BnHwBaseERKNS0_6ParcelEPSA_NSt3__18functionIFvRSA_EEE
_ZN7android8hardware8graphics8composer4V2_218BnHwComposerClient22_hidl_setPowerMode_2_2EPNS_4hidl4base4V1_08BnHwBaseERKNS0_6ParcelEPSA_NSt3__18functionIFvRSA_EEE
_ZN7android8hardware8graphics8composer4V2_218BnHwComposerClient23_hidl_getColorModes_2_2EPNS_4hidl4base4V1_08BnHwBaseERKNS0_6ParcelEPSA_NSt3__18functionIFvRSA_EEE
_ZN7android8hardware8graphics8composer4V2_218BnHwComposerClient23_hidl_setReadbackBufferEPNS_4hidl4base4V1_08BnHwBaseERKNS0_6ParcelEPSA_NSt3__18functionIFvRSA_EEE
_ZN7android8hardware8graphics8composer4V2_218BnHwComposerClient25_hidl_executeCommands_2_2EPNS_4hidl4base4V1_08BnHwBaseERKNS0_6ParcelEPSA_NSt3__18functionIFvRSA_EEE
_ZN7android8hardware8graphics8composer4V2_218BnHwComposerClient28_hidl_getReadbackBufferFenceEPNS_4hidl4base4V1_08BnHwBaseERKNS0_6ParcelEPSA_NSt3__18functionIFvRSA_EEE
_ZN7android8hardware8graphics8composer4V2_218BnHwComposerClient29_hidl_getPerFrameMetadataKeysEPNS_4hidl4base4V1_08BnHwBaseERKNS0_6ParcelEPSA_NSt3__18functionIFvRSA_EEE
_ZN7android8hardware8graphics8composer4V2_218BnHwComposerClient30_hidl_createVirtualDisplay_2_2EPNS_4hidl4base4V1_08BnHwBaseERKNS0_6ParcelEPSA_NSt3__18functionIFvRSA_EEE
_ZN7android8hardware8graphics8composer4V2_218BnHwComposerClient32_hidl_getClientTargetSupport_2_2EPNS_4hidl4base4V1_08BnHwBaseERKNS0_6ParcelEPSA_NSt3__18functionIFvRSA_EEE
_ZN7android8hardware8graphics8composer4V2_218BnHwComposerClient33_hidl_getReadbackBufferAttributesEPNS_4hidl4base4V1_08BnHwBaseERKNS0_6ParcelEPSA_NSt3__18functionIFvRSA_EEE
_ZN7android8hardware8graphics8composer4V2_218BnHwComposerClient34_hidl_getDataspaceSaturationMatrixEPNS_4hidl4base4V1_08BnHwBaseERKNS0_6ParcelEPSA_NSt3__18functionIFvRSA_EEE
_ZN7android8hardware8graphics8composer4V2_218BnHwComposerClient4pingEv
_ZN7android8hardware8graphics8composer4V2_218BnHwComposerClientC1ERKNS_2spINS3_15IComposerClientEEE
_ZN7android8hardware8graphics8composer4V2_218BnHwComposerClientC2ERKNS_2spINS3_15IComposerClientEEE
_ZN7android8hardware8graphics8composer4V2_218BnHwComposerClientD0Ev
_ZN7android8hardware8graphics8composer4V2_218BnHwComposerClientD1Ev
_ZN7android8hardware8graphics8composer4V2_218BnHwComposerClientD2Ev
_ZN7android8hardware8graphics8composer4V2_218BpHwComposerClient11createLayerEmjNSt3__18functionIFvNS2_4V2_15ErrorEmEEE
_ZN7android8hardware8graphics8composer4V2_218BpHwComposerClient11linkToDeathERKNS_2spINS0_20hidl_death_recipientEEEm
_ZN7android8hardware8graphics8composer4V2_218BpHwComposerClient12destroyLayerEmm
_ZN7android8hardware8graphics8composer4V2_218BpHwComposerClient12getDebugInfoENSt3__18functionIFvRKNS_4hidl4base4V1_09DebugInfoEEEE
_ZN7android8hardware8graphics8composer4V2_218BpHwComposerClient12getHashChainENSt3__18functionIFvRKNS0_8hidl_vecINS0_10hidl_arrayIhLm32EJEEEEEEEE
_ZN7android8hardware8graphics8composer4V2_218BpHwComposerClient12setColorModeEmNS1_6common4V1_09ColorModeE
_ZN7android8hardware8graphics8composer4V2_218BpHwComposerClient12setPowerModeEmNS2_4V2_115IComposerClient9PowerModeE
_ZN7android8hardware8graphics8composer4V2_218BpHwComposerClient13getColorModesEmNSt3__18functionIFvNS2_4V2_15ErrorERKNS0_8hidl_vecINS1_6common4V1_09ColorModeEEEEEE
_ZN7android8hardware8graphics8composer4V2_218BpHwComposerClient13unlinkToDeathERKNS_2spINS0_20hidl_death_recipientEEE
_ZN7android8hardware8graphics8composer4V2_218BpHwComposerClient14getDisplayNameEmNSt3__18functionIFvNS2_4V2_15ErrorERKNS0_11hidl_stringEEEE
_ZN7android8hardware8graphics8composer4V2_218BpHwComposerClient14getDisplayTypeEmNSt3__18functionIFvNS2_4V2_15ErrorENS7_15IComposerClient11DisplayTypeEEEE
_ZN7android8hardware8graphics8composer4V2_218BpHwComposerClient14getDozeSupportEmNSt3__18functionIFvNS2_4V2_15ErrorEbEEE
_ZN7android8hardware8graphics8composer4V2_218BpHwComposerClient14interfaceChainENSt3__18functionIFvRKNS0_8hidl_vecINS0_11hidl_stringEEEEEE
_ZN7android8hardware8graphics8composer4V2_218BpHwComposerClient15executeCommandsEjRKNS0_8hidl_vecINS0_11hidl_handleEEENSt3__18functionIFvNS2_4V2_15ErrorEbjS9_EEE
_ZN7android8hardware8graphics8composer4V2_218BpHwComposerClient15getActiveConfigEmNSt3__18functionIFvNS2_4V2_15ErrorEjEEE
_ZN7android8hardware8graphics8composer4V2_218BpHwComposerClient15setActiveConfigEmj
_ZN7android8hardware8graphics8composer4V2_218BpHwComposerClient15setVsyncEnabledEmNS2_4V2_115IComposerClient5VsyncE
_ZN7android8hardware8graphics8composer4V2_218BpHwComposerClient16getRenderIntentsEmNS1_6common4V1_19ColorModeENSt3__18functionIFvNS2_4V2_15ErrorERKNS0_8hidl_vecINS6_12RenderIntentEEEEEE
_ZN7android8hardware8graphics8composer4V2_218BpHwComposerClient16registerCallbackERKNS_2spINS2_4V2_117IComposerCallbackEEE
_ZN7android8hardware8graphics8composer4V2_218BpHwComposerClient16setColorMode_2_2EmNS1_6common4V1_19ColorModeENS6_12RenderIntentE
_ZN7android8hardware8graphics8composer4V2_218BpHwComposerClient16setPowerMode_2_2EmNS3_15IComposerClient9PowerModeE
_ZN7android8hardware8graphics8composer4V2_218BpHwComposerClient17getColorModes_2_2EmNSt3__18functionIFvNS2_4V2_15ErrorERKNS0_8hidl_vecINS1_6common4V1_19ColorModeEEEEEE
_ZN7android8hardware8graphics8composer4V2_218BpHwComposerClient17getDisplayConfigsEmNSt3__18functionIFvNS2_4V2_15ErrorERKNS0_8hidl_vecIjEEEEE
_ZN7android8hardware8graphics8composer4V2_218BpHwComposerClient17setReadbackBufferEmRKNS0_11hidl_handleES7_
_ZN7android8hardware8graphics8composer4V2_218BpHwComposerClient18getHdrCapabilitiesEmNSt3__18functionIFvNS2_4V2_15ErrorERKNS0_8hidl_vecINS1_6common4V1_03HdrEEEfffEEE
_ZN7android8hardware8graphics8composer4V2_218BpHwComposerClient19executeCommands_2_2EjRKNS0_8hidl_vecINS0_11hidl_handleEEENSt3__18functionIFvNS2_4V2_15ErrorEbjS9_EEE
_ZN7android8hardware8graphics8composer4V2_218BpHwComposerClient19getDisplayAttributeEmjNS2_4V2_115IComposerClient9AttributeENSt3__18functionIFvNS5_5ErrorEiEEE
_ZN7android8hardware8graphics8composer4V2_218BpHwComposerClient19interfaceDescriptorENSt3__18functionIFvRKNS0_11hidl_stringEEEE
_ZN7android8hardware8graphics8composer4V2_218BpHwComposerClient20createVirtualDisplayEjjNS1_6common4V1_011PixelFormatEjNSt3__18functionIFvNS2_4V2_15ErrorEmS7_EEE
_ZN7android8hardware8graphics8composer4V2_218BpHwComposerClient20setInputCommandQueueERKNS0_12MQDescriptorIjLNS0_8MQFlavorE1EEE
_ZN7android8hardware8graphics8composer4V2_218BpHwComposerClient21destroyVirtualDisplayEm
_ZN7android8hardware8graphics8composer4V2_218BpHwComposerClient21getOutputCommandQueueENSt3__18functionIFvNS2_4V2_15ErrorERKNS0_12MQDescriptorIjLNS0_8MQFlavorE1EEEEEE
_ZN7android8hardware8graphics8composer4V2_218BpHwComposerClient21notifySyspropsChangedEv
_ZN7android8hardware8graphics8composer4V2_218BpHwComposerClient21setHALInstrumentationEv
_ZN7android8hardware8graphics8composer4V2_218BpHwComposerClient22_hidl_getRenderIntentsEPNS0_10IInterfaceEPNS0_7details16HidlInstrumentorEmNS1_6common4V1_19ColorModeENSt3__18functionIFvNS2_4V2_15ErrorERKNS0_8hidl_vecINSB_12RenderIntentEEEEEE
_ZN7android8hardware8graphics8composer4V2_218BpHwComposerClient22_hidl_setColorMode_2_2EPNS0_10IInterfaceEPNS0_7details16HidlInstrumentorEmNS1_6common4V1_19ColorModeENSB_12RenderIntentE
_ZN7android8hardware8graphics8composer4V2_218BpHwComposerClient22_hidl_setPowerMode_2_2EPNS0_10IInterfaceEPNS0_7details16HidlInstrumentorEmNS3_15IComposerClient9PowerModeE
_ZN7android8hardware8graphics8composer4V2_218BpHwComposerClient22getClientTargetSupportEmjjNS1_6common4V1_011PixelFormatENS6_9DataspaceE
_ZN7android8hardware8graphics8composer4V2_218BpHwComposerClient22getReadbackBufferFenceEmNSt3__18functionIFvNS2_4V2_15ErrorERKNS0_11hidl_handleEEEE
_ZN7android8hardware8graphics8composer4V2_218BpHwComposerClient23_hidl_getColorModes_2_2EPNS0_10IInterfaceEPNS0_7details16HidlInstrumentorEmNSt3__18functionIFvNS2_4V2_15ErrorERKNS0_8hidl_vecINS1_6common4V1_19ColorModeEEEEEE
_ZN7android8hardware8graphics8composer4V2_218BpHwComposerClient23_hidl_setReadbackBufferEPNS0_10IInterfaceEPNS0_7details16HidlInstrumentorEmRKNS0_11hidl_handleESC_
_ZN7android8hardware8graphics8composer4V2_218BpHwComposerClient23getPerFrameMetadataKeysEmNSt3__18functionIFvNS2_4V2_15ErrorERKNS0_8hidl_vecINS3_15IComposerClient19PerFrameMetadataKeyEEEEEE
_ZN7android8hardware8graphics8composer4V2_218BpHwComposerClient24createVirtualDisplay_2_2EjjNS1_6common4V1_111PixelFormatEjNSt3__18functionIFvNS2_4V2_15ErrorEmS7_EEE
_ZN7android8hardware8graphics8composer4V2_218BpHwComposerClient24setClientTargetSlotCountEmj
_ZN7android8hardware8graphics8composer4V2_218BpHwComposerClient25_hidl_executeCommands_2_2EPNS0_10IInterfaceEPNS0_7details16HidlInstrumentorEjRKNS0_8hidl_vecINS0_11hidl_handleEEENSt3__18functionIFvNS2_4V2_15ErrorEbjSE_EEE
_ZN7android8hardware8graphics8composer4V2_218BpHwComposerClient25getMaxVirtualDisplayCountEv
_ZN7android8hardware8graphics8composer4V2_218BpHwComposerClient26getClientTargetSupport_2_2EmjjNS1_6common4V1_111PixelFormatENS6_9DataspaceE
_ZN7android8hardware8graphics8composer4V2_218BpHwComposerClient27getReadbackBufferAttributesEmNSt3__18functionIFvNS2_4V2_15ErrorENS1_6common4V1_111PixelFormatENSA_9DataspaceEEEE
_ZN7android8hardware8graphics8composer4V2_218BpHwComposerClient28_hidl_getReadbackBufferFenceEPNS0_10IInterfaceEPNS0_7details16HidlInstrumentorEmNSt3__18functionIFvNS2_4V2_15ErrorERKNS0_11hidl_handleEEEE
_ZN7android8hardware8graphics8composer4V2_218BpHwComposerClient28getDataspaceSaturationMatrixENS1_6common4V1_19DataspaceENSt3__18functionIFvNS2_4V2_15ErrorERKNS0_10hidl_arrayIfLm4EJLm4EEEEEEE
_ZN7android8hardware8graphics8composer4V2_218BpHwComposerClient29_hidl_getPerFrameMetadataKeysEPNS0_10IInterfaceEPNS0_7details16HidlInstrumentorEmNSt3__18functionIFvNS2_4V2_15ErrorERKNS0_8hidl_vecINS3_15IComposerClient19PerFrameMetadataKeyEEEEEE
_ZN7android8hardware8graphics8composer4V2_218BpHwComposerClient30_hidl_createVirtualDisplay_2_2EPNS0_10IInterfaceEPNS0_7details16HidlInstrumentorEjjNS1_6common4V1_111PixelFormatEjNSt3__18functionIFvNS2_4V2_15ErrorEmSC_EEE
_ZN7android8hardware8graphics8composer4V2_218BpHwComposerClient32_hidl_getClientTargetSupport_2_2EPNS0_10IInterfaceEPNS0_7details16HidlInstrumentorEmjjNS1_6common4V1_111PixelFormatENSB_9DataspaceE
_ZN7android8hardware8graphics8composer4V2_218BpHwComposerClient33_hidl_getReadbackBufferAttributesEPNS0_10IInterfaceEPNS0_7details16HidlInstrumentorEmNSt3__18functionIFvNS2_4V2_15ErrorENS1_6common4V1_111PixelFormatENSF_9DataspaceEEEE
_ZN7android8hardware8graphics8composer4V2_218BpHwComposerClient34_hidl_getDataspaceSaturationMatrixEPNS0_10IInterfaceEPNS0_7details16HidlInstrumentorENS1_6common4V1_19DataspaceENSt3__18functionIFvNS2_4V2_15ErrorERKNS0_10hidl_arrayIfLm4EJLm4EEEEEEE
_ZN7android8hardware8graphics8composer4V2_218BpHwComposerClient4pingEv
_ZN7android8hardware8graphics8composer4V2_218BpHwComposerClient5debugERKNS0_11hidl_handleERKNS0_8hidl_vecINS0_11hidl_stringEEE
_ZN7android8hardware8graphics8composer4V2_218BpHwComposerClientC1ERKNS_2spINS0_7IBinderEEE
_ZN7android8hardware8graphics8composer4V2_218BpHwComposerClientC2ERKNS_2spINS0_7IBinderEEE
_ZN7android8hardware8graphics8composer4V2_29IComposer10descriptorE
_ZN7android8hardware8graphics8composer4V2_29IComposer10getServiceERKNSt3__112basic_stringIcNS5_11char_traitsIcEENS5_9allocatorIcEEEEb
_ZN7android8hardware8graphics8composer4V2_29IComposer11linkToDeathERKNS_2spINS0_20hidl_death_recipientEEEm
_ZN7android8hardware8graphics8composer4V2_29IComposer12getDebugInfoENSt3__18functionIFvRKNS_4hidl4base4V1_09DebugInfoEEEE
_ZN7android8hardware8graphics8composer4V2_29IComposer12getHashChainENSt3__18functionIFvRKNS0_8hidl_vecINS0_10hidl_arrayIhLm32EJEEEEEEEE
_ZN7android8hardware8graphics8composer4V2_29IComposer13tryGetServiceERKNSt3__112basic_stringIcNS5_11char_traitsIcEENS5_9allocatorIcEEEEb
_ZN7android8hardware8graphics8composer4V2_29IComposer13unlinkToDeathERKNS_2spINS0_20hidl_death_recipientEEE
_ZN7android8hardware8graphics8composer4V2_29IComposer14interfaceChainENSt3__18functionIFvRKNS0_8hidl_vecINS0_11hidl_stringEEEEEE
_ZN7android8hardware8graphics8composer4V2_29IComposer17registerAsServiceERKNSt3__112basic_stringIcNS5_11char_traitsIcEENS5_9allocatorIcEEEE
_ZN7android8hardware8graphics8composer4V2_29IComposer19interfaceDescriptorENSt3__18functionIFvRKNS0_11hidl_stringEEEE
_ZN7android8hardware8graphics8composer4V2_29IComposer21notifySyspropsChangedEv
_ZN7android8hardware8graphics8composer4V2_29IComposer21setHALInstrumentationEv
_ZN7android8hardware8graphics8composer4V2_29IComposer24registerForNotificationsERKNSt3__112basic_stringIcNS5_11char_traitsIcEENS5_9allocatorIcEEEERKNS_2spINS_4hidl7manager4V1_020IServiceNotificationEEE
_ZN7android8hardware8graphics8composer4V2_29IComposer4pingEv
_ZN7android8hardware8graphics8composer4V2_29IComposer5debugERKNS0_11hidl_handleERKNS0_8hidl_vecINS0_11hidl_stringEEE
_ZN7android8hardware8graphics8composer4V2_29IComposer8castFromERKNS_2spINS2_4V2_19IComposerEEEb
_ZN7android8hardware8graphics8composer4V2_29IComposer8castFromERKNS_2spINS_4hidl4base4V1_05IBaseEEEb
_ZN7android8hardware8graphics8composer4V2_29IComposer8castFromERKNS_2spIS4_EEb
_ZTCN7android8hardware8graphics8composer4V2_212BnHwComposerE0_NS0_7IBinderE
_ZTCN7android8hardware8graphics8composer4V2_212BnHwComposerE0_NS0_9BHwBinderE
_ZTCN7android8hardware8graphics8composer4V2_212BnHwComposerE0_NS_4hidl4base4V1_08BnHwBaseE
_ZTCN7android8hardware8graphics8composer4V2_212BpHwComposerE0_NS0_11BpInterfaceINS3_9IComposerEEE
_ZTCN7android8hardware8graphics8composer4V2_212BpHwComposerE0_NS2_4V2_19IComposerE
_ZTCN7android8hardware8graphics8composer4V2_212BpHwComposerE0_NS3_9IComposerE
_ZTCN7android8hardware8graphics8composer4V2_212BpHwComposerE0_NS_4hidl4base4V1_05IBaseE
_ZTCN7android8hardware8graphics8composer4V2_212BpHwComposerE16_NS0_11BpHwRefBaseE
_ZTCN7android8hardware8graphics8composer4V2_212BpHwComposerE8_NS0_10IInterfaceE
_ZTCN7android8hardware8graphics8composer4V2_215IComposerClientE0_NS2_4V2_115IComposerClientE
_ZTCN7android8hardware8graphics8composer4V2_215IComposerClientE0_NS_4hidl4base4V1_05IBaseE
_ZTCN7android8hardware8graphics8composer4V2_218BnHwComposerClientE0_NS0_7IBinderE
_ZTCN7android8hardware8graphics8composer4V2_218BnHwComposerClientE0_NS0_9BHwBinderE
_ZTCN7android8hardware8graphics8composer4V2_218BnHwComposerClientE0_NS_4hidl4base4V1_08BnHwBaseE
_ZTCN7android8hardware8graphics8composer4V2_218BpHwComposerClientE0_NS0_11BpInterfaceINS3_15IComposerClientEEE
_ZTCN7android8hardware8graphics8composer4V2_218BpHwComposerClientE0_NS2_4V2_115IComposerClientE
_ZTCN7android8hardware8graphics8composer4V2_218BpHwComposerClientE0_NS3_15IComposerClientE
_ZTCN7android8hardware8graphics8composer4V2_218BpHwComposerClientE0_NS_4hidl4base4V1_05IBaseE
_ZTCN7android8hardware8graphics8composer4V2_218BpHwComposerClientE16_NS0_11BpHwRefBaseE
_ZTCN7android8hardware8graphics8composer4V2_218BpHwComposerClientE8_NS0_10IInterfaceE
_ZTCN7android8hardware8graphics8composer4V2_29IComposerE0_NS2_4V2_19IComposerE
_ZTCN7android8hardware8graphics8composer4V2_29IComposerE0_NS_4hidl4base4V1_05IBaseE
_ZTTN7android8hardware8graphics8composer4V2_212BnHwComposerE
_ZTTN7android8hardware8graphics8composer4V2_212BpHwComposerE
_ZTTN7android8hardware8graphics8composer4V2_215IComposerClientE
_ZTTN7android8hardware8graphics8composer4V2_218BnHwComposerClientE
_ZTTN7android8hardware8graphics8composer4V2_218BpHwComposerClientE
_ZTTN7android8hardware8graphics8composer4V2_29IComposerE
_ZTVN7android8hardware8graphics8composer4V2_212BnHwComposerE
_ZTVN7android8hardware8graphics8composer4V2_212BpHwComposerE
_ZTVN7android8hardware8graphics8composer4V2_215IComposerClientE
_ZTVN7android8hardware8graphics8composer4V2_218BnHwComposerClientE
_ZTVN7android8hardware8graphics8composer4V2_218BpHwComposerClientE
_ZTVN7android8hardware8graphics8composer4V2_29IComposerE
_ZThn32_N7android8hardware8graphics8composer4V2_212BnHwComposerD0Ev
_ZThn32_N7android8hardware8graphics8composer4V2_212BnHwComposerD1Ev
_ZThn32_N7android8hardware8graphics8composer4V2_218BnHwComposerClientD0Ev
_ZThn32_N7android8hardware8graphics8composer4V2_218BnHwComposerClientD1Ev
_ZTv0_n24_N7android8hardware8graphics8composer4V2_212BnHwComposerD0Ev
_ZTv0_n24_N7android8hardware8graphics8composer4V2_212BnHwComposerD1Ev
_ZTv0_n24_N7android8hardware8graphics8composer4V2_218BnHwComposerClientD0Ev
_ZTv0_n24_N7android8hardware8graphics8composer4V2_218BnHwComposerClientD1Ev
