_ZN7android8hardware10contexthub4V1_011IContexthub10descriptorE
_ZN7android8hardware10contexthub4V1_011IContexthub10getServiceERKNSt3__112basic_stringIcNS4_11char_traitsIcEENS4_9allocatorIcEEEEb
_ZN7android8hardware10contexthub4V1_011IContexthub11linkToDeathERKNS_2spINS0_20hidl_death_recipientEEEm
_ZN7android8hardware10contexthub4V1_011IContexthub12getDebugInfoENSt3__18functionIFvRKNS_4hidl4base4V1_09DebugInfoEEEE
_ZN7android8hardware10contexthub4V1_011IContexthub12getHashChainENSt3__18functionIFvRKNS0_8hidl_vecINS0_10hidl_arrayIhLm32EJEEEEEEEE
_ZN7android8hardware10contexthub4V1_011IContexthub13tryGetServiceERKNSt3__112basic_stringIcNS4_11char_traitsIcEENS4_9allocatorIcEEEEb
_ZN7android8hardware10contexthub4V1_011IContexthub13unlinkToDeathERKNS_2spINS0_20hidl_death_recipientEEE
_ZN7android8hardware10contexthub4V1_011IContexthub14interfaceChainENSt3__18functionIFvRKNS0_8hidl_vecINS0_11hidl_stringEEEEEE
_ZN7android8hardware10contexthub4V1_011IContexthub17registerAsServiceERKNSt3__112basic_stringIcNS4_11char_traitsIcEENS4_9allocatorIcEEEE
_ZN7android8hardware10contexthub4V1_011IContexthub19interfaceDescriptorENSt3__18functionIFvRKNS0_11hidl_stringEEEE
_ZN7android8hardware10contexthub4V1_011IContexthub21notifySyspropsChangedEv
_ZN7android8hardware10contexthub4V1_011IContexthub21setHALInstrumentationEv
_ZN7android8hardware10contexthub4V1_011IContexthub24registerForNotificationsERKNSt3__112basic_stringIcNS4_11char_traitsIcEENS4_9allocatorIcEEEERKNS_2spINS_4hidl7manager4V1_020IServiceNotificationEEE
_ZN7android8hardware10contexthub4V1_011IContexthub4pingEv
_ZN7android8hardware10contexthub4V1_011IContexthub5debugERKNS0_11hidl_handleERKNS0_8hidl_vecINS0_11hidl_stringEEE
_ZN7android8hardware10contexthub4V1_011IContexthub8castFromERKNS_2spINS_4hidl4base4V1_05IBaseEEEb
_ZN7android8hardware10contexthub4V1_011IContexthub8castFromERKNS_2spIS3_EEb
_ZN7android8hardware10contexthub4V1_012BsContexthub13addOnewayTaskENSt3__18functionIFvvEEE
_ZN7android8hardware10contexthub4V1_012BsContexthubC1ENS_2spINS2_11IContexthubEEE
_ZN7android8hardware10contexthub4V1_012BsContexthubC2ENS_2spINS2_11IContexthubEEE
_ZN7android8hardware10contexthub4V1_014BnHwContexthub10onTransactEjRKNS0_6ParcelEPS4_jNSt3__18functionIFvRS4_EEE
_ZN7android8hardware10contexthub4V1_014BnHwContexthub12getDebugInfoENSt3__18functionIFvRKNS_4hidl4base4V1_09DebugInfoEEEE
_ZN7android8hardware10contexthub4V1_014BnHwContexthub13_hidl_getHubsEPNS_4hidl4base4V1_08BnHwBaseERKNS0_6ParcelEPS9_NSt3__18functionIFvRS9_EEE
_ZN7android8hardware10contexthub4V1_014BnHwContexthub15_hidl_queryAppsEPNS_4hidl4base4V1_08BnHwBaseERKNS0_6ParcelEPS9_NSt3__18functionIFvRS9_EEE
_ZN7android8hardware10contexthub4V1_014BnHwContexthub17_hidl_loadNanoAppEPNS_4hidl4base4V1_08BnHwBaseERKNS0_6ParcelEPS9_NSt3__18functionIFvRS9_EEE
_ZN7android8hardware10contexthub4V1_014BnHwContexthub19_hidl_enableNanoAppEPNS_4hidl4base4V1_08BnHwBaseERKNS0_6ParcelEPS9_NSt3__18functionIFvRS9_EEE
_ZN7android8hardware10contexthub4V1_014BnHwContexthub19_hidl_unloadNanoAppEPNS_4hidl4base4V1_08BnHwBaseERKNS0_6ParcelEPS9_NSt3__18functionIFvRS9_EEE
_ZN7android8hardware10contexthub4V1_014BnHwContexthub20_hidl_disableNanoAppEPNS_4hidl4base4V1_08BnHwBaseERKNS0_6ParcelEPS9_NSt3__18functionIFvRS9_EEE
_ZN7android8hardware10contexthub4V1_014BnHwContexthub22_hidl_registerCallbackEPNS_4hidl4base4V1_08BnHwBaseERKNS0_6ParcelEPS9_NSt3__18functionIFvRS9_EEE
_ZN7android8hardware10contexthub4V1_014BnHwContexthub22_hidl_sendMessageToHubEPNS_4hidl4base4V1_08BnHwBaseERKNS0_6ParcelEPS9_NSt3__18functionIFvRS9_EEE
_ZN7android8hardware10contexthub4V1_014BnHwContexthub4pingEv
_ZN7android8hardware10contexthub4V1_014BnHwContexthubC1ERKNS_2spINS2_11IContexthubEEE
_ZN7android8hardware10contexthub4V1_014BnHwContexthubC2ERKNS_2spINS2_11IContexthubEEE
_ZN7android8hardware10contexthub4V1_014BnHwContexthubD0Ev
_ZN7android8hardware10contexthub4V1_014BnHwContexthubD1Ev
_ZN7android8hardware10contexthub4V1_014BnHwContexthubD2Ev
_ZN7android8hardware10contexthub4V1_014BpHwContexthub11linkToDeathERKNS_2spINS0_20hidl_death_recipientEEEm
_ZN7android8hardware10contexthub4V1_014BpHwContexthub11loadNanoAppEjRKNS2_13NanoAppBinaryEj
_ZN7android8hardware10contexthub4V1_014BpHwContexthub12getDebugInfoENSt3__18functionIFvRKNS_4hidl4base4V1_09DebugInfoEEEE
_ZN7android8hardware10contexthub4V1_014BpHwContexthub12getHashChainENSt3__18functionIFvRKNS0_8hidl_vecINS0_10hidl_arrayIhLm32EJEEEEEEEE
_ZN7android8hardware10contexthub4V1_014BpHwContexthub13_hidl_getHubsEPNS0_10IInterfaceEPNS0_7details16HidlInstrumentorENSt3__18functionIFvRKNS0_8hidl_vecINS2_10ContextHubEEEEEE
_ZN7android8hardware10contexthub4V1_014BpHwContexthub13enableNanoAppEjmj
_ZN7android8hardware10contexthub4V1_014BpHwContexthub13unlinkToDeathERKNS_2spINS0_20hidl_death_recipientEEE
_ZN7android8hardware10contexthub4V1_014BpHwContexthub13unloadNanoAppEjmj
_ZN7android8hardware10contexthub4V1_014BpHwContexthub14disableNanoAppEjmj
_ZN7android8hardware10contexthub4V1_014BpHwContexthub14interfaceChainENSt3__18functionIFvRKNS0_8hidl_vecINS0_11hidl_stringEEEEEE
_ZN7android8hardware10contexthub4V1_014BpHwContexthub15_hidl_queryAppsEPNS0_10IInterfaceEPNS0_7details16HidlInstrumentorEj
_ZN7android8hardware10contexthub4V1_014BpHwContexthub16registerCallbackEjRKNS_2spINS2_19IContexthubCallbackEEE
_ZN7android8hardware10contexthub4V1_014BpHwContexthub16sendMessageToHubEjRKNS2_13ContextHubMsgE
_ZN7android8hardware10contexthub4V1_014BpHwContexthub17_hidl_loadNanoAppEPNS0_10IInterfaceEPNS0_7details16HidlInstrumentorEjRKNS2_13NanoAppBinaryEj
_ZN7android8hardware10contexthub4V1_014BpHwContexthub19_hidl_enableNanoAppEPNS0_10IInterfaceEPNS0_7details16HidlInstrumentorEjmj
_ZN7android8hardware10contexthub4V1_014BpHwContexthub19_hidl_unloadNanoAppEPNS0_10IInterfaceEPNS0_7details16HidlInstrumentorEjmj
_ZN7android8hardware10contexthub4V1_014BpHwContexthub19interfaceDescriptorENSt3__18functionIFvRKNS0_11hidl_stringEEEE
_ZN7android8hardware10contexthub4V1_014BpHwContexthub20_hidl_disableNanoAppEPNS0_10IInterfaceEPNS0_7details16HidlInstrumentorEjmj
_ZN7android8hardware10contexthub4V1_014BpHwContexthub21notifySyspropsChangedEv
_ZN7android8hardware10contexthub4V1_014BpHwContexthub21setHALInstrumentationEv
_ZN7android8hardware10contexthub4V1_014BpHwContexthub22_hidl_registerCallbackEPNS0_10IInterfaceEPNS0_7details16HidlInstrumentorEjRKNS_2spINS2_19IContexthubCallbackEEE
_ZN7android8hardware10contexthub4V1_014BpHwContexthub22_hidl_sendMessageToHubEPNS0_10IInterfaceEPNS0_7details16HidlInstrumentorEjRKNS2_13ContextHubMsgE
_ZN7android8hardware10contexthub4V1_014BpHwContexthub4pingEv
_ZN7android8hardware10contexthub4V1_014BpHwContexthub5debugERKNS0_11hidl_handleERKNS0_8hidl_vecINS0_11hidl_stringEEE
_ZN7android8hardware10contexthub4V1_014BpHwContexthub7getHubsENSt3__18functionIFvRKNS0_8hidl_vecINS2_10ContextHubEEEEEE
_ZN7android8hardware10contexthub4V1_014BpHwContexthub9queryAppsEj
_ZN7android8hardware10contexthub4V1_014BpHwContexthubC1ERKNS_2spINS0_7IBinderEEE
_ZN7android8hardware10contexthub4V1_014BpHwContexthubC2ERKNS_2spINS0_7IBinderEEE
_ZN7android8hardware10contexthub4V1_019IContexthubCallback10descriptorE
_ZN7android8hardware10contexthub4V1_019IContexthubCallback10getServiceERKNSt3__112basic_stringIcNS4_11char_traitsIcEENS4_9allocatorIcEEEEb
_ZN7android8hardware10contexthub4V1_019IContexthubCallback11linkToDeathERKNS_2spINS0_20hidl_death_recipientEEEm
_ZN7android8hardware10contexthub4V1_019IContexthubCallback12getDebugInfoENSt3__18functionIFvRKNS_4hidl4base4V1_09DebugInfoEEEE
_ZN7android8hardware10contexthub4V1_019IContexthubCallback12getHashChainENSt3__18functionIFvRKNS0_8hidl_vecINS0_10hidl_arrayIhLm32EJEEEEEEEE
_ZN7android8hardware10contexthub4V1_019IContexthubCallback13tryGetServiceERKNSt3__112basic_stringIcNS4_11char_traitsIcEENS4_9allocatorIcEEEEb
_ZN7android8hardware10contexthub4V1_019IContexthubCallback13unlinkToDeathERKNS_2spINS0_20hidl_death_recipientEEE
_ZN7android8hardware10contexthub4V1_019IContexthubCallback14interfaceChainENSt3__18functionIFvRKNS0_8hidl_vecINS0_11hidl_stringEEEEEE
_ZN7android8hardware10contexthub4V1_019IContexthubCallback17registerAsServiceERKNSt3__112basic_stringIcNS4_11char_traitsIcEENS4_9allocatorIcEEEE
_ZN7android8hardware10contexthub4V1_019IContexthubCallback19interfaceDescriptorENSt3__18functionIFvRKNS0_11hidl_stringEEEE
_ZN7android8hardware10contexthub4V1_019IContexthubCallback21notifySyspropsChangedEv
_ZN7android8hardware10contexthub4V1_019IContexthubCallback21setHALInstrumentationEv
_ZN7android8hardware10contexthub4V1_019IContexthubCallback24registerForNotificationsERKNSt3__112basic_stringIcNS4_11char_traitsIcEENS4_9allocatorIcEEEERKNS_2spINS_4hidl7manager4V1_020IServiceNotificationEEE
_ZN7android8hardware10contexthub4V1_019IContexthubCallback4pingEv
_ZN7android8hardware10contexthub4V1_019IContexthubCallback5debugERKNS0_11hidl_handleERKNS0_8hidl_vecINS0_11hidl_stringEEE
_ZN7android8hardware10contexthub4V1_019IContexthubCallback8castFromERKNS_2spINS_4hidl4base4V1_05IBaseEEEb
_ZN7android8hardware10contexthub4V1_019IContexthubCallback8castFromERKNS_2spIS3_EEb
_ZN7android8hardware10contexthub4V1_020BsContexthubCallback13addOnewayTaskENSt3__18functionIFvvEEE
_ZN7android8hardware10contexthub4V1_020BsContexthubCallbackC1ENS_2spINS2_19IContexthubCallbackEEE
_ZN7android8hardware10contexthub4V1_020BsContexthubCallbackC2ENS_2spINS2_19IContexthubCallbackEEE
_ZN7android8hardware10contexthub4V1_021writeEmbeddedToParcelERKNS2_10ContextHubEPNS0_6ParcelEmm
_ZN7android8hardware10contexthub4V1_021writeEmbeddedToParcelERKNS2_10HubAppInfoEPNS0_6ParcelEmm
_ZN7android8hardware10contexthub4V1_021writeEmbeddedToParcelERKNS2_13ContextHubMsgEPNS0_6ParcelEmm
_ZN7android8hardware10contexthub4V1_021writeEmbeddedToParcelERKNS2_13NanoAppBinaryEPNS0_6ParcelEmm
_ZN7android8hardware10contexthub4V1_021writeEmbeddedToParcelERKNS2_14PhysicalSensorEPNS0_6ParcelEmm
_ZN7android8hardware10contexthub4V1_022BnHwContexthubCallback10onTransactEjRKNS0_6ParcelEPS4_jNSt3__18functionIFvRS4_EEE
_ZN7android8hardware10contexthub4V1_022BnHwContexthubCallback12getDebugInfoENSt3__18functionIFvRKNS_4hidl4base4V1_09DebugInfoEEEE
_ZN7android8hardware10contexthub4V1_022BnHwContexthubCallback20_hidl_handleAppAbortEPNS_4hidl4base4V1_08BnHwBaseERKNS0_6ParcelEPS9_NSt3__18functionIFvRS9_EEE
_ZN7android8hardware10contexthub4V1_022BnHwContexthubCallback20_hidl_handleAppsInfoEPNS_4hidl4base4V1_08BnHwBaseERKNS0_6ParcelEPS9_NSt3__18functionIFvRS9_EEE
_ZN7android8hardware10contexthub4V1_022BnHwContexthubCallback20_hidl_handleHubEventEPNS_4hidl4base4V1_08BnHwBaseERKNS0_6ParcelEPS9_NSt3__18functionIFvRS9_EEE
_ZN7android8hardware10contexthub4V1_022BnHwContexthubCallback21_hidl_handleClientMsgEPNS_4hidl4base4V1_08BnHwBaseERKNS0_6ParcelEPS9_NSt3__18functionIFvRS9_EEE
_ZN7android8hardware10contexthub4V1_022BnHwContexthubCallback21_hidl_handleTxnResultEPNS_4hidl4base4V1_08BnHwBaseERKNS0_6ParcelEPS9_NSt3__18functionIFvRS9_EEE
_ZN7android8hardware10contexthub4V1_022BnHwContexthubCallback4pingEv
_ZN7android8hardware10contexthub4V1_022BnHwContexthubCallbackC1ERKNS_2spINS2_19IContexthubCallbackEEE
_ZN7android8hardware10contexthub4V1_022BnHwContexthubCallbackC2ERKNS_2spINS2_19IContexthubCallbackEEE
_ZN7android8hardware10contexthub4V1_022BnHwContexthubCallbackD0Ev
_ZN7android8hardware10contexthub4V1_022BnHwContexthubCallbackD1Ev
_ZN7android8hardware10contexthub4V1_022BnHwContexthubCallbackD2Ev
_ZN7android8hardware10contexthub4V1_022BpHwContexthubCallback11linkToDeathERKNS_2spINS0_20hidl_death_recipientEEEm
_ZN7android8hardware10contexthub4V1_022BpHwContexthubCallback12getDebugInfoENSt3__18functionIFvRKNS_4hidl4base4V1_09DebugInfoEEEE
_ZN7android8hardware10contexthub4V1_022BpHwContexthubCallback12getHashChainENSt3__18functionIFvRKNS0_8hidl_vecINS0_10hidl_arrayIhLm32EJEEEEEEEE
_ZN7android8hardware10contexthub4V1_022BpHwContexthubCallback13unlinkToDeathERKNS_2spINS0_20hidl_death_recipientEEE
_ZN7android8hardware10contexthub4V1_022BpHwContexthubCallback14handleAppAbortEmj
_ZN7android8hardware10contexthub4V1_022BpHwContexthubCallback14handleAppsInfoERKNS0_8hidl_vecINS2_10HubAppInfoEEE
_ZN7android8hardware10contexthub4V1_022BpHwContexthubCallback14handleHubEventENS2_14AsyncEventTypeE
_ZN7android8hardware10contexthub4V1_022BpHwContexthubCallback14interfaceChainENSt3__18functionIFvRKNS0_8hidl_vecINS0_11hidl_stringEEEEEE
_ZN7android8hardware10contexthub4V1_022BpHwContexthubCallback15handleClientMsgERKNS2_13ContextHubMsgE
_ZN7android8hardware10contexthub4V1_022BpHwContexthubCallback15handleTxnResultEjNS2_17TransactionResultE
_ZN7android8hardware10contexthub4V1_022BpHwContexthubCallback19interfaceDescriptorENSt3__18functionIFvRKNS0_11hidl_stringEEEE
_ZN7android8hardware10contexthub4V1_022BpHwContexthubCallback20_hidl_handleAppAbortEPNS0_10IInterfaceEPNS0_7details16HidlInstrumentorEmj
_ZN7android8hardware10contexthub4V1_022BpHwContexthubCallback20_hidl_handleAppsInfoEPNS0_10IInterfaceEPNS0_7details16HidlInstrumentorERKNS0_8hidl_vecINS2_10HubAppInfoEEE
_ZN7android8hardware10contexthub4V1_022BpHwContexthubCallback20_hidl_handleHubEventEPNS0_10IInterfaceEPNS0_7details16HidlInstrumentorENS2_14AsyncEventTypeE
_ZN7android8hardware10contexthub4V1_022BpHwContexthubCallback21_hidl_handleClientMsgEPNS0_10IInterfaceEPNS0_7details16HidlInstrumentorERKNS2_13ContextHubMsgE
_ZN7android8hardware10contexthub4V1_022BpHwContexthubCallback21_hidl_handleTxnResultEPNS0_10IInterfaceEPNS0_7details16HidlInstrumentorEjNS2_17TransactionResultE
_ZN7android8hardware10contexthub4V1_022BpHwContexthubCallback21notifySyspropsChangedEv
_ZN7android8hardware10contexthub4V1_022BpHwContexthubCallback21setHALInstrumentationEv
_ZN7android8hardware10contexthub4V1_022BpHwContexthubCallback4pingEv
_ZN7android8hardware10contexthub4V1_022BpHwContexthubCallback5debugERKNS0_11hidl_handleERKNS0_8hidl_vecINS0_11hidl_stringEEE
_ZN7android8hardware10contexthub4V1_022BpHwContexthubCallbackC1ERKNS_2spINS0_7IBinderEEE
_ZN7android8hardware10contexthub4V1_022BpHwContexthubCallbackC2ERKNS_2spINS0_7IBinderEEE
_ZN7android8hardware10contexthub4V1_022readEmbeddedFromParcelERKNS2_10ContextHubERKNS0_6ParcelEmm
_ZN7android8hardware10contexthub4V1_022readEmbeddedFromParcelERKNS2_10HubAppInfoERKNS0_6ParcelEmm
_ZN7android8hardware10contexthub4V1_022readEmbeddedFromParcelERKNS2_13ContextHubMsgERKNS0_6ParcelEmm
_ZN7android8hardware10contexthub4V1_022readEmbeddedFromParcelERKNS2_13NanoAppBinaryERKNS0_6ParcelEmm
_ZN7android8hardware10contexthub4V1_022readEmbeddedFromParcelERKNS2_14PhysicalSensorERKNS0_6ParcelEmm
_ZTCN7android8hardware10contexthub4V1_011IContexthubE0_NS_4hidl4base4V1_05IBaseE
_ZTCN7android8hardware10contexthub4V1_014BnHwContexthubE0_NS0_7IBinderE
_ZTCN7android8hardware10contexthub4V1_014BnHwContexthubE0_NS0_9BHwBinderE
_ZTCN7android8hardware10contexthub4V1_014BnHwContexthubE0_NS_4hidl4base4V1_08BnHwBaseE
_ZTCN7android8hardware10contexthub4V1_014BpHwContexthubE0_NS0_11BpInterfaceINS2_11IContexthubEEE
_ZTCN7android8hardware10contexthub4V1_014BpHwContexthubE0_NS2_11IContexthubE
_ZTCN7android8hardware10contexthub4V1_014BpHwContexthubE0_NS_4hidl4base4V1_05IBaseE
_ZTCN7android8hardware10contexthub4V1_014BpHwContexthubE16_NS0_11BpHwRefBaseE
_ZTCN7android8hardware10contexthub4V1_014BpHwContexthubE8_NS0_10IInterfaceE
_ZTCN7android8hardware10contexthub4V1_019IContexthubCallbackE0_NS_4hidl4base4V1_05IBaseE
_ZTCN7android8hardware10contexthub4V1_022BnHwContexthubCallbackE0_NS0_7IBinderE
_ZTCN7android8hardware10contexthub4V1_022BnHwContexthubCallbackE0_NS0_9BHwBinderE
_ZTCN7android8hardware10contexthub4V1_022BnHwContexthubCallbackE0_NS_4hidl4base4V1_08BnHwBaseE
_ZTCN7android8hardware10contexthub4V1_022BpHwContexthubCallbackE0_NS0_11BpInterfaceINS2_19IContexthubCallbackEEE
_ZTCN7android8hardware10contexthub4V1_022BpHwContexthubCallbackE0_NS2_19IContexthubCallbackE
_ZTCN7android8hardware10contexthub4V1_022BpHwContexthubCallbackE0_NS_4hidl4base4V1_05IBaseE
_ZTCN7android8hardware10contexthub4V1_022BpHwContexthubCallbackE16_NS0_11BpHwRefBaseE
_ZTCN7android8hardware10contexthub4V1_022BpHwContexthubCallbackE8_NS0_10IInterfaceE
_ZTTN7android8hardware10contexthub4V1_011IContexthubE
_ZTTN7android8hardware10contexthub4V1_014BnHwContexthubE
_ZTTN7android8hardware10contexthub4V1_014BpHwContexthubE
_ZTTN7android8hardware10contexthub4V1_019IContexthubCallbackE
_ZTTN7android8hardware10contexthub4V1_022BnHwContexthubCallbackE
_ZTTN7android8hardware10contexthub4V1_022BpHwContexthubCallbackE
_ZTVN7android8hardware10contexthub4V1_011IContexthubE
_ZTVN7android8hardware10contexthub4V1_014BnHwContexthubE
_ZTVN7android8hardware10contexthub4V1_014BpHwContexthubE
_ZTVN7android8hardware10contexthub4V1_019IContexthubCallbackE
_ZTVN7android8hardware10contexthub4V1_022BnHwContexthubCallbackE
_ZTVN7android8hardware10contexthub4V1_022BpHwContexthubCallbackE
_ZThn32_N7android8hardware10contexthub4V1_014BnHwContexthubD0Ev
_ZThn32_N7android8hardware10contexthub4V1_014BnHwContexthubD1Ev
_ZThn32_N7android8hardware10contexthub4V1_022BnHwContexthubCallbackD0Ev
_ZThn32_N7android8hardware10contexthub4V1_022BnHwContexthubCallbackD1Ev
_ZTv0_n24_N7android8hardware10contexthub4V1_014BnHwContexthubD0Ev
_ZTv0_n24_N7android8hardware10contexthub4V1_014BnHwContexthubD1Ev
_ZTv0_n24_N7android8hardware10contexthub4V1_022BnHwContexthubCallbackD0Ev
_ZTv0_n24_N7android8hardware10contexthub4V1_022BnHwContexthubCallbackD1Ev
