_ZN7android6system4wifi8keystore4V1_010BsKeystore13addOnewayTaskENSt3__18functionIFvvEEE
_ZN7android6system4wifi8keystore4V1_010BsKeystoreC1ENS_2spINS3_9IKeystoreEEE
_ZN7android6system4wifi8keystore4V1_010BsKeystoreC2ENS_2spINS3_9IKeystoreEEE
_ZN7android6system4wifi8keystore4V1_012BnHwKeystore10_hidl_signEPNS_4hidl4base4V1_08BnHwBaseERKNS_8hardware6ParcelEPSB_NSt3__18functionIFvRSB_EEE
_ZN7android6system4wifi8keystore4V1_012BnHwKeystore10onTransactEjRKNS_8hardware6ParcelEPS6_jNSt3__18functionIFvRS6_EEE
_ZN7android6system4wifi8keystore4V1_012BnHwKeystore12getDebugInfoENSt3__18functionIFvRKNS_4hidl4base4V1_09DebugInfoEEEE
_ZN7android6system4wifi8keystore4V1_012BnHwKeystore13_hidl_getBlobEPNS_4hidl4base4V1_08BnHwBaseERKNS_8hardware6ParcelEPSB_NSt3__18functionIFvRSB_EEE
_ZN7android6system4wifi8keystore4V1_012BnHwKeystore18_hidl_getPublicKeyEPNS_4hidl4base4V1_08BnHwBaseERKNS_8hardware6ParcelEPSB_NSt3__18functionIFvRSB_EEE
_ZN7android6system4wifi8keystore4V1_012BnHwKeystore4pingEv
_ZN7android6system4wifi8keystore4V1_012BnHwKeystoreC1ERKNS_2spINS3_9IKeystoreEEE
_ZN7android6system4wifi8keystore4V1_012BnHwKeystoreC2ERKNS_2spINS3_9IKeystoreEEE
_ZN7android6system4wifi8keystore4V1_012BnHwKeystoreD0Ev
_ZN7android6system4wifi8keystore4V1_012BnHwKeystoreD1Ev
_ZN7android6system4wifi8keystore4V1_012BnHwKeystoreD2Ev
_ZN7android6system4wifi8keystore4V1_012BpHwKeystore10_hidl_signEPNS_8hardware10IInterfaceEPNS5_7details16HidlInstrumentorERKNS5_11hidl_stringERKNS5_8hidl_vecIhEENSt3__18functionIFvNS3_9IKeystore18KeystoreStatusCodeESH_EEE
_ZN7android6system4wifi8keystore4V1_012BpHwKeystore11linkToDeathERKNS_2spINS_8hardware20hidl_death_recipientEEEm
_ZN7android6system4wifi8keystore4V1_012BpHwKeystore12getDebugInfoENSt3__18functionIFvRKNS_4hidl4base4V1_09DebugInfoEEEE
_ZN7android6system4wifi8keystore4V1_012BpHwKeystore12getHashChainENSt3__18functionIFvRKNS_8hardware8hidl_vecINS7_10hidl_arrayIhLm32EJEEEEEEEE
_ZN7android6system4wifi8keystore4V1_012BpHwKeystore12getPublicKeyERKNS_8hardware11hidl_stringENSt3__18functionIFvNS3_9IKeystore18KeystoreStatusCodeERKNS5_8hidl_vecIhEEEEE
_ZN7android6system4wifi8keystore4V1_012BpHwKeystore13_hidl_getBlobEPNS_8hardware10IInterfaceEPNS5_7details16HidlInstrumentorERKNS5_11hidl_stringENSt3__18functionIFvNS3_9IKeystore18KeystoreStatusCodeERKNS5_8hidl_vecIhEEEEE
_ZN7android6system4wifi8keystore4V1_012BpHwKeystore13unlinkToDeathERKNS_2spINS_8hardware20hidl_death_recipientEEE
_ZN7android6system4wifi8keystore4V1_012BpHwKeystore14interfaceChainENSt3__18functionIFvRKNS_8hardware8hidl_vecINS7_11hidl_stringEEEEEE
_ZN7android6system4wifi8keystore4V1_012BpHwKeystore18_hidl_getPublicKeyEPNS_8hardware10IInterfaceEPNS5_7details16HidlInstrumentorERKNS5_11hidl_stringENSt3__18functionIFvNS3_9IKeystore18KeystoreStatusCodeERKNS5_8hidl_vecIhEEEEE
_ZN7android6system4wifi8keystore4V1_012BpHwKeystore19interfaceDescriptorENSt3__18functionIFvRKNS_8hardware11hidl_stringEEEE
_ZN7android6system4wifi8keystore4V1_012BpHwKeystore21notifySyspropsChangedEv
_ZN7android6system4wifi8keystore4V1_012BpHwKeystore21setHALInstrumentationEv
_ZN7android6system4wifi8keystore4V1_012BpHwKeystore4pingEv
_ZN7android6system4wifi8keystore4V1_012BpHwKeystore4signERKNS_8hardware11hidl_stringERKNS5_8hidl_vecIhEENSt3__18functionIFvNS3_9IKeystore18KeystoreStatusCodeESC_EEE
_ZN7android6system4wifi8keystore4V1_012BpHwKeystore5debugERKNS_8hardware11hidl_handleERKNS5_8hidl_vecINS5_11hidl_stringEEE
_ZN7android6system4wifi8keystore4V1_012BpHwKeystore7getBlobERKNS_8hardware11hidl_stringENSt3__18functionIFvNS3_9IKeystore18KeystoreStatusCodeERKNS5_8hidl_vecIhEEEEE
_ZN7android6system4wifi8keystore4V1_012BpHwKeystoreC1ERKNS_2spINS_8hardware7IBinderEEE
_ZN7android6system4wifi8keystore4V1_012BpHwKeystoreC2ERKNS_2spINS_8hardware7IBinderEEE
_ZN7android6system4wifi8keystore4V1_09IKeystore10descriptorE
_ZN7android6system4wifi8keystore4V1_09IKeystore10getServiceERKNSt3__112basic_stringIcNS5_11char_traitsIcEENS5_9allocatorIcEEEEb
_ZN7android6system4wifi8keystore4V1_09IKeystore11linkToDeathERKNS_2spINS_8hardware20hidl_death_recipientEEEm
_ZN7android6system4wifi8keystore4V1_09IKeystore12getDebugInfoENSt3__18functionIFvRKNS_4hidl4base4V1_09DebugInfoEEEE
_ZN7android6system4wifi8keystore4V1_09IKeystore12getHashChainENSt3__18functionIFvRKNS_8hardware8hidl_vecINS7_10hidl_arrayIhLm32EJEEEEEEEE
_ZN7android6system4wifi8keystore4V1_09IKeystore13tryGetServiceERKNSt3__112basic_stringIcNS5_11char_traitsIcEENS5_9allocatorIcEEEEb
_ZN7android6system4wifi8keystore4V1_09IKeystore13unlinkToDeathERKNS_2spINS_8hardware20hidl_death_recipientEEE
_ZN7android6system4wifi8keystore4V1_09IKeystore14interfaceChainENSt3__18functionIFvRKNS_8hardware8hidl_vecINS7_11hidl_stringEEEEEE
_ZN7android6system4wifi8keystore4V1_09IKeystore17registerAsServiceERKNSt3__112basic_stringIcNS5_11char_traitsIcEENS5_9allocatorIcEEEE
_ZN7android6system4wifi8keystore4V1_09IKeystore19interfaceDescriptorENSt3__18functionIFvRKNS_8hardware11hidl_stringEEEE
_ZN7android6system4wifi8keystore4V1_09IKeystore21notifySyspropsChangedEv
_ZN7android6system4wifi8keystore4V1_09IKeystore21setHALInstrumentationEv
_ZN7android6system4wifi8keystore4V1_09IKeystore24registerForNotificationsERKNSt3__112basic_stringIcNS5_11char_traitsIcEENS5_9allocatorIcEEEERKNS_2spINS_4hidl7manager4V1_020IServiceNotificationEEE
_ZN7android6system4wifi8keystore4V1_09IKeystore4pingEv
_ZN7android6system4wifi8keystore4V1_09IKeystore5debugERKNS_8hardware11hidl_handleERKNS5_8hidl_vecINS5_11hidl_stringEEE
_ZN7android6system4wifi8keystore4V1_09IKeystore8castFromERKNS_2spINS_4hidl4base4V1_05IBaseEEEb
_ZN7android6system4wifi8keystore4V1_09IKeystore8castFromERKNS_2spIS4_EEb
_ZTCN7android6system4wifi8keystore4V1_012BnHwKeystoreE0_NS_4hidl4base4V1_08BnHwBaseE
_ZTCN7android6system4wifi8keystore4V1_012BnHwKeystoreE0_NS_8hardware7IBinderE
_ZTCN7android6system4wifi8keystore4V1_012BnHwKeystoreE0_NS_8hardware9BHwBinderE
_ZTCN7android6system4wifi8keystore4V1_012BpHwKeystoreE0_NS3_9IKeystoreE
_ZTCN7android6system4wifi8keystore4V1_012BpHwKeystoreE0_NS_4hidl4base4V1_05IBaseE
_ZTCN7android6system4wifi8keystore4V1_012BpHwKeystoreE0_NS_8hardware11BpInterfaceINS3_9IKeystoreEEE
_ZTCN7android6system4wifi8keystore4V1_012BpHwKeystoreE16_NS_8hardware11BpHwRefBaseE
_ZTCN7android6system4wifi8keystore4V1_012BpHwKeystoreE8_NS_8hardware10IInterfaceE
_ZTCN7android6system4wifi8keystore4V1_09IKeystoreE0_NS_4hidl4base4V1_05IBaseE
_ZTTN7android6system4wifi8keystore4V1_012BnHwKeystoreE
_ZTTN7android6system4wifi8keystore4V1_012BpHwKeystoreE
_ZTTN7android6system4wifi8keystore4V1_09IKeystoreE
_ZTVN7android6system4wifi8keystore4V1_012BnHwKeystoreE
_ZTVN7android6system4wifi8keystore4V1_012BpHwKeystoreE
_ZTVN7android6system4wifi8keystore4V1_09IKeystoreE
_ZThn32_N7android6system4wifi8keystore4V1_012BnHwKeystoreD0Ev
_ZThn32_N7android6system4wifi8keystore4V1_012BnHwKeystoreD1Ev
_ZTv0_n24_N7android6system4wifi8keystore4V1_012BnHwKeystoreD0Ev
_ZTv0_n24_N7android6system4wifi8keystore4V1_012BnHwKeystoreD1Ev
