_ZN7android8hardware14broadcastradio4V1_114ITunerCallback10descriptorE
_ZN7android8hardware14broadcastradio4V1_114ITunerCallback10getServiceERKNSt3__112basic_stringIcNS4_11char_traitsIcEENS4_9allocatorIcEEEEb
_ZN7android8hardware14broadcastradio4V1_114ITunerCallback11linkToDeathERKNS_2spINS0_20hidl_death_recipientEEEm
_ZN7android8hardware14broadcastradio4V1_114ITunerCallback12getDebugInfoENSt3__18functionIFvRKNS_4hidl4base4V1_09DebugInfoEEEE
_ZN7android8hardware14broadcastradio4V1_114ITunerCallback12getHashChainENSt3__18functionIFvRKNS0_8hidl_vecINS0_10hidl_arrayIhLm32EJEEEEEEEE
_ZN7android8hardware14broadcastradio4V1_114ITunerCallback13tryGetServiceERKNSt3__112basic_stringIcNS4_11char_traitsIcEENS4_9allocatorIcEEEEb
_ZN7android8hardware14broadcastradio4V1_114ITunerCallback13unlinkToDeathERKNS_2spINS0_20hidl_death_recipientEEE
_ZN7android8hardware14broadcastradio4V1_114ITunerCallback14interfaceChainENSt3__18functionIFvRKNS0_8hidl_vecINS0_11hidl_stringEEEEEE
_ZN7android8hardware14broadcastradio4V1_114ITunerCallback17registerAsServiceERKNSt3__112basic_stringIcNS4_11char_traitsIcEENS4_9allocatorIcEEEE
_ZN7android8hardware14broadcastradio4V1_114ITunerCallback19interfaceDescriptorENSt3__18functionIFvRKNS0_11hidl_stringEEEE
_ZN7android8hardware14broadcastradio4V1_114ITunerCallback21notifySyspropsChangedEv
_ZN7android8hardware14broadcastradio4V1_114ITunerCallback21setHALInstrumentationEv
_ZN7android8hardware14broadcastradio4V1_114ITunerCallback24registerForNotificationsERKNSt3__112basic_stringIcNS4_11char_traitsIcEENS4_9allocatorIcEEEERKNS_2spINS_4hidl7manager4V1_020IServiceNotificationEEE
_ZN7android8hardware14broadcastradio4V1_114ITunerCallback4pingEv
_ZN7android8hardware14broadcastradio4V1_114ITunerCallback5debugERKNS0_11hidl_handleERKNS0_8hidl_vecINS0_11hidl_stringEEE
_ZN7android8hardware14broadcastradio4V1_114ITunerCallback8castFromERKNS_2spINS1_4V1_014ITunerCallbackEEEb
_ZN7android8hardware14broadcastradio4V1_114ITunerCallback8castFromERKNS_2spINS_4hidl4base4V1_05IBaseEEEb
_ZN7android8hardware14broadcastradio4V1_114ITunerCallback8castFromERKNS_2spIS3_EEb
_ZN7android8hardware14broadcastradio4V1_115BsTunerCallback13addOnewayTaskENSt3__18functionIFvvEEE
_ZN7android8hardware14broadcastradio4V1_115BsTunerCallbackC1ENS_2spINS2_14ITunerCallbackEEE
_ZN7android8hardware14broadcastradio4V1_115BsTunerCallbackC2ENS_2spINS2_14ITunerCallbackEEE
_ZN7android8hardware14broadcastradio4V1_115IBroadcastRadio10descriptorE
_ZN7android8hardware14broadcastradio4V1_115IBroadcastRadio10getServiceERKNSt3__112basic_stringIcNS4_11char_traitsIcEENS4_9allocatorIcEEEEb
_ZN7android8hardware14broadcastradio4V1_115IBroadcastRadio11linkToDeathERKNS_2spINS0_20hidl_death_recipientEEEm
_ZN7android8hardware14broadcastradio4V1_115IBroadcastRadio12getDebugInfoENSt3__18functionIFvRKNS_4hidl4base4V1_09DebugInfoEEEE
_ZN7android8hardware14broadcastradio4V1_115IBroadcastRadio12getHashChainENSt3__18functionIFvRKNS0_8hidl_vecINS0_10hidl_arrayIhLm32EJEEEEEEEE
_ZN7android8hardware14broadcastradio4V1_115IBroadcastRadio13tryGetServiceERKNSt3__112basic_stringIcNS4_11char_traitsIcEENS4_9allocatorIcEEEEb
_ZN7android8hardware14broadcastradio4V1_115IBroadcastRadio13unlinkToDeathERKNS_2spINS0_20hidl_death_recipientEEE
_ZN7android8hardware14broadcastradio4V1_115IBroadcastRadio14interfaceChainENSt3__18functionIFvRKNS0_8hidl_vecINS0_11hidl_stringEEEEEE
_ZN7android8hardware14broadcastradio4V1_115IBroadcastRadio17registerAsServiceERKNSt3__112basic_stringIcNS4_11char_traitsIcEENS4_9allocatorIcEEEE
_ZN7android8hardware14broadcastradio4V1_115IBroadcastRadio19interfaceDescriptorENSt3__18functionIFvRKNS0_11hidl_stringEEEE
_ZN7android8hardware14broadcastradio4V1_115IBroadcastRadio21notifySyspropsChangedEv
_ZN7android8hardware14broadcastradio4V1_115IBroadcastRadio21setHALInstrumentationEv
_ZN7android8hardware14broadcastradio4V1_115IBroadcastRadio24registerForNotificationsERKNSt3__112basic_stringIcNS4_11char_traitsIcEENS4_9allocatorIcEEEERKNS_2spINS_4hidl7manager4V1_020IServiceNotificationEEE
_ZN7android8hardware14broadcastradio4V1_115IBroadcastRadio4pingEv
_ZN7android8hardware14broadcastradio4V1_115IBroadcastRadio5debugERKNS0_11hidl_handleERKNS0_8hidl_vecINS0_11hidl_stringEEE
_ZN7android8hardware14broadcastradio4V1_115IBroadcastRadio8castFromERKNS_2spINS1_4V1_015IBroadcastRadioEEEb
_ZN7android8hardware14broadcastradio4V1_115IBroadcastRadio8castFromERKNS_2spINS_4hidl4base4V1_05IBaseEEEb
_ZN7android8hardware14broadcastradio4V1_115IBroadcastRadio8castFromERKNS_2spIS3_EEb
_ZN7android8hardware14broadcastradio4V1_116BsBroadcastRadio13addOnewayTaskENSt3__18functionIFvvEEE
_ZN7android8hardware14broadcastradio4V1_116BsBroadcastRadioC1ENS_2spINS2_15IBroadcastRadioEEE
_ZN7android8hardware14broadcastradio4V1_116BsBroadcastRadioC2ENS_2spINS2_15IBroadcastRadioEEE
_ZN7android8hardware14broadcastradio4V1_117BnHwTunerCallback10onTransactEjRKNS0_6ParcelEPS4_jNSt3__18functionIFvRS4_EEE
_ZN7android8hardware14broadcastradio4V1_117BnHwTunerCallback12getDebugInfoENSt3__18functionIFvRKNS_4hidl4base4V1_09DebugInfoEEEE
_ZN7android8hardware14broadcastradio4V1_117BnHwTunerCallback22_hidl_tuneComplete_1_1EPNS_4hidl4base4V1_08BnHwBaseERKNS0_6ParcelEPS9_NSt3__18functionIFvRS9_EEE
_ZN7android8hardware14broadcastradio4V1_117BnHwTunerCallback24_hidl_programListChangedEPNS_4hidl4base4V1_08BnHwBaseERKNS0_6ParcelEPS9_NSt3__18functionIFvRS9_EEE
_ZN7android8hardware14broadcastradio4V1_117BnHwTunerCallback28_hidl_backgroundScanCompleteEPNS_4hidl4base4V1_08BnHwBaseERKNS0_6ParcelEPS9_NSt3__18functionIFvRS9_EEE
_ZN7android8hardware14broadcastradio4V1_117BnHwTunerCallback29_hidl_backgroundScanAvailableEPNS_4hidl4base4V1_08BnHwBaseERKNS0_6ParcelEPS9_NSt3__18functionIFvRS9_EEE
_ZN7android8hardware14broadcastradio4V1_117BnHwTunerCallback31_hidl_currentProgramInfoChangedEPNS_4hidl4base4V1_08BnHwBaseERKNS0_6ParcelEPS9_NSt3__18functionIFvRS9_EEE
_ZN7android8hardware14broadcastradio4V1_117BnHwTunerCallback4pingEv
_ZN7android8hardware14broadcastradio4V1_117BnHwTunerCallbackC1ERKNS_2spINS2_14ITunerCallbackEEE
_ZN7android8hardware14broadcastradio4V1_117BnHwTunerCallbackC2ERKNS_2spINS2_14ITunerCallbackEEE
_ZN7android8hardware14broadcastradio4V1_117BnHwTunerCallbackD0Ev
_ZN7android8hardware14broadcastradio4V1_117BnHwTunerCallbackD1Ev
_ZN7android8hardware14broadcastradio4V1_117BnHwTunerCallbackD2Ev
_ZN7android8hardware14broadcastradio4V1_117BpHwTunerCallback11linkToDeathERKNS_2spINS0_20hidl_death_recipientEEEm
_ZN7android8hardware14broadcastradio4V1_117BpHwTunerCallback11newMetadataEjjRKNS0_8hidl_vecINS1_4V1_08MetaDataEEE
_ZN7android8hardware14broadcastradio4V1_117BpHwTunerCallback12configChangeENS1_4V1_06ResultERKNS4_10BandConfigE
_ZN7android8hardware14broadcastradio4V1_117BpHwTunerCallback12getDebugInfoENSt3__18functionIFvRKNS_4hidl4base4V1_09DebugInfoEEEE
_ZN7android8hardware14broadcastradio4V1_117BpHwTunerCallback12getHashChainENSt3__18functionIFvRKNS0_8hidl_vecINS0_10hidl_arrayIhLm32EJEEEEEEEE
_ZN7android8hardware14broadcastradio4V1_117BpHwTunerCallback12tuneCompleteENS1_4V1_06ResultERKNS4_11ProgramInfoE
_ZN7android8hardware14broadcastradio4V1_117BpHwTunerCallback13unlinkToDeathERKNS_2spINS0_20hidl_death_recipientEEE
_ZN7android8hardware14broadcastradio4V1_117BpHwTunerCallback14interfaceChainENSt3__18functionIFvRKNS0_8hidl_vecINS0_11hidl_stringEEEEEE
_ZN7android8hardware14broadcastradio4V1_117BpHwTunerCallback15hardwareFailureEv
_ZN7android8hardware14broadcastradio4V1_117BpHwTunerCallback16tuneComplete_1_1ENS1_4V1_06ResultERKNS2_15ProgramSelectorE
_ZN7android8hardware14broadcastradio4V1_117BpHwTunerCallback18antennaStateChangeEb
_ZN7android8hardware14broadcastradio4V1_117BpHwTunerCallback18programListChangedEv
_ZN7android8hardware14broadcastradio4V1_117BpHwTunerCallback19interfaceDescriptorENSt3__18functionIFvRKNS0_11hidl_stringEEEE
_ZN7android8hardware14broadcastradio4V1_117BpHwTunerCallback19trafficAnnouncementEb
_ZN7android8hardware14broadcastradio4V1_117BpHwTunerCallback21emergencyAnnouncementEb
_ZN7android8hardware14broadcastradio4V1_117BpHwTunerCallback21notifySyspropsChangedEv
_ZN7android8hardware14broadcastradio4V1_117BpHwTunerCallback21setHALInstrumentationEv
_ZN7android8hardware14broadcastradio4V1_117BpHwTunerCallback22_hidl_tuneComplete_1_1EPNS0_10IInterfaceEPNS0_7details16HidlInstrumentorENS1_4V1_06ResultERKNS2_15ProgramSelectorE
_ZN7android8hardware14broadcastradio4V1_117BpHwTunerCallback22backgroundScanCompleteENS2_17ProgramListResultE
_ZN7android8hardware14broadcastradio4V1_117BpHwTunerCallback23backgroundScanAvailableEb
_ZN7android8hardware14broadcastradio4V1_117BpHwTunerCallback24_hidl_programListChangedEPNS0_10IInterfaceEPNS0_7details16HidlInstrumentorE
_ZN7android8hardware14broadcastradio4V1_117BpHwTunerCallback25currentProgramInfoChangedERKNS2_11ProgramInfoE
_ZN7android8hardware14broadcastradio4V1_117BpHwTunerCallback28_hidl_backgroundScanCompleteEPNS0_10IInterfaceEPNS0_7details16HidlInstrumentorENS2_17ProgramListResultE
_ZN7android8hardware14broadcastradio4V1_117BpHwTunerCallback29_hidl_backgroundScanAvailableEPNS0_10IInterfaceEPNS0_7details16HidlInstrumentorEb
_ZN7android8hardware14broadcastradio4V1_117BpHwTunerCallback31_hidl_currentProgramInfoChangedEPNS0_10IInterfaceEPNS0_7details16HidlInstrumentorERKNS2_11ProgramInfoE
_ZN7android8hardware14broadcastradio4V1_117BpHwTunerCallback4pingEv
_ZN7android8hardware14broadcastradio4V1_117BpHwTunerCallback5debugERKNS0_11hidl_handleERKNS0_8hidl_vecINS0_11hidl_stringEEE
_ZN7android8hardware14broadcastradio4V1_117BpHwTunerCallback8afSwitchERKNS1_4V1_011ProgramInfoE
_ZN7android8hardware14broadcastradio4V1_117BpHwTunerCallbackC1ERKNS_2spINS0_7IBinderEEE
_ZN7android8hardware14broadcastradio4V1_117BpHwTunerCallbackC2ERKNS_2spINS0_7IBinderEEE
_ZN7android8hardware14broadcastradio4V1_118BnHwBroadcastRadio10onTransactEjRKNS0_6ParcelEPS4_jNSt3__18functionIFvRS4_EEE
_ZN7android8hardware14broadcastradio4V1_118BnHwBroadcastRadio12getDebugInfoENSt3__18functionIFvRKNS_4hidl4base4V1_09DebugInfoEEEE
_ZN7android8hardware14broadcastradio4V1_118BnHwBroadcastRadio14_hidl_getImageEPNS_4hidl4base4V1_08BnHwBaseERKNS0_6ParcelEPS9_NSt3__18functionIFvRS9_EEE
_ZN7android8hardware14broadcastradio4V1_118BnHwBroadcastRadio23_hidl_getProperties_1_1EPNS_4hidl4base4V1_08BnHwBaseERKNS0_6ParcelEPS9_NSt3__18functionIFvRS9_EEE
_ZN7android8hardware14broadcastradio4V1_118BnHwBroadcastRadio4pingEv
_ZN7android8hardware14broadcastradio4V1_118BnHwBroadcastRadioC1ERKNS_2spINS2_15IBroadcastRadioEEE
_ZN7android8hardware14broadcastradio4V1_118BnHwBroadcastRadioC2ERKNS_2spINS2_15IBroadcastRadioEEE
_ZN7android8hardware14broadcastradio4V1_118BnHwBroadcastRadioD0Ev
_ZN7android8hardware14broadcastradio4V1_118BnHwBroadcastRadioD1Ev
_ZN7android8hardware14broadcastradio4V1_118BnHwBroadcastRadioD2Ev
_ZN7android8hardware14broadcastradio4V1_118BpHwBroadcastRadio11linkToDeathERKNS_2spINS0_20hidl_death_recipientEEEm
_ZN7android8hardware14broadcastradio4V1_118BpHwBroadcastRadio12getDebugInfoENSt3__18functionIFvRKNS_4hidl4base4V1_09DebugInfoEEEE
_ZN7android8hardware14broadcastradio4V1_118BpHwBroadcastRadio12getHashChainENSt3__18functionIFvRKNS0_8hidl_vecINS0_10hidl_arrayIhLm32EJEEEEEEEE
_ZN7android8hardware14broadcastradio4V1_118BpHwBroadcastRadio13getPropertiesENSt3__18functionIFvNS1_4V1_06ResultERKNS6_10PropertiesEEEE
_ZN7android8hardware14broadcastradio4V1_118BpHwBroadcastRadio13unlinkToDeathERKNS_2spINS0_20hidl_death_recipientEEE
_ZN7android8hardware14broadcastradio4V1_118BpHwBroadcastRadio14_hidl_getImageEPNS0_10IInterfaceEPNS0_7details16HidlInstrumentorEiNSt3__18functionIFvRKNS0_8hidl_vecIhEEEEE
_ZN7android8hardware14broadcastradio4V1_118BpHwBroadcastRadio14interfaceChainENSt3__18functionIFvRKNS0_8hidl_vecINS0_11hidl_stringEEEEEE
_ZN7android8hardware14broadcastradio4V1_118BpHwBroadcastRadio17getProperties_1_1ENSt3__18functionIFvRKNS2_10PropertiesEEEE
_ZN7android8hardware14broadcastradio4V1_118BpHwBroadcastRadio19interfaceDescriptorENSt3__18functionIFvRKNS0_11hidl_stringEEEE
_ZN7android8hardware14broadcastradio4V1_118BpHwBroadcastRadio21notifySyspropsChangedEv
_ZN7android8hardware14broadcastradio4V1_118BpHwBroadcastRadio21setHALInstrumentationEv
_ZN7android8hardware14broadcastradio4V1_118BpHwBroadcastRadio23_hidl_getProperties_1_1EPNS0_10IInterfaceEPNS0_7details16HidlInstrumentorENSt3__18functionIFvRKNS2_10PropertiesEEEE
_ZN7android8hardware14broadcastradio4V1_118BpHwBroadcastRadio4pingEv
_ZN7android8hardware14broadcastradio4V1_118BpHwBroadcastRadio5debugERKNS0_11hidl_handleERKNS0_8hidl_vecINS0_11hidl_stringEEE
_ZN7android8hardware14broadcastradio4V1_118BpHwBroadcastRadio8getImageEiNSt3__18functionIFvRKNS0_8hidl_vecIhEEEEE
_ZN7android8hardware14broadcastradio4V1_118BpHwBroadcastRadio9openTunerERKNS1_4V1_010BandConfigEbRKNS_2spINS4_14ITunerCallbackEEENSt3__18functionIFvNS4_6ResultERKNS8_INS4_6ITunerEEEEEE
_ZN7android8hardware14broadcastradio4V1_118BpHwBroadcastRadioC1ERKNS_2spINS0_7IBinderEEE
_ZN7android8hardware14broadcastradio4V1_118BpHwBroadcastRadioC2ERKNS_2spINS0_7IBinderEEE
_ZN7android8hardware14broadcastradio4V1_121writeEmbeddedToParcelERKNS2_10PropertiesEPNS0_6ParcelEmm
_ZN7android8hardware14broadcastradio4V1_121writeEmbeddedToParcelERKNS2_11ProgramInfoEPNS0_6ParcelEmm
_ZN7android8hardware14broadcastradio4V1_121writeEmbeddedToParcelERKNS2_14VendorKeyValueEPNS0_6ParcelEmm
_ZN7android8hardware14broadcastradio4V1_121writeEmbeddedToParcelERKNS2_15ProgramSelectorEPNS0_6ParcelEmm
_ZN7android8hardware14broadcastradio4V1_122IBroadcastRadioFactory10descriptorE
_ZN7android8hardware14broadcastradio4V1_122IBroadcastRadioFactory10getServiceERKNSt3__112basic_stringIcNS4_11char_traitsIcEENS4_9allocatorIcEEEEb
_ZN7android8hardware14broadcastradio4V1_122IBroadcastRadioFactory11linkToDeathERKNS_2spINS0_20hidl_death_recipientEEEm
_ZN7android8hardware14broadcastradio4V1_122IBroadcastRadioFactory12getDebugInfoENSt3__18functionIFvRKNS_4hidl4base4V1_09DebugInfoEEEE
_ZN7android8hardware14broadcastradio4V1_122IBroadcastRadioFactory12getHashChainENSt3__18functionIFvRKNS0_8hidl_vecINS0_10hidl_arrayIhLm32EJEEEEEEEE
_ZN7android8hardware14broadcastradio4V1_122IBroadcastRadioFactory13tryGetServiceERKNSt3__112basic_stringIcNS4_11char_traitsIcEENS4_9allocatorIcEEEEb
_ZN7android8hardware14broadcastradio4V1_122IBroadcastRadioFactory13unlinkToDeathERKNS_2spINS0_20hidl_death_recipientEEE
_ZN7android8hardware14broadcastradio4V1_122IBroadcastRadioFactory14interfaceChainENSt3__18functionIFvRKNS0_8hidl_vecINS0_11hidl_stringEEEEEE
_ZN7android8hardware14broadcastradio4V1_122IBroadcastRadioFactory17registerAsServiceERKNSt3__112basic_stringIcNS4_11char_traitsIcEENS4_9allocatorIcEEEE
_ZN7android8hardware14broadcastradio4V1_122IBroadcastRadioFactory19interfaceDescriptorENSt3__18functionIFvRKNS0_11hidl_stringEEEE
_ZN7android8hardware14broadcastradio4V1_122IBroadcastRadioFactory21notifySyspropsChangedEv
_ZN7android8hardware14broadcastradio4V1_122IBroadcastRadioFactory21setHALInstrumentationEv
_ZN7android8hardware14broadcastradio4V1_122IBroadcastRadioFactory24registerForNotificationsERKNSt3__112basic_stringIcNS4_11char_traitsIcEENS4_9allocatorIcEEEERKNS_2spINS_4hidl7manager4V1_020IServiceNotificationEEE
_ZN7android8hardware14broadcastradio4V1_122IBroadcastRadioFactory4pingEv
_ZN7android8hardware14broadcastradio4V1_122IBroadcastRadioFactory5debugERKNS0_11hidl_handleERKNS0_8hidl_vecINS0_11hidl_stringEEE
_ZN7android8hardware14broadcastradio4V1_122IBroadcastRadioFactory8castFromERKNS_2spINS1_4V1_022IBroadcastRadioFactoryEEEb
_ZN7android8hardware14broadcastradio4V1_122IBroadcastRadioFactory8castFromERKNS_2spINS_4hidl4base4V1_05IBaseEEEb
_ZN7android8hardware14broadcastradio4V1_122IBroadcastRadioFactory8castFromERKNS_2spIS3_EEb
_ZN7android8hardware14broadcastradio4V1_122readEmbeddedFromParcelERKNS2_10PropertiesERKNS0_6ParcelEmm
_ZN7android8hardware14broadcastradio4V1_122readEmbeddedFromParcelERKNS2_11ProgramInfoERKNS0_6ParcelEmm
_ZN7android8hardware14broadcastradio4V1_122readEmbeddedFromParcelERKNS2_14VendorKeyValueERKNS0_6ParcelEmm
_ZN7android8hardware14broadcastradio4V1_122readEmbeddedFromParcelERKNS2_15ProgramSelectorERKNS0_6ParcelEmm
_ZN7android8hardware14broadcastradio4V1_123BsBroadcastRadioFactory13addOnewayTaskENSt3__18functionIFvvEEE
_ZN7android8hardware14broadcastradio4V1_123BsBroadcastRadioFactoryC1ENS_2spINS2_22IBroadcastRadioFactoryEEE
_ZN7android8hardware14broadcastradio4V1_123BsBroadcastRadioFactoryC2ENS_2spINS2_22IBroadcastRadioFactoryEEE
_ZN7android8hardware14broadcastradio4V1_125BnHwBroadcastRadioFactory10onTransactEjRKNS0_6ParcelEPS4_jNSt3__18functionIFvRS4_EEE
_ZN7android8hardware14broadcastradio4V1_125BnHwBroadcastRadioFactory12getDebugInfoENSt3__18functionIFvRKNS_4hidl4base4V1_09DebugInfoEEEE
_ZN7android8hardware14broadcastradio4V1_125BnHwBroadcastRadioFactory4pingEv
_ZN7android8hardware14broadcastradio4V1_125BnHwBroadcastRadioFactoryC1ERKNS_2spINS2_22IBroadcastRadioFactoryEEE
_ZN7android8hardware14broadcastradio4V1_125BnHwBroadcastRadioFactoryC2ERKNS_2spINS2_22IBroadcastRadioFactoryEEE
_ZN7android8hardware14broadcastradio4V1_125BnHwBroadcastRadioFactoryD0Ev
_ZN7android8hardware14broadcastradio4V1_125BnHwBroadcastRadioFactoryD1Ev
_ZN7android8hardware14broadcastradio4V1_125BnHwBroadcastRadioFactoryD2Ev
_ZN7android8hardware14broadcastradio4V1_125BpHwBroadcastRadioFactory11linkToDeathERKNS_2spINS0_20hidl_death_recipientEEEm
_ZN7android8hardware14broadcastradio4V1_125BpHwBroadcastRadioFactory12getDebugInfoENSt3__18functionIFvRKNS_4hidl4base4V1_09DebugInfoEEEE
_ZN7android8hardware14broadcastradio4V1_125BpHwBroadcastRadioFactory12getHashChainENSt3__18functionIFvRKNS0_8hidl_vecINS0_10hidl_arrayIhLm32EJEEEEEEEE
_ZN7android8hardware14broadcastradio4V1_125BpHwBroadcastRadioFactory13connectModuleENS1_4V1_05ClassENSt3__18functionIFvNS4_6ResultERKNS_2spINS4_15IBroadcastRadioEEEEEE
_ZN7android8hardware14broadcastradio4V1_125BpHwBroadcastRadioFactory13unlinkToDeathERKNS_2spINS0_20hidl_death_recipientEEE
_ZN7android8hardware14broadcastradio4V1_125BpHwBroadcastRadioFactory14interfaceChainENSt3__18functionIFvRKNS0_8hidl_vecINS0_11hidl_stringEEEEEE
_ZN7android8hardware14broadcastradio4V1_125BpHwBroadcastRadioFactory19interfaceDescriptorENSt3__18functionIFvRKNS0_11hidl_stringEEEE
_ZN7android8hardware14broadcastradio4V1_125BpHwBroadcastRadioFactory21notifySyspropsChangedEv
_ZN7android8hardware14broadcastradio4V1_125BpHwBroadcastRadioFactory21setHALInstrumentationEv
_ZN7android8hardware14broadcastradio4V1_125BpHwBroadcastRadioFactory4pingEv
_ZN7android8hardware14broadcastradio4V1_125BpHwBroadcastRadioFactory5debugERKNS0_11hidl_handleERKNS0_8hidl_vecINS0_11hidl_stringEEE
_ZN7android8hardware14broadcastradio4V1_125BpHwBroadcastRadioFactoryC1ERKNS_2spINS0_7IBinderEEE
_ZN7android8hardware14broadcastradio4V1_125BpHwBroadcastRadioFactoryC2ERKNS_2spINS0_7IBinderEEE
_ZN7android8hardware14broadcastradio4V1_16ITuner10descriptorE
_ZN7android8hardware14broadcastradio4V1_16ITuner10getServiceERKNSt3__112basic_stringIcNS4_11char_traitsIcEENS4_9allocatorIcEEEEb
_ZN7android8hardware14broadcastradio4V1_16ITuner11linkToDeathERKNS_2spINS0_20hidl_death_recipientEEEm
_ZN7android8hardware14broadcastradio4V1_16ITuner12getDebugInfoENSt3__18functionIFvRKNS_4hidl4base4V1_09DebugInfoEEEE
_ZN7android8hardware14broadcastradio4V1_16ITuner12getHashChainENSt3__18functionIFvRKNS0_8hidl_vecINS0_10hidl_arrayIhLm32EJEEEEEEEE
_ZN7android8hardware14broadcastradio4V1_16ITuner13tryGetServiceERKNSt3__112basic_stringIcNS4_11char_traitsIcEENS4_9allocatorIcEEEEb
_ZN7android8hardware14broadcastradio4V1_16ITuner13unlinkToDeathERKNS_2spINS0_20hidl_death_recipientEEE
_ZN7android8hardware14broadcastradio4V1_16ITuner14interfaceChainENSt3__18functionIFvRKNS0_8hidl_vecINS0_11hidl_stringEEEEEE
_ZN7android8hardware14broadcastradio4V1_16ITuner17registerAsServiceERKNSt3__112basic_stringIcNS4_11char_traitsIcEENS4_9allocatorIcEEEE
_ZN7android8hardware14broadcastradio4V1_16ITuner19interfaceDescriptorENSt3__18functionIFvRKNS0_11hidl_stringEEEE
_ZN7android8hardware14broadcastradio4V1_16ITuner21notifySyspropsChangedEv
_ZN7android8hardware14broadcastradio4V1_16ITuner21setHALInstrumentationEv
_ZN7android8hardware14broadcastradio4V1_16ITuner24registerForNotificationsERKNSt3__112basic_stringIcNS4_11char_traitsIcEENS4_9allocatorIcEEEERKNS_2spINS_4hidl7manager4V1_020IServiceNotificationEEE
_ZN7android8hardware14broadcastradio4V1_16ITuner4pingEv
_ZN7android8hardware14broadcastradio4V1_16ITuner5debugERKNS0_11hidl_handleERKNS0_8hidl_vecINS0_11hidl_stringEEE
_ZN7android8hardware14broadcastradio4V1_16ITuner8castFromERKNS_2spINS1_4V1_06ITunerEEEb
_ZN7android8hardware14broadcastradio4V1_16ITuner8castFromERKNS_2spINS_4hidl4base4V1_05IBaseEEEb
_ZN7android8hardware14broadcastradio4V1_16ITuner8castFromERKNS_2spIS3_EEb
_ZN7android8hardware14broadcastradio4V1_17BsTuner13addOnewayTaskENSt3__18functionIFvvEEE
_ZN7android8hardware14broadcastradio4V1_17BsTunerC1ENS_2spINS2_6ITunerEEE
_ZN7android8hardware14broadcastradio4V1_17BsTunerC2ENS_2spINS2_6ITunerEEE
_ZN7android8hardware14broadcastradio4V1_19BnHwTuner10onTransactEjRKNS0_6ParcelEPS4_jNSt3__18functionIFvRS4_EEE
_ZN7android8hardware14broadcastradio4V1_19BnHwTuner12getDebugInfoENSt3__18functionIFvRKNS_4hidl4base4V1_09DebugInfoEEEE
_ZN7android8hardware14broadcastradio4V1_19BnHwTuner20_hidl_getProgramListEPNS_4hidl4base4V1_08BnHwBaseERKNS0_6ParcelEPS9_NSt3__18functionIFvRS9_EEE
_ZN7android8hardware14broadcastradio4V1_19BnHwTuner20_hidl_isAnalogForcedEPNS_4hidl4base4V1_08BnHwBaseERKNS0_6ParcelEPS9_NSt3__18functionIFvRS9_EEE
_ZN7android8hardware14broadcastradio4V1_19BnHwTuner21_hidl_setAnalogForcedEPNS_4hidl4base4V1_08BnHwBaseERKNS0_6ParcelEPS9_NSt3__18functionIFvRS9_EEE
_ZN7android8hardware14broadcastradio4V1_19BnHwTuner24_hidl_cancelAnnouncementEPNS_4hidl4base4V1_08BnHwBaseERKNS0_6ParcelEPS9_NSt3__18functionIFvRS9_EEE
_ZN7android8hardware14broadcastradio4V1_19BnHwTuner25_hidl_startBackgroundScanEPNS_4hidl4base4V1_08BnHwBaseERKNS0_6ParcelEPS9_NSt3__18functionIFvRS9_EEE
_ZN7android8hardware14broadcastradio4V1_19BnHwTuner27_hidl_tuneByProgramSelectorEPNS_4hidl4base4V1_08BnHwBaseERKNS0_6ParcelEPS9_NSt3__18functionIFvRS9_EEE
_ZN7android8hardware14broadcastradio4V1_19BnHwTuner31_hidl_getProgramInformation_1_1EPNS_4hidl4base4V1_08BnHwBaseERKNS0_6ParcelEPS9_NSt3__18functionIFvRS9_EEE
_ZN7android8hardware14broadcastradio4V1_19BnHwTuner4pingEv
_ZN7android8hardware14broadcastradio4V1_19BnHwTunerC1ERKNS_2spINS2_6ITunerEEE
_ZN7android8hardware14broadcastradio4V1_19BnHwTunerC2ERKNS_2spINS2_6ITunerEEE
_ZN7android8hardware14broadcastradio4V1_19BnHwTunerD0Ev
_ZN7android8hardware14broadcastradio4V1_19BnHwTunerD1Ev
_ZN7android8hardware14broadcastradio4V1_19BnHwTunerD2Ev
_ZN7android8hardware14broadcastradio4V1_19BpHwTuner11linkToDeathERKNS_2spINS0_20hidl_death_recipientEEEm
_ZN7android8hardware14broadcastradio4V1_19BpHwTuner12getDebugInfoENSt3__18functionIFvRKNS_4hidl4base4V1_09DebugInfoEEEE
_ZN7android8hardware14broadcastradio4V1_19BpHwTuner12getHashChainENSt3__18functionIFvRKNS0_8hidl_vecINS0_10hidl_arrayIhLm32EJEEEEEEEE
_ZN7android8hardware14broadcastradio4V1_19BpHwTuner13unlinkToDeathERKNS_2spINS0_20hidl_death_recipientEEE
_ZN7android8hardware14broadcastradio4V1_19BpHwTuner14getProgramListERKNS0_8hidl_vecINS2_14VendorKeyValueEEENSt3__18functionIFvNS2_17ProgramListResultERKNS4_INS2_11ProgramInfoEEEEEE
_ZN7android8hardware14broadcastradio4V1_19BpHwTuner14interfaceChainENSt3__18functionIFvRKNS0_8hidl_vecINS0_11hidl_stringEEEEEE
_ZN7android8hardware14broadcastradio4V1_19BpHwTuner14isAnalogForcedENSt3__18functionIFvNS1_4V1_06ResultEbEEE
_ZN7android8hardware14broadcastradio4V1_19BpHwTuner15setAnalogForcedEb
_ZN7android8hardware14broadcastradio4V1_19BpHwTuner16getConfigurationENSt3__18functionIFvNS1_4V1_06ResultERKNS6_10BandConfigEEEE
_ZN7android8hardware14broadcastradio4V1_19BpHwTuner16setConfigurationERKNS1_4V1_010BandConfigE
_ZN7android8hardware14broadcastradio4V1_19BpHwTuner18cancelAnnouncementEv
_ZN7android8hardware14broadcastradio4V1_19BpHwTuner19interfaceDescriptorENSt3__18functionIFvRKNS0_11hidl_stringEEEE
_ZN7android8hardware14broadcastradio4V1_19BpHwTuner19startBackgroundScanEv
_ZN7android8hardware14broadcastradio4V1_19BpHwTuner20_hidl_getProgramListEPNS0_10IInterfaceEPNS0_7details16HidlInstrumentorERKNS0_8hidl_vecINS2_14VendorKeyValueEEENSt3__18functionIFvNS2_17ProgramListResultERKNS9_INS2_11ProgramInfoEEEEEE
_ZN7android8hardware14broadcastradio4V1_19BpHwTuner20_hidl_isAnalogForcedEPNS0_10IInterfaceEPNS0_7details16HidlInstrumentorENSt3__18functionIFvNS1_4V1_06ResultEbEEE
_ZN7android8hardware14broadcastradio4V1_19BpHwTuner21_hidl_setAnalogForcedEPNS0_10IInterfaceEPNS0_7details16HidlInstrumentorEb
_ZN7android8hardware14broadcastradio4V1_19BpHwTuner21getProgramInformationENSt3__18functionIFvNS1_4V1_06ResultERKNS6_11ProgramInfoEEEE
_ZN7android8hardware14broadcastradio4V1_19BpHwTuner21notifySyspropsChangedEv
_ZN7android8hardware14broadcastradio4V1_19BpHwTuner21setHALInstrumentationEv
_ZN7android8hardware14broadcastradio4V1_19BpHwTuner21tuneByProgramSelectorERKNS2_15ProgramSelectorE
_ZN7android8hardware14broadcastradio4V1_19BpHwTuner24_hidl_cancelAnnouncementEPNS0_10IInterfaceEPNS0_7details16HidlInstrumentorE
_ZN7android8hardware14broadcastradio4V1_19BpHwTuner25_hidl_startBackgroundScanEPNS0_10IInterfaceEPNS0_7details16HidlInstrumentorE
_ZN7android8hardware14broadcastradio4V1_19BpHwTuner25getProgramInformation_1_1ENSt3__18functionIFvNS1_4V1_06ResultERKNS2_11ProgramInfoEEEE
_ZN7android8hardware14broadcastradio4V1_19BpHwTuner27_hidl_tuneByProgramSelectorEPNS0_10IInterfaceEPNS0_7details16HidlInstrumentorERKNS2_15ProgramSelectorE
_ZN7android8hardware14broadcastradio4V1_19BpHwTuner31_hidl_getProgramInformation_1_1EPNS0_10IInterfaceEPNS0_7details16HidlInstrumentorENSt3__18functionIFvNS1_4V1_06ResultERKNS2_11ProgramInfoEEEE
_ZN7android8hardware14broadcastradio4V1_19BpHwTuner4pingEv
_ZN7android8hardware14broadcastradio4V1_19BpHwTuner4scanENS1_4V1_09DirectionEb
_ZN7android8hardware14broadcastradio4V1_19BpHwTuner4stepENS1_4V1_09DirectionEb
_ZN7android8hardware14broadcastradio4V1_19BpHwTuner4tuneEjj
_ZN7android8hardware14broadcastradio4V1_19BpHwTuner5debugERKNS0_11hidl_handleERKNS0_8hidl_vecINS0_11hidl_stringEEE
_ZN7android8hardware14broadcastradio4V1_19BpHwTuner6cancelEv
_ZN7android8hardware14broadcastradio4V1_19BpHwTunerC1ERKNS_2spINS0_7IBinderEEE
_ZN7android8hardware14broadcastradio4V1_19BpHwTunerC2ERKNS_2spINS0_7IBinderEEE
_ZTCN7android8hardware14broadcastradio4V1_114ITunerCallbackE0_NS1_4V1_014ITunerCallbackE
_ZTCN7android8hardware14broadcastradio4V1_114ITunerCallbackE0_NS_4hidl4base4V1_05IBaseE
_ZTCN7android8hardware14broadcastradio4V1_115IBroadcastRadioE0_NS1_4V1_015IBroadcastRadioE
_ZTCN7android8hardware14broadcastradio4V1_115IBroadcastRadioE0_NS_4hidl4base4V1_05IBaseE
_ZTCN7android8hardware14broadcastradio4V1_117BnHwTunerCallbackE0_NS0_7IBinderE
_ZTCN7android8hardware14broadcastradio4V1_117BnHwTunerCallbackE0_NS0_9BHwBinderE
_ZTCN7android8hardware14broadcastradio4V1_117BnHwTunerCallbackE0_NS_4hidl4base4V1_08BnHwBaseE
_ZTCN7android8hardware14broadcastradio4V1_117BpHwTunerCallbackE0_NS0_11BpInterfaceINS2_14ITunerCallbackEEE
_ZTCN7android8hardware14broadcastradio4V1_117BpHwTunerCallbackE0_NS1_4V1_014ITunerCallbackE
_ZTCN7android8hardware14broadcastradio4V1_117BpHwTunerCallbackE0_NS2_14ITunerCallbackE
_ZTCN7android8hardware14broadcastradio4V1_117BpHwTunerCallbackE0_NS_4hidl4base4V1_05IBaseE
_ZTCN7android8hardware14broadcastradio4V1_117BpHwTunerCallbackE16_NS0_11BpHwRefBaseE
_ZTCN7android8hardware14broadcastradio4V1_117BpHwTunerCallbackE8_NS0_10IInterfaceE
_ZTCN7android8hardware14broadcastradio4V1_118BnHwBroadcastRadioE0_NS0_7IBinderE
_ZTCN7android8hardware14broadcastradio4V1_118BnHwBroadcastRadioE0_NS0_9BHwBinderE
_ZTCN7android8hardware14broadcastradio4V1_118BnHwBroadcastRadioE0_NS_4hidl4base4V1_08BnHwBaseE
_ZTCN7android8hardware14broadcastradio4V1_118BpHwBroadcastRadioE0_NS0_11BpInterfaceINS2_15IBroadcastRadioEEE
_ZTCN7android8hardware14broadcastradio4V1_118BpHwBroadcastRadioE0_NS1_4V1_015IBroadcastRadioE
_ZTCN7android8hardware14broadcastradio4V1_118BpHwBroadcastRadioE0_NS2_15IBroadcastRadioE
_ZTCN7android8hardware14broadcastradio4V1_118BpHwBroadcastRadioE0_NS_4hidl4base4V1_05IBaseE
_ZTCN7android8hardware14broadcastradio4V1_118BpHwBroadcastRadioE16_NS0_11BpHwRefBaseE
_ZTCN7android8hardware14broadcastradio4V1_118BpHwBroadcastRadioE8_NS0_10IInterfaceE
_ZTCN7android8hardware14broadcastradio4V1_122IBroadcastRadioFactoryE0_NS1_4V1_022IBroadcastRadioFactoryE
_ZTCN7android8hardware14broadcastradio4V1_122IBroadcastRadioFactoryE0_NS_4hidl4base4V1_05IBaseE
_ZTCN7android8hardware14broadcastradio4V1_125BnHwBroadcastRadioFactoryE0_NS0_7IBinderE
_ZTCN7android8hardware14broadcastradio4V1_125BnHwBroadcastRadioFactoryE0_NS0_9BHwBinderE
_ZTCN7android8hardware14broadcastradio4V1_125BnHwBroadcastRadioFactoryE0_NS_4hidl4base4V1_08BnHwBaseE
_ZTCN7android8hardware14broadcastradio4V1_125BpHwBroadcastRadioFactoryE0_NS0_11BpInterfaceINS2_22IBroadcastRadioFactoryEEE
_ZTCN7android8hardware14broadcastradio4V1_125BpHwBroadcastRadioFactoryE0_NS1_4V1_022IBroadcastRadioFactoryE
_ZTCN7android8hardware14broadcastradio4V1_125BpHwBroadcastRadioFactoryE0_NS2_22IBroadcastRadioFactoryE
_ZTCN7android8hardware14broadcastradio4V1_125BpHwBroadcastRadioFactoryE0_NS_4hidl4base4V1_05IBaseE
_ZTCN7android8hardware14broadcastradio4V1_125BpHwBroadcastRadioFactoryE16_NS0_11BpHwRefBaseE
_ZTCN7android8hardware14broadcastradio4V1_125BpHwBroadcastRadioFactoryE8_NS0_10IInterfaceE
_ZTCN7android8hardware14broadcastradio4V1_16ITunerE0_NS1_4V1_06ITunerE
_ZTCN7android8hardware14broadcastradio4V1_16ITunerE0_NS_4hidl4base4V1_05IBaseE
_ZTCN7android8hardware14broadcastradio4V1_19BnHwTunerE0_NS0_7IBinderE
_ZTCN7android8hardware14broadcastradio4V1_19BnHwTunerE0_NS0_9BHwBinderE
_ZTCN7android8hardware14broadcastradio4V1_19BnHwTunerE0_NS_4hidl4base4V1_08BnHwBaseE
_ZTCN7android8hardware14broadcastradio4V1_19BpHwTunerE0_NS0_11BpInterfaceINS2_6ITunerEEE
_ZTCN7android8hardware14broadcastradio4V1_19BpHwTunerE0_NS1_4V1_06ITunerE
_ZTCN7android8hardware14broadcastradio4V1_19BpHwTunerE0_NS2_6ITunerE
_ZTCN7android8hardware14broadcastradio4V1_19BpHwTunerE0_NS_4hidl4base4V1_05IBaseE
_ZTCN7android8hardware14broadcastradio4V1_19BpHwTunerE16_NS0_11BpHwRefBaseE
_ZTCN7android8hardware14broadcastradio4V1_19BpHwTunerE8_NS0_10IInterfaceE
_ZTTN7android8hardware14broadcastradio4V1_114ITunerCallbackE
_ZTTN7android8hardware14broadcastradio4V1_115IBroadcastRadioE
_ZTTN7android8hardware14broadcastradio4V1_117BnHwTunerCallbackE
_ZTTN7android8hardware14broadcastradio4V1_117BpHwTunerCallbackE
_ZTTN7android8hardware14broadcastradio4V1_118BnHwBroadcastRadioE
_ZTTN7android8hardware14broadcastradio4V1_118BpHwBroadcastRadioE
_ZTTN7android8hardware14broadcastradio4V1_122IBroadcastRadioFactoryE
_ZTTN7android8hardware14broadcastradio4V1_125BnHwBroadcastRadioFactoryE
_ZTTN7android8hardware14broadcastradio4V1_125BpHwBroadcastRadioFactoryE
_ZTTN7android8hardware14broadcastradio4V1_16ITunerE
_ZTTN7android8hardware14broadcastradio4V1_19BnHwTunerE
_ZTTN7android8hardware14broadcastradio4V1_19BpHwTunerE
_ZTVN7android8hardware14broadcastradio4V1_114ITunerCallbackE
_ZTVN7android8hardware14broadcastradio4V1_115IBroadcastRadioE
_ZTVN7android8hardware14broadcastradio4V1_117BnHwTunerCallbackE
_ZTVN7android8hardware14broadcastradio4V1_117BpHwTunerCallbackE
_ZTVN7android8hardware14broadcastradio4V1_118BnHwBroadcastRadioE
_ZTVN7android8hardware14broadcastradio4V1_118BpHwBroadcastRadioE
_ZTVN7android8hardware14broadcastradio4V1_122IBroadcastRadioFactoryE
_ZTVN7android8hardware14broadcastradio4V1_125BnHwBroadcastRadioFactoryE
_ZTVN7android8hardware14broadcastradio4V1_125BpHwBroadcastRadioFactoryE
_ZTVN7android8hardware14broadcastradio4V1_16ITunerE
_ZTVN7android8hardware14broadcastradio4V1_19BnHwTunerE
_ZTVN7android8hardware14broadcastradio4V1_19BpHwTunerE
_ZThn32_N7android8hardware14broadcastradio4V1_117BnHwTunerCallbackD0Ev
_ZThn32_N7android8hardware14broadcastradio4V1_117BnHwTunerCallbackD1Ev
_ZThn32_N7android8hardware14broadcastradio4V1_118BnHwBroadcastRadioD0Ev
_ZThn32_N7android8hardware14broadcastradio4V1_118BnHwBroadcastRadioD1Ev
_ZThn32_N7android8hardware14broadcastradio4V1_125BnHwBroadcastRadioFactoryD0Ev
_ZThn32_N7android8hardware14broadcastradio4V1_125BnHwBroadcastRadioFactoryD1Ev
_ZThn32_N7android8hardware14broadcastradio4V1_19BnHwTunerD0Ev
_ZThn32_N7android8hardware14broadcastradio4V1_19BnHwTunerD1Ev
_ZTv0_n24_N7android8hardware14broadcastradio4V1_117BnHwTunerCallbackD0Ev
_ZTv0_n24_N7android8hardware14broadcastradio4V1_117BnHwTunerCallbackD1Ev
_ZTv0_n24_N7android8hardware14broadcastradio4V1_118BnHwBroadcastRadioD0Ev
_ZTv0_n24_N7android8hardware14broadcastradio4V1_118BnHwBroadcastRadioD1Ev
_ZTv0_n24_N7android8hardware14broadcastradio4V1_125BnHwBroadcastRadioFactoryD0Ev
_ZTv0_n24_N7android8hardware14broadcastradio4V1_125BnHwBroadcastRadioFactoryD1Ev
_ZTv0_n24_N7android8hardware14broadcastradio4V1_19BnHwTunerD0Ev
_ZTv0_n24_N7android8hardware14broadcastradio4V1_19BnHwTunerD1Ev
