_ZN7android8hardware3usb4V1_012IUsbCallback10descriptorE
_ZN7android8hardware3usb4V1_012IUsbCallback10getServiceERKNSt3__112basic_stringIcNS4_11char_traitsIcEENS4_9allocatorIcEEEEb
_ZN7android8hardware3usb4V1_012IUsbCallback11linkToDeathERKNS_2spINS0_20hidl_death_recipientEEEm
_ZN7android8hardware3usb4V1_012IUsbCallback12getDebugInfoENSt3__18functionIFvRKNS_4hidl4base4V1_09DebugInfoEEEE
_ZN7android8hardware3usb4V1_012IUsbCallback12getHashChainENSt3__18functionIFvRKNS0_8hidl_vecINS0_10hidl_arrayIhLm32EJEEEEEEEE
_ZN7android8hardware3usb4V1_012IUsbCallback13tryGetServiceERKNSt3__112basic_stringIcNS4_11char_traitsIcEENS4_9allocatorIcEEEEb
_ZN7android8hardware3usb4V1_012IUsbCallback13unlinkToDeathERKNS_2spINS0_20hidl_death_recipientEEE
_ZN7android8hardware3usb4V1_012IUsbCallback14interfaceChainENSt3__18functionIFvRKNS0_8hidl_vecINS0_11hidl_stringEEEEEE
_ZN7android8hardware3usb4V1_012IUsbCallback17registerAsServiceERKNSt3__112basic_stringIcNS4_11char_traitsIcEENS4_9allocatorIcEEEE
_ZN7android8hardware3usb4V1_012IUsbCallback19interfaceDescriptorENSt3__18functionIFvRKNS0_11hidl_stringEEEE
_ZN7android8hardware3usb4V1_012IUsbCallback21notifySyspropsChangedEv
_ZN7android8hardware3usb4V1_012IUsbCallback21setHALInstrumentationEv
_ZN7android8hardware3usb4V1_012IUsbCallback24registerForNotificationsERKNSt3__112basic_stringIcNS4_11char_traitsIcEENS4_9allocatorIcEEEERKNS_2spINS_4hidl7manager4V1_020IServiceNotificationEEE
_ZN7android8hardware3usb4V1_012IUsbCallback4pingEv
_ZN7android8hardware3usb4V1_012IUsbCallback5debugERKNS0_11hidl_handleERKNS0_8hidl_vecINS0_11hidl_stringEEE
_ZN7android8hardware3usb4V1_012IUsbCallback8castFromERKNS_2spINS_4hidl4base4V1_05IBaseEEEb
_ZN7android8hardware3usb4V1_012IUsbCallback8castFromERKNS_2spIS3_EEb
_ZN7android8hardware3usb4V1_013BsUsbCallback13addOnewayTaskENSt3__18functionIFvvEEE
_ZN7android8hardware3usb4V1_013BsUsbCallbackC1ENS_2spINS2_12IUsbCallbackEEE
_ZN7android8hardware3usb4V1_013BsUsbCallbackC2ENS_2spINS2_12IUsbCallbackEEE
_ZN7android8hardware3usb4V1_015BnHwUsbCallback10onTransactEjRKNS0_6ParcelEPS4_jNSt3__18functionIFvRS4_EEE
_ZN7android8hardware3usb4V1_015BnHwUsbCallback12getDebugInfoENSt3__18functionIFvRKNS_4hidl4base4V1_09DebugInfoEEEE
_ZN7android8hardware3usb4V1_015BnHwUsbCallback28_hidl_notifyPortStatusChangeEPNS_4hidl4base4V1_08BnHwBaseERKNS0_6ParcelEPS9_NSt3__18functionIFvRS9_EEE
_ZN7android8hardware3usb4V1_015BnHwUsbCallback28_hidl_notifyRoleSwitchStatusEPNS_4hidl4base4V1_08BnHwBaseERKNS0_6ParcelEPS9_NSt3__18functionIFvRS9_EEE
_ZN7android8hardware3usb4V1_015BnHwUsbCallback4pingEv
_ZN7android8hardware3usb4V1_015BnHwUsbCallbackC1ERKNS_2spINS2_12IUsbCallbackEEE
_ZN7android8hardware3usb4V1_015BnHwUsbCallbackC2ERKNS_2spINS2_12IUsbCallbackEEE
_ZN7android8hardware3usb4V1_015BnHwUsbCallbackD0Ev
_ZN7android8hardware3usb4V1_015BnHwUsbCallbackD1Ev
_ZN7android8hardware3usb4V1_015BnHwUsbCallbackD2Ev
_ZN7android8hardware3usb4V1_015BpHwUsbCallback11linkToDeathERKNS_2spINS0_20hidl_death_recipientEEEm
_ZN7android8hardware3usb4V1_015BpHwUsbCallback12getDebugInfoENSt3__18functionIFvRKNS_4hidl4base4V1_09DebugInfoEEEE
_ZN7android8hardware3usb4V1_015BpHwUsbCallback12getHashChainENSt3__18functionIFvRKNS0_8hidl_vecINS0_10hidl_arrayIhLm32EJEEEEEEEE
_ZN7android8hardware3usb4V1_015BpHwUsbCallback13unlinkToDeathERKNS_2spINS0_20hidl_death_recipientEEE
_ZN7android8hardware3usb4V1_015BpHwUsbCallback14interfaceChainENSt3__18functionIFvRKNS0_8hidl_vecINS0_11hidl_stringEEEEEE
_ZN7android8hardware3usb4V1_015BpHwUsbCallback19interfaceDescriptorENSt3__18functionIFvRKNS0_11hidl_stringEEEE
_ZN7android8hardware3usb4V1_015BpHwUsbCallback21notifySyspropsChangedEv
_ZN7android8hardware3usb4V1_015BpHwUsbCallback21setHALInstrumentationEv
_ZN7android8hardware3usb4V1_015BpHwUsbCallback22notifyPortStatusChangeERKNS0_8hidl_vecINS2_10PortStatusEEENS2_6StatusE
_ZN7android8hardware3usb4V1_015BpHwUsbCallback22notifyRoleSwitchStatusERKNS0_11hidl_stringERKNS2_8PortRoleENS2_6StatusE
_ZN7android8hardware3usb4V1_015BpHwUsbCallback28_hidl_notifyPortStatusChangeEPNS0_10IInterfaceEPNS0_7details16HidlInstrumentorERKNS0_8hidl_vecINS2_10PortStatusEEENS2_6StatusE
_ZN7android8hardware3usb4V1_015BpHwUsbCallback28_hidl_notifyRoleSwitchStatusEPNS0_10IInterfaceEPNS0_7details16HidlInstrumentorERKNS0_11hidl_stringERKNS2_8PortRoleENS2_6StatusE
_ZN7android8hardware3usb4V1_015BpHwUsbCallback4pingEv
_ZN7android8hardware3usb4V1_015BpHwUsbCallback5debugERKNS0_11hidl_handleERKNS0_8hidl_vecINS0_11hidl_stringEEE
_ZN7android8hardware3usb4V1_015BpHwUsbCallbackC1ERKNS_2spINS0_7IBinderEEE
_ZN7android8hardware3usb4V1_015BpHwUsbCallbackC2ERKNS_2spINS0_7IBinderEEE
_ZN7android8hardware3usb4V1_021writeEmbeddedToParcelERKNS2_10PortStatusEPNS0_6ParcelEmm
_ZN7android8hardware3usb4V1_022readEmbeddedFromParcelERKNS2_10PortStatusERKNS0_6ParcelEmm
_ZN7android8hardware3usb4V1_04IUsb10descriptorE
_ZN7android8hardware3usb4V1_04IUsb10getServiceERKNSt3__112basic_stringIcNS4_11char_traitsIcEENS4_9allocatorIcEEEEb
_ZN7android8hardware3usb4V1_04IUsb11linkToDeathERKNS_2spINS0_20hidl_death_recipientEEEm
_ZN7android8hardware3usb4V1_04IUsb12getDebugInfoENSt3__18functionIFvRKNS_4hidl4base4V1_09DebugInfoEEEE
_ZN7android8hardware3usb4V1_04IUsb12getHashChainENSt3__18functionIFvRKNS0_8hidl_vecINS0_10hidl_arrayIhLm32EJEEEEEEEE
_ZN7android8hardware3usb4V1_04IUsb13tryGetServiceERKNSt3__112basic_stringIcNS4_11char_traitsIcEENS4_9allocatorIcEEEEb
_ZN7android8hardware3usb4V1_04IUsb13unlinkToDeathERKNS_2spINS0_20hidl_death_recipientEEE
_ZN7android8hardware3usb4V1_04IUsb14interfaceChainENSt3__18functionIFvRKNS0_8hidl_vecINS0_11hidl_stringEEEEEE
_ZN7android8hardware3usb4V1_04IUsb17registerAsServiceERKNSt3__112basic_stringIcNS4_11char_traitsIcEENS4_9allocatorIcEEEE
_ZN7android8hardware3usb4V1_04IUsb19interfaceDescriptorENSt3__18functionIFvRKNS0_11hidl_stringEEEE
_ZN7android8hardware3usb4V1_04IUsb21notifySyspropsChangedEv
_ZN7android8hardware3usb4V1_04IUsb21setHALInstrumentationEv
_ZN7android8hardware3usb4V1_04IUsb24registerForNotificationsERKNSt3__112basic_stringIcNS4_11char_traitsIcEENS4_9allocatorIcEEEERKNS_2spINS_4hidl7manager4V1_020IServiceNotificationEEE
_ZN7android8hardware3usb4V1_04IUsb4pingEv
_ZN7android8hardware3usb4V1_04IUsb5debugERKNS0_11hidl_handleERKNS0_8hidl_vecINS0_11hidl_stringEEE
_ZN7android8hardware3usb4V1_04IUsb8castFromERKNS_2spINS_4hidl4base4V1_05IBaseEEEb
_ZN7android8hardware3usb4V1_04IUsb8castFromERKNS_2spIS3_EEb
_ZN7android8hardware3usb4V1_05BsUsb13addOnewayTaskENSt3__18functionIFvvEEE
_ZN7android8hardware3usb4V1_05BsUsbC1ENS_2spINS2_4IUsbEEE
_ZN7android8hardware3usb4V1_05BsUsbC2ENS_2spINS2_4IUsbEEE
_ZN7android8hardware3usb4V1_07BnHwUsb10onTransactEjRKNS0_6ParcelEPS4_jNSt3__18functionIFvRS4_EEE
_ZN7android8hardware3usb4V1_07BnHwUsb12getDebugInfoENSt3__18functionIFvRKNS_4hidl4base4V1_09DebugInfoEEEE
_ZN7android8hardware3usb4V1_07BnHwUsb16_hidl_switchRoleEPNS_4hidl4base4V1_08BnHwBaseERKNS0_6ParcelEPS9_NSt3__18functionIFvRS9_EEE
_ZN7android8hardware3usb4V1_07BnHwUsb17_hidl_setCallbackEPNS_4hidl4base4V1_08BnHwBaseERKNS0_6ParcelEPS9_NSt3__18functionIFvRS9_EEE
_ZN7android8hardware3usb4V1_07BnHwUsb21_hidl_queryPortStatusEPNS_4hidl4base4V1_08BnHwBaseERKNS0_6ParcelEPS9_NSt3__18functionIFvRS9_EEE
_ZN7android8hardware3usb4V1_07BnHwUsb4pingEv
_ZN7android8hardware3usb4V1_07BnHwUsbC1ERKNS_2spINS2_4IUsbEEE
_ZN7android8hardware3usb4V1_07BnHwUsbC2ERKNS_2spINS2_4IUsbEEE
_ZN7android8hardware3usb4V1_07BnHwUsbD0Ev
_ZN7android8hardware3usb4V1_07BnHwUsbD1Ev
_ZN7android8hardware3usb4V1_07BnHwUsbD2Ev
_ZN7android8hardware3usb4V1_07BpHwUsb10switchRoleERKNS0_11hidl_stringERKNS2_8PortRoleE
_ZN7android8hardware3usb4V1_07BpHwUsb11linkToDeathERKNS_2spINS0_20hidl_death_recipientEEEm
_ZN7android8hardware3usb4V1_07BpHwUsb11setCallbackERKNS_2spINS2_12IUsbCallbackEEE
_ZN7android8hardware3usb4V1_07BpHwUsb12getDebugInfoENSt3__18functionIFvRKNS_4hidl4base4V1_09DebugInfoEEEE
_ZN7android8hardware3usb4V1_07BpHwUsb12getHashChainENSt3__18functionIFvRKNS0_8hidl_vecINS0_10hidl_arrayIhLm32EJEEEEEEEE
_ZN7android8hardware3usb4V1_07BpHwUsb13unlinkToDeathERKNS_2spINS0_20hidl_death_recipientEEE
_ZN7android8hardware3usb4V1_07BpHwUsb14interfaceChainENSt3__18functionIFvRKNS0_8hidl_vecINS0_11hidl_stringEEEEEE
_ZN7android8hardware3usb4V1_07BpHwUsb15queryPortStatusEv
_ZN7android8hardware3usb4V1_07BpHwUsb16_hidl_switchRoleEPNS0_10IInterfaceEPNS0_7details16HidlInstrumentorERKNS0_11hidl_stringERKNS2_8PortRoleE
_ZN7android8hardware3usb4V1_07BpHwUsb17_hidl_setCallbackEPNS0_10IInterfaceEPNS0_7details16HidlInstrumentorERKNS_2spINS2_12IUsbCallbackEEE
_ZN7android8hardware3usb4V1_07BpHwUsb19interfaceDescriptorENSt3__18functionIFvRKNS0_11hidl_stringEEEE
_ZN7android8hardware3usb4V1_07BpHwUsb21_hidl_queryPortStatusEPNS0_10IInterfaceEPNS0_7details16HidlInstrumentorE
_ZN7android8hardware3usb4V1_07BpHwUsb21notifySyspropsChangedEv
_ZN7android8hardware3usb4V1_07BpHwUsb21setHALInstrumentationEv
_ZN7android8hardware3usb4V1_07BpHwUsb4pingEv
_ZN7android8hardware3usb4V1_07BpHwUsb5debugERKNS0_11hidl_handleERKNS0_8hidl_vecINS0_11hidl_stringEEE
_ZN7android8hardware3usb4V1_07BpHwUsbC1ERKNS_2spINS0_7IBinderEEE
_ZN7android8hardware3usb4V1_07BpHwUsbC2ERKNS_2spINS0_7IBinderEEE
_ZTCN7android8hardware3usb4V1_012IUsbCallbackE0_NS_4hidl4base4V1_05IBaseE
_ZTCN7android8hardware3usb4V1_015BnHwUsbCallbackE0_NS0_7IBinderE
_ZTCN7android8hardware3usb4V1_015BnHwUsbCallbackE0_NS0_9BHwBinderE
_ZTCN7android8hardware3usb4V1_015BnHwUsbCallbackE0_NS_4hidl4base4V1_08BnHwBaseE
_ZTCN7android8hardware3usb4V1_015BpHwUsbCallbackE0_NS0_11BpInterfaceINS2_12IUsbCallbackEEE
_ZTCN7android8hardware3usb4V1_015BpHwUsbCallbackE0_NS2_12IUsbCallbackE
_ZTCN7android8hardware3usb4V1_015BpHwUsbCallbackE0_NS_4hidl4base4V1_05IBaseE
_ZTCN7android8hardware3usb4V1_015BpHwUsbCallbackE16_NS0_11BpHwRefBaseE
_ZTCN7android8hardware3usb4V1_015BpHwUsbCallbackE8_NS0_10IInterfaceE
_ZTCN7android8hardware3usb4V1_04IUsbE0_NS_4hidl4base4V1_05IBaseE
_ZTCN7android8hardware3usb4V1_07BnHwUsbE0_NS0_7IBinderE
_ZTCN7android8hardware3usb4V1_07BnHwUsbE0_NS0_9BHwBinderE
_ZTCN7android8hardware3usb4V1_07BnHwUsbE0_NS_4hidl4base4V1_08BnHwBaseE
_ZTCN7android8hardware3usb4V1_07BpHwUsbE0_NS0_11BpInterfaceINS2_4IUsbEEE
_ZTCN7android8hardware3usb4V1_07BpHwUsbE0_NS2_4IUsbE
_ZTCN7android8hardware3usb4V1_07BpHwUsbE0_NS_4hidl4base4V1_05IBaseE
_ZTCN7android8hardware3usb4V1_07BpHwUsbE16_NS0_11BpHwRefBaseE
_ZTCN7android8hardware3usb4V1_07BpHwUsbE8_NS0_10IInterfaceE
_ZTTN7android8hardware3usb4V1_012IUsbCallbackE
_ZTTN7android8hardware3usb4V1_015BnHwUsbCallbackE
_ZTTN7android8hardware3usb4V1_015BpHwUsbCallbackE
_ZTTN7android8hardware3usb4V1_04IUsbE
_ZTTN7android8hardware3usb4V1_07BnHwUsbE
_ZTTN7android8hardware3usb4V1_07BpHwUsbE
_ZTVN7android8hardware3usb4V1_012IUsbCallbackE
_ZTVN7android8hardware3usb4V1_015BnHwUsbCallbackE
_ZTVN7android8hardware3usb4V1_015BpHwUsbCallbackE
_ZTVN7android8hardware3usb4V1_04IUsbE
_ZTVN7android8hardware3usb4V1_07BnHwUsbE
_ZTVN7android8hardware3usb4V1_07BpHwUsbE
_ZThn32_N7android8hardware3usb4V1_015BnHwUsbCallbackD0Ev
_ZThn32_N7android8hardware3usb4V1_015BnHwUsbCallbackD1Ev
_ZThn32_N7android8hardware3usb4V1_07BnHwUsbD0Ev
_ZThn32_N7android8hardware3usb4V1_07BnHwUsbD1Ev
_ZTv0_n24_N7android8hardware3usb4V1_015BnHwUsbCallbackD0Ev
_ZTv0_n24_N7android8hardware3usb4V1_015BnHwUsbCallbackD1Ev
_ZTv0_n24_N7android8hardware3usb4V1_07BnHwUsbD0Ev
_ZTv0_n24_N7android8hardware3usb4V1_07BnHwUsbD1Ev
