_ZN7android6system3net4netd4V1_15INetd10descriptorE
_ZN7android6system3net4netd4V1_15INetd10getServiceERKNSt3__112basic_stringIcNS5_11char_traitsIcEENS5_9allocatorIcEEEEb
_ZN7android6system3net4netd4V1_15INetd11linkToDeathERKNS_2spINS_8hardware20hidl_death_recipientEEEm
_ZN7android6system3net4netd4V1_15INetd12getDebugInfoENSt3__18functionIFvRKNS_4hidl4base4V1_09DebugInfoEEEE
_ZN7android6system3net4netd4V1_15INetd12getHashChainENSt3__18functionIFvRKNS_8hardware8hidl_vecINS7_10hidl_arrayIhLm32EJEEEEEEEE
_ZN7android6system3net4netd4V1_15INetd13tryGetServiceERKNSt3__112basic_stringIcNS5_11char_traitsIcEENS5_9allocatorIcEEEEb
_ZN7android6system3net4netd4V1_15INetd13unlinkToDeathERKNS_2spINS_8hardware20hidl_death_recipientEEE
_ZN7android6system3net4netd4V1_15INetd14interfaceChainENSt3__18functionIFvRKNS_8hardware8hidl_vecINS7_11hidl_stringEEEEEE
_ZN7android6system3net4netd4V1_15INetd17registerAsServiceERKNSt3__112basic_stringIcNS5_11char_traitsIcEENS5_9allocatorIcEEEE
_ZN7android6system3net4netd4V1_15INetd19interfaceDescriptorENSt3__18functionIFvRKNS_8hardware11hidl_stringEEEE
_ZN7android6system3net4netd4V1_15INetd21notifySyspropsChangedEv
_ZN7android6system3net4netd4V1_15INetd21setHALInstrumentationEv
_ZN7android6system3net4netd4V1_15INetd24registerForNotificationsERKNSt3__112basic_stringIcNS5_11char_traitsIcEENS5_9allocatorIcEEEERKNS_2spINS_4hidl7manager4V1_020IServiceNotificationEEE
_ZN7android6system3net4netd4V1_15INetd4pingEv
_ZN7android6system3net4netd4V1_15INetd5debugERKNS_8hardware11hidl_handleERKNS5_8hidl_vecINS5_11hidl_stringEEE
_ZN7android6system3net4netd4V1_15INetd8castFromERKNS_2spINS2_4V1_05INetdEEEb
_ZN7android6system3net4netd4V1_15INetd8castFromERKNS_2spINS_4hidl4base4V1_05IBaseEEEb
_ZN7android6system3net4netd4V1_15INetd8castFromERKNS_2spIS4_EEb
_ZN7android6system3net4netd4V1_16BsNetd13addOnewayTaskENSt3__18functionIFvvEEE
_ZN7android6system3net4netd4V1_16BsNetdC1ENS_2spINS3_5INetdEEE
_ZN7android6system3net4netd4V1_16BsNetdC2ENS_2spINS3_5INetdEEE
_ZN7android6system3net4netd4V1_18BnHwNetd10onTransactEjRKNS_8hardware6ParcelEPS6_jNSt3__18functionIFvRS6_EEE
_ZN7android6system3net4netd4V1_18BnHwNetd12getDebugInfoENSt3__18functionIFvRKNS_4hidl4base4V1_09DebugInfoEEEE
_ZN7android6system3net4netd4V1_18BnHwNetd24_hidl_setIpForwardEnableEPNS_4hidl4base4V1_08BnHwBaseERKNS_8hardware6ParcelEPSB_NSt3__18functionIFvRSB_EEE
_ZN7android6system3net4netd4V1_18BnHwNetd26_hidl_addRouteToOemNetworkEPNS_4hidl4base4V1_08BnHwBaseERKNS_8hardware6ParcelEPSB_NSt3__18functionIFvRSB_EEE
_ZN7android6system3net4netd4V1_18BnHwNetd30_hidl_addInterfaceToOemNetworkEPNS_4hidl4base4V1_08BnHwBaseERKNS_8hardware6ParcelEPSB_NSt3__18functionIFvRSB_EEE
_ZN7android6system3net4netd4V1_18BnHwNetd31_hidl_removeRouteFromOemNetworkEPNS_4hidl4base4V1_08BnHwBaseERKNS_8hardware6ParcelEPSB_NSt3__18functionIFvRSB_EEE
_ZN7android6system3net4netd4V1_18BnHwNetd35_hidl_removeInterfaceFromOemNetworkEPNS_4hidl4base4V1_08BnHwBaseERKNS_8hardware6ParcelEPSB_NSt3__18functionIFvRSB_EEE
_ZN7android6system3net4netd4V1_18BnHwNetd36_hidl_setForwardingBetweenInterfacesEPNS_4hidl4base4V1_08BnHwBaseERKNS_8hardware6ParcelEPSB_NSt3__18functionIFvRSB_EEE
_ZN7android6system3net4netd4V1_18BnHwNetd4pingEv
_ZN7android6system3net4netd4V1_18BnHwNetdC1ERKNS_2spINS3_5INetdEEE
_ZN7android6system3net4netd4V1_18BnHwNetdC2ERKNS_2spINS3_5INetdEEE
_ZN7android6system3net4netd4V1_18BnHwNetdD0Ev
_ZN7android6system3net4netd4V1_18BnHwNetdD1Ev
_ZN7android6system3net4netd4V1_18BnHwNetdD2Ev
_ZN7android6system3net4netd4V1_18BpHwNetd11linkToDeathERKNS_2spINS_8hardware20hidl_death_recipientEEEm
_ZN7android6system3net4netd4V1_18BpHwNetd12getDebugInfoENSt3__18functionIFvRKNS_4hidl4base4V1_09DebugInfoEEEE
_ZN7android6system3net4netd4V1_18BpHwNetd12getHashChainENSt3__18functionIFvRKNS_8hardware8hidl_vecINS7_10hidl_arrayIhLm32EJEEEEEEEE
_ZN7android6system3net4netd4V1_18BpHwNetd13unlinkToDeathERKNS_2spINS_8hardware20hidl_death_recipientEEE
_ZN7android6system3net4netd4V1_18BpHwNetd14interfaceChainENSt3__18functionIFvRKNS_8hardware8hidl_vecINS7_11hidl_stringEEEEEE
_ZN7android6system3net4netd4V1_18BpHwNetd16createOemNetworkENSt3__18functionIFvmjNS2_4V1_05INetd10StatusCodeEEEE
_ZN7android6system3net4netd4V1_18BpHwNetd17destroyOemNetworkEm
_ZN7android6system3net4netd4V1_18BpHwNetd18setIpForwardEnableEb
_ZN7android6system3net4netd4V1_18BpHwNetd19interfaceDescriptorENSt3__18functionIFvRKNS_8hardware11hidl_stringEEEE
_ZN7android6system3net4netd4V1_18BpHwNetd20addRouteToOemNetworkEmRKNS_8hardware11hidl_stringES8_S8_
_ZN7android6system3net4netd4V1_18BpHwNetd21notifySyspropsChangedEv
_ZN7android6system3net4netd4V1_18BpHwNetd21setHALInstrumentationEv
_ZN7android6system3net4netd4V1_18BpHwNetd24_hidl_setIpForwardEnableEPNS_8hardware10IInterfaceEPNS5_7details16HidlInstrumentorEb
_ZN7android6system3net4netd4V1_18BpHwNetd24addInterfaceToOemNetworkEmRKNS_8hardware11hidl_stringE
_ZN7android6system3net4netd4V1_18BpHwNetd25removeRouteFromOemNetworkEmRKNS_8hardware11hidl_stringES8_S8_
_ZN7android6system3net4netd4V1_18BpHwNetd26_hidl_addRouteToOemNetworkEPNS_8hardware10IInterfaceEPNS5_7details16HidlInstrumentorEmRKNS5_11hidl_stringESD_SD_
_ZN7android6system3net4netd4V1_18BpHwNetd29removeInterfaceFromOemNetworkEmRKNS_8hardware11hidl_stringE
_ZN7android6system3net4netd4V1_18BpHwNetd30_hidl_addInterfaceToOemNetworkEPNS_8hardware10IInterfaceEPNS5_7details16HidlInstrumentorEmRKNS5_11hidl_stringE
_ZN7android6system3net4netd4V1_18BpHwNetd30setForwardingBetweenInterfacesERKNS_8hardware11hidl_stringES8_b
_ZN7android6system3net4netd4V1_18BpHwNetd31_hidl_removeRouteFromOemNetworkEPNS_8hardware10IInterfaceEPNS5_7details16HidlInstrumentorEmRKNS5_11hidl_stringESD_SD_
_ZN7android6system3net4netd4V1_18BpHwNetd35_hidl_removeInterfaceFromOemNetworkEPNS_8hardware10IInterfaceEPNS5_7details16HidlInstrumentorEmRKNS5_11hidl_stringE
_ZN7android6system3net4netd4V1_18BpHwNetd36_hidl_setForwardingBetweenInterfacesEPNS_8hardware10IInterfaceEPNS5_7details16HidlInstrumentorERKNS5_11hidl_stringESD_b
_ZN7android6system3net4netd4V1_18BpHwNetd4pingEv
_ZN7android6system3net4netd4V1_18BpHwNetd5debugERKNS_8hardware11hidl_handleERKNS5_8hidl_vecINS5_11hidl_stringEEE
_ZN7android6system3net4netd4V1_18BpHwNetdC1ERKNS_2spINS_8hardware7IBinderEEE
_ZN7android6system3net4netd4V1_18BpHwNetdC2ERKNS_2spINS_8hardware7IBinderEEE
_ZTCN7android6system3net4netd4V1_15INetdE0_NS2_4V1_05INetdE
_ZTCN7android6system3net4netd4V1_15INetdE0_NS_4hidl4base4V1_05IBaseE
_ZTCN7android6system3net4netd4V1_18BnHwNetdE0_NS_4hidl4base4V1_08BnHwBaseE
_ZTCN7android6system3net4netd4V1_18BnHwNetdE0_NS_8hardware7IBinderE
_ZTCN7android6system3net4netd4V1_18BnHwNetdE0_NS_8hardware9BHwBinderE
_ZTCN7android6system3net4netd4V1_18BpHwNetdE0_NS2_4V1_05INetdE
_ZTCN7android6system3net4netd4V1_18BpHwNetdE0_NS3_5INetdE
_ZTCN7android6system3net4netd4V1_18BpHwNetdE0_NS_4hidl4base4V1_05IBaseE
_ZTCN7android6system3net4netd4V1_18BpHwNetdE0_NS_8hardware11BpInterfaceINS3_5INetdEEE
_ZTCN7android6system3net4netd4V1_18BpHwNetdE16_NS_8hardware11BpHwRefBaseE
_ZTCN7android6system3net4netd4V1_18BpHwNetdE8_NS_8hardware10IInterfaceE
_ZTTN7android6system3net4netd4V1_15INetdE
_ZTTN7android6system3net4netd4V1_18BnHwNetdE
_ZTTN7android6system3net4netd4V1_18BpHwNetdE
_ZTVN7android6system3net4netd4V1_15INetdE
_ZTVN7android6system3net4netd4V1_18BnHwNetdE
_ZTVN7android6system3net4netd4V1_18BpHwNetdE
_ZThn32_N7android6system3net4netd4V1_18BnHwNetdD0Ev
_ZThn32_N7android6system3net4netd4V1_18BnHwNetdD1Ev
_ZTv0_n24_N7android6system3net4netd4V1_18BnHwNetdD0Ev
_ZTv0_n24_N7android6system3net4netd4V1_18BnHwNetdD1Ev
