_ZN9keymaster10TAG_DIGESTE
_ZN9keymaster10TAG_ORIGINE
_ZN9keymaster10dup_bufferEPKvm
_ZN9keymaster11TAG_INVALIDE
_ZN9keymaster11TAG_PADDINGE
_ZN9keymaster11TAG_PURPOSEE
_ZN9keymaster11TAG_USER_IDE
_ZN9keymaster11empty_paramE
_ZN9keymaster12StringifyTagE15keymaster_tag_t
_ZN9keymaster12TAG_EC_CURVEE
_ZN9keymaster12TAG_KEY_SIZEE
_ZN9keymaster13TAG_ALGORITHME
_ZN9keymaster13TAG_ALL_USERSE
_ZN9keymaster13TAG_UNIQUE_IDE
_ZN9keymaster13append_to_bufEPhPKhPKvm
_ZN9keymaster13copy_from_bufEPPKhS1_Pvm
_ZN9keymaster14TAG_AUTH_TOKENE
_ZN9keymaster14TAG_BLOCK_MODEE
_ZN9keymaster14TAG_DIGEST_OLDE
_ZN9keymaster14TAG_MAC_LENGTHE
_ZN9keymaster14TAG_OS_VERSIONE
_ZN9keymaster15TAG_PADDING_OLDE
_ZN9keymaster16AttestKeyRequest11DeserializeEPPKhS2_
_ZN9keymaster16AttestKeyRequest14SetKeyMaterialEPKvm
_ZN9keymaster16AttestKeyRequestD0Ev
_ZN9keymaster16AttestKeyRequestD1Ev
_ZN9keymaster16AttestKeyRequestD2Ev
_ZN9keymaster16AuthorizationSet10DifferenceERK25keymaster_key_param_set_t
_ZN9keymaster16AuthorizationSet11DeduplicateEv
_ZN9keymaster16AuthorizationSet11DeserializeEPPKhS2_
_ZN9keymaster16AuthorizationSet11set_invalidENS0_5ErrorE
_ZN9keymaster16AuthorizationSet12ReinitializeEPK21keymaster_key_param_tm
_ZN9keymaster16AuthorizationSet13reserve_elemsEm
_ZN9keymaster16AuthorizationSet16CopyIndirectDataEv
_ZN9keymaster16AuthorizationSet16reserve_indirectEm
_ZN9keymaster16AuthorizationSet23ComputeIndirectDataSizeEPK21keymaster_key_param_tm
_ZN9keymaster16AuthorizationSet23DeserializeElementsDataEPPKhS2_
_ZN9keymaster16AuthorizationSet23DeserializeIndirectDataEPPKhS2_
_ZN9keymaster16AuthorizationSet4SortEv
_ZN9keymaster16AuthorizationSet5ClearEv
_ZN9keymaster16AuthorizationSet5UnionERK25keymaster_key_param_set_t
_ZN9keymaster16AuthorizationSet5eraseEi
_ZN9keymaster16AuthorizationSet8FreeDataEv
_ZN9keymaster16AuthorizationSet8MoveFromERS0_
_ZN9keymaster16AuthorizationSet9push_backE21keymaster_key_param_t
_ZN9keymaster16AuthorizationSet9push_backERK25keymaster_key_param_set_t
_ZN9keymaster16AuthorizationSetC1ERNS_23AuthorizationSetBuilderE
_ZN9keymaster16AuthorizationSetC2ERNS_23AuthorizationSetBuilderE
_ZN9keymaster16AuthorizationSetD0Ev
_ZN9keymaster16AuthorizationSetD1Ev
_ZN9keymaster16AuthorizationSetD2Ev
_ZN9keymaster16AuthorizationSetixEi
_ZN9keymaster16DeleteKeyRequest11DeserializeEPPKhS2_
_ZN9keymaster16DeleteKeyRequest14SetKeyMaterialEPKvm
_ZN9keymaster16EcCurveToKeySizeE20keymaster_ec_curve_tPj
_ZN9keymaster16EcKeySizeToCurveEjP20keymaster_ec_curve_t
_ZN9keymaster16ExportKeyRequest11DeserializeEPPKhS2_
_ZN9keymaster16ExportKeyRequest14SetKeyMaterialEPKvm
_ZN9keymaster16ImportKeyRequest11DeserializeEPPKhS2_
_ZN9keymaster16ImportKeyRequest14SetKeyMaterialEPKvm
_ZN9keymaster16TAG_AUTH_TIMEOUTE
_ZN9keymaster16TAG_CALLER_NONCEE
_ZN9keymaster17AddEntropyRequest11DeserializeEPPKhS2_
_ZN9keymaster17AttestKeyResponse13AllocateChainEm
_ZN9keymaster17AttestKeyResponse19NonErrorDeserializeEPPKhS2_
_ZN9keymaster17AttestKeyResponseD0Ev
_ZN9keymaster17AttestKeyResponseD1Ev
_ZN9keymaster17AttestKeyResponseD2Ev
_ZN9keymaster17ExportKeyResponse14SetKeyMaterialEPKvm
_ZN9keymaster17ExportKeyResponse19NonErrorDeserializeEPPKhS2_
_ZN9keymaster17HardwareAuthToken11DeserializeEPPKhS2_
_ZN9keymaster17ImportKeyResponse14SetKeyMaterialEPKvm
_ZN9keymaster17ImportKeyResponse19NonErrorDeserializeEPPKhS2_
_ZN9keymaster17KeymasterResponse11DeserializeEPPKhS2_
_ZN9keymaster17TAG_OS_PATCHLEVELE
_ZN9keymaster17TAG_ROOT_OF_TRUSTE
_ZN9keymaster17UpgradeKeyRequest11DeserializeEPPKhS2_
_ZN9keymaster17UpgradeKeyRequest14SetKeyMaterialEPKvm
_ZN9keymaster17UpgradeKeyRequestD0Ev
_ZN9keymaster17UpgradeKeyRequestD1Ev
_ZN9keymaster17UpgradeKeyRequestD2Ev
_ZN9keymaster17VerificationToken11DeserializeEPPKhS2_
_ZN9keymaster18GetVersionResponse19NonErrorDeserializeEPPKhS2_
_ZN9keymaster18TAG_APPLICATION_IDE
_ZN9keymaster18TAG_MIN_MAC_LENGTHE
_ZN9keymaster18TAG_USER_AUTH_TYPEE
_ZN9keymaster18TAG_USER_SECURE_IDE
_ZN9keymaster18UpgradeKeyResponse19NonErrorDeserializeEPPKhS2_
_ZN9keymaster18UpgradeKeyResponseD0Ev
_ZN9keymaster18UpgradeKeyResponseD1Ev
_ZN9keymaster18UpgradeKeyResponseD2Ev
_ZN9keymaster19GenerateKeyResponse19NonErrorDeserializeEPPKhS2_
_ZN9keymaster19GenerateKeyResponseD0Ev
_ZN9keymaster19GenerateKeyResponseD1Ev
_ZN9keymaster19GenerateKeyResponseD2Ev
_ZN9keymaster19TAG_ACTIVE_DATETIMEE
_ZN9keymaster19TAG_ASSOCIATED_DATAE
_ZN9keymaster19TAG_BOOTLOADER_ONLYE
_ZN9keymaster20TAG_ALL_APPLICATIONSE
_ZN9keymaster20TAG_APPLICATION_DATAE
_ZN9keymaster20TAG_NO_AUTH_REQUIREDE
_ZN9keymaster21BeginOperationRequest11DeserializeEPPKhS2_
_ZN9keymaster21BeginOperationRequest14SetKeyMaterialEPKvm
_ZN9keymaster21HmacSharingParameters11DeserializeEPPKhS2_
_ZN9keymaster21TAG_CREATION_DATETIMEE
_ZN9keymaster21TAG_INCLUDE_UNIQUE_IDE
_ZN9keymaster21TAG_MAX_USES_PER_BOOTE
_ZN9keymaster22BeginOperationResponse19NonErrorDeserializeEPPKhS2_
_ZN9keymaster22FinishOperationRequest11DeserializeEPPKhS2_
_ZN9keymaster22TAG_ROLLBACK_RESISTANTE
_ZN9keymaster22UpdateOperationRequest11DeserializeEPPKhS2_
_ZN9keymaster23FinishOperationResponse19NonErrorDeserializeEPPKhS2_
_ZN9keymaster23ImportWrappedKeyRequest11DeserializeEPPKhS2_
_ZN9keymaster23ImportWrappedKeyRequest18SetWrappedMaterialEPKvm
_ZN9keymaster23ImportWrappedKeyRequest19SetWrappingMaterialEPKvm
_ZN9keymaster23ImportWrappedKeyRequest21SetMaskingKeyMaterialEPKvm
_ZN9keymaster23TAG_ALLOW_WHILE_ON_BODYE
_ZN9keymaster23TAG_ATTESTATION_ID_IMEIE
_ZN9keymaster23TAG_ATTESTATION_ID_MEIDE
_ZN9keymaster23TAG_RSA_PUBLIC_EXPONENTE
_ZN9keymaster23UpdateOperationResponse19NonErrorDeserializeEPPKhS2_
_ZN9keymaster24ImportWrappedKeyResponse14SetKeyMaterialEPKvm
_ZN9keymaster24ImportWrappedKeyResponse19NonErrorDeserializeEPPKhS2_
_ZN9keymaster24TAG_ATTESTATION_ID_BRANDE
_ZN9keymaster24TAG_ATTESTATION_ID_MODELE
_ZN9keymaster25ComputeSharedHmacResponse19NonErrorDeserializeEPPKhS2_
_ZN9keymaster25TAG_ATTESTATION_ID_DEVICEE
_ZN9keymaster25TAG_ATTESTATION_ID_SERIALE
_ZN9keymaster25TAG_USAGE_EXPIRE_DATETIMEE
_ZN9keymaster26HmacSharingParametersArray11DeserializeEPPKhS2_
_ZN9keymaster26TAG_ATTESTATION_ID_PRODUCTE
_ZN9keymaster26TAG_ECIES_SINGLE_HASH_MODEE
_ZN9keymaster27TAG_BLOB_USAGE_REQUIREMENTSE
_ZN9keymaster27TAG_MIN_SECONDS_BETWEEN_OPSE
_ZN9keymaster27copy_size_and_data_from_bufEPPKhS1_PmPNS_9UniquePtrIA_hNS_13DefaultDeleteIS5_EEEE
_ZN9keymaster28GetKeyCharacteristicsRequest11DeserializeEPPKhS2_
_ZN9keymaster28GetKeyCharacteristicsRequest14SetKeyMaterialEPKvm
_ZN9keymaster28GetKeyCharacteristicsRequestD0Ev
_ZN9keymaster28GetKeyCharacteristicsRequestD1Ev
_ZN9keymaster28GetKeyCharacteristicsRequestD2Ev
_ZN9keymaster29GetKeyCharacteristicsResponse19NonErrorDeserializeEPPKhS2_
_ZN9keymaster30TAG_ATTESTATION_APPLICATION_IDE
_ZN9keymaster31TAG_ATTESTATION_ID_MANUFACTURERE
_ZN9keymaster31TAG_ORIGINATION_EXPIRE_DATETIMEE
_ZN9keymaster6Buffer11DeserializeEPPKhS2_
_ZN9keymaster6Buffer12ReinitializeEPKvm
_ZN9keymaster6Buffer12ReinitializeEm
_ZN9keymaster6Buffer4readEPhm
_ZN9keymaster6Buffer5ClearEv
_ZN9keymaster6Buffer5writeEPKhm
_ZN9keymaster6Buffer7reserveEm
_ZN9keymaster6Logger3LogENS0_8LogLevelEPKcSt9__va_list
_ZN9keymaster6Logger3LogENS0_8LogLevelEPKcz
_ZN9keymaster6Logger4InfoEPKcz
_ZN9keymaster6Logger5DebugEPKcz
_ZN9keymaster6Logger5ErrorEPKcz
_ZN9keymaster6Logger6SevereEPKcz
_ZN9keymaster6Logger7WarningEPKcz
_ZN9keymaster6Logger9instance_E
_ZN9keymaster7TAG_KDFE
_ZN9keymaster8memcmp_sEPKvS1_m
_ZN9keymaster9TAG_NONCEE
_ZNK9keymaster16AttestKeyRequest14SerializedSizeEv
_ZNK9keymaster16AttestKeyRequest9SerializeEPhPKh
_ZNK9keymaster16AuthorizationSet11GetTagCountE15keymaster_tag_t
_ZNK9keymaster16AuthorizationSet14CopyToParamSetEP25keymaster_key_param_set_t
_ZNK9keymaster16AuthorizationSet14GetTagValueIntE15keymaster_tag_tPj
_ZNK9keymaster16AuthorizationSet14SerializedSizeEv
_ZNK9keymaster16AuthorizationSet15GetTagValueBlobE15keymaster_tag_tP16keymaster_blob_t
_ZNK9keymaster16AuthorizationSet15GetTagValueBoolE15keymaster_tag_t
_ZNK9keymaster16AuthorizationSet15GetTagValueDateE15keymaster_tag_tPm
_ZNK9keymaster16AuthorizationSet15GetTagValueEnumE15keymaster_tag_tPj
_ZNK9keymaster16AuthorizationSet15GetTagValueLongE15keymaster_tag_tPm
_ZNK9keymaster16AuthorizationSet16ContainsIntValueE15keymaster_tag_tj
_ZNK9keymaster16AuthorizationSet17ContainsEnumValueE15keymaster_tag_tj
_ZNK9keymaster16AuthorizationSet17GetTagValueIntRepE15keymaster_tag_tmPj
_ZNK9keymaster16AuthorizationSet18GetTagValueEnumRepE15keymaster_tag_tmPj
_ZNK9keymaster16AuthorizationSet18GetTagValueLongRepE15keymaster_tag_tmPm
_ZNK9keymaster16AuthorizationSet24SerializedSizeOfElementsEv
_ZNK9keymaster16AuthorizationSet4findE15keymaster_tag_ti
_ZNK9keymaster16AuthorizationSet9SerializeEPhPKh
_ZNK9keymaster16AuthorizationSetixEi
_ZNK9keymaster16DeleteKeyRequest14SerializedSizeEv
_ZNK9keymaster16DeleteKeyRequest9SerializeEPhPKh
_ZNK9keymaster16ExportKeyRequest14SerializedSizeEv
_ZNK9keymaster16ExportKeyRequest9SerializeEPhPKh
_ZNK9keymaster16ImportKeyRequest14SerializedSizeEv
_ZNK9keymaster16ImportKeyRequest9SerializeEPhPKh
_ZNK9keymaster17AddEntropyRequest14SerializedSizeEv
_ZNK9keymaster17AddEntropyRequest9SerializeEPhPKh
_ZNK9keymaster17AttestKeyResponse17NonErrorSerializeEPhPKh
_ZNK9keymaster17AttestKeyResponse22NonErrorSerializedSizeEv
_ZNK9keymaster17ExportKeyResponse17NonErrorSerializeEPhPKh
_ZNK9keymaster17ExportKeyResponse22NonErrorSerializedSizeEv
_ZNK9keymaster17HardwareAuthToken14SerializedSizeEv
_ZNK9keymaster17HardwareAuthToken9SerializeEPhPKh
_ZNK9keymaster17ImportKeyResponse17NonErrorSerializeEPhPKh
_ZNK9keymaster17ImportKeyResponse22NonErrorSerializedSizeEv
_ZNK9keymaster17KeymasterResponse14SerializedSizeEv
_ZNK9keymaster17KeymasterResponse9SerializeEPhPKh
_ZNK9keymaster17UpgradeKeyRequest14SerializedSizeEv
_ZNK9keymaster17UpgradeKeyRequest9SerializeEPhPKh
_ZNK9keymaster17VerificationToken14SerializedSizeEv
_ZNK9keymaster17VerificationToken9SerializeEPhPKh
_ZNK9keymaster18GetVersionResponse17NonErrorSerializeEPhPKh
_ZNK9keymaster18GetVersionResponse22NonErrorSerializedSizeEv
_ZNK9keymaster18UpgradeKeyResponse17NonErrorSerializeEPhPKh
_ZNK9keymaster18UpgradeKeyResponse22NonErrorSerializedSizeEv
_ZNK9keymaster19GenerateKeyResponse17NonErrorSerializeEPhPKh
_ZNK9keymaster19GenerateKeyResponse22NonErrorSerializedSizeEv
_ZNK9keymaster21BeginOperationRequest14SerializedSizeEv
_ZNK9keymaster21BeginOperationRequest9SerializeEPhPKh
_ZNK9keymaster21HmacSharingParameters14SerializedSizeEv
_ZNK9keymaster21HmacSharingParameters9SerializeEPhPKh
_ZNK9keymaster22BeginOperationResponse17NonErrorSerializeEPhPKh
_ZNK9keymaster22BeginOperationResponse22NonErrorSerializedSizeEv
_ZNK9keymaster22FinishOperationRequest14SerializedSizeEv
_ZNK9keymaster22FinishOperationRequest9SerializeEPhPKh
_ZNK9keymaster22UpdateOperationRequest14SerializedSizeEv
_ZNK9keymaster22UpdateOperationRequest9SerializeEPhPKh
_ZNK9keymaster23FinishOperationResponse17NonErrorSerializeEPhPKh
_ZNK9keymaster23FinishOperationResponse22NonErrorSerializedSizeEv
_ZNK9keymaster23ImportWrappedKeyRequest14SerializedSizeEv
_ZNK9keymaster23ImportWrappedKeyRequest9SerializeEPhPKh
_ZNK9keymaster23UpdateOperationResponse17NonErrorSerializeEPhPKh
_ZNK9keymaster23UpdateOperationResponse22NonErrorSerializedSizeEv
_ZNK9keymaster24ImportWrappedKeyResponse17NonErrorSerializeEPhPKh
_ZNK9keymaster24ImportWrappedKeyResponse22NonErrorSerializedSizeEv
_ZNK9keymaster25ComputeSharedHmacResponse17NonErrorSerializeEPhPKh
_ZNK9keymaster25ComputeSharedHmacResponse22NonErrorSerializedSizeEv
_ZNK9keymaster26HmacSharingParametersArray14SerializedSizeEv
_ZNK9keymaster26HmacSharingParametersArray9SerializeEPhPKh
_ZNK9keymaster28GetKeyCharacteristicsRequest14SerializedSizeEv
_ZNK9keymaster28GetKeyCharacteristicsRequest9SerializeEPhPKh
_ZNK9keymaster29GetKeyCharacteristicsResponse17NonErrorSerializeEPhPKh
_ZNK9keymaster29GetKeyCharacteristicsResponse22NonErrorSerializedSizeEv
_ZNK9keymaster6Buffer14SerializedSizeEv
_ZNK9keymaster6Buffer14available_readEv
_ZNK9keymaster6Buffer15available_writeEv
_ZNK9keymaster6Buffer9SerializeEPhPKh
_ZTVN9keymaster16AttestKeyRequestE
_ZTVN9keymaster16AuthorizationSetE
_ZTVN9keymaster16DeleteKeyRequestE
_ZTVN9keymaster16ExportKeyRequestE
_ZTVN9keymaster16ImportKeyRequestE
_ZTVN9keymaster17AddEntropyRequestE
_ZTVN9keymaster17AttestKeyResponseE
_ZTVN9keymaster17ExportKeyResponseE
_ZTVN9keymaster17HardwareAuthTokenE
_ZTVN9keymaster17ImportKeyResponseE
_ZTVN9keymaster17KeymasterResponseE
_ZTVN9keymaster17UpgradeKeyRequestE
_ZTVN9keymaster17VerificationTokenE
_ZTVN9keymaster18GetVersionResponseE
_ZTVN9keymaster18UpgradeKeyResponseE
_ZTVN9keymaster19GenerateKeyResponseE
_ZTVN9keymaster21BeginOperationRequestE
_ZTVN9keymaster21HmacSharingParametersE
_ZTVN9keymaster22BeginOperationResponseE
_ZTVN9keymaster22FinishOperationRequestE
_ZTVN9keymaster22UpdateOperationRequestE
_ZTVN9keymaster23FinishOperationResponseE
_ZTVN9keymaster23ImportWrappedKeyRequestE
_ZTVN9keymaster23UpdateOperationResponseE
_ZTVN9keymaster24ImportWrappedKeyResponseE
_ZTVN9keymaster25ComputeSharedHmacResponseE
_ZTVN9keymaster26HmacSharingParametersArrayE
_ZTVN9keymaster28GetKeyCharacteristicsRequestE
_ZTVN9keymaster29GetKeyCharacteristicsResponseE
_ZTVN9keymaster6BufferE
