_ZN4vixl10CodeBuffer10EmitStringEPKc
_ZN4vixl10CodeBuffer10UpdateDataEmPKvm
_ZN4vixl10CodeBuffer15EmitZeroedBytesEi
_ZN4vixl10CodeBuffer4GrowEm
_ZN4vixl10CodeBuffer5AlignEv
_ZN4vixl10CodeBuffer5ResetEv
_ZN4vixl10CodeBuffer8EmitDataEPKvm
_ZN4vixl10CodeBufferC1EPhm
_ZN4vixl10CodeBufferC1Em
_ZN4vixl10CodeBufferC2EPhm
_ZN4vixl10CodeBufferC2Em
_ZN4vixl10CodeBufferD1Ev
_ZN4vixl10CodeBufferD2Ev
_ZN4vixl10DoublePackEmmm
_ZN4vixl10DoubleSignEd
_ZN4vixl13FloatMantissaEf
_ZN4vixl14DoubleMantissaEd
_ZN4vixl14FloatToRawbitsEf
_ZN4vixl14RawbitsToFloatEj
_ZN4vixl15DoubleToRawbitsEd
_ZN4vixl15Float16ClassifyEt
_ZN4vixl15RawbitsToDoubleEm
_ZN4vixl19CountClearHalfWordsEmj
_ZN4vixl20CountSetBitsFallBackEmi
_ZN4vixl25CountLeadingZerosFallBackEmi
_ZN4vixl26CountTrailingZerosFallBackEmi
_ZN4vixl28CountLeadingSignBitsFallBackEli
_ZN4vixl7aarch6410AreAliasedERKNS0_11CPURegisterES3_S3_S3_S3_S3_S3_S3_
_ZN4vixl7aarch6410CPURegList12IntersectionERKS1_S3_S3_
_ZN4vixl7aarch6410CPURegList12IntersectionERKS1_S3_S3_S3_
_ZN4vixl7aarch6410CPURegList14GetCalleeSavedEj
_ZN4vixl7aarch6410CPURegList14GetCallerSavedEj
_ZN4vixl7aarch6410CPURegList14PopLowestIndexEv
_ZN4vixl7aarch6410CPURegList15GetCalleeSavedVEj
_ZN4vixl7aarch6410CPURegList15GetCallerSavedVEj
_ZN4vixl7aarch6410CPURegList15PopHighestIndexEv
_ZN4vixl7aarch6410CPURegList17RemoveCalleeSavedEv
_ZN4vixl7aarch6410CPURegList5UnionERKS1_S3_S3_
_ZN4vixl7aarch6410CPURegList5UnionERKS1_S3_S3_S3_
_ZN4vixl7aarch6410Instrument10GetCounterEPKc
_ZN4vixl7aarch6410Instrument11VisitSystemEPKNS0_11InstructionE
_ZN4vixl7aarch6410Instrument12DumpCountersEv
_ZN4vixl7aarch6410Instrument12VisitExtractEPKNS0_11InstructionE
_ZN4vixl7aarch6410Instrument13VisitBitfieldEPKNS0_11InstructionE
_ZN4vixl7aarch6410Instrument13VisitNEONCopyEPKNS0_11InstructionE
_ZN4vixl7aarch6410Instrument13VisitNEONPermEPKNS0_11InstructionE
_ZN4vixl7aarch6410Instrument14VisitCryptoAESEPKNS0_11InstructionE
_ZN4vixl7aarch6410Instrument14VisitExceptionEPKNS0_11InstructionE
_ZN4vixl7aarch6410Instrument14VisitFPCompareEPKNS0_11InstructionE
_ZN4vixl7aarch6410Instrument14VisitNEON3SameEPKNS0_11InstructionE
_ZN4vixl7aarch6410Instrument14VisitNEONTableEPKNS0_11InstructionE
_ZN4vixl7aarch6410Instrument15DumpEventMarkerEj
_ZN4vixl7aarch6410Instrument15VisitTestBranchEPKNS0_11InstructionE
_ZN4vixl7aarch6410Instrument16DumpCounterNamesEv
_ZN4vixl7aarch6410Instrument16VisitFPImmediateEPKNS0_11InstructionE
_ZN4vixl7aarch6410Instrument16VisitLoadLiteralEPKNS0_11InstructionE
_ZN4vixl7aarch6410Instrument16VisitNEONExtractEPKNS0_11InstructionE
_ZN4vixl7aarch6410Instrument16VisitUnallocatedEPKNS0_11InstructionE
_ZN4vixl7aarch6410Instrument17VisitNEON2RegMiscEPKNS0_11InstructionE
_ZN4vixl7aarch6410Instrument18VisitAddSubShiftedEPKNS0_11InstructionE
_ZN4vixl7aarch6410Instrument18VisitCompareBranchEPKNS0_11InstructionE
_ZN4vixl7aarch6410Instrument18VisitCrypto2RegSHAEPKNS0_11InstructionE
_ZN4vixl7aarch6410Instrument18VisitCrypto3RegSHAEPKNS0_11InstructionE
_ZN4vixl7aarch6410Instrument18VisitUnimplementedEPKNS0_11InstructionE
_ZN4vixl7aarch6410Instrument19InstrumentLoadStoreEPKNS0_11InstructionE
_ZN4vixl7aarch6410Instrument19VisitAddSubExtendedEPKNS0_11InstructionE
_ZN4vixl7aarch6410Instrument19VisitLogicalShiftedEPKNS0_11InstructionE
_ZN4vixl7aarch6410Instrument19VisitNEON3DifferentEPKNS0_11InstructionE
_ZN4vixl7aarch6410Instrument19VisitNEONScalarCopyEPKNS0_11InstructionE
_ZN4vixl7aarch6410Instrument20VisitAddSubImmediateEPKNS0_11InstructionE
_ZN4vixl7aarch6410Instrument20VisitAddSubWithCarryEPKNS0_11InstructionE
_ZN4vixl7aarch6410Instrument20VisitNEONAcrossLanesEPKNS0_11InstructionE
_ZN4vixl7aarch6410Instrument20VisitNEONScalar3DiffEPKNS0_11InstructionE
_ZN4vixl7aarch6410Instrument20VisitNEONScalar3SameEPKNS0_11InstructionE
_ZN4vixl7aarch6410Instrument20VisitPCRelAddressingEPKNS0_11InstructionE
_ZN4vixl7aarch6410Instrument21VisitFPIntegerConvertEPKNS0_11InstructionE
_ZN4vixl7aarch6410Instrument21VisitLogicalImmediateEPKNS0_11InstructionE
_ZN4vixl7aarch6410Instrument22VisitConditionalBranchEPKNS0_11InstructionE
_ZN4vixl7aarch6410Instrument22VisitConditionalSelectEPKNS0_11InstructionE
_ZN4vixl7aarch6410Instrument22VisitLoadStorePreIndexEPKNS0_11InstructionE
_ZN4vixl7aarch6410Instrument22VisitMoveWideImmediateEPKNS0_11InstructionE
_ZN4vixl7aarch6410Instrument23InstrumentLoadStorePairEPKNS0_11InstructionE
_ZN4vixl7aarch6410Instrument23VisitLoadStoreExclusiveEPKNS0_11InstructionE
_ZN4vixl7aarch6410Instrument23VisitLoadStorePostIndexEPKNS0_11InstructionE
_ZN4vixl7aarch6410Instrument23VisitNEONScalar2RegMiscEPKNS0_11InstructionE
_ZN4vixl7aarch6410Instrument23VisitNEONScalarPairwiseEPKNS0_11InstructionE
_ZN4vixl7aarch6410Instrument23VisitNEONShiftImmediateEPKNS0_11InstructionE
_ZN4vixl7aarch6410Instrument24VisitFPConditionalSelectEPKNS0_11InstructionE
_ZN4vixl7aarch6410Instrument24VisitFPFixedPointConvertEPKNS0_11InstructionE
_ZN4vixl7aarch6410Instrument24VisitLoadStorePairOffsetEPKNS0_11InstructionE
_ZN4vixl7aarch6410Instrument24VisitUnconditionalBranchEPKNS0_11InstructionE
_ZN4vixl7aarch6410Instrument25VisitFPConditionalCompareEPKNS0_11InstructionE
_ZN4vixl7aarch6410Instrument25VisitNEONByIndexedElementEPKNS0_11InstructionE
_ZN4vixl7aarch6410Instrument26HandleInstrumentationEventEj
_ZN4vixl7aarch6410Instrument26VisitDataProcessing1SourceEPKNS0_11InstructionE
_ZN4vixl7aarch6410Instrument26VisitDataProcessing2SourceEPKNS0_11InstructionE
_ZN4vixl7aarch6410Instrument26VisitDataProcessing3SourceEPKNS0_11InstructionE
_ZN4vixl7aarch6410Instrument26VisitLoadStorePairPreIndexEPKNS0_11InstructionE
_ZN4vixl7aarch6410Instrument26VisitNEONModifiedImmediateEPKNS0_11InstructionE
_ZN4vixl7aarch6410Instrument27VisitLoadStorePairPostIndexEPKNS0_11InstructionE
_ZN4vixl7aarch6410Instrument28VisitFPDataProcessing1SourceEPKNS0_11InstructionE
_ZN4vixl7aarch6410Instrument28VisitFPDataProcessing2SourceEPKNS0_11InstructionE
_ZN4vixl7aarch6410Instrument28VisitFPDataProcessing3SourceEPKNS0_11InstructionE
_ZN4vixl7aarch6410Instrument28VisitLoadStoreRegisterOffsetEPKNS0_11InstructionE
_ZN4vixl7aarch6410Instrument28VisitLoadStoreUnscaledOffsetEPKNS0_11InstructionE
_ZN4vixl7aarch6410Instrument28VisitLoadStoreUnsignedOffsetEPKNS0_11InstructionE
_ZN4vixl7aarch6410Instrument29VisitLoadStorePairNonTemporalEPKNS0_11InstructionE
_ZN4vixl7aarch6410Instrument29VisitNEONLoadStoreMultiStructEPKNS0_11InstructionE
_ZN4vixl7aarch6410Instrument29VisitNEONScalarShiftImmediateEPKNS0_11InstructionE
_ZN4vixl7aarch6410Instrument30VisitNEONLoadStoreSingleStructEPKNS0_11InstructionE
_ZN4vixl7aarch6410Instrument31VisitConditionalCompareRegisterEPKNS0_11InstructionE
_ZN4vixl7aarch6410Instrument31VisitNEONScalarByIndexedElementEPKNS0_11InstructionE
_ZN4vixl7aarch6410Instrument32VisitConditionalCompareImmediateEPKNS0_11InstructionE
_ZN4vixl7aarch6410Instrument34VisitUnconditionalBranchToRegisterEPKNS0_11InstructionE
_ZN4vixl7aarch6410Instrument38VisitNEONLoadStoreMultiStructPostIndexEPKNS0_11InstructionE
_ZN4vixl7aarch6410Instrument39VisitNEONLoadStoreSingleStructPostIndexEPKNS0_11InstructionE
_ZN4vixl7aarch6410Instrument6EnableEv
_ZN4vixl7aarch6410Instrument6UpdateEv
_ZN4vixl7aarch6410Instrument7DisableEv
_ZN4vixl7aarch6410InstrumentC1EPKcm
_ZN4vixl7aarch6410InstrumentC2EPKcm
_ZN4vixl7aarch6410InstrumentD0Ev
_ZN4vixl7aarch6410InstrumentD1Ev
_ZN4vixl7aarch6410InstrumentD2Ev
_ZN4vixl7aarch6410MemOperand9AddOffsetEl
_ZN4vixl7aarch6410MemOperandC1ENS0_8RegisterERKNS0_7OperandENS0_8AddrModeE
_ZN4vixl7aarch6410MemOperandC1ENS0_8RegisterES2_NS0_5ShiftEj
_ZN4vixl7aarch6410MemOperandC1ENS0_8RegisterES2_NS0_6ExtendEj
_ZN4vixl7aarch6410MemOperandC1ENS0_8RegisterElNS0_8AddrModeE
_ZN4vixl7aarch6410MemOperandC1Ev
_ZN4vixl7aarch6410MemOperandC2ENS0_8RegisterERKNS0_7OperandENS0_8AddrModeE
_ZN4vixl7aarch6410MemOperandC2ENS0_8RegisterES2_NS0_5ShiftEj
_ZN4vixl7aarch6410MemOperandC2ENS0_8RegisterES2_NS0_6ExtendEj
_ZN4vixl7aarch6410MemOperandC2ENS0_8RegisterElNS0_8AddrModeE
_ZN4vixl7aarch6410MemOperandC2Ev
_ZN4vixl7aarch6410RawLiteralC1EmPNS0_11LiteralPoolENS1_14DeletionPolicyE
_ZN4vixl7aarch6410RawLiteralC2EmPNS0_11LiteralPoolENS1_14DeletionPolicyE
_ZN4vixl7aarch6410VeneerPool12CheckEmitForEmNS0_4Pool10EmitOptionE
_ZN4vixl7aarch6410VeneerPool16ShouldEmitVeneerElm
_ZN4vixl7aarch6410VeneerPool24RegisterUnresolvedBranchElPNS0_5LabelENS0_13ImmBranchTypeE
_ZN4vixl7aarch6410VeneerPool34DeleteUnresolvedBranchInfoForLabelEPNS0_5LabelE
_ZN4vixl7aarch6410VeneerPool4EmitENS0_4Pool10EmitOptionEm
_ZN4vixl7aarch6410VeneerPool5ResetEv
_ZN4vixl7aarch6410VeneerPool7ReleaseEv
_ZN4vixl7aarch6411FormatToken8TokenizeEPKc
_ZN4vixl7aarch6411HelpCommand10kArgumentsE
_ZN4vixl7aarch6411HelpCommand3RunEPNS0_8DebuggerE
_ZN4vixl7aarch6411HelpCommand5BuildENSt3__16vectorIPNS0_5TokenENS2_9allocatorIS5_EEEE
_ZN4vixl7aarch6411HelpCommand5kHelpE
_ZN4vixl7aarch6411HelpCommand8kAliasesE
_ZN4vixl7aarch6411Instruction10Imm8ToFP32Ej
_ZN4vixl7aarch6411Instruction10Imm8ToFP64Ej
_ZN4vixl7aarch6411Instruction14SetImmLLiteralEPKS1_
_ZN4vixl7aarch6411Instruction17SetPCRelImmTargetEPKS1_
_ZN4vixl7aarch6411Instruction18IsValidImmPCOffsetENS0_13ImmBranchTypeEl
_ZN4vixl7aarch6411Instruction18SetBranchImmTargetEPKS1_
_ZN4vixl7aarch6411Instruction20SetImmPCOffsetTargetEPKS1_
_ZN4vixl7aarch6411Instruction24GetImmBranchForwardRangeENS0_13ImmBranchTypeE
_ZN4vixl7aarch6411Instruction25GetImmBranchRangeBitwidthENS0_13ImmBranchTypeE
_ZN4vixl7aarch6411LiteralPool12CheckEmitForEmNS0_4Pool10EmitOptionE
_ZN4vixl7aarch6411LiteralPool14UpdateFirstUseEl
_ZN4vixl7aarch6411LiteralPool18CheckEmitForBranchEm
_ZN4vixl7aarch6411LiteralPool4EmitENS0_4Pool10EmitOptionE
_ZN4vixl7aarch6411LiteralPool5ResetEv
_ZN4vixl7aarch6411LiteralPool8AddEntryEPNS0_10RawLiteralE
_ZN4vixl7aarch6411LiteralPoolC1EPNS0_14MacroAssemblerE
_ZN4vixl7aarch6411LiteralPoolC2EPNS0_14MacroAssemblerE
_ZN4vixl7aarch6411LiteralPoolD1Ev
_ZN4vixl7aarch6411LiteralPoolD2Ev
_ZN4vixl7aarch6411SkipCommand10kArgumentsE
_ZN4vixl7aarch6411SkipCommand3RunEPNS0_8DebuggerE
_ZN4vixl7aarch6411SkipCommand5BuildENSt3__16vectorIPNS0_5TokenENS2_9allocatorIS5_EEEE
_ZN4vixl7aarch6411SkipCommand5PrintEP7__sFILE
_ZN4vixl7aarch6411SkipCommand5kHelpE
_ZN4vixl7aarch6411SkipCommand8kAliasesE
_ZN4vixl7aarch6411StepCommand10kArgumentsE
_ZN4vixl7aarch6411StepCommand3RunEPNS0_8DebuggerE
_ZN4vixl7aarch6411StepCommand5BuildENSt3__16vectorIPNS0_5TokenENS2_9allocatorIS5_EEEE
_ZN4vixl7aarch6411StepCommand5PrintEP7__sFILE
_ZN4vixl7aarch6411StepCommand5kHelpE
_ZN4vixl7aarch6411StepCommand8kAliasesE
_ZN4vixl7aarch6412AddressToken8TokenizeEPKc
_ZN4vixl7aarch6412DebugCommand5MatchEPKcPS3_
_ZN4vixl7aarch6412DebugCommand5ParseEPc
_ZN4vixl7aarch6412DebugCommand5PrintEP7__sFILE
_ZN4vixl7aarch6412DebugCommand9PrintHelpEPPKcS3_S3_
_ZN4vixl7aarch6412Disassembler10SubstituteEPKNS0_11InstructionEPKc
_ZN4vixl7aarch6412Disassembler11ResetOutputEv
_ZN4vixl7aarch6412Disassembler11VisitSystemEPKNS0_11InstructionE
_ZN4vixl7aarch6412Disassembler12VisitExtractEPKNS0_11InstructionE
_ZN4vixl7aarch6412Disassembler13IsMovzMovnImmEjm
_ZN4vixl7aarch6412Disassembler13ProcessOutputEPKNS0_11InstructionE
_ZN4vixl7aarch6412Disassembler13VisitBitfieldEPKNS0_11InstructionE
_ZN4vixl7aarch6412Disassembler13VisitNEONCopyEPKNS0_11InstructionE
_ZN4vixl7aarch6412Disassembler13VisitNEONPermEPKNS0_11InstructionE
_ZN4vixl7aarch6412Disassembler14AppendToOutputEPKcz
_ZN4vixl7aarch6412Disassembler14MapCodeAddressElPKNS0_11InstructionE
_ZN4vixl7aarch6412Disassembler14VisitCryptoAESEPKNS0_11InstructionE
_ZN4vixl7aarch6412Disassembler14VisitExceptionEPKNS0_11InstructionE
_ZN4vixl7aarch6412Disassembler14VisitFPCompareEPKNS0_11InstructionE
_ZN4vixl7aarch6412Disassembler14VisitNEON3SameEPKNS0_11InstructionE
_ZN4vixl7aarch6412Disassembler14VisitNEONTableEPKNS0_11InstructionE
_ZN4vixl7aarch6412Disassembler15SubstituteFieldEPKNS0_11InstructionEPKc
_ZN4vixl7aarch6412Disassembler15VisitTestBranchEPKNS0_11InstructionE
_ZN4vixl7aarch6412Disassembler16VisitFPImmediateEPKNS0_11InstructionE
_ZN4vixl7aarch6412Disassembler16VisitLoadLiteralEPKNS0_11InstructionE
_ZN4vixl7aarch6412Disassembler16VisitNEONExtractEPKNS0_11InstructionE
_ZN4vixl7aarch6412Disassembler16VisitUnallocatedEPKNS0_11InstructionE
_ZN4vixl7aarch6412Disassembler17SubstituteCrFieldEPKNS0_11InstructionEPKc
_ZN4vixl7aarch6412Disassembler17VisitNEON2RegMiscEPKNS0_11InstructionE
_ZN4vixl7aarch6412Disassembler18VisitAddSubShiftedEPKNS0_11InstructionE
_ZN4vixl7aarch6412Disassembler18VisitCompareBranchEPKNS0_11InstructionE
_ZN4vixl7aarch6412Disassembler18VisitCrypto2RegSHAEPKNS0_11InstructionE
_ZN4vixl7aarch6412Disassembler18VisitCrypto3RegSHAEPKNS0_11InstructionE
_ZN4vixl7aarch6412Disassembler18VisitUnimplementedEPKNS0_11InstructionE
_ZN4vixl7aarch6412Disassembler19CodeRelativeAddressEPKv
_ZN4vixl7aarch6412Disassembler19VisitAddSubExtendedEPKNS0_11InstructionE
_ZN4vixl7aarch6412Disassembler19VisitLogicalShiftedEPKNS0_11InstructionE
_ZN4vixl7aarch6412Disassembler19VisitNEON3DifferentEPKNS0_11InstructionE
_ZN4vixl7aarch6412Disassembler19VisitNEONScalarCopyEPKNS0_11InstructionE
_ZN4vixl7aarch6412Disassembler20SubstituteShiftFieldEPKNS0_11InstructionEPKc
_ZN4vixl7aarch6412Disassembler20SubstituteSysOpFieldEPKNS0_11InstructionEPKc
_ZN4vixl7aarch6412Disassembler20VisitAddSubImmediateEPKNS0_11InstructionE
_ZN4vixl7aarch6412Disassembler20VisitAddSubWithCarryEPKNS0_11InstructionE
_ZN4vixl7aarch6412Disassembler20VisitNEONAcrossLanesEPKNS0_11InstructionE
_ZN4vixl7aarch6412Disassembler20VisitNEONScalar3DiffEPKNS0_11InstructionE
_ZN4vixl7aarch6412Disassembler20VisitNEONScalar3SameEPKNS0_11InstructionE
_ZN4vixl7aarch6412Disassembler20VisitPCRelAddressingEPKNS0_11InstructionE
_ZN4vixl7aarch6412Disassembler21AppendAddressToOutputEPKNS0_11InstructionEPKv
_ZN4vixl7aarch6412Disassembler21SubstituteExtendFieldEPKNS0_11InstructionEPKc
_ZN4vixl7aarch6412Disassembler21VisitFPIntegerConvertEPKNS0_11InstructionE
_ZN4vixl7aarch6412Disassembler21VisitLogicalImmediateEPKNS0_11InstructionE
_ZN4vixl7aarch6412Disassembler22SubstituteBarrierFieldEPKNS0_11InstructionEPKc
_ZN4vixl7aarch6412Disassembler22SubstituteLiteralFieldEPKNS0_11InstructionEPKc
_ZN4vixl7aarch6412Disassembler22VisitConditionalBranchEPKNS0_11InstructionE
_ZN4vixl7aarch6412Disassembler22VisitConditionalSelectEPKNS0_11InstructionE
_ZN4vixl7aarch6412Disassembler22VisitLoadStorePreIndexEPKNS0_11InstructionE
_ZN4vixl7aarch6412Disassembler22VisitMoveWideImmediateEPKNS0_11InstructionE
_ZN4vixl7aarch6412Disassembler23SubstitutePrefetchFieldEPKNS0_11InstructionEPKc
_ZN4vixl7aarch6412Disassembler23SubstituteRegisterFieldEPKNS0_11InstructionEPKc
_ZN4vixl7aarch6412Disassembler23VisitLoadStoreExclusiveEPKNS0_11InstructionE
_ZN4vixl7aarch6412Disassembler23VisitLoadStorePostIndexEPKNS0_11InstructionE
_ZN4vixl7aarch6412Disassembler23VisitNEONScalar2RegMiscEPKNS0_11InstructionE
_ZN4vixl7aarch6412Disassembler23VisitNEONScalarPairwiseEPKNS0_11InstructionE
_ZN4vixl7aarch6412Disassembler23VisitNEONShiftImmediateEPKNS0_11InstructionE
_ZN4vixl7aarch6412Disassembler24SubstituteConditionFieldEPKNS0_11InstructionEPKc
_ZN4vixl7aarch6412Disassembler24SubstituteImmediateFieldEPKNS0_11InstructionEPKc
_ZN4vixl7aarch6412Disassembler24VisitFPConditionalSelectEPKNS0_11InstructionE
_ZN4vixl7aarch6412Disassembler24VisitFPFixedPointConvertEPKNS0_11InstructionE
_ZN4vixl7aarch6412Disassembler24VisitLoadStorePairOffsetEPKNS0_11InstructionE
_ZN4vixl7aarch6412Disassembler24VisitUnconditionalBranchEPKNS0_11InstructionE
_ZN4vixl7aarch6412Disassembler25AppendCodeAddressToOutputEPKNS0_11InstructionEPKv
_ZN4vixl7aarch6412Disassembler25AppendDataAddressToOutputEPKNS0_11InstructionEPKv
_ZN4vixl7aarch6412Disassembler25VisitFPConditionalCompareEPKNS0_11InstructionE
_ZN4vixl7aarch6412Disassembler25VisitNEONByIndexedElementEPKNS0_11InstructionE
_ZN4vixl7aarch6412Disassembler26AppendRegisterNameToOutputEPKNS0_11InstructionERKNS0_11CPURegisterE
_ZN4vixl7aarch6412Disassembler26SubstituteLSRegOffsetFieldEPKNS0_11InstructionEPKc
_ZN4vixl7aarch6412Disassembler26VisitDataProcessing1SourceEPKNS0_11InstructionE
_ZN4vixl7aarch6412Disassembler26VisitDataProcessing2SourceEPKNS0_11InstructionE
_ZN4vixl7aarch6412Disassembler26VisitDataProcessing3SourceEPKNS0_11InstructionE
_ZN4vixl7aarch6412Disassembler26VisitLoadStorePairPreIndexEPKNS0_11InstructionE
_ZN4vixl7aarch6412Disassembler26VisitNEONModifiedImmediateEPKNS0_11InstructionE
_ZN4vixl7aarch6412Disassembler27SubstituteBranchTargetFieldEPKNS0_11InstructionEPKc
_ZN4vixl7aarch6412Disassembler27SubstitutePCRelAddressFieldEPKNS0_11InstructionEPKc
_ZN4vixl7aarch6412Disassembler27VisitLoadStorePairPostIndexEPKNS0_11InstructionE
_ZN4vixl7aarch6412Disassembler28VisitFPDataProcessing1SourceEPKNS0_11InstructionE
_ZN4vixl7aarch6412Disassembler28VisitFPDataProcessing2SourceEPKNS0_11InstructionE
_ZN4vixl7aarch6412Disassembler28VisitFPDataProcessing3SourceEPKNS0_11InstructionE
_ZN4vixl7aarch6412Disassembler28VisitLoadStoreRegisterOffsetEPKNS0_11InstructionE
_ZN4vixl7aarch6412Disassembler28VisitLoadStoreUnscaledOffsetEPKNS0_11InstructionE
_ZN4vixl7aarch6412Disassembler28VisitLoadStoreUnsignedOffsetEPKNS0_11InstructionE
_ZN4vixl7aarch6412Disassembler29VisitLoadStorePairNonTemporalEPKNS0_11InstructionE
_ZN4vixl7aarch6412Disassembler29VisitNEONLoadStoreMultiStructEPKNS0_11InstructionE
_ZN4vixl7aarch6412Disassembler29VisitNEONScalarShiftImmediateEPKNS0_11InstructionE
_ZN4vixl7aarch6412Disassembler30AppendPCRelativeOffsetToOutputEPKNS0_11InstructionEl
_ZN4vixl7aarch6412Disassembler30VisitNEONLoadStoreSingleStructEPKNS0_11InstructionE
_ZN4vixl7aarch6412Disassembler31VisitConditionalCompareRegisterEPKNS0_11InstructionE
_ZN4vixl7aarch6412Disassembler31VisitNEONScalarByIndexedElementEPKNS0_11InstructionE
_ZN4vixl7aarch6412Disassembler32SubstituteBitfieldImmediateFieldEPKNS0_11InstructionEPKc
_ZN4vixl7aarch6412Disassembler32VisitConditionalCompareImmediateEPKNS0_11InstructionE
_ZN4vixl7aarch6412Disassembler33AppendCodeRelativeAddressToOutputEPKNS0_11InstructionEPKv
_ZN4vixl7aarch6412Disassembler34VisitUnconditionalBranchToRegisterEPKNS0_11InstructionE
_ZN4vixl7aarch6412Disassembler37AppendCodeRelativeCodeAddressToOutputEPKNS0_11InstructionEPKv
_ZN4vixl7aarch6412Disassembler37AppendCodeRelativeDataAddressToOutputEPKNS0_11InstructionEPKv
_ZN4vixl7aarch6412Disassembler38VisitNEONLoadStoreMultiStructPostIndexEPKNS0_11InstructionE
_ZN4vixl7aarch6412Disassembler39VisitNEONLoadStoreSingleStructPostIndexEPKNS0_11InstructionE
_ZN4vixl7aarch6412Disassembler6FormatEPKNS0_11InstructionEPKcS6_
_ZN4vixl7aarch6412Disassembler9GetOutputEv
_ZN4vixl7aarch6412DisassemblerC1EPci
_ZN4vixl7aarch6412DisassemblerC1Ev
_ZN4vixl7aarch6412DisassemblerC2EPci
_ZN4vixl7aarch6412DisassemblerC2Ev
_ZN4vixl7aarch6412DisassemblerD0Ev
_ZN4vixl7aarch6412DisassemblerD1Ev
_ZN4vixl7aarch6412DisassemblerD2Ev
_ZN4vixl7aarch6412IntegerToken8TokenizeEPKc
_ZN4vixl7aarch6412PrintCommand10kArgumentsE
_ZN4vixl7aarch6412PrintCommand3RunEPNS0_8DebuggerE
_ZN4vixl7aarch6412PrintCommand5BuildENSt3__16vectorIPNS0_5TokenENS2_9allocatorIS5_EEEE
_ZN4vixl7aarch6412PrintCommand5PrintEP7__sFILE
_ZN4vixl7aarch6412PrintCommand5kHelpE
_ZN4vixl7aarch6412PrintCommand8kAliasesE
_ZN4vixl7aarch6412kCalleeSavedE
_ZN4vixl7aarch6412kCallerSavedE
_ZN4vixl7aarch6413AreSameFormatERKNS0_9VRegisterES3_S3_S3_
_ZN4vixl7aarch6413DisasmCommand10kArgumentsE
_ZN4vixl7aarch6413DisasmCommand5BuildENSt3__16vectorIPNS0_5TokenENS2_9allocatorIS5_EEEE
_ZN4vixl7aarch6413DisasmCommand5kHelpE
_ZN4vixl7aarch6413DisasmCommand8kAliasesE
_ZN4vixl7aarch6413RegisterToken8TokenizeEPKc
_ZN4vixl7aarch6413RegisterToken9kWAliasesE
_ZN4vixl7aarch6413RegisterToken9kXAliasesE
_ZN4vixl7aarch6413kCalleeSavedVE
_ZN4vixl7aarch6413kCallerSavedVE
_ZN4vixl7aarch6414AreConsecutiveERKNS0_9VRegisterES3_S3_S3_
_ZN4vixl7aarch6414CalcLSDataSizeENS0_11LoadStoreOpE
_ZN4vixl7aarch6414ExamineCommand10kArgumentsE
_ZN4vixl7aarch6414ExamineCommand3RunEPNS0_8DebuggerE
_ZN4vixl7aarch6414ExamineCommand5BuildENSt3__16vectorIPNS0_5TokenENS2_9allocatorIS5_EEEE
_ZN4vixl7aarch6414ExamineCommand5PrintEP7__sFILE
_ZN4vixl7aarch6414ExamineCommand5kHelpE
_ZN4vixl7aarch6414ExamineCommand8kAliasesE
_ZN4vixl7aarch6414GenericOperandC1ERKNS0_10MemOperandEm
_ZN4vixl7aarch6414GenericOperandC1ERKNS0_11CPURegisterE
_ZN4vixl7aarch6414GenericOperandC2ERKNS0_10MemOperandEm
_ZN4vixl7aarch6414GenericOperandC2ERKNS0_11CPURegisterE
_ZN4vixl7aarch6414InvalidCommand3RunEPNS0_8DebuggerE
_ZN4vixl7aarch6414InvalidCommandD0Ev
_ZN4vixl7aarch6414InvalidCommandD1Ev
_ZN4vixl7aarch6414InvalidCommandD2Ev
_ZN4vixl7aarch6414IsVectorFormatENS0_12VectorFormatE
_ZN4vixl7aarch6414MacroAssembler10CselHelperEPS1_RKNS0_8RegisterENS0_7OperandES6_NS0_9ConditionEPbS8_
_ZN4vixl7aarch6414MacroAssembler10PushHelperEiiRKNS0_11CPURegisterES4_S4_S4_
_ZN4vixl7aarch6414MacroAssembler11AddSubMacroERKNS0_8RegisterES4_RKNS0_7OperandENS0_11FlagsUpdateENS0_8AddSubOpE
_ZN4vixl7aarch6414MacroAssembler12BindToOffsetEPNS0_5LabelEl
_ZN4vixl7aarch6414MacroAssembler12CheckEmitForEm
_ZN4vixl7aarch6414MacroAssembler12FinalizeCodeENS1_14FinalizeOptionE
_ZN4vixl7aarch6414MacroAssembler12LogicalMacroERKNS0_8RegisterES4_RKNS0_7OperandENS0_9LogicalOpE
_ZN4vixl7aarch6414MacroAssembler13PopCPURegListENS0_10CPURegListE
_ZN4vixl7aarch6414MacroAssembler13PrepareForPopEii
_ZN4vixl7aarch6414MacroAssembler14ComputeAddressERKNS0_8RegisterERKNS0_10MemOperandE
_ZN4vixl7aarch6414MacroAssembler14LoadCPURegListENS0_10CPURegListERKNS0_10MemOperandE
_ZN4vixl7aarch6414MacroAssembler14LoadStoreMacroERKNS0_11CPURegisterERKNS0_10MemOperandENS0_11LoadStoreOpE
_ZN4vixl7aarch6414MacroAssembler14PrepareForPushEii
_ZN4vixl7aarch6414MacroAssembler14PushCPURegListENS0_10CPURegListE
_ZN4vixl7aarch6414MacroAssembler15Movi16bitHelperERKNS0_9VRegisterEm
_ZN4vixl7aarch6414MacroAssembler15Movi32bitHelperERKNS0_9VRegisterEm
_ZN4vixl7aarch6414MacroAssembler15Movi64bitHelperERKNS0_9VRegisterEm
_ZN4vixl7aarch6414MacroAssembler15StoreCPURegListENS0_10CPURegListERKNS0_10MemOperandE
_ZN4vixl7aarch6414MacroAssembler16PrintfNoPreserveEPKcRKNS0_11CPURegisterES6_S6_S6_
_ZN4vixl7aarch6414MacroAssembler17CheckEmitPoolsForEm
_ZN4vixl7aarch6414MacroAssembler17PushMultipleTimesEiNS0_8RegisterE
_ZN4vixl7aarch6414MacroAssembler18LoadStorePairMacroERKNS0_11CPURegisterES4_RKNS0_10MemOperandENS0_15LoadStorePairOpE
_ZN4vixl7aarch6414MacroAssembler19MoveImmediateHelperEPS1_RKNS0_8RegisterEm
_ZN4vixl7aarch6414MacroAssembler1BEPNS0_5LabelE
_ZN4vixl7aarch6414MacroAssembler1BEPNS0_5LabelENS0_10BranchTypeENS0_8RegisterEi
_ZN4vixl7aarch6414MacroAssembler1BEPNS0_5LabelENS0_9ConditionE
_ZN4vixl7aarch6414MacroAssembler20AddSubWithCarryMacroERKNS0_8RegisterES4_RKNS0_7OperandENS0_11FlagsUpdateENS0_17AddSubWithCarryOpE
_ZN4vixl7aarch6414MacroAssembler21EnableInstrumentationEv
_ZN4vixl7aarch6414MacroAssembler22BumpSystemStackPointerERKNS0_7OperandE
_ZN4vixl7aarch6414MacroAssembler22DisableInstrumentationEv
_ZN4vixl7aarch6414MacroAssembler23AnnotateInstrumentationEPKc
_ZN4vixl7aarch6414MacroAssembler23ConditionalCompareMacroERKNS0_8RegisterERKNS0_7OperandENS0_11StatusFlagsENS0_9ConditionENS0_20ConditionalCompareOpE
_ZN4vixl7aarch6414MacroAssembler23PopCalleeSavedRegistersEv
_ZN4vixl7aarch6414MacroAssembler24PushCalleeSavedRegistersEv
_ZN4vixl7aarch6414MacroAssembler24TryOneInstrMoveImmediateERKNS0_8RegisterEl
_ZN4vixl7aarch6414MacroAssembler25LoadStoreCPURegListHelperENS1_25LoadStoreCPURegListActionENS0_10CPURegListERKNS0_10MemOperandE
_ZN4vixl7aarch6414MacroAssembler25MoveImmediateForShiftedOpERKNS0_8RegisterElNS0_15PreShiftImmModeE
_ZN4vixl7aarch6414MacroAssembler26CselSubHelperTwoImmediatesEPS1_RKNS0_8RegisterEllNS0_9ConditionEPbS7_
_ZN4vixl7aarch6414MacroAssembler27OneInstrMoveImmediateHelperEPS1_RKNS0_8RegisterEl
_ZN4vixl7aarch6414MacroAssembler32CselSubHelperRightSmallImmediateEPS1_PNS0_23UseScratchRegisterScopeERKNS0_8RegisterERKNS0_7OperandESA_NS0_9ConditionEPb
_ZN4vixl7aarch6414MacroAssembler33CselSubHelperTwoOrderedImmediatesEPS1_RKNS0_8RegisterEllNS0_9ConditionE
_ZN4vixl7aarch6414MacroAssembler36BaseMemOperandForLoadStoreCPURegListERKNS0_10CPURegListERKNS0_10MemOperandEPNS0_23UseScratchRegisterScopeE
_ZN4vixl7aarch6414MacroAssembler3AdcERKNS0_8RegisterES4_RKNS0_7OperandE
_ZN4vixl7aarch6414MacroAssembler3AddERKNS0_8RegisterES4_RKNS0_7OperandENS0_11FlagsUpdateE
_ZN4vixl7aarch6414MacroAssembler3AndERKNS0_8RegisterES4_RKNS0_7OperandE
_ZN4vixl7aarch6414MacroAssembler3BicERKNS0_8RegisterES4_RKNS0_7OperandE
_ZN4vixl7aarch6414MacroAssembler3CbzERKNS0_8RegisterEPNS0_5LabelE
_ZN4vixl7aarch6414MacroAssembler3CmnERKNS0_8RegisterERKNS0_7OperandE
_ZN4vixl7aarch6414MacroAssembler3CmpERKNS0_8RegisterERKNS0_7OperandE
_ZN4vixl7aarch6414MacroAssembler3EonERKNS0_8RegisterES4_RKNS0_7OperandE
_ZN4vixl7aarch6414MacroAssembler3EorERKNS0_8RegisterES4_RKNS0_7OperandE
_ZN4vixl7aarch6414MacroAssembler3LdpERKNS0_11CPURegisterES4_RKNS0_10MemOperandE
_ZN4vixl7aarch6414MacroAssembler3LdrERKNS0_11CPURegisterERKNS0_10MemOperandE
_ZN4vixl7aarch6414MacroAssembler3LogENS0_15TraceParametersE
_ZN4vixl7aarch6414MacroAssembler3MovERKNS0_8RegisterERKNS0_7OperandENS0_15DiscardMoveModeE
_ZN4vixl7aarch6414MacroAssembler3MovERKNS0_8RegisterEm
_ZN4vixl7aarch6414MacroAssembler3MvnERKNS0_8RegisterERKNS0_7OperandE
_ZN4vixl7aarch6414MacroAssembler3NegERKNS0_8RegisterERKNS0_7OperandE
_ZN4vixl7aarch6414MacroAssembler3NgcERKNS0_8RegisterERKNS0_7OperandE
_ZN4vixl7aarch6414MacroAssembler3OrnERKNS0_8RegisterES4_RKNS0_7OperandE
_ZN4vixl7aarch6414MacroAssembler3OrrERKNS0_8RegisterES4_RKNS0_7OperandE
_ZN4vixl7aarch6414MacroAssembler3PopERKNS0_11CPURegisterES4_S4_S4_
_ZN4vixl7aarch6414MacroAssembler3SbcERKNS0_8RegisterES4_RKNS0_7OperandE
_ZN4vixl7aarch6414MacroAssembler3StpERKNS0_11CPURegisterES4_RKNS0_10MemOperandE
_ZN4vixl7aarch6414MacroAssembler3StrERKNS0_11CPURegisterERKNS0_10MemOperandE
_ZN4vixl7aarch6414MacroAssembler3SubERKNS0_8RegisterES4_RKNS0_7OperandENS0_11FlagsUpdateE
_ZN4vixl7aarch6414MacroAssembler3TbzERKNS0_8RegisterEjPNS0_5LabelE
_ZN4vixl7aarch6414MacroAssembler3TstERKNS0_8RegisterERKNS0_7OperandE
_ZN4vixl7aarch6414MacroAssembler4AdcsERKNS0_8RegisterES4_RKNS0_7OperandE
_ZN4vixl7aarch6414MacroAssembler4AddsERKNS0_8RegisterES4_RKNS0_7OperandE
_ZN4vixl7aarch6414MacroAssembler4AndsERKNS0_8RegisterES4_RKNS0_7OperandE
_ZN4vixl7aarch6414MacroAssembler4BicsERKNS0_8RegisterES4_RKNS0_7OperandE
_ZN4vixl7aarch6414MacroAssembler4BindEPNS0_5LabelE
_ZN4vixl7aarch6414MacroAssembler4CbnzERKNS0_8RegisterEPNS0_5LabelE
_ZN4vixl7aarch6414MacroAssembler4CcmnERKNS0_8RegisterERKNS0_7OperandENS0_11StatusFlagsENS0_9ConditionE
_ZN4vixl7aarch6414MacroAssembler4CcmpERKNS0_8RegisterERKNS0_7OperandENS0_11StatusFlagsENS0_9ConditionE
_ZN4vixl7aarch6414MacroAssembler4DropERKNS0_7OperandE
_ZN4vixl7aarch6414MacroAssembler4FcmpERKNS0_9VRegisterEdNS0_11FPTrapFlagsE
_ZN4vixl7aarch6414MacroAssembler4FmovENS0_9VRegisterEd
_ZN4vixl7aarch6414MacroAssembler4FmovENS0_9VRegisterEf
_ZN4vixl7aarch6414MacroAssembler4LdrbERKNS0_8RegisterERKNS0_10MemOperandE
_ZN4vixl7aarch6414MacroAssembler4LdrhERKNS0_8RegisterERKNS0_10MemOperandE
_ZN4vixl7aarch6414MacroAssembler4MoveERKNS0_14GenericOperandES4_
_ZN4vixl7aarch6414MacroAssembler4MoviERKNS0_9VRegisterEmNS0_5ShiftEi
_ZN4vixl7aarch6414MacroAssembler4MoviERKNS0_9VRegisterEmm
_ZN4vixl7aarch6414MacroAssembler4NegsERKNS0_8RegisterERKNS0_7OperandE
_ZN4vixl7aarch6414MacroAssembler4NgcsERKNS0_8RegisterERKNS0_7OperandE
_ZN4vixl7aarch6414MacroAssembler4PeekERKNS0_8RegisterERKNS0_7OperandE
_ZN4vixl7aarch6414MacroAssembler4PokeERKNS0_8RegisterERKNS0_7OperandE
_ZN4vixl7aarch6414MacroAssembler4PrfmENS0_17PrefetchOperationERKNS0_10MemOperandE
_ZN4vixl7aarch6414MacroAssembler4PushERKNS0_11CPURegisterES4_S4_S4_
_ZN4vixl7aarch6414MacroAssembler4SbcsERKNS0_8RegisterES4_RKNS0_7OperandE
_ZN4vixl7aarch6414MacroAssembler4StrbERKNS0_8RegisterERKNS0_10MemOperandE
_ZN4vixl7aarch6414MacroAssembler4StrhERKNS0_8RegisterERKNS0_10MemOperandE
_ZN4vixl7aarch6414MacroAssembler4SubsERKNS0_8RegisterES4_RKNS0_7OperandE
_ZN4vixl7aarch6414MacroAssembler4TbnzERKNS0_8RegisterEjPNS0_5LabelE
_ZN4vixl7aarch6414MacroAssembler5ClaimERKNS0_7OperandE
_ZN4vixl7aarch6414MacroAssembler5FcmpeERKNS0_9VRegisterEd
_ZN4vixl7aarch6414MacroAssembler5LdpswERKNS0_11CPURegisterES4_RKNS0_10MemOperandE
_ZN4vixl7aarch6414MacroAssembler5LdrsbERKNS0_8RegisterERKNS0_10MemOperandE
_ZN4vixl7aarch6414MacroAssembler5LdrshERKNS0_8RegisterERKNS0_10MemOperandE
_ZN4vixl7aarch6414MacroAssembler5LdrswERKNS0_8RegisterERKNS0_10MemOperandE
_ZN4vixl7aarch6414MacroAssembler5ResetEv
_ZN4vixl7aarch6414MacroAssembler5TraceENS0_15TraceParametersENS0_12TraceCommandE
_ZN4vixl7aarch6414MacroAssembler6PrintfEPKcNS0_11CPURegisterES4_S4_S4_
_ZN4vixl7aarch6414MacroAssembler9PopHelperEiiRKNS0_11CPURegisterES4_S4_S4_
_ZN4vixl7aarch6414MacroAssemblerC1ENS0_29PositionIndependentCodeOptionE
_ZN4vixl7aarch6414MacroAssemblerC1EPhmNS0_29PositionIndependentCodeOptionE
_ZN4vixl7aarch6414MacroAssemblerC1EmNS0_29PositionIndependentCodeOptionE
_ZN4vixl7aarch6414MacroAssemblerC2ENS0_29PositionIndependentCodeOptionE
_ZN4vixl7aarch6414MacroAssemblerC2EPhmNS0_29PositionIndependentCodeOptionE
_ZN4vixl7aarch6414MacroAssemblerC2EmNS0_29PositionIndependentCodeOptionE
_ZN4vixl7aarch6414MacroAssemblerD0Ev
_ZN4vixl7aarch6414MacroAssemblerD1Ev
_ZN4vixl7aarch6414MacroAssemblerD2Ev
_ZN4vixl7aarch6414UnknownCommand3RunEPNS0_8DebuggerE
_ZN4vixl7aarch6414UnknownCommandD0Ev
_ZN4vixl7aarch6414UnknownCommandD1Ev
_ZN4vixl7aarch6414UnknownCommandD2Ev
_ZN4vixl7aarch6415ContinueCommand10kArgumentsE
_ZN4vixl7aarch6415ContinueCommand3RunEPNS0_8DebuggerE
_ZN4vixl7aarch6415ContinueCommand5BuildENSt3__16vectorIPNS0_5TokenENS2_9allocatorIS5_EEEE
_ZN4vixl7aarch6415ContinueCommand5kHelpE
_ZN4vixl7aarch6415ContinueCommand8kAliasesE
_ZN4vixl7aarch6415FPRegisterToken8TokenizeEPKc
_ZN4vixl7aarch6415IdentifierToken8TokenizeEPKc
_ZN4vixl7aarch6415kFP16DefaultNaNE
_ZN4vixl7aarch6415kFP32DefaultNaNE
_ZN4vixl7aarch6415kFP64DefaultNaNE
_ZN4vixl7aarch6416MaxIntFromFormatENS0_12VectorFormatE
_ZN4vixl7aarch6416MinIntFromFormatENS0_12VectorFormatE
_ZN4vixl7aarch6417MaxUintFromFormatENS0_12VectorFormatE
_ZN4vixl7aarch6417PrintDisassembler13ProcessOutputEPKNS0_11InstructionE
_ZN4vixl7aarch6417PrintDisassembler17DisassembleBufferEPKNS0_11InstructionEm
_ZN4vixl7aarch6417SimSystemRegister15DefaultValueForENS0_14SystemRegisterE
_ZN4vixl7aarch6417SimSystemRegister7SetBitsEiij
_ZN4vixl7aarch6417VectorFormatFillQENS0_12VectorFormatE
_ZN4vixl7aarch6418AreSameSizeAndTypeERKNS0_11CPURegisterES3_S3_S3_S3_S3_S3_S3_
_ZN4vixl7aarch6418CalcLSPairDataSizeENS0_15LoadStorePairOpE
_ZN4vixl7aarch6419LaneCountFromFormatENS0_12VectorFormatE
_ZN4vixl7aarch6421VectorFormatHalfLanesENS0_12VectorFormatE
_ZN4vixl7aarch6421VectorFormatHalfWidthENS0_12VectorFormatE
_ZN4vixl7aarch6421kFP16NegativeInfinityE
_ZN4vixl7aarch6421kFP16PositiveInfinityE
_ZN4vixl7aarch6421kFP32NegativeInfinityE
_ZN4vixl7aarch6421kFP32PositiveInfinityE
_ZN4vixl7aarch6421kFP64NegativeInfinityE
_ZN4vixl7aarch6421kFP64PositiveInfinityE
_ZN4vixl7aarch6422MaxLaneCountFromFormatENS0_12VectorFormatE
_ZN4vixl7aarch6422ScalarFormatFromFormatENS0_12VectorFormatE
_ZN4vixl7aarch6423UseScratchRegisterScope10ExcludeAllEv
_ZN4vixl7aarch6423UseScratchRegisterScope13ReleaseByCodeEPNS0_10CPURegListEi
_ZN4vixl7aarch6423UseScratchRegisterScope16ExcludeByRegListEPNS0_10CPURegListEm
_ZN4vixl7aarch6423UseScratchRegisterScope16IncludeByRegListEPNS0_10CPURegListEm
_ZN4vixl7aarch6423UseScratchRegisterScope16ReleaseByRegListEPNS0_10CPURegListEm
_ZN4vixl7aarch6423UseScratchRegisterScope20AcquireNextAvailableEPNS0_10CPURegListE
_ZN4vixl7aarch6423UseScratchRegisterScope21AcquireRegisterOfSizeEi
_ZN4vixl7aarch6423UseScratchRegisterScope22AcquireVRegisterOfSizeEi
_ZN4vixl7aarch6423UseScratchRegisterScope4OpenEPNS0_14MacroAssemblerE
_ZN4vixl7aarch6423UseScratchRegisterScope5CloseEv
_ZN4vixl7aarch6423UseScratchRegisterScope7ExcludeERKNS0_10CPURegListE
_ZN4vixl7aarch6423UseScratchRegisterScope7ExcludeERKNS0_11CPURegisterES4_S4_S4_
_ZN4vixl7aarch6423UseScratchRegisterScope7ExcludeERKNS0_8RegisterES4_S4_S4_
_ZN4vixl7aarch6423UseScratchRegisterScope7ExcludeERKNS0_9VRegisterES4_S4_S4_
_ZN4vixl7aarch6423UseScratchRegisterScope7IncludeERKNS0_10CPURegListE
_ZN4vixl7aarch6423UseScratchRegisterScope7IncludeERKNS0_8RegisterES4_S4_S4_
_ZN4vixl7aarch6423UseScratchRegisterScope7IncludeERKNS0_9VRegisterES4_S4_S4_
_ZN4vixl7aarch6423UseScratchRegisterScope7ReleaseERKNS0_11CPURegisterE
_ZN4vixl7aarch6423VectorFormatDoubleLanesENS0_12VectorFormatE
_ZN4vixl7aarch6423VectorFormatDoubleWidthENS0_12VectorFormatE
_ZN4vixl7aarch6424LaneSizeInBitsFromFormatENS0_12VectorFormatE
_ZN4vixl7aarch6424ScalarFormatFromLaneSizeEi
_ZN4vixl7aarch6425LaneSizeInBytesFromFormatENS0_12VectorFormatE
_ZN4vixl7aarch6428RegisterSizeInBitsFromFormatENS0_12VectorFormatE
_ZN4vixl7aarch6429LaneSizeInBytesLog2FromFormatENS0_12VectorFormatE
_ZN4vixl7aarch6429RegisterSizeInBytesFromFormatENS0_12VectorFormatE
_ZN4vixl7aarch6432VectorFormatHalfWidthDoubleLanesENS0_12VectorFormatE
_ZN4vixl7aarch643CPU12GetCacheTypeEv
_ZN4vixl7aarch643CPU17dcache_line_size_E
_ZN4vixl7aarch643CPU17icache_line_size_E
_ZN4vixl7aarch643CPU25EnsureIAndDCacheCoherencyEPvm
_ZN4vixl7aarch643CPU5SetUpEv
_ZN4vixl7aarch644Pool17SetNextCheckpointEl
_ZN4vixl7aarch644Pool7ReleaseEv
_ZN4vixl7aarch645Token8TokenizeEPKc
_ZN4vixl7aarch647Counter6EnableEv
_ZN4vixl7aarch647Counter7DisableEv
_ZN4vixl7aarch647Counter7GetNameEv
_ZN4vixl7aarch647Counter7GetTypeEv
_ZN4vixl7aarch647Counter8GetCountEv
_ZN4vixl7aarch647Counter9IncrementEv
_ZN4vixl7aarch647Counter9IsEnabledEv
_ZN4vixl7aarch647CounterC1EPKcNS0_11CounterTypeE
_ZN4vixl7aarch647CounterC2EPKcNS0_11CounterTypeE
_ZN4vixl7aarch647Decoder11VisitSystemEPKNS0_11InstructionE
_ZN4vixl7aarch647Decoder12VisitExtractEPKNS0_11InstructionE
_ZN4vixl7aarch647Decoder13AppendVisitorEPNS0_14DecoderVisitorE
_ZN4vixl7aarch647Decoder13DecodeLogicalEPKNS0_11InstructionE
_ZN4vixl7aarch647Decoder13RemoveVisitorEPNS0_14DecoderVisitorE
_ZN4vixl7aarch647Decoder13VisitBitfieldEPKNS0_11InstructionE
_ZN4vixl7aarch647Decoder13VisitNEONCopyEPKNS0_11InstructionE
_ZN4vixl7aarch647Decoder13VisitNEONPermEPKNS0_11InstructionE
_ZN4vixl7aarch647Decoder14PrependVisitorEPNS0_14DecoderVisitorE
_ZN4vixl7aarch647Decoder14VisitCryptoAESEPKNS0_11InstructionE
_ZN4vixl7aarch647Decoder14VisitExceptionEPKNS0_11InstructionE
_ZN4vixl7aarch647Decoder14VisitFPCompareEPKNS0_11InstructionE
_ZN4vixl7aarch647Decoder14VisitNEON3SameEPKNS0_11InstructionE
_ZN4vixl7aarch647Decoder14VisitNEONTableEPKNS0_11InstructionE
_ZN4vixl7aarch647Decoder15DecodeLoadStoreEPKNS0_11InstructionE
_ZN4vixl7aarch647Decoder15VisitTestBranchEPKNS0_11InstructionE
_ZN4vixl7aarch647Decoder16VisitFPImmediateEPKNS0_11InstructionE
_ZN4vixl7aarch647Decoder16VisitLoadLiteralEPKNS0_11InstructionE
_ZN4vixl7aarch647Decoder16VisitNEONExtractEPKNS0_11InstructionE
_ZN4vixl7aarch647Decoder16VisitUnallocatedEPKNS0_11InstructionE
_ZN4vixl7aarch647Decoder17DecodeInstructionEPKNS0_11InstructionE
_ZN4vixl7aarch647Decoder17VisitNEON2RegMiscEPKNS0_11InstructionE
_ZN4vixl7aarch647Decoder18InsertVisitorAfterEPNS0_14DecoderVisitorES3_
_ZN4vixl7aarch647Decoder18VisitAddSubShiftedEPKNS0_11InstructionE
_ZN4vixl7aarch647Decoder18VisitCompareBranchEPKNS0_11InstructionE
_ZN4vixl7aarch647Decoder18VisitCrypto2RegSHAEPKNS0_11InstructionE
_ZN4vixl7aarch647Decoder18VisitCrypto3RegSHAEPKNS0_11InstructionE
_ZN4vixl7aarch647Decoder18VisitUnimplementedEPKNS0_11InstructionE
_ZN4vixl7aarch647Decoder19DecodeNEONLoadStoreEPKNS0_11InstructionE
_ZN4vixl7aarch647Decoder19InsertVisitorBeforeEPNS0_14DecoderVisitorES3_
_ZN4vixl7aarch647Decoder19VisitAddSubExtendedEPKNS0_11InstructionE
_ZN4vixl7aarch647Decoder19VisitLogicalShiftedEPKNS0_11InstructionE
_ZN4vixl7aarch647Decoder19VisitNEON3DifferentEPKNS0_11InstructionE
_ZN4vixl7aarch647Decoder19VisitNEONScalarCopyEPKNS0_11InstructionE
_ZN4vixl7aarch647Decoder20DecodeDataProcessingEPKNS0_11InstructionE
_ZN4vixl7aarch647Decoder20VisitAddSubImmediateEPKNS0_11InstructionE
_ZN4vixl7aarch647Decoder20VisitAddSubWithCarryEPKNS0_11InstructionE
_ZN4vixl7aarch647Decoder20VisitNEONAcrossLanesEPKNS0_11InstructionE
_ZN4vixl7aarch647Decoder20VisitNEONScalar3DiffEPKNS0_11InstructionE
_ZN4vixl7aarch647Decoder20VisitNEONScalar3SameEPKNS0_11InstructionE
_ZN4vixl7aarch647Decoder20VisitPCRelAddressingEPKNS0_11InstructionE
_ZN4vixl7aarch647Decoder21DecodeAddSubImmediateEPKNS0_11InstructionE
_ZN4vixl7aarch647Decoder21DecodeBitfieldExtractEPKNS0_11InstructionE
_ZN4vixl7aarch647Decoder21DecodePCRelAddressingEPKNS0_11InstructionE
_ZN4vixl7aarch647Decoder21VisitFPIntegerConvertEPKNS0_11InstructionE
_ZN4vixl7aarch647Decoder21VisitLogicalImmediateEPKNS0_11InstructionE
_ZN4vixl7aarch647Decoder22VisitConditionalBranchEPKNS0_11InstructionE
_ZN4vixl7aarch647Decoder22VisitConditionalSelectEPKNS0_11InstructionE
_ZN4vixl7aarch647Decoder22VisitLoadStorePreIndexEPKNS0_11InstructionE
_ZN4vixl7aarch647Decoder22VisitMoveWideImmediateEPKNS0_11InstructionE
_ZN4vixl7aarch647Decoder23VisitLoadStoreExclusiveEPKNS0_11InstructionE
_ZN4vixl7aarch647Decoder23VisitLoadStorePostIndexEPKNS0_11InstructionE
_ZN4vixl7aarch647Decoder23VisitNEONScalar2RegMiscEPKNS0_11InstructionE
_ZN4vixl7aarch647Decoder23VisitNEONScalarPairwiseEPKNS0_11InstructionE
_ZN4vixl7aarch647Decoder23VisitNEONShiftImmediateEPKNS0_11InstructionE
_ZN4vixl7aarch647Decoder24VisitFPConditionalSelectEPKNS0_11InstructionE
_ZN4vixl7aarch647Decoder24VisitFPFixedPointConvertEPKNS0_11InstructionE
_ZN4vixl7aarch647Decoder24VisitLoadStorePairOffsetEPKNS0_11InstructionE
_ZN4vixl7aarch647Decoder24VisitUnconditionalBranchEPKNS0_11InstructionE
_ZN4vixl7aarch647Decoder25VisitFPConditionalCompareEPKNS0_11InstructionE
_ZN4vixl7aarch647Decoder25VisitNEONByIndexedElementEPKNS0_11InstructionE
_ZN4vixl7aarch647Decoder26VisitDataProcessing1SourceEPKNS0_11InstructionE
_ZN4vixl7aarch647Decoder26VisitDataProcessing2SourceEPKNS0_11InstructionE
_ZN4vixl7aarch647Decoder26VisitDataProcessing3SourceEPKNS0_11InstructionE
_ZN4vixl7aarch647Decoder26VisitLoadStorePairPreIndexEPKNS0_11InstructionE
_ZN4vixl7aarch647Decoder26VisitNEONModifiedImmediateEPKNS0_11InstructionE
_ZN4vixl7aarch647Decoder27DecodeBranchSystemExceptionEPKNS0_11InstructionE
_ZN4vixl7aarch647Decoder27VisitLoadStorePairPostIndexEPKNS0_11InstructionE
_ZN4vixl7aarch647Decoder28VisitFPDataProcessing1SourceEPKNS0_11InstructionE
_ZN4vixl7aarch647Decoder28VisitFPDataProcessing2SourceEPKNS0_11InstructionE
_ZN4vixl7aarch647Decoder28VisitFPDataProcessing3SourceEPKNS0_11InstructionE
_ZN4vixl7aarch647Decoder28VisitLoadStoreRegisterOffsetEPKNS0_11InstructionE
_ZN4vixl7aarch647Decoder28VisitLoadStoreUnscaledOffsetEPKNS0_11InstructionE
_ZN4vixl7aarch647Decoder28VisitLoadStoreUnsignedOffsetEPKNS0_11InstructionE
_ZN4vixl7aarch647Decoder29VisitLoadStorePairNonTemporalEPKNS0_11InstructionE
_ZN4vixl7aarch647Decoder29VisitNEONLoadStoreMultiStructEPKNS0_11InstructionE
_ZN4vixl7aarch647Decoder29VisitNEONScalarShiftImmediateEPKNS0_11InstructionE
_ZN4vixl7aarch647Decoder30DecodeNEONScalarDataProcessingEPKNS0_11InstructionE
_ZN4vixl7aarch647Decoder30DecodeNEONVectorDataProcessingEPKNS0_11InstructionE
_ZN4vixl7aarch647Decoder30VisitNEONLoadStoreSingleStructEPKNS0_11InstructionE
_ZN4vixl7aarch647Decoder31VisitConditionalCompareRegisterEPKNS0_11InstructionE
_ZN4vixl7aarch647Decoder31VisitNEONScalarByIndexedElementEPKNS0_11InstructionE
_ZN4vixl7aarch647Decoder32VisitConditionalCompareImmediateEPKNS0_11InstructionE
_ZN4vixl7aarch647Decoder34VisitUnconditionalBranchToRegisterEPKNS0_11InstructionE
_ZN4vixl7aarch647Decoder38VisitNEONLoadStoreMultiStructPostIndexEPKNS0_11InstructionE
_ZN4vixl7aarch647Decoder39VisitNEONLoadStoreSingleStructPostIndexEPKNS0_11InstructionE
_ZN4vixl7aarch647Decoder8DecodeFPEPKNS0_11InstructionE
_ZN4vixl7aarch647OperandC1ENS0_8RegisterENS0_5ShiftEj
_ZN4vixl7aarch647OperandC1ENS0_8RegisterENS0_6ExtendEj
_ZN4vixl7aarch647OperandC1El
_ZN4vixl7aarch647OperandC2ENS0_8RegisterENS0_5ShiftEj
_ZN4vixl7aarch647OperandC2ENS0_8RegisterENS0_6ExtendEj
_ZN4vixl7aarch647OperandC2El
_ZN4vixl7aarch648Debugger11PrintMemoryEPKhPKNS0_11FormatTokenEl
_ZN4vixl7aarch648Debugger12DoBreakpointEPKNS0_11InstructionE
_ZN4vixl7aarch648Debugger13PrintRegisterERKNS0_8RegisterEPKcPKNS0_11FormatTokenE
_ZN4vixl7aarch648Debugger14VisitExceptionEPKNS0_11InstructionE
_ZN4vixl7aarch648Debugger15PrintFPRegisterERKNS0_9VRegisterEPKNS0_11FormatTokenE
_ZN4vixl7aarch648Debugger15ReadCommandLineEPKcPci
_ZN4vixl7aarch648Debugger16RunDebuggerShellEv
_ZN4vixl7aarch648Debugger17PrintInstructionsEPKvlPKc
_ZN4vixl7aarch648Debugger3RunEv
_ZN4vixl7aarch648DebuggerC1EPNS0_7DecoderEP7__sFILE
_ZN4vixl7aarch648DebuggerC2EPNS0_7DecoderEP7__sFILE
_ZN4vixl7aarch648DebuggerD0Ev
_ZN4vixl7aarch648DebuggerD1Ev
_ZN4vixl7aarch648DebuggerD2Ev
_ZN4vixl7aarch648Register10wregistersE
_ZN4vixl7aarch648Register10xregistersE
_ZN4vixl7aarch648Register15GetWRegFromCodeEj
_ZN4vixl7aarch648Register15GetXRegFromCodeEj
_ZN4vixl7aarch649Assembler10FP32ToImm8Ef
_ZN4vixl7aarch649Assembler10FP64ToImm8Ed
_ZN4vixl7aarch649Assembler10StoreOpForERKNS0_11CPURegisterE
_ZN4vixl7aarch649Assembler11IsImmAddSubEl
_ZN4vixl7aarch649Assembler11IsImmLSPairElj
_ZN4vixl7aarch649Assembler11NEONFP3SameERKNS0_9VRegisterES4_S4_j
_ZN4vixl7aarch649Assembler12BindToOffsetEPNS0_5LabelEl
_ZN4vixl7aarch649Assembler12IsImmLogicalEmjPjS2_S2_
_ZN4vixl7aarch649Assembler12NEON2RegMiscERKNS0_9VRegisterES4_NS0_14NEON2RegMiscOpEi
_ZN4vixl7aarch649Assembler13IsImmLSScaledElj
_ZN4vixl7aarch649Assembler13LoadPairOpForERKNS0_11CPURegisterES4_
_ZN4vixl7aarch649Assembler13LoadStorePairERKNS0_11CPURegisterES4_RKNS0_10MemOperandENS0_15LoadStorePairOpE
_ZN4vixl7aarch649Assembler13NEONByElementERKNS0_9VRegisterES4_S4_iNS0_22NEONByIndexedElementOpE
_ZN4vixl7aarch649Assembler14FPCompareMacroERKNS0_9VRegisterES4_NS0_11FPTrapFlagsE
_ZN4vixl7aarch649Assembler14FPCompareMacroERKNS0_9VRegisterEdNS0_11FPTrapFlagsE
_ZN4vixl7aarch649Assembler14NEONByElementLERKNS0_9VRegisterES4_S4_iNS0_22NEONByIndexedElementOpE
_ZN4vixl7aarch649Assembler14NEONFP2RegMiscERKNS0_9VRegisterES4_NS0_14NEON2RegMiscOpEd
_ZN4vixl7aarch649Assembler14NEONFP2RegMiscERKNS0_9VRegisterES4_j
_ZN4vixl7aarch649Assembler14StorePairOpForERKNS0_11CPURegisterES4_
_ZN4vixl7aarch649Assembler15AddSubWithCarryERKNS0_8RegisterES4_RKNS0_7OperandENS0_11FlagsUpdateENS0_17AddSubWithCarryOpE
_ZN4vixl7aarch649Assembler15EmitExtendShiftERKNS0_8RegisterES4_NS0_6ExtendEj
_ZN4vixl7aarch649Assembler15FPCCompareMacroERKNS0_9VRegisterES4_NS0_11StatusFlagsENS0_9ConditionENS0_11FPTrapFlagsE
_ZN4vixl7aarch649Assembler15IsImmLSUnscaledEl
_ZN4vixl7aarch649Assembler15LoadStoreStructERKNS0_9VRegisterERKNS0_10MemOperandENS0_26NEONLoadStoreMultiStructOpE
_ZN4vixl7aarch649Assembler15NEON3DifferentLERKNS0_9VRegisterES4_S4_NS0_16NEON3DifferentOpE
_ZN4vixl7aarch649Assembler15NEON3DifferentWERKNS0_9VRegisterES4_S4_NS0_16NEON3DifferentOpE
_ZN4vixl7aarch649Assembler15NEONAcrossLanesERKNS0_9VRegisterES4_NS0_17NEONAcrossLanesOpE
_ZN4vixl7aarch649Assembler15NEONFPByElementERKNS0_9VRegisterES4_S4_iNS0_22NEONByIndexedElementOpE
_ZN4vixl7aarch649Assembler16LoadLiteralOpForERKNS0_11CPURegisterE
_ZN4vixl7aarch649Assembler16LogicalImmediateERKNS0_8RegisterES4_jjjNS0_9LogicalOpE
_ZN4vixl7aarch649Assembler16NEON3DifferentHNERKNS0_9VRegisterES4_S4_NS0_16NEON3DifferentOpE
_ZN4vixl7aarch649Assembler16NEONAcrossLanesLERKNS0_9VRegisterES4_NS0_17NEONAcrossLanesOpE
_ZN4vixl7aarch649Assembler17ConditionalSelectERKNS0_8RegisterES4_S4_NS0_9ConditionENS0_19ConditionalSelectOpE
_ZN4vixl7aarch649Assembler18ConditionalCompareERKNS0_8RegisterERKNS0_7OperandENS0_11StatusFlagsENS0_9ConditionENS0_20ConditionalCompareOpE
_ZN4vixl7aarch649Assembler18NEONFPConvertToIntERKNS0_8RegisterERKNS0_9VRegisterEj
_ZN4vixl7aarch649Assembler18NEONFPConvertToIntERKNS0_9VRegisterES4_j
_ZN4vixl7aarch649Assembler18NEONShiftImmediateERKNS0_9VRegisterES4_NS0_20NEONShiftImmediateOpEi
_ZN4vixl7aarch649Assembler19LoadStoreMemOperandERKNS0_10MemOperandEjNS0_22LoadStoreScalingOptionE
_ZN4vixl7aarch649Assembler19NEONShiftImmediateLERKNS0_9VRegisterES4_iNS0_20NEONShiftImmediateOpE
_ZN4vixl7aarch649Assembler19NEONShiftImmediateNERKNS0_9VRegisterES4_iNS0_20NEONShiftImmediateOpE
_ZN4vixl7aarch649Assembler1bEPNS0_5LabelE
_ZN4vixl7aarch649Assembler1bEPNS0_5LabelENS0_9ConditionE
_ZN4vixl7aarch649Assembler1bEl
_ZN4vixl7aarch649Assembler1bElNS0_9ConditionE
_ZN4vixl7aarch649Assembler21DataProcessing1SourceERKNS0_8RegisterES4_NS0_23DataProcessing1SourceOpE
_ZN4vixl7aarch649Assembler21DataProcessing3SourceERKNS0_8RegisterES4_S4_S4_NS0_23DataProcessing3SourceOpE
_ZN4vixl7aarch649Assembler21LoadStoreStructSingleERKNS0_9VRegisterEjRKNS0_10MemOperandENS0_27NEONLoadStoreSingleStructOpE
_ZN4vixl7aarch649Assembler21LoadStoreStructVerifyERKNS0_9VRegisterERKNS0_10MemOperandEj
_ZN4vixl7aarch649Assembler22LinkAndGetByteOffsetToEPNS0_5LabelE
_ZN4vixl7aarch649Assembler22LinkAndGetPageOffsetToEPNS0_5LabelE
_ZN4vixl7aarch649Assembler22LinkAndGetWordOffsetToEPNS0_10RawLiteralE
_ZN4vixl7aarch649Assembler22NEONShiftLeftImmediateERKNS0_9VRegisterES4_iNS0_20NEONShiftImmediateOpE
_ZN4vixl7aarch649Assembler23DataProcShiftedRegisterERKNS0_8RegisterES4_RKNS0_7OperandENS0_11FlagsUpdateEj
_ZN4vixl7aarch649Assembler23FPDataProcessing1SourceERKNS0_9VRegisterES4_NS0_25FPDataProcessing1SourceOpE
_ZN4vixl7aarch649Assembler23FPDataProcessing3SourceERKNS0_9VRegisterES4_S4_S4_NS0_25FPDataProcessing3SourceOpE
_ZN4vixl7aarch649Assembler23IsImmConditionalCompareEl
_ZN4vixl7aarch649Assembler23NEONModifiedImmShiftLslERKNS0_9VRegisterEiiNS0_23NEONModifiedImmediateOpE
_ZN4vixl7aarch649Assembler23NEONModifiedImmShiftMslERKNS0_9VRegisterEiiNS0_23NEONModifiedImmediateOpE
_ZN4vixl7aarch649Assembler23NEONShiftRightImmediateERKNS0_9VRegisterES4_iNS0_20NEONShiftImmediateOpE
_ZN4vixl7aarch649Assembler24DataProcExtendedRegisterERKNS0_8RegisterES4_RKNS0_7OperandENS0_11FlagsUpdateEj
_ZN4vixl7aarch649Assembler24LoadPairNonTemporalOpForERKNS0_11CPURegisterES4_
_ZN4vixl7aarch649Assembler24LoadStorePairNonTemporalERKNS0_11CPURegisterES4_RKNS0_10MemOperandENS0_26LoadStorePairNonTemporalOpE
_ZN4vixl7aarch649Assembler25StorePairNonTemporalOpForERKNS0_11CPURegisterES4_
_ZN4vixl7aarch649Assembler28LoadStoreStructAddrModeFieldERKNS0_10MemOperandE
_ZN4vixl7aarch649Assembler29LinkAndGetInstructionOffsetToEPNS0_5LabelE
_ZN4vixl7aarch649Assembler29LoadStoreStructSingleAllLanesERKNS0_9VRegisterERKNS0_10MemOperandENS0_27NEONLoadStoreSingleStructOpE
_ZN4vixl7aarch649Assembler2blEPNS0_5LabelE
_ZN4vixl7aarch649Assembler2blEl
_ZN4vixl7aarch649Assembler2brERKNS0_8RegisterE
_ZN4vixl7aarch649Assembler2dcENS0_11DataCacheOpERKNS0_8RegisterE
_ZN4vixl7aarch649Assembler2icENS0_18InstructionCacheOpERKNS0_8RegisterE
_ZN4vixl7aarch649Assembler3absERKNS0_9VRegisterES4_
_ZN4vixl7aarch649Assembler3adcERKNS0_8RegisterES4_RKNS0_7OperandE
_ZN4vixl7aarch649Assembler3addERKNS0_8RegisterES4_RKNS0_7OperandE
_ZN4vixl7aarch649Assembler3addERKNS0_9VRegisterES4_S4_
_ZN4vixl7aarch649Assembler3adrERKNS0_8RegisterEPNS0_5LabelE
_ZN4vixl7aarch649Assembler3adrERKNS0_8RegisterEl
_ZN4vixl7aarch649Assembler3bfmERKNS0_8RegisterES4_jj
_ZN4vixl7aarch649Assembler3bicERKNS0_8RegisterES4_RKNS0_7OperandE
_ZN4vixl7aarch649Assembler3bicERKNS0_9VRegisterES4_S4_
_ZN4vixl7aarch649Assembler3bicERKNS0_9VRegisterEii
_ZN4vixl7aarch649Assembler3bifERKNS0_9VRegisterES4_S4_
_ZN4vixl7aarch649Assembler3bitERKNS0_9VRegisterES4_S4_
_ZN4vixl7aarch649Assembler3blrERKNS0_8RegisterE
_ZN4vixl7aarch649Assembler3brkEi
_ZN4vixl7aarch649Assembler3bslERKNS0_9VRegisterES4_S4_
_ZN4vixl7aarch649Assembler3cbzERKNS0_8RegisterEPNS0_5LabelE
_ZN4vixl7aarch649Assembler3cbzERKNS0_8RegisterEl
_ZN4vixl7aarch649Assembler3clsERKNS0_8RegisterES4_
_ZN4vixl7aarch649Assembler3clsERKNS0_9VRegisterES4_
_ZN4vixl7aarch649Assembler3clzERKNS0_8RegisterES4_
_ZN4vixl7aarch649Assembler3clzERKNS0_9VRegisterES4_
_ZN4vixl7aarch649Assembler3cmnERKNS0_8RegisterERKNS0_7OperandE
_ZN4vixl7aarch649Assembler3cmpERKNS0_8RegisterERKNS0_7OperandE
_ZN4vixl7aarch649Assembler3cntERKNS0_9VRegisterES4_
_ZN4vixl7aarch649Assembler3dmbENS0_13BarrierDomainENS0_11BarrierTypeE
_ZN4vixl7aarch649Assembler3dsbENS0_13BarrierDomainENS0_11BarrierTypeE
_ZN4vixl7aarch649Assembler3dupERKNS0_9VRegisterERKNS0_8RegisterE
_ZN4vixl7aarch649Assembler3dupERKNS0_9VRegisterES4_i
_ZN4vixl7aarch649Assembler3eonERKNS0_8RegisterES4_RKNS0_7OperandE
_ZN4vixl7aarch649Assembler3eorERKNS0_8RegisterES4_RKNS0_7OperandE
_ZN4vixl7aarch649Assembler3eorERKNS0_9VRegisterES4_S4_
_ZN4vixl7aarch649Assembler3extERKNS0_9VRegisterES4_S4_i
_ZN4vixl7aarch649Assembler3hltEi
_ZN4vixl7aarch649Assembler3insERKNS0_9VRegisterEiRKNS0_8RegisterE
_ZN4vixl7aarch649Assembler3insERKNS0_9VRegisterEiS4_i
_ZN4vixl7aarch649Assembler3isbEv
_ZN4vixl7aarch649Assembler3ld1ERKNS0_9VRegisterERKNS0_10MemOperandE
_ZN4vixl7aarch649Assembler3ld1ERKNS0_9VRegisterES4_RKNS0_10MemOperandE
_ZN4vixl7aarch649Assembler3ld1ERKNS0_9VRegisterES4_S4_RKNS0_10MemOperandE
_ZN4vixl7aarch649Assembler3ld1ERKNS0_9VRegisterES4_S4_S4_RKNS0_10MemOperandE
_ZN4vixl7aarch649Assembler3ld1ERKNS0_9VRegisterEiRKNS0_10MemOperandE
_ZN4vixl7aarch649Assembler3ld2ERKNS0_9VRegisterES4_RKNS0_10MemOperandE
_ZN4vixl7aarch649Assembler3ld2ERKNS0_9VRegisterES4_iRKNS0_10MemOperandE
_ZN4vixl7aarch649Assembler3ld3ERKNS0_9VRegisterES4_S4_RKNS0_10MemOperandE
_ZN4vixl7aarch649Assembler3ld3ERKNS0_9VRegisterES4_S4_iRKNS0_10MemOperandE
_ZN4vixl7aarch649Assembler3ld4ERKNS0_9VRegisterES4_S4_S4_RKNS0_10MemOperandE
_ZN4vixl7aarch649Assembler3ld4ERKNS0_9VRegisterES4_S4_S4_iRKNS0_10MemOperandE
_ZN4vixl7aarch649Assembler3ldpERKNS0_11CPURegisterES4_RKNS0_10MemOperandE
_ZN4vixl7aarch649Assembler3ldrERKNS0_11CPURegisterEPNS0_10RawLiteralE
_ZN4vixl7aarch649Assembler3ldrERKNS0_11CPURegisterERKNS0_10MemOperandENS0_22LoadStoreScalingOptionE
_ZN4vixl7aarch649Assembler3ldrERKNS0_11CPURegisterEl
_ZN4vixl7aarch649Assembler3mlaERKNS0_9VRegisterES4_S4_
_ZN4vixl7aarch649Assembler3mlaERKNS0_9VRegisterES4_S4_i
_ZN4vixl7aarch649Assembler3mlsERKNS0_9VRegisterES4_S4_
_ZN4vixl7aarch649Assembler3mlsERKNS0_9VRegisterES4_S4_i
_ZN4vixl7aarch649Assembler3movERKNS0_8RegisterERKNS0_9VRegisterEi
_ZN4vixl7aarch649Assembler3movERKNS0_8RegisterES4_
_ZN4vixl7aarch649Assembler3movERKNS0_9VRegisterES4_
_ZN4vixl7aarch649Assembler3movERKNS0_9VRegisterES4_i
_ZN4vixl7aarch649Assembler3movERKNS0_9VRegisterEiRKNS0_8RegisterE
_ZN4vixl7aarch649Assembler3movERKNS0_9VRegisterEiS4_i
_ZN4vixl7aarch649Assembler3mrsERKNS0_8RegisterENS0_14SystemRegisterE
_ZN4vixl7aarch649Assembler3msrENS0_14SystemRegisterERKNS0_8RegisterE
_ZN4vixl7aarch649Assembler3mulERKNS0_8RegisterES4_S4_
_ZN4vixl7aarch649Assembler3mulERKNS0_9VRegisterES4_S4_
_ZN4vixl7aarch649Assembler3mulERKNS0_9VRegisterES4_S4_i
_ZN4vixl7aarch649Assembler3mvnERKNS0_8RegisterERKNS0_7OperandE
_ZN4vixl7aarch649Assembler3mvnERKNS0_9VRegisterES4_
_ZN4vixl7aarch649Assembler3negERKNS0_8RegisterERKNS0_7OperandE
_ZN4vixl7aarch649Assembler3negERKNS0_9VRegisterES4_
_ZN4vixl7aarch649Assembler3ngcERKNS0_8RegisterERKNS0_7OperandE
_ZN4vixl7aarch649Assembler3ornERKNS0_8RegisterES4_RKNS0_7OperandE
_ZN4vixl7aarch649Assembler3ornERKNS0_9VRegisterES4_S4_
_ZN4vixl7aarch649Assembler3orrERKNS0_8RegisterES4_RKNS0_7OperandE
_ZN4vixl7aarch649Assembler3orrERKNS0_9VRegisterES4_S4_
_ZN4vixl7aarch649Assembler3orrERKNS0_9VRegisterEii
_ZN4vixl7aarch649Assembler3retERKNS0_8RegisterE
_ZN4vixl7aarch649Assembler3revERKNS0_8RegisterES4_
_ZN4vixl7aarch649Assembler3sbcERKNS0_8RegisterES4_RKNS0_7OperandE
_ZN4vixl7aarch649Assembler3shlERKNS0_9VRegisterES4_i
_ZN4vixl7aarch649Assembler3sliERKNS0_9VRegisterES4_i
_ZN4vixl7aarch649Assembler3sriERKNS0_9VRegisterES4_i
_ZN4vixl7aarch649Assembler3st1ERKNS0_9VRegisterERKNS0_10MemOperandE
_ZN4vixl7aarch649Assembler3st1ERKNS0_9VRegisterES4_RKNS0_10MemOperandE
_ZN4vixl7aarch649Assembler3st1ERKNS0_9VRegisterES4_S4_RKNS0_10MemOperandE
_ZN4vixl7aarch649Assembler3st1ERKNS0_9VRegisterES4_S4_S4_RKNS0_10MemOperandE
_ZN4vixl7aarch649Assembler3st1ERKNS0_9VRegisterEiRKNS0_10MemOperandE
_ZN4vixl7aarch649Assembler3st2ERKNS0_9VRegisterES4_RKNS0_10MemOperandE
_ZN4vixl7aarch649Assembler3st2ERKNS0_9VRegisterES4_iRKNS0_10MemOperandE
_ZN4vixl7aarch649Assembler3st3ERKNS0_9VRegisterES4_S4_RKNS0_10MemOperandE
_ZN4vixl7aarch649Assembler3st3ERKNS0_9VRegisterES4_S4_iRKNS0_10MemOperandE
_ZN4vixl7aarch649Assembler3st4ERKNS0_9VRegisterES4_S4_S4_RKNS0_10MemOperandE
_ZN4vixl7aarch649Assembler3st4ERKNS0_9VRegisterES4_S4_S4_iRKNS0_10MemOperandE
_ZN4vixl7aarch649Assembler3stpERKNS0_11CPURegisterES4_RKNS0_10MemOperandE
_ZN4vixl7aarch649Assembler3strERKNS0_11CPURegisterERKNS0_10MemOperandENS0_22LoadStoreScalingOptionE
_ZN4vixl7aarch649Assembler3subERKNS0_8RegisterES4_RKNS0_7OperandE
_ZN4vixl7aarch649Assembler3subERKNS0_9VRegisterES4_S4_
_ZN4vixl7aarch649Assembler3svcEi
_ZN4vixl7aarch649Assembler3sysEiRKNS0_8RegisterE
_ZN4vixl7aarch649Assembler3sysEiiiiRKNS0_8RegisterE
_ZN4vixl7aarch649Assembler3tblERKNS0_9VRegisterES4_S4_
_ZN4vixl7aarch649Assembler3tblERKNS0_9VRegisterES4_S4_S4_
_ZN4vixl7aarch649Assembler3tblERKNS0_9VRegisterES4_S4_S4_S4_
_ZN4vixl7aarch649Assembler3tblERKNS0_9VRegisterES4_S4_S4_S4_S4_
_ZN4vixl7aarch649Assembler3tbxERKNS0_9VRegisterES4_S4_
_ZN4vixl7aarch649Assembler3tbxERKNS0_9VRegisterES4_S4_S4_
_ZN4vixl7aarch649Assembler3tbxERKNS0_9VRegisterES4_S4_S4_S4_
_ZN4vixl7aarch649Assembler3tbxERKNS0_9VRegisterES4_S4_S4_S4_S4_
_ZN4vixl7aarch649Assembler3tbzERKNS0_8RegisterEjPNS0_5LabelE
_ZN4vixl7aarch649Assembler3tbzERKNS0_8RegisterEjl
_ZN4vixl7aarch649Assembler3tstERKNS0_8RegisterERKNS0_7OperandE
_ZN4vixl7aarch649Assembler3xtnERKNS0_9VRegisterES4_
_ZN4vixl7aarch649Assembler4adcsERKNS0_8RegisterES4_RKNS0_7OperandE
_ZN4vixl7aarch649Assembler4addpERKNS0_9VRegisterES4_
_ZN4vixl7aarch649Assembler4addpERKNS0_9VRegisterES4_S4_
_ZN4vixl7aarch649Assembler4addsERKNS0_8RegisterES4_RKNS0_7OperandE
_ZN4vixl7aarch649Assembler4addvERKNS0_9VRegisterES4_
_ZN4vixl7aarch649Assembler4adrpERKNS0_8RegisterEPNS0_5LabelE
_ZN4vixl7aarch649Assembler4adrpERKNS0_8RegisterEl
_ZN4vixl7aarch649Assembler4and_ERKNS0_8RegisterES4_RKNS0_7OperandE
_ZN4vixl7aarch649Assembler4and_ERKNS0_9VRegisterES4_S4_
_ZN4vixl7aarch649Assembler4andsERKNS0_8RegisterES4_RKNS0_7OperandE
_ZN4vixl7aarch649Assembler4asrvERKNS0_8RegisterES4_S4_
_ZN4vixl7aarch649Assembler4bicsERKNS0_8RegisterES4_RKNS0_7OperandE
_ZN4vixl7aarch649Assembler4bindEPNS0_5LabelE
_ZN4vixl7aarch649Assembler4cbnzERKNS0_8RegisterEPNS0_5LabelE
_ZN4vixl7aarch649Assembler4cbnzERKNS0_8RegisterEl
_ZN4vixl7aarch649Assembler4ccmnERKNS0_8RegisterERKNS0_7OperandENS0_11StatusFlagsENS0_9ConditionE
_ZN4vixl7aarch649Assembler4ccmpERKNS0_8RegisterERKNS0_7OperandENS0_11StatusFlagsENS0_9ConditionE
_ZN4vixl7aarch649Assembler4cincERKNS0_8RegisterES4_NS0_9ConditionE
_ZN4vixl7aarch649Assembler4cinvERKNS0_8RegisterES4_NS0_9ConditionE
_ZN4vixl7aarch649Assembler4cmeqERKNS0_9VRegisterES4_S4_
_ZN4vixl7aarch649Assembler4cmeqERKNS0_9VRegisterES4_i
_ZN4vixl7aarch649Assembler4cmgeERKNS0_9VRegisterES4_S4_
_ZN4vixl7aarch649Assembler4cmgeERKNS0_9VRegisterES4_i
_ZN4vixl7aarch649Assembler4cmgtERKNS0_9VRegisterES4_S4_
_ZN4vixl7aarch649Assembler4cmgtERKNS0_9VRegisterES4_i
_ZN4vixl7aarch649Assembler4cmhiERKNS0_9VRegisterES4_S4_
_ZN4vixl7aarch649Assembler4cmhsERKNS0_9VRegisterES4_S4_
_ZN4vixl7aarch649Assembler4cmleERKNS0_9VRegisterES4_i
_ZN4vixl7aarch649Assembler4cmltERKNS0_9VRegisterES4_i
_ZN4vixl7aarch649Assembler4cnegERKNS0_8RegisterES4_NS0_9ConditionE
_ZN4vixl7aarch649Assembler4cselERKNS0_8RegisterES4_S4_NS0_9ConditionE
_ZN4vixl7aarch649Assembler4csetERKNS0_8RegisterENS0_9ConditionE
_ZN4vixl7aarch649Assembler4extrERKNS0_8RegisterES4_S4_j
_ZN4vixl7aarch649Assembler4fabdERKNS0_9VRegisterES4_S4_
_ZN4vixl7aarch649Assembler4fabsERKNS0_9VRegisterES4_
_ZN4vixl7aarch649Assembler4faddERKNS0_9VRegisterES4_S4_
_ZN4vixl7aarch649Assembler4fcmpERKNS0_9VRegisterES4_
_ZN4vixl7aarch649Assembler4fcmpERKNS0_9VRegisterEd
_ZN4vixl7aarch649Assembler4fcvtERKNS0_9VRegisterES4_
_ZN4vixl7aarch649Assembler4fdivERKNS0_9VRegisterES4_S4_
_ZN4vixl7aarch649Assembler4fmaxERKNS0_9VRegisterES4_S4_
_ZN4vixl7aarch649Assembler4fminERKNS0_9VRegisterES4_S4_
_ZN4vixl7aarch649Assembler4fmlaERKNS0_9VRegisterES4_S4_
_ZN4vixl7aarch649Assembler4fmlaERKNS0_9VRegisterES4_S4_i
_ZN4vixl7aarch649Assembler4fmlsERKNS0_9VRegisterES4_S4_
_ZN4vixl7aarch649Assembler4fmlsERKNS0_9VRegisterES4_S4_i
_ZN4vixl7aarch649Assembler4fmovERKNS0_8RegisterERKNS0_9VRegisterE
_ZN4vixl7aarch649Assembler4fmovERKNS0_8RegisterERKNS0_9VRegisterEi
_ZN4vixl7aarch649Assembler4fmovERKNS0_9VRegisterERKNS0_8RegisterE
_ZN4vixl7aarch649Assembler4fmovERKNS0_9VRegisterES4_
_ZN4vixl7aarch649Assembler4fmovERKNS0_9VRegisterEd
_ZN4vixl7aarch649Assembler4fmovERKNS0_9VRegisterEf
_ZN4vixl7aarch649Assembler4fmovERKNS0_9VRegisterEiRKNS0_8RegisterE
_ZN4vixl7aarch649Assembler4fmulERKNS0_9VRegisterES4_S4_
_ZN4vixl7aarch649Assembler4fmulERKNS0_9VRegisterES4_S4_i
_ZN4vixl7aarch649Assembler4fnegERKNS0_9VRegisterES4_
_ZN4vixl7aarch649Assembler4fsubERKNS0_9VRegisterES4_S4_
_ZN4vixl7aarch649Assembler4hintENS0_10SystemHintE
_ZN4vixl7aarch649Assembler4ld1rERKNS0_9VRegisterERKNS0_10MemOperandE
_ZN4vixl7aarch649Assembler4ld2rERKNS0_9VRegisterES4_RKNS0_10MemOperandE
_ZN4vixl7aarch649Assembler4ld3rERKNS0_9VRegisterES4_S4_RKNS0_10MemOperandE
_ZN4vixl7aarch649Assembler4ld4rERKNS0_9VRegisterES4_S4_S4_RKNS0_10MemOperandE
_ZN4vixl7aarch649Assembler4ldarERKNS0_8RegisterERKNS0_10MemOperandE
_ZN4vixl7aarch649Assembler4ldnpERKNS0_11CPURegisterES4_RKNS0_10MemOperandE
_ZN4vixl7aarch649Assembler4ldrbERKNS0_8RegisterERKNS0_10MemOperandENS0_22LoadStoreScalingOptionE
_ZN4vixl7aarch649Assembler4ldrhERKNS0_8RegisterERKNS0_10MemOperandENS0_22LoadStoreScalingOptionE
_ZN4vixl7aarch649Assembler4ldurERKNS0_11CPURegisterERKNS0_10MemOperandENS0_22LoadStoreScalingOptionE
_ZN4vixl7aarch649Assembler4ldxpERKNS0_8RegisterES4_RKNS0_10MemOperandE
_ZN4vixl7aarch649Assembler4ldxrERKNS0_8RegisterERKNS0_10MemOperandE
_ZN4vixl7aarch649Assembler4lslvERKNS0_8RegisterES4_S4_
_ZN4vixl7aarch649Assembler4lsrvERKNS0_8RegisterES4_S4_
_ZN4vixl7aarch649Assembler4maddERKNS0_8RegisterES4_S4_S4_
_ZN4vixl7aarch649Assembler4mnegERKNS0_8RegisterES4_S4_
_ZN4vixl7aarch649Assembler4moviERKNS0_9VRegisterEmNS0_5ShiftEi
_ZN4vixl7aarch649Assembler4msubERKNS0_8RegisterES4_S4_S4_
_ZN4vixl7aarch649Assembler4mvniERKNS0_9VRegisterEiNS0_5ShiftEi
_ZN4vixl7aarch649Assembler4negsERKNS0_8RegisterERKNS0_7OperandE
_ZN4vixl7aarch649Assembler4ngcsERKNS0_8RegisterERKNS0_7OperandE
_ZN4vixl7aarch649Assembler4not_ERKNS0_9VRegisterES4_
_ZN4vixl7aarch649Assembler4pmulERKNS0_9VRegisterES4_S4_
_ZN4vixl7aarch649Assembler4prfmENS0_17PrefetchOperationEPNS0_10RawLiteralE
_ZN4vixl7aarch649Assembler4prfmENS0_17PrefetchOperationERKNS0_10MemOperandENS0_22LoadStoreScalingOptionE
_ZN4vixl7aarch649Assembler4prfmENS0_17PrefetchOperationEl
_ZN4vixl7aarch649Assembler4rbitERKNS0_8RegisterES4_
_ZN4vixl7aarch649Assembler4rbitERKNS0_9VRegisterES4_
_ZN4vixl7aarch649Assembler4rorvERKNS0_8RegisterES4_S4_
_ZN4vixl7aarch649Assembler4sabaERKNS0_9VRegisterES4_S4_
_ZN4vixl7aarch649Assembler4sabdERKNS0_9VRegisterES4_S4_
_ZN4vixl7aarch649Assembler4sbcsERKNS0_8RegisterES4_RKNS0_7OperandE
_ZN4vixl7aarch649Assembler4sbfmERKNS0_8RegisterES4_jj
_ZN4vixl7aarch649Assembler4sdivERKNS0_8RegisterES4_S4_
_ZN4vixl7aarch649Assembler4shllERKNS0_9VRegisterES4_i
_ZN4vixl7aarch649Assembler4shrnERKNS0_9VRegisterES4_i
_ZN4vixl7aarch649Assembler4smaxERKNS0_9VRegisterES4_S4_
_ZN4vixl7aarch649Assembler4sminERKNS0_9VRegisterES4_S4_
_ZN4vixl7aarch649Assembler4smovERKNS0_8RegisterERKNS0_9VRegisterEi
_ZN4vixl7aarch649Assembler4sshlERKNS0_9VRegisterES4_S4_
_ZN4vixl7aarch649Assembler4sshrERKNS0_9VRegisterES4_i
_ZN4vixl7aarch649Assembler4ssraERKNS0_9VRegisterES4_i
_ZN4vixl7aarch649Assembler4stlrERKNS0_8RegisterERKNS0_10MemOperandE
_ZN4vixl7aarch649Assembler4stnpERKNS0_11CPURegisterES4_RKNS0_10MemOperandE
_ZN4vixl7aarch649Assembler4strbERKNS0_8RegisterERKNS0_10MemOperandENS0_22LoadStoreScalingOptionE
_ZN4vixl7aarch649Assembler4strhERKNS0_8RegisterERKNS0_10MemOperandENS0_22LoadStoreScalingOptionE
_ZN4vixl7aarch649Assembler4sturERKNS0_11CPURegisterERKNS0_10MemOperandENS0_22LoadStoreScalingOptionE
_ZN4vixl7aarch649Assembler4stxpERKNS0_8RegisterES4_S4_RKNS0_10MemOperandE
_ZN4vixl7aarch649Assembler4stxrERKNS0_8RegisterES4_RKNS0_10MemOperandE
_ZN4vixl7aarch649Assembler4subsERKNS0_8RegisterES4_RKNS0_7OperandE
_ZN4vixl7aarch649Assembler4sxtlERKNS0_9VRegisterES4_
_ZN4vixl7aarch649Assembler4tbnzERKNS0_8RegisterEjPNS0_5LabelE
_ZN4vixl7aarch649Assembler4tbnzERKNS0_8RegisterEjl
_ZN4vixl7aarch649Assembler4trn1ERKNS0_9VRegisterES4_S4_
_ZN4vixl7aarch649Assembler4trn2ERKNS0_9VRegisterES4_S4_
_ZN4vixl7aarch649Assembler4uabaERKNS0_9VRegisterES4_S4_
_ZN4vixl7aarch649Assembler4uabdERKNS0_9VRegisterES4_S4_
_ZN4vixl7aarch649Assembler4ubfmERKNS0_8RegisterES4_jj
_ZN4vixl7aarch649Assembler4udivERKNS0_8RegisterES4_S4_
_ZN4vixl7aarch649Assembler4umaxERKNS0_9VRegisterES4_S4_
_ZN4vixl7aarch649Assembler4uminERKNS0_9VRegisterES4_S4_
_ZN4vixl7aarch649Assembler4umovERKNS0_8RegisterERKNS0_9VRegisterEi
_ZN4vixl7aarch649Assembler4ushlERKNS0_9VRegisterES4_S4_
_ZN4vixl7aarch649Assembler4ushrERKNS0_9VRegisterES4_i
_ZN4vixl7aarch649Assembler4usraERKNS0_9VRegisterES4_i
_ZN4vixl7aarch649Assembler4uxtlERKNS0_9VRegisterES4_
_ZN4vixl7aarch649Assembler4uzp1ERKNS0_9VRegisterES4_S4_
_ZN4vixl7aarch649Assembler4uzp2ERKNS0_9VRegisterES4_S4_
_ZN4vixl7aarch649Assembler4xtn2ERKNS0_9VRegisterES4_
_ZN4vixl7aarch649Assembler4zip1ERKNS0_9VRegisterES4_S4_
_ZN4vixl7aarch649Assembler4zip2ERKNS0_9VRegisterES4_S4_
_ZN4vixl7aarch649Assembler5ResetEv
_ZN4vixl7aarch649Assembler5addhnERKNS0_9VRegisterES4_S4_
_ZN4vixl7aarch649Assembler5clrexEi
_ZN4vixl7aarch649Assembler5cmtstERKNS0_9VRegisterES4_S4_
_ZN4vixl7aarch649Assembler5csetmERKNS0_8RegisterENS0_9ConditionE
_ZN4vixl7aarch649Assembler5csincERKNS0_8RegisterES4_S4_NS0_9ConditionE
_ZN4vixl7aarch649Assembler5csinvERKNS0_8RegisterES4_S4_NS0_9ConditionE
_ZN4vixl7aarch649Assembler5csnegERKNS0_8RegisterES4_S4_NS0_9ConditionE
_ZN4vixl7aarch649Assembler5facgeERKNS0_9VRegisterES4_S4_
_ZN4vixl7aarch649Assembler5facgtERKNS0_9VRegisterES4_S4_
_ZN4vixl7aarch649Assembler5faddpERKNS0_9VRegisterES4_
_ZN4vixl7aarch649Assembler5faddpERKNS0_9VRegisterES4_S4_
_ZN4vixl7aarch649Assembler5fccmpERKNS0_9VRegisterES4_NS0_11StatusFlagsENS0_9ConditionE
_ZN4vixl7aarch649Assembler5fcmeqERKNS0_9VRegisterES4_S4_
_ZN4vixl7aarch649Assembler5fcmeqERKNS0_9VRegisterES4_d
_ZN4vixl7aarch649Assembler5fcmgeERKNS0_9VRegisterES4_S4_
_ZN4vixl7aarch649Assembler5fcmgeERKNS0_9VRegisterES4_d
_ZN4vixl7aarch649Assembler5fcmgtERKNS0_9VRegisterES4_S4_
_ZN4vixl7aarch649Assembler5fcmgtERKNS0_9VRegisterES4_d
_ZN4vixl7aarch649Assembler5fcmleERKNS0_9VRegisterES4_d
_ZN4vixl7aarch649Assembler5fcmltERKNS0_9VRegisterES4_d
_ZN4vixl7aarch649Assembler5fcmpeERKNS0_9VRegisterES4_
_ZN4vixl7aarch649Assembler5fcmpeERKNS0_9VRegisterEd
_ZN4vixl7aarch649Assembler5fcselERKNS0_9VRegisterES4_S4_NS0_9ConditionE
_ZN4vixl7aarch649Assembler5fcvtlERKNS0_9VRegisterES4_
_ZN4vixl7aarch649Assembler5fcvtnERKNS0_9VRegisterES4_
_ZN4vixl7aarch649Assembler5fmaddERKNS0_9VRegisterES4_S4_S4_
_ZN4vixl7aarch649Assembler5fmaxpERKNS0_9VRegisterES4_
_ZN4vixl7aarch649Assembler5fmaxpERKNS0_9VRegisterES4_S4_
_ZN4vixl7aarch649Assembler5fmaxvERKNS0_9VRegisterES4_
_ZN4vixl7aarch649Assembler5fminpERKNS0_9VRegisterES4_
_ZN4vixl7aarch649Assembler5fminpERKNS0_9VRegisterES4_S4_
_ZN4vixl7aarch649Assembler5fminvERKNS0_9VRegisterES4_
_ZN4vixl7aarch649Assembler5fmsubERKNS0_9VRegisterES4_S4_S4_
_ZN4vixl7aarch649Assembler5fmulxERKNS0_9VRegisterES4_S4_
_ZN4vixl7aarch649Assembler5fmulxERKNS0_9VRegisterES4_S4_i
_ZN4vixl7aarch649Assembler5fnmulERKNS0_9VRegisterES4_S4_
_ZN4vixl7aarch649Assembler5fsqrtERKNS0_9VRegisterES4_
_ZN4vixl7aarch649Assembler5ldarbERKNS0_8RegisterERKNS0_10MemOperandE
_ZN4vixl7aarch649Assembler5ldarhERKNS0_8RegisterERKNS0_10MemOperandE
_ZN4vixl7aarch649Assembler5ldaxpERKNS0_8RegisterES4_RKNS0_10MemOperandE
_ZN4vixl7aarch649Assembler5ldaxrERKNS0_8RegisterERKNS0_10MemOperandE
_ZN4vixl7aarch649Assembler5ldpswERKNS0_8RegisterES4_RKNS0_10MemOperandE
_ZN4vixl7aarch649Assembler5ldrsbERKNS0_8RegisterERKNS0_10MemOperandENS0_22LoadStoreScalingOptionE
_ZN4vixl7aarch649Assembler5ldrshERKNS0_8RegisterERKNS0_10MemOperandENS0_22LoadStoreScalingOptionE
_ZN4vixl7aarch649Assembler5ldrswERKNS0_8RegisterEPNS0_10RawLiteralE
_ZN4vixl7aarch649Assembler5ldrswERKNS0_8RegisterERKNS0_10MemOperandENS0_22LoadStoreScalingOptionE
_ZN4vixl7aarch649Assembler5ldrswERKNS0_8RegisterEl
_ZN4vixl7aarch649Assembler5ldurbERKNS0_8RegisterERKNS0_10MemOperandENS0_22LoadStoreScalingOptionE
_ZN4vixl7aarch649Assembler5ldurhERKNS0_8RegisterERKNS0_10MemOperandENS0_22LoadStoreScalingOptionE
_ZN4vixl7aarch649Assembler5ldxrbERKNS0_8RegisterERKNS0_10MemOperandE
_ZN4vixl7aarch649Assembler5ldxrhERKNS0_8RegisterERKNS0_10MemOperandE
_ZN4vixl7aarch649Assembler5placeEPNS0_10RawLiteralE
_ZN4vixl7aarch649Assembler5pmullERKNS0_9VRegisterES4_S4_
_ZN4vixl7aarch649Assembler5prfumENS0_17PrefetchOperationERKNS0_10MemOperandENS0_22LoadStoreScalingOptionE
_ZN4vixl7aarch649Assembler5rev16ERKNS0_8RegisterES4_
_ZN4vixl7aarch649Assembler5rev16ERKNS0_9VRegisterES4_
_ZN4vixl7aarch649Assembler5rev32ERKNS0_8RegisterES4_
_ZN4vixl7aarch649Assembler5rev32ERKNS0_9VRegisterES4_
_ZN4vixl7aarch649Assembler5rev64ERKNS0_9VRegisterES4_
_ZN4vixl7aarch649Assembler5rshrnERKNS0_9VRegisterES4_i
_ZN4vixl7aarch649Assembler5sabalERKNS0_9VRegisterES4_S4_
_ZN4vixl7aarch649Assembler5sabdlERKNS0_9VRegisterES4_S4_
_ZN4vixl7aarch649Assembler5saddlERKNS0_9VRegisterES4_S4_
_ZN4vixl7aarch649Assembler5saddwERKNS0_9VRegisterES4_S4_
_ZN4vixl7aarch649Assembler5scvtfERKNS0_9VRegisterERKNS0_8RegisterEi
_ZN4vixl7aarch649Assembler5scvtfERKNS0_9VRegisterES4_i
_ZN4vixl7aarch649Assembler5shaddERKNS0_9VRegisterES4_S4_
_ZN4vixl7aarch649Assembler5shll2ERKNS0_9VRegisterES4_i
_ZN4vixl7aarch649Assembler5shrn2ERKNS0_9VRegisterES4_i
_ZN4vixl7aarch649Assembler5shsubERKNS0_9VRegisterES4_S4_
_ZN4vixl7aarch649Assembler5smaxpERKNS0_9VRegisterES4_S4_
_ZN4vixl7aarch649Assembler5smaxvERKNS0_9VRegisterES4_
_ZN4vixl7aarch649Assembler5sminpERKNS0_9VRegisterES4_S4_
_ZN4vixl7aarch649Assembler5sminvERKNS0_9VRegisterES4_
_ZN4vixl7aarch649Assembler5smlalERKNS0_9VRegisterES4_S4_
_ZN4vixl7aarch649Assembler5smlalERKNS0_9VRegisterES4_S4_i
_ZN4vixl7aarch649Assembler5smlslERKNS0_9VRegisterES4_S4_
_ZN4vixl7aarch649Assembler5smlslERKNS0_9VRegisterES4_S4_i
_ZN4vixl7aarch649Assembler5smulhERKNS0_8RegisterES4_S4_
_ZN4vixl7aarch649Assembler5smullERKNS0_8RegisterES4_S4_
_ZN4vixl7aarch649Assembler5smullERKNS0_9VRegisterES4_S4_
_ZN4vixl7aarch649Assembler5smullERKNS0_9VRegisterES4_S4_i
_ZN4vixl7aarch649Assembler5sqabsERKNS0_9VRegisterES4_
_ZN4vixl7aarch649Assembler5sqaddERKNS0_9VRegisterES4_S4_
_ZN4vixl7aarch649Assembler5sqnegERKNS0_9VRegisterES4_
_ZN4vixl7aarch649Assembler5sqshlERKNS0_9VRegisterES4_S4_
_ZN4vixl7aarch649Assembler5sqshlERKNS0_9VRegisterES4_i
_ZN4vixl7aarch649Assembler5sqsubERKNS0_9VRegisterES4_S4_
_ZN4vixl7aarch649Assembler5sqxtnERKNS0_9VRegisterES4_
_ZN4vixl7aarch649Assembler5srshlERKNS0_9VRegisterES4_S4_
_ZN4vixl7aarch649Assembler5srshrERKNS0_9VRegisterES4_i
_ZN4vixl7aarch649Assembler5srsraERKNS0_9VRegisterES4_i
_ZN4vixl7aarch649Assembler5sshllERKNS0_9VRegisterES4_i
_ZN4vixl7aarch649Assembler5ssublERKNS0_9VRegisterES4_S4_
_ZN4vixl7aarch649Assembler5ssubwERKNS0_9VRegisterES4_S4_
_ZN4vixl7aarch649Assembler5stlrbERKNS0_8RegisterERKNS0_10MemOperandE
_ZN4vixl7aarch649Assembler5stlrhERKNS0_8RegisterERKNS0_10MemOperandE
_ZN4vixl7aarch649Assembler5stlxpERKNS0_8RegisterES4_S4_RKNS0_10MemOperandE
_ZN4vixl7aarch649Assembler5stlxrERKNS0_8RegisterES4_RKNS0_10MemOperandE
_ZN4vixl7aarch649Assembler5sturbERKNS0_8RegisterERKNS0_10MemOperandENS0_22LoadStoreScalingOptionE
_ZN4vixl7aarch649Assembler5sturhERKNS0_8RegisterERKNS0_10MemOperandENS0_22LoadStoreScalingOptionE
_ZN4vixl7aarch649Assembler5stxrbERKNS0_8RegisterES4_RKNS0_10MemOperandE
_ZN4vixl7aarch649Assembler5stxrhERKNS0_8RegisterES4_RKNS0_10MemOperandE
_ZN4vixl7aarch649Assembler5subhnERKNS0_9VRegisterES4_S4_
_ZN4vixl7aarch649Assembler5sxtl2ERKNS0_9VRegisterES4_
_ZN4vixl7aarch649Assembler5uabalERKNS0_9VRegisterES4_S4_
_ZN4vixl7aarch649Assembler5uabdlERKNS0_9VRegisterES4_S4_
_ZN4vixl7aarch649Assembler5uaddlERKNS0_9VRegisterES4_S4_
_ZN4vixl7aarch649Assembler5uaddwERKNS0_9VRegisterES4_S4_
_ZN4vixl7aarch649Assembler5ucvtfERKNS0_9VRegisterERKNS0_8RegisterEi
_ZN4vixl7aarch649Assembler5ucvtfERKNS0_9VRegisterES4_i
_ZN4vixl7aarch649Assembler5uhaddERKNS0_9VRegisterES4_S4_
_ZN4vixl7aarch649Assembler5uhsubERKNS0_9VRegisterES4_S4_
_ZN4vixl7aarch649Assembler5umaxpERKNS0_9VRegisterES4_S4_
_ZN4vixl7aarch649Assembler5umaxvERKNS0_9VRegisterES4_
_ZN4vixl7aarch649Assembler5uminpERKNS0_9VRegisterES4_S4_
_ZN4vixl7aarch649Assembler5uminvERKNS0_9VRegisterES4_
_ZN4vixl7aarch649Assembler5umlalERKNS0_9VRegisterES4_S4_
_ZN4vixl7aarch649Assembler5umlalERKNS0_9VRegisterES4_S4_i
_ZN4vixl7aarch649Assembler5umlslERKNS0_9VRegisterES4_S4_
_ZN4vixl7aarch649Assembler5umlslERKNS0_9VRegisterES4_S4_i
_ZN4vixl7aarch649Assembler5umulhERKNS0_8RegisterES4_S4_
_ZN4vixl7aarch649Assembler5umullERKNS0_9VRegisterES4_S4_
_ZN4vixl7aarch649Assembler5umullERKNS0_9VRegisterES4_S4_i
_ZN4vixl7aarch649Assembler5uqaddERKNS0_9VRegisterES4_S4_
_ZN4vixl7aarch649Assembler5uqshlERKNS0_9VRegisterES4_S4_
_ZN4vixl7aarch649Assembler5uqshlERKNS0_9VRegisterES4_i
_ZN4vixl7aarch649Assembler5uqsubERKNS0_9VRegisterES4_S4_
_ZN4vixl7aarch649Assembler5uqxtnERKNS0_9VRegisterES4_
_ZN4vixl7aarch649Assembler5urshlERKNS0_9VRegisterES4_S4_
_ZN4vixl7aarch649Assembler5urshrERKNS0_9VRegisterES4_i
_ZN4vixl7aarch649Assembler5ursraERKNS0_9VRegisterES4_i
_ZN4vixl7aarch649Assembler5ushllERKNS0_9VRegisterES4_i
_ZN4vixl7aarch649Assembler5usublERKNS0_9VRegisterES4_S4_
_ZN4vixl7aarch649Assembler5usubwERKNS0_9VRegisterES4_S4_
_ZN4vixl7aarch649Assembler5uxtl2ERKNS0_9VRegisterES4_
_ZN4vixl7aarch649Assembler6AddSubERKNS0_8RegisterES4_RKNS0_7OperandENS0_11FlagsUpdateENS0_8AddSubOpE
_ZN4vixl7aarch649Assembler6addhn2ERKNS0_9VRegisterES4_S4_
_ZN4vixl7aarch649Assembler6crc32bERKNS0_8RegisterES4_S4_
_ZN4vixl7aarch649Assembler6crc32hERKNS0_8RegisterES4_S4_
_ZN4vixl7aarch649Assembler6crc32wERKNS0_8RegisterES4_S4_
_ZN4vixl7aarch649Assembler6crc32xERKNS0_8RegisterES4_S4_
_ZN4vixl7aarch649Assembler6fccmpeERKNS0_9VRegisterES4_NS0_11StatusFlagsENS0_9ConditionE
_ZN4vixl7aarch649Assembler6fcvtasERKNS0_8RegisterERKNS0_9VRegisterE
_ZN4vixl7aarch649Assembler6fcvtasERKNS0_9VRegisterES4_
_ZN4vixl7aarch649Assembler6fcvtauERKNS0_8RegisterERKNS0_9VRegisterE
_ZN4vixl7aarch649Assembler6fcvtauERKNS0_9VRegisterES4_
_ZN4vixl7aarch649Assembler6fcvtl2ERKNS0_9VRegisterES4_
_ZN4vixl7aarch649Assembler6fcvtmsERKNS0_8RegisterERKNS0_9VRegisterE
_ZN4vixl7aarch649Assembler6fcvtmsERKNS0_9VRegisterES4_
_ZN4vixl7aarch649Assembler6fcvtmuERKNS0_8RegisterERKNS0_9VRegisterE
_ZN4vixl7aarch649Assembler6fcvtmuERKNS0_9VRegisterES4_
_ZN4vixl7aarch649Assembler6fcvtn2ERKNS0_9VRegisterES4_
_ZN4vixl7aarch649Assembler6fcvtnsERKNS0_8RegisterERKNS0_9VRegisterE
_ZN4vixl7aarch649Assembler6fcvtnsERKNS0_9VRegisterES4_
_ZN4vixl7aarch649Assembler6fcvtnuERKNS0_8RegisterERKNS0_9VRegisterE
_ZN4vixl7aarch649Assembler6fcvtnuERKNS0_9VRegisterES4_
_ZN4vixl7aarch649Assembler6fcvtpsERKNS0_8RegisterERKNS0_9VRegisterE
_ZN4vixl7aarch649Assembler6fcvtpsERKNS0_9VRegisterES4_
_ZN4vixl7aarch649Assembler6fcvtpuERKNS0_8RegisterERKNS0_9VRegisterE
_ZN4vixl7aarch649Assembler6fcvtpuERKNS0_9VRegisterES4_
_ZN4vixl7aarch649Assembler6fcvtxnERKNS0_9VRegisterES4_
_ZN4vixl7aarch649Assembler6fcvtzsERKNS0_8RegisterERKNS0_9VRegisterEi
_ZN4vixl7aarch649Assembler6fcvtzsERKNS0_9VRegisterES4_i
_ZN4vixl7aarch649Assembler6fcvtzuERKNS0_8RegisterERKNS0_9VRegisterEi
_ZN4vixl7aarch649Assembler6fcvtzuERKNS0_9VRegisterES4_i
_ZN4vixl7aarch649Assembler6fmaxnmERKNS0_9VRegisterES4_S4_
_ZN4vixl7aarch649Assembler6fminnmERKNS0_9VRegisterES4_S4_
_ZN4vixl7aarch649Assembler6fnmaddERKNS0_9VRegisterES4_S4_S4_
_ZN4vixl7aarch649Assembler6fnmsubERKNS0_9VRegisterES4_S4_S4_
_ZN4vixl7aarch649Assembler6frecpeERKNS0_9VRegisterES4_
_ZN4vixl7aarch649Assembler6frecpsERKNS0_9VRegisterES4_S4_
_ZN4vixl7aarch649Assembler6frecpxERKNS0_9VRegisterES4_
_ZN4vixl7aarch649Assembler6frintaERKNS0_9VRegisterES4_
_ZN4vixl7aarch649Assembler6frintiERKNS0_9VRegisterES4_
_ZN4vixl7aarch649Assembler6frintmERKNS0_9VRegisterES4_
_ZN4vixl7aarch649Assembler6frintnERKNS0_9VRegisterES4_
_ZN4vixl7aarch649Assembler6frintpERKNS0_9VRegisterES4_
_ZN4vixl7aarch649Assembler6frintxERKNS0_9VRegisterES4_
_ZN4vixl7aarch649Assembler6frintzERKNS0_9VRegisterES4_
_ZN4vixl7aarch649Assembler6ldaxrbERKNS0_8RegisterERKNS0_10MemOperandE
_ZN4vixl7aarch649Assembler6ldaxrhERKNS0_8RegisterERKNS0_10MemOperandE
_ZN4vixl7aarch649Assembler6ldursbERKNS0_8RegisterERKNS0_10MemOperandENS0_22LoadStoreScalingOptionE
_ZN4vixl7aarch649Assembler6ldurshERKNS0_8RegisterERKNS0_10MemOperandENS0_22LoadStoreScalingOptionE
_ZN4vixl7aarch649Assembler6ldurswERKNS0_8RegisterERKNS0_10MemOperandENS0_22LoadStoreScalingOptionE
_ZN4vixl7aarch649Assembler6pmull2ERKNS0_9VRegisterES4_S4_
_ZN4vixl7aarch649Assembler6raddhnERKNS0_9VRegisterES4_S4_
_ZN4vixl7aarch649Assembler6rshrn2ERKNS0_9VRegisterES4_i
_ZN4vixl7aarch649Assembler6rsubhnERKNS0_9VRegisterES4_S4_
_ZN4vixl7aarch649Assembler6sabal2ERKNS0_9VRegisterES4_S4_
_ZN4vixl7aarch649Assembler6sabdl2ERKNS0_9VRegisterES4_S4_
_ZN4vixl7aarch649Assembler6sadalpERKNS0_9VRegisterES4_
_ZN4vixl7aarch649Assembler6saddl2ERKNS0_9VRegisterES4_S4_
_ZN4vixl7aarch649Assembler6saddlpERKNS0_9VRegisterES4_
_ZN4vixl7aarch649Assembler6saddlvERKNS0_9VRegisterES4_
_ZN4vixl7aarch649Assembler6saddw2ERKNS0_9VRegisterES4_S4_
_ZN4vixl7aarch649Assembler6smaddlERKNS0_8RegisterES4_S4_S4_
_ZN4vixl7aarch649Assembler6smlal2ERKNS0_9VRegisterES4_S4_
_ZN4vixl7aarch649Assembler6smlal2ERKNS0_9VRegisterES4_S4_i
_ZN4vixl7aarch649Assembler6smlsl2ERKNS0_9VRegisterES4_S4_
_ZN4vixl7aarch649Assembler6smlsl2ERKNS0_9VRegisterES4_S4_i
_ZN4vixl7aarch649Assembler6smsublERKNS0_8RegisterES4_S4_S4_
_ZN4vixl7aarch649Assembler6smull2ERKNS0_9VRegisterES4_S4_
_ZN4vixl7aarch649Assembler6smull2ERKNS0_9VRegisterES4_S4_i
_ZN4vixl7aarch649Assembler6sqrshlERKNS0_9VRegisterES4_S4_
_ZN4vixl7aarch649Assembler6sqshluERKNS0_9VRegisterES4_i
_ZN4vixl7aarch649Assembler6sqshrnERKNS0_9VRegisterES4_i
_ZN4vixl7aarch649Assembler6sqxtn2ERKNS0_9VRegisterES4_
_ZN4vixl7aarch649Assembler6sqxtunERKNS0_9VRegisterES4_
_ZN4vixl7aarch649Assembler6srhaddERKNS0_9VRegisterES4_S4_
_ZN4vixl7aarch649Assembler6sshll2ERKNS0_9VRegisterES4_i
_ZN4vixl7aarch649Assembler6ssubl2ERKNS0_9VRegisterES4_S4_
_ZN4vixl7aarch649Assembler6ssubw2ERKNS0_9VRegisterES4_S4_
_ZN4vixl7aarch649Assembler6stlxrbERKNS0_8RegisterES4_RKNS0_10MemOperandE
_ZN4vixl7aarch649Assembler6stlxrhERKNS0_8RegisterES4_RKNS0_10MemOperandE
_ZN4vixl7aarch649Assembler6subhn2ERKNS0_9VRegisterES4_S4_
_ZN4vixl7aarch649Assembler6suqaddERKNS0_9VRegisterES4_
_ZN4vixl7aarch649Assembler6uabal2ERKNS0_9VRegisterES4_S4_
_ZN4vixl7aarch649Assembler6uabdl2ERKNS0_9VRegisterES4_S4_
_ZN4vixl7aarch649Assembler6uadalpERKNS0_9VRegisterES4_
_ZN4vixl7aarch649Assembler6uaddl2ERKNS0_9VRegisterES4_S4_
_ZN4vixl7aarch649Assembler6uaddlpERKNS0_9VRegisterES4_
_ZN4vixl7aarch649Assembler6uaddlvERKNS0_9VRegisterES4_
_ZN4vixl7aarch649Assembler6uaddw2ERKNS0_9VRegisterES4_S4_
_ZN4vixl7aarch649Assembler6umaddlERKNS0_8RegisterES4_S4_S4_
_ZN4vixl7aarch649Assembler6umlal2ERKNS0_9VRegisterES4_S4_
_ZN4vixl7aarch649Assembler6umlal2ERKNS0_9VRegisterES4_S4_i
_ZN4vixl7aarch649Assembler6umlsl2ERKNS0_9VRegisterES4_S4_
_ZN4vixl7aarch649Assembler6umlsl2ERKNS0_9VRegisterES4_S4_i
_ZN4vixl7aarch649Assembler6umsublERKNS0_8RegisterES4_S4_S4_
_ZN4vixl7aarch649Assembler6umull2ERKNS0_9VRegisterES4_S4_
_ZN4vixl7aarch649Assembler6umull2ERKNS0_9VRegisterES4_S4_i
_ZN4vixl7aarch649Assembler6uqrshlERKNS0_9VRegisterES4_S4_
_ZN4vixl7aarch649Assembler6uqshrnERKNS0_9VRegisterES4_i
_ZN4vixl7aarch649Assembler6uqxtn2ERKNS0_9VRegisterES4_
_ZN4vixl7aarch649Assembler6urecpeERKNS0_9VRegisterES4_
_ZN4vixl7aarch649Assembler6urhaddERKNS0_9VRegisterES4_S4_
_ZN4vixl7aarch649Assembler6ushll2ERKNS0_9VRegisterES4_i
_ZN4vixl7aarch649Assembler6usqaddERKNS0_9VRegisterES4_
_ZN4vixl7aarch649Assembler6usubl2ERKNS0_9VRegisterES4_S4_
_ZN4vixl7aarch649Assembler6usubw2ERKNS0_9VRegisterES4_S4_
_ZN4vixl7aarch649Assembler7ImmFP32Ef
_ZN4vixl7aarch649Assembler7ImmFP64Ed
_ZN4vixl7aarch649Assembler7LogicalERKNS0_8RegisterES4_NS0_7OperandENS0_9LogicalOpE
_ZN4vixl7aarch649Assembler7NEONXtnERKNS0_9VRegisterES4_NS0_14NEON2RegMiscOpE
_ZN4vixl7aarch649Assembler7crc32cbERKNS0_8RegisterES4_S4_
_ZN4vixl7aarch649Assembler7crc32chERKNS0_8RegisterES4_S4_
_ZN4vixl7aarch649Assembler7crc32cwERKNS0_8RegisterES4_S4_
_ZN4vixl7aarch649Assembler7crc32cxERKNS0_8RegisterES4_S4_
_ZN4vixl7aarch649Assembler7fcvtxn2ERKNS0_9VRegisterES4_
_ZN4vixl7aarch649Assembler7fmaxnmpERKNS0_9VRegisterES4_
_ZN4vixl7aarch649Assembler7fmaxnmpERKNS0_9VRegisterES4_S4_
_ZN4vixl7aarch649Assembler7fmaxnmvERKNS0_9VRegisterES4_
_ZN4vixl7aarch649Assembler7fminnmpERKNS0_9VRegisterES4_
_ZN4vixl7aarch649Assembler7fminnmpERKNS0_9VRegisterES4_S4_
_ZN4vixl7aarch649Assembler7fminnmvERKNS0_9VRegisterES4_
_ZN4vixl7aarch649Assembler7frsqrteERKNS0_9VRegisterES4_
_ZN4vixl7aarch649Assembler7frsqrtsERKNS0_9VRegisterES4_S4_
_ZN4vixl7aarch649Assembler7raddhn2ERKNS0_9VRegisterES4_S4_
_ZN4vixl7aarch649Assembler7rsubhn2ERKNS0_9VRegisterES4_S4_
_ZN4vixl7aarch649Assembler7sqdmlalERKNS0_9VRegisterES4_S4_
_ZN4vixl7aarch649Assembler7sqdmlalERKNS0_9VRegisterES4_S4_i
_ZN4vixl7aarch649Assembler7sqdmlslERKNS0_9VRegisterES4_S4_
_ZN4vixl7aarch649Assembler7sqdmlslERKNS0_9VRegisterES4_S4_i
_ZN4vixl7aarch649Assembler7sqdmulhERKNS0_9VRegisterES4_S4_
_ZN4vixl7aarch649Assembler7sqdmulhERKNS0_9VRegisterES4_S4_i
_ZN4vixl7aarch649Assembler7sqdmullERKNS0_9VRegisterES4_S4_
_ZN4vixl7aarch649Assembler7sqdmullERKNS0_9VRegisterES4_S4_i
_ZN4vixl7aarch649Assembler7sqrshrnERKNS0_9VRegisterES4_i
_ZN4vixl7aarch649Assembler7sqshrn2ERKNS0_9VRegisterES4_i
_ZN4vixl7aarch649Assembler7sqshrunERKNS0_9VRegisterES4_i
_ZN4vixl7aarch649Assembler7sqxtun2ERKNS0_9VRegisterES4_
_ZN4vixl7aarch649Assembler7uqrshrnERKNS0_9VRegisterES4_i
_ZN4vixl7aarch649Assembler7uqshrn2ERKNS0_9VRegisterES4_i
_ZN4vixl7aarch649Assembler7ursqrteERKNS0_9VRegisterES4_
_ZN4vixl7aarch649Assembler8MoveWideERKNS0_8RegisterEmiNS0_19MoveWideImmediateOpE
_ZN4vixl7aarch649Assembler8NEONPermERKNS0_9VRegisterES4_S4_NS0_10NEONPermOpE
_ZN4vixl7aarch649Assembler8PrefetchENS0_17PrefetchOperationERKNS0_10MemOperandENS0_22LoadStoreScalingOptionE
_ZN4vixl7aarch649Assembler8sqdmlal2ERKNS0_9VRegisterES4_S4_
_ZN4vixl7aarch649Assembler8sqdmlal2ERKNS0_9VRegisterES4_S4_i
_ZN4vixl7aarch649Assembler8sqdmlsl2ERKNS0_9VRegisterES4_S4_
_ZN4vixl7aarch649Assembler8sqdmlsl2ERKNS0_9VRegisterES4_S4_i
_ZN4vixl7aarch649Assembler8sqdmull2ERKNS0_9VRegisterES4_S4_
_ZN4vixl7aarch649Assembler8sqdmull2ERKNS0_9VRegisterES4_S4_i
_ZN4vixl7aarch649Assembler8sqrdmulhERKNS0_9VRegisterES4_S4_
_ZN4vixl7aarch649Assembler8sqrdmulhERKNS0_9VRegisterES4_S4_i
_ZN4vixl7aarch649Assembler8sqrshrn2ERKNS0_9VRegisterES4_i
_ZN4vixl7aarch649Assembler8sqrshrunERKNS0_9VRegisterES4_i
_ZN4vixl7aarch649Assembler8sqshrun2ERKNS0_9VRegisterES4_i
_ZN4vixl7aarch649Assembler8uqrshrn2ERKNS0_9VRegisterES4_i
_ZN4vixl7aarch649Assembler9EmitShiftERKNS0_8RegisterES4_NS0_5ShiftEj
_ZN4vixl7aarch649Assembler9IsImmFP32Ef
_ZN4vixl7aarch649Assembler9IsImmFP64Ed
_ZN4vixl7aarch649Assembler9IsImmMovnEmj
_ZN4vixl7aarch649Assembler9IsImmMovzEmj
_ZN4vixl7aarch649Assembler9LoadOpForERKNS0_11CPURegisterE
_ZN4vixl7aarch649Assembler9LoadStoreERKNS0_11CPURegisterERKNS0_10MemOperandENS0_11LoadStoreOpENS0_22LoadStoreScalingOptionE
_ZN4vixl7aarch649Assembler9NEON3SameERKNS0_9VRegisterES4_S4_NS0_11NEON3SameOpE
_ZN4vixl7aarch649Assembler9NEONAddlpERKNS0_9VRegisterES4_NS0_14NEON2RegMiscOpE
_ZN4vixl7aarch649Assembler9NEONTableERKNS0_9VRegisterES4_S4_NS0_11NEONTableOpE
_ZN4vixl7aarch649Assembler9sqrshrun2ERKNS0_9VRegisterES4_i
_ZN4vixl7aarch649Simulator10FPRoundIntEdNS0_10FPRoundingE
_ZN4vixl7aarch649Simulator10FPToDoubleEf
_ZN4vixl7aarch649Simulator10FPToUInt32EdNS0_10FPRoundingE
_ZN4vixl7aarch649Simulator10FPToUInt64EdNS0_10FPRoundingE
_ZN4vixl7aarch649Simulator10Poly32Mod2Ejmj
_ZN4vixl7aarch649Simulator10PrintVReadEmjNS1_19PrintRegisterFormatEj
_ZN4vixl7aarch649Simulator10PrintWriteEmjNS1_19PrintRegisterFormatE
_ZN4vixl7aarch649Simulator10ResetStateEv
_ZN4vixl7aarch649Simulator10dreg_namesE
_ZN4vixl7aarch649Simulator10sreg_namesE
_ZN4vixl7aarch649Simulator10vreg_namesE
_ZN4vixl7aarch649Simulator10wreg_namesE
_ZN4vixl7aarch649Simulator10xreg_namesE
_ZN4vixl7aarch649Simulator11FPToFloat16EdNS0_10FPRoundingE
_ZN4vixl7aarch649Simulator11FPToFloat16EfNS0_10FPRoundingE
_ZN4vixl7aarch649Simulator11PrintVWriteEmjNS1_19PrintRegisterFormatEj
_ZN4vixl7aarch649Simulator11VisitSystemEPKNS0_11InstructionE
_ZN4vixl7aarch649Simulator11dup_elementENS0_12VectorFormatENS0_14LogicVRegisterERKS3_i
_ZN4vixl7aarch649Simulator11ins_elementENS0_12VectorFormatENS0_14LogicVRegisterEiRKS3_i
_ZN4vixl7aarch649Simulator12AddSubHelperEPKNS0_11InstructionEl
_ZN4vixl7aarch649Simulator12AddWithCarryEjbmmi
_ZN4vixl7aarch649Simulator12FPDefaultNaNIdEET_v
_ZN4vixl7aarch649Simulator12FPDefaultNaNIfEET_v
_ZN4vixl7aarch649Simulator12FixedToFloatEliNS0_10FPRoundingE
_ZN4vixl7aarch649Simulator12VisitExtractEPKNS0_11InstructionE
_ZN4vixl7aarch649Simulator13Crc32ChecksumEjmj
_ZN4vixl7aarch649Simulator13DoRuntimeCallEPKNS0_11InstructionE
_ZN4vixl7aarch649Simulator13DoUnreachableEPKNS0_11InstructionE
_ZN4vixl7aarch649Simulator13FPProcessNaNsEPKNS0_11InstructionE
_ZN4vixl7aarch649Simulator13FixedToDoubleEliNS0_10FPRoundingE
_ZN4vixl7aarch649Simulator13LogicalHelperEPKNS0_11InstructionEl
_ZN4vixl7aarch649Simulator13PrintRegisterEjNS0_9Reg31ModeE
_ZN4vixl7aarch649Simulator13UFixedToFloatEmiNS0_10FPRoundingE
_ZN4vixl7aarch649Simulator13VisitBitfieldEPKNS0_11InstructionE
_ZN4vixl7aarch649Simulator13VisitNEONCopyEPKNS0_11InstructionE
_ZN4vixl7aarch649Simulator13VisitNEONPermEPKNS0_11InstructionE
_ZN4vixl7aarch649Simulator13dup_immediateENS0_12VectorFormatENS0_14LogicVRegisterEm
_ZN4vixl7aarch649Simulator13extractnarrowENS0_12VectorFormatENS0_14LogicVRegisterEbRKS3_b
_ZN4vixl7aarch649Simulator13ins_immediateENS0_12VectorFormatENS0_14LogicVRegisterEim
_ZN4vixl7aarch649Simulator14PrintRegistersEv
_ZN4vixl7aarch649Simulator14PrintVRegisterEjNS1_19PrintRegisterFormatE
_ZN4vixl7aarch649Simulator14UFixedToDoubleEmiNS0_10FPRoundingE
_ZN4vixl7aarch649Simulator14VisitCryptoAESEPKNS0_11InstructionE
_ZN4vixl7aarch649Simulator14VisitExceptionEPKNS0_11InstructionE
_ZN4vixl7aarch649Simulator14VisitFPCompareEPKNS0_11InstructionE
_ZN4vixl7aarch649Simulator14VisitNEON3SameEPKNS0_11InstructionE
_ZN4vixl7aarch649Simulator14VisitNEONTableEPKNS0_11InstructionE
_ZN4vixl7aarch649Simulator14recip_estimateEd
_ZN4vixl7aarch649Simulator15DRegNameForCodeEj
_ZN4vixl7aarch649Simulator15LoadStoreHelperEPKNS0_11InstructionElNS0_8AddrModeE
_ZN4vixl7aarch649Simulator15PrintVRegistersEv
_ZN4vixl7aarch649Simulator15SRegNameForCodeEj
_ZN4vixl7aarch649Simulator15VRegNameForCodeEj
_ZN4vixl7aarch649Simulator15VisitTestBranchEPKNS0_11InstructionE
_ZN4vixl7aarch649Simulator15WRegNameForCodeEjNS0_9Reg31ModeE
_ZN4vixl7aarch649Simulator15XRegNameForCodeEjNS0_9Reg31ModeE
_ZN4vixl7aarch649Simulator16PrintTakenBranchEPKNS0_11InstructionE
_ZN4vixl7aarch649Simulator16SetColouredTraceEb
_ZN4vixl7aarch649Simulator16VisitFPImmediateEPKNS0_11InstructionE
_ZN4vixl7aarch649Simulator16VisitLoadLiteralEPKNS0_11InstructionE
_ZN4vixl7aarch649Simulator16VisitNEONExtractEPKNS0_11InstructionE
_ZN4vixl7aarch649Simulator16VisitUnallocatedEPKNS0_11InstructionE
_ZN4vixl7aarch649Simulator16kEndOfSimAddressE
_ZN4vixl7aarch649Simulator17AddressModeHelperEjlNS0_8AddrModeE
_ZN4vixl7aarch649Simulator17VisitNEON2RegMiscEPKNS0_11InstructionE
_ZN4vixl7aarch649Simulator18SetTraceParametersEi
_ZN4vixl7aarch649Simulator18VisitAddSubShiftedEPKNS0_11InstructionE
_ZN4vixl7aarch649Simulator18VisitCompareBranchEPKNS0_11InstructionE
_ZN4vixl7aarch649Simulator18VisitCrypto2RegSHAEPKNS0_11InstructionE
_ZN4vixl7aarch649Simulator18VisitCrypto3RegSHAEPKNS0_11InstructionE
_ZN4vixl7aarch649Simulator18VisitUnimplementedEPKNS0_11InstructionE
_ZN4vixl7aarch649Simulator19LoadStorePairHelperEPKNS0_11InstructionENS0_8AddrModeE
_ZN4vixl7aarch649Simulator19PrintSystemRegisterENS0_14SystemRegisterE
_ZN4vixl7aarch649Simulator19SetInstructionStatsEb
_ZN4vixl7aarch649Simulator19VisitAddSubExtendedEPKNS0_11InstructionE
_ZN4vixl7aarch649Simulator19VisitLogicalShiftedEPKNS0_11InstructionE
_ZN4vixl7aarch649Simulator19VisitNEON3DifferentEPKNS0_11InstructionE
_ZN4vixl7aarch649Simulator19VisitNEONScalarCopyEPKNS0_11InstructionE
_ZN4vixl7aarch649Simulator19recip_sqrt_estimateEd
_ZN4vixl7aarch649Simulator20PrintSystemRegistersEv
_ZN4vixl7aarch649Simulator20VisitAddSubImmediateEPKNS0_11InstructionE
_ZN4vixl7aarch649Simulator20VisitAddSubWithCarryEPKNS0_11InstructionE
_ZN4vixl7aarch649Simulator20VisitNEONAcrossLanesEPKNS0_11InstructionE
_ZN4vixl7aarch649Simulator20VisitNEONScalar3DiffEPKNS0_11InstructionE
_ZN4vixl7aarch649Simulator20VisitNEONScalar3SameEPKNS0_11InstructionE
_ZN4vixl7aarch649Simulator20VisitPCRelAddressingEPKNS0_11InstructionE
_ZN4vixl7aarch649Simulator21PrintWrittenRegistersEv
_ZN4vixl7aarch649Simulator21VisitFPIntegerConvertEPKNS0_11InstructionE
_ZN4vixl7aarch649Simulator21VisitLogicalImmediateEPKNS0_11InstructionE
_ZN4vixl7aarch649Simulator22GetPrintRegisterFormatENS0_12VectorFormatE
_ZN4vixl7aarch649Simulator22PrintRegisterRawHelperEjNS0_9Reg31ModeEi
_ZN4vixl7aarch649Simulator22PrintVRegisterFPHelperEjjii
_ZN4vixl7aarch649Simulator22PrintWrittenVRegistersEv
_ZN4vixl7aarch649Simulator22VisitConditionalBranchEPKNS0_11InstructionE
_ZN4vixl7aarch649Simulator22VisitConditionalSelectEPKNS0_11InstructionE
_ZN4vixl7aarch649Simulator22VisitLoadStorePreIndexEPKNS0_11InstructionE
_ZN4vixl7aarch649Simulator22VisitMoveWideImmediateEPKNS0_11InstructionE
_ZN4vixl7aarch649Simulator23PrintVRegisterRawHelperEjii
_ZN4vixl7aarch649Simulator23VisitLoadStoreExclusiveEPKNS0_11InstructionE
_ZN4vixl7aarch649Simulator23VisitLoadStorePostIndexEPKNS0_11InstructionE
_ZN4vixl7aarch649Simulator23VisitNEONScalar2RegMiscEPKNS0_11InstructionE
_ZN4vixl7aarch649Simulator23VisitNEONScalarPairwiseEPKNS0_11InstructionE
_ZN4vixl7aarch649Simulator23VisitNEONShiftImmediateEPKNS0_11InstructionE
_ZN4vixl7aarch649Simulator24ConditionalCompareHelperEPKNS0_11InstructionEl
_ZN4vixl7aarch649Simulator24GetPrintRegisterFormatFPENS0_12VectorFormatE
_ZN4vixl7aarch649Simulator24VisitFPConditionalSelectEPKNS0_11InstructionE
_ZN4vixl7aarch649Simulator24VisitFPFixedPointConvertEPKNS0_11InstructionE
_ZN4vixl7aarch649Simulator24VisitLoadStorePairOffsetEPKNS0_11InstructionE
_ZN4vixl7aarch649Simulator24VisitUnconditionalBranchEPKNS0_11InstructionE
_ZN4vixl7aarch649Simulator25VisitFPConditionalCompareEPKNS0_11InstructionE
_ZN4vixl7aarch649Simulator25VisitNEONByIndexedElementEPKNS0_11InstructionE
_ZN4vixl7aarch649Simulator26VisitDataProcessing1SourceEPKNS0_11InstructionE
_ZN4vixl7aarch649Simulator26VisitDataProcessing2SourceEPKNS0_11InstructionE
_ZN4vixl7aarch649Simulator26VisitDataProcessing3SourceEPKNS0_11InstructionE
_ZN4vixl7aarch649Simulator26VisitLoadStorePairPreIndexEPKNS0_11InstructionE
_ZN4vixl7aarch649Simulator26VisitNEONModifiedImmediateEPKNS0_11InstructionE
_ZN4vixl7aarch649Simulator27PrintExclusiveAccessWarningEv
_ZN4vixl7aarch649Simulator27VisitLoadStorePairPostIndexEPKNS0_11InstructionE
_ZN4vixl7aarch649Simulator28VisitFPDataProcessing1SourceEPKNS0_11InstructionE
_ZN4vixl7aarch649Simulator28VisitFPDataProcessing2SourceEPKNS0_11InstructionE
_ZN4vixl7aarch649Simulator28VisitFPDataProcessing3SourceEPKNS0_11InstructionE
_ZN4vixl7aarch649Simulator28VisitLoadStoreRegisterOffsetEPKNS0_11InstructionE
_ZN4vixl7aarch649Simulator28VisitLoadStoreUnscaledOffsetEPKNS0_11InstructionE
_ZN4vixl7aarch649Simulator28VisitLoadStoreUnsignedOffsetEPKNS0_11InstructionE
_ZN4vixl7aarch649Simulator29GetPrintRegisterFormatForSizeEjj
_ZN4vixl7aarch649Simulator29VisitLoadStorePairNonTemporalEPKNS0_11InstructionE
_ZN4vixl7aarch649Simulator29VisitNEONLoadStoreMultiStructEPKNS0_11InstructionE
_ZN4vixl7aarch649Simulator29VisitNEONScalarShiftImmediateEPKNS0_11InstructionE
_ZN4vixl7aarch649Simulator30NEONLoadStoreMultiStructHelperEPKNS0_11InstructionENS0_8AddrModeE
_ZN4vixl7aarch649Simulator30VisitNEONLoadStoreSingleStructEPKNS0_11InstructionE
_ZN4vixl7aarch649Simulator31NEONLoadStoreSingleStructHelperEPKNS0_11InstructionENS0_8AddrModeE
_ZN4vixl7aarch649Simulator31VisitConditionalCompareRegisterEPKNS0_11InstructionE
_ZN4vixl7aarch649Simulator31VisitNEONScalarByIndexedElementEPKNS0_11InstructionE
_ZN4vixl7aarch649Simulator32VisitConditionalCompareImmediateEPKNS0_11InstructionE
_ZN4vixl7aarch649Simulator34VisitUnconditionalBranchToRegisterEPKNS0_11InstructionE
_ZN4vixl7aarch649Simulator38VisitNEONLoadStoreMultiStructPostIndexEPKNS0_11InstructionE
_ZN4vixl7aarch649Simulator39VisitNEONLoadStoreSingleStructPostIndexEPKNS0_11InstructionE
_ZN4vixl7aarch649Simulator3RunEv
_ZN4vixl7aarch649Simulator3absENS0_12VectorFormatENS0_14LogicVRegisterERKS3_
_ZN4vixl7aarch649Simulator3addENS0_12VectorFormatENS0_14LogicVRegisterERKS3_S5_
_ZN4vixl7aarch649Simulator3bicENS0_12VectorFormatENS0_14LogicVRegisterERKS3_S5_
_ZN4vixl7aarch649Simulator3bicENS0_12VectorFormatENS0_14LogicVRegisterERKS3_m
_ZN4vixl7aarch649Simulator3bifENS0_12VectorFormatENS0_14LogicVRegisterERKS3_S5_
_ZN4vixl7aarch649Simulator3bitENS0_12VectorFormatENS0_14LogicVRegisterERKS3_S5_
_ZN4vixl7aarch649Simulator3bslENS0_12VectorFormatENS0_14LogicVRegisterERKS3_S5_
_ZN4vixl7aarch649Simulator3clsENS0_12VectorFormatENS0_14LogicVRegisterERKS3_
_ZN4vixl7aarch649Simulator3clzENS0_12VectorFormatENS0_14LogicVRegisterERKS3_
_ZN4vixl7aarch649Simulator3cmpENS0_12VectorFormatENS0_14LogicVRegisterERKS3_S5_NS0_9ConditionE
_ZN4vixl7aarch649Simulator3cmpENS0_12VectorFormatENS0_14LogicVRegisterERKS3_iNS0_9ConditionE
_ZN4vixl7aarch649Simulator3cntENS0_12VectorFormatENS0_14LogicVRegisterERKS3_
_ZN4vixl7aarch649Simulator3eorENS0_12VectorFormatENS0_14LogicVRegisterERKS3_S5_
_ZN4vixl7aarch649Simulator3extENS0_12VectorFormatENS0_14LogicVRegisterERKS3_S5_i
_ZN4vixl7aarch649Simulator3ld1ENS0_12VectorFormatENS0_14LogicVRegisterEim
_ZN4vixl7aarch649Simulator3ld1ENS0_12VectorFormatENS0_14LogicVRegisterEm
_ZN4vixl7aarch649Simulator3ld2ENS0_12VectorFormatENS0_14LogicVRegisterES3_im
_ZN4vixl7aarch649Simulator3ld2ENS0_12VectorFormatENS0_14LogicVRegisterES3_m
_ZN4vixl7aarch649Simulator3ld3ENS0_12VectorFormatENS0_14LogicVRegisterES3_S3_im
_ZN4vixl7aarch649Simulator3ld3ENS0_12VectorFormatENS0_14LogicVRegisterES3_S3_m
_ZN4vixl7aarch649Simulator3ld4ENS0_12VectorFormatENS0_14LogicVRegisterES3_S3_S3_im
_ZN4vixl7aarch649Simulator3ld4ENS0_12VectorFormatENS0_14LogicVRegisterES3_S3_S3_m
_ZN4vixl7aarch649Simulator3mlaENS0_12VectorFormatENS0_14LogicVRegisterERKS3_S5_
_ZN4vixl7aarch649Simulator3mlaENS0_12VectorFormatENS0_14LogicVRegisterERKS3_S5_i
_ZN4vixl7aarch649Simulator3mlsENS0_12VectorFormatENS0_14LogicVRegisterERKS3_S5_
_ZN4vixl7aarch649Simulator3mlsENS0_12VectorFormatENS0_14LogicVRegisterERKS3_S5_i
_ZN4vixl7aarch649Simulator3mulENS0_12VectorFormatENS0_14LogicVRegisterERKS3_S5_
_ZN4vixl7aarch649Simulator3mulENS0_12VectorFormatENS0_14LogicVRegisterERKS3_S5_i
_ZN4vixl7aarch649Simulator3negENS0_12VectorFormatENS0_14LogicVRegisterERKS3_
_ZN4vixl7aarch649Simulator3ornENS0_12VectorFormatENS0_14LogicVRegisterERKS3_S5_
_ZN4vixl7aarch649Simulator3orrENS0_12VectorFormatENS0_14LogicVRegisterERKS3_S5_
_ZN4vixl7aarch649Simulator3orrENS0_12VectorFormatENS0_14LogicVRegisterERKS3_m
_ZN4vixl7aarch649Simulator3revENS0_12VectorFormatENS0_14LogicVRegisterERKS3_i
_ZN4vixl7aarch649Simulator3shlENS0_12VectorFormatENS0_14LogicVRegisterERKS3_i
_ZN4vixl7aarch649Simulator3sliENS0_12VectorFormatENS0_14LogicVRegisterERKS3_i
_ZN4vixl7aarch649Simulator3sriENS0_12VectorFormatENS0_14LogicVRegisterERKS3_i
_ZN4vixl7aarch649Simulator3st1ENS0_12VectorFormatENS0_14LogicVRegisterEim
_ZN4vixl7aarch649Simulator3st1ENS0_12VectorFormatENS0_14LogicVRegisterEm
_ZN4vixl7aarch649Simulator3st2ENS0_12VectorFormatENS0_14LogicVRegisterES3_im
_ZN4vixl7aarch649Simulator3st2ENS0_12VectorFormatENS0_14LogicVRegisterES3_m
_ZN4vixl7aarch649Simulator3st3ENS0_12VectorFormatENS0_14LogicVRegisterES3_S3_im
_ZN4vixl7aarch649Simulator3st3ENS0_12VectorFormatENS0_14LogicVRegisterES3_S3_m
_ZN4vixl7aarch649Simulator3st4ENS0_12VectorFormatENS0_14LogicVRegisterES3_S3_S3_im
_ZN4vixl7aarch649Simulator3st4ENS0_12VectorFormatENS0_14LogicVRegisterES3_S3_S3_m
_ZN4vixl7aarch649Simulator3subENS0_12VectorFormatENS0_14LogicVRegisterERKS3_S5_
_ZN4vixl7aarch649Simulator3tblENS0_12VectorFormatENS0_14LogicVRegisterERKS3_S5_
_ZN4vixl7aarch649Simulator3tblENS0_12VectorFormatENS0_14LogicVRegisterERKS3_S5_S5_
_ZN4vixl7aarch649Simulator3tblENS0_12VectorFormatENS0_14LogicVRegisterERKS3_S5_S5_S5_
_ZN4vixl7aarch649Simulator3tblENS0_12VectorFormatENS0_14LogicVRegisterERKS3_S5_S5_S5_S5_
_ZN4vixl7aarch649Simulator3tbxENS0_12VectorFormatENS0_14LogicVRegisterERKS3_S5_
_ZN4vixl7aarch649Simulator3tbxENS0_12VectorFormatENS0_14LogicVRegisterERKS3_S5_S5_
_ZN4vixl7aarch649Simulator3tbxENS0_12VectorFormatENS0_14LogicVRegisterERKS3_S5_S5_S5_
_ZN4vixl7aarch649Simulator3tbxENS0_12VectorFormatENS0_14LogicVRegisterERKS3_S5_S5_S5_S5_
_ZN4vixl7aarch649Simulator3xtnENS0_12VectorFormatENS0_14LogicVRegisterERKS3_
_ZN4vixl7aarch649Simulator4addpENS0_12VectorFormatENS0_14LogicVRegisterERKS3_
_ZN4vixl7aarch649Simulator4addpENS0_12VectorFormatENS0_14LogicVRegisterERKS3_S5_
_ZN4vixl7aarch649Simulator4addvENS0_12VectorFormatENS0_14LogicVRegisterERKS3_
_ZN4vixl7aarch649Simulator4and_ENS0_12VectorFormatENS0_14LogicVRegisterERKS3_S5_
_ZN4vixl7aarch649Simulator4fabdENS0_12VectorFormatENS0_14LogicVRegisterERKS3_S5_
_ZN4vixl7aarch649Simulator4faddENS0_12VectorFormatENS0_14LogicVRegisterERKS3_S5_
_ZN4vixl7aarch649Simulator4fcmpENS0_12VectorFormatENS0_14LogicVRegisterERKS3_S5_NS0_9ConditionE
_ZN4vixl7aarch649Simulator4fdivENS0_12VectorFormatENS0_14LogicVRegisterERKS3_S5_
_ZN4vixl7aarch649Simulator4fmaxENS0_12VectorFormatENS0_14LogicVRegisterERKS3_S5_
_ZN4vixl7aarch649Simulator4fminENS0_12VectorFormatENS0_14LogicVRegisterERKS3_S5_
_ZN4vixl7aarch649Simulator4fmlaENS0_12VectorFormatENS0_14LogicVRegisterERKS3_S5_
_ZN4vixl7aarch649Simulator4fmlaENS0_12VectorFormatENS0_14LogicVRegisterERKS3_S5_i
_ZN4vixl7aarch649Simulator4fmlsENS0_12VectorFormatENS0_14LogicVRegisterERKS3_S5_
_ZN4vixl7aarch649Simulator4fmlsENS0_12VectorFormatENS0_14LogicVRegisterERKS3_S5_i
_ZN4vixl7aarch649Simulator4fmulENS0_12VectorFormatENS0_14LogicVRegisterERKS3_S5_
_ZN4vixl7aarch649Simulator4fmulENS0_12VectorFormatENS0_14LogicVRegisterERKS3_S5_i
_ZN4vixl7aarch649Simulator4fnegENS0_12VectorFormatENS0_14LogicVRegisterERKS3_
_ZN4vixl7aarch649Simulator4fsubENS0_12VectorFormatENS0_14LogicVRegisterERKS3_S5_
_ZN4vixl7aarch649Simulator4ld1rENS0_12VectorFormatENS0_14LogicVRegisterEm
_ZN4vixl7aarch649Simulator4ld2rENS0_12VectorFormatENS0_14LogicVRegisterES3_m
_ZN4vixl7aarch649Simulator4ld3rENS0_12VectorFormatENS0_14LogicVRegisterES3_S3_m
_ZN4vixl7aarch649Simulator4ld4rENS0_12VectorFormatENS0_14LogicVRegisterES3_S3_S3_m
_ZN4vixl7aarch649Simulator4moviENS0_12VectorFormatENS0_14LogicVRegisterEm
_ZN4vixl7aarch649Simulator4mvniENS0_12VectorFormatENS0_14LogicVRegisterEm
_ZN4vixl7aarch649Simulator4not_ENS0_12VectorFormatENS0_14LogicVRegisterERKS3_
_ZN4vixl7aarch649Simulator4pmulENS0_12VectorFormatENS0_14LogicVRegisterERKS3_S5_
_ZN4vixl7aarch649Simulator4rbitENS0_12VectorFormatENS0_14LogicVRegisterERKS3_
_ZN4vixl7aarch649Simulator4sabaENS0_12VectorFormatENS0_14LogicVRegisterERKS3_S5_
_ZN4vixl7aarch649Simulator4shllENS0_12VectorFormatENS0_14LogicVRegisterERKS3_
_ZN4vixl7aarch649Simulator4shrnENS0_12VectorFormatENS0_14LogicVRegisterERKS3_i
_ZN4vixl7aarch649Simulator4smaxENS0_12VectorFormatENS0_14LogicVRegisterERKS3_S5_
_ZN4vixl7aarch649Simulator4sminENS0_12VectorFormatENS0_14LogicVRegisterERKS3_S5_
_ZN4vixl7aarch649Simulator4sshlENS0_12VectorFormatENS0_14LogicVRegisterERKS3_S5_
_ZN4vixl7aarch649Simulator4sshrENS0_12VectorFormatENS0_14LogicVRegisterERKS3_i
_ZN4vixl7aarch649Simulator4ssraENS0_12VectorFormatENS0_14LogicVRegisterERKS3_i
_ZN4vixl7aarch649Simulator4sxtlENS0_12VectorFormatENS0_14LogicVRegisterERKS3_
_ZN4vixl7aarch649Simulator4trn1ENS0_12VectorFormatENS0_14LogicVRegisterERKS3_S5_
_ZN4vixl7aarch649Simulator4trn2ENS0_12VectorFormatENS0_14LogicVRegisterERKS3_S5_
_ZN4vixl7aarch649Simulator4uabaENS0_12VectorFormatENS0_14LogicVRegisterERKS3_S5_
_ZN4vixl7aarch649Simulator4umaxENS0_12VectorFormatENS0_14LogicVRegisterERKS3_S5_
_ZN4vixl7aarch649Simulator4uminENS0_12VectorFormatENS0_14LogicVRegisterERKS3_S5_
_ZN4vixl7aarch649Simulator4ushlENS0_12VectorFormatENS0_14LogicVRegisterERKS3_S5_
_ZN4vixl7aarch649Simulator4ushrENS0_12VectorFormatENS0_14LogicVRegisterERKS3_i
_ZN4vixl7aarch649Simulator4usraENS0_12VectorFormatENS0_14LogicVRegisterERKS3_i
_ZN4vixl7aarch649Simulator4uxtlENS0_12VectorFormatENS0_14LogicVRegisterERKS3_
_ZN4vixl7aarch649Simulator4uzp1ENS0_12VectorFormatENS0_14LogicVRegisterERKS3_S5_
_ZN4vixl7aarch649Simulator4uzp2ENS0_12VectorFormatENS0_14LogicVRegisterERKS3_S5_
_ZN4vixl7aarch649Simulator4zip1ENS0_12VectorFormatENS0_14LogicVRegisterERKS3_S5_
_ZN4vixl7aarch649Simulator4zip2ENS0_12VectorFormatENS0_14LogicVRegisterERKS3_S5_
_ZN4vixl7aarch649Simulator5DoLogEPKNS0_11InstructionE
_ZN4vixl7aarch649Simulator5TableENS0_12VectorFormatENS0_14LogicVRegisterERKS3_bPS4_S6_S6_S6_
_ZN4vixl7aarch649Simulator5addhnENS0_12VectorFormatENS0_14LogicVRegisterERKS3_S5_
_ZN4vixl7aarch649Simulator5addlpENS0_12VectorFormatENS0_14LogicVRegisterERKS3_bb
_ZN4vixl7aarch649Simulator5fabs_ENS0_12VectorFormatENS0_14LogicVRegisterERKS3_
_ZN4vixl7aarch649Simulator5faddpENS0_12VectorFormatENS0_14LogicVRegisterERKS3_
_ZN4vixl7aarch649Simulator5faddpENS0_12VectorFormatENS0_14LogicVRegisterERKS3_S5_
_ZN4vixl7aarch649Simulator5fcvtlENS0_12VectorFormatENS0_14LogicVRegisterERKS3_
_ZN4vixl7aarch649Simulator5fcvtnENS0_12VectorFormatENS0_14LogicVRegisterERKS3_
_ZN4vixl7aarch649Simulator5fcvtsENS0_12VectorFormatENS0_14LogicVRegisterERKS3_NS0_10FPRoundingEi
_ZN4vixl7aarch649Simulator5fcvtuENS0_12VectorFormatENS0_14LogicVRegisterERKS3_NS0_10FPRoundingEi
_ZN4vixl7aarch649Simulator5fmaxpENS0_12VectorFormatENS0_14LogicVRegisterERKS3_
_ZN4vixl7aarch649Simulator5fmaxpENS0_12VectorFormatENS0_14LogicVRegisterERKS3_S5_
_ZN4vixl7aarch649Simulator5fmaxvENS0_12VectorFormatENS0_14LogicVRegisterERKS3_
_ZN4vixl7aarch649Simulator5fminpENS0_12VectorFormatENS0_14LogicVRegisterERKS3_
_ZN4vixl7aarch649Simulator5fminpENS0_12VectorFormatENS0_14LogicVRegisterERKS3_S5_
_ZN4vixl7aarch649Simulator5fminvENS0_12VectorFormatENS0_14LogicVRegisterERKS3_
_ZN4vixl7aarch649Simulator5fmulxENS0_12VectorFormatENS0_14LogicVRegisterERKS3_S5_
_ZN4vixl7aarch649Simulator5fmulxENS0_12VectorFormatENS0_14LogicVRegisterERKS3_S5_i
_ZN4vixl7aarch649Simulator5fnmulENS0_12VectorFormatENS0_14LogicVRegisterERKS3_S5_
_ZN4vixl7aarch649Simulator5frintENS0_12VectorFormatENS0_14LogicVRegisterERKS3_NS0_10FPRoundingEb
_ZN4vixl7aarch649Simulator5fsqrtENS0_12VectorFormatENS0_14LogicVRegisterERKS3_
_ZN4vixl7aarch649Simulator5pmullENS0_12VectorFormatENS0_14LogicVRegisterERKS3_S5_
_ZN4vixl7aarch649Simulator5rev16ENS0_12VectorFormatENS0_14LogicVRegisterERKS3_
_ZN4vixl7aarch649Simulator5rev32ENS0_12VectorFormatENS0_14LogicVRegisterERKS3_
_ZN4vixl7aarch649Simulator5rev64ENS0_12VectorFormatENS0_14LogicVRegisterERKS3_
_ZN4vixl7aarch649Simulator5rshrnENS0_12VectorFormatENS0_14LogicVRegisterERKS3_i
_ZN4vixl7aarch649Simulator5sabalENS0_12VectorFormatENS0_14LogicVRegisterERKS3_S5_
_ZN4vixl7aarch649Simulator5sabdlENS0_12VectorFormatENS0_14LogicVRegisterERKS3_S5_
_ZN4vixl7aarch649Simulator5saddlENS0_12VectorFormatENS0_14LogicVRegisterERKS3_S5_
_ZN4vixl7aarch649Simulator5saddwENS0_12VectorFormatENS0_14LogicVRegisterERKS3_S5_
_ZN4vixl7aarch649Simulator5scvtfENS0_12VectorFormatENS0_14LogicVRegisterERKS3_iNS0_10FPRoundingE
_ZN4vixl7aarch649Simulator5shll2ENS0_12VectorFormatENS0_14LogicVRegisterERKS3_
_ZN4vixl7aarch649Simulator5shrn2ENS0_12VectorFormatENS0_14LogicVRegisterERKS3_i
_ZN4vixl7aarch649Simulator5smaxpENS0_12VectorFormatENS0_14LogicVRegisterERKS3_S5_
_ZN4vixl7aarch649Simulator5smaxvENS0_12VectorFormatENS0_14LogicVRegisterERKS3_
_ZN4vixl7aarch649Simulator5sminpENS0_12VectorFormatENS0_14LogicVRegisterERKS3_S5_
_ZN4vixl7aarch649Simulator5sminvENS0_12VectorFormatENS0_14LogicVRegisterERKS3_
_ZN4vixl7aarch649Simulator5smlalENS0_12VectorFormatENS0_14LogicVRegisterERKS3_S5_
_ZN4vixl7aarch649Simulator5smlalENS0_12VectorFormatENS0_14LogicVRegisterERKS3_S5_i
_ZN4vixl7aarch649Simulator5smlslENS0_12VectorFormatENS0_14LogicVRegisterERKS3_S5_
_ZN4vixl7aarch649Simulator5smlslENS0_12VectorFormatENS0_14LogicVRegisterERKS3_S5_i
_ZN4vixl7aarch649Simulator5smullENS0_12VectorFormatENS0_14LogicVRegisterERKS3_S5_
_ZN4vixl7aarch649Simulator5smullENS0_12VectorFormatENS0_14LogicVRegisterERKS3_S5_i
_ZN4vixl7aarch649Simulator5sqshlENS0_12VectorFormatENS0_14LogicVRegisterERKS3_i
_ZN4vixl7aarch649Simulator5sqxtnENS0_12VectorFormatENS0_14LogicVRegisterERKS3_
_ZN4vixl7aarch649Simulator5srsraENS0_12VectorFormatENS0_14LogicVRegisterERKS3_i
_ZN4vixl7aarch649Simulator5sshllENS0_12VectorFormatENS0_14LogicVRegisterERKS3_i
_ZN4vixl7aarch649Simulator5ssublENS0_12VectorFormatENS0_14LogicVRegisterERKS3_S5_
_ZN4vixl7aarch649Simulator5ssubwENS0_12VectorFormatENS0_14LogicVRegisterERKS3_S5_
_ZN4vixl7aarch649Simulator5subhnENS0_12VectorFormatENS0_14LogicVRegisterERKS3_S5_
_ZN4vixl7aarch649Simulator5sxtl2ENS0_12VectorFormatENS0_14LogicVRegisterERKS3_
_ZN4vixl7aarch649Simulator5uabalENS0_12VectorFormatENS0_14LogicVRegisterERKS3_S5_
_ZN4vixl7aarch649Simulator5uabdlENS0_12VectorFormatENS0_14LogicVRegisterERKS3_S5_
_ZN4vixl7aarch649Simulator5uaddlENS0_12VectorFormatENS0_14LogicVRegisterERKS3_S5_
_ZN4vixl7aarch649Simulator5uaddwENS0_12VectorFormatENS0_14LogicVRegisterERKS3_S5_
_ZN4vixl7aarch649Simulator5ucvtfENS0_12VectorFormatENS0_14LogicVRegisterERKS3_iNS0_10FPRoundingE
_ZN4vixl7aarch649Simulator5umaxpENS0_12VectorFormatENS0_14LogicVRegisterERKS3_S5_
_ZN4vixl7aarch649Simulator5umaxvENS0_12VectorFormatENS0_14LogicVRegisterERKS3_
_ZN4vixl7aarch649Simulator5uminpENS0_12VectorFormatENS0_14LogicVRegisterERKS3_S5_
_ZN4vixl7aarch649Simulator5uminvENS0_12VectorFormatENS0_14LogicVRegisterERKS3_
_ZN4vixl7aarch649Simulator5umlalENS0_12VectorFormatENS0_14LogicVRegisterERKS3_S5_
_ZN4vixl7aarch649Simulator5umlalENS0_12VectorFormatENS0_14LogicVRegisterERKS3_S5_i
_ZN4vixl7aarch649Simulator5umlslENS0_12VectorFormatENS0_14LogicVRegisterERKS3_S5_
_ZN4vixl7aarch649Simulator5umlslENS0_12VectorFormatENS0_14LogicVRegisterERKS3_S5_i
_ZN4vixl7aarch649Simulator5umullENS0_12VectorFormatENS0_14LogicVRegisterERKS3_S5_
_ZN4vixl7aarch649Simulator5umullENS0_12VectorFormatENS0_14LogicVRegisterERKS3_S5_i
_ZN4vixl7aarch649Simulator5uqshlENS0_12VectorFormatENS0_14LogicVRegisterERKS3_i
_ZN4vixl7aarch649Simulator5uqxtnENS0_12VectorFormatENS0_14LogicVRegisterERKS3_
_ZN4vixl7aarch649Simulator5ursraENS0_12VectorFormatENS0_14LogicVRegisterERKS3_i
_ZN4vixl7aarch649Simulator5ushllENS0_12VectorFormatENS0_14LogicVRegisterERKS3_i
_ZN4vixl7aarch649Simulator5usublENS0_12VectorFormatENS0_14LogicVRegisterERKS3_S5_
_ZN4vixl7aarch649Simulator5usubwENS0_12VectorFormatENS0_14LogicVRegisterERKS3_S5_
_ZN4vixl7aarch649Simulator5uxtl2ENS0_12VectorFormatENS0_14LogicVRegisterERKS3_
_ZN4vixl7aarch649Simulator6addhn2ENS0_12VectorFormatENS0_14LogicVRegisterERKS3_S5_
_ZN4vixl7aarch649Simulator6cmptstENS0_12VectorFormatENS0_14LogicVRegisterERKS3_S5_
_ZN4vixl7aarch649Simulator6fcvtl2ENS0_12VectorFormatENS0_14LogicVRegisterERKS3_
_ZN4vixl7aarch649Simulator6fcvtn2ENS0_12VectorFormatENS0_14LogicVRegisterERKS3_
_ZN4vixl7aarch649Simulator6fcvtxnENS0_12VectorFormatENS0_14LogicVRegisterERKS3_
_ZN4vixl7aarch649Simulator6fmaxnmENS0_12VectorFormatENS0_14LogicVRegisterERKS3_S5_
_ZN4vixl7aarch649Simulator6fminnmENS0_12VectorFormatENS0_14LogicVRegisterERKS3_S5_
_ZN4vixl7aarch649Simulator6frecpeENS0_12VectorFormatENS0_14LogicVRegisterERKS3_NS0_10FPRoundingE
_ZN4vixl7aarch649Simulator6frecpsENS0_12VectorFormatENS0_14LogicVRegisterERKS3_S5_
_ZN4vixl7aarch649Simulator6frecpxENS0_12VectorFormatENS0_14LogicVRegisterERKS3_
_ZN4vixl7aarch649Simulator6pmull2ENS0_12VectorFormatENS0_14LogicVRegisterERKS3_S5_
_ZN4vixl7aarch649Simulator6raddhnENS0_12VectorFormatENS0_14LogicVRegisterERKS3_S5_
_ZN4vixl7aarch649Simulator6rshrn2ENS0_12VectorFormatENS0_14LogicVRegisterERKS3_i
_ZN4vixl7aarch649Simulator6rsubhnENS0_12VectorFormatENS0_14LogicVRegisterERKS3_S5_
_ZN4vixl7aarch649Simulator6sabal2ENS0_12VectorFormatENS0_14LogicVRegisterERKS3_S5_
_ZN4vixl7aarch649Simulator6sabdl2ENS0_12VectorFormatENS0_14LogicVRegisterERKS3_S5_
_ZN4vixl7aarch649Simulator6sadalpENS0_12VectorFormatENS0_14LogicVRegisterERKS3_
_ZN4vixl7aarch649Simulator6saddl2ENS0_12VectorFormatENS0_14LogicVRegisterERKS3_S5_
_ZN4vixl7aarch649Simulator6saddlpENS0_12VectorFormatENS0_14LogicVRegisterERKS3_
_ZN4vixl7aarch649Simulator6saddlvENS0_12VectorFormatENS0_14LogicVRegisterERKS3_
_ZN4vixl7aarch649Simulator6saddw2ENS0_12VectorFormatENS0_14LogicVRegisterERKS3_S5_
_ZN4vixl7aarch649Simulator6smlal2ENS0_12VectorFormatENS0_14LogicVRegisterERKS3_S5_
_ZN4vixl7aarch649Simulator6smlal2ENS0_12VectorFormatENS0_14LogicVRegisterERKS3_S5_i
_ZN4vixl7aarch649Simulator6smlsl2ENS0_12VectorFormatENS0_14LogicVRegisterERKS3_S5_
_ZN4vixl7aarch649Simulator6smlsl2ENS0_12VectorFormatENS0_14LogicVRegisterERKS3_S5_i
_ZN4vixl7aarch649Simulator6smull2ENS0_12VectorFormatENS0_14LogicVRegisterERKS3_S5_
_ZN4vixl7aarch649Simulator6smull2ENS0_12VectorFormatENS0_14LogicVRegisterERKS3_S5_i
_ZN4vixl7aarch649Simulator6sqshluENS0_12VectorFormatENS0_14LogicVRegisterERKS3_i
_ZN4vixl7aarch649Simulator6sqshrnENS0_12VectorFormatENS0_14LogicVRegisterERKS3_i
_ZN4vixl7aarch649Simulator6sqxtunENS0_12VectorFormatENS0_14LogicVRegisterERKS3_
_ZN4vixl7aarch649Simulator6sshll2ENS0_12VectorFormatENS0_14LogicVRegisterERKS3_i
_ZN4vixl7aarch649Simulator6ssubl2ENS0_12VectorFormatENS0_14LogicVRegisterERKS3_S5_
_ZN4vixl7aarch649Simulator6ssubw2ENS0_12VectorFormatENS0_14LogicVRegisterERKS3_S5_
_ZN4vixl7aarch649Simulator6subhn2ENS0_12VectorFormatENS0_14LogicVRegisterERKS3_S5_
_ZN4vixl7aarch649Simulator6suqaddENS0_12VectorFormatENS0_14LogicVRegisterERKS3_
_ZN4vixl7aarch649Simulator6uabal2ENS0_12VectorFormatENS0_14LogicVRegisterERKS3_S5_
_ZN4vixl7aarch649Simulator6uabdl2ENS0_12VectorFormatENS0_14LogicVRegisterERKS3_S5_
_ZN4vixl7aarch649Simulator6uadalpENS0_12VectorFormatENS0_14LogicVRegisterERKS3_
_ZN4vixl7aarch649Simulator6uaddl2ENS0_12VectorFormatENS0_14LogicVRegisterERKS3_S5_
_ZN4vixl7aarch649Simulator6uaddlpENS0_12VectorFormatENS0_14LogicVRegisterERKS3_
_ZN4vixl7aarch649Simulator6uaddlvENS0_12VectorFormatENS0_14LogicVRegisterERKS3_
_ZN4vixl7aarch649Simulator6uaddw2ENS0_12VectorFormatENS0_14LogicVRegisterERKS3_S5_
_ZN4vixl7aarch649Simulator6umlal2ENS0_12VectorFormatENS0_14LogicVRegisterERKS3_S5_
_ZN4vixl7aarch649Simulator6umlal2ENS0_12VectorFormatENS0_14LogicVRegisterERKS3_S5_i
_ZN4vixl7aarch649Simulator6umlsl2ENS0_12VectorFormatENS0_14LogicVRegisterERKS3_S5_
_ZN4vixl7aarch649Simulator6umlsl2ENS0_12VectorFormatENS0_14LogicVRegisterERKS3_S5_i
_ZN4vixl7aarch649Simulator6umull2ENS0_12VectorFormatENS0_14LogicVRegisterERKS3_S5_
_ZN4vixl7aarch649Simulator6umull2ENS0_12VectorFormatENS0_14LogicVRegisterERKS3_S5_i
_ZN4vixl7aarch649Simulator6uqshrnENS0_12VectorFormatENS0_14LogicVRegisterERKS3_i
_ZN4vixl7aarch649Simulator6urecpeENS0_12VectorFormatENS0_14LogicVRegisterERKS3_
_ZN4vixl7aarch649Simulator6ushll2ENS0_12VectorFormatENS0_14LogicVRegisterERKS3_i
_ZN4vixl7aarch649Simulator6usqaddENS0_12VectorFormatENS0_14LogicVRegisterERKS3_
_ZN4vixl7aarch649Simulator6usubl2ENS0_12VectorFormatENS0_14LogicVRegisterERKS3_S5_
_ZN4vixl7aarch649Simulator6usubw2ENS0_12VectorFormatENS0_14LogicVRegisterERKS3_S5_
_ZN4vixl7aarch649Simulator7DoTraceEPKNS0_11InstructionE
_ZN4vixl7aarch649Simulator7RunFromEPKNS0_11InstructionE
_ZN4vixl7aarch649Simulator7SysOp_WEil
_ZN4vixl7aarch649Simulator7absdiffENS0_12VectorFormatENS0_14LogicVRegisterERKS3_S5_b
_ZN4vixl7aarch649Simulator7fabscmpENS0_12VectorFormatENS0_14LogicVRegisterERKS3_S5_NS0_9ConditionE
_ZN4vixl7aarch649Simulator7fcvtxn2ENS0_12VectorFormatENS0_14LogicVRegisterERKS3_
_ZN4vixl7aarch649Simulator7fmaxnmpENS0_12VectorFormatENS0_14LogicVRegisterERKS3_
_ZN4vixl7aarch649Simulator7fmaxnmpENS0_12VectorFormatENS0_14LogicVRegisterERKS3_S5_
_ZN4vixl7aarch649Simulator7fmaxnmvENS0_12VectorFormatENS0_14LogicVRegisterERKS3_
_ZN4vixl7aarch649Simulator7fminnmpENS0_12VectorFormatENS0_14LogicVRegisterERKS3_
_ZN4vixl7aarch649Simulator7fminnmpENS0_12VectorFormatENS0_14LogicVRegisterERKS3_S5_
_ZN4vixl7aarch649Simulator7fminnmvENS0_12VectorFormatENS0_14LogicVRegisterERKS3_
_ZN4vixl7aarch649Simulator7frsqrteENS0_12VectorFormatENS0_14LogicVRegisterERKS3_
_ZN4vixl7aarch649Simulator7frsqrtsENS0_12VectorFormatENS0_14LogicVRegisterERKS3_S5_
_ZN4vixl7aarch649Simulator7raddhn2ENS0_12VectorFormatENS0_14LogicVRegisterERKS3_S5_
_ZN4vixl7aarch649Simulator7rsubhn2ENS0_12VectorFormatENS0_14LogicVRegisterERKS3_S5_
_ZN4vixl7aarch649Simulator7sminmaxENS0_12VectorFormatENS0_14LogicVRegisterERKS3_S5_b
_ZN4vixl7aarch649Simulator7sqdmlalENS0_12VectorFormatENS0_14LogicVRegisterERKS3_S5_
_ZN4vixl7aarch649Simulator7sqdmlalENS0_12VectorFormatENS0_14LogicVRegisterERKS3_S5_i
_ZN4vixl7aarch649Simulator7sqdmlslENS0_12VectorFormatENS0_14LogicVRegisterERKS3_S5_
_ZN4vixl7aarch649Simulator7sqdmlslENS0_12VectorFormatENS0_14LogicVRegisterERKS3_S5_i
_ZN4vixl7aarch649Simulator7sqdmulhENS0_12VectorFormatENS0_14LogicVRegisterERKS3_S5_
_ZN4vixl7aarch649Simulator7sqdmulhENS0_12VectorFormatENS0_14LogicVRegisterERKS3_S5_i
_ZN4vixl7aarch649Simulator7sqdmullENS0_12VectorFormatENS0_14LogicVRegisterERKS3_S5_
_ZN4vixl7aarch649Simulator7sqdmullENS0_12VectorFormatENS0_14LogicVRegisterERKS3_S5_i
_ZN4vixl7aarch649Simulator7sqrshrnENS0_12VectorFormatENS0_14LogicVRegisterERKS3_i
_ZN4vixl7aarch649Simulator7sqshrn2ENS0_12VectorFormatENS0_14LogicVRegisterERKS3_i
_ZN4vixl7aarch649Simulator7sqshrunENS0_12VectorFormatENS0_14LogicVRegisterERKS3_i
_ZN4vixl7aarch649Simulator7uminmaxENS0_12VectorFormatENS0_14LogicVRegisterERKS3_S5_b
_ZN4vixl7aarch649Simulator7uqrshrnENS0_12VectorFormatENS0_14LogicVRegisterERKS3_i
_ZN4vixl7aarch649Simulator7uqshrn2ENS0_12VectorFormatENS0_14LogicVRegisterERKS3_i
_ZN4vixl7aarch649Simulator7ursqrteENS0_12VectorFormatENS0_14LogicVRegisterERKS3_
_ZN4vixl7aarch649Simulator8DoPrintfEPKNS0_11InstructionE
_ZN4vixl7aarch649Simulator8fminmaxvENS0_12VectorFormatENS0_14LogicVRegisterERKS3_MS1_FfffE
_ZN4vixl7aarch649Simulator8sminmaxpENS0_12VectorFormatENS0_14LogicVRegisterERKS3_S5_b
_ZN4vixl7aarch649Simulator8sminmaxvENS0_12VectorFormatENS0_14LogicVRegisterERKS3_b
_ZN4vixl7aarch649Simulator8sqdmlal2ENS0_12VectorFormatENS0_14LogicVRegisterERKS3_S5_
_ZN4vixl7aarch649Simulator8sqdmlal2ENS0_12VectorFormatENS0_14LogicVRegisterERKS3_S5_i
_ZN4vixl7aarch649Simulator8sqdmlsl2ENS0_12VectorFormatENS0_14LogicVRegisterERKS3_S5_
_ZN4vixl7aarch649Simulator8sqdmlsl2ENS0_12VectorFormatENS0_14LogicVRegisterERKS3_S5_i
_ZN4vixl7aarch649Simulator8sqdmull2ENS0_12VectorFormatENS0_14LogicVRegisterERKS3_S5_
_ZN4vixl7aarch649Simulator8sqdmull2ENS0_12VectorFormatENS0_14LogicVRegisterERKS3_S5_i
_ZN4vixl7aarch649Simulator8sqrdmulhENS0_12VectorFormatENS0_14LogicVRegisterERKS3_S5_b
_ZN4vixl7aarch649Simulator8sqrdmulhENS0_12VectorFormatENS0_14LogicVRegisterERKS3_S5_i
_ZN4vixl7aarch649Simulator8sqrshrn2ENS0_12VectorFormatENS0_14LogicVRegisterERKS3_i
_ZN4vixl7aarch649Simulator8sqrshrunENS0_12VectorFormatENS0_14LogicVRegisterERKS3_i
_ZN4vixl7aarch649Simulator8sqshrun2ENS0_12VectorFormatENS0_14LogicVRegisterERKS3_i
_ZN4vixl7aarch649Simulator8uminmaxpENS0_12VectorFormatENS0_14LogicVRegisterERKS3_S5_b
_ZN4vixl7aarch649Simulator8uminmaxvENS0_12VectorFormatENS0_14LogicVRegisterERKS3_b
_ZN4vixl7aarch649Simulator8uqrshrn2ENS0_12VectorFormatENS0_14LogicVRegisterERKS3_i
_ZN4vixl7aarch649Simulator9FPCompareEddNS0_11FPTrapFlagsE
_ZN4vixl7aarch649Simulator9FPToFloatEdNS0_10FPRoundingE
_ZN4vixl7aarch649Simulator9FPToFloatEt
_ZN4vixl7aarch649Simulator9FPToInt32EdNS0_10FPRoundingE
_ZN4vixl7aarch649Simulator9FPToInt64EdNS0_10FPRoundingE
_ZN4vixl7aarch649Simulator9PrintReadEmjNS1_19PrintRegisterFormatE
_ZN4vixl7aarch649Simulator9fcmp_zeroENS0_12VectorFormatENS0_14LogicVRegisterERKS3_NS0_9ConditionE
_ZN4vixl7aarch649Simulator9sqrshrun2ENS0_12VectorFormatENS0_14LogicVRegisterERKS3_i
_ZN4vixl7aarch649SimulatorC1EPNS0_7DecoderEP7__sFILE
_ZN4vixl7aarch649SimulatorC2EPNS0_7DecoderEP7__sFILE
_ZN4vixl7aarch649SimulatorD0Ev
_ZN4vixl7aarch649SimulatorD1Ev
_ZN4vixl7aarch649SimulatorD2Ev
_ZN4vixl7aarch649VRegister10bregistersE
_ZN4vixl7aarch649VRegister10dregistersE
_ZN4vixl7aarch649VRegister10hregistersE
_ZN4vixl7aarch649VRegister10qregistersE
_ZN4vixl7aarch649VRegister10sregistersE
_ZN4vixl7aarch649VRegister10vregistersE
_ZN4vixl7aarch649VRegister15GetBRegFromCodeEj
_ZN4vixl7aarch649VRegister15GetDRegFromCodeEj
_ZN4vixl7aarch649VRegister15GetHRegFromCodeEj
_ZN4vixl7aarch649VRegister15GetQRegFromCodeEj
_ZN4vixl7aarch649VRegister15GetSRegFromCodeEj
_ZN4vixl7aarch649VRegister15GetVRegFromCodeEj
_ZN4vixl8BitCountENS_6Uint32E
_ZN4vixl8BitCountEm
_ZN4vixl8FloatExpEf
_ZN4vixl9DoubleExpEd
_ZN4vixl9FloatPackEjjj
_ZN4vixl9FloatSignEf
_ZNK4vixl7aarch6410CPURegList7IsValidEv
_ZNK4vixl7aarch6410MemOperand10IsPreIndexEv
_ZNK4vixl7aarch6410MemOperand11IsPostIndexEv
_ZNK4vixl7aarch6410MemOperand16IsRegisterOffsetEv
_ZNK4vixl7aarch6410MemOperand17IsImmediateOffsetEv
_ZNK4vixl7aarch6411CPURegister1BEv
_ZNK4vixl7aarch6411CPURegister1DEv
_ZNK4vixl7aarch6411CPURegister1HEv
_ZNK4vixl7aarch6411CPURegister1QEv
_ZNK4vixl7aarch6411CPURegister1SEv
_ZNK4vixl7aarch6411CPURegister1VEv
_ZNK4vixl7aarch6411CPURegister1WEv
_ZNK4vixl7aarch6411CPURegister1XEv
_ZNK4vixl7aarch6411Instruction10GetImmFP32Ev
_ZNK4vixl7aarch6411Instruction10GetImmFP64Ev
_ZNK4vixl7aarch6411Instruction12GetImmBranchEv
_ZNK4vixl7aarch6411Instruction13GetImmLogicalEv
_ZNK4vixl7aarch6411Instruction14GetImmNEONFP32Ev
_ZNK4vixl7aarch6411Instruction14GetImmNEONFP64Ev
_ZNK4vixl7aarch6411Instruction18GetImmNEONabcdefghEv
_ZNK4vixl7aarch6411Instruction20GetImmPCOffsetTargetEv
_ZNK4vixl7aarch6411Instruction6IsLoadEv
_ZNK4vixl7aarch6411Instruction7IsStoreEv
_ZNK4vixl7aarch6412AddressToken5PrintEP7__sFILE
_ZNK4vixl7aarch6412AddressToken9ToAddressEPNS0_8DebuggerE
_ZNK4vixl7aarch6412IntegerToken5PrintEP7__sFILE
_ZNK4vixl7aarch6412UnknownToken5PrintEP7__sFILE
_ZNK4vixl7aarch6413RegisterToken4NameEv
_ZNK4vixl7aarch6413RegisterToken5PrintEP7__sFILE
_ZNK4vixl7aarch6413RegisterToken9ToAddressEPNS0_8DebuggerE
_ZNK4vixl7aarch6414GenericOperand6EqualsERKS1_
_ZNK4vixl7aarch6415FPRegisterToken5PrintEP7__sFILE
_ZNK4vixl7aarch6415IdentifierToken5PrintEP7__sFILE
_ZNK4vixl7aarch6415IdentifierToken9ToAddressEPNS0_8DebuggerE
_ZNK4vixl7aarch6423UseScratchRegisterScope11IsAvailableERKNS0_11CPURegisterE
_ZNK4vixl7aarch647Operand11IsImmediateEv
_ZNK4vixl7aarch647Operand15IsPlainRegisterEv
_ZNK4vixl7aarch647Operand17IsShiftedRegisterEv
_ZNK4vixl7aarch647Operand18IsExtendedRegisterEv
_ZNK4vixl7aarch647Operand18ToExtendedRegisterEv
_ZNK4vixl7aarch647Operand6IsZeroEv
_ZNK4vixl7aarch649Simulator11ExtendValueEjlNS0_6ExtendEj
_ZNK4vixl7aarch649Simulator12ShiftOperandEjlNS0_5ShiftEj
_ZNK4vixl7aarch649Simulator14PolynomialMultEhh
_ZNK4vixl7aarch649Simulator24ComputeMemOperandAddressERKNS0_10MemOperandE
_ZTVN4vixl7aarch6410InstrumentE
_ZTVN4vixl7aarch6411HelpCommandE
_ZTVN4vixl7aarch6411SkipCommandE
_ZTVN4vixl7aarch6411StepCommandE
_ZTVN4vixl7aarch6412AddressTokenE
_ZTVN4vixl7aarch6412DebugCommandE
_ZTVN4vixl7aarch6412DisassemblerE
_ZTVN4vixl7aarch6412IntegerTokenE
_ZTVN4vixl7aarch6412PrintCommandE
_ZTVN4vixl7aarch6412UnknownTokenE
_ZTVN4vixl7aarch6413RegisterTokenE
_ZTVN4vixl7aarch6414ExamineCommandE
_ZTVN4vixl7aarch6414InvalidCommandE
_ZTVN4vixl7aarch6414MacroAssemblerE
_ZTVN4vixl7aarch6414UnknownCommandE
_ZTVN4vixl7aarch6415ContinueCommandE
_ZTVN4vixl7aarch6415FPRegisterTokenE
_ZTVN4vixl7aarch6415IdentifierTokenE
_ZTVN4vixl7aarch6417PrintDisassemblerE
_ZTVN4vixl7aarch648DebuggerE
_ZTVN4vixl7aarch649SimulatorE
_ZThn56_N4vixl7aarch6414MacroAssemblerD0Ev
_ZThn56_N4vixl7aarch6414MacroAssemblerD1Ev
