_ZN7android8hardware4wifi10supplicant4V1_111ISupplicant10descriptorE
_ZN7android8hardware4wifi10supplicant4V1_111ISupplicant10getServiceERKNSt3__112basic_stringIcNS5_11char_traitsIcEENS5_9allocatorIcEEEEb
_ZN7android8hardware4wifi10supplicant4V1_111ISupplicant11linkToDeathERKNS_2spINS0_20hidl_death_recipientEEEm
_ZN7android8hardware4wifi10supplicant4V1_111ISupplicant12getDebugInfoENSt3__18functionIFvRKNS_4hidl4base4V1_09DebugInfoEEEE
_ZN7android8hardware4wifi10supplicant4V1_111ISupplicant12getHashChainENSt3__18functionIFvRKNS0_8hidl_vecINS0_10hidl_arrayIhLm32EJEEEEEEEE
_ZN7android8hardware4wifi10supplicant4V1_111ISupplicant13tryGetServiceERKNSt3__112basic_stringIcNS5_11char_traitsIcEENS5_9allocatorIcEEEEb
_ZN7android8hardware4wifi10supplicant4V1_111ISupplicant13unlinkToDeathERKNS_2spINS0_20hidl_death_recipientEEE
_ZN7android8hardware4wifi10supplicant4V1_111ISupplicant14interfaceChainENSt3__18functionIFvRKNS0_8hidl_vecINS0_11hidl_stringEEEEEE
_ZN7android8hardware4wifi10supplicant4V1_111ISupplicant17registerAsServiceERKNSt3__112basic_stringIcNS5_11char_traitsIcEENS5_9allocatorIcEEEE
_ZN7android8hardware4wifi10supplicant4V1_111ISupplicant19interfaceDescriptorENSt3__18functionIFvRKNS0_11hidl_stringEEEE
_ZN7android8hardware4wifi10supplicant4V1_111ISupplicant21notifySyspropsChangedEv
_ZN7android8hardware4wifi10supplicant4V1_111ISupplicant21setHALInstrumentationEv
_ZN7android8hardware4wifi10supplicant4V1_111ISupplicant24registerForNotificationsERKNSt3__112basic_stringIcNS5_11char_traitsIcEENS5_9allocatorIcEEEERKNS_2spINS_4hidl7manager4V1_020IServiceNotificationEEE
_ZN7android8hardware4wifi10supplicant4V1_111ISupplicant4pingEv
_ZN7android8hardware4wifi10supplicant4V1_111ISupplicant5debugERKNS0_11hidl_handleERKNS0_8hidl_vecINS0_11hidl_stringEEE
_ZN7android8hardware4wifi10supplicant4V1_111ISupplicant8castFromERKNS_2spINS2_4V1_011ISupplicantEEEb
_ZN7android8hardware4wifi10supplicant4V1_111ISupplicant8castFromERKNS_2spINS_4hidl4base4V1_05IBaseEEEb
_ZN7android8hardware4wifi10supplicant4V1_111ISupplicant8castFromERKNS_2spIS4_EEb
_ZN7android8hardware4wifi10supplicant4V1_112BsSupplicant13addOnewayTaskENSt3__18functionIFvvEEE
_ZN7android8hardware4wifi10supplicant4V1_112BsSupplicantC1ENS_2spINS3_11ISupplicantEEE
_ZN7android8hardware4wifi10supplicant4V1_112BsSupplicantC2ENS_2spINS3_11ISupplicantEEE
_ZN7android8hardware4wifi10supplicant4V1_114BnHwSupplicant10onTransactEjRKNS0_6ParcelEPS5_jNSt3__18functionIFvRS5_EEE
_ZN7android8hardware4wifi10supplicant4V1_114BnHwSupplicant12getDebugInfoENSt3__18functionIFvRKNS_4hidl4base4V1_09DebugInfoEEEE
_ZN7android8hardware4wifi10supplicant4V1_114BnHwSupplicant15_hidl_terminateEPNS_4hidl4base4V1_08BnHwBaseERKNS0_6ParcelEPSA_NSt3__18functionIFvRSA_EEE
_ZN7android8hardware4wifi10supplicant4V1_114BnHwSupplicant18_hidl_addInterfaceEPNS_4hidl4base4V1_08BnHwBaseERKNS0_6ParcelEPSA_NSt3__18functionIFvRSA_EEE
_ZN7android8hardware4wifi10supplicant4V1_114BnHwSupplicant21_hidl_removeInterfaceEPNS_4hidl4base4V1_08BnHwBaseERKNS0_6ParcelEPSA_NSt3__18functionIFvRSA_EEE
_ZN7android8hardware4wifi10supplicant4V1_114BnHwSupplicant4pingEv
_ZN7android8hardware4wifi10supplicant4V1_114BnHwSupplicantC1ERKNS_2spINS3_11ISupplicantEEE
_ZN7android8hardware4wifi10supplicant4V1_114BnHwSupplicantC2ERKNS_2spINS3_11ISupplicantEEE
_ZN7android8hardware4wifi10supplicant4V1_114BnHwSupplicantD0Ev
_ZN7android8hardware4wifi10supplicant4V1_114BnHwSupplicantD1Ev
_ZN7android8hardware4wifi10supplicant4V1_114BnHwSupplicantD2Ev
_ZN7android8hardware4wifi10supplicant4V1_114BpHwSupplicant11linkToDeathERKNS_2spINS0_20hidl_death_recipientEEEm
_ZN7android8hardware4wifi10supplicant4V1_114BpHwSupplicant12addInterfaceERKNS2_4V1_011ISupplicant9IfaceInfoENSt3__18functionIFvRKNS5_16SupplicantStatusERKNS_2spINS5_16ISupplicantIfaceEEEEEE
_ZN7android8hardware4wifi10supplicant4V1_114BpHwSupplicant12getDebugInfoENSt3__18functionIFvRKNS_4hidl4base4V1_09DebugInfoEEEE
_ZN7android8hardware4wifi10supplicant4V1_114BpHwSupplicant12getHashChainENSt3__18functionIFvRKNS0_8hidl_vecINS0_10hidl_arrayIhLm32EJEEEEEEEE
_ZN7android8hardware4wifi10supplicant4V1_114BpHwSupplicant12getInterfaceERKNS2_4V1_011ISupplicant9IfaceInfoENSt3__18functionIFvRKNS5_16SupplicantStatusERKNS_2spINS5_16ISupplicantIfaceEEEEEE
_ZN7android8hardware4wifi10supplicant4V1_114BpHwSupplicant13getDebugLevelEv
_ZN7android8hardware4wifi10supplicant4V1_114BpHwSupplicant13unlinkToDeathERKNS_2spINS0_20hidl_death_recipientEEE
_ZN7android8hardware4wifi10supplicant4V1_114BpHwSupplicant14interfaceChainENSt3__18functionIFvRKNS0_8hidl_vecINS0_11hidl_stringEEEEEE
_ZN7android8hardware4wifi10supplicant4V1_114BpHwSupplicant14listInterfacesENSt3__18functionIFvRKNS2_4V1_016SupplicantStatusERKNS0_8hidl_vecINS7_11ISupplicant9IfaceInfoEEEEEE
_ZN7android8hardware4wifi10supplicant4V1_114BpHwSupplicant14setDebugParamsENS2_4V1_011ISupplicant10DebugLevelEbbNSt3__18functionIFvRKNS5_16SupplicantStatusEEEE
_ZN7android8hardware4wifi10supplicant4V1_114BpHwSupplicant15_hidl_terminateEPNS0_10IInterfaceEPNS0_7details16HidlInstrumentorE
_ZN7android8hardware4wifi10supplicant4V1_114BpHwSupplicant15removeInterfaceERKNS2_4V1_011ISupplicant9IfaceInfoENSt3__18functionIFvRKNS5_16SupplicantStatusEEEE
_ZN7android8hardware4wifi10supplicant4V1_114BpHwSupplicant16registerCallbackERKNS_2spINS2_4V1_019ISupplicantCallbackEEENSt3__18functionIFvRKNS6_16SupplicantStatusEEEE
_ZN7android8hardware4wifi10supplicant4V1_114BpHwSupplicant18_hidl_addInterfaceEPNS0_10IInterfaceEPNS0_7details16HidlInstrumentorERKNS2_4V1_011ISupplicant9IfaceInfoENSt3__18functionIFvRKNSA_16SupplicantStatusERKNS_2spINSA_16ISupplicantIfaceEEEEEE
_ZN7android8hardware4wifi10supplicant4V1_114BpHwSupplicant19interfaceDescriptorENSt3__18functionIFvRKNS0_11hidl_stringEEEE
_ZN7android8hardware4wifi10supplicant4V1_114BpHwSupplicant21_hidl_removeInterfaceEPNS0_10IInterfaceEPNS0_7details16HidlInstrumentorERKNS2_4V1_011ISupplicant9IfaceInfoENSt3__18functionIFvRKNSA_16SupplicantStatusEEEE
_ZN7android8hardware4wifi10supplicant4V1_114BpHwSupplicant21notifySyspropsChangedEv
_ZN7android8hardware4wifi10supplicant4V1_114BpHwSupplicant21setHALInstrumentationEv
_ZN7android8hardware4wifi10supplicant4V1_114BpHwSupplicant22isDebugShowKeysEnabledEv
_ZN7android8hardware4wifi10supplicant4V1_114BpHwSupplicant22setConcurrencyPriorityENS2_4V1_09IfaceTypeENSt3__18functionIFvRKNS5_16SupplicantStatusEEEE
_ZN7android8hardware4wifi10supplicant4V1_114BpHwSupplicant27isDebugShowTimestampEnabledEv
_ZN7android8hardware4wifi10supplicant4V1_114BpHwSupplicant4pingEv
_ZN7android8hardware4wifi10supplicant4V1_114BpHwSupplicant5debugERKNS0_11hidl_handleERKNS0_8hidl_vecINS0_11hidl_stringEEE
_ZN7android8hardware4wifi10supplicant4V1_114BpHwSupplicant9terminateEv
_ZN7android8hardware4wifi10supplicant4V1_114BpHwSupplicantC1ERKNS_2spINS0_7IBinderEEE
_ZN7android8hardware4wifi10supplicant4V1_114BpHwSupplicantC2ERKNS_2spINS0_7IBinderEEE
_ZN7android8hardware4wifi10supplicant4V1_119ISupplicantStaIface10descriptorE
_ZN7android8hardware4wifi10supplicant4V1_119ISupplicantStaIface10getServiceERKNSt3__112basic_stringIcNS5_11char_traitsIcEENS5_9allocatorIcEEEEb
_ZN7android8hardware4wifi10supplicant4V1_119ISupplicantStaIface11linkToDeathERKNS_2spINS0_20hidl_death_recipientEEEm
_ZN7android8hardware4wifi10supplicant4V1_119ISupplicantStaIface12getDebugInfoENSt3__18functionIFvRKNS_4hidl4base4V1_09DebugInfoEEEE
_ZN7android8hardware4wifi10supplicant4V1_119ISupplicantStaIface12getHashChainENSt3__18functionIFvRKNS0_8hidl_vecINS0_10hidl_arrayIhLm32EJEEEEEEEE
_ZN7android8hardware4wifi10supplicant4V1_119ISupplicantStaIface13tryGetServiceERKNSt3__112basic_stringIcNS5_11char_traitsIcEENS5_9allocatorIcEEEEb
_ZN7android8hardware4wifi10supplicant4V1_119ISupplicantStaIface13unlinkToDeathERKNS_2spINS0_20hidl_death_recipientEEE
_ZN7android8hardware4wifi10supplicant4V1_119ISupplicantStaIface14interfaceChainENSt3__18functionIFvRKNS0_8hidl_vecINS0_11hidl_stringEEEEEE
_ZN7android8hardware4wifi10supplicant4V1_119ISupplicantStaIface17registerAsServiceERKNSt3__112basic_stringIcNS5_11char_traitsIcEENS5_9allocatorIcEEEE
_ZN7android8hardware4wifi10supplicant4V1_119ISupplicantStaIface19interfaceDescriptorENSt3__18functionIFvRKNS0_11hidl_stringEEEE
_ZN7android8hardware4wifi10supplicant4V1_119ISupplicantStaIface21notifySyspropsChangedEv
_ZN7android8hardware4wifi10supplicant4V1_119ISupplicantStaIface21setHALInstrumentationEv
_ZN7android8hardware4wifi10supplicant4V1_119ISupplicantStaIface24registerForNotificationsERKNSt3__112basic_stringIcNS5_11char_traitsIcEENS5_9allocatorIcEEEERKNS_2spINS_4hidl7manager4V1_020IServiceNotificationEEE
_ZN7android8hardware4wifi10supplicant4V1_119ISupplicantStaIface4pingEv
_ZN7android8hardware4wifi10supplicant4V1_119ISupplicantStaIface5debugERKNS0_11hidl_handleERKNS0_8hidl_vecINS0_11hidl_stringEEE
_ZN7android8hardware4wifi10supplicant4V1_119ISupplicantStaIface8castFromERKNS_2spINS2_4V1_016ISupplicantIfaceEEEb
_ZN7android8hardware4wifi10supplicant4V1_119ISupplicantStaIface8castFromERKNS_2spINS2_4V1_019ISupplicantStaIfaceEEEb
_ZN7android8hardware4wifi10supplicant4V1_119ISupplicantStaIface8castFromERKNS_2spINS_4hidl4base4V1_05IBaseEEEb
_ZN7android8hardware4wifi10supplicant4V1_119ISupplicantStaIface8castFromERKNS_2spIS4_EEb
_ZN7android8hardware4wifi10supplicant4V1_120BsSupplicantStaIface13addOnewayTaskENSt3__18functionIFvvEEE
_ZN7android8hardware4wifi10supplicant4V1_120BsSupplicantStaIfaceC1ENS_2spINS3_19ISupplicantStaIfaceEEE
_ZN7android8hardware4wifi10supplicant4V1_120BsSupplicantStaIfaceC2ENS_2spINS3_19ISupplicantStaIfaceEEE
_ZN7android8hardware4wifi10supplicant4V1_121ISupplicantStaNetwork10descriptorE
_ZN7android8hardware4wifi10supplicant4V1_121ISupplicantStaNetwork10getServiceERKNSt3__112basic_stringIcNS5_11char_traitsIcEENS5_9allocatorIcEEEEb
_ZN7android8hardware4wifi10supplicant4V1_121ISupplicantStaNetwork11linkToDeathERKNS_2spINS0_20hidl_death_recipientEEEm
_ZN7android8hardware4wifi10supplicant4V1_121ISupplicantStaNetwork12getDebugInfoENSt3__18functionIFvRKNS_4hidl4base4V1_09DebugInfoEEEE
_ZN7android8hardware4wifi10supplicant4V1_121ISupplicantStaNetwork12getHashChainENSt3__18functionIFvRKNS0_8hidl_vecINS0_10hidl_arrayIhLm32EJEEEEEEEE
_ZN7android8hardware4wifi10supplicant4V1_121ISupplicantStaNetwork13tryGetServiceERKNSt3__112basic_stringIcNS5_11char_traitsIcEENS5_9allocatorIcEEEEb
_ZN7android8hardware4wifi10supplicant4V1_121ISupplicantStaNetwork13unlinkToDeathERKNS_2spINS0_20hidl_death_recipientEEE
_ZN7android8hardware4wifi10supplicant4V1_121ISupplicantStaNetwork14interfaceChainENSt3__18functionIFvRKNS0_8hidl_vecINS0_11hidl_stringEEEEEE
_ZN7android8hardware4wifi10supplicant4V1_121ISupplicantStaNetwork17registerAsServiceERKNSt3__112basic_stringIcNS5_11char_traitsIcEENS5_9allocatorIcEEEE
_ZN7android8hardware4wifi10supplicant4V1_121ISupplicantStaNetwork19interfaceDescriptorENSt3__18functionIFvRKNS0_11hidl_stringEEEE
_ZN7android8hardware4wifi10supplicant4V1_121ISupplicantStaNetwork21notifySyspropsChangedEv
_ZN7android8hardware4wifi10supplicant4V1_121ISupplicantStaNetwork21setHALInstrumentationEv
_ZN7android8hardware4wifi10supplicant4V1_121ISupplicantStaNetwork24registerForNotificationsERKNSt3__112basic_stringIcNS5_11char_traitsIcEENS5_9allocatorIcEEEERKNS_2spINS_4hidl7manager4V1_020IServiceNotificationEEE
_ZN7android8hardware4wifi10supplicant4V1_121ISupplicantStaNetwork4pingEv
_ZN7android8hardware4wifi10supplicant4V1_121ISupplicantStaNetwork5debugERKNS0_11hidl_handleERKNS0_8hidl_vecINS0_11hidl_stringEEE
_ZN7android8hardware4wifi10supplicant4V1_121ISupplicantStaNetwork8castFromERKNS_2spINS2_4V1_018ISupplicantNetworkEEEb
_ZN7android8hardware4wifi10supplicant4V1_121ISupplicantStaNetwork8castFromERKNS_2spINS2_4V1_021ISupplicantStaNetworkEEEb
_ZN7android8hardware4wifi10supplicant4V1_121ISupplicantStaNetwork8castFromERKNS_2spINS_4hidl4base4V1_05IBaseEEEb
_ZN7android8hardware4wifi10supplicant4V1_121ISupplicantStaNetwork8castFromERKNS_2spIS4_EEb
_ZN7android8hardware4wifi10supplicant4V1_122BnHwSupplicantStaIface10onTransactEjRKNS0_6ParcelEPS5_jNSt3__18functionIFvRS5_EEE
_ZN7android8hardware4wifi10supplicant4V1_122BnHwSupplicantStaIface12getDebugInfoENSt3__18functionIFvRKNS_4hidl4base4V1_09DebugInfoEEEE
_ZN7android8hardware4wifi10supplicant4V1_122BnHwSupplicantStaIface26_hidl_registerCallback_1_1EPNS_4hidl4base4V1_08BnHwBaseERKNS0_6ParcelEPSA_NSt3__18functionIFvRSA_EEE
_ZN7android8hardware4wifi10supplicant4V1_122BnHwSupplicantStaIface4pingEv
_ZN7android8hardware4wifi10supplicant4V1_122BnHwSupplicantStaIfaceC1ERKNS_2spINS3_19ISupplicantStaIfaceEEE
_ZN7android8hardware4wifi10supplicant4V1_122BnHwSupplicantStaIfaceC2ERKNS_2spINS3_19ISupplicantStaIfaceEEE
_ZN7android8hardware4wifi10supplicant4V1_122BnHwSupplicantStaIfaceD0Ev
_ZN7android8hardware4wifi10supplicant4V1_122BnHwSupplicantStaIfaceD1Ev
_ZN7android8hardware4wifi10supplicant4V1_122BnHwSupplicantStaIfaceD2Ev
_ZN7android8hardware4wifi10supplicant4V1_122BpHwSupplicantStaIface10addNetworkENSt3__18functionIFvRKNS2_4V1_016SupplicantStatusERKNS_2spINS7_18ISupplicantNetworkEEEEEE
_ZN7android8hardware4wifi10supplicant4V1_122BpHwSupplicantStaIface10disconnectENSt3__18functionIFvRKNS2_4V1_016SupplicantStatusEEEE
_ZN7android8hardware4wifi10supplicant4V1_122BpHwSupplicantStaIface10getNetworkEjNSt3__18functionIFvRKNS2_4V1_016SupplicantStatusERKNS_2spINS7_18ISupplicantNetworkEEEEEE
_ZN7android8hardware4wifi10supplicant4V1_122BpHwSupplicantStaIface11addRxFilterENS2_4V1_019ISupplicantStaIface12RxFilterTypeENSt3__18functionIFvRKNS5_16SupplicantStatusEEEE
_ZN7android8hardware4wifi10supplicant4V1_122BpHwSupplicantStaIface11linkToDeathERKNS_2spINS0_20hidl_death_recipientEEEm
_ZN7android8hardware4wifi10supplicant4V1_122BpHwSupplicantStaIface11reassociateENSt3__18functionIFvRKNS2_4V1_016SupplicantStatusEEEE
_ZN7android8hardware4wifi10supplicant4V1_122BpHwSupplicantStaIface11startWpsPbcERKNS0_10hidl_arrayIhLm6EJEEENSt3__18functionIFvRKNS2_4V1_016SupplicantStatusEEEE
_ZN7android8hardware4wifi10supplicant4V1_122BpHwSupplicantStaIface12getDebugInfoENSt3__18functionIFvRKNS_4hidl4base4V1_09DebugInfoEEEE
_ZN7android8hardware4wifi10supplicant4V1_122BpHwSupplicantStaIface12getHashChainENSt3__18functionIFvRKNS0_8hidl_vecINS0_10hidl_arrayIhLm32EJEEEEEEEE
_ZN7android8hardware4wifi10supplicant4V1_122BpHwSupplicantStaIface12listNetworksENSt3__18functionIFvRKNS2_4V1_016SupplicantStatusERKNS0_8hidl_vecIjEEEEE
_ZN7android8hardware4wifi10supplicant4V1_122BpHwSupplicantStaIface12setPowerSaveEbNSt3__18functionIFvRKNS2_4V1_016SupplicantStatusEEEE
_ZN7android8hardware4wifi10supplicant4V1_122BpHwSupplicantStaIface12stopRxFilterENSt3__18functionIFvRKNS2_4V1_016SupplicantStatusEEEE
_ZN7android8hardware4wifi10supplicant4V1_122BpHwSupplicantStaIface13getMacAddressENSt3__18functionIFvRKNS2_4V1_016SupplicantStatusERKNS0_10hidl_arrayIhLm6EJEEEEEE
_ZN7android8hardware4wifi10supplicant4V1_122BpHwSupplicantStaIface13removeNetworkEjNSt3__18functionIFvRKNS2_4V1_016SupplicantStatusEEEE
_ZN7android8hardware4wifi10supplicant4V1_122BpHwSupplicantStaIface13startRxFilterENSt3__18functionIFvRKNS2_4V1_016SupplicantStatusEEEE
_ZN7android8hardware4wifi10supplicant4V1_122BpHwSupplicantStaIface13unlinkToDeathERKNS_2spINS0_20hidl_death_recipientEEE
_ZN7android8hardware4wifi10supplicant4V1_122BpHwSupplicantStaIface14interfaceChainENSt3__18functionIFvRKNS0_8hidl_vecINS0_11hidl_stringEEEEEE
_ZN7android8hardware4wifi10supplicant4V1_122BpHwSupplicantStaIface14removeRxFilterENS2_4V1_019ISupplicantStaIface12RxFilterTypeENSt3__18functionIFvRKNS5_16SupplicantStatusEEEE
_ZN7android8hardware4wifi10supplicant4V1_122BpHwSupplicantStaIface14setCountryCodeERKNS0_10hidl_arrayIaLm2EJEEENSt3__18functionIFvRKNS2_4V1_016SupplicantStatusEEEE
_ZN7android8hardware4wifi10supplicant4V1_122BpHwSupplicantStaIface14setExternalSimEbNSt3__18functionIFvRKNS2_4V1_016SupplicantStatusEEEE
_ZN7android8hardware4wifi10supplicant4V1_122BpHwSupplicantStaIface15addExtRadioWorkERKNS0_11hidl_stringEjjNSt3__18functionIFvRKNS2_4V1_016SupplicantStatusEjEEE
_ZN7android8hardware4wifi10supplicant4V1_122BpHwSupplicantStaIface15setWpsModelNameERKNS0_11hidl_stringENSt3__18functionIFvRKNS2_4V1_016SupplicantStatusEEEE
_ZN7android8hardware4wifi10supplicant4V1_122BpHwSupplicantStaIface16registerCallbackERKNS_2spINS2_4V1_027ISupplicantStaIfaceCallbackEEENSt3__18functionIFvRKNS6_16SupplicantStatusEEEE
_ZN7android8hardware4wifi10supplicant4V1_122BpHwSupplicantStaIface16setWpsDeviceNameERKNS0_11hidl_stringENSt3__18functionIFvRKNS2_4V1_016SupplicantStatusEEEE
_ZN7android8hardware4wifi10supplicant4V1_122BpHwSupplicantStaIface16setWpsDeviceTypeERKNS0_10hidl_arrayIhLm8EJEEENSt3__18functionIFvRKNS2_4V1_016SupplicantStatusEEEE
_ZN7android8hardware4wifi10supplicant4V1_122BpHwSupplicantStaIface17initiateAnqpQueryERKNS0_10hidl_arrayIhLm6EJEEERKNS0_8hidl_vecINS2_4V1_019ISupplicantStaIface10AnqpInfoIdEEERKNS9_INSB_16Hs20AnqpSubtypesEEENSt3__18functionIFvRKNSA_16SupplicantStatusEEEE
_ZN7android8hardware4wifi10supplicant4V1_122BpHwSupplicantStaIface17initiateTdlsSetupERKNS0_10hidl_arrayIhLm6EJEEENSt3__18functionIFvRKNS2_4V1_016SupplicantStatusEEEE
_ZN7android8hardware4wifi10supplicant4V1_122BpHwSupplicantStaIface17setWpsModelNumberERKNS0_11hidl_stringENSt3__18functionIFvRKNS2_4V1_016SupplicantStatusEEEE
_ZN7android8hardware4wifi10supplicant4V1_122BpHwSupplicantStaIface17startWpsPinKeypadERKNS0_11hidl_stringENSt3__18functionIFvRKNS2_4V1_016SupplicantStatusEEEE
_ZN7android8hardware4wifi10supplicant4V1_122BpHwSupplicantStaIface17startWpsRegistrarERKNS0_10hidl_arrayIhLm6EJEEERKNS0_11hidl_stringENSt3__18functionIFvRKNS2_4V1_016SupplicantStatusEEEE
_ZN7android8hardware4wifi10supplicant4V1_122BpHwSupplicantStaIface18removeExtRadioWorkEjNSt3__18functionIFvRKNS2_4V1_016SupplicantStatusEEEE
_ZN7android8hardware4wifi10supplicant4V1_122BpHwSupplicantStaIface18setWpsManufacturerERKNS0_11hidl_stringENSt3__18functionIFvRKNS2_4V1_016SupplicantStatusEEEE
_ZN7android8hardware4wifi10supplicant4V1_122BpHwSupplicantStaIface18setWpsSerialNumberERKNS0_11hidl_stringENSt3__18functionIFvRKNS2_4V1_016SupplicantStatusEEEE
_ZN7android8hardware4wifi10supplicant4V1_122BpHwSupplicantStaIface18startWpsPinDisplayERKNS0_10hidl_arrayIhLm6EJEEENSt3__18functionIFvRKNS2_4V1_016SupplicantStatusERKNS0_11hidl_stringEEEE
_ZN7android8hardware4wifi10supplicant4V1_122BpHwSupplicantStaIface19enableAutoReconnectEbNSt3__18functionIFvRKNS2_4V1_016SupplicantStatusEEEE
_ZN7android8hardware4wifi10supplicant4V1_122BpHwSupplicantStaIface19interfaceDescriptorENSt3__18functionIFvRKNS0_11hidl_stringEEEE
_ZN7android8hardware4wifi10supplicant4V1_122BpHwSupplicantStaIface19setWpsConfigMethodsEtNSt3__18functionIFvRKNS2_4V1_016SupplicantStatusEEEE
_ZN7android8hardware4wifi10supplicant4V1_122BpHwSupplicantStaIface20initiateTdlsDiscoverERKNS0_10hidl_arrayIhLm6EJEEENSt3__18functionIFvRKNS2_4V1_016SupplicantStatusEEEE
_ZN7android8hardware4wifi10supplicant4V1_122BpHwSupplicantStaIface20initiateTdlsTeardownERKNS0_10hidl_arrayIhLm6EJEEENSt3__18functionIFvRKNS2_4V1_016SupplicantStatusEEEE
_ZN7android8hardware4wifi10supplicant4V1_122BpHwSupplicantStaIface20registerCallback_1_1ERKNS_2spINS3_27ISupplicantStaIfaceCallbackEEENSt3__18functionIFvRKNS2_4V1_016SupplicantStatusEEEE
_ZN7android8hardware4wifi10supplicant4V1_122BpHwSupplicantStaIface20setBtCoexistenceModeENS2_4V1_019ISupplicantStaIface17BtCoexistenceModeENSt3__18functionIFvRKNS5_16SupplicantStatusEEEE
_ZN7android8hardware4wifi10supplicant4V1_122BpHwSupplicantStaIface21initiateHs20IconQueryERKNS0_10hidl_arrayIhLm6EJEEERKNS0_11hidl_stringENSt3__18functionIFvRKNS2_4V1_016SupplicantStatusEEEE
_ZN7android8hardware4wifi10supplicant4V1_122BpHwSupplicantStaIface21notifySyspropsChangedEv
_ZN7android8hardware4wifi10supplicant4V1_122BpHwSupplicantStaIface21setHALInstrumentationEv
_ZN7android8hardware4wifi10supplicant4V1_122BpHwSupplicantStaIface21setSuspendModeEnabledEbNSt3__18functionIFvRKNS2_4V1_016SupplicantStatusEEEE
_ZN7android8hardware4wifi10supplicant4V1_122BpHwSupplicantStaIface26_hidl_registerCallback_1_1EPNS0_10IInterfaceEPNS0_7details16HidlInstrumentorERKNS_2spINS3_27ISupplicantStaIfaceCallbackEEENSt3__18functionIFvRKNS2_4V1_016SupplicantStatusEEEE
_ZN7android8hardware4wifi10supplicant4V1_122BpHwSupplicantStaIface31setBtCoexistenceScanModeEnabledEbNSt3__18functionIFvRKNS2_4V1_016SupplicantStatusEEEE
_ZN7android8hardware4wifi10supplicant4V1_122BpHwSupplicantStaIface4pingEv
_ZN7android8hardware4wifi10supplicant4V1_122BpHwSupplicantStaIface5debugERKNS0_11hidl_handleERKNS0_8hidl_vecINS0_11hidl_stringEEE
_ZN7android8hardware4wifi10supplicant4V1_122BpHwSupplicantStaIface7getNameENSt3__18functionIFvRKNS2_4V1_016SupplicantStatusERKNS0_11hidl_stringEEEE
_ZN7android8hardware4wifi10supplicant4V1_122BpHwSupplicantStaIface7getTypeENSt3__18functionIFvRKNS2_4V1_016SupplicantStatusENS7_9IfaceTypeEEEE
_ZN7android8hardware4wifi10supplicant4V1_122BpHwSupplicantStaIface9cancelWpsENSt3__18functionIFvRKNS2_4V1_016SupplicantStatusEEEE
_ZN7android8hardware4wifi10supplicant4V1_122BpHwSupplicantStaIface9reconnectENSt3__18functionIFvRKNS2_4V1_016SupplicantStatusEEEE
_ZN7android8hardware4wifi10supplicant4V1_122BpHwSupplicantStaIfaceC1ERKNS_2spINS0_7IBinderEEE
_ZN7android8hardware4wifi10supplicant4V1_122BpHwSupplicantStaIfaceC2ERKNS_2spINS0_7IBinderEEE
_ZN7android8hardware4wifi10supplicant4V1_122BsSupplicantStaNetwork13addOnewayTaskENSt3__18functionIFvvEEE
_ZN7android8hardware4wifi10supplicant4V1_122BsSupplicantStaNetworkC1ENS_2spINS3_21ISupplicantStaNetworkEEE
_ZN7android8hardware4wifi10supplicant4V1_122BsSupplicantStaNetworkC2ENS_2spINS3_21ISupplicantStaNetworkEEE
_ZN7android8hardware4wifi10supplicant4V1_124BnHwSupplicantStaNetwork10onTransactEjRKNS0_6ParcelEPS5_jNSt3__18functionIFvRS5_EEE
_ZN7android8hardware4wifi10supplicant4V1_124BnHwSupplicantStaNetwork12getDebugInfoENSt3__18functionIFvRKNS_4hidl4base4V1_09DebugInfoEEEE
_ZN7android8hardware4wifi10supplicant4V1_124BnHwSupplicantStaNetwork33_hidl_setEapEncryptedImsiIdentityEPNS_4hidl4base4V1_08BnHwBaseERKNS0_6ParcelEPSA_NSt3__18functionIFvRSA_EEE
_ZN7android8hardware4wifi10supplicant4V1_124BnHwSupplicantStaNetwork40_hidl_sendNetworkEapIdentityResponse_1_1EPNS_4hidl4base4V1_08BnHwBaseERKNS0_6ParcelEPSA_NSt3__18functionIFvRSA_EEE
_ZN7android8hardware4wifi10supplicant4V1_124BnHwSupplicantStaNetwork4pingEv
_ZN7android8hardware4wifi10supplicant4V1_124BnHwSupplicantStaNetworkC1ERKNS_2spINS3_21ISupplicantStaNetworkEEE
_ZN7android8hardware4wifi10supplicant4V1_124BnHwSupplicantStaNetworkC2ERKNS_2spINS3_21ISupplicantStaNetworkEEE
_ZN7android8hardware4wifi10supplicant4V1_124BnHwSupplicantStaNetworkD0Ev
_ZN7android8hardware4wifi10supplicant4V1_124BnHwSupplicantStaNetworkD1Ev
_ZN7android8hardware4wifi10supplicant4V1_124BnHwSupplicantStaNetworkD2Ev
_ZN7android8hardware4wifi10supplicant4V1_124BpHwSupplicantStaNetwork10getAuthAlgENSt3__18functionIFvRKNS2_4V1_016SupplicantStatusEjEEE
_ZN7android8hardware4wifi10supplicant4V1_124BpHwSupplicantStaNetwork10getKeyMgmtENSt3__18functionIFvRKNS2_4V1_016SupplicantStatusEjEEE
_ZN7android8hardware4wifi10supplicant4V1_124BpHwSupplicantStaNetwork10setAuthAlgEjNSt3__18functionIFvRKNS2_4V1_016SupplicantStatusEEEE
_ZN7android8hardware4wifi10supplicant4V1_124BpHwSupplicantStaNetwork10setKeyMgmtEjNSt3__18functionIFvRKNS2_4V1_016SupplicantStatusEEEE
_ZN7android8hardware4wifi10supplicant4V1_124BpHwSupplicantStaNetwork11getScanSsidENSt3__18functionIFvRKNS2_4V1_016SupplicantStatusEbEEE
_ZN7android8hardware4wifi10supplicant4V1_124BpHwSupplicantStaNetwork11linkToDeathERKNS_2spINS0_20hidl_death_recipientEEEm
_ZN7android8hardware4wifi10supplicant4V1_124BpHwSupplicantStaNetwork11setScanSsidEbNSt3__18functionIFvRKNS2_4V1_016SupplicantStatusEEEE
_ZN7android8hardware4wifi10supplicant4V1_124BpHwSupplicantStaNetwork12getDebugInfoENSt3__18functionIFvRKNS_4hidl4base4V1_09DebugInfoEEEE
_ZN7android8hardware4wifi10supplicant4V1_124BpHwSupplicantStaNetwork12getEapCACertENSt3__18functionIFvRKNS2_4V1_016SupplicantStatusERKNS0_11hidl_stringEEEE
_ZN7android8hardware4wifi10supplicant4V1_124BpHwSupplicantStaNetwork12getEapCAPathENSt3__18functionIFvRKNS2_4V1_016SupplicantStatusERKNS0_11hidl_stringEEEE
_ZN7android8hardware4wifi10supplicant4V1_124BpHwSupplicantStaNetwork12getEapEngineENSt3__18functionIFvRKNS2_4V1_016SupplicantStatusEbEEE
_ZN7android8hardware4wifi10supplicant4V1_124BpHwSupplicantStaNetwork12getEapMethodENSt3__18functionIFvRKNS2_4V1_016SupplicantStatusENS7_21ISupplicantStaNetwork9EapMethodEEEE
_ZN7android8hardware4wifi10supplicant4V1_124BpHwSupplicantStaNetwork12getHashChainENSt3__18functionIFvRKNS0_8hidl_vecINS0_10hidl_arrayIhLm32EJEEEEEEEE
_ZN7android8hardware4wifi10supplicant4V1_124BpHwSupplicantStaNetwork12setEapCACertERKNS0_11hidl_stringENSt3__18functionIFvRKNS2_4V1_016SupplicantStatusEEEE
_ZN7android8hardware4wifi10supplicant4V1_124BpHwSupplicantStaNetwork12setEapCAPathERKNS0_11hidl_stringENSt3__18functionIFvRKNS2_4V1_016SupplicantStatusEEEE
_ZN7android8hardware4wifi10supplicant4V1_124BpHwSupplicantStaNetwork12setEapEngineEbNSt3__18functionIFvRKNS2_4V1_016SupplicantStatusEEEE
_ZN7android8hardware4wifi10supplicant4V1_124BpHwSupplicantStaNetwork12setEapMethodENS2_4V1_021ISupplicantStaNetwork9EapMethodENSt3__18functionIFvRKNS5_16SupplicantStatusEEEE
_ZN7android8hardware4wifi10supplicant4V1_124BpHwSupplicantStaNetwork13getRequirePmfENSt3__18functionIFvRKNS2_4V1_016SupplicantStatusEbEEE
_ZN7android8hardware4wifi10supplicant4V1_124BpHwSupplicantStaNetwork13setRequirePmfEbNSt3__18functionIFvRKNS2_4V1_016SupplicantStatusEEEE
_ZN7android8hardware4wifi10supplicant4V1_124BpHwSupplicantStaNetwork13unlinkToDeathERKNS_2spINS0_20hidl_death_recipientEEE
_ZN7android8hardware4wifi10supplicant4V1_124BpHwSupplicantStaNetwork14getEapEngineIDENSt3__18functionIFvRKNS2_4V1_016SupplicantStatusERKNS0_11hidl_stringEEEE
_ZN7android8hardware4wifi10supplicant4V1_124BpHwSupplicantStaNetwork14getEapIdentityENSt3__18functionIFvRKNS2_4V1_016SupplicantStatusERKNS0_8hidl_vecIhEEEEE
_ZN7android8hardware4wifi10supplicant4V1_124BpHwSupplicantStaNetwork14getEapPasswordENSt3__18functionIFvRKNS2_4V1_016SupplicantStatusERKNS0_8hidl_vecIhEEEEE
_ZN7android8hardware4wifi10supplicant4V1_124BpHwSupplicantStaNetwork14getGroupCipherENSt3__18functionIFvRKNS2_4V1_016SupplicantStatusEjEEE
_ZN7android8hardware4wifi10supplicant4V1_124BpHwSupplicantStaNetwork14getWepTxKeyIdxENSt3__18functionIFvRKNS2_4V1_016SupplicantStatusEjEEE
_ZN7android8hardware4wifi10supplicant4V1_124BpHwSupplicantStaNetwork14interfaceChainENSt3__18functionIFvRKNS0_8hidl_vecINS0_11hidl_stringEEEEEE
_ZN7android8hardware4wifi10supplicant4V1_124BpHwSupplicantStaNetwork14setEapEngineIDERKNS0_11hidl_stringENSt3__18functionIFvRKNS2_4V1_016SupplicantStatusEEEE
_ZN7android8hardware4wifi10supplicant4V1_124BpHwSupplicantStaNetwork14setEapIdentityERKNS0_8hidl_vecIhEENSt3__18functionIFvRKNS2_4V1_016SupplicantStatusEEEE
_ZN7android8hardware4wifi10supplicant4V1_124BpHwSupplicantStaNetwork14setEapPasswordERKNS0_8hidl_vecIhEENSt3__18functionIFvRKNS2_4V1_016SupplicantStatusEEEE
_ZN7android8hardware4wifi10supplicant4V1_124BpHwSupplicantStaNetwork14setGroupCipherEjNSt3__18functionIFvRKNS2_4V1_016SupplicantStatusEEEE
_ZN7android8hardware4wifi10supplicant4V1_124BpHwSupplicantStaNetwork14setWepTxKeyIdxEjNSt3__18functionIFvRKNS2_4V1_016SupplicantStatusEEEE
_ZN7android8hardware4wifi10supplicant4V1_124BpHwSupplicantStaNetwork16getEapClientCertENSt3__18functionIFvRKNS2_4V1_016SupplicantStatusERKNS0_11hidl_stringEEEE
_ZN7android8hardware4wifi10supplicant4V1_124BpHwSupplicantStaNetwork16getInterfaceNameENSt3__18functionIFvRKNS2_4V1_016SupplicantStatusERKNS0_11hidl_stringEEEE
_ZN7android8hardware4wifi10supplicant4V1_124BpHwSupplicantStaNetwork16getPskPassphraseENSt3__18functionIFvRKNS2_4V1_016SupplicantStatusERKNS0_11hidl_stringEEEE
_ZN7android8hardware4wifi10supplicant4V1_124BpHwSupplicantStaNetwork16registerCallbackERKNS_2spINS2_4V1_029ISupplicantStaNetworkCallbackEEENSt3__18functionIFvRKNS6_16SupplicantStatusEEEE
_ZN7android8hardware4wifi10supplicant4V1_124BpHwSupplicantStaNetwork16setEapClientCertERKNS0_11hidl_stringENSt3__18functionIFvRKNS2_4V1_016SupplicantStatusEEEE
_ZN7android8hardware4wifi10supplicant4V1_124BpHwSupplicantStaNetwork16setPskPassphraseERKNS0_11hidl_stringENSt3__18functionIFvRKNS2_4V1_016SupplicantStatusEEEE
_ZN7android8hardware4wifi10supplicant4V1_124BpHwSupplicantStaNetwork17getPairwiseCipherENSt3__18functionIFvRKNS2_4V1_016SupplicantStatusEjEEE
_ZN7android8hardware4wifi10supplicant4V1_124BpHwSupplicantStaNetwork17setPairwiseCipherEjNSt3__18functionIFvRKNS2_4V1_016SupplicantStatusEEEE
_ZN7android8hardware4wifi10supplicant4V1_124BpHwSupplicantStaNetwork18getEapPhase2MethodENSt3__18functionIFvRKNS2_4V1_016SupplicantStatusENS7_21ISupplicantStaNetwork15EapPhase2MethodEEEE
_ZN7android8hardware4wifi10supplicant4V1_124BpHwSupplicantStaNetwork18getEapPrivateKeyIdENSt3__18functionIFvRKNS2_4V1_016SupplicantStatusERKNS0_11hidl_stringEEEE
_ZN7android8hardware4wifi10supplicant4V1_124BpHwSupplicantStaNetwork18getEapSubjectMatchENSt3__18functionIFvRKNS2_4V1_016SupplicantStatusERKNS0_11hidl_stringEEEE
_ZN7android8hardware4wifi10supplicant4V1_124BpHwSupplicantStaNetwork18setEapPhase2MethodENS2_4V1_021ISupplicantStaNetwork15EapPhase2MethodENSt3__18functionIFvRKNS5_16SupplicantStatusEEEE
_ZN7android8hardware4wifi10supplicant4V1_124BpHwSupplicantStaNetwork18setEapPrivateKeyIdERKNS0_11hidl_stringENSt3__18functionIFvRKNS2_4V1_016SupplicantStatusEEEE
_ZN7android8hardware4wifi10supplicant4V1_124BpHwSupplicantStaNetwork18setEapSubjectMatchERKNS0_11hidl_stringENSt3__18functionIFvRKNS2_4V1_016SupplicantStatusEEEE
_ZN7android8hardware4wifi10supplicant4V1_124BpHwSupplicantStaNetwork19interfaceDescriptorENSt3__18functionIFvRKNS0_11hidl_stringEEEE
_ZN7android8hardware4wifi10supplicant4V1_124BpHwSupplicantStaNetwork19setUpdateIdentifierEjNSt3__18functionIFvRKNS2_4V1_016SupplicantStatusEEEE
_ZN7android8hardware4wifi10supplicant4V1_124BpHwSupplicantStaNetwork21getEapAltSubjectMatchENSt3__18functionIFvRKNS2_4V1_016SupplicantStatusERKNS0_11hidl_stringEEEE
_ZN7android8hardware4wifi10supplicant4V1_124BpHwSupplicantStaNetwork21notifySyspropsChangedEv
_ZN7android8hardware4wifi10supplicant4V1_124BpHwSupplicantStaNetwork21setEapAltSubjectMatchERKNS0_11hidl_stringENSt3__18functionIFvRKNS2_4V1_016SupplicantStatusEEEE
_ZN7android8hardware4wifi10supplicant4V1_124BpHwSupplicantStaNetwork21setHALInstrumentationEv
_ZN7android8hardware4wifi10supplicant4V1_124BpHwSupplicantStaNetwork22setProactiveKeyCachingEbNSt3__18functionIFvRKNS2_4V1_016SupplicantStatusEEEE
_ZN7android8hardware4wifi10supplicant4V1_124BpHwSupplicantStaNetwork23getEapAnonymousIdentityENSt3__18functionIFvRKNS2_4V1_016SupplicantStatusERKNS0_8hidl_vecIhEEEEE
_ZN7android8hardware4wifi10supplicant4V1_124BpHwSupplicantStaNetwork23getEapDomainSuffixMatchENSt3__18functionIFvRKNS2_4V1_016SupplicantStatusERKNS0_11hidl_stringEEEE
_ZN7android8hardware4wifi10supplicant4V1_124BpHwSupplicantStaNetwork23setEapAnonymousIdentityERKNS0_8hidl_vecIhEENSt3__18functionIFvRKNS2_4V1_016SupplicantStatusEEEE
_ZN7android8hardware4wifi10supplicant4V1_124BpHwSupplicantStaNetwork23setEapDomainSuffixMatchERKNS0_11hidl_stringENSt3__18functionIFvRKNS2_4V1_016SupplicantStatusEEEE
_ZN7android8hardware4wifi10supplicant4V1_124BpHwSupplicantStaNetwork27getWpsNfcConfigurationTokenENSt3__18functionIFvRKNS2_4V1_016SupplicantStatusERKNS0_8hidl_vecIhEEEEE
_ZN7android8hardware4wifi10supplicant4V1_124BpHwSupplicantStaNetwork27setEapEncryptedImsiIdentityERKNS0_8hidl_vecIhEENSt3__18functionIFvRKNS2_4V1_016SupplicantStatusEEEE
_ZN7android8hardware4wifi10supplicant4V1_124BpHwSupplicantStaNetwork30sendNetworkEapIdentityResponseERKNS0_8hidl_vecIhEENSt3__18functionIFvRKNS2_4V1_016SupplicantStatusEEEE
_ZN7android8hardware4wifi10supplicant4V1_124BpHwSupplicantStaNetwork31sendNetworkEapSimGsmAuthFailureENSt3__18functionIFvRKNS2_4V1_016SupplicantStatusEEEE
_ZN7android8hardware4wifi10supplicant4V1_124BpHwSupplicantStaNetwork32sendNetworkEapSimGsmAuthResponseERKNS0_8hidl_vecINS2_4V1_021ISupplicantStaNetwork34NetworkResponseEapSimGsmAuthParamsEEENSt3__18functionIFvRKNS6_16SupplicantStatusEEEE
_ZN7android8hardware4wifi10supplicant4V1_124BpHwSupplicantStaNetwork32sendNetworkEapSimUmtsAuthFailureENSt3__18functionIFvRKNS2_4V1_016SupplicantStatusEEEE
_ZN7android8hardware4wifi10supplicant4V1_124BpHwSupplicantStaNetwork33_hidl_setEapEncryptedImsiIdentityEPNS0_10IInterfaceEPNS0_7details16HidlInstrumentorERKNS0_8hidl_vecIhEENSt3__18functionIFvRKNS2_4V1_016SupplicantStatusEEEE
_ZN7android8hardware4wifi10supplicant4V1_124BpHwSupplicantStaNetwork33sendNetworkEapSimUmtsAuthResponseERKNS2_4V1_021ISupplicantStaNetwork35NetworkResponseEapSimUmtsAuthParamsENSt3__18functionIFvRKNS5_16SupplicantStatusEEEE
_ZN7android8hardware4wifi10supplicant4V1_124BpHwSupplicantStaNetwork33sendNetworkEapSimUmtsAutsResponseERKNS0_10hidl_arrayIhLm14EJEEENSt3__18functionIFvRKNS2_4V1_016SupplicantStatusEEEE
_ZN7android8hardware4wifi10supplicant4V1_124BpHwSupplicantStaNetwork34sendNetworkEapIdentityResponse_1_1ERKNS0_8hidl_vecIhEES8_NSt3__18functionIFvRKNS2_4V1_016SupplicantStatusEEEE
_ZN7android8hardware4wifi10supplicant4V1_124BpHwSupplicantStaNetwork40_hidl_sendNetworkEapIdentityResponse_1_1EPNS0_10IInterfaceEPNS0_7details16HidlInstrumentorERKNS0_8hidl_vecIhEESD_NSt3__18functionIFvRKNS2_4V1_016SupplicantStatusEEEE
_ZN7android8hardware4wifi10supplicant4V1_124BpHwSupplicantStaNetwork4pingEv
_ZN7android8hardware4wifi10supplicant4V1_124BpHwSupplicantStaNetwork5debugERKNS0_11hidl_handleERKNS0_8hidl_vecINS0_11hidl_stringEEE
_ZN7android8hardware4wifi10supplicant4V1_124BpHwSupplicantStaNetwork5getIdENSt3__18functionIFvRKNS2_4V1_016SupplicantStatusEjEEE
_ZN7android8hardware4wifi10supplicant4V1_124BpHwSupplicantStaNetwork6enableEbNSt3__18functionIFvRKNS2_4V1_016SupplicantStatusEEEE
_ZN7android8hardware4wifi10supplicant4V1_124BpHwSupplicantStaNetwork6getPskENSt3__18functionIFvRKNS2_4V1_016SupplicantStatusERKNS0_10hidl_arrayIhLm32EJEEEEEE
_ZN7android8hardware4wifi10supplicant4V1_124BpHwSupplicantStaNetwork6selectENSt3__18functionIFvRKNS2_4V1_016SupplicantStatusEEEE
_ZN7android8hardware4wifi10supplicant4V1_124BpHwSupplicantStaNetwork6setPskERKNS0_10hidl_arrayIhLm32EJEEENSt3__18functionIFvRKNS2_4V1_016SupplicantStatusEEEE
_ZN7android8hardware4wifi10supplicant4V1_124BpHwSupplicantStaNetwork7disableENSt3__18functionIFvRKNS2_4V1_016SupplicantStatusEEEE
_ZN7android8hardware4wifi10supplicant4V1_124BpHwSupplicantStaNetwork7getSsidENSt3__18functionIFvRKNS2_4V1_016SupplicantStatusERKNS0_8hidl_vecIhEEEEE
_ZN7android8hardware4wifi10supplicant4V1_124BpHwSupplicantStaNetwork7getTypeENSt3__18functionIFvRKNS2_4V1_016SupplicantStatusENS7_9IfaceTypeEEEE
_ZN7android8hardware4wifi10supplicant4V1_124BpHwSupplicantStaNetwork7setSsidERKNS0_8hidl_vecIhEENSt3__18functionIFvRKNS2_4V1_016SupplicantStatusEEEE
_ZN7android8hardware4wifi10supplicant4V1_124BpHwSupplicantStaNetwork8getBssidENSt3__18functionIFvRKNS2_4V1_016SupplicantStatusERKNS0_10hidl_arrayIhLm6EJEEEEEE
_ZN7android8hardware4wifi10supplicant4V1_124BpHwSupplicantStaNetwork8getIdStrENSt3__18functionIFvRKNS2_4V1_016SupplicantStatusERKNS0_11hidl_stringEEEE
_ZN7android8hardware4wifi10supplicant4V1_124BpHwSupplicantStaNetwork8getProtoENSt3__18functionIFvRKNS2_4V1_016SupplicantStatusEjEEE
_ZN7android8hardware4wifi10supplicant4V1_124BpHwSupplicantStaNetwork8setBssidERKNS0_10hidl_arrayIhLm6EJEEENSt3__18functionIFvRKNS2_4V1_016SupplicantStatusEEEE
_ZN7android8hardware4wifi10supplicant4V1_124BpHwSupplicantStaNetwork8setIdStrERKNS0_11hidl_stringENSt3__18functionIFvRKNS2_4V1_016SupplicantStatusEEEE
_ZN7android8hardware4wifi10supplicant4V1_124BpHwSupplicantStaNetwork8setProtoEjNSt3__18functionIFvRKNS2_4V1_016SupplicantStatusEEEE
_ZN7android8hardware4wifi10supplicant4V1_124BpHwSupplicantStaNetwork9getWepKeyEjNSt3__18functionIFvRKNS2_4V1_016SupplicantStatusERKNS0_8hidl_vecIhEEEEE
_ZN7android8hardware4wifi10supplicant4V1_124BpHwSupplicantStaNetwork9setWepKeyEjRKNS0_8hidl_vecIhEENSt3__18functionIFvRKNS2_4V1_016SupplicantStatusEEEE
_ZN7android8hardware4wifi10supplicant4V1_124BpHwSupplicantStaNetworkC1ERKNS_2spINS0_7IBinderEEE
_ZN7android8hardware4wifi10supplicant4V1_124BpHwSupplicantStaNetworkC2ERKNS_2spINS0_7IBinderEEE
_ZN7android8hardware4wifi10supplicant4V1_127ISupplicantStaIfaceCallback10descriptorE
_ZN7android8hardware4wifi10supplicant4V1_127ISupplicantStaIfaceCallback10getServiceERKNSt3__112basic_stringIcNS5_11char_traitsIcEENS5_9allocatorIcEEEEb
_ZN7android8hardware4wifi10supplicant4V1_127ISupplicantStaIfaceCallback11linkToDeathERKNS_2spINS0_20hidl_death_recipientEEEm
_ZN7android8hardware4wifi10supplicant4V1_127ISupplicantStaIfaceCallback12getDebugInfoENSt3__18functionIFvRKNS_4hidl4base4V1_09DebugInfoEEEE
_ZN7android8hardware4wifi10supplicant4V1_127ISupplicantStaIfaceCallback12getHashChainENSt3__18functionIFvRKNS0_8hidl_vecINS0_10hidl_arrayIhLm32EJEEEEEEEE
_ZN7android8hardware4wifi10supplicant4V1_127ISupplicantStaIfaceCallback13tryGetServiceERKNSt3__112basic_stringIcNS5_11char_traitsIcEENS5_9allocatorIcEEEEb
_ZN7android8hardware4wifi10supplicant4V1_127ISupplicantStaIfaceCallback13unlinkToDeathERKNS_2spINS0_20hidl_death_recipientEEE
_ZN7android8hardware4wifi10supplicant4V1_127ISupplicantStaIfaceCallback14interfaceChainENSt3__18functionIFvRKNS0_8hidl_vecINS0_11hidl_stringEEEEEE
_ZN7android8hardware4wifi10supplicant4V1_127ISupplicantStaIfaceCallback17registerAsServiceERKNSt3__112basic_stringIcNS5_11char_traitsIcEENS5_9allocatorIcEEEE
_ZN7android8hardware4wifi10supplicant4V1_127ISupplicantStaIfaceCallback19interfaceDescriptorENSt3__18functionIFvRKNS0_11hidl_stringEEEE
_ZN7android8hardware4wifi10supplicant4V1_127ISupplicantStaIfaceCallback21notifySyspropsChangedEv
_ZN7android8hardware4wifi10supplicant4V1_127ISupplicantStaIfaceCallback21setHALInstrumentationEv
_ZN7android8hardware4wifi10supplicant4V1_127ISupplicantStaIfaceCallback24registerForNotificationsERKNSt3__112basic_stringIcNS5_11char_traitsIcEENS5_9allocatorIcEEEERKNS_2spINS_4hidl7manager4V1_020IServiceNotificationEEE
_ZN7android8hardware4wifi10supplicant4V1_127ISupplicantStaIfaceCallback4pingEv
_ZN7android8hardware4wifi10supplicant4V1_127ISupplicantStaIfaceCallback5debugERKNS0_11hidl_handleERKNS0_8hidl_vecINS0_11hidl_stringEEE
_ZN7android8hardware4wifi10supplicant4V1_127ISupplicantStaIfaceCallback8castFromERKNS_2spINS2_4V1_027ISupplicantStaIfaceCallbackEEEb
_ZN7android8hardware4wifi10supplicant4V1_127ISupplicantStaIfaceCallback8castFromERKNS_2spINS_4hidl4base4V1_05IBaseEEEb
_ZN7android8hardware4wifi10supplicant4V1_127ISupplicantStaIfaceCallback8castFromERKNS_2spIS4_EEb
_ZN7android8hardware4wifi10supplicant4V1_128BsSupplicantStaIfaceCallback13addOnewayTaskENSt3__18functionIFvvEEE
_ZN7android8hardware4wifi10supplicant4V1_128BsSupplicantStaIfaceCallbackC1ENS_2spINS3_27ISupplicantStaIfaceCallbackEEE
_ZN7android8hardware4wifi10supplicant4V1_128BsSupplicantStaIfaceCallbackC2ENS_2spINS3_27ISupplicantStaIfaceCallbackEEE
_ZN7android8hardware4wifi10supplicant4V1_130BnHwSupplicantStaIfaceCallback10onTransactEjRKNS0_6ParcelEPS5_jNSt3__18functionIFvRS5_EEE
_ZN7android8hardware4wifi10supplicant4V1_130BnHwSupplicantStaIfaceCallback12getDebugInfoENSt3__18functionIFvRKNS_4hidl4base4V1_09DebugInfoEEEE
_ZN7android8hardware4wifi10supplicant4V1_130BnHwSupplicantStaIfaceCallback22_hidl_onEapFailure_1_1EPNS_4hidl4base4V1_08BnHwBaseERKNS0_6ParcelEPSA_NSt3__18functionIFvRSA_EEE
_ZN7android8hardware4wifi10supplicant4V1_130BnHwSupplicantStaIfaceCallback4pingEv
_ZN7android8hardware4wifi10supplicant4V1_130BnHwSupplicantStaIfaceCallbackC1ERKNS_2spINS3_27ISupplicantStaIfaceCallbackEEE
_ZN7android8hardware4wifi10supplicant4V1_130BnHwSupplicantStaIfaceCallbackC2ERKNS_2spINS3_27ISupplicantStaIfaceCallbackEEE
_ZN7android8hardware4wifi10supplicant4V1_130BnHwSupplicantStaIfaceCallbackD0Ev
_ZN7android8hardware4wifi10supplicant4V1_130BnHwSupplicantStaIfaceCallbackD1Ev
_ZN7android8hardware4wifi10supplicant4V1_130BnHwSupplicantStaIfaceCallbackD2Ev
_ZN7android8hardware4wifi10supplicant4V1_130BpHwSupplicantStaIfaceCallback11linkToDeathERKNS_2spINS0_20hidl_death_recipientEEEm
_ZN7android8hardware4wifi10supplicant4V1_130BpHwSupplicantStaIfaceCallback12getDebugInfoENSt3__18functionIFvRKNS_4hidl4base4V1_09DebugInfoEEEE
_ZN7android8hardware4wifi10supplicant4V1_130BpHwSupplicantStaIfaceCallback12getHashChainENSt3__18functionIFvRKNS0_8hidl_vecINS0_10hidl_arrayIhLm32EJEEEEEEEE
_ZN7android8hardware4wifi10supplicant4V1_130BpHwSupplicantStaIfaceCallback12onEapFailureEv
_ZN7android8hardware4wifi10supplicant4V1_130BpHwSupplicantStaIfaceCallback13unlinkToDeathERKNS_2spINS0_20hidl_death_recipientEEE
_ZN7android8hardware4wifi10supplicant4V1_130BpHwSupplicantStaIfaceCallback14interfaceChainENSt3__18functionIFvRKNS0_8hidl_vecINS0_11hidl_stringEEEEEE
_ZN7android8hardware4wifi10supplicant4V1_130BpHwSupplicantStaIfaceCallback14onBssidChangedENS2_4V1_027ISupplicantStaIfaceCallback17BssidChangeReasonERKNS0_10hidl_arrayIhLm6EJEEE
_ZN7android8hardware4wifi10supplicant4V1_130BpHwSupplicantStaIfaceCallback14onDisconnectedERKNS0_10hidl_arrayIhLm6EJEEEbNS2_4V1_027ISupplicantStaIfaceCallback10ReasonCodeE
_ZN7android8hardware4wifi10supplicant4V1_130BpHwSupplicantStaIfaceCallback14onNetworkAddedEj
_ZN7android8hardware4wifi10supplicant4V1_130BpHwSupplicantStaIfaceCallback14onStateChangedENS2_4V1_027ISupplicantStaIfaceCallback5StateERKNS0_10hidl_arrayIhLm6EJEEEjRKNS0_8hidl_vecIhEE
_ZN7android8hardware4wifi10supplicant4V1_130BpHwSupplicantStaIfaceCallback14onWpsEventFailERKNS0_10hidl_arrayIhLm6EJEEENS2_4V1_027ISupplicantStaIfaceCallback14WpsConfigErrorENSA_18WpsErrorIndicationE
_ZN7android8hardware4wifi10supplicant4V1_130BpHwSupplicantStaIfaceCallback15onAnqpQueryDoneERKNS0_10hidl_arrayIhLm6EJEEERKNS2_4V1_027ISupplicantStaIfaceCallback8AnqpDataERKNSA_12Hs20AnqpDataE
_ZN7android8hardware4wifi10supplicant4V1_130BpHwSupplicantStaIfaceCallback16onEapFailure_1_1ENS3_27ISupplicantStaIfaceCallback12EapErrorCodeE
_ZN7android8hardware4wifi10supplicant4V1_130BpHwSupplicantStaIfaceCallback16onNetworkRemovedEj
_ZN7android8hardware4wifi10supplicant4V1_130BpHwSupplicantStaIfaceCallback17onWpsEventSuccessEv
_ZN7android8hardware4wifi10supplicant4V1_130BpHwSupplicantStaIfaceCallback19interfaceDescriptorENSt3__18functionIFvRKNS0_11hidl_stringEEEE
_ZN7android8hardware4wifi10supplicant4V1_130BpHwSupplicantStaIfaceCallback19onExtRadioWorkStartEj
_ZN7android8hardware4wifi10supplicant4V1_130BpHwSupplicantStaIfaceCallback19onHs20IconQueryDoneERKNS0_10hidl_arrayIhLm6EJEEERKNS0_11hidl_stringERKNS0_8hidl_vecIhEE
_ZN7android8hardware4wifi10supplicant4V1_130BpHwSupplicantStaIfaceCallback20onWpsEventPbcOverlapEv
_ZN7android8hardware4wifi10supplicant4V1_130BpHwSupplicantStaIfaceCallback21notifySyspropsChangedEv
_ZN7android8hardware4wifi10supplicant4V1_130BpHwSupplicantStaIfaceCallback21onAssociationRejectedERKNS0_10hidl_arrayIhLm6EJEEENS2_4V1_027ISupplicantStaIfaceCallback10StatusCodeEb
_ZN7android8hardware4wifi10supplicant4V1_130BpHwSupplicantStaIfaceCallback21onExtRadioWorkTimeoutEj
_ZN7android8hardware4wifi10supplicant4V1_130BpHwSupplicantStaIfaceCallback21setHALInstrumentationEv
_ZN7android8hardware4wifi10supplicant4V1_130BpHwSupplicantStaIfaceCallback22_hidl_onEapFailure_1_1EPNS0_10IInterfaceEPNS0_7details16HidlInstrumentorENS3_27ISupplicantStaIfaceCallback12EapErrorCodeE
_ZN7android8hardware4wifi10supplicant4V1_130BpHwSupplicantStaIfaceCallback23onAuthenticationTimeoutERKNS0_10hidl_arrayIhLm6EJEEE
_ZN7android8hardware4wifi10supplicant4V1_130BpHwSupplicantStaIfaceCallback26onHs20DeauthImminentNoticeERKNS0_10hidl_arrayIhLm6EJEEEjjRKNS0_11hidl_stringE
_ZN7android8hardware4wifi10supplicant4V1_130BpHwSupplicantStaIfaceCallback29onHs20SubscriptionRemediationERKNS0_10hidl_arrayIhLm6EJEEENS2_4V1_027ISupplicantStaIfaceCallback9OsuMethodERKNS0_11hidl_stringE
_ZN7android8hardware4wifi10supplicant4V1_130BpHwSupplicantStaIfaceCallback4pingEv
_ZN7android8hardware4wifi10supplicant4V1_130BpHwSupplicantStaIfaceCallback5debugERKNS0_11hidl_handleERKNS0_8hidl_vecINS0_11hidl_stringEEE
_ZN7android8hardware4wifi10supplicant4V1_130BpHwSupplicantStaIfaceCallbackC1ERKNS_2spINS0_7IBinderEEE
_ZN7android8hardware4wifi10supplicant4V1_130BpHwSupplicantStaIfaceCallbackC2ERKNS_2spINS0_7IBinderEEE
_ZTCN7android8hardware4wifi10supplicant4V1_111ISupplicantE0_NS2_4V1_011ISupplicantE
_ZTCN7android8hardware4wifi10supplicant4V1_111ISupplicantE0_NS_4hidl4base4V1_05IBaseE
_ZTCN7android8hardware4wifi10supplicant4V1_114BnHwSupplicantE0_NS0_7IBinderE
_ZTCN7android8hardware4wifi10supplicant4V1_114BnHwSupplicantE0_NS0_9BHwBinderE
_ZTCN7android8hardware4wifi10supplicant4V1_114BnHwSupplicantE0_NS_4hidl4base4V1_08BnHwBaseE
_ZTCN7android8hardware4wifi10supplicant4V1_114BpHwSupplicantE0_NS0_11BpInterfaceINS3_11ISupplicantEEE
_ZTCN7android8hardware4wifi10supplicant4V1_114BpHwSupplicantE0_NS2_4V1_011ISupplicantE
_ZTCN7android8hardware4wifi10supplicant4V1_114BpHwSupplicantE0_NS3_11ISupplicantE
_ZTCN7android8hardware4wifi10supplicant4V1_114BpHwSupplicantE0_NS_4hidl4base4V1_05IBaseE
_ZTCN7android8hardware4wifi10supplicant4V1_114BpHwSupplicantE16_NS0_11BpHwRefBaseE
_ZTCN7android8hardware4wifi10supplicant4V1_114BpHwSupplicantE8_NS0_10IInterfaceE
_ZTCN7android8hardware4wifi10supplicant4V1_119ISupplicantStaIfaceE0_NS2_4V1_016ISupplicantIfaceE
_ZTCN7android8hardware4wifi10supplicant4V1_119ISupplicantStaIfaceE0_NS2_4V1_019ISupplicantStaIfaceE
_ZTCN7android8hardware4wifi10supplicant4V1_119ISupplicantStaIfaceE0_NS_4hidl4base4V1_05IBaseE
_ZTCN7android8hardware4wifi10supplicant4V1_121ISupplicantStaNetworkE0_NS2_4V1_018ISupplicantNetworkE
_ZTCN7android8hardware4wifi10supplicant4V1_121ISupplicantStaNetworkE0_NS2_4V1_021ISupplicantStaNetworkE
_ZTCN7android8hardware4wifi10supplicant4V1_121ISupplicantStaNetworkE0_NS_4hidl4base4V1_05IBaseE
_ZTCN7android8hardware4wifi10supplicant4V1_122BnHwSupplicantStaIfaceE0_NS0_7IBinderE
_ZTCN7android8hardware4wifi10supplicant4V1_122BnHwSupplicantStaIfaceE0_NS0_9BHwBinderE
_ZTCN7android8hardware4wifi10supplicant4V1_122BnHwSupplicantStaIfaceE0_NS_4hidl4base4V1_08BnHwBaseE
_ZTCN7android8hardware4wifi10supplicant4V1_122BpHwSupplicantStaIfaceE0_NS0_11BpInterfaceINS3_19ISupplicantStaIfaceEEE
_ZTCN7android8hardware4wifi10supplicant4V1_122BpHwSupplicantStaIfaceE0_NS2_4V1_016ISupplicantIfaceE
_ZTCN7android8hardware4wifi10supplicant4V1_122BpHwSupplicantStaIfaceE0_NS2_4V1_019ISupplicantStaIfaceE
_ZTCN7android8hardware4wifi10supplicant4V1_122BpHwSupplicantStaIfaceE0_NS3_19ISupplicantStaIfaceE
_ZTCN7android8hardware4wifi10supplicant4V1_122BpHwSupplicantStaIfaceE0_NS_4hidl4base4V1_05IBaseE
_ZTCN7android8hardware4wifi10supplicant4V1_122BpHwSupplicantStaIfaceE16_NS0_11BpHwRefBaseE
_ZTCN7android8hardware4wifi10supplicant4V1_122BpHwSupplicantStaIfaceE8_NS0_10IInterfaceE
_ZTCN7android8hardware4wifi10supplicant4V1_124BnHwSupplicantStaNetworkE0_NS0_7IBinderE
_ZTCN7android8hardware4wifi10supplicant4V1_124BnHwSupplicantStaNetworkE0_NS0_9BHwBinderE
_ZTCN7android8hardware4wifi10supplicant4V1_124BnHwSupplicantStaNetworkE0_NS_4hidl4base4V1_08BnHwBaseE
_ZTCN7android8hardware4wifi10supplicant4V1_124BpHwSupplicantStaNetworkE0_NS0_11BpInterfaceINS3_21ISupplicantStaNetworkEEE
_ZTCN7android8hardware4wifi10supplicant4V1_124BpHwSupplicantStaNetworkE0_NS2_4V1_018ISupplicantNetworkE
_ZTCN7android8hardware4wifi10supplicant4V1_124BpHwSupplicantStaNetworkE0_NS2_4V1_021ISupplicantStaNetworkE
_ZTCN7android8hardware4wifi10supplicant4V1_124BpHwSupplicantStaNetworkE0_NS3_21ISupplicantStaNetworkE
_ZTCN7android8hardware4wifi10supplicant4V1_124BpHwSupplicantStaNetworkE0_NS_4hidl4base4V1_05IBaseE
_ZTCN7android8hardware4wifi10supplicant4V1_124BpHwSupplicantStaNetworkE16_NS0_11BpHwRefBaseE
_ZTCN7android8hardware4wifi10supplicant4V1_124BpHwSupplicantStaNetworkE8_NS0_10IInterfaceE
_ZTCN7android8hardware4wifi10supplicant4V1_127ISupplicantStaIfaceCallbackE0_NS2_4V1_027ISupplicantStaIfaceCallbackE
_ZTCN7android8hardware4wifi10supplicant4V1_127ISupplicantStaIfaceCallbackE0_NS_4hidl4base4V1_05IBaseE
_ZTCN7android8hardware4wifi10supplicant4V1_130BnHwSupplicantStaIfaceCallbackE0_NS0_7IBinderE
_ZTCN7android8hardware4wifi10supplicant4V1_130BnHwSupplicantStaIfaceCallbackE0_NS0_9BHwBinderE
_ZTCN7android8hardware4wifi10supplicant4V1_130BnHwSupplicantStaIfaceCallbackE0_NS_4hidl4base4V1_08BnHwBaseE
_ZTCN7android8hardware4wifi10supplicant4V1_130BpHwSupplicantStaIfaceCallbackE0_NS0_11BpInterfaceINS3_27ISupplicantStaIfaceCallbackEEE
_ZTCN7android8hardware4wifi10supplicant4V1_130BpHwSupplicantStaIfaceCallbackE0_NS2_4V1_027ISupplicantStaIfaceCallbackE
_ZTCN7android8hardware4wifi10supplicant4V1_130BpHwSupplicantStaIfaceCallbackE0_NS3_27ISupplicantStaIfaceCallbackE
_ZTCN7android8hardware4wifi10supplicant4V1_130BpHwSupplicantStaIfaceCallbackE0_NS_4hidl4base4V1_05IBaseE
_ZTCN7android8hardware4wifi10supplicant4V1_130BpHwSupplicantStaIfaceCallbackE16_NS0_11BpHwRefBaseE
_ZTCN7android8hardware4wifi10supplicant4V1_130BpHwSupplicantStaIfaceCallbackE8_NS0_10IInterfaceE
_ZTTN7android8hardware4wifi10supplicant4V1_111ISupplicantE
_ZTTN7android8hardware4wifi10supplicant4V1_114BnHwSupplicantE
_ZTTN7android8hardware4wifi10supplicant4V1_114BpHwSupplicantE
_ZTTN7android8hardware4wifi10supplicant4V1_119ISupplicantStaIfaceE
_ZTTN7android8hardware4wifi10supplicant4V1_121ISupplicantStaNetworkE
_ZTTN7android8hardware4wifi10supplicant4V1_122BnHwSupplicantStaIfaceE
_ZTTN7android8hardware4wifi10supplicant4V1_122BpHwSupplicantStaIfaceE
_ZTTN7android8hardware4wifi10supplicant4V1_124BnHwSupplicantStaNetworkE
_ZTTN7android8hardware4wifi10supplicant4V1_124BpHwSupplicantStaNetworkE
_ZTTN7android8hardware4wifi10supplicant4V1_127ISupplicantStaIfaceCallbackE
_ZTTN7android8hardware4wifi10supplicant4V1_130BnHwSupplicantStaIfaceCallbackE
_ZTTN7android8hardware4wifi10supplicant4V1_130BpHwSupplicantStaIfaceCallbackE
_ZTVN7android8hardware4wifi10supplicant4V1_111ISupplicantE
_ZTVN7android8hardware4wifi10supplicant4V1_114BnHwSupplicantE
_ZTVN7android8hardware4wifi10supplicant4V1_114BpHwSupplicantE
_ZTVN7android8hardware4wifi10supplicant4V1_119ISupplicantStaIfaceE
_ZTVN7android8hardware4wifi10supplicant4V1_121ISupplicantStaNetworkE
_ZTVN7android8hardware4wifi10supplicant4V1_122BnHwSupplicantStaIfaceE
_ZTVN7android8hardware4wifi10supplicant4V1_122BpHwSupplicantStaIfaceE
_ZTVN7android8hardware4wifi10supplicant4V1_124BnHwSupplicantStaNetworkE
_ZTVN7android8hardware4wifi10supplicant4V1_124BpHwSupplicantStaNetworkE
_ZTVN7android8hardware4wifi10supplicant4V1_127ISupplicantStaIfaceCallbackE
_ZTVN7android8hardware4wifi10supplicant4V1_130BnHwSupplicantStaIfaceCallbackE
_ZTVN7android8hardware4wifi10supplicant4V1_130BpHwSupplicantStaIfaceCallbackE
_ZThn32_N7android8hardware4wifi10supplicant4V1_114BnHwSupplicantD0Ev
_ZThn32_N7android8hardware4wifi10supplicant4V1_114BnHwSupplicantD1Ev
_ZThn32_N7android8hardware4wifi10supplicant4V1_122BnHwSupplicantStaIfaceD0Ev
_ZThn32_N7android8hardware4wifi10supplicant4V1_122BnHwSupplicantStaIfaceD1Ev
_ZThn32_N7android8hardware4wifi10supplicant4V1_124BnHwSupplicantStaNetworkD0Ev
_ZThn32_N7android8hardware4wifi10supplicant4V1_124BnHwSupplicantStaNetworkD1Ev
_ZThn32_N7android8hardware4wifi10supplicant4V1_130BnHwSupplicantStaIfaceCallbackD0Ev
_ZThn32_N7android8hardware4wifi10supplicant4V1_130BnHwSupplicantStaIfaceCallbackD1Ev
_ZTv0_n24_N7android8hardware4wifi10supplicant4V1_114BnHwSupplicantD0Ev
_ZTv0_n24_N7android8hardware4wifi10supplicant4V1_114BnHwSupplicantD1Ev
_ZTv0_n24_N7android8hardware4wifi10supplicant4V1_122BnHwSupplicantStaIfaceD0Ev
_ZTv0_n24_N7android8hardware4wifi10supplicant4V1_122BnHwSupplicantStaIfaceD1Ev
_ZTv0_n24_N7android8hardware4wifi10supplicant4V1_124BnHwSupplicantStaNetworkD0Ev
_ZTv0_n24_N7android8hardware4wifi10supplicant4V1_124BnHwSupplicantStaNetworkD1Ev
_ZTv0_n24_N7android8hardware4wifi10supplicant4V1_130BnHwSupplicantStaIfaceCallbackD0Ev
_ZTv0_n24_N7android8hardware4wifi10supplicant4V1_130BnHwSupplicantStaIfaceCallbackD1Ev
