_ZN7android8hardware14neuralnetworks4V1_110BnHwDevice10onTransactEjRKNS0_6ParcelEPS4_jNSt3__18functionIFvRS4_EEE
_ZN7android8hardware14neuralnetworks4V1_110BnHwDevice12getDebugInfoENSt3__18functionIFvRKNS_4hidl4base4V1_09DebugInfoEEEE
_ZN7android8hardware14neuralnetworks4V1_110BnHwDevice22_hidl_prepareModel_1_1EPNS_4hidl4base4V1_08BnHwBaseERKNS0_6ParcelEPS9_NSt3__18functionIFvRS9_EEE
_ZN7android8hardware14neuralnetworks4V1_110BnHwDevice25_hidl_getCapabilities_1_1EPNS_4hidl4base4V1_08BnHwBaseERKNS0_6ParcelEPS9_NSt3__18functionIFvRS9_EEE
_ZN7android8hardware14neuralnetworks4V1_110BnHwDevice32_hidl_getSupportedOperations_1_1EPNS_4hidl4base4V1_08BnHwBaseERKNS0_6ParcelEPS9_NSt3__18functionIFvRS9_EEE
_ZN7android8hardware14neuralnetworks4V1_110BnHwDevice4pingEv
_ZN7android8hardware14neuralnetworks4V1_110BnHwDeviceC1ERKNS_2spINS2_7IDeviceEEE
_ZN7android8hardware14neuralnetworks4V1_110BnHwDeviceC2ERKNS_2spINS2_7IDeviceEEE
_ZN7android8hardware14neuralnetworks4V1_110BnHwDeviceD0Ev
_ZN7android8hardware14neuralnetworks4V1_110BnHwDeviceD1Ev
_ZN7android8hardware14neuralnetworks4V1_110BnHwDeviceD2Ev
_ZN7android8hardware14neuralnetworks4V1_110BpHwDevice11linkToDeathERKNS_2spINS0_20hidl_death_recipientEEEm
_ZN7android8hardware14neuralnetworks4V1_110BpHwDevice12getDebugInfoENSt3__18functionIFvRKNS_4hidl4base4V1_09DebugInfoEEEE
_ZN7android8hardware14neuralnetworks4V1_110BpHwDevice12getHashChainENSt3__18functionIFvRKNS0_8hidl_vecINS0_10hidl_arrayIhLm32EJEEEEEEEE
_ZN7android8hardware14neuralnetworks4V1_110BpHwDevice12prepareModelERKNS1_4V1_05ModelERKNS_2spINS4_22IPreparedModelCallbackEEE
_ZN7android8hardware14neuralnetworks4V1_110BpHwDevice13unlinkToDeathERKNS_2spINS0_20hidl_death_recipientEEE
_ZN7android8hardware14neuralnetworks4V1_110BpHwDevice14interfaceChainENSt3__18functionIFvRKNS0_8hidl_vecINS0_11hidl_stringEEEEEE
_ZN7android8hardware14neuralnetworks4V1_110BpHwDevice15getCapabilitiesENSt3__18functionIFvNS1_4V1_011ErrorStatusERKNS6_12CapabilitiesEEEE
_ZN7android8hardware14neuralnetworks4V1_110BpHwDevice16prepareModel_1_1ERKNS2_5ModelENS2_19ExecutionPreferenceERKNS_2spINS1_4V1_022IPreparedModelCallbackEEE
_ZN7android8hardware14neuralnetworks4V1_110BpHwDevice19getCapabilities_1_1ENSt3__18functionIFvNS1_4V1_011ErrorStatusERKNS2_12CapabilitiesEEEE
_ZN7android8hardware14neuralnetworks4V1_110BpHwDevice19interfaceDescriptorENSt3__18functionIFvRKNS0_11hidl_stringEEEE
_ZN7android8hardware14neuralnetworks4V1_110BpHwDevice21notifySyspropsChangedEv
_ZN7android8hardware14neuralnetworks4V1_110BpHwDevice21setHALInstrumentationEv
_ZN7android8hardware14neuralnetworks4V1_110BpHwDevice22_hidl_prepareModel_1_1EPNS0_10IInterfaceEPNS0_7details16HidlInstrumentorERKNS2_5ModelENS2_19ExecutionPreferenceERKNS_2spINS1_4V1_022IPreparedModelCallbackEEE
_ZN7android8hardware14neuralnetworks4V1_110BpHwDevice22getSupportedOperationsERKNS1_4V1_05ModelENSt3__18functionIFvNS4_11ErrorStatusERKNS0_8hidl_vecIbEEEEE
_ZN7android8hardware14neuralnetworks4V1_110BpHwDevice25_hidl_getCapabilities_1_1EPNS0_10IInterfaceEPNS0_7details16HidlInstrumentorENSt3__18functionIFvNS1_4V1_011ErrorStatusERKNS2_12CapabilitiesEEEE
_ZN7android8hardware14neuralnetworks4V1_110BpHwDevice26getSupportedOperations_1_1ERKNS2_5ModelENSt3__18functionIFvNS1_4V1_011ErrorStatusERKNS0_8hidl_vecIbEEEEE
_ZN7android8hardware14neuralnetworks4V1_110BpHwDevice32_hidl_getSupportedOperations_1_1EPNS0_10IInterfaceEPNS0_7details16HidlInstrumentorERKNS2_5ModelENSt3__18functionIFvNS1_4V1_011ErrorStatusERKNS0_8hidl_vecIbEEEEE
_ZN7android8hardware14neuralnetworks4V1_110BpHwDevice4pingEv
_ZN7android8hardware14neuralnetworks4V1_110BpHwDevice5debugERKNS0_11hidl_handleERKNS0_8hidl_vecINS0_11hidl_stringEEE
_ZN7android8hardware14neuralnetworks4V1_110BpHwDevice9getStatusEv
_ZN7android8hardware14neuralnetworks4V1_110BpHwDeviceC1ERKNS_2spINS0_7IBinderEEE
_ZN7android8hardware14neuralnetworks4V1_110BpHwDeviceC2ERKNS_2spINS0_7IBinderEEE
_ZN7android8hardware14neuralnetworks4V1_121writeEmbeddedToParcelERKNS2_5ModelEPNS0_6ParcelEmm
_ZN7android8hardware14neuralnetworks4V1_121writeEmbeddedToParcelERKNS2_9OperationEPNS0_6ParcelEmm
_ZN7android8hardware14neuralnetworks4V1_122readEmbeddedFromParcelERKNS2_5ModelERKNS0_6ParcelEmm
_ZN7android8hardware14neuralnetworks4V1_122readEmbeddedFromParcelERKNS2_9OperationERKNS0_6ParcelEmm
_ZN7android8hardware14neuralnetworks4V1_17IDevice10descriptorE
_ZN7android8hardware14neuralnetworks4V1_17IDevice10getServiceERKNSt3__112basic_stringIcNS4_11char_traitsIcEENS4_9allocatorIcEEEEb
_ZN7android8hardware14neuralnetworks4V1_17IDevice11linkToDeathERKNS_2spINS0_20hidl_death_recipientEEEm
_ZN7android8hardware14neuralnetworks4V1_17IDevice12getDebugInfoENSt3__18functionIFvRKNS_4hidl4base4V1_09DebugInfoEEEE
_ZN7android8hardware14neuralnetworks4V1_17IDevice12getHashChainENSt3__18functionIFvRKNS0_8hidl_vecINS0_10hidl_arrayIhLm32EJEEEEEEEE
_ZN7android8hardware14neuralnetworks4V1_17IDevice13tryGetServiceERKNSt3__112basic_stringIcNS4_11char_traitsIcEENS4_9allocatorIcEEEEb
_ZN7android8hardware14neuralnetworks4V1_17IDevice13unlinkToDeathERKNS_2spINS0_20hidl_death_recipientEEE
_ZN7android8hardware14neuralnetworks4V1_17IDevice14interfaceChainENSt3__18functionIFvRKNS0_8hidl_vecINS0_11hidl_stringEEEEEE
_ZN7android8hardware14neuralnetworks4V1_17IDevice17registerAsServiceERKNSt3__112basic_stringIcNS4_11char_traitsIcEENS4_9allocatorIcEEEE
_ZN7android8hardware14neuralnetworks4V1_17IDevice19interfaceDescriptorENSt3__18functionIFvRKNS0_11hidl_stringEEEE
_ZN7android8hardware14neuralnetworks4V1_17IDevice21notifySyspropsChangedEv
_ZN7android8hardware14neuralnetworks4V1_17IDevice21setHALInstrumentationEv
_ZN7android8hardware14neuralnetworks4V1_17IDevice24registerForNotificationsERKNSt3__112basic_stringIcNS4_11char_traitsIcEENS4_9allocatorIcEEEERKNS_2spINS_4hidl7manager4V1_020IServiceNotificationEEE
_ZN7android8hardware14neuralnetworks4V1_17IDevice4pingEv
_ZN7android8hardware14neuralnetworks4V1_17IDevice5debugERKNS0_11hidl_handleERKNS0_8hidl_vecINS0_11hidl_stringEEE
_ZN7android8hardware14neuralnetworks4V1_17IDevice8castFromERKNS_2spINS1_4V1_07IDeviceEEEb
_ZN7android8hardware14neuralnetworks4V1_17IDevice8castFromERKNS_2spINS_4hidl4base4V1_05IBaseEEEb
_ZN7android8hardware14neuralnetworks4V1_17IDevice8castFromERKNS_2spIS3_EEb
_ZN7android8hardware14neuralnetworks4V1_18BsDevice13addOnewayTaskENSt3__18functionIFvvEEE
_ZN7android8hardware14neuralnetworks4V1_18BsDeviceC1ENS_2spINS2_7IDeviceEEE
_ZN7android8hardware14neuralnetworks4V1_18BsDeviceC2ENS_2spINS2_7IDeviceEEE
_ZTCN7android8hardware14neuralnetworks4V1_110BnHwDeviceE0_NS0_7IBinderE
_ZTCN7android8hardware14neuralnetworks4V1_110BnHwDeviceE0_NS0_9BHwBinderE
_ZTCN7android8hardware14neuralnetworks4V1_110BnHwDeviceE0_NS_4hidl4base4V1_08BnHwBaseE
_ZTCN7android8hardware14neuralnetworks4V1_110BpHwDeviceE0_NS0_11BpInterfaceINS2_7IDeviceEEE
_ZTCN7android8hardware14neuralnetworks4V1_110BpHwDeviceE0_NS1_4V1_07IDeviceE
_ZTCN7android8hardware14neuralnetworks4V1_110BpHwDeviceE0_NS2_7IDeviceE
_ZTCN7android8hardware14neuralnetworks4V1_110BpHwDeviceE0_NS_4hidl4base4V1_05IBaseE
_ZTCN7android8hardware14neuralnetworks4V1_110BpHwDeviceE16_NS0_11BpHwRefBaseE
_ZTCN7android8hardware14neuralnetworks4V1_110BpHwDeviceE8_NS0_10IInterfaceE
_ZTCN7android8hardware14neuralnetworks4V1_17IDeviceE0_NS1_4V1_07IDeviceE
_ZTCN7android8hardware14neuralnetworks4V1_17IDeviceE0_NS_4hidl4base4V1_05IBaseE
_ZTTN7android8hardware14neuralnetworks4V1_110BnHwDeviceE
_ZTTN7android8hardware14neuralnetworks4V1_110BpHwDeviceE
_ZTTN7android8hardware14neuralnetworks4V1_17IDeviceE
_ZTVN7android8hardware14neuralnetworks4V1_110BnHwDeviceE
_ZTVN7android8hardware14neuralnetworks4V1_110BpHwDeviceE
_ZTVN7android8hardware14neuralnetworks4V1_17IDeviceE
_ZThn32_N7android8hardware14neuralnetworks4V1_110BnHwDeviceD0Ev
_ZThn32_N7android8hardware14neuralnetworks4V1_110BnHwDeviceD1Ev
_ZTv0_n24_N7android8hardware14neuralnetworks4V1_110BnHwDeviceD0Ev
_ZTv0_n24_N7android8hardware14neuralnetworks4V1_110BnHwDeviceD1Ev
