_ZN7android8hardware5power4V1_26IPower10descriptorE
_ZN7android8hardware5power4V1_26IPower10getServiceERKNSt3__112basic_stringIcNS4_11char_traitsIcEENS4_9allocatorIcEEEEb
_ZN7android8hardware5power4V1_26IPower11linkToDeathERKNS_2spINS0_20hidl_death_recipientEEEm
_ZN7android8hardware5power4V1_26IPower12getDebugInfoENSt3__18functionIFvRKNS_4hidl4base4V1_09DebugInfoEEEE
_ZN7android8hardware5power4V1_26IPower12getHashChainENSt3__18functionIFvRKNS0_8hidl_vecINS0_10hidl_arrayIhLm32EJEEEEEEEE
_ZN7android8hardware5power4V1_26IPower13tryGetServiceERKNSt3__112basic_stringIcNS4_11char_traitsIcEENS4_9allocatorIcEEEEb
_ZN7android8hardware5power4V1_26IPower13unlinkToDeathERKNS_2spINS0_20hidl_death_recipientEEE
_ZN7android8hardware5power4V1_26IPower14interfaceChainENSt3__18functionIFvRKNS0_8hidl_vecINS0_11hidl_stringEEEEEE
_ZN7android8hardware5power4V1_26IPower17registerAsServiceERKNSt3__112basic_stringIcNS4_11char_traitsIcEENS4_9allocatorIcEEEE
_ZN7android8hardware5power4V1_26IPower19interfaceDescriptorENSt3__18functionIFvRKNS0_11hidl_stringEEEE
_ZN7android8hardware5power4V1_26IPower21notifySyspropsChangedEv
_ZN7android8hardware5power4V1_26IPower21setHALInstrumentationEv
_ZN7android8hardware5power4V1_26IPower24registerForNotificationsERKNSt3__112basic_stringIcNS4_11char_traitsIcEENS4_9allocatorIcEEEERKNS_2spINS_4hidl7manager4V1_020IServiceNotificationEEE
_ZN7android8hardware5power4V1_26IPower4pingEv
_ZN7android8hardware5power4V1_26IPower5debugERKNS0_11hidl_handleERKNS0_8hidl_vecINS0_11hidl_stringEEE
_ZN7android8hardware5power4V1_26IPower8castFromERKNS_2spINS1_4V1_06IPowerEEEb
_ZN7android8hardware5power4V1_26IPower8castFromERKNS_2spINS1_4V1_16IPowerEEEb
_ZN7android8hardware5power4V1_26IPower8castFromERKNS_2spINS_4hidl4base4V1_05IBaseEEEb
_ZN7android8hardware5power4V1_26IPower8castFromERKNS_2spIS3_EEb
_ZN7android8hardware5power4V1_27BsPower13addOnewayTaskENSt3__18functionIFvvEEE
_ZN7android8hardware5power4V1_27BsPowerC1ENS_2spINS2_6IPowerEEE
_ZN7android8hardware5power4V1_27BsPowerC2ENS_2spINS2_6IPowerEEE
_ZN7android8hardware5power4V1_29BnHwPower10onTransactEjRKNS0_6ParcelEPS4_jNSt3__18functionIFvRS4_EEE
_ZN7android8hardware5power4V1_29BnHwPower12getDebugInfoENSt3__18functionIFvRKNS_4hidl4base4V1_09DebugInfoEEEE
_ZN7android8hardware5power4V1_29BnHwPower24_hidl_powerHintAsync_1_2EPNS_4hidl4base4V1_08BnHwBaseERKNS0_6ParcelEPS9_NSt3__18functionIFvRS9_EEE
_ZN7android8hardware5power4V1_29BnHwPower4pingEv
_ZN7android8hardware5power4V1_29BnHwPowerC1ERKNS_2spINS2_6IPowerEEE
_ZN7android8hardware5power4V1_29BnHwPowerC2ERKNS_2spINS2_6IPowerEEE
_ZN7android8hardware5power4V1_29BnHwPowerD0Ev
_ZN7android8hardware5power4V1_29BnHwPowerD1Ev
_ZN7android8hardware5power4V1_29BnHwPowerD2Ev
_ZN7android8hardware5power4V1_29BpHwPower10setFeatureENS1_4V1_07FeatureEb
_ZN7android8hardware5power4V1_29BpHwPower11linkToDeathERKNS_2spINS0_20hidl_death_recipientEEEm
_ZN7android8hardware5power4V1_29BpHwPower12getDebugInfoENSt3__18functionIFvRKNS_4hidl4base4V1_09DebugInfoEEEE
_ZN7android8hardware5power4V1_29BpHwPower12getHashChainENSt3__18functionIFvRKNS0_8hidl_vecINS0_10hidl_arrayIhLm32EJEEEEEEEE
_ZN7android8hardware5power4V1_29BpHwPower13unlinkToDeathERKNS_2spINS0_20hidl_death_recipientEEE
_ZN7android8hardware5power4V1_29BpHwPower14interfaceChainENSt3__18functionIFvRKNS0_8hidl_vecINS0_11hidl_stringEEEEEE
_ZN7android8hardware5power4V1_29BpHwPower14powerHintAsyncENS1_4V1_09PowerHintEi
_ZN7android8hardware5power4V1_29BpHwPower14setInteractiveEb
_ZN7android8hardware5power4V1_29BpHwPower18powerHintAsync_1_2ENS2_9PowerHintEi
_ZN7android8hardware5power4V1_29BpHwPower19interfaceDescriptorENSt3__18functionIFvRKNS0_11hidl_stringEEEE
_ZN7android8hardware5power4V1_29BpHwPower21notifySyspropsChangedEv
_ZN7android8hardware5power4V1_29BpHwPower21setHALInstrumentationEv
_ZN7android8hardware5power4V1_29BpHwPower24_hidl_powerHintAsync_1_2EPNS0_10IInterfaceEPNS0_7details16HidlInstrumentorENS2_9PowerHintEi
_ZN7android8hardware5power4V1_29BpHwPower24getPlatformLowPowerStatsENSt3__18functionIFvRKNS0_8hidl_vecINS1_4V1_028PowerStatePlatformSleepStateEEENS7_6StatusEEEE
_ZN7android8hardware5power4V1_29BpHwPower25getSubsystemLowPowerStatsENSt3__18functionIFvRKNS0_8hidl_vecINS1_4V1_119PowerStateSubsystemEEENS1_4V1_06StatusEEEE
_ZN7android8hardware5power4V1_29BpHwPower4pingEv
_ZN7android8hardware5power4V1_29BpHwPower5debugERKNS0_11hidl_handleERKNS0_8hidl_vecINS0_11hidl_stringEEE
_ZN7android8hardware5power4V1_29BpHwPower9powerHintENS1_4V1_09PowerHintEi
_ZN7android8hardware5power4V1_29BpHwPowerC1ERKNS_2spINS0_7IBinderEEE
_ZN7android8hardware5power4V1_29BpHwPowerC2ERKNS_2spINS0_7IBinderEEE
_ZTCN7android8hardware5power4V1_26IPowerE0_NS1_4V1_06IPowerE
_ZTCN7android8hardware5power4V1_26IPowerE0_NS1_4V1_16IPowerE
_ZTCN7android8hardware5power4V1_26IPowerE0_NS_4hidl4base4V1_05IBaseE
_ZTCN7android8hardware5power4V1_29BnHwPowerE0_NS0_7IBinderE
_ZTCN7android8hardware5power4V1_29BnHwPowerE0_NS0_9BHwBinderE
_ZTCN7android8hardware5power4V1_29BnHwPowerE0_NS_4hidl4base4V1_08BnHwBaseE
_ZTCN7android8hardware5power4V1_29BpHwPowerE0_NS0_11BpInterfaceINS2_6IPowerEEE
_ZTCN7android8hardware5power4V1_29BpHwPowerE0_NS1_4V1_06IPowerE
_ZTCN7android8hardware5power4V1_29BpHwPowerE0_NS1_4V1_16IPowerE
_ZTCN7android8hardware5power4V1_29BpHwPowerE0_NS2_6IPowerE
_ZTCN7android8hardware5power4V1_29BpHwPowerE0_NS_4hidl4base4V1_05IBaseE
_ZTCN7android8hardware5power4V1_29BpHwPowerE16_NS0_11BpHwRefBaseE
_ZTCN7android8hardware5power4V1_29BpHwPowerE8_NS0_10IInterfaceE
_ZTTN7android8hardware5power4V1_26IPowerE
_ZTTN7android8hardware5power4V1_29BnHwPowerE
_ZTTN7android8hardware5power4V1_29BpHwPowerE
_ZTVN7android8hardware5power4V1_26IPowerE
_ZTVN7android8hardware5power4V1_29BnHwPowerE
_ZTVN7android8hardware5power4V1_29BpHwPowerE
_ZThn32_N7android8hardware5power4V1_29BnHwPowerD0Ev
_ZThn32_N7android8hardware5power4V1_29BnHwPowerD1Ev
_ZTv0_n24_N7android8hardware5power4V1_29BnHwPowerD0Ev
_ZTv0_n24_N7android8hardware5power4V1_29BnHwPowerD1Ev
