_ZN7android8hardware3usb4V1_112IUsbCallback10descriptorE
_ZN7android8hardware3usb4V1_112IUsbCallback10getServiceERKNSt3__112basic_stringIcNS4_11char_traitsIcEENS4_9allocatorIcEEEEb
_ZN7android8hardware3usb4V1_112IUsbCallback11linkToDeathERKNS_2spINS0_20hidl_death_recipientEEEm
_ZN7android8hardware3usb4V1_112IUsbCallback12getDebugInfoENSt3__18functionIFvRKNS_4hidl4base4V1_09DebugInfoEEEE
_ZN7android8hardware3usb4V1_112IUsbCallback12getHashChainENSt3__18functionIFvRKNS0_8hidl_vecINS0_10hidl_arrayIhLm32EJEEEEEEEE
_ZN7android8hardware3usb4V1_112IUsbCallback13tryGetServiceERKNSt3__112basic_stringIcNS4_11char_traitsIcEENS4_9allocatorIcEEEEb
_ZN7android8hardware3usb4V1_112IUsbCallback13unlinkToDeathERKNS_2spINS0_20hidl_death_recipientEEE
_ZN7android8hardware3usb4V1_112IUsbCallback14interfaceChainENSt3__18functionIFvRKNS0_8hidl_vecINS0_11hidl_stringEEEEEE
_ZN7android8hardware3usb4V1_112IUsbCallback17registerAsServiceERKNSt3__112basic_stringIcNS4_11char_traitsIcEENS4_9allocatorIcEEEE
_ZN7android8hardware3usb4V1_112IUsbCallback19interfaceDescriptorENSt3__18functionIFvRKNS0_11hidl_stringEEEE
_ZN7android8hardware3usb4V1_112IUsbCallback21notifySyspropsChangedEv
_ZN7android8hardware3usb4V1_112IUsbCallback21setHALInstrumentationEv
_ZN7android8hardware3usb4V1_112IUsbCallback24registerForNotificationsERKNSt3__112basic_stringIcNS4_11char_traitsIcEENS4_9allocatorIcEEEERKNS_2spINS_4hidl7manager4V1_020IServiceNotificationEEE
_ZN7android8hardware3usb4V1_112IUsbCallback4pingEv
_ZN7android8hardware3usb4V1_112IUsbCallback5debugERKNS0_11hidl_handleERKNS0_8hidl_vecINS0_11hidl_stringEEE
_ZN7android8hardware3usb4V1_112IUsbCallback8castFromERKNS_2spINS1_4V1_012IUsbCallbackEEEb
_ZN7android8hardware3usb4V1_112IUsbCallback8castFromERKNS_2spINS_4hidl4base4V1_05IBaseEEEb
_ZN7android8hardware3usb4V1_112IUsbCallback8castFromERKNS_2spIS3_EEb
_ZN7android8hardware3usb4V1_113BsUsbCallback13addOnewayTaskENSt3__18functionIFvvEEE
_ZN7android8hardware3usb4V1_113BsUsbCallbackC1ENS_2spINS2_12IUsbCallbackEEE
_ZN7android8hardware3usb4V1_113BsUsbCallbackC2ENS_2spINS2_12IUsbCallbackEEE
_ZN7android8hardware3usb4V1_115BnHwUsbCallback10onTransactEjRKNS0_6ParcelEPS4_jNSt3__18functionIFvRS4_EEE
_ZN7android8hardware3usb4V1_115BnHwUsbCallback12getDebugInfoENSt3__18functionIFvRKNS_4hidl4base4V1_09DebugInfoEEEE
_ZN7android8hardware3usb4V1_115BnHwUsbCallback32_hidl_notifyPortStatusChange_1_1EPNS_4hidl4base4V1_08BnHwBaseERKNS0_6ParcelEPS9_NSt3__18functionIFvRS9_EEE
_ZN7android8hardware3usb4V1_115BnHwUsbCallback4pingEv
_ZN7android8hardware3usb4V1_115BnHwUsbCallbackC1ERKNS_2spINS2_12IUsbCallbackEEE
_ZN7android8hardware3usb4V1_115BnHwUsbCallbackC2ERKNS_2spINS2_12IUsbCallbackEEE
_ZN7android8hardware3usb4V1_115BnHwUsbCallbackD0Ev
_ZN7android8hardware3usb4V1_115BnHwUsbCallbackD1Ev
_ZN7android8hardware3usb4V1_115BnHwUsbCallbackD2Ev
_ZN7android8hardware3usb4V1_115BpHwUsbCallback11linkToDeathERKNS_2spINS0_20hidl_death_recipientEEEm
_ZN7android8hardware3usb4V1_115BpHwUsbCallback12getDebugInfoENSt3__18functionIFvRKNS_4hidl4base4V1_09DebugInfoEEEE
_ZN7android8hardware3usb4V1_115BpHwUsbCallback12getHashChainENSt3__18functionIFvRKNS0_8hidl_vecINS0_10hidl_arrayIhLm32EJEEEEEEEE
_ZN7android8hardware3usb4V1_115BpHwUsbCallback13unlinkToDeathERKNS_2spINS0_20hidl_death_recipientEEE
_ZN7android8hardware3usb4V1_115BpHwUsbCallback14interfaceChainENSt3__18functionIFvRKNS0_8hidl_vecINS0_11hidl_stringEEEEEE
_ZN7android8hardware3usb4V1_115BpHwUsbCallback19interfaceDescriptorENSt3__18functionIFvRKNS0_11hidl_stringEEEE
_ZN7android8hardware3usb4V1_115BpHwUsbCallback21notifySyspropsChangedEv
_ZN7android8hardware3usb4V1_115BpHwUsbCallback21setHALInstrumentationEv
_ZN7android8hardware3usb4V1_115BpHwUsbCallback22notifyPortStatusChangeERKNS0_8hidl_vecINS1_4V1_010PortStatusEEENS5_6StatusE
_ZN7android8hardware3usb4V1_115BpHwUsbCallback22notifyRoleSwitchStatusERKNS0_11hidl_stringERKNS1_4V1_08PortRoleENS7_6StatusE
_ZN7android8hardware3usb4V1_115BpHwUsbCallback26notifyPortStatusChange_1_1ERKNS0_8hidl_vecINS2_14PortStatus_1_1EEENS1_4V1_06StatusE
_ZN7android8hardware3usb4V1_115BpHwUsbCallback32_hidl_notifyPortStatusChange_1_1EPNS0_10IInterfaceEPNS0_7details16HidlInstrumentorERKNS0_8hidl_vecINS2_14PortStatus_1_1EEENS1_4V1_06StatusE
_ZN7android8hardware3usb4V1_115BpHwUsbCallback4pingEv
_ZN7android8hardware3usb4V1_115BpHwUsbCallback5debugERKNS0_11hidl_handleERKNS0_8hidl_vecINS0_11hidl_stringEEE
_ZN7android8hardware3usb4V1_115BpHwUsbCallbackC1ERKNS_2spINS0_7IBinderEEE
_ZN7android8hardware3usb4V1_115BpHwUsbCallbackC2ERKNS_2spINS0_7IBinderEEE
_ZN7android8hardware3usb4V1_121writeEmbeddedToParcelERKNS2_14PortStatus_1_1EPNS0_6ParcelEmm
_ZN7android8hardware3usb4V1_122readEmbeddedFromParcelERKNS2_14PortStatus_1_1ERKNS0_6ParcelEmm
_ZN7android8hardware3usb4V1_14IUsb10descriptorE
_ZN7android8hardware3usb4V1_14IUsb10getServiceERKNSt3__112basic_stringIcNS4_11char_traitsIcEENS4_9allocatorIcEEEEb
_ZN7android8hardware3usb4V1_14IUsb11linkToDeathERKNS_2spINS0_20hidl_death_recipientEEEm
_ZN7android8hardware3usb4V1_14IUsb12getDebugInfoENSt3__18functionIFvRKNS_4hidl4base4V1_09DebugInfoEEEE
_ZN7android8hardware3usb4V1_14IUsb12getHashChainENSt3__18functionIFvRKNS0_8hidl_vecINS0_10hidl_arrayIhLm32EJEEEEEEEE
_ZN7android8hardware3usb4V1_14IUsb13tryGetServiceERKNSt3__112basic_stringIcNS4_11char_traitsIcEENS4_9allocatorIcEEEEb
_ZN7android8hardware3usb4V1_14IUsb13unlinkToDeathERKNS_2spINS0_20hidl_death_recipientEEE
_ZN7android8hardware3usb4V1_14IUsb14interfaceChainENSt3__18functionIFvRKNS0_8hidl_vecINS0_11hidl_stringEEEEEE
_ZN7android8hardware3usb4V1_14IUsb17registerAsServiceERKNSt3__112basic_stringIcNS4_11char_traitsIcEENS4_9allocatorIcEEEE
_ZN7android8hardware3usb4V1_14IUsb19interfaceDescriptorENSt3__18functionIFvRKNS0_11hidl_stringEEEE
_ZN7android8hardware3usb4V1_14IUsb21notifySyspropsChangedEv
_ZN7android8hardware3usb4V1_14IUsb21setHALInstrumentationEv
_ZN7android8hardware3usb4V1_14IUsb24registerForNotificationsERKNSt3__112basic_stringIcNS4_11char_traitsIcEENS4_9allocatorIcEEEERKNS_2spINS_4hidl7manager4V1_020IServiceNotificationEEE
_ZN7android8hardware3usb4V1_14IUsb4pingEv
_ZN7android8hardware3usb4V1_14IUsb5debugERKNS0_11hidl_handleERKNS0_8hidl_vecINS0_11hidl_stringEEE
_ZN7android8hardware3usb4V1_14IUsb8castFromERKNS_2spINS1_4V1_04IUsbEEEb
_ZN7android8hardware3usb4V1_14IUsb8castFromERKNS_2spINS_4hidl4base4V1_05IBaseEEEb
_ZN7android8hardware3usb4V1_14IUsb8castFromERKNS_2spIS3_EEb
_ZN7android8hardware3usb4V1_15BsUsb13addOnewayTaskENSt3__18functionIFvvEEE
_ZN7android8hardware3usb4V1_15BsUsbC1ENS_2spINS2_4IUsbEEE
_ZN7android8hardware3usb4V1_15BsUsbC2ENS_2spINS2_4IUsbEEE
_ZN7android8hardware3usb4V1_17BnHwUsb10onTransactEjRKNS0_6ParcelEPS4_jNSt3__18functionIFvRS4_EEE
_ZN7android8hardware3usb4V1_17BnHwUsb12getDebugInfoENSt3__18functionIFvRKNS_4hidl4base4V1_09DebugInfoEEEE
_ZN7android8hardware3usb4V1_17BnHwUsb4pingEv
_ZN7android8hardware3usb4V1_17BnHwUsbC1ERKNS_2spINS2_4IUsbEEE
_ZN7android8hardware3usb4V1_17BnHwUsbC2ERKNS_2spINS2_4IUsbEEE
_ZN7android8hardware3usb4V1_17BnHwUsbD0Ev
_ZN7android8hardware3usb4V1_17BnHwUsbD1Ev
_ZN7android8hardware3usb4V1_17BnHwUsbD2Ev
_ZN7android8hardware3usb4V1_17BpHwUsb10switchRoleERKNS0_11hidl_stringERKNS1_4V1_08PortRoleE
_ZN7android8hardware3usb4V1_17BpHwUsb11linkToDeathERKNS_2spINS0_20hidl_death_recipientEEEm
_ZN7android8hardware3usb4V1_17BpHwUsb11setCallbackERKNS_2spINS1_4V1_012IUsbCallbackEEE
_ZN7android8hardware3usb4V1_17BpHwUsb12getDebugInfoENSt3__18functionIFvRKNS_4hidl4base4V1_09DebugInfoEEEE
_ZN7android8hardware3usb4V1_17BpHwUsb12getHashChainENSt3__18functionIFvRKNS0_8hidl_vecINS0_10hidl_arrayIhLm32EJEEEEEEEE
_ZN7android8hardware3usb4V1_17BpHwUsb13unlinkToDeathERKNS_2spINS0_20hidl_death_recipientEEE
_ZN7android8hardware3usb4V1_17BpHwUsb14interfaceChainENSt3__18functionIFvRKNS0_8hidl_vecINS0_11hidl_stringEEEEEE
_ZN7android8hardware3usb4V1_17BpHwUsb15queryPortStatusEv
_ZN7android8hardware3usb4V1_17BpHwUsb19interfaceDescriptorENSt3__18functionIFvRKNS0_11hidl_stringEEEE
_ZN7android8hardware3usb4V1_17BpHwUsb21notifySyspropsChangedEv
_ZN7android8hardware3usb4V1_17BpHwUsb21setHALInstrumentationEv
_ZN7android8hardware3usb4V1_17BpHwUsb4pingEv
_ZN7android8hardware3usb4V1_17BpHwUsb5debugERKNS0_11hidl_handleERKNS0_8hidl_vecINS0_11hidl_stringEEE
_ZN7android8hardware3usb4V1_17BpHwUsbC1ERKNS_2spINS0_7IBinderEEE
_ZN7android8hardware3usb4V1_17BpHwUsbC2ERKNS_2spINS0_7IBinderEEE
_ZTCN7android8hardware3usb4V1_112IUsbCallbackE0_NS1_4V1_012IUsbCallbackE
_ZTCN7android8hardware3usb4V1_112IUsbCallbackE0_NS_4hidl4base4V1_05IBaseE
_ZTCN7android8hardware3usb4V1_115BnHwUsbCallbackE0_NS0_7IBinderE
_ZTCN7android8hardware3usb4V1_115BnHwUsbCallbackE0_NS0_9BHwBinderE
_ZTCN7android8hardware3usb4V1_115BnHwUsbCallbackE0_NS_4hidl4base4V1_08BnHwBaseE
_ZTCN7android8hardware3usb4V1_115BpHwUsbCallbackE0_NS0_11BpInterfaceINS2_12IUsbCallbackEEE
_ZTCN7android8hardware3usb4V1_115BpHwUsbCallbackE0_NS1_4V1_012IUsbCallbackE
_ZTCN7android8hardware3usb4V1_115BpHwUsbCallbackE0_NS2_12IUsbCallbackE
_ZTCN7android8hardware3usb4V1_115BpHwUsbCallbackE0_NS_4hidl4base4V1_05IBaseE
_ZTCN7android8hardware3usb4V1_115BpHwUsbCallbackE16_NS0_11BpHwRefBaseE
_ZTCN7android8hardware3usb4V1_115BpHwUsbCallbackE8_NS0_10IInterfaceE
_ZTCN7android8hardware3usb4V1_14IUsbE0_NS1_4V1_04IUsbE
_ZTCN7android8hardware3usb4V1_14IUsbE0_NS_4hidl4base4V1_05IBaseE
_ZTCN7android8hardware3usb4V1_17BnHwUsbE0_NS0_7IBinderE
_ZTCN7android8hardware3usb4V1_17BnHwUsbE0_NS0_9BHwBinderE
_ZTCN7android8hardware3usb4V1_17BnHwUsbE0_NS_4hidl4base4V1_08BnHwBaseE
_ZTCN7android8hardware3usb4V1_17BpHwUsbE0_NS0_11BpInterfaceINS2_4IUsbEEE
_ZTCN7android8hardware3usb4V1_17BpHwUsbE0_NS1_4V1_04IUsbE
_ZTCN7android8hardware3usb4V1_17BpHwUsbE0_NS2_4IUsbE
_ZTCN7android8hardware3usb4V1_17BpHwUsbE0_NS_4hidl4base4V1_05IBaseE
_ZTCN7android8hardware3usb4V1_17BpHwUsbE16_NS0_11BpHwRefBaseE
_ZTCN7android8hardware3usb4V1_17BpHwUsbE8_NS0_10IInterfaceE
_ZTTN7android8hardware3usb4V1_112IUsbCallbackE
_ZTTN7android8hardware3usb4V1_115BnHwUsbCallbackE
_ZTTN7android8hardware3usb4V1_115BpHwUsbCallbackE
_ZTTN7android8hardware3usb4V1_14IUsbE
_ZTTN7android8hardware3usb4V1_17BnHwUsbE
_ZTTN7android8hardware3usb4V1_17BpHwUsbE
_ZTVN7android8hardware3usb4V1_112IUsbCallbackE
_ZTVN7android8hardware3usb4V1_115BnHwUsbCallbackE
_ZTVN7android8hardware3usb4V1_115BpHwUsbCallbackE
_ZTVN7android8hardware3usb4V1_14IUsbE
_ZTVN7android8hardware3usb4V1_17BnHwUsbE
_ZTVN7android8hardware3usb4V1_17BpHwUsbE
_ZThn32_N7android8hardware3usb4V1_115BnHwUsbCallbackD0Ev
_ZThn32_N7android8hardware3usb4V1_115BnHwUsbCallbackD1Ev
_ZThn32_N7android8hardware3usb4V1_17BnHwUsbD0Ev
_ZThn32_N7android8hardware3usb4V1_17BnHwUsbD1Ev
_ZTv0_n24_N7android8hardware3usb4V1_115BnHwUsbCallbackD0Ev
_ZTv0_n24_N7android8hardware3usb4V1_115BnHwUsbCallbackD1Ev
_ZTv0_n24_N7android8hardware3usb4V1_17BnHwUsbD0Ev
_ZTv0_n24_N7android8hardware3usb4V1_17BnHwUsbD1Ev
