_ZN7android8hardware14broadcastradio4V2_012ICloseHandle10descriptorE
_ZN7android8hardware14broadcastradio4V2_012ICloseHandle10getServiceERKNSt3__112basic_stringIcNS4_11char_traitsIcEENS4_9allocatorIcEEEEb
_ZN7android8hardware14broadcastradio4V2_012ICloseHandle11linkToDeathERKNS_2spINS0_20hidl_death_recipientEEEm
_ZN7android8hardware14broadcastradio4V2_012ICloseHandle12getDebugInfoENSt3__18functionIFvRKNS_4hidl4base4V1_09DebugInfoEEEE
_ZN7android8hardware14broadcastradio4V2_012ICloseHandle12getHashChainENSt3__18functionIFvRKNS0_8hidl_vecINS0_10hidl_arrayIhLm32EJEEEEEEEE
_ZN7android8hardware14broadcastradio4V2_012ICloseHandle13tryGetServiceERKNSt3__112basic_stringIcNS4_11char_traitsIcEENS4_9allocatorIcEEEEb
_ZN7android8hardware14broadcastradio4V2_012ICloseHandle13unlinkToDeathERKNS_2spINS0_20hidl_death_recipientEEE
_ZN7android8hardware14broadcastradio4V2_012ICloseHandle14interfaceChainENSt3__18functionIFvRKNS0_8hidl_vecINS0_11hidl_stringEEEEEE
_ZN7android8hardware14broadcastradio4V2_012ICloseHandle17registerAsServiceERKNSt3__112basic_stringIcNS4_11char_traitsIcEENS4_9allocatorIcEEEE
_ZN7android8hardware14broadcastradio4V2_012ICloseHandle19interfaceDescriptorENSt3__18functionIFvRKNS0_11hidl_stringEEEE
_ZN7android8hardware14broadcastradio4V2_012ICloseHandle21notifySyspropsChangedEv
_ZN7android8hardware14broadcastradio4V2_012ICloseHandle21setHALInstrumentationEv
_ZN7android8hardware14broadcastradio4V2_012ICloseHandle24registerForNotificationsERKNSt3__112basic_stringIcNS4_11char_traitsIcEENS4_9allocatorIcEEEERKNS_2spINS_4hidl7manager4V1_020IServiceNotificationEEE
_ZN7android8hardware14broadcastradio4V2_012ICloseHandle4pingEv
_ZN7android8hardware14broadcastradio4V2_012ICloseHandle5debugERKNS0_11hidl_handleERKNS0_8hidl_vecINS0_11hidl_stringEEE
_ZN7android8hardware14broadcastradio4V2_012ICloseHandle8castFromERKNS_2spINS_4hidl4base4V1_05IBaseEEEb
_ZN7android8hardware14broadcastradio4V2_012ICloseHandle8castFromERKNS_2spIS3_EEb
_ZN7android8hardware14broadcastradio4V2_013BsCloseHandle13addOnewayTaskENSt3__18functionIFvvEEE
_ZN7android8hardware14broadcastradio4V2_013BsCloseHandleC1ENS_2spINS2_12ICloseHandleEEE
_ZN7android8hardware14broadcastradio4V2_013BsCloseHandleC2ENS_2spINS2_12ICloseHandleEEE
_ZN7android8hardware14broadcastradio4V2_013ITunerSession10descriptorE
_ZN7android8hardware14broadcastradio4V2_013ITunerSession10getServiceERKNSt3__112basic_stringIcNS4_11char_traitsIcEENS4_9allocatorIcEEEEb
_ZN7android8hardware14broadcastradio4V2_013ITunerSession11linkToDeathERKNS_2spINS0_20hidl_death_recipientEEEm
_ZN7android8hardware14broadcastradio4V2_013ITunerSession12getDebugInfoENSt3__18functionIFvRKNS_4hidl4base4V1_09DebugInfoEEEE
_ZN7android8hardware14broadcastradio4V2_013ITunerSession12getHashChainENSt3__18functionIFvRKNS0_8hidl_vecINS0_10hidl_arrayIhLm32EJEEEEEEEE
_ZN7android8hardware14broadcastradio4V2_013ITunerSession13tryGetServiceERKNSt3__112basic_stringIcNS4_11char_traitsIcEENS4_9allocatorIcEEEEb
_ZN7android8hardware14broadcastradio4V2_013ITunerSession13unlinkToDeathERKNS_2spINS0_20hidl_death_recipientEEE
_ZN7android8hardware14broadcastradio4V2_013ITunerSession14interfaceChainENSt3__18functionIFvRKNS0_8hidl_vecINS0_11hidl_stringEEEEEE
_ZN7android8hardware14broadcastradio4V2_013ITunerSession17registerAsServiceERKNSt3__112basic_stringIcNS4_11char_traitsIcEENS4_9allocatorIcEEEE
_ZN7android8hardware14broadcastradio4V2_013ITunerSession19interfaceDescriptorENSt3__18functionIFvRKNS0_11hidl_stringEEEE
_ZN7android8hardware14broadcastradio4V2_013ITunerSession21notifySyspropsChangedEv
_ZN7android8hardware14broadcastradio4V2_013ITunerSession21setHALInstrumentationEv
_ZN7android8hardware14broadcastradio4V2_013ITunerSession24registerForNotificationsERKNSt3__112basic_stringIcNS4_11char_traitsIcEENS4_9allocatorIcEEEERKNS_2spINS_4hidl7manager4V1_020IServiceNotificationEEE
_ZN7android8hardware14broadcastradio4V2_013ITunerSession4pingEv
_ZN7android8hardware14broadcastradio4V2_013ITunerSession5debugERKNS0_11hidl_handleERKNS0_8hidl_vecINS0_11hidl_stringEEE
_ZN7android8hardware14broadcastradio4V2_013ITunerSession8castFromERKNS_2spINS_4hidl4base4V1_05IBaseEEEb
_ZN7android8hardware14broadcastradio4V2_013ITunerSession8castFromERKNS_2spIS3_EEb
_ZN7android8hardware14broadcastradio4V2_014BsTunerSession13addOnewayTaskENSt3__18functionIFvvEEE
_ZN7android8hardware14broadcastradio4V2_014BsTunerSessionC1ENS_2spINS2_13ITunerSessionEEE
_ZN7android8hardware14broadcastradio4V2_014BsTunerSessionC2ENS_2spINS2_13ITunerSessionEEE
_ZN7android8hardware14broadcastradio4V2_014ITunerCallback10descriptorE
_ZN7android8hardware14broadcastradio4V2_014ITunerCallback10getServiceERKNSt3__112basic_stringIcNS4_11char_traitsIcEENS4_9allocatorIcEEEEb
_ZN7android8hardware14broadcastradio4V2_014ITunerCallback11linkToDeathERKNS_2spINS0_20hidl_death_recipientEEEm
_ZN7android8hardware14broadcastradio4V2_014ITunerCallback12getDebugInfoENSt3__18functionIFvRKNS_4hidl4base4V1_09DebugInfoEEEE
_ZN7android8hardware14broadcastradio4V2_014ITunerCallback12getHashChainENSt3__18functionIFvRKNS0_8hidl_vecINS0_10hidl_arrayIhLm32EJEEEEEEEE
_ZN7android8hardware14broadcastradio4V2_014ITunerCallback13tryGetServiceERKNSt3__112basic_stringIcNS4_11char_traitsIcEENS4_9allocatorIcEEEEb
_ZN7android8hardware14broadcastradio4V2_014ITunerCallback13unlinkToDeathERKNS_2spINS0_20hidl_death_recipientEEE
_ZN7android8hardware14broadcastradio4V2_014ITunerCallback14interfaceChainENSt3__18functionIFvRKNS0_8hidl_vecINS0_11hidl_stringEEEEEE
_ZN7android8hardware14broadcastradio4V2_014ITunerCallback17registerAsServiceERKNSt3__112basic_stringIcNS4_11char_traitsIcEENS4_9allocatorIcEEEE
_ZN7android8hardware14broadcastradio4V2_014ITunerCallback19interfaceDescriptorENSt3__18functionIFvRKNS0_11hidl_stringEEEE
_ZN7android8hardware14broadcastradio4V2_014ITunerCallback21notifySyspropsChangedEv
_ZN7android8hardware14broadcastradio4V2_014ITunerCallback21setHALInstrumentationEv
_ZN7android8hardware14broadcastradio4V2_014ITunerCallback24registerForNotificationsERKNSt3__112basic_stringIcNS4_11char_traitsIcEENS4_9allocatorIcEEEERKNS_2spINS_4hidl7manager4V1_020IServiceNotificationEEE
_ZN7android8hardware14broadcastradio4V2_014ITunerCallback4pingEv
_ZN7android8hardware14broadcastradio4V2_014ITunerCallback5debugERKNS0_11hidl_handleERKNS0_8hidl_vecINS0_11hidl_stringEEE
_ZN7android8hardware14broadcastradio4V2_014ITunerCallback8castFromERKNS_2spINS_4hidl4base4V1_05IBaseEEEb
_ZN7android8hardware14broadcastradio4V2_014ITunerCallback8castFromERKNS_2spIS3_EEb
_ZN7android8hardware14broadcastradio4V2_015BnHwCloseHandle10onTransactEjRKNS0_6ParcelEPS4_jNSt3__18functionIFvRS4_EEE
_ZN7android8hardware14broadcastradio4V2_015BnHwCloseHandle11_hidl_closeEPNS_4hidl4base4V1_08BnHwBaseERKNS0_6ParcelEPS9_NSt3__18functionIFvRS9_EEE
_ZN7android8hardware14broadcastradio4V2_015BnHwCloseHandle12getDebugInfoENSt3__18functionIFvRKNS_4hidl4base4V1_09DebugInfoEEEE
_ZN7android8hardware14broadcastradio4V2_015BnHwCloseHandle4pingEv
_ZN7android8hardware14broadcastradio4V2_015BnHwCloseHandleC1ERKNS_2spINS2_12ICloseHandleEEE
_ZN7android8hardware14broadcastradio4V2_015BnHwCloseHandleC2ERKNS_2spINS2_12ICloseHandleEEE
_ZN7android8hardware14broadcastradio4V2_015BnHwCloseHandleD0Ev
_ZN7android8hardware14broadcastradio4V2_015BnHwCloseHandleD1Ev
_ZN7android8hardware14broadcastradio4V2_015BnHwCloseHandleD2Ev
_ZN7android8hardware14broadcastradio4V2_015BpHwCloseHandle11_hidl_closeEPNS0_10IInterfaceEPNS0_7details16HidlInstrumentorE
_ZN7android8hardware14broadcastradio4V2_015BpHwCloseHandle11linkToDeathERKNS_2spINS0_20hidl_death_recipientEEEm
_ZN7android8hardware14broadcastradio4V2_015BpHwCloseHandle12getDebugInfoENSt3__18functionIFvRKNS_4hidl4base4V1_09DebugInfoEEEE
_ZN7android8hardware14broadcastradio4V2_015BpHwCloseHandle12getHashChainENSt3__18functionIFvRKNS0_8hidl_vecINS0_10hidl_arrayIhLm32EJEEEEEEEE
_ZN7android8hardware14broadcastradio4V2_015BpHwCloseHandle13unlinkToDeathERKNS_2spINS0_20hidl_death_recipientEEE
_ZN7android8hardware14broadcastradio4V2_015BpHwCloseHandle14interfaceChainENSt3__18functionIFvRKNS0_8hidl_vecINS0_11hidl_stringEEEEEE
_ZN7android8hardware14broadcastradio4V2_015BpHwCloseHandle19interfaceDescriptorENSt3__18functionIFvRKNS0_11hidl_stringEEEE
_ZN7android8hardware14broadcastradio4V2_015BpHwCloseHandle21notifySyspropsChangedEv
_ZN7android8hardware14broadcastradio4V2_015BpHwCloseHandle21setHALInstrumentationEv
_ZN7android8hardware14broadcastradio4V2_015BpHwCloseHandle4pingEv
_ZN7android8hardware14broadcastradio4V2_015BpHwCloseHandle5closeEv
_ZN7android8hardware14broadcastradio4V2_015BpHwCloseHandle5debugERKNS0_11hidl_handleERKNS0_8hidl_vecINS0_11hidl_stringEEE
_ZN7android8hardware14broadcastradio4V2_015BpHwCloseHandleC1ERKNS_2spINS0_7IBinderEEE
_ZN7android8hardware14broadcastradio4V2_015BpHwCloseHandleC2ERKNS_2spINS0_7IBinderEEE
_ZN7android8hardware14broadcastradio4V2_015BsTunerCallback13addOnewayTaskENSt3__18functionIFvvEEE
_ZN7android8hardware14broadcastradio4V2_015BsTunerCallbackC1ENS_2spINS2_14ITunerCallbackEEE
_ZN7android8hardware14broadcastradio4V2_015BsTunerCallbackC2ENS_2spINS2_14ITunerCallbackEEE
_ZN7android8hardware14broadcastradio4V2_015IBroadcastRadio10descriptorE
_ZN7android8hardware14broadcastradio4V2_015IBroadcastRadio10getServiceERKNSt3__112basic_stringIcNS4_11char_traitsIcEENS4_9allocatorIcEEEEb
_ZN7android8hardware14broadcastradio4V2_015IBroadcastRadio11linkToDeathERKNS_2spINS0_20hidl_death_recipientEEEm
_ZN7android8hardware14broadcastradio4V2_015IBroadcastRadio12getDebugInfoENSt3__18functionIFvRKNS_4hidl4base4V1_09DebugInfoEEEE
_ZN7android8hardware14broadcastradio4V2_015IBroadcastRadio12getHashChainENSt3__18functionIFvRKNS0_8hidl_vecINS0_10hidl_arrayIhLm32EJEEEEEEEE
_ZN7android8hardware14broadcastradio4V2_015IBroadcastRadio13tryGetServiceERKNSt3__112basic_stringIcNS4_11char_traitsIcEENS4_9allocatorIcEEEEb
_ZN7android8hardware14broadcastradio4V2_015IBroadcastRadio13unlinkToDeathERKNS_2spINS0_20hidl_death_recipientEEE
_ZN7android8hardware14broadcastradio4V2_015IBroadcastRadio14interfaceChainENSt3__18functionIFvRKNS0_8hidl_vecINS0_11hidl_stringEEEEEE
_ZN7android8hardware14broadcastradio4V2_015IBroadcastRadio17registerAsServiceERKNSt3__112basic_stringIcNS4_11char_traitsIcEENS4_9allocatorIcEEEE
_ZN7android8hardware14broadcastradio4V2_015IBroadcastRadio19interfaceDescriptorENSt3__18functionIFvRKNS0_11hidl_stringEEEE
_ZN7android8hardware14broadcastradio4V2_015IBroadcastRadio21notifySyspropsChangedEv
_ZN7android8hardware14broadcastradio4V2_015IBroadcastRadio21setHALInstrumentationEv
_ZN7android8hardware14broadcastradio4V2_015IBroadcastRadio24registerForNotificationsERKNSt3__112basic_stringIcNS4_11char_traitsIcEENS4_9allocatorIcEEEERKNS_2spINS_4hidl7manager4V1_020IServiceNotificationEEE
_ZN7android8hardware14broadcastradio4V2_015IBroadcastRadio4pingEv
_ZN7android8hardware14broadcastradio4V2_015IBroadcastRadio5debugERKNS0_11hidl_handleERKNS0_8hidl_vecINS0_11hidl_stringEEE
_ZN7android8hardware14broadcastradio4V2_015IBroadcastRadio8castFromERKNS_2spINS_4hidl4base4V1_05IBaseEEEb
_ZN7android8hardware14broadcastradio4V2_015IBroadcastRadio8castFromERKNS_2spIS3_EEb
_ZN7android8hardware14broadcastradio4V2_016BnHwTunerSession10_hidl_scanEPNS_4hidl4base4V1_08BnHwBaseERKNS0_6ParcelEPS9_NSt3__18functionIFvRS9_EEE
_ZN7android8hardware14broadcastradio4V2_016BnHwTunerSession10_hidl_stepEPNS_4hidl4base4V1_08BnHwBaseERKNS0_6ParcelEPS9_NSt3__18functionIFvRS9_EEE
_ZN7android8hardware14broadcastradio4V2_016BnHwTunerSession10_hidl_tuneEPNS_4hidl4base4V1_08BnHwBaseERKNS0_6ParcelEPS9_NSt3__18functionIFvRS9_EEE
_ZN7android8hardware14broadcastradio4V2_016BnHwTunerSession10onTransactEjRKNS0_6ParcelEPS4_jNSt3__18functionIFvRS4_EEE
_ZN7android8hardware14broadcastradio4V2_016BnHwTunerSession11_hidl_closeEPNS_4hidl4base4V1_08BnHwBaseERKNS0_6ParcelEPS9_NSt3__18functionIFvRS9_EEE
_ZN7android8hardware14broadcastradio4V2_016BnHwTunerSession12_hidl_cancelEPNS_4hidl4base4V1_08BnHwBaseERKNS0_6ParcelEPS9_NSt3__18functionIFvRS9_EEE
_ZN7android8hardware14broadcastradio4V2_016BnHwTunerSession12getDebugInfoENSt3__18functionIFvRKNS_4hidl4base4V1_09DebugInfoEEEE
_ZN7android8hardware14broadcastradio4V2_016BnHwTunerSession19_hidl_getParametersEPNS_4hidl4base4V1_08BnHwBaseERKNS0_6ParcelEPS9_NSt3__18functionIFvRS9_EEE
_ZN7android8hardware14broadcastradio4V2_016BnHwTunerSession19_hidl_setConfigFlagEPNS_4hidl4base4V1_08BnHwBaseERKNS0_6ParcelEPS9_NSt3__18functionIFvRS9_EEE
_ZN7android8hardware14broadcastradio4V2_016BnHwTunerSession19_hidl_setParametersEPNS_4hidl4base4V1_08BnHwBaseERKNS0_6ParcelEPS9_NSt3__18functionIFvRS9_EEE
_ZN7android8hardware14broadcastradio4V2_016BnHwTunerSession21_hidl_isConfigFlagSetEPNS_4hidl4base4V1_08BnHwBaseERKNS0_6ParcelEPS9_NSt3__18functionIFvRS9_EEE
_ZN7android8hardware14broadcastradio4V2_016BnHwTunerSession28_hidl_stopProgramListUpdatesEPNS_4hidl4base4V1_08BnHwBaseERKNS0_6ParcelEPS9_NSt3__18functionIFvRS9_EEE
_ZN7android8hardware14broadcastradio4V2_016BnHwTunerSession29_hidl_startProgramListUpdatesEPNS_4hidl4base4V1_08BnHwBaseERKNS0_6ParcelEPS9_NSt3__18functionIFvRS9_EEE
_ZN7android8hardware14broadcastradio4V2_016BnHwTunerSession4pingEv
_ZN7android8hardware14broadcastradio4V2_016BnHwTunerSessionC1ERKNS_2spINS2_13ITunerSessionEEE
_ZN7android8hardware14broadcastradio4V2_016BnHwTunerSessionC2ERKNS_2spINS2_13ITunerSessionEEE
_ZN7android8hardware14broadcastradio4V2_016BnHwTunerSessionD0Ev
_ZN7android8hardware14broadcastradio4V2_016BnHwTunerSessionD1Ev
_ZN7android8hardware14broadcastradio4V2_016BnHwTunerSessionD2Ev
_ZN7android8hardware14broadcastradio4V2_016BpHwTunerSession10_hidl_scanEPNS0_10IInterfaceEPNS0_7details16HidlInstrumentorEbb
_ZN7android8hardware14broadcastradio4V2_016BpHwTunerSession10_hidl_stepEPNS0_10IInterfaceEPNS0_7details16HidlInstrumentorEb
_ZN7android8hardware14broadcastradio4V2_016BpHwTunerSession10_hidl_tuneEPNS0_10IInterfaceEPNS0_7details16HidlInstrumentorERKNS2_15ProgramSelectorE
_ZN7android8hardware14broadcastradio4V2_016BpHwTunerSession11_hidl_closeEPNS0_10IInterfaceEPNS0_7details16HidlInstrumentorE
_ZN7android8hardware14broadcastradio4V2_016BpHwTunerSession11linkToDeathERKNS_2spINS0_20hidl_death_recipientEEEm
_ZN7android8hardware14broadcastradio4V2_016BpHwTunerSession12_hidl_cancelEPNS0_10IInterfaceEPNS0_7details16HidlInstrumentorE
_ZN7android8hardware14broadcastradio4V2_016BpHwTunerSession12getDebugInfoENSt3__18functionIFvRKNS_4hidl4base4V1_09DebugInfoEEEE
_ZN7android8hardware14broadcastradio4V2_016BpHwTunerSession12getHashChainENSt3__18functionIFvRKNS0_8hidl_vecINS0_10hidl_arrayIhLm32EJEEEEEEEE
_ZN7android8hardware14broadcastradio4V2_016BpHwTunerSession13getParametersERKNS0_8hidl_vecINS0_11hidl_stringEEENSt3__18functionIFvRKNS4_INS2_14VendorKeyValueEEEEEE
_ZN7android8hardware14broadcastradio4V2_016BpHwTunerSession13setConfigFlagENS2_10ConfigFlagEb
_ZN7android8hardware14broadcastradio4V2_016BpHwTunerSession13setParametersERKNS0_8hidl_vecINS2_14VendorKeyValueEEENSt3__18functionIFvS8_EEE
_ZN7android8hardware14broadcastradio4V2_016BpHwTunerSession13unlinkToDeathERKNS_2spINS0_20hidl_death_recipientEEE
_ZN7android8hardware14broadcastradio4V2_016BpHwTunerSession14interfaceChainENSt3__18functionIFvRKNS0_8hidl_vecINS0_11hidl_stringEEEEEE
_ZN7android8hardware14broadcastradio4V2_016BpHwTunerSession15isConfigFlagSetENS2_10ConfigFlagENSt3__18functionIFvNS2_6ResultEbEEE
_ZN7android8hardware14broadcastradio4V2_016BpHwTunerSession19_hidl_getParametersEPNS0_10IInterfaceEPNS0_7details16HidlInstrumentorERKNS0_8hidl_vecINS0_11hidl_stringEEENSt3__18functionIFvRKNS9_INS2_14VendorKeyValueEEEEEE
_ZN7android8hardware14broadcastradio4V2_016BpHwTunerSession19_hidl_setConfigFlagEPNS0_10IInterfaceEPNS0_7details16HidlInstrumentorENS2_10ConfigFlagEb
_ZN7android8hardware14broadcastradio4V2_016BpHwTunerSession19_hidl_setParametersEPNS0_10IInterfaceEPNS0_7details16HidlInstrumentorERKNS0_8hidl_vecINS2_14VendorKeyValueEEENSt3__18functionIFvSD_EEE
_ZN7android8hardware14broadcastradio4V2_016BpHwTunerSession19interfaceDescriptorENSt3__18functionIFvRKNS0_11hidl_stringEEEE
_ZN7android8hardware14broadcastradio4V2_016BpHwTunerSession21_hidl_isConfigFlagSetEPNS0_10IInterfaceEPNS0_7details16HidlInstrumentorENS2_10ConfigFlagENSt3__18functionIFvNS2_6ResultEbEEE
_ZN7android8hardware14broadcastradio4V2_016BpHwTunerSession21notifySyspropsChangedEv
_ZN7android8hardware14broadcastradio4V2_016BpHwTunerSession21setHALInstrumentationEv
_ZN7android8hardware14broadcastradio4V2_016BpHwTunerSession22stopProgramListUpdatesEv
_ZN7android8hardware14broadcastradio4V2_016BpHwTunerSession23startProgramListUpdatesERKNS2_13ProgramFilterE
_ZN7android8hardware14broadcastradio4V2_016BpHwTunerSession28_hidl_stopProgramListUpdatesEPNS0_10IInterfaceEPNS0_7details16HidlInstrumentorE
_ZN7android8hardware14broadcastradio4V2_016BpHwTunerSession29_hidl_startProgramListUpdatesEPNS0_10IInterfaceEPNS0_7details16HidlInstrumentorERKNS2_13ProgramFilterE
_ZN7android8hardware14broadcastradio4V2_016BpHwTunerSession4pingEv
_ZN7android8hardware14broadcastradio4V2_016BpHwTunerSession4scanEbb
_ZN7android8hardware14broadcastradio4V2_016BpHwTunerSession4stepEb
_ZN7android8hardware14broadcastradio4V2_016BpHwTunerSession4tuneERKNS2_15ProgramSelectorE
_ZN7android8hardware14broadcastradio4V2_016BpHwTunerSession5closeEv
_ZN7android8hardware14broadcastradio4V2_016BpHwTunerSession5debugERKNS0_11hidl_handleERKNS0_8hidl_vecINS0_11hidl_stringEEE
_ZN7android8hardware14broadcastradio4V2_016BpHwTunerSession6cancelEv
_ZN7android8hardware14broadcastradio4V2_016BpHwTunerSessionC1ERKNS_2spINS0_7IBinderEEE
_ZN7android8hardware14broadcastradio4V2_016BpHwTunerSessionC2ERKNS_2spINS0_7IBinderEEE
_ZN7android8hardware14broadcastradio4V2_016BsBroadcastRadio13addOnewayTaskENSt3__18functionIFvvEEE
_ZN7android8hardware14broadcastradio4V2_016BsBroadcastRadioC1ENS_2spINS2_15IBroadcastRadioEEE
_ZN7android8hardware14broadcastradio4V2_016BsBroadcastRadioC2ENS_2spINS2_15IBroadcastRadioEEE
_ZN7android8hardware14broadcastradio4V2_017BnHwTunerCallback10onTransactEjRKNS0_6ParcelEPS4_jNSt3__18functionIFvRS4_EEE
_ZN7android8hardware14broadcastradio4V2_017BnHwTunerCallback12getDebugInfoENSt3__18functionIFvRKNS_4hidl4base4V1_09DebugInfoEEEE
_ZN7android8hardware14broadcastradio4V2_017BnHwTunerCallback18_hidl_onTuneFailedEPNS_4hidl4base4V1_08BnHwBaseERKNS0_6ParcelEPS9_NSt3__18functionIFvRS9_EEE
_ZN7android8hardware14broadcastradio4V2_017BnHwTunerCallback25_hidl_onParametersUpdatedEPNS_4hidl4base4V1_08BnHwBaseERKNS0_6ParcelEPS9_NSt3__18functionIFvRS9_EEE
_ZN7android8hardware14broadcastradio4V2_017BnHwTunerCallback26_hidl_onAntennaStateChangeEPNS_4hidl4base4V1_08BnHwBaseERKNS0_6ParcelEPS9_NSt3__18functionIFvRS9_EEE
_ZN7android8hardware14broadcastradio4V2_017BnHwTunerCallback26_hidl_onProgramListUpdatedEPNS_4hidl4base4V1_08BnHwBaseERKNS0_6ParcelEPS9_NSt3__18functionIFvRS9_EEE
_ZN7android8hardware14broadcastradio4V2_017BnHwTunerCallback33_hidl_onCurrentProgramInfoChangedEPNS_4hidl4base4V1_08BnHwBaseERKNS0_6ParcelEPS9_NSt3__18functionIFvRS9_EEE
_ZN7android8hardware14broadcastradio4V2_017BnHwTunerCallback4pingEv
_ZN7android8hardware14broadcastradio4V2_017BnHwTunerCallbackC1ERKNS_2spINS2_14ITunerCallbackEEE
_ZN7android8hardware14broadcastradio4V2_017BnHwTunerCallbackC2ERKNS_2spINS2_14ITunerCallbackEEE
_ZN7android8hardware14broadcastradio4V2_017BnHwTunerCallbackD0Ev
_ZN7android8hardware14broadcastradio4V2_017BnHwTunerCallbackD1Ev
_ZN7android8hardware14broadcastradio4V2_017BnHwTunerCallbackD2Ev
_ZN7android8hardware14broadcastradio4V2_017BpHwTunerCallback11linkToDeathERKNS_2spINS0_20hidl_death_recipientEEEm
_ZN7android8hardware14broadcastradio4V2_017BpHwTunerCallback12getDebugInfoENSt3__18functionIFvRKNS_4hidl4base4V1_09DebugInfoEEEE
_ZN7android8hardware14broadcastradio4V2_017BpHwTunerCallback12getHashChainENSt3__18functionIFvRKNS0_8hidl_vecINS0_10hidl_arrayIhLm32EJEEEEEEEE
_ZN7android8hardware14broadcastradio4V2_017BpHwTunerCallback12onTuneFailedENS2_6ResultERKNS2_15ProgramSelectorE
_ZN7android8hardware14broadcastradio4V2_017BpHwTunerCallback13unlinkToDeathERKNS_2spINS0_20hidl_death_recipientEEE
_ZN7android8hardware14broadcastradio4V2_017BpHwTunerCallback14interfaceChainENSt3__18functionIFvRKNS0_8hidl_vecINS0_11hidl_stringEEEEEE
_ZN7android8hardware14broadcastradio4V2_017BpHwTunerCallback18_hidl_onTuneFailedEPNS0_10IInterfaceEPNS0_7details16HidlInstrumentorENS2_6ResultERKNS2_15ProgramSelectorE
_ZN7android8hardware14broadcastradio4V2_017BpHwTunerCallback19interfaceDescriptorENSt3__18functionIFvRKNS0_11hidl_stringEEEE
_ZN7android8hardware14broadcastradio4V2_017BpHwTunerCallback19onParametersUpdatedERKNS0_8hidl_vecINS2_14VendorKeyValueEEE
_ZN7android8hardware14broadcastradio4V2_017BpHwTunerCallback20onAntennaStateChangeEb
_ZN7android8hardware14broadcastradio4V2_017BpHwTunerCallback20onProgramListUpdatedERKNS2_16ProgramListChunkE
_ZN7android8hardware14broadcastradio4V2_017BpHwTunerCallback21notifySyspropsChangedEv
_ZN7android8hardware14broadcastradio4V2_017BpHwTunerCallback21setHALInstrumentationEv
_ZN7android8hardware14broadcastradio4V2_017BpHwTunerCallback25_hidl_onParametersUpdatedEPNS0_10IInterfaceEPNS0_7details16HidlInstrumentorERKNS0_8hidl_vecINS2_14VendorKeyValueEEE
_ZN7android8hardware14broadcastradio4V2_017BpHwTunerCallback26_hidl_onAntennaStateChangeEPNS0_10IInterfaceEPNS0_7details16HidlInstrumentorEb
_ZN7android8hardware14broadcastradio4V2_017BpHwTunerCallback26_hidl_onProgramListUpdatedEPNS0_10IInterfaceEPNS0_7details16HidlInstrumentorERKNS2_16ProgramListChunkE
_ZN7android8hardware14broadcastradio4V2_017BpHwTunerCallback27onCurrentProgramInfoChangedERKNS2_11ProgramInfoE
_ZN7android8hardware14broadcastradio4V2_017BpHwTunerCallback33_hidl_onCurrentProgramInfoChangedEPNS0_10IInterfaceEPNS0_7details16HidlInstrumentorERKNS2_11ProgramInfoE
_ZN7android8hardware14broadcastradio4V2_017BpHwTunerCallback4pingEv
_ZN7android8hardware14broadcastradio4V2_017BpHwTunerCallback5debugERKNS0_11hidl_handleERKNS0_8hidl_vecINS0_11hidl_stringEEE
_ZN7android8hardware14broadcastradio4V2_017BpHwTunerCallbackC1ERKNS_2spINS0_7IBinderEEE
_ZN7android8hardware14broadcastradio4V2_017BpHwTunerCallbackC2ERKNS_2spINS0_7IBinderEEE
_ZN7android8hardware14broadcastradio4V2_018BnHwBroadcastRadio10onTransactEjRKNS0_6ParcelEPS4_jNSt3__18functionIFvRS4_EEE
_ZN7android8hardware14broadcastradio4V2_018BnHwBroadcastRadio12getDebugInfoENSt3__18functionIFvRKNS_4hidl4base4V1_09DebugInfoEEEE
_ZN7android8hardware14broadcastradio4V2_018BnHwBroadcastRadio14_hidl_getImageEPNS_4hidl4base4V1_08BnHwBaseERKNS0_6ParcelEPS9_NSt3__18functionIFvRS9_EEE
_ZN7android8hardware14broadcastradio4V2_018BnHwBroadcastRadio17_hidl_openSessionEPNS_4hidl4base4V1_08BnHwBaseERKNS0_6ParcelEPS9_NSt3__18functionIFvRS9_EEE
_ZN7android8hardware14broadcastradio4V2_018BnHwBroadcastRadio19_hidl_getPropertiesEPNS_4hidl4base4V1_08BnHwBaseERKNS0_6ParcelEPS9_NSt3__18functionIFvRS9_EEE
_ZN7android8hardware14broadcastradio4V2_018BnHwBroadcastRadio24_hidl_getDabRegionConfigEPNS_4hidl4base4V1_08BnHwBaseERKNS0_6ParcelEPS9_NSt3__18functionIFvRS9_EEE
_ZN7android8hardware14broadcastradio4V2_018BnHwBroadcastRadio25_hidl_getAmFmRegionConfigEPNS_4hidl4base4V1_08BnHwBaseERKNS0_6ParcelEPS9_NSt3__18functionIFvRS9_EEE
_ZN7android8hardware14broadcastradio4V2_018BnHwBroadcastRadio34_hidl_registerAnnouncementListenerEPNS_4hidl4base4V1_08BnHwBaseERKNS0_6ParcelEPS9_NSt3__18functionIFvRS9_EEE
_ZN7android8hardware14broadcastradio4V2_018BnHwBroadcastRadio4pingEv
_ZN7android8hardware14broadcastradio4V2_018BnHwBroadcastRadioC1ERKNS_2spINS2_15IBroadcastRadioEEE
_ZN7android8hardware14broadcastradio4V2_018BnHwBroadcastRadioC2ERKNS_2spINS2_15IBroadcastRadioEEE
_ZN7android8hardware14broadcastradio4V2_018BnHwBroadcastRadioD0Ev
_ZN7android8hardware14broadcastradio4V2_018BnHwBroadcastRadioD1Ev
_ZN7android8hardware14broadcastradio4V2_018BnHwBroadcastRadioD2Ev
_ZN7android8hardware14broadcastradio4V2_018BpHwBroadcastRadio11linkToDeathERKNS_2spINS0_20hidl_death_recipientEEEm
_ZN7android8hardware14broadcastradio4V2_018BpHwBroadcastRadio11openSessionERKNS_2spINS2_14ITunerCallbackEEENSt3__18functionIFvNS2_6ResultERKNS4_INS2_13ITunerSessionEEEEEE
_ZN7android8hardware14broadcastradio4V2_018BpHwBroadcastRadio12getDebugInfoENSt3__18functionIFvRKNS_4hidl4base4V1_09DebugInfoEEEE
_ZN7android8hardware14broadcastradio4V2_018BpHwBroadcastRadio12getHashChainENSt3__18functionIFvRKNS0_8hidl_vecINS0_10hidl_arrayIhLm32EJEEEEEEEE
_ZN7android8hardware14broadcastradio4V2_018BpHwBroadcastRadio13getPropertiesENSt3__18functionIFvRKNS2_10PropertiesEEEE
_ZN7android8hardware14broadcastradio4V2_018BpHwBroadcastRadio13unlinkToDeathERKNS_2spINS0_20hidl_death_recipientEEE
_ZN7android8hardware14broadcastradio4V2_018BpHwBroadcastRadio14_hidl_getImageEPNS0_10IInterfaceEPNS0_7details16HidlInstrumentorEjNSt3__18functionIFvRKNS0_8hidl_vecIhEEEEE
_ZN7android8hardware14broadcastradio4V2_018BpHwBroadcastRadio14interfaceChainENSt3__18functionIFvRKNS0_8hidl_vecINS0_11hidl_stringEEEEEE
_ZN7android8hardware14broadcastradio4V2_018BpHwBroadcastRadio17_hidl_openSessionEPNS0_10IInterfaceEPNS0_7details16HidlInstrumentorERKNS_2spINS2_14ITunerCallbackEEENSt3__18functionIFvNS2_6ResultERKNS9_INS2_13ITunerSessionEEEEEE
_ZN7android8hardware14broadcastradio4V2_018BpHwBroadcastRadio18getDabRegionConfigENSt3__18functionIFvNS2_6ResultERKNS0_8hidl_vecINS2_13DabTableEntryEEEEEE
_ZN7android8hardware14broadcastradio4V2_018BpHwBroadcastRadio19_hidl_getPropertiesEPNS0_10IInterfaceEPNS0_7details16HidlInstrumentorENSt3__18functionIFvRKNS2_10PropertiesEEEE
_ZN7android8hardware14broadcastradio4V2_018BpHwBroadcastRadio19getAmFmRegionConfigEbNSt3__18functionIFvNS2_6ResultERKNS2_16AmFmRegionConfigEEEE
_ZN7android8hardware14broadcastradio4V2_018BpHwBroadcastRadio19interfaceDescriptorENSt3__18functionIFvRKNS0_11hidl_stringEEEE
_ZN7android8hardware14broadcastradio4V2_018BpHwBroadcastRadio21notifySyspropsChangedEv
_ZN7android8hardware14broadcastradio4V2_018BpHwBroadcastRadio21setHALInstrumentationEv
_ZN7android8hardware14broadcastradio4V2_018BpHwBroadcastRadio24_hidl_getDabRegionConfigEPNS0_10IInterfaceEPNS0_7details16HidlInstrumentorENSt3__18functionIFvNS2_6ResultERKNS0_8hidl_vecINS2_13DabTableEntryEEEEEE
_ZN7android8hardware14broadcastradio4V2_018BpHwBroadcastRadio25_hidl_getAmFmRegionConfigEPNS0_10IInterfaceEPNS0_7details16HidlInstrumentorEbNSt3__18functionIFvNS2_6ResultERKNS2_16AmFmRegionConfigEEEE
_ZN7android8hardware14broadcastradio4V2_018BpHwBroadcastRadio28registerAnnouncementListenerERKNS0_8hidl_vecINS2_16AnnouncementTypeEEERKNS_2spINS2_21IAnnouncementListenerEEENSt3__18functionIFvNS2_6ResultERKNS9_INS2_12ICloseHandleEEEEEE
_ZN7android8hardware14broadcastradio4V2_018BpHwBroadcastRadio34_hidl_registerAnnouncementListenerEPNS0_10IInterfaceEPNS0_7details16HidlInstrumentorERKNS0_8hidl_vecINS2_16AnnouncementTypeEEERKNS_2spINS2_21IAnnouncementListenerEEENSt3__18functionIFvNS2_6ResultERKNSE_INS2_12ICloseHandleEEEEEE
_ZN7android8hardware14broadcastradio4V2_018BpHwBroadcastRadio4pingEv
_ZN7android8hardware14broadcastradio4V2_018BpHwBroadcastRadio5debugERKNS0_11hidl_handleERKNS0_8hidl_vecINS0_11hidl_stringEEE
_ZN7android8hardware14broadcastradio4V2_018BpHwBroadcastRadio8getImageEjNSt3__18functionIFvRKNS0_8hidl_vecIhEEEEE
_ZN7android8hardware14broadcastradio4V2_018BpHwBroadcastRadioC1ERKNS_2spINS0_7IBinderEEE
_ZN7android8hardware14broadcastradio4V2_018BpHwBroadcastRadioC2ERKNS_2spINS0_7IBinderEEE
_ZN7android8hardware14broadcastradio4V2_021IAnnouncementListener10descriptorE
_ZN7android8hardware14broadcastradio4V2_021IAnnouncementListener10getServiceERKNSt3__112basic_stringIcNS4_11char_traitsIcEENS4_9allocatorIcEEEEb
_ZN7android8hardware14broadcastradio4V2_021IAnnouncementListener11linkToDeathERKNS_2spINS0_20hidl_death_recipientEEEm
_ZN7android8hardware14broadcastradio4V2_021IAnnouncementListener12getDebugInfoENSt3__18functionIFvRKNS_4hidl4base4V1_09DebugInfoEEEE
_ZN7android8hardware14broadcastradio4V2_021IAnnouncementListener12getHashChainENSt3__18functionIFvRKNS0_8hidl_vecINS0_10hidl_arrayIhLm32EJEEEEEEEE
_ZN7android8hardware14broadcastradio4V2_021IAnnouncementListener13tryGetServiceERKNSt3__112basic_stringIcNS4_11char_traitsIcEENS4_9allocatorIcEEEEb
_ZN7android8hardware14broadcastradio4V2_021IAnnouncementListener13unlinkToDeathERKNS_2spINS0_20hidl_death_recipientEEE
_ZN7android8hardware14broadcastradio4V2_021IAnnouncementListener14interfaceChainENSt3__18functionIFvRKNS0_8hidl_vecINS0_11hidl_stringEEEEEE
_ZN7android8hardware14broadcastradio4V2_021IAnnouncementListener17registerAsServiceERKNSt3__112basic_stringIcNS4_11char_traitsIcEENS4_9allocatorIcEEEE
_ZN7android8hardware14broadcastradio4V2_021IAnnouncementListener19interfaceDescriptorENSt3__18functionIFvRKNS0_11hidl_stringEEEE
_ZN7android8hardware14broadcastradio4V2_021IAnnouncementListener21notifySyspropsChangedEv
_ZN7android8hardware14broadcastradio4V2_021IAnnouncementListener21setHALInstrumentationEv
_ZN7android8hardware14broadcastradio4V2_021IAnnouncementListener24registerForNotificationsERKNSt3__112basic_stringIcNS4_11char_traitsIcEENS4_9allocatorIcEEEERKNS_2spINS_4hidl7manager4V1_020IServiceNotificationEEE
_ZN7android8hardware14broadcastradio4V2_021IAnnouncementListener4pingEv
_ZN7android8hardware14broadcastradio4V2_021IAnnouncementListener5debugERKNS0_11hidl_handleERKNS0_8hidl_vecINS0_11hidl_stringEEE
_ZN7android8hardware14broadcastradio4V2_021IAnnouncementListener8castFromERKNS_2spINS_4hidl4base4V1_05IBaseEEEb
_ZN7android8hardware14broadcastradio4V2_021IAnnouncementListener8castFromERKNS_2spIS3_EEb
_ZN7android8hardware14broadcastradio4V2_021writeEmbeddedToParcelERKNS2_10PropertiesEPNS0_6ParcelEmm
_ZN7android8hardware14broadcastradio4V2_021writeEmbeddedToParcelERKNS2_11ProgramInfoEPNS0_6ParcelEmm
_ZN7android8hardware14broadcastradio4V2_021writeEmbeddedToParcelERKNS2_12AnnouncementEPNS0_6ParcelEmm
_ZN7android8hardware14broadcastradio4V2_021writeEmbeddedToParcelERKNS2_13DabTableEntryEPNS0_6ParcelEmm
_ZN7android8hardware14broadcastradio4V2_021writeEmbeddedToParcelERKNS2_13ProgramFilterEPNS0_6ParcelEmm
_ZN7android8hardware14broadcastradio4V2_021writeEmbeddedToParcelERKNS2_14VendorKeyValueEPNS0_6ParcelEmm
_ZN7android8hardware14broadcastradio4V2_021writeEmbeddedToParcelERKNS2_15ProgramSelectorEPNS0_6ParcelEmm
_ZN7android8hardware14broadcastradio4V2_021writeEmbeddedToParcelERKNS2_16AmFmRegionConfigEPNS0_6ParcelEmm
_ZN7android8hardware14broadcastradio4V2_021writeEmbeddedToParcelERKNS2_16ProgramListChunkEPNS0_6ParcelEmm
_ZN7android8hardware14broadcastradio4V2_021writeEmbeddedToParcelERKNS2_8MetadataEPNS0_6ParcelEmm
_ZN7android8hardware14broadcastradio4V2_022BsAnnouncementListener13addOnewayTaskENSt3__18functionIFvvEEE
_ZN7android8hardware14broadcastradio4V2_022BsAnnouncementListenerC1ENS_2spINS2_21IAnnouncementListenerEEE
_ZN7android8hardware14broadcastradio4V2_022BsAnnouncementListenerC2ENS_2spINS2_21IAnnouncementListenerEEE
_ZN7android8hardware14broadcastradio4V2_022readEmbeddedFromParcelERKNS2_10PropertiesERKNS0_6ParcelEmm
_ZN7android8hardware14broadcastradio4V2_022readEmbeddedFromParcelERKNS2_11ProgramInfoERKNS0_6ParcelEmm
_ZN7android8hardware14broadcastradio4V2_022readEmbeddedFromParcelERKNS2_12AnnouncementERKNS0_6ParcelEmm
_ZN7android8hardware14broadcastradio4V2_022readEmbeddedFromParcelERKNS2_13DabTableEntryERKNS0_6ParcelEmm
_ZN7android8hardware14broadcastradio4V2_022readEmbeddedFromParcelERKNS2_13ProgramFilterERKNS0_6ParcelEmm
_ZN7android8hardware14broadcastradio4V2_022readEmbeddedFromParcelERKNS2_14VendorKeyValueERKNS0_6ParcelEmm
_ZN7android8hardware14broadcastradio4V2_022readEmbeddedFromParcelERKNS2_15ProgramSelectorERKNS0_6ParcelEmm
_ZN7android8hardware14broadcastradio4V2_022readEmbeddedFromParcelERKNS2_16AmFmRegionConfigERKNS0_6ParcelEmm
_ZN7android8hardware14broadcastradio4V2_022readEmbeddedFromParcelERKNS2_16ProgramListChunkERKNS0_6ParcelEmm
_ZN7android8hardware14broadcastradio4V2_022readEmbeddedFromParcelERKNS2_8MetadataERKNS0_6ParcelEmm
_ZN7android8hardware14broadcastradio4V2_024BnHwAnnouncementListener10onTransactEjRKNS0_6ParcelEPS4_jNSt3__18functionIFvRS4_EEE
_ZN7android8hardware14broadcastradio4V2_024BnHwAnnouncementListener12getDebugInfoENSt3__18functionIFvRKNS_4hidl4base4V1_09DebugInfoEEEE
_ZN7android8hardware14broadcastradio4V2_024BnHwAnnouncementListener19_hidl_onListUpdatedEPNS_4hidl4base4V1_08BnHwBaseERKNS0_6ParcelEPS9_NSt3__18functionIFvRS9_EEE
_ZN7android8hardware14broadcastradio4V2_024BnHwAnnouncementListener4pingEv
_ZN7android8hardware14broadcastradio4V2_024BnHwAnnouncementListenerC1ERKNS_2spINS2_21IAnnouncementListenerEEE
_ZN7android8hardware14broadcastradio4V2_024BnHwAnnouncementListenerC2ERKNS_2spINS2_21IAnnouncementListenerEEE
_ZN7android8hardware14broadcastradio4V2_024BnHwAnnouncementListenerD0Ev
_ZN7android8hardware14broadcastradio4V2_024BnHwAnnouncementListenerD1Ev
_ZN7android8hardware14broadcastradio4V2_024BnHwAnnouncementListenerD2Ev
_ZN7android8hardware14broadcastradio4V2_024BpHwAnnouncementListener11linkToDeathERKNS_2spINS0_20hidl_death_recipientEEEm
_ZN7android8hardware14broadcastradio4V2_024BpHwAnnouncementListener12getDebugInfoENSt3__18functionIFvRKNS_4hidl4base4V1_09DebugInfoEEEE
_ZN7android8hardware14broadcastradio4V2_024BpHwAnnouncementListener12getHashChainENSt3__18functionIFvRKNS0_8hidl_vecINS0_10hidl_arrayIhLm32EJEEEEEEEE
_ZN7android8hardware14broadcastradio4V2_024BpHwAnnouncementListener13onListUpdatedERKNS0_8hidl_vecINS2_12AnnouncementEEE
_ZN7android8hardware14broadcastradio4V2_024BpHwAnnouncementListener13unlinkToDeathERKNS_2spINS0_20hidl_death_recipientEEE
_ZN7android8hardware14broadcastradio4V2_024BpHwAnnouncementListener14interfaceChainENSt3__18functionIFvRKNS0_8hidl_vecINS0_11hidl_stringEEEEEE
_ZN7android8hardware14broadcastradio4V2_024BpHwAnnouncementListener19_hidl_onListUpdatedEPNS0_10IInterfaceEPNS0_7details16HidlInstrumentorERKNS0_8hidl_vecINS2_12AnnouncementEEE
_ZN7android8hardware14broadcastradio4V2_024BpHwAnnouncementListener19interfaceDescriptorENSt3__18functionIFvRKNS0_11hidl_stringEEEE
_ZN7android8hardware14broadcastradio4V2_024BpHwAnnouncementListener21notifySyspropsChangedEv
_ZN7android8hardware14broadcastradio4V2_024BpHwAnnouncementListener21setHALInstrumentationEv
_ZN7android8hardware14broadcastradio4V2_024BpHwAnnouncementListener4pingEv
_ZN7android8hardware14broadcastradio4V2_024BpHwAnnouncementListener5debugERKNS0_11hidl_handleERKNS0_8hidl_vecINS0_11hidl_stringEEE
_ZN7android8hardware14broadcastradio4V2_024BpHwAnnouncementListenerC1ERKNS_2spINS0_7IBinderEEE
_ZN7android8hardware14broadcastradio4V2_024BpHwAnnouncementListenerC2ERKNS_2spINS0_7IBinderEEE
_ZTCN7android8hardware14broadcastradio4V2_012ICloseHandleE0_NS_4hidl4base4V1_05IBaseE
_ZTCN7android8hardware14broadcastradio4V2_013ITunerSessionE0_NS_4hidl4base4V1_05IBaseE
_ZTCN7android8hardware14broadcastradio4V2_014ITunerCallbackE0_NS_4hidl4base4V1_05IBaseE
_ZTCN7android8hardware14broadcastradio4V2_015BnHwCloseHandleE0_NS0_7IBinderE
_ZTCN7android8hardware14broadcastradio4V2_015BnHwCloseHandleE0_NS0_9BHwBinderE
_ZTCN7android8hardware14broadcastradio4V2_015BnHwCloseHandleE0_NS_4hidl4base4V1_08BnHwBaseE
_ZTCN7android8hardware14broadcastradio4V2_015BpHwCloseHandleE0_NS0_11BpInterfaceINS2_12ICloseHandleEEE
_ZTCN7android8hardware14broadcastradio4V2_015BpHwCloseHandleE0_NS2_12ICloseHandleE
_ZTCN7android8hardware14broadcastradio4V2_015BpHwCloseHandleE0_NS_4hidl4base4V1_05IBaseE
_ZTCN7android8hardware14broadcastradio4V2_015BpHwCloseHandleE16_NS0_11BpHwRefBaseE
_ZTCN7android8hardware14broadcastradio4V2_015BpHwCloseHandleE8_NS0_10IInterfaceE
_ZTCN7android8hardware14broadcastradio4V2_015IBroadcastRadioE0_NS_4hidl4base4V1_05IBaseE
_ZTCN7android8hardware14broadcastradio4V2_016BnHwTunerSessionE0_NS0_7IBinderE
_ZTCN7android8hardware14broadcastradio4V2_016BnHwTunerSessionE0_NS0_9BHwBinderE
_ZTCN7android8hardware14broadcastradio4V2_016BnHwTunerSessionE0_NS_4hidl4base4V1_08BnHwBaseE
_ZTCN7android8hardware14broadcastradio4V2_016BpHwTunerSessionE0_NS0_11BpInterfaceINS2_13ITunerSessionEEE
_ZTCN7android8hardware14broadcastradio4V2_016BpHwTunerSessionE0_NS2_13ITunerSessionE
_ZTCN7android8hardware14broadcastradio4V2_016BpHwTunerSessionE0_NS_4hidl4base4V1_05IBaseE
_ZTCN7android8hardware14broadcastradio4V2_016BpHwTunerSessionE16_NS0_11BpHwRefBaseE
_ZTCN7android8hardware14broadcastradio4V2_016BpHwTunerSessionE8_NS0_10IInterfaceE
_ZTCN7android8hardware14broadcastradio4V2_017BnHwTunerCallbackE0_NS0_7IBinderE
_ZTCN7android8hardware14broadcastradio4V2_017BnHwTunerCallbackE0_NS0_9BHwBinderE
_ZTCN7android8hardware14broadcastradio4V2_017BnHwTunerCallbackE0_NS_4hidl4base4V1_08BnHwBaseE
_ZTCN7android8hardware14broadcastradio4V2_017BpHwTunerCallbackE0_NS0_11BpInterfaceINS2_14ITunerCallbackEEE
_ZTCN7android8hardware14broadcastradio4V2_017BpHwTunerCallbackE0_NS2_14ITunerCallbackE
_ZTCN7android8hardware14broadcastradio4V2_017BpHwTunerCallbackE0_NS_4hidl4base4V1_05IBaseE
_ZTCN7android8hardware14broadcastradio4V2_017BpHwTunerCallbackE16_NS0_11BpHwRefBaseE
_ZTCN7android8hardware14broadcastradio4V2_017BpHwTunerCallbackE8_NS0_10IInterfaceE
_ZTCN7android8hardware14broadcastradio4V2_018BnHwBroadcastRadioE0_NS0_7IBinderE
_ZTCN7android8hardware14broadcastradio4V2_018BnHwBroadcastRadioE0_NS0_9BHwBinderE
_ZTCN7android8hardware14broadcastradio4V2_018BnHwBroadcastRadioE0_NS_4hidl4base4V1_08BnHwBaseE
_ZTCN7android8hardware14broadcastradio4V2_018BpHwBroadcastRadioE0_NS0_11BpInterfaceINS2_15IBroadcastRadioEEE
_ZTCN7android8hardware14broadcastradio4V2_018BpHwBroadcastRadioE0_NS2_15IBroadcastRadioE
_ZTCN7android8hardware14broadcastradio4V2_018BpHwBroadcastRadioE0_NS_4hidl4base4V1_05IBaseE
_ZTCN7android8hardware14broadcastradio4V2_018BpHwBroadcastRadioE16_NS0_11BpHwRefBaseE
_ZTCN7android8hardware14broadcastradio4V2_018BpHwBroadcastRadioE8_NS0_10IInterfaceE
_ZTCN7android8hardware14broadcastradio4V2_021IAnnouncementListenerE0_NS_4hidl4base4V1_05IBaseE
_ZTCN7android8hardware14broadcastradio4V2_024BnHwAnnouncementListenerE0_NS0_7IBinderE
_ZTCN7android8hardware14broadcastradio4V2_024BnHwAnnouncementListenerE0_NS0_9BHwBinderE
_ZTCN7android8hardware14broadcastradio4V2_024BnHwAnnouncementListenerE0_NS_4hidl4base4V1_08BnHwBaseE
_ZTCN7android8hardware14broadcastradio4V2_024BpHwAnnouncementListenerE0_NS0_11BpInterfaceINS2_21IAnnouncementListenerEEE
_ZTCN7android8hardware14broadcastradio4V2_024BpHwAnnouncementListenerE0_NS2_21IAnnouncementListenerE
_ZTCN7android8hardware14broadcastradio4V2_024BpHwAnnouncementListenerE0_NS_4hidl4base4V1_05IBaseE
_ZTCN7android8hardware14broadcastradio4V2_024BpHwAnnouncementListenerE16_NS0_11BpHwRefBaseE
_ZTCN7android8hardware14broadcastradio4V2_024BpHwAnnouncementListenerE8_NS0_10IInterfaceE
_ZTTN7android8hardware14broadcastradio4V2_012ICloseHandleE
_ZTTN7android8hardware14broadcastradio4V2_013ITunerSessionE
_ZTTN7android8hardware14broadcastradio4V2_014ITunerCallbackE
_ZTTN7android8hardware14broadcastradio4V2_015BnHwCloseHandleE
_ZTTN7android8hardware14broadcastradio4V2_015BpHwCloseHandleE
_ZTTN7android8hardware14broadcastradio4V2_015IBroadcastRadioE
_ZTTN7android8hardware14broadcastradio4V2_016BnHwTunerSessionE
_ZTTN7android8hardware14broadcastradio4V2_016BpHwTunerSessionE
_ZTTN7android8hardware14broadcastradio4V2_017BnHwTunerCallbackE
_ZTTN7android8hardware14broadcastradio4V2_017BpHwTunerCallbackE
_ZTTN7android8hardware14broadcastradio4V2_018BnHwBroadcastRadioE
_ZTTN7android8hardware14broadcastradio4V2_018BpHwBroadcastRadioE
_ZTTN7android8hardware14broadcastradio4V2_021IAnnouncementListenerE
_ZTTN7android8hardware14broadcastradio4V2_024BnHwAnnouncementListenerE
_ZTTN7android8hardware14broadcastradio4V2_024BpHwAnnouncementListenerE
_ZTVN7android8hardware14broadcastradio4V2_012ICloseHandleE
_ZTVN7android8hardware14broadcastradio4V2_013ITunerSessionE
_ZTVN7android8hardware14broadcastradio4V2_014ITunerCallbackE
_ZTVN7android8hardware14broadcastradio4V2_015BnHwCloseHandleE
_ZTVN7android8hardware14broadcastradio4V2_015BpHwCloseHandleE
_ZTVN7android8hardware14broadcastradio4V2_015IBroadcastRadioE
_ZTVN7android8hardware14broadcastradio4V2_016BnHwTunerSessionE
_ZTVN7android8hardware14broadcastradio4V2_016BpHwTunerSessionE
_ZTVN7android8hardware14broadcastradio4V2_017BnHwTunerCallbackE
_ZTVN7android8hardware14broadcastradio4V2_017BpHwTunerCallbackE
_ZTVN7android8hardware14broadcastradio4V2_018BnHwBroadcastRadioE
_ZTVN7android8hardware14broadcastradio4V2_018BpHwBroadcastRadioE
_ZTVN7android8hardware14broadcastradio4V2_021IAnnouncementListenerE
_ZTVN7android8hardware14broadcastradio4V2_024BnHwAnnouncementListenerE
_ZTVN7android8hardware14broadcastradio4V2_024BpHwAnnouncementListenerE
_ZThn32_N7android8hardware14broadcastradio4V2_015BnHwCloseHandleD0Ev
_ZThn32_N7android8hardware14broadcastradio4V2_015BnHwCloseHandleD1Ev
_ZThn32_N7android8hardware14broadcastradio4V2_016BnHwTunerSessionD0Ev
_ZThn32_N7android8hardware14broadcastradio4V2_016BnHwTunerSessionD1Ev
_ZThn32_N7android8hardware14broadcastradio4V2_017BnHwTunerCallbackD0Ev
_ZThn32_N7android8hardware14broadcastradio4V2_017BnHwTunerCallbackD1Ev
_ZThn32_N7android8hardware14broadcastradio4V2_018BnHwBroadcastRadioD0Ev
_ZThn32_N7android8hardware14broadcastradio4V2_018BnHwBroadcastRadioD1Ev
_ZThn32_N7android8hardware14broadcastradio4V2_024BnHwAnnouncementListenerD0Ev
_ZThn32_N7android8hardware14broadcastradio4V2_024BnHwAnnouncementListenerD1Ev
_ZTv0_n24_N7android8hardware14broadcastradio4V2_015BnHwCloseHandleD0Ev
_ZTv0_n24_N7android8hardware14broadcastradio4V2_015BnHwCloseHandleD1Ev
_ZTv0_n24_N7android8hardware14broadcastradio4V2_016BnHwTunerSessionD0Ev
_ZTv0_n24_N7android8hardware14broadcastradio4V2_016BnHwTunerSessionD1Ev
_ZTv0_n24_N7android8hardware14broadcastradio4V2_017BnHwTunerCallbackD0Ev
_ZTv0_n24_N7android8hardware14broadcastradio4V2_017BnHwTunerCallbackD1Ev
_ZTv0_n24_N7android8hardware14broadcastradio4V2_018BnHwBroadcastRadioD0Ev
_ZTv0_n24_N7android8hardware14broadcastradio4V2_018BnHwBroadcastRadioD1Ev
_ZTv0_n24_N7android8hardware14broadcastradio4V2_024BnHwAnnouncementListenerD0Ev
_ZTv0_n24_N7android8hardware14broadcastradio4V2_024BnHwAnnouncementListenerD1Ev
