_ZN7android8hardware4wifi4V1_010BsWifiChip13addOnewayTaskENSt3__18functionIFvvEEE
_ZN7android8hardware4wifi4V1_010BsWifiChipC1ENS_2spINS2_9IWifiChipEEE
_ZN7android8hardware4wifi4V1_010BsWifiChipC2ENS_2spINS2_9IWifiChipEEE
_ZN7android8hardware4wifi4V1_010IWifiIface10descriptorE
_ZN7android8hardware4wifi4V1_010IWifiIface10getServiceERKNSt3__112basic_stringIcNS4_11char_traitsIcEENS4_9allocatorIcEEEEb
_ZN7android8hardware4wifi4V1_010IWifiIface11linkToDeathERKNS_2spINS0_20hidl_death_recipientEEEm
_ZN7android8hardware4wifi4V1_010IWifiIface12getDebugInfoENSt3__18functionIFvRKNS_4hidl4base4V1_09DebugInfoEEEE
_ZN7android8hardware4wifi4V1_010IWifiIface12getHashChainENSt3__18functionIFvRKNS0_8hidl_vecINS0_10hidl_arrayIhLm32EJEEEEEEEE
_ZN7android8hardware4wifi4V1_010IWifiIface13tryGetServiceERKNSt3__112basic_stringIcNS4_11char_traitsIcEENS4_9allocatorIcEEEEb
_ZN7android8hardware4wifi4V1_010IWifiIface13unlinkToDeathERKNS_2spINS0_20hidl_death_recipientEEE
_ZN7android8hardware4wifi4V1_010IWifiIface14interfaceChainENSt3__18functionIFvRKNS0_8hidl_vecINS0_11hidl_stringEEEEEE
_ZN7android8hardware4wifi4V1_010IWifiIface17registerAsServiceERKNSt3__112basic_stringIcNS4_11char_traitsIcEENS4_9allocatorIcEEEE
_ZN7android8hardware4wifi4V1_010IWifiIface19interfaceDescriptorENSt3__18functionIFvRKNS0_11hidl_stringEEEE
_ZN7android8hardware4wifi4V1_010IWifiIface21notifySyspropsChangedEv
_ZN7android8hardware4wifi4V1_010IWifiIface21setHALInstrumentationEv
_ZN7android8hardware4wifi4V1_010IWifiIface24registerForNotificationsERKNSt3__112basic_stringIcNS4_11char_traitsIcEENS4_9allocatorIcEEEERKNS_2spINS_4hidl7manager4V1_020IServiceNotificationEEE
_ZN7android8hardware4wifi4V1_010IWifiIface4pingEv
_ZN7android8hardware4wifi4V1_010IWifiIface5debugERKNS0_11hidl_handleERKNS0_8hidl_vecINS0_11hidl_stringEEE
_ZN7android8hardware4wifi4V1_010IWifiIface8castFromERKNS_2spINS_4hidl4base4V1_05IBaseEEEb
_ZN7android8hardware4wifi4V1_010IWifiIface8castFromERKNS_2spIS3_EEb
_ZN7android8hardware4wifi4V1_011BsWifiIface13addOnewayTaskENSt3__18functionIFvvEEE
_ZN7android8hardware4wifi4V1_011BsWifiIfaceC1ENS_2spINS2_10IWifiIfaceEEE
_ZN7android8hardware4wifi4V1_011BsWifiIfaceC2ENS_2spINS2_10IWifiIfaceEEE
_ZN7android8hardware4wifi4V1_012BnHwWifiChip10onTransactEjRKNS0_6ParcelEPS4_jNSt3__18functionIFvRS4_EEE
_ZN7android8hardware4wifi4V1_012BnHwWifiChip11_hidl_getIdEPNS_4hidl4base4V1_08BnHwBaseERKNS0_6ParcelEPS9_NSt3__18functionIFvRS9_EEE
_ZN7android8hardware4wifi4V1_012BnHwWifiChip12getDebugInfoENSt3__18functionIFvRKNS_4hidl4base4V1_09DebugInfoEEEE
_ZN7android8hardware4wifi4V1_012BnHwWifiChip13_hidl_getModeEPNS_4hidl4base4V1_08BnHwBaseERKNS0_6ParcelEPS9_NSt3__18functionIFvRS9_EEE
_ZN7android8hardware4wifi4V1_012BnHwWifiChip16_hidl_getApIfaceEPNS_4hidl4base4V1_08BnHwBaseERKNS0_6ParcelEPS9_NSt3__18functionIFvRS9_EEE
_ZN7android8hardware4wifi4V1_012BnHwWifiChip17_hidl_getNanIfaceEPNS_4hidl4base4V1_08BnHwBaseERKNS0_6ParcelEPS9_NSt3__18functionIFvRS9_EEE
_ZN7android8hardware4wifi4V1_012BnHwWifiChip17_hidl_getP2pIfaceEPNS_4hidl4base4V1_08BnHwBaseERKNS0_6ParcelEPS9_NSt3__18functionIFvRS9_EEE
_ZN7android8hardware4wifi4V1_012BnHwWifiChip17_hidl_getStaIfaceEPNS_4hidl4base4V1_08BnHwBaseERKNS0_6ParcelEPS9_NSt3__18functionIFvRS9_EEE
_ZN7android8hardware4wifi4V1_012BnHwWifiChip19_hidl_configureChipEPNS_4hidl4base4V1_08BnHwBaseERKNS0_6ParcelEPS9_NSt3__18functionIFvRS9_EEE
_ZN7android8hardware4wifi4V1_012BnHwWifiChip19_hidl_createApIfaceEPNS_4hidl4base4V1_08BnHwBaseERKNS0_6ParcelEPS9_NSt3__18functionIFvRS9_EEE
_ZN7android8hardware4wifi4V1_012BnHwWifiChip19_hidl_removeApIfaceEPNS_4hidl4base4V1_08BnHwBaseERKNS0_6ParcelEPS9_NSt3__18functionIFvRS9_EEE
_ZN7android8hardware4wifi4V1_012BnHwWifiChip20_hidl_createNanIfaceEPNS_4hidl4base4V1_08BnHwBaseERKNS0_6ParcelEPS9_NSt3__18functionIFvRS9_EEE
_ZN7android8hardware4wifi4V1_012BnHwWifiChip20_hidl_createP2pIfaceEPNS_4hidl4base4V1_08BnHwBaseERKNS0_6ParcelEPS9_NSt3__18functionIFvRS9_EEE
_ZN7android8hardware4wifi4V1_012BnHwWifiChip20_hidl_createStaIfaceEPNS_4hidl4base4V1_08BnHwBaseERKNS0_6ParcelEPS9_NSt3__18functionIFvRS9_EEE
_ZN7android8hardware4wifi4V1_012BnHwWifiChip20_hidl_removeNanIfaceEPNS_4hidl4base4V1_08BnHwBaseERKNS0_6ParcelEPS9_NSt3__18functionIFvRS9_EEE
_ZN7android8hardware4wifi4V1_012BnHwWifiChip20_hidl_removeP2pIfaceEPNS_4hidl4base4V1_08BnHwBaseERKNS0_6ParcelEPS9_NSt3__18functionIFvRS9_EEE
_ZN7android8hardware4wifi4V1_012BnHwWifiChip20_hidl_removeStaIfaceEPNS_4hidl4base4V1_08BnHwBaseERKNS0_6ParcelEPS9_NSt3__18functionIFvRS9_EEE
_ZN7android8hardware4wifi4V1_012BnHwWifiChip21_hidl_getApIfaceNamesEPNS_4hidl4base4V1_08BnHwBaseERKNS0_6ParcelEPS9_NSt3__18functionIFvRS9_EEE
_ZN7android8hardware4wifi4V1_012BnHwWifiChip21_hidl_getCapabilitiesEPNS_4hidl4base4V1_08BnHwBaseERKNS0_6ParcelEPS9_NSt3__18functionIFvRS9_EEE
_ZN7android8hardware4wifi4V1_012BnHwWifiChip22_hidl_getNanIfaceNamesEPNS_4hidl4base4V1_08BnHwBaseERKNS0_6ParcelEPS9_NSt3__18functionIFvRS9_EEE
_ZN7android8hardware4wifi4V1_012BnHwWifiChip22_hidl_getP2pIfaceNamesEPNS_4hidl4base4V1_08BnHwBaseERKNS0_6ParcelEPS9_NSt3__18functionIFvRS9_EEE
_ZN7android8hardware4wifi4V1_012BnHwWifiChip22_hidl_getStaIfaceNamesEPNS_4hidl4base4V1_08BnHwBaseERKNS0_6ParcelEPS9_NSt3__18functionIFvRS9_EEE
_ZN7android8hardware4wifi4V1_012BnHwWifiChip23_hidl_getAvailableModesEPNS_4hidl4base4V1_08BnHwBaseERKNS0_6ParcelEPS9_NSt3__18functionIFvRS9_EEE
_ZN7android8hardware4wifi4V1_012BnHwWifiChip25_hidl_createRttControllerEPNS_4hidl4base4V1_08BnHwBaseERKNS0_6ParcelEPS9_NSt3__18functionIFvRS9_EEE
_ZN7android8hardware4wifi4V1_012BnHwWifiChip26_hidl_requestChipDebugInfoEPNS_4hidl4base4V1_08BnHwBaseERKNS0_6ParcelEPS9_NSt3__18functionIFvRS9_EEE
_ZN7android8hardware4wifi4V1_012BnHwWifiChip27_hidl_registerEventCallbackEPNS_4hidl4base4V1_08BnHwBaseERKNS0_6ParcelEPS9_NSt3__18functionIFvRS9_EEE
_ZN7android8hardware4wifi4V1_012BnHwWifiChip28_hidl_enableDebugErrorAlertsEPNS_4hidl4base4V1_08BnHwBaseERKNS0_6ParcelEPS9_NSt3__18functionIFvRS9_EEE
_ZN7android8hardware4wifi4V1_012BnHwWifiChip28_hidl_requestDriverDebugDumpEPNS_4hidl4base4V1_08BnHwBaseERKNS0_6ParcelEPS9_NSt3__18functionIFvRS9_EEE
_ZN7android8hardware4wifi4V1_012BnHwWifiChip30_hidl_requestFirmwareDebugDumpEPNS_4hidl4base4V1_08BnHwBaseERKNS0_6ParcelEPS9_NSt3__18functionIFvRS9_EEE
_ZN7android8hardware4wifi4V1_012BnHwWifiChip31_hidl_getDebugRingBuffersStatusEPNS_4hidl4base4V1_08BnHwBaseERKNS0_6ParcelEPS9_NSt3__18functionIFvRS9_EEE
_ZN7android8hardware4wifi4V1_012BnHwWifiChip32_hidl_forceDumpToDebugRingBufferEPNS_4hidl4base4V1_08BnHwBaseERKNS0_6ParcelEPS9_NSt3__18functionIFvRS9_EEE
_ZN7android8hardware4wifi4V1_012BnHwWifiChip33_hidl_getDebugHostWakeReasonStatsEPNS_4hidl4base4V1_08BnHwBaseERKNS0_6ParcelEPS9_NSt3__18functionIFvRS9_EEE
_ZN7android8hardware4wifi4V1_012BnHwWifiChip34_hidl_stopLoggingToDebugRingBufferEPNS_4hidl4base4V1_08BnHwBaseERKNS0_6ParcelEPS9_NSt3__18functionIFvRS9_EEE
_ZN7android8hardware4wifi4V1_012BnHwWifiChip35_hidl_startLoggingToDebugRingBufferEPNS_4hidl4base4V1_08BnHwBaseERKNS0_6ParcelEPS9_NSt3__18functionIFvRS9_EEE
_ZN7android8hardware4wifi4V1_012BnHwWifiChip4pingEv
_ZN7android8hardware4wifi4V1_012BnHwWifiChipC1ERKNS_2spINS2_9IWifiChipEEE
_ZN7android8hardware4wifi4V1_012BnHwWifiChipC2ERKNS_2spINS2_9IWifiChipEEE
_ZN7android8hardware4wifi4V1_012BnHwWifiChipD0Ev
_ZN7android8hardware4wifi4V1_012BnHwWifiChipD1Ev
_ZN7android8hardware4wifi4V1_012BnHwWifiChipD2Ev
_ZN7android8hardware4wifi4V1_012BpHwWifiChip10getApIfaceERKNS0_11hidl_stringENSt3__18functionIFvRKNS2_10WifiStatusERKNS_2spINS2_12IWifiApIfaceEEEEEE
_ZN7android8hardware4wifi4V1_012BpHwWifiChip11_hidl_getIdEPNS0_10IInterfaceEPNS0_7details16HidlInstrumentorENSt3__18functionIFvRKNS2_10WifiStatusEjEEE
_ZN7android8hardware4wifi4V1_012BpHwWifiChip11getNanIfaceERKNS0_11hidl_stringENSt3__18functionIFvRKNS2_10WifiStatusERKNS_2spINS2_13IWifiNanIfaceEEEEEE
_ZN7android8hardware4wifi4V1_012BpHwWifiChip11getP2pIfaceERKNS0_11hidl_stringENSt3__18functionIFvRKNS2_10WifiStatusERKNS_2spINS2_13IWifiP2pIfaceEEEEEE
_ZN7android8hardware4wifi4V1_012BpHwWifiChip11getStaIfaceERKNS0_11hidl_stringENSt3__18functionIFvRKNS2_10WifiStatusERKNS_2spINS2_13IWifiStaIfaceEEEEEE
_ZN7android8hardware4wifi4V1_012BpHwWifiChip11linkToDeathERKNS_2spINS0_20hidl_death_recipientEEEm
_ZN7android8hardware4wifi4V1_012BpHwWifiChip12getDebugInfoENSt3__18functionIFvRKNS_4hidl4base4V1_09DebugInfoEEEE
_ZN7android8hardware4wifi4V1_012BpHwWifiChip12getHashChainENSt3__18functionIFvRKNS0_8hidl_vecINS0_10hidl_arrayIhLm32EJEEEEEEEE
_ZN7android8hardware4wifi4V1_012BpHwWifiChip13_hidl_getModeEPNS0_10IInterfaceEPNS0_7details16HidlInstrumentorENSt3__18functionIFvRKNS2_10WifiStatusEjEEE
_ZN7android8hardware4wifi4V1_012BpHwWifiChip13configureChipEjNSt3__18functionIFvRKNS2_10WifiStatusEEEE
_ZN7android8hardware4wifi4V1_012BpHwWifiChip13createApIfaceENSt3__18functionIFvRKNS2_10WifiStatusERKNS_2spINS2_12IWifiApIfaceEEEEEE
_ZN7android8hardware4wifi4V1_012BpHwWifiChip13removeApIfaceERKNS0_11hidl_stringENSt3__18functionIFvRKNS2_10WifiStatusEEEE
_ZN7android8hardware4wifi4V1_012BpHwWifiChip13unlinkToDeathERKNS_2spINS0_20hidl_death_recipientEEE
_ZN7android8hardware4wifi4V1_012BpHwWifiChip14createNanIfaceENSt3__18functionIFvRKNS2_10WifiStatusERKNS_2spINS2_13IWifiNanIfaceEEEEEE
_ZN7android8hardware4wifi4V1_012BpHwWifiChip14createP2pIfaceENSt3__18functionIFvRKNS2_10WifiStatusERKNS_2spINS2_13IWifiP2pIfaceEEEEEE
_ZN7android8hardware4wifi4V1_012BpHwWifiChip14createStaIfaceENSt3__18functionIFvRKNS2_10WifiStatusERKNS_2spINS2_13IWifiStaIfaceEEEEEE
_ZN7android8hardware4wifi4V1_012BpHwWifiChip14interfaceChainENSt3__18functionIFvRKNS0_8hidl_vecINS0_11hidl_stringEEEEEE
_ZN7android8hardware4wifi4V1_012BpHwWifiChip14removeNanIfaceERKNS0_11hidl_stringENSt3__18functionIFvRKNS2_10WifiStatusEEEE
_ZN7android8hardware4wifi4V1_012BpHwWifiChip14removeP2pIfaceERKNS0_11hidl_stringENSt3__18functionIFvRKNS2_10WifiStatusEEEE
_ZN7android8hardware4wifi4V1_012BpHwWifiChip14removeStaIfaceERKNS0_11hidl_stringENSt3__18functionIFvRKNS2_10WifiStatusEEEE
_ZN7android8hardware4wifi4V1_012BpHwWifiChip15getApIfaceNamesENSt3__18functionIFvRKNS2_10WifiStatusERKNS0_8hidl_vecINS0_11hidl_stringEEEEEE
_ZN7android8hardware4wifi4V1_012BpHwWifiChip15getCapabilitiesENSt3__18functionIFvRKNS2_10WifiStatusEjEEE
_ZN7android8hardware4wifi4V1_012BpHwWifiChip16_hidl_getApIfaceEPNS0_10IInterfaceEPNS0_7details16HidlInstrumentorERKNS0_11hidl_stringENSt3__18functionIFvRKNS2_10WifiStatusERKNS_2spINS2_12IWifiApIfaceEEEEEE
_ZN7android8hardware4wifi4V1_012BpHwWifiChip16getNanIfaceNamesENSt3__18functionIFvRKNS2_10WifiStatusERKNS0_8hidl_vecINS0_11hidl_stringEEEEEE
_ZN7android8hardware4wifi4V1_012BpHwWifiChip16getP2pIfaceNamesENSt3__18functionIFvRKNS2_10WifiStatusERKNS0_8hidl_vecINS0_11hidl_stringEEEEEE
_ZN7android8hardware4wifi4V1_012BpHwWifiChip16getStaIfaceNamesENSt3__18functionIFvRKNS2_10WifiStatusERKNS0_8hidl_vecINS0_11hidl_stringEEEEEE
_ZN7android8hardware4wifi4V1_012BpHwWifiChip17_hidl_getNanIfaceEPNS0_10IInterfaceEPNS0_7details16HidlInstrumentorERKNS0_11hidl_stringENSt3__18functionIFvRKNS2_10WifiStatusERKNS_2spINS2_13IWifiNanIfaceEEEEEE
_ZN7android8hardware4wifi4V1_012BpHwWifiChip17_hidl_getP2pIfaceEPNS0_10IInterfaceEPNS0_7details16HidlInstrumentorERKNS0_11hidl_stringENSt3__18functionIFvRKNS2_10WifiStatusERKNS_2spINS2_13IWifiP2pIfaceEEEEEE
_ZN7android8hardware4wifi4V1_012BpHwWifiChip17_hidl_getStaIfaceEPNS0_10IInterfaceEPNS0_7details16HidlInstrumentorERKNS0_11hidl_stringENSt3__18functionIFvRKNS2_10WifiStatusERKNS_2spINS2_13IWifiStaIfaceEEEEEE
_ZN7android8hardware4wifi4V1_012BpHwWifiChip17getAvailableModesENSt3__18functionIFvRKNS2_10WifiStatusERKNS0_8hidl_vecINS2_9IWifiChip8ChipModeEEEEEE
_ZN7android8hardware4wifi4V1_012BpHwWifiChip19_hidl_configureChipEPNS0_10IInterfaceEPNS0_7details16HidlInstrumentorEjNSt3__18functionIFvRKNS2_10WifiStatusEEEE
_ZN7android8hardware4wifi4V1_012BpHwWifiChip19_hidl_createApIfaceEPNS0_10IInterfaceEPNS0_7details16HidlInstrumentorENSt3__18functionIFvRKNS2_10WifiStatusERKNS_2spINS2_12IWifiApIfaceEEEEEE
_ZN7android8hardware4wifi4V1_012BpHwWifiChip19_hidl_removeApIfaceEPNS0_10IInterfaceEPNS0_7details16HidlInstrumentorERKNS0_11hidl_stringENSt3__18functionIFvRKNS2_10WifiStatusEEEE
_ZN7android8hardware4wifi4V1_012BpHwWifiChip19createRttControllerERKNS_2spINS2_10IWifiIfaceEEENSt3__18functionIFvRKNS2_10WifiStatusERKNS4_INS2_18IWifiRttControllerEEEEEE
_ZN7android8hardware4wifi4V1_012BpHwWifiChip19interfaceDescriptorENSt3__18functionIFvRKNS0_11hidl_stringEEEE
_ZN7android8hardware4wifi4V1_012BpHwWifiChip20_hidl_createNanIfaceEPNS0_10IInterfaceEPNS0_7details16HidlInstrumentorENSt3__18functionIFvRKNS2_10WifiStatusERKNS_2spINS2_13IWifiNanIfaceEEEEEE
_ZN7android8hardware4wifi4V1_012BpHwWifiChip20_hidl_createP2pIfaceEPNS0_10IInterfaceEPNS0_7details16HidlInstrumentorENSt3__18functionIFvRKNS2_10WifiStatusERKNS_2spINS2_13IWifiP2pIfaceEEEEEE
_ZN7android8hardware4wifi4V1_012BpHwWifiChip20_hidl_createStaIfaceEPNS0_10IInterfaceEPNS0_7details16HidlInstrumentorENSt3__18functionIFvRKNS2_10WifiStatusERKNS_2spINS2_13IWifiStaIfaceEEEEEE
_ZN7android8hardware4wifi4V1_012BpHwWifiChip20_hidl_removeNanIfaceEPNS0_10IInterfaceEPNS0_7details16HidlInstrumentorERKNS0_11hidl_stringENSt3__18functionIFvRKNS2_10WifiStatusEEEE
_ZN7android8hardware4wifi4V1_012BpHwWifiChip20_hidl_removeP2pIfaceEPNS0_10IInterfaceEPNS0_7details16HidlInstrumentorERKNS0_11hidl_stringENSt3__18functionIFvRKNS2_10WifiStatusEEEE
_ZN7android8hardware4wifi4V1_012BpHwWifiChip20_hidl_removeStaIfaceEPNS0_10IInterfaceEPNS0_7details16HidlInstrumentorERKNS0_11hidl_stringENSt3__18functionIFvRKNS2_10WifiStatusEEEE
_ZN7android8hardware4wifi4V1_012BpHwWifiChip20requestChipDebugInfoENSt3__18functionIFvRKNS2_10WifiStatusERKNS2_9IWifiChip13ChipDebugInfoEEEE
_ZN7android8hardware4wifi4V1_012BpHwWifiChip21_hidl_getApIfaceNamesEPNS0_10IInterfaceEPNS0_7details16HidlInstrumentorENSt3__18functionIFvRKNS2_10WifiStatusERKNS0_8hidl_vecINS0_11hidl_stringEEEEEE
_ZN7android8hardware4wifi4V1_012BpHwWifiChip21_hidl_getCapabilitiesEPNS0_10IInterfaceEPNS0_7details16HidlInstrumentorENSt3__18functionIFvRKNS2_10WifiStatusEjEEE
_ZN7android8hardware4wifi4V1_012BpHwWifiChip21notifySyspropsChangedEv
_ZN7android8hardware4wifi4V1_012BpHwWifiChip21registerEventCallbackERKNS_2spINS2_22IWifiChipEventCallbackEEENSt3__18functionIFvRKNS2_10WifiStatusEEEE
_ZN7android8hardware4wifi4V1_012BpHwWifiChip21setHALInstrumentationEv
_ZN7android8hardware4wifi4V1_012BpHwWifiChip22_hidl_getNanIfaceNamesEPNS0_10IInterfaceEPNS0_7details16HidlInstrumentorENSt3__18functionIFvRKNS2_10WifiStatusERKNS0_8hidl_vecINS0_11hidl_stringEEEEEE
_ZN7android8hardware4wifi4V1_012BpHwWifiChip22_hidl_getP2pIfaceNamesEPNS0_10IInterfaceEPNS0_7details16HidlInstrumentorENSt3__18functionIFvRKNS2_10WifiStatusERKNS0_8hidl_vecINS0_11hidl_stringEEEEEE
_ZN7android8hardware4wifi4V1_012BpHwWifiChip22_hidl_getStaIfaceNamesEPNS0_10IInterfaceEPNS0_7details16HidlInstrumentorENSt3__18functionIFvRKNS2_10WifiStatusERKNS0_8hidl_vecINS0_11hidl_stringEEEEEE
_ZN7android8hardware4wifi4V1_012BpHwWifiChip22enableDebugErrorAlertsEbNSt3__18functionIFvRKNS2_10WifiStatusEEEE
_ZN7android8hardware4wifi4V1_012BpHwWifiChip22requestDriverDebugDumpENSt3__18functionIFvRKNS2_10WifiStatusERKNS0_8hidl_vecIhEEEEE
_ZN7android8hardware4wifi4V1_012BpHwWifiChip23_hidl_getAvailableModesEPNS0_10IInterfaceEPNS0_7details16HidlInstrumentorENSt3__18functionIFvRKNS2_10WifiStatusERKNS0_8hidl_vecINS2_9IWifiChip8ChipModeEEEEEE
_ZN7android8hardware4wifi4V1_012BpHwWifiChip24requestFirmwareDebugDumpENSt3__18functionIFvRKNS2_10WifiStatusERKNS0_8hidl_vecIhEEEEE
_ZN7android8hardware4wifi4V1_012BpHwWifiChip25_hidl_createRttControllerEPNS0_10IInterfaceEPNS0_7details16HidlInstrumentorERKNS_2spINS2_10IWifiIfaceEEENSt3__18functionIFvRKNS2_10WifiStatusERKNS9_INS2_18IWifiRttControllerEEEEEE
_ZN7android8hardware4wifi4V1_012BpHwWifiChip25getDebugRingBuffersStatusENSt3__18functionIFvRKNS2_10WifiStatusERKNS0_8hidl_vecINS2_25WifiDebugRingBufferStatusEEEEEE
_ZN7android8hardware4wifi4V1_012BpHwWifiChip26_hidl_requestChipDebugInfoEPNS0_10IInterfaceEPNS0_7details16HidlInstrumentorENSt3__18functionIFvRKNS2_10WifiStatusERKNS2_9IWifiChip13ChipDebugInfoEEEE
_ZN7android8hardware4wifi4V1_012BpHwWifiChip26forceDumpToDebugRingBufferERKNS0_11hidl_stringENSt3__18functionIFvRKNS2_10WifiStatusEEEE
_ZN7android8hardware4wifi4V1_012BpHwWifiChip27_hidl_registerEventCallbackEPNS0_10IInterfaceEPNS0_7details16HidlInstrumentorERKNS_2spINS2_22IWifiChipEventCallbackEEENSt3__18functionIFvRKNS2_10WifiStatusEEEE
_ZN7android8hardware4wifi4V1_012BpHwWifiChip27getDebugHostWakeReasonStatsENSt3__18functionIFvRKNS2_10WifiStatusERKNS2_28WifiDebugHostWakeReasonStatsEEEE
_ZN7android8hardware4wifi4V1_012BpHwWifiChip28_hidl_enableDebugErrorAlertsEPNS0_10IInterfaceEPNS0_7details16HidlInstrumentorEbNSt3__18functionIFvRKNS2_10WifiStatusEEEE
_ZN7android8hardware4wifi4V1_012BpHwWifiChip28_hidl_requestDriverDebugDumpEPNS0_10IInterfaceEPNS0_7details16HidlInstrumentorENSt3__18functionIFvRKNS2_10WifiStatusERKNS0_8hidl_vecIhEEEEE
_ZN7android8hardware4wifi4V1_012BpHwWifiChip28stopLoggingToDebugRingBufferENSt3__18functionIFvRKNS2_10WifiStatusEEEE
_ZN7android8hardware4wifi4V1_012BpHwWifiChip29startLoggingToDebugRingBufferERKNS0_11hidl_stringENS2_31WifiDebugRingBufferVerboseLevelEjjNSt3__18functionIFvRKNS2_10WifiStatusEEEE
_ZN7android8hardware4wifi4V1_012BpHwWifiChip30_hidl_requestFirmwareDebugDumpEPNS0_10IInterfaceEPNS0_7details16HidlInstrumentorENSt3__18functionIFvRKNS2_10WifiStatusERKNS0_8hidl_vecIhEEEEE
_ZN7android8hardware4wifi4V1_012BpHwWifiChip31_hidl_getDebugRingBuffersStatusEPNS0_10IInterfaceEPNS0_7details16HidlInstrumentorENSt3__18functionIFvRKNS2_10WifiStatusERKNS0_8hidl_vecINS2_25WifiDebugRingBufferStatusEEEEEE
_ZN7android8hardware4wifi4V1_012BpHwWifiChip32_hidl_forceDumpToDebugRingBufferEPNS0_10IInterfaceEPNS0_7details16HidlInstrumentorERKNS0_11hidl_stringENSt3__18functionIFvRKNS2_10WifiStatusEEEE
_ZN7android8hardware4wifi4V1_012BpHwWifiChip33_hidl_getDebugHostWakeReasonStatsEPNS0_10IInterfaceEPNS0_7details16HidlInstrumentorENSt3__18functionIFvRKNS2_10WifiStatusERKNS2_28WifiDebugHostWakeReasonStatsEEEE
_ZN7android8hardware4wifi4V1_012BpHwWifiChip34_hidl_stopLoggingToDebugRingBufferEPNS0_10IInterfaceEPNS0_7details16HidlInstrumentorENSt3__18functionIFvRKNS2_10WifiStatusEEEE
_ZN7android8hardware4wifi4V1_012BpHwWifiChip35_hidl_startLoggingToDebugRingBufferEPNS0_10IInterfaceEPNS0_7details16HidlInstrumentorERKNS0_11hidl_stringENS2_31WifiDebugRingBufferVerboseLevelEjjNSt3__18functionIFvRKNS2_10WifiStatusEEEE
_ZN7android8hardware4wifi4V1_012BpHwWifiChip4pingEv
_ZN7android8hardware4wifi4V1_012BpHwWifiChip5debugERKNS0_11hidl_handleERKNS0_8hidl_vecINS0_11hidl_stringEEE
_ZN7android8hardware4wifi4V1_012BpHwWifiChip5getIdENSt3__18functionIFvRKNS2_10WifiStatusEjEEE
_ZN7android8hardware4wifi4V1_012BpHwWifiChip7getModeENSt3__18functionIFvRKNS2_10WifiStatusEjEEE
_ZN7android8hardware4wifi4V1_012BpHwWifiChipC1ERKNS_2spINS0_7IBinderEEE
_ZN7android8hardware4wifi4V1_012BpHwWifiChipC2ERKNS_2spINS0_7IBinderEEE
_ZN7android8hardware4wifi4V1_012IWifiApIface10descriptorE
_ZN7android8hardware4wifi4V1_012IWifiApIface10getServiceERKNSt3__112basic_stringIcNS4_11char_traitsIcEENS4_9allocatorIcEEEEb
_ZN7android8hardware4wifi4V1_012IWifiApIface11linkToDeathERKNS_2spINS0_20hidl_death_recipientEEEm
_ZN7android8hardware4wifi4V1_012IWifiApIface12getDebugInfoENSt3__18functionIFvRKNS_4hidl4base4V1_09DebugInfoEEEE
_ZN7android8hardware4wifi4V1_012IWifiApIface12getHashChainENSt3__18functionIFvRKNS0_8hidl_vecINS0_10hidl_arrayIhLm32EJEEEEEEEE
_ZN7android8hardware4wifi4V1_012IWifiApIface13tryGetServiceERKNSt3__112basic_stringIcNS4_11char_traitsIcEENS4_9allocatorIcEEEEb
_ZN7android8hardware4wifi4V1_012IWifiApIface13unlinkToDeathERKNS_2spINS0_20hidl_death_recipientEEE
_ZN7android8hardware4wifi4V1_012IWifiApIface14interfaceChainENSt3__18functionIFvRKNS0_8hidl_vecINS0_11hidl_stringEEEEEE
_ZN7android8hardware4wifi4V1_012IWifiApIface17registerAsServiceERKNSt3__112basic_stringIcNS4_11char_traitsIcEENS4_9allocatorIcEEEE
_ZN7android8hardware4wifi4V1_012IWifiApIface19interfaceDescriptorENSt3__18functionIFvRKNS0_11hidl_stringEEEE
_ZN7android8hardware4wifi4V1_012IWifiApIface21notifySyspropsChangedEv
_ZN7android8hardware4wifi4V1_012IWifiApIface21setHALInstrumentationEv
_ZN7android8hardware4wifi4V1_012IWifiApIface24registerForNotificationsERKNSt3__112basic_stringIcNS4_11char_traitsIcEENS4_9allocatorIcEEEERKNS_2spINS_4hidl7manager4V1_020IServiceNotificationEEE
_ZN7android8hardware4wifi4V1_012IWifiApIface4pingEv
_ZN7android8hardware4wifi4V1_012IWifiApIface5debugERKNS0_11hidl_handleERKNS0_8hidl_vecINS0_11hidl_stringEEE
_ZN7android8hardware4wifi4V1_012IWifiApIface8castFromERKNS_2spINS2_10IWifiIfaceEEEb
_ZN7android8hardware4wifi4V1_012IWifiApIface8castFromERKNS_2spINS_4hidl4base4V1_05IBaseEEEb
_ZN7android8hardware4wifi4V1_012IWifiApIface8castFromERKNS_2spIS3_EEb
_ZN7android8hardware4wifi4V1_013BnHwWifiIface10onTransactEjRKNS0_6ParcelEPS4_jNSt3__18functionIFvRS4_EEE
_ZN7android8hardware4wifi4V1_013BnHwWifiIface12getDebugInfoENSt3__18functionIFvRKNS_4hidl4base4V1_09DebugInfoEEEE
_ZN7android8hardware4wifi4V1_013BnHwWifiIface13_hidl_getNameEPNS_4hidl4base4V1_08BnHwBaseERKNS0_6ParcelEPS9_NSt3__18functionIFvRS9_EEE
_ZN7android8hardware4wifi4V1_013BnHwWifiIface13_hidl_getTypeEPNS_4hidl4base4V1_08BnHwBaseERKNS0_6ParcelEPS9_NSt3__18functionIFvRS9_EEE
_ZN7android8hardware4wifi4V1_013BnHwWifiIface4pingEv
_ZN7android8hardware4wifi4V1_013BnHwWifiIfaceC1ERKNS_2spINS2_10IWifiIfaceEEE
_ZN7android8hardware4wifi4V1_013BnHwWifiIfaceC2ERKNS_2spINS2_10IWifiIfaceEEE
_ZN7android8hardware4wifi4V1_013BnHwWifiIfaceD0Ev
_ZN7android8hardware4wifi4V1_013BnHwWifiIfaceD1Ev
_ZN7android8hardware4wifi4V1_013BnHwWifiIfaceD2Ev
_ZN7android8hardware4wifi4V1_013BpHwWifiIface11linkToDeathERKNS_2spINS0_20hidl_death_recipientEEEm
_ZN7android8hardware4wifi4V1_013BpHwWifiIface12getDebugInfoENSt3__18functionIFvRKNS_4hidl4base4V1_09DebugInfoEEEE
_ZN7android8hardware4wifi4V1_013BpHwWifiIface12getHashChainENSt3__18functionIFvRKNS0_8hidl_vecINS0_10hidl_arrayIhLm32EJEEEEEEEE
_ZN7android8hardware4wifi4V1_013BpHwWifiIface13_hidl_getNameEPNS0_10IInterfaceEPNS0_7details16HidlInstrumentorENSt3__18functionIFvRKNS2_10WifiStatusERKNS0_11hidl_stringEEEE
_ZN7android8hardware4wifi4V1_013BpHwWifiIface13_hidl_getTypeEPNS0_10IInterfaceEPNS0_7details16HidlInstrumentorENSt3__18functionIFvRKNS2_10WifiStatusENS2_9IfaceTypeEEEE
_ZN7android8hardware4wifi4V1_013BpHwWifiIface13unlinkToDeathERKNS_2spINS0_20hidl_death_recipientEEE
_ZN7android8hardware4wifi4V1_013BpHwWifiIface14interfaceChainENSt3__18functionIFvRKNS0_8hidl_vecINS0_11hidl_stringEEEEEE
_ZN7android8hardware4wifi4V1_013BpHwWifiIface19interfaceDescriptorENSt3__18functionIFvRKNS0_11hidl_stringEEEE
_ZN7android8hardware4wifi4V1_013BpHwWifiIface21notifySyspropsChangedEv
_ZN7android8hardware4wifi4V1_013BpHwWifiIface21setHALInstrumentationEv
_ZN7android8hardware4wifi4V1_013BpHwWifiIface4pingEv
_ZN7android8hardware4wifi4V1_013BpHwWifiIface5debugERKNS0_11hidl_handleERKNS0_8hidl_vecINS0_11hidl_stringEEE
_ZN7android8hardware4wifi4V1_013BpHwWifiIface7getNameENSt3__18functionIFvRKNS2_10WifiStatusERKNS0_11hidl_stringEEEE
_ZN7android8hardware4wifi4V1_013BpHwWifiIface7getTypeENSt3__18functionIFvRKNS2_10WifiStatusENS2_9IfaceTypeEEEE
_ZN7android8hardware4wifi4V1_013BpHwWifiIfaceC1ERKNS_2spINS0_7IBinderEEE
_ZN7android8hardware4wifi4V1_013BpHwWifiIfaceC2ERKNS_2spINS0_7IBinderEEE
_ZN7android8hardware4wifi4V1_013BsWifiApIface13addOnewayTaskENSt3__18functionIFvvEEE
_ZN7android8hardware4wifi4V1_013BsWifiApIfaceC1ENS_2spINS2_12IWifiApIfaceEEE
_ZN7android8hardware4wifi4V1_013BsWifiApIfaceC2ENS_2spINS2_12IWifiApIfaceEEE
_ZN7android8hardware4wifi4V1_013IWifiNanIface10descriptorE
_ZN7android8hardware4wifi4V1_013IWifiNanIface10getServiceERKNSt3__112basic_stringIcNS4_11char_traitsIcEENS4_9allocatorIcEEEEb
_ZN7android8hardware4wifi4V1_013IWifiNanIface11linkToDeathERKNS_2spINS0_20hidl_death_recipientEEEm
_ZN7android8hardware4wifi4V1_013IWifiNanIface12getDebugInfoENSt3__18functionIFvRKNS_4hidl4base4V1_09DebugInfoEEEE
_ZN7android8hardware4wifi4V1_013IWifiNanIface12getHashChainENSt3__18functionIFvRKNS0_8hidl_vecINS0_10hidl_arrayIhLm32EJEEEEEEEE
_ZN7android8hardware4wifi4V1_013IWifiNanIface13tryGetServiceERKNSt3__112basic_stringIcNS4_11char_traitsIcEENS4_9allocatorIcEEEEb
_ZN7android8hardware4wifi4V1_013IWifiNanIface13unlinkToDeathERKNS_2spINS0_20hidl_death_recipientEEE
_ZN7android8hardware4wifi4V1_013IWifiNanIface14interfaceChainENSt3__18functionIFvRKNS0_8hidl_vecINS0_11hidl_stringEEEEEE
_ZN7android8hardware4wifi4V1_013IWifiNanIface17registerAsServiceERKNSt3__112basic_stringIcNS4_11char_traitsIcEENS4_9allocatorIcEEEE
_ZN7android8hardware4wifi4V1_013IWifiNanIface19interfaceDescriptorENSt3__18functionIFvRKNS0_11hidl_stringEEEE
_ZN7android8hardware4wifi4V1_013IWifiNanIface21notifySyspropsChangedEv
_ZN7android8hardware4wifi4V1_013IWifiNanIface21setHALInstrumentationEv
_ZN7android8hardware4wifi4V1_013IWifiNanIface24registerForNotificationsERKNSt3__112basic_stringIcNS4_11char_traitsIcEENS4_9allocatorIcEEEERKNS_2spINS_4hidl7manager4V1_020IServiceNotificationEEE
_ZN7android8hardware4wifi4V1_013IWifiNanIface4pingEv
_ZN7android8hardware4wifi4V1_013IWifiNanIface5debugERKNS0_11hidl_handleERKNS0_8hidl_vecINS0_11hidl_stringEEE
_ZN7android8hardware4wifi4V1_013IWifiNanIface8castFromERKNS_2spINS2_10IWifiIfaceEEEb
_ZN7android8hardware4wifi4V1_013IWifiNanIface8castFromERKNS_2spINS_4hidl4base4V1_05IBaseEEEb
_ZN7android8hardware4wifi4V1_013IWifiNanIface8castFromERKNS_2spIS3_EEb
_ZN7android8hardware4wifi4V1_013IWifiP2pIface10descriptorE
_ZN7android8hardware4wifi4V1_013IWifiP2pIface10getServiceERKNSt3__112basic_stringIcNS4_11char_traitsIcEENS4_9allocatorIcEEEEb
_ZN7android8hardware4wifi4V1_013IWifiP2pIface11linkToDeathERKNS_2spINS0_20hidl_death_recipientEEEm
_ZN7android8hardware4wifi4V1_013IWifiP2pIface12getDebugInfoENSt3__18functionIFvRKNS_4hidl4base4V1_09DebugInfoEEEE
_ZN7android8hardware4wifi4V1_013IWifiP2pIface12getHashChainENSt3__18functionIFvRKNS0_8hidl_vecINS0_10hidl_arrayIhLm32EJEEEEEEEE
_ZN7android8hardware4wifi4V1_013IWifiP2pIface13tryGetServiceERKNSt3__112basic_stringIcNS4_11char_traitsIcEENS4_9allocatorIcEEEEb
_ZN7android8hardware4wifi4V1_013IWifiP2pIface13unlinkToDeathERKNS_2spINS0_20hidl_death_recipientEEE
_ZN7android8hardware4wifi4V1_013IWifiP2pIface14interfaceChainENSt3__18functionIFvRKNS0_8hidl_vecINS0_11hidl_stringEEEEEE
_ZN7android8hardware4wifi4V1_013IWifiP2pIface17registerAsServiceERKNSt3__112basic_stringIcNS4_11char_traitsIcEENS4_9allocatorIcEEEE
_ZN7android8hardware4wifi4V1_013IWifiP2pIface19interfaceDescriptorENSt3__18functionIFvRKNS0_11hidl_stringEEEE
_ZN7android8hardware4wifi4V1_013IWifiP2pIface21notifySyspropsChangedEv
_ZN7android8hardware4wifi4V1_013IWifiP2pIface21setHALInstrumentationEv
_ZN7android8hardware4wifi4V1_013IWifiP2pIface24registerForNotificationsERKNSt3__112basic_stringIcNS4_11char_traitsIcEENS4_9allocatorIcEEEERKNS_2spINS_4hidl7manager4V1_020IServiceNotificationEEE
_ZN7android8hardware4wifi4V1_013IWifiP2pIface4pingEv
_ZN7android8hardware4wifi4V1_013IWifiP2pIface5debugERKNS0_11hidl_handleERKNS0_8hidl_vecINS0_11hidl_stringEEE
_ZN7android8hardware4wifi4V1_013IWifiP2pIface8castFromERKNS_2spINS2_10IWifiIfaceEEEb
_ZN7android8hardware4wifi4V1_013IWifiP2pIface8castFromERKNS_2spINS_4hidl4base4V1_05IBaseEEEb
_ZN7android8hardware4wifi4V1_013IWifiP2pIface8castFromERKNS_2spIS3_EEb
_ZN7android8hardware4wifi4V1_013IWifiStaIface10descriptorE
_ZN7android8hardware4wifi4V1_013IWifiStaIface10getServiceERKNSt3__112basic_stringIcNS4_11char_traitsIcEENS4_9allocatorIcEEEEb
_ZN7android8hardware4wifi4V1_013IWifiStaIface11linkToDeathERKNS_2spINS0_20hidl_death_recipientEEEm
_ZN7android8hardware4wifi4V1_013IWifiStaIface12getDebugInfoENSt3__18functionIFvRKNS_4hidl4base4V1_09DebugInfoEEEE
_ZN7android8hardware4wifi4V1_013IWifiStaIface12getHashChainENSt3__18functionIFvRKNS0_8hidl_vecINS0_10hidl_arrayIhLm32EJEEEEEEEE
_ZN7android8hardware4wifi4V1_013IWifiStaIface13tryGetServiceERKNSt3__112basic_stringIcNS4_11char_traitsIcEENS4_9allocatorIcEEEEb
_ZN7android8hardware4wifi4V1_013IWifiStaIface13unlinkToDeathERKNS_2spINS0_20hidl_death_recipientEEE
_ZN7android8hardware4wifi4V1_013IWifiStaIface14interfaceChainENSt3__18functionIFvRKNS0_8hidl_vecINS0_11hidl_stringEEEEEE
_ZN7android8hardware4wifi4V1_013IWifiStaIface17registerAsServiceERKNSt3__112basic_stringIcNS4_11char_traitsIcEENS4_9allocatorIcEEEE
_ZN7android8hardware4wifi4V1_013IWifiStaIface19interfaceDescriptorENSt3__18functionIFvRKNS0_11hidl_stringEEEE
_ZN7android8hardware4wifi4V1_013IWifiStaIface21notifySyspropsChangedEv
_ZN7android8hardware4wifi4V1_013IWifiStaIface21setHALInstrumentationEv
_ZN7android8hardware4wifi4V1_013IWifiStaIface24registerForNotificationsERKNSt3__112basic_stringIcNS4_11char_traitsIcEENS4_9allocatorIcEEEERKNS_2spINS_4hidl7manager4V1_020IServiceNotificationEEE
_ZN7android8hardware4wifi4V1_013IWifiStaIface4pingEv
_ZN7android8hardware4wifi4V1_013IWifiStaIface5debugERKNS0_11hidl_handleERKNS0_8hidl_vecINS0_11hidl_stringEEE
_ZN7android8hardware4wifi4V1_013IWifiStaIface8castFromERKNS_2spINS2_10IWifiIfaceEEEb
_ZN7android8hardware4wifi4V1_013IWifiStaIface8castFromERKNS_2spINS_4hidl4base4V1_05IBaseEEEb
_ZN7android8hardware4wifi4V1_013IWifiStaIface8castFromERKNS_2spIS3_EEb
_ZN7android8hardware4wifi4V1_014BsWifiNanIface13addOnewayTaskENSt3__18functionIFvvEEE
_ZN7android8hardware4wifi4V1_014BsWifiNanIfaceC1ENS_2spINS2_13IWifiNanIfaceEEE
_ZN7android8hardware4wifi4V1_014BsWifiNanIfaceC2ENS_2spINS2_13IWifiNanIfaceEEE
_ZN7android8hardware4wifi4V1_014BsWifiP2pIface13addOnewayTaskENSt3__18functionIFvvEEE
_ZN7android8hardware4wifi4V1_014BsWifiP2pIfaceC1ENS_2spINS2_13IWifiP2pIfaceEEE
_ZN7android8hardware4wifi4V1_014BsWifiP2pIfaceC2ENS_2spINS2_13IWifiP2pIfaceEEE
_ZN7android8hardware4wifi4V1_014BsWifiStaIface13addOnewayTaskENSt3__18functionIFvvEEE
_ZN7android8hardware4wifi4V1_014BsWifiStaIfaceC1ENS_2spINS2_13IWifiStaIfaceEEE
_ZN7android8hardware4wifi4V1_014BsWifiStaIfaceC2ENS_2spINS2_13IWifiStaIfaceEEE
_ZN7android8hardware4wifi4V1_015BnHwWifiApIface10onTransactEjRKNS0_6ParcelEPS4_jNSt3__18functionIFvRS4_EEE
_ZN7android8hardware4wifi4V1_015BnHwWifiApIface12getDebugInfoENSt3__18functionIFvRKNS_4hidl4base4V1_09DebugInfoEEEE
_ZN7android8hardware4wifi4V1_015BnHwWifiApIface20_hidl_setCountryCodeEPNS_4hidl4base4V1_08BnHwBaseERKNS0_6ParcelEPS9_NSt3__18functionIFvRS9_EEE
_ZN7android8hardware4wifi4V1_015BnHwWifiApIface32_hidl_getValidFrequenciesForBandEPNS_4hidl4base4V1_08BnHwBaseERKNS0_6ParcelEPS9_NSt3__18functionIFvRS9_EEE
_ZN7android8hardware4wifi4V1_015BnHwWifiApIface4pingEv
_ZN7android8hardware4wifi4V1_015BnHwWifiApIfaceC1ERKNS_2spINS2_12IWifiApIfaceEEE
_ZN7android8hardware4wifi4V1_015BnHwWifiApIfaceC2ERKNS_2spINS2_12IWifiApIfaceEEE
_ZN7android8hardware4wifi4V1_015BnHwWifiApIfaceD0Ev
_ZN7android8hardware4wifi4V1_015BnHwWifiApIfaceD1Ev
_ZN7android8hardware4wifi4V1_015BnHwWifiApIfaceD2Ev
_ZN7android8hardware4wifi4V1_015BpHwWifiApIface11linkToDeathERKNS_2spINS0_20hidl_death_recipientEEEm
_ZN7android8hardware4wifi4V1_015BpHwWifiApIface12getDebugInfoENSt3__18functionIFvRKNS_4hidl4base4V1_09DebugInfoEEEE
_ZN7android8hardware4wifi4V1_015BpHwWifiApIface12getHashChainENSt3__18functionIFvRKNS0_8hidl_vecINS0_10hidl_arrayIhLm32EJEEEEEEEE
_ZN7android8hardware4wifi4V1_015BpHwWifiApIface13unlinkToDeathERKNS_2spINS0_20hidl_death_recipientEEE
_ZN7android8hardware4wifi4V1_015BpHwWifiApIface14interfaceChainENSt3__18functionIFvRKNS0_8hidl_vecINS0_11hidl_stringEEEEEE
_ZN7android8hardware4wifi4V1_015BpHwWifiApIface14setCountryCodeERKNS0_10hidl_arrayIaLm2EJEEENSt3__18functionIFvRKNS2_10WifiStatusEEEE
_ZN7android8hardware4wifi4V1_015BpHwWifiApIface19interfaceDescriptorENSt3__18functionIFvRKNS0_11hidl_stringEEEE
_ZN7android8hardware4wifi4V1_015BpHwWifiApIface20_hidl_setCountryCodeEPNS0_10IInterfaceEPNS0_7details16HidlInstrumentorERKNS0_10hidl_arrayIaLm2EJEEENSt3__18functionIFvRKNS2_10WifiStatusEEEE
_ZN7android8hardware4wifi4V1_015BpHwWifiApIface21notifySyspropsChangedEv
_ZN7android8hardware4wifi4V1_015BpHwWifiApIface21setHALInstrumentationEv
_ZN7android8hardware4wifi4V1_015BpHwWifiApIface26getValidFrequenciesForBandENS2_8WifiBandENSt3__18functionIFvRKNS2_10WifiStatusERKNS0_8hidl_vecIjEEEEE
_ZN7android8hardware4wifi4V1_015BpHwWifiApIface32_hidl_getValidFrequenciesForBandEPNS0_10IInterfaceEPNS0_7details16HidlInstrumentorENS2_8WifiBandENSt3__18functionIFvRKNS2_10WifiStatusERKNS0_8hidl_vecIjEEEEE
_ZN7android8hardware4wifi4V1_015BpHwWifiApIface4pingEv
_ZN7android8hardware4wifi4V1_015BpHwWifiApIface5debugERKNS0_11hidl_handleERKNS0_8hidl_vecINS0_11hidl_stringEEE
_ZN7android8hardware4wifi4V1_015BpHwWifiApIface7getNameENSt3__18functionIFvRKNS2_10WifiStatusERKNS0_11hidl_stringEEEE
_ZN7android8hardware4wifi4V1_015BpHwWifiApIface7getTypeENSt3__18functionIFvRKNS2_10WifiStatusENS2_9IfaceTypeEEEE
_ZN7android8hardware4wifi4V1_015BpHwWifiApIfaceC1ERKNS_2spINS0_7IBinderEEE
_ZN7android8hardware4wifi4V1_015BpHwWifiApIfaceC2ERKNS_2spINS0_7IBinderEEE
_ZN7android8hardware4wifi4V1_016BnHwWifiNanIface10onTransactEjRKNS0_6ParcelEPS4_jNSt3__18functionIFvRS4_EEE
_ZN7android8hardware4wifi4V1_016BnHwWifiNanIface12getDebugInfoENSt3__18functionIFvRKNS_4hidl4base4V1_09DebugInfoEEEE
_ZN7android8hardware4wifi4V1_016BnHwWifiNanIface19_hidl_configRequestEPNS_4hidl4base4V1_08BnHwBaseERKNS0_6ParcelEPS9_NSt3__18functionIFvRS9_EEE
_ZN7android8hardware4wifi4V1_016BnHwWifiNanIface19_hidl_enableRequestEPNS_4hidl4base4V1_08BnHwBaseERKNS0_6ParcelEPS9_NSt3__18functionIFvRS9_EEE
_ZN7android8hardware4wifi4V1_016BnHwWifiNanIface20_hidl_disableRequestEPNS_4hidl4base4V1_08BnHwBaseERKNS0_6ParcelEPS9_NSt3__18functionIFvRS9_EEE
_ZN7android8hardware4wifi4V1_016BnHwWifiNanIface24_hidl_stopPublishRequestEPNS_4hidl4base4V1_08BnHwBaseERKNS0_6ParcelEPS9_NSt3__18functionIFvRS9_EEE
_ZN7android8hardware4wifi4V1_016BnHwWifiNanIface25_hidl_startPublishRequestEPNS_4hidl4base4V1_08BnHwBaseERKNS0_6ParcelEPS9_NSt3__18functionIFvRS9_EEE
_ZN7android8hardware4wifi4V1_016BnHwWifiNanIface26_hidl_stopSubscribeRequestEPNS_4hidl4base4V1_08BnHwBaseERKNS0_6ParcelEPS9_NSt3__18functionIFvRS9_EEE
_ZN7android8hardware4wifi4V1_016BnHwWifiNanIface27_hidl_registerEventCallbackEPNS_4hidl4base4V1_08BnHwBaseERKNS0_6ParcelEPS9_NSt3__18functionIFvRS9_EEE
_ZN7android8hardware4wifi4V1_016BnHwWifiNanIface27_hidl_startSubscribeRequestEPNS_4hidl4base4V1_08BnHwBaseERKNS0_6ParcelEPS9_NSt3__18functionIFvRS9_EEE
_ZN7android8hardware4wifi4V1_016BnHwWifiNanIface28_hidl_getCapabilitiesRequestEPNS_4hidl4base4V1_08BnHwBaseERKNS0_6ParcelEPS9_NSt3__18functionIFvRS9_EEE
_ZN7android8hardware4wifi4V1_016BnHwWifiNanIface29_hidl_initiateDataPathRequestEPNS_4hidl4base4V1_08BnHwBaseERKNS0_6ParcelEPS9_NSt3__18functionIFvRS9_EEE
_ZN7android8hardware4wifi4V1_016BnHwWifiNanIface29_hidl_transmitFollowupRequestEPNS_4hidl4base4V1_08BnHwBaseERKNS0_6ParcelEPS9_NSt3__18functionIFvRS9_EEE
_ZN7android8hardware4wifi4V1_016BnHwWifiNanIface30_hidl_terminateDataPathRequestEPNS_4hidl4base4V1_08BnHwBaseERKNS0_6ParcelEPS9_NSt3__18functionIFvRS9_EEE
_ZN7android8hardware4wifi4V1_016BnHwWifiNanIface32_hidl_createDataInterfaceRequestEPNS_4hidl4base4V1_08BnHwBaseERKNS0_6ParcelEPS9_NSt3__18functionIFvRS9_EEE
_ZN7android8hardware4wifi4V1_016BnHwWifiNanIface32_hidl_deleteDataInterfaceRequestEPNS_4hidl4base4V1_08BnHwBaseERKNS0_6ParcelEPS9_NSt3__18functionIFvRS9_EEE
_ZN7android8hardware4wifi4V1_016BnHwWifiNanIface40_hidl_respondToDataPathIndicationRequestEPNS_4hidl4base4V1_08BnHwBaseERKNS0_6ParcelEPS9_NSt3__18functionIFvRS9_EEE
_ZN7android8hardware4wifi4V1_016BnHwWifiNanIface4pingEv
_ZN7android8hardware4wifi4V1_016BnHwWifiNanIfaceC1ERKNS_2spINS2_13IWifiNanIfaceEEE
_ZN7android8hardware4wifi4V1_016BnHwWifiNanIfaceC2ERKNS_2spINS2_13IWifiNanIfaceEEE
_ZN7android8hardware4wifi4V1_016BnHwWifiNanIfaceD0Ev
_ZN7android8hardware4wifi4V1_016BnHwWifiNanIfaceD1Ev
_ZN7android8hardware4wifi4V1_016BnHwWifiNanIfaceD2Ev
_ZN7android8hardware4wifi4V1_016BnHwWifiP2pIface10onTransactEjRKNS0_6ParcelEPS4_jNSt3__18functionIFvRS4_EEE
_ZN7android8hardware4wifi4V1_016BnHwWifiP2pIface12getDebugInfoENSt3__18functionIFvRKNS_4hidl4base4V1_09DebugInfoEEEE
_ZN7android8hardware4wifi4V1_016BnHwWifiP2pIface4pingEv
_ZN7android8hardware4wifi4V1_016BnHwWifiP2pIfaceC1ERKNS_2spINS2_13IWifiP2pIfaceEEE
_ZN7android8hardware4wifi4V1_016BnHwWifiP2pIfaceC2ERKNS_2spINS2_13IWifiP2pIfaceEEE
_ZN7android8hardware4wifi4V1_016BnHwWifiP2pIfaceD0Ev
_ZN7android8hardware4wifi4V1_016BnHwWifiP2pIfaceD1Ev
_ZN7android8hardware4wifi4V1_016BnHwWifiP2pIfaceD2Ev
_ZN7android8hardware4wifi4V1_016BnHwWifiStaIface10onTransactEjRKNS0_6ParcelEPS4_jNSt3__18functionIFvRS4_EEE
_ZN7android8hardware4wifi4V1_016BnHwWifiStaIface12getDebugInfoENSt3__18functionIFvRKNS_4hidl4base4V1_09DebugInfoEEEE
_ZN7android8hardware4wifi4V1_016BnHwWifiStaIface21_hidl_enableNdOffloadEPNS_4hidl4base4V1_08BnHwBaseERKNS0_6ParcelEPS9_NSt3__18functionIFvRS9_EEE
_ZN7android8hardware4wifi4V1_016BnHwWifiStaIface21_hidl_getCapabilitiesEPNS_4hidl4base4V1_08BnHwBaseERKNS0_6ParcelEPS9_NSt3__18functionIFvRS9_EEE
_ZN7android8hardware4wifi4V1_016BnHwWifiStaIface21_hidl_setRoamingStateEPNS_4hidl4base4V1_08BnHwBaseERKNS0_6ParcelEPS9_NSt3__18functionIFvRS9_EEE
_ZN7android8hardware4wifi4V1_016BnHwWifiStaIface22_hidl_configureRoamingEPNS_4hidl4base4V1_08BnHwBaseERKNS0_6ParcelEPS9_NSt3__18functionIFvRS9_EEE
_ZN7android8hardware4wifi4V1_016BnHwWifiStaIface23_hidl_getLinkLayerStatsEPNS_4hidl4base4V1_08BnHwBaseERKNS0_6ParcelEPS9_NSt3__18functionIFvRS9_EEE
_ZN7android8hardware4wifi4V1_016BnHwWifiStaIface23_hidl_setScanningMacOuiEPNS_4hidl4base4V1_08BnHwBaseERKNS0_6ParcelEPS9_NSt3__18functionIFvRS9_EEE
_ZN7android8hardware4wifi4V1_016BnHwWifiStaIface24_hidl_stopBackgroundScanEPNS_4hidl4base4V1_08BnHwBaseERKNS0_6ParcelEPS9_NSt3__18functionIFvRS9_EEE
_ZN7android8hardware4wifi4V1_016BnHwWifiStaIface24_hidl_stopRssiMonitoringEPNS_4hidl4base4V1_08BnHwBaseERKNS0_6ParcelEPS9_NSt3__18functionIFvRS9_EEE
_ZN7android8hardware4wifi4V1_016BnHwWifiStaIface25_hidl_startBackgroundScanEPNS_4hidl4base4V1_08BnHwBaseERKNS0_6ParcelEPS9_NSt3__18functionIFvRS9_EEE
_ZN7android8hardware4wifi4V1_016BnHwWifiStaIface25_hidl_startRssiMonitoringEPNS_4hidl4base4V1_08BnHwBaseERKNS0_6ParcelEPS9_NSt3__18functionIFvRS9_EEE
_ZN7android8hardware4wifi4V1_016BnHwWifiStaIface27_hidl_getDebugRxPacketFatesEPNS_4hidl4base4V1_08BnHwBaseERKNS0_6ParcelEPS9_NSt3__18functionIFvRS9_EEE
_ZN7android8hardware4wifi4V1_016BnHwWifiStaIface27_hidl_getDebugTxPacketFatesEPNS_4hidl4base4V1_08BnHwBaseERKNS0_6ParcelEPS9_NSt3__18functionIFvRS9_EEE
_ZN7android8hardware4wifi4V1_016BnHwWifiStaIface27_hidl_registerEventCallbackEPNS_4hidl4base4V1_08BnHwBaseERKNS0_6ParcelEPS9_NSt3__18functionIFvRS9_EEE
_ZN7android8hardware4wifi4V1_016BnHwWifiStaIface28_hidl_getRoamingCapabilitiesEPNS_4hidl4base4V1_08BnHwBaseERKNS0_6ParcelEPS9_NSt3__18functionIFvRS9_EEE
_ZN7android8hardware4wifi4V1_016BnHwWifiStaIface28_hidl_installApfPacketFilterEPNS_4hidl4base4V1_08BnHwBaseERKNS0_6ParcelEPS9_NSt3__18functionIFvRS9_EEE
_ZN7android8hardware4wifi4V1_016BnHwWifiStaIface32_hidl_getValidFrequenciesForBandEPNS_4hidl4base4V1_08BnHwBaseERKNS0_6ParcelEPS9_NSt3__18functionIFvRS9_EEE
_ZN7android8hardware4wifi4V1_016BnHwWifiStaIface33_hidl_stopSendingKeepAlivePacketsEPNS_4hidl4base4V1_08BnHwBaseERKNS0_6ParcelEPS9_NSt3__18functionIFvRS9_EEE
_ZN7android8hardware4wifi4V1_016BnHwWifiStaIface34_hidl_startSendingKeepAlivePacketsEPNS_4hidl4base4V1_08BnHwBaseERKNS0_6ParcelEPS9_NSt3__18functionIFvRS9_EEE
_ZN7android8hardware4wifi4V1_016BnHwWifiStaIface35_hidl_getBackgroundScanCapabilitiesEPNS_4hidl4base4V1_08BnHwBaseERKNS0_6ParcelEPS9_NSt3__18functionIFvRS9_EEE
_ZN7android8hardware4wifi4V1_016BnHwWifiStaIface36_hidl_enableLinkLayerStatsCollectionEPNS_4hidl4base4V1_08BnHwBaseERKNS0_6ParcelEPS9_NSt3__18functionIFvRS9_EEE
_ZN7android8hardware4wifi4V1_016BnHwWifiStaIface36_hidl_getApfPacketFilterCapabilitiesEPNS_4hidl4base4V1_08BnHwBaseERKNS0_6ParcelEPS9_NSt3__18functionIFvRS9_EEE
_ZN7android8hardware4wifi4V1_016BnHwWifiStaIface36_hidl_startDebugPacketFateMonitoringEPNS_4hidl4base4V1_08BnHwBaseERKNS0_6ParcelEPS9_NSt3__18functionIFvRS9_EEE
_ZN7android8hardware4wifi4V1_016BnHwWifiStaIface37_hidl_disableLinkLayerStatsCollectionEPNS_4hidl4base4V1_08BnHwBaseERKNS0_6ParcelEPS9_NSt3__18functionIFvRS9_EEE
_ZN7android8hardware4wifi4V1_016BnHwWifiStaIface4pingEv
_ZN7android8hardware4wifi4V1_016BnHwWifiStaIfaceC1ERKNS_2spINS2_13IWifiStaIfaceEEE
_ZN7android8hardware4wifi4V1_016BnHwWifiStaIfaceC2ERKNS_2spINS2_13IWifiStaIfaceEEE
_ZN7android8hardware4wifi4V1_016BnHwWifiStaIfaceD0Ev
_ZN7android8hardware4wifi4V1_016BnHwWifiStaIfaceD1Ev
_ZN7android8hardware4wifi4V1_016BnHwWifiStaIfaceD2Ev
_ZN7android8hardware4wifi4V1_016BpHwWifiNanIface11linkToDeathERKNS_2spINS0_20hidl_death_recipientEEEm
_ZN7android8hardware4wifi4V1_016BpHwWifiNanIface12getDebugInfoENSt3__18functionIFvRKNS_4hidl4base4V1_09DebugInfoEEEE
_ZN7android8hardware4wifi4V1_016BpHwWifiNanIface12getHashChainENSt3__18functionIFvRKNS0_8hidl_vecINS0_10hidl_arrayIhLm32EJEEEEEEEE
_ZN7android8hardware4wifi4V1_016BpHwWifiNanIface13configRequestEtRKNS2_16NanConfigRequestENSt3__18functionIFvRKNS2_10WifiStatusEEEE
_ZN7android8hardware4wifi4V1_016BpHwWifiNanIface13enableRequestEtRKNS2_16NanEnableRequestENSt3__18functionIFvRKNS2_10WifiStatusEEEE
_ZN7android8hardware4wifi4V1_016BpHwWifiNanIface13unlinkToDeathERKNS_2spINS0_20hidl_death_recipientEEE
_ZN7android8hardware4wifi4V1_016BpHwWifiNanIface14disableRequestEtNSt3__18functionIFvRKNS2_10WifiStatusEEEE
_ZN7android8hardware4wifi4V1_016BpHwWifiNanIface14interfaceChainENSt3__18functionIFvRKNS0_8hidl_vecINS0_11hidl_stringEEEEEE
_ZN7android8hardware4wifi4V1_016BpHwWifiNanIface18stopPublishRequestEthNSt3__18functionIFvRKNS2_10WifiStatusEEEE
_ZN7android8hardware4wifi4V1_016BpHwWifiNanIface19_hidl_configRequestEPNS0_10IInterfaceEPNS0_7details16HidlInstrumentorEtRKNS2_16NanConfigRequestENSt3__18functionIFvRKNS2_10WifiStatusEEEE
_ZN7android8hardware4wifi4V1_016BpHwWifiNanIface19_hidl_enableRequestEPNS0_10IInterfaceEPNS0_7details16HidlInstrumentorEtRKNS2_16NanEnableRequestENSt3__18functionIFvRKNS2_10WifiStatusEEEE
_ZN7android8hardware4wifi4V1_016BpHwWifiNanIface19interfaceDescriptorENSt3__18functionIFvRKNS0_11hidl_stringEEEE
_ZN7android8hardware4wifi4V1_016BpHwWifiNanIface19startPublishRequestEtRKNS2_17NanPublishRequestENSt3__18functionIFvRKNS2_10WifiStatusEEEE
_ZN7android8hardware4wifi4V1_016BpHwWifiNanIface20_hidl_disableRequestEPNS0_10IInterfaceEPNS0_7details16HidlInstrumentorEtNSt3__18functionIFvRKNS2_10WifiStatusEEEE
_ZN7android8hardware4wifi4V1_016BpHwWifiNanIface20stopSubscribeRequestEthNSt3__18functionIFvRKNS2_10WifiStatusEEEE
_ZN7android8hardware4wifi4V1_016BpHwWifiNanIface21notifySyspropsChangedEv
_ZN7android8hardware4wifi4V1_016BpHwWifiNanIface21registerEventCallbackERKNS_2spINS2_26IWifiNanIfaceEventCallbackEEENSt3__18functionIFvRKNS2_10WifiStatusEEEE
_ZN7android8hardware4wifi4V1_016BpHwWifiNanIface21setHALInstrumentationEv
_ZN7android8hardware4wifi4V1_016BpHwWifiNanIface21startSubscribeRequestEtRKNS2_19NanSubscribeRequestENSt3__18functionIFvRKNS2_10WifiStatusEEEE
_ZN7android8hardware4wifi4V1_016BpHwWifiNanIface22getCapabilitiesRequestEtNSt3__18functionIFvRKNS2_10WifiStatusEEEE
_ZN7android8hardware4wifi4V1_016BpHwWifiNanIface23initiateDataPathRequestEtRKNS2_26NanInitiateDataPathRequestENSt3__18functionIFvRKNS2_10WifiStatusEEEE
_ZN7android8hardware4wifi4V1_016BpHwWifiNanIface23transmitFollowupRequestEtRKNS2_26NanTransmitFollowupRequestENSt3__18functionIFvRKNS2_10WifiStatusEEEE
_ZN7android8hardware4wifi4V1_016BpHwWifiNanIface24_hidl_stopPublishRequestEPNS0_10IInterfaceEPNS0_7details16HidlInstrumentorEthNSt3__18functionIFvRKNS2_10WifiStatusEEEE
_ZN7android8hardware4wifi4V1_016BpHwWifiNanIface24terminateDataPathRequestEtjNSt3__18functionIFvRKNS2_10WifiStatusEEEE
_ZN7android8hardware4wifi4V1_016BpHwWifiNanIface25_hidl_startPublishRequestEPNS0_10IInterfaceEPNS0_7details16HidlInstrumentorEtRKNS2_17NanPublishRequestENSt3__18functionIFvRKNS2_10WifiStatusEEEE
_ZN7android8hardware4wifi4V1_016BpHwWifiNanIface26_hidl_stopSubscribeRequestEPNS0_10IInterfaceEPNS0_7details16HidlInstrumentorEthNSt3__18functionIFvRKNS2_10WifiStatusEEEE
_ZN7android8hardware4wifi4V1_016BpHwWifiNanIface26createDataInterfaceRequestEtRKNS0_11hidl_stringENSt3__18functionIFvRKNS2_10WifiStatusEEEE
_ZN7android8hardware4wifi4V1_016BpHwWifiNanIface26deleteDataInterfaceRequestEtRKNS0_11hidl_stringENSt3__18functionIFvRKNS2_10WifiStatusEEEE
_ZN7android8hardware4wifi4V1_016BpHwWifiNanIface27_hidl_registerEventCallbackEPNS0_10IInterfaceEPNS0_7details16HidlInstrumentorERKNS_2spINS2_26IWifiNanIfaceEventCallbackEEENSt3__18functionIFvRKNS2_10WifiStatusEEEE
_ZN7android8hardware4wifi4V1_016BpHwWifiNanIface27_hidl_startSubscribeRequestEPNS0_10IInterfaceEPNS0_7details16HidlInstrumentorEtRKNS2_19NanSubscribeRequestENSt3__18functionIFvRKNS2_10WifiStatusEEEE
_ZN7android8hardware4wifi4V1_016BpHwWifiNanIface28_hidl_getCapabilitiesRequestEPNS0_10IInterfaceEPNS0_7details16HidlInstrumentorEtNSt3__18functionIFvRKNS2_10WifiStatusEEEE
_ZN7android8hardware4wifi4V1_016BpHwWifiNanIface29_hidl_initiateDataPathRequestEPNS0_10IInterfaceEPNS0_7details16HidlInstrumentorEtRKNS2_26NanInitiateDataPathRequestENSt3__18functionIFvRKNS2_10WifiStatusEEEE
_ZN7android8hardware4wifi4V1_016BpHwWifiNanIface29_hidl_transmitFollowupRequestEPNS0_10IInterfaceEPNS0_7details16HidlInstrumentorEtRKNS2_26NanTransmitFollowupRequestENSt3__18functionIFvRKNS2_10WifiStatusEEEE
_ZN7android8hardware4wifi4V1_016BpHwWifiNanIface30_hidl_terminateDataPathRequestEPNS0_10IInterfaceEPNS0_7details16HidlInstrumentorEtjNSt3__18functionIFvRKNS2_10WifiStatusEEEE
_ZN7android8hardware4wifi4V1_016BpHwWifiNanIface32_hidl_createDataInterfaceRequestEPNS0_10IInterfaceEPNS0_7details16HidlInstrumentorEtRKNS0_11hidl_stringENSt3__18functionIFvRKNS2_10WifiStatusEEEE
_ZN7android8hardware4wifi4V1_016BpHwWifiNanIface32_hidl_deleteDataInterfaceRequestEPNS0_10IInterfaceEPNS0_7details16HidlInstrumentorEtRKNS0_11hidl_stringENSt3__18functionIFvRKNS2_10WifiStatusEEEE
_ZN7android8hardware4wifi4V1_016BpHwWifiNanIface34respondToDataPathIndicationRequestEtRKNS2_37NanRespondToDataPathIndicationRequestENSt3__18functionIFvRKNS2_10WifiStatusEEEE
_ZN7android8hardware4wifi4V1_016BpHwWifiNanIface40_hidl_respondToDataPathIndicationRequestEPNS0_10IInterfaceEPNS0_7details16HidlInstrumentorEtRKNS2_37NanRespondToDataPathIndicationRequestENSt3__18functionIFvRKNS2_10WifiStatusEEEE
_ZN7android8hardware4wifi4V1_016BpHwWifiNanIface4pingEv
_ZN7android8hardware4wifi4V1_016BpHwWifiNanIface5debugERKNS0_11hidl_handleERKNS0_8hidl_vecINS0_11hidl_stringEEE
_ZN7android8hardware4wifi4V1_016BpHwWifiNanIface7getNameENSt3__18functionIFvRKNS2_10WifiStatusERKNS0_11hidl_stringEEEE
_ZN7android8hardware4wifi4V1_016BpHwWifiNanIface7getTypeENSt3__18functionIFvRKNS2_10WifiStatusENS2_9IfaceTypeEEEE
_ZN7android8hardware4wifi4V1_016BpHwWifiNanIfaceC1ERKNS_2spINS0_7IBinderEEE
_ZN7android8hardware4wifi4V1_016BpHwWifiNanIfaceC2ERKNS_2spINS0_7IBinderEEE
_ZN7android8hardware4wifi4V1_016BpHwWifiP2pIface11linkToDeathERKNS_2spINS0_20hidl_death_recipientEEEm
_ZN7android8hardware4wifi4V1_016BpHwWifiP2pIface12getDebugInfoENSt3__18functionIFvRKNS_4hidl4base4V1_09DebugInfoEEEE
_ZN7android8hardware4wifi4V1_016BpHwWifiP2pIface12getHashChainENSt3__18functionIFvRKNS0_8hidl_vecINS0_10hidl_arrayIhLm32EJEEEEEEEE
_ZN7android8hardware4wifi4V1_016BpHwWifiP2pIface13unlinkToDeathERKNS_2spINS0_20hidl_death_recipientEEE
_ZN7android8hardware4wifi4V1_016BpHwWifiP2pIface14interfaceChainENSt3__18functionIFvRKNS0_8hidl_vecINS0_11hidl_stringEEEEEE
_ZN7android8hardware4wifi4V1_016BpHwWifiP2pIface19interfaceDescriptorENSt3__18functionIFvRKNS0_11hidl_stringEEEE
_ZN7android8hardware4wifi4V1_016BpHwWifiP2pIface21notifySyspropsChangedEv
_ZN7android8hardware4wifi4V1_016BpHwWifiP2pIface21setHALInstrumentationEv
_ZN7android8hardware4wifi4V1_016BpHwWifiP2pIface4pingEv
_ZN7android8hardware4wifi4V1_016BpHwWifiP2pIface5debugERKNS0_11hidl_handleERKNS0_8hidl_vecINS0_11hidl_stringEEE
_ZN7android8hardware4wifi4V1_016BpHwWifiP2pIface7getNameENSt3__18functionIFvRKNS2_10WifiStatusERKNS0_11hidl_stringEEEE
_ZN7android8hardware4wifi4V1_016BpHwWifiP2pIface7getTypeENSt3__18functionIFvRKNS2_10WifiStatusENS2_9IfaceTypeEEEE
_ZN7android8hardware4wifi4V1_016BpHwWifiP2pIfaceC1ERKNS_2spINS0_7IBinderEEE
_ZN7android8hardware4wifi4V1_016BpHwWifiP2pIfaceC2ERKNS_2spINS0_7IBinderEEE
_ZN7android8hardware4wifi4V1_016BpHwWifiStaIface11linkToDeathERKNS_2spINS0_20hidl_death_recipientEEEm
_ZN7android8hardware4wifi4V1_016BpHwWifiStaIface12getDebugInfoENSt3__18functionIFvRKNS_4hidl4base4V1_09DebugInfoEEEE
_ZN7android8hardware4wifi4V1_016BpHwWifiStaIface12getHashChainENSt3__18functionIFvRKNS0_8hidl_vecINS0_10hidl_arrayIhLm32EJEEEEEEEE
_ZN7android8hardware4wifi4V1_016BpHwWifiStaIface13unlinkToDeathERKNS_2spINS0_20hidl_death_recipientEEE
_ZN7android8hardware4wifi4V1_016BpHwWifiStaIface14interfaceChainENSt3__18functionIFvRKNS0_8hidl_vecINS0_11hidl_stringEEEEEE
_ZN7android8hardware4wifi4V1_016BpHwWifiStaIface15enableNdOffloadEbNSt3__18functionIFvRKNS2_10WifiStatusEEEE
_ZN7android8hardware4wifi4V1_016BpHwWifiStaIface15getCapabilitiesENSt3__18functionIFvRKNS2_10WifiStatusEjEEE
_ZN7android8hardware4wifi4V1_016BpHwWifiStaIface15setRoamingStateENS2_15StaRoamingStateENSt3__18functionIFvRKNS2_10WifiStatusEEEE
_ZN7android8hardware4wifi4V1_016BpHwWifiStaIface16configureRoamingERKNS2_16StaRoamingConfigENSt3__18functionIFvRKNS2_10WifiStatusEEEE
_ZN7android8hardware4wifi4V1_016BpHwWifiStaIface17getLinkLayerStatsENSt3__18functionIFvRKNS2_10WifiStatusERKNS2_17StaLinkLayerStatsEEEE
_ZN7android8hardware4wifi4V1_016BpHwWifiStaIface17setScanningMacOuiERKNS0_10hidl_arrayIhLm3EJEEENSt3__18functionIFvRKNS2_10WifiStatusEEEE
_ZN7android8hardware4wifi4V1_016BpHwWifiStaIface18stopBackgroundScanEjNSt3__18functionIFvRKNS2_10WifiStatusEEEE
_ZN7android8hardware4wifi4V1_016BpHwWifiStaIface18stopRssiMonitoringEjNSt3__18functionIFvRKNS2_10WifiStatusEEEE
_ZN7android8hardware4wifi4V1_016BpHwWifiStaIface19interfaceDescriptorENSt3__18functionIFvRKNS0_11hidl_stringEEEE
_ZN7android8hardware4wifi4V1_016BpHwWifiStaIface19startBackgroundScanEjRKNS2_27StaBackgroundScanParametersENSt3__18functionIFvRKNS2_10WifiStatusEEEE
_ZN7android8hardware4wifi4V1_016BpHwWifiStaIface19startRssiMonitoringEjiiNSt3__18functionIFvRKNS2_10WifiStatusEEEE
_ZN7android8hardware4wifi4V1_016BpHwWifiStaIface21_hidl_enableNdOffloadEPNS0_10IInterfaceEPNS0_7details16HidlInstrumentorEbNSt3__18functionIFvRKNS2_10WifiStatusEEEE
_ZN7android8hardware4wifi4V1_016BpHwWifiStaIface21_hidl_getCapabilitiesEPNS0_10IInterfaceEPNS0_7details16HidlInstrumentorENSt3__18functionIFvRKNS2_10WifiStatusEjEEE
_ZN7android8hardware4wifi4V1_016BpHwWifiStaIface21_hidl_setRoamingStateEPNS0_10IInterfaceEPNS0_7details16HidlInstrumentorENS2_15StaRoamingStateENSt3__18functionIFvRKNS2_10WifiStatusEEEE
_ZN7android8hardware4wifi4V1_016BpHwWifiStaIface21getDebugRxPacketFatesENSt3__18functionIFvRKNS2_10WifiStatusERKNS0_8hidl_vecINS2_27WifiDebugRxPacketFateReportEEEEEE
_ZN7android8hardware4wifi4V1_016BpHwWifiStaIface21getDebugTxPacketFatesENSt3__18functionIFvRKNS2_10WifiStatusERKNS0_8hidl_vecINS2_27WifiDebugTxPacketFateReportEEEEEE
_ZN7android8hardware4wifi4V1_016BpHwWifiStaIface21notifySyspropsChangedEv
_ZN7android8hardware4wifi4V1_016BpHwWifiStaIface21registerEventCallbackERKNS_2spINS2_26IWifiStaIfaceEventCallbackEEENSt3__18functionIFvRKNS2_10WifiStatusEEEE
_ZN7android8hardware4wifi4V1_016BpHwWifiStaIface21setHALInstrumentationEv
_ZN7android8hardware4wifi4V1_016BpHwWifiStaIface22_hidl_configureRoamingEPNS0_10IInterfaceEPNS0_7details16HidlInstrumentorERKNS2_16StaRoamingConfigENSt3__18functionIFvRKNS2_10WifiStatusEEEE
_ZN7android8hardware4wifi4V1_016BpHwWifiStaIface22getRoamingCapabilitiesENSt3__18functionIFvRKNS2_10WifiStatusERKNS2_22StaRoamingCapabilitiesEEEE
_ZN7android8hardware4wifi4V1_016BpHwWifiStaIface22installApfPacketFilterEjRKNS0_8hidl_vecIhEENSt3__18functionIFvRKNS2_10WifiStatusEEEE
_ZN7android8hardware4wifi4V1_016BpHwWifiStaIface23_hidl_getLinkLayerStatsEPNS0_10IInterfaceEPNS0_7details16HidlInstrumentorENSt3__18functionIFvRKNS2_10WifiStatusERKNS2_17StaLinkLayerStatsEEEE
_ZN7android8hardware4wifi4V1_016BpHwWifiStaIface23_hidl_setScanningMacOuiEPNS0_10IInterfaceEPNS0_7details16HidlInstrumentorERKNS0_10hidl_arrayIhLm3EJEEENSt3__18functionIFvRKNS2_10WifiStatusEEEE
_ZN7android8hardware4wifi4V1_016BpHwWifiStaIface24_hidl_stopBackgroundScanEPNS0_10IInterfaceEPNS0_7details16HidlInstrumentorEjNSt3__18functionIFvRKNS2_10WifiStatusEEEE
_ZN7android8hardware4wifi4V1_016BpHwWifiStaIface24_hidl_stopRssiMonitoringEPNS0_10IInterfaceEPNS0_7details16HidlInstrumentorEjNSt3__18functionIFvRKNS2_10WifiStatusEEEE
_ZN7android8hardware4wifi4V1_016BpHwWifiStaIface25_hidl_startBackgroundScanEPNS0_10IInterfaceEPNS0_7details16HidlInstrumentorEjRKNS2_27StaBackgroundScanParametersENSt3__18functionIFvRKNS2_10WifiStatusEEEE
_ZN7android8hardware4wifi4V1_016BpHwWifiStaIface25_hidl_startRssiMonitoringEPNS0_10IInterfaceEPNS0_7details16HidlInstrumentorEjiiNSt3__18functionIFvRKNS2_10WifiStatusEEEE
_ZN7android8hardware4wifi4V1_016BpHwWifiStaIface26getValidFrequenciesForBandENS2_8WifiBandENSt3__18functionIFvRKNS2_10WifiStatusERKNS0_8hidl_vecIjEEEEE
_ZN7android8hardware4wifi4V1_016BpHwWifiStaIface27_hidl_getDebugRxPacketFatesEPNS0_10IInterfaceEPNS0_7details16HidlInstrumentorENSt3__18functionIFvRKNS2_10WifiStatusERKNS0_8hidl_vecINS2_27WifiDebugRxPacketFateReportEEEEEE
_ZN7android8hardware4wifi4V1_016BpHwWifiStaIface27_hidl_getDebugTxPacketFatesEPNS0_10IInterfaceEPNS0_7details16HidlInstrumentorENSt3__18functionIFvRKNS2_10WifiStatusERKNS0_8hidl_vecINS2_27WifiDebugTxPacketFateReportEEEEEE
_ZN7android8hardware4wifi4V1_016BpHwWifiStaIface27_hidl_registerEventCallbackEPNS0_10IInterfaceEPNS0_7details16HidlInstrumentorERKNS_2spINS2_26IWifiStaIfaceEventCallbackEEENSt3__18functionIFvRKNS2_10WifiStatusEEEE
_ZN7android8hardware4wifi4V1_016BpHwWifiStaIface27stopSendingKeepAlivePacketsEjNSt3__18functionIFvRKNS2_10WifiStatusEEEE
_ZN7android8hardware4wifi4V1_016BpHwWifiStaIface28_hidl_getRoamingCapabilitiesEPNS0_10IInterfaceEPNS0_7details16HidlInstrumentorENSt3__18functionIFvRKNS2_10WifiStatusERKNS2_22StaRoamingCapabilitiesEEEE
_ZN7android8hardware4wifi4V1_016BpHwWifiStaIface28_hidl_installApfPacketFilterEPNS0_10IInterfaceEPNS0_7details16HidlInstrumentorEjRKNS0_8hidl_vecIhEENSt3__18functionIFvRKNS2_10WifiStatusEEEE
_ZN7android8hardware4wifi4V1_016BpHwWifiStaIface28startSendingKeepAlivePacketsEjRKNS0_8hidl_vecIhEEtRKNS0_10hidl_arrayIhLm6EJEEESB_jNSt3__18functionIFvRKNS2_10WifiStatusEEEE
_ZN7android8hardware4wifi4V1_016BpHwWifiStaIface29getBackgroundScanCapabilitiesENSt3__18functionIFvRKNS2_10WifiStatusERKNS2_29StaBackgroundScanCapabilitiesEEEE
_ZN7android8hardware4wifi4V1_016BpHwWifiStaIface30enableLinkLayerStatsCollectionEbNSt3__18functionIFvRKNS2_10WifiStatusEEEE
_ZN7android8hardware4wifi4V1_016BpHwWifiStaIface30getApfPacketFilterCapabilitiesENSt3__18functionIFvRKNS2_10WifiStatusERKNS2_30StaApfPacketFilterCapabilitiesEEEE
_ZN7android8hardware4wifi4V1_016BpHwWifiStaIface30startDebugPacketFateMonitoringENSt3__18functionIFvRKNS2_10WifiStatusEEEE
_ZN7android8hardware4wifi4V1_016BpHwWifiStaIface31disableLinkLayerStatsCollectionENSt3__18functionIFvRKNS2_10WifiStatusEEEE
_ZN7android8hardware4wifi4V1_016BpHwWifiStaIface32_hidl_getValidFrequenciesForBandEPNS0_10IInterfaceEPNS0_7details16HidlInstrumentorENS2_8WifiBandENSt3__18functionIFvRKNS2_10WifiStatusERKNS0_8hidl_vecIjEEEEE
_ZN7android8hardware4wifi4V1_016BpHwWifiStaIface33_hidl_stopSendingKeepAlivePacketsEPNS0_10IInterfaceEPNS0_7details16HidlInstrumentorEjNSt3__18functionIFvRKNS2_10WifiStatusEEEE
_ZN7android8hardware4wifi4V1_016BpHwWifiStaIface34_hidl_startSendingKeepAlivePacketsEPNS0_10IInterfaceEPNS0_7details16HidlInstrumentorEjRKNS0_8hidl_vecIhEEtRKNS0_10hidl_arrayIhLm6EJEEESG_jNSt3__18functionIFvRKNS2_10WifiStatusEEEE
_ZN7android8hardware4wifi4V1_016BpHwWifiStaIface35_hidl_getBackgroundScanCapabilitiesEPNS0_10IInterfaceEPNS0_7details16HidlInstrumentorENSt3__18functionIFvRKNS2_10WifiStatusERKNS2_29StaBackgroundScanCapabilitiesEEEE
_ZN7android8hardware4wifi4V1_016BpHwWifiStaIface36_hidl_enableLinkLayerStatsCollectionEPNS0_10IInterfaceEPNS0_7details16HidlInstrumentorEbNSt3__18functionIFvRKNS2_10WifiStatusEEEE
_ZN7android8hardware4wifi4V1_016BpHwWifiStaIface36_hidl_getApfPacketFilterCapabilitiesEPNS0_10IInterfaceEPNS0_7details16HidlInstrumentorENSt3__18functionIFvRKNS2_10WifiStatusERKNS2_30StaApfPacketFilterCapabilitiesEEEE
_ZN7android8hardware4wifi4V1_016BpHwWifiStaIface36_hidl_startDebugPacketFateMonitoringEPNS0_10IInterfaceEPNS0_7details16HidlInstrumentorENSt3__18functionIFvRKNS2_10WifiStatusEEEE
_ZN7android8hardware4wifi4V1_016BpHwWifiStaIface37_hidl_disableLinkLayerStatsCollectionEPNS0_10IInterfaceEPNS0_7details16HidlInstrumentorENSt3__18functionIFvRKNS2_10WifiStatusEEEE
_ZN7android8hardware4wifi4V1_016BpHwWifiStaIface4pingEv
_ZN7android8hardware4wifi4V1_016BpHwWifiStaIface5debugERKNS0_11hidl_handleERKNS0_8hidl_vecINS0_11hidl_stringEEE
_ZN7android8hardware4wifi4V1_016BpHwWifiStaIface7getNameENSt3__18functionIFvRKNS2_10WifiStatusERKNS0_11hidl_stringEEEE
_ZN7android8hardware4wifi4V1_016BpHwWifiStaIface7getTypeENSt3__18functionIFvRKNS2_10WifiStatusENS2_9IfaceTypeEEEE
_ZN7android8hardware4wifi4V1_016BpHwWifiStaIfaceC1ERKNS_2spINS0_7IBinderEEE
_ZN7android8hardware4wifi4V1_016BpHwWifiStaIfaceC2ERKNS_2spINS0_7IBinderEEE
_ZN7android8hardware4wifi4V1_018IWifiEventCallback10descriptorE
_ZN7android8hardware4wifi4V1_018IWifiEventCallback10getServiceERKNSt3__112basic_stringIcNS4_11char_traitsIcEENS4_9allocatorIcEEEEb
_ZN7android8hardware4wifi4V1_018IWifiEventCallback11linkToDeathERKNS_2spINS0_20hidl_death_recipientEEEm
_ZN7android8hardware4wifi4V1_018IWifiEventCallback12getDebugInfoENSt3__18functionIFvRKNS_4hidl4base4V1_09DebugInfoEEEE
_ZN7android8hardware4wifi4V1_018IWifiEventCallback12getHashChainENSt3__18functionIFvRKNS0_8hidl_vecINS0_10hidl_arrayIhLm32EJEEEEEEEE
_ZN7android8hardware4wifi4V1_018IWifiEventCallback13tryGetServiceERKNSt3__112basic_stringIcNS4_11char_traitsIcEENS4_9allocatorIcEEEEb
_ZN7android8hardware4wifi4V1_018IWifiEventCallback13unlinkToDeathERKNS_2spINS0_20hidl_death_recipientEEE
_ZN7android8hardware4wifi4V1_018IWifiEventCallback14interfaceChainENSt3__18functionIFvRKNS0_8hidl_vecINS0_11hidl_stringEEEEEE
_ZN7android8hardware4wifi4V1_018IWifiEventCallback17registerAsServiceERKNSt3__112basic_stringIcNS4_11char_traitsIcEENS4_9allocatorIcEEEE
_ZN7android8hardware4wifi4V1_018IWifiEventCallback19interfaceDescriptorENSt3__18functionIFvRKNS0_11hidl_stringEEEE
_ZN7android8hardware4wifi4V1_018IWifiEventCallback21notifySyspropsChangedEv
_ZN7android8hardware4wifi4V1_018IWifiEventCallback21setHALInstrumentationEv
_ZN7android8hardware4wifi4V1_018IWifiEventCallback24registerForNotificationsERKNSt3__112basic_stringIcNS4_11char_traitsIcEENS4_9allocatorIcEEEERKNS_2spINS_4hidl7manager4V1_020IServiceNotificationEEE
_ZN7android8hardware4wifi4V1_018IWifiEventCallback4pingEv
_ZN7android8hardware4wifi4V1_018IWifiEventCallback5debugERKNS0_11hidl_handleERKNS0_8hidl_vecINS0_11hidl_stringEEE
_ZN7android8hardware4wifi4V1_018IWifiEventCallback8castFromERKNS_2spINS_4hidl4base4V1_05IBaseEEEb
_ZN7android8hardware4wifi4V1_018IWifiEventCallback8castFromERKNS_2spIS3_EEb
_ZN7android8hardware4wifi4V1_018IWifiRttController10descriptorE
_ZN7android8hardware4wifi4V1_018IWifiRttController10getServiceERKNSt3__112basic_stringIcNS4_11char_traitsIcEENS4_9allocatorIcEEEEb
_ZN7android8hardware4wifi4V1_018IWifiRttController11linkToDeathERKNS_2spINS0_20hidl_death_recipientEEEm
_ZN7android8hardware4wifi4V1_018IWifiRttController12getDebugInfoENSt3__18functionIFvRKNS_4hidl4base4V1_09DebugInfoEEEE
_ZN7android8hardware4wifi4V1_018IWifiRttController12getHashChainENSt3__18functionIFvRKNS0_8hidl_vecINS0_10hidl_arrayIhLm32EJEEEEEEEE
_ZN7android8hardware4wifi4V1_018IWifiRttController13tryGetServiceERKNSt3__112basic_stringIcNS4_11char_traitsIcEENS4_9allocatorIcEEEEb
_ZN7android8hardware4wifi4V1_018IWifiRttController13unlinkToDeathERKNS_2spINS0_20hidl_death_recipientEEE
_ZN7android8hardware4wifi4V1_018IWifiRttController14interfaceChainENSt3__18functionIFvRKNS0_8hidl_vecINS0_11hidl_stringEEEEEE
_ZN7android8hardware4wifi4V1_018IWifiRttController17registerAsServiceERKNSt3__112basic_stringIcNS4_11char_traitsIcEENS4_9allocatorIcEEEE
_ZN7android8hardware4wifi4V1_018IWifiRttController19interfaceDescriptorENSt3__18functionIFvRKNS0_11hidl_stringEEEE
_ZN7android8hardware4wifi4V1_018IWifiRttController21notifySyspropsChangedEv
_ZN7android8hardware4wifi4V1_018IWifiRttController21setHALInstrumentationEv
_ZN7android8hardware4wifi4V1_018IWifiRttController24registerForNotificationsERKNSt3__112basic_stringIcNS4_11char_traitsIcEENS4_9allocatorIcEEEERKNS_2spINS_4hidl7manager4V1_020IServiceNotificationEEE
_ZN7android8hardware4wifi4V1_018IWifiRttController4pingEv
_ZN7android8hardware4wifi4V1_018IWifiRttController5debugERKNS0_11hidl_handleERKNS0_8hidl_vecINS0_11hidl_stringEEE
_ZN7android8hardware4wifi4V1_018IWifiRttController8castFromERKNS_2spINS_4hidl4base4V1_05IBaseEEEb
_ZN7android8hardware4wifi4V1_018IWifiRttController8castFromERKNS_2spIS3_EEb
_ZN7android8hardware4wifi4V1_019BsWifiEventCallback13addOnewayTaskENSt3__18functionIFvvEEE
_ZN7android8hardware4wifi4V1_019BsWifiEventCallbackC1ENS_2spINS2_18IWifiEventCallbackEEE
_ZN7android8hardware4wifi4V1_019BsWifiEventCallbackC2ENS_2spINS2_18IWifiEventCallbackEEE
_ZN7android8hardware4wifi4V1_019BsWifiRttController13addOnewayTaskENSt3__18functionIFvvEEE
_ZN7android8hardware4wifi4V1_019BsWifiRttControllerC1ENS_2spINS2_18IWifiRttControllerEEE
_ZN7android8hardware4wifi4V1_019BsWifiRttControllerC2ENS_2spINS2_18IWifiRttControllerEEE
_ZN7android8hardware4wifi4V1_021BnHwWifiEventCallback10onTransactEjRKNS0_6ParcelEPS4_jNSt3__18functionIFvRS4_EEE
_ZN7android8hardware4wifi4V1_021BnHwWifiEventCallback12_hidl_onStopEPNS_4hidl4base4V1_08BnHwBaseERKNS0_6ParcelEPS9_NSt3__18functionIFvRS9_EEE
_ZN7android8hardware4wifi4V1_021BnHwWifiEventCallback12getDebugInfoENSt3__18functionIFvRKNS_4hidl4base4V1_09DebugInfoEEEE
_ZN7android8hardware4wifi4V1_021BnHwWifiEventCallback13_hidl_onStartEPNS_4hidl4base4V1_08BnHwBaseERKNS0_6ParcelEPS9_NSt3__18functionIFvRS9_EEE
_ZN7android8hardware4wifi4V1_021BnHwWifiEventCallback15_hidl_onFailureEPNS_4hidl4base4V1_08BnHwBaseERKNS0_6ParcelEPS9_NSt3__18functionIFvRS9_EEE
_ZN7android8hardware4wifi4V1_021BnHwWifiEventCallback4pingEv
_ZN7android8hardware4wifi4V1_021BnHwWifiEventCallbackC1ERKNS_2spINS2_18IWifiEventCallbackEEE
_ZN7android8hardware4wifi4V1_021BnHwWifiEventCallbackC2ERKNS_2spINS2_18IWifiEventCallbackEEE
_ZN7android8hardware4wifi4V1_021BnHwWifiEventCallbackD0Ev
_ZN7android8hardware4wifi4V1_021BnHwWifiEventCallbackD1Ev
_ZN7android8hardware4wifi4V1_021BnHwWifiEventCallbackD2Ev
_ZN7android8hardware4wifi4V1_021BnHwWifiRttController10onTransactEjRKNS0_6ParcelEPS4_jNSt3__18functionIFvRS4_EEE
_ZN7android8hardware4wifi4V1_021BnHwWifiRttController12_hidl_setLciEPNS_4hidl4base4V1_08BnHwBaseERKNS0_6ParcelEPS9_NSt3__18functionIFvRS9_EEE
_ZN7android8hardware4wifi4V1_021BnHwWifiRttController12_hidl_setLcrEPNS_4hidl4base4V1_08BnHwBaseERKNS0_6ParcelEPS9_NSt3__18functionIFvRS9_EEE
_ZN7android8hardware4wifi4V1_021BnHwWifiRttController12getDebugInfoENSt3__18functionIFvRKNS_4hidl4base4V1_09DebugInfoEEEE
_ZN7android8hardware4wifi4V1_021BnHwWifiRttController17_hidl_rangeCancelEPNS_4hidl4base4V1_08BnHwBaseERKNS0_6ParcelEPS9_NSt3__18functionIFvRS9_EEE
_ZN7android8hardware4wifi4V1_021BnHwWifiRttController18_hidl_rangeRequestEPNS_4hidl4base4V1_08BnHwBaseERKNS0_6ParcelEPS9_NSt3__18functionIFvRS9_EEE
_ZN7android8hardware4wifi4V1_021BnHwWifiRttController19_hidl_getBoundIfaceEPNS_4hidl4base4V1_08BnHwBaseERKNS0_6ParcelEPS9_NSt3__18functionIFvRS9_EEE
_ZN7android8hardware4wifi4V1_021BnHwWifiRttController21_hidl_enableResponderEPNS_4hidl4base4V1_08BnHwBaseERKNS0_6ParcelEPS9_NSt3__18functionIFvRS9_EEE
_ZN7android8hardware4wifi4V1_021BnHwWifiRttController21_hidl_getCapabilitiesEPNS_4hidl4base4V1_08BnHwBaseERKNS0_6ParcelEPS9_NSt3__18functionIFvRS9_EEE
_ZN7android8hardware4wifi4V1_021BnHwWifiRttController22_hidl_disableResponderEPNS_4hidl4base4V1_08BnHwBaseERKNS0_6ParcelEPS9_NSt3__18functionIFvRS9_EEE
_ZN7android8hardware4wifi4V1_021BnHwWifiRttController22_hidl_getResponderInfoEPNS_4hidl4base4V1_08BnHwBaseERKNS0_6ParcelEPS9_NSt3__18functionIFvRS9_EEE
_ZN7android8hardware4wifi4V1_021BnHwWifiRttController27_hidl_registerEventCallbackEPNS_4hidl4base4V1_08BnHwBaseERKNS0_6ParcelEPS9_NSt3__18functionIFvRS9_EEE
_ZN7android8hardware4wifi4V1_021BnHwWifiRttController4pingEv
_ZN7android8hardware4wifi4V1_021BnHwWifiRttControllerC1ERKNS_2spINS2_18IWifiRttControllerEEE
_ZN7android8hardware4wifi4V1_021BnHwWifiRttControllerC2ERKNS_2spINS2_18IWifiRttControllerEEE
_ZN7android8hardware4wifi4V1_021BnHwWifiRttControllerD0Ev
_ZN7android8hardware4wifi4V1_021BnHwWifiRttControllerD1Ev
_ZN7android8hardware4wifi4V1_021BnHwWifiRttControllerD2Ev
_ZN7android8hardware4wifi4V1_021BpHwWifiEventCallback11linkToDeathERKNS_2spINS0_20hidl_death_recipientEEEm
_ZN7android8hardware4wifi4V1_021BpHwWifiEventCallback12_hidl_onStopEPNS0_10IInterfaceEPNS0_7details16HidlInstrumentorE
_ZN7android8hardware4wifi4V1_021BpHwWifiEventCallback12getDebugInfoENSt3__18functionIFvRKNS_4hidl4base4V1_09DebugInfoEEEE
_ZN7android8hardware4wifi4V1_021BpHwWifiEventCallback12getHashChainENSt3__18functionIFvRKNS0_8hidl_vecINS0_10hidl_arrayIhLm32EJEEEEEEEE
_ZN7android8hardware4wifi4V1_021BpHwWifiEventCallback13_hidl_onStartEPNS0_10IInterfaceEPNS0_7details16HidlInstrumentorE
_ZN7android8hardware4wifi4V1_021BpHwWifiEventCallback13unlinkToDeathERKNS_2spINS0_20hidl_death_recipientEEE
_ZN7android8hardware4wifi4V1_021BpHwWifiEventCallback14interfaceChainENSt3__18functionIFvRKNS0_8hidl_vecINS0_11hidl_stringEEEEEE
_ZN7android8hardware4wifi4V1_021BpHwWifiEventCallback15_hidl_onFailureEPNS0_10IInterfaceEPNS0_7details16HidlInstrumentorERKNS2_10WifiStatusE
_ZN7android8hardware4wifi4V1_021BpHwWifiEventCallback19interfaceDescriptorENSt3__18functionIFvRKNS0_11hidl_stringEEEE
_ZN7android8hardware4wifi4V1_021BpHwWifiEventCallback21notifySyspropsChangedEv
_ZN7android8hardware4wifi4V1_021BpHwWifiEventCallback21setHALInstrumentationEv
_ZN7android8hardware4wifi4V1_021BpHwWifiEventCallback4pingEv
_ZN7android8hardware4wifi4V1_021BpHwWifiEventCallback5debugERKNS0_11hidl_handleERKNS0_8hidl_vecINS0_11hidl_stringEEE
_ZN7android8hardware4wifi4V1_021BpHwWifiEventCallback6onStopEv
_ZN7android8hardware4wifi4V1_021BpHwWifiEventCallback7onStartEv
_ZN7android8hardware4wifi4V1_021BpHwWifiEventCallback9onFailureERKNS2_10WifiStatusE
_ZN7android8hardware4wifi4V1_021BpHwWifiEventCallbackC1ERKNS_2spINS0_7IBinderEEE
_ZN7android8hardware4wifi4V1_021BpHwWifiEventCallbackC2ERKNS_2spINS0_7IBinderEEE
_ZN7android8hardware4wifi4V1_021BpHwWifiRttController11linkToDeathERKNS_2spINS0_20hidl_death_recipientEEEm
_ZN7android8hardware4wifi4V1_021BpHwWifiRttController11rangeCancelEjRKNS0_8hidl_vecINS0_10hidl_arrayIhLm6EJEEEEENSt3__18functionIFvRKNS2_10WifiStatusEEEE
_ZN7android8hardware4wifi4V1_021BpHwWifiRttController12_hidl_setLciEPNS0_10IInterfaceEPNS0_7details16HidlInstrumentorEjRKNS2_17RttLciInformationENSt3__18functionIFvRKNS2_10WifiStatusEEEE
_ZN7android8hardware4wifi4V1_021BpHwWifiRttController12_hidl_setLcrEPNS0_10IInterfaceEPNS0_7details16HidlInstrumentorEjRKNS2_17RttLcrInformationENSt3__18functionIFvRKNS2_10WifiStatusEEEE
_ZN7android8hardware4wifi4V1_021BpHwWifiRttController12getDebugInfoENSt3__18functionIFvRKNS_4hidl4base4V1_09DebugInfoEEEE
_ZN7android8hardware4wifi4V1_021BpHwWifiRttController12getHashChainENSt3__18functionIFvRKNS0_8hidl_vecINS0_10hidl_arrayIhLm32EJEEEEEEEE
_ZN7android8hardware4wifi4V1_021BpHwWifiRttController12rangeRequestEjRKNS0_8hidl_vecINS2_9RttConfigEEENSt3__18functionIFvRKNS2_10WifiStatusEEEE
_ZN7android8hardware4wifi4V1_021BpHwWifiRttController13getBoundIfaceENSt3__18functionIFvRKNS2_10WifiStatusERKNS_2spINS2_10IWifiIfaceEEEEEE
_ZN7android8hardware4wifi4V1_021BpHwWifiRttController13unlinkToDeathERKNS_2spINS0_20hidl_death_recipientEEE
_ZN7android8hardware4wifi4V1_021BpHwWifiRttController14interfaceChainENSt3__18functionIFvRKNS0_8hidl_vecINS0_11hidl_stringEEEEEE
_ZN7android8hardware4wifi4V1_021BpHwWifiRttController15enableResponderEjRKNS2_15WifiChannelInfoEjRKNS2_12RttResponderENSt3__18functionIFvRKNS2_10WifiStatusEEEE
_ZN7android8hardware4wifi4V1_021BpHwWifiRttController15getCapabilitiesENSt3__18functionIFvRKNS2_10WifiStatusERKNS2_15RttCapabilitiesEEEE
_ZN7android8hardware4wifi4V1_021BpHwWifiRttController16disableResponderEjNSt3__18functionIFvRKNS2_10WifiStatusEEEE
_ZN7android8hardware4wifi4V1_021BpHwWifiRttController16getResponderInfoENSt3__18functionIFvRKNS2_10WifiStatusERKNS2_12RttResponderEEEE
_ZN7android8hardware4wifi4V1_021BpHwWifiRttController17_hidl_rangeCancelEPNS0_10IInterfaceEPNS0_7details16HidlInstrumentorEjRKNS0_8hidl_vecINS0_10hidl_arrayIhLm6EJEEEEENSt3__18functionIFvRKNS2_10WifiStatusEEEE
_ZN7android8hardware4wifi4V1_021BpHwWifiRttController18_hidl_rangeRequestEPNS0_10IInterfaceEPNS0_7details16HidlInstrumentorEjRKNS0_8hidl_vecINS2_9RttConfigEEENSt3__18functionIFvRKNS2_10WifiStatusEEEE
_ZN7android8hardware4wifi4V1_021BpHwWifiRttController19_hidl_getBoundIfaceEPNS0_10IInterfaceEPNS0_7details16HidlInstrumentorENSt3__18functionIFvRKNS2_10WifiStatusERKNS_2spINS2_10IWifiIfaceEEEEEE
_ZN7android8hardware4wifi4V1_021BpHwWifiRttController19interfaceDescriptorENSt3__18functionIFvRKNS0_11hidl_stringEEEE
_ZN7android8hardware4wifi4V1_021BpHwWifiRttController21_hidl_enableResponderEPNS0_10IInterfaceEPNS0_7details16HidlInstrumentorEjRKNS2_15WifiChannelInfoEjRKNS2_12RttResponderENSt3__18functionIFvRKNS2_10WifiStatusEEEE
_ZN7android8hardware4wifi4V1_021BpHwWifiRttController21_hidl_getCapabilitiesEPNS0_10IInterfaceEPNS0_7details16HidlInstrumentorENSt3__18functionIFvRKNS2_10WifiStatusERKNS2_15RttCapabilitiesEEEE
_ZN7android8hardware4wifi4V1_021BpHwWifiRttController21notifySyspropsChangedEv
_ZN7android8hardware4wifi4V1_021BpHwWifiRttController21registerEventCallbackERKNS_2spINS2_31IWifiRttControllerEventCallbackEEENSt3__18functionIFvRKNS2_10WifiStatusEEEE
_ZN7android8hardware4wifi4V1_021BpHwWifiRttController21setHALInstrumentationEv
_ZN7android8hardware4wifi4V1_021BpHwWifiRttController22_hidl_disableResponderEPNS0_10IInterfaceEPNS0_7details16HidlInstrumentorEjNSt3__18functionIFvRKNS2_10WifiStatusEEEE
_ZN7android8hardware4wifi4V1_021BpHwWifiRttController22_hidl_getResponderInfoEPNS0_10IInterfaceEPNS0_7details16HidlInstrumentorENSt3__18functionIFvRKNS2_10WifiStatusERKNS2_12RttResponderEEEE
_ZN7android8hardware4wifi4V1_021BpHwWifiRttController27_hidl_registerEventCallbackEPNS0_10IInterfaceEPNS0_7details16HidlInstrumentorERKNS_2spINS2_31IWifiRttControllerEventCallbackEEENSt3__18functionIFvRKNS2_10WifiStatusEEEE
_ZN7android8hardware4wifi4V1_021BpHwWifiRttController4pingEv
_ZN7android8hardware4wifi4V1_021BpHwWifiRttController5debugERKNS0_11hidl_handleERKNS0_8hidl_vecINS0_11hidl_stringEEE
_ZN7android8hardware4wifi4V1_021BpHwWifiRttController6setLciEjRKNS2_17RttLciInformationENSt3__18functionIFvRKNS2_10WifiStatusEEEE
_ZN7android8hardware4wifi4V1_021BpHwWifiRttController6setLcrEjRKNS2_17RttLcrInformationENSt3__18functionIFvRKNS2_10WifiStatusEEEE
_ZN7android8hardware4wifi4V1_021BpHwWifiRttControllerC1ERKNS_2spINS0_7IBinderEEE
_ZN7android8hardware4wifi4V1_021BpHwWifiRttControllerC2ERKNS_2spINS0_7IBinderEEE
_ZN7android8hardware4wifi4V1_021writeEmbeddedToParcelERKNS2_10WifiStatusEPNS0_6ParcelEmm
_ZN7android8hardware4wifi4V1_021writeEmbeddedToParcelERKNS2_11NanMatchIndEPNS0_6ParcelEmm
_ZN7android8hardware4wifi4V1_021writeEmbeddedToParcelERKNS2_11StaScanDataEPNS0_6ParcelEmm
_ZN7android8hardware4wifi4V1_021writeEmbeddedToParcelERKNS2_13StaScanResultEPNS0_6ParcelEmm
_ZN7android8hardware4wifi4V1_021writeEmbeddedToParcelERKNS2_13WifiNanStatusEPNS0_6ParcelEmm
_ZN7android8hardware4wifi4V1_021writeEmbeddedToParcelERKNS2_16StaRoamingConfigEPNS0_6ParcelEmm
_ZN7android8hardware4wifi4V1_021writeEmbeddedToParcelERKNS2_17NanPublishRequestEPNS0_6ParcelEmm
_ZN7android8hardware4wifi4V1_021writeEmbeddedToParcelERKNS2_17RttLcrInformationEPNS0_6ParcelEmm
_ZN7android8hardware4wifi4V1_021writeEmbeddedToParcelERKNS2_17StaLinkLayerStatsEPNS0_6ParcelEmm
_ZN7android8hardware4wifi4V1_021writeEmbeddedToParcelERKNS2_19NanSubscribeRequestEPNS0_6ParcelEmm
_ZN7android8hardware4wifi4V1_021writeEmbeddedToParcelERKNS2_21NanDataPathConfirmIndEPNS0_6ParcelEmm
_ZN7android8hardware4wifi4V1_021writeEmbeddedToParcelERKNS2_21NanDataPathRequestIndEPNS0_6ParcelEmm
_ZN7android8hardware4wifi4V1_021writeEmbeddedToParcelERKNS2_22NanFollowupReceivedIndEPNS0_6ParcelEmm
_ZN7android8hardware4wifi4V1_021writeEmbeddedToParcelERKNS2_22StaLinkLayerRadioStatsEPNS0_6ParcelEmm
_ZN7android8hardware4wifi4V1_021writeEmbeddedToParcelERKNS2_22WifiInformationElementEPNS0_6ParcelEmm
_ZN7android8hardware4wifi4V1_021writeEmbeddedToParcelERKNS2_24NanDiscoveryCommonConfigEPNS0_6ParcelEmm
_ZN7android8hardware4wifi4V1_021writeEmbeddedToParcelERKNS2_25NanDataPathSecurityConfigEPNS0_6ParcelEmm
_ZN7android8hardware4wifi4V1_021writeEmbeddedToParcelERKNS2_25WifiDebugRingBufferStatusEPNS0_6ParcelEmm
_ZN7android8hardware4wifi4V1_021writeEmbeddedToParcelERKNS2_26NanInitiateDataPathRequestEPNS0_6ParcelEmm
_ZN7android8hardware4wifi4V1_021writeEmbeddedToParcelERKNS2_26NanTransmitFollowupRequestEPNS0_6ParcelEmm
_ZN7android8hardware4wifi4V1_021writeEmbeddedToParcelERKNS2_27StaBackgroundScanParametersEPNS0_6ParcelEmm
_ZN7android8hardware4wifi4V1_021writeEmbeddedToParcelERKNS2_27WifiDebugRxPacketFateReportEPNS0_6ParcelEmm
_ZN7android8hardware4wifi4V1_021writeEmbeddedToParcelERKNS2_27WifiDebugTxPacketFateReportEPNS0_6ParcelEmm
_ZN7android8hardware4wifi4V1_021writeEmbeddedToParcelERKNS2_28WifiDebugHostWakeReasonStatsEPNS0_6ParcelEmm
_ZN7android8hardware4wifi4V1_021writeEmbeddedToParcelERKNS2_28WifiDebugPacketFateFrameInfoEPNS0_6ParcelEmm
_ZN7android8hardware4wifi4V1_021writeEmbeddedToParcelERKNS2_33StaBackgroundScanBucketParametersEPNS0_6ParcelEmm
_ZN7android8hardware4wifi4V1_021writeEmbeddedToParcelERKNS2_37NanRespondToDataPathIndicationRequestEPNS0_6ParcelEmm
_ZN7android8hardware4wifi4V1_021writeEmbeddedToParcelERKNS2_9IWifiChip13ChipDebugInfoEPNS0_6ParcelEmm
_ZN7android8hardware4wifi4V1_021writeEmbeddedToParcelERKNS2_9IWifiChip20ChipIfaceCombinationEPNS0_6ParcelEmm
_ZN7android8hardware4wifi4V1_021writeEmbeddedToParcelERKNS2_9IWifiChip25ChipIfaceCombinationLimitEPNS0_6ParcelEmm
_ZN7android8hardware4wifi4V1_021writeEmbeddedToParcelERKNS2_9IWifiChip8ChipModeEPNS0_6ParcelEmm
_ZN7android8hardware4wifi4V1_021writeEmbeddedToParcelERKNS2_9RttResultEPNS0_6ParcelEmm
_ZN7android8hardware4wifi4V1_022IWifiChipEventCallback10descriptorE
_ZN7android8hardware4wifi4V1_022IWifiChipEventCallback10getServiceERKNSt3__112basic_stringIcNS4_11char_traitsIcEENS4_9allocatorIcEEEEb
_ZN7android8hardware4wifi4V1_022IWifiChipEventCallback11linkToDeathERKNS_2spINS0_20hidl_death_recipientEEEm
_ZN7android8hardware4wifi4V1_022IWifiChipEventCallback12getDebugInfoENSt3__18functionIFvRKNS_4hidl4base4V1_09DebugInfoEEEE
_ZN7android8hardware4wifi4V1_022IWifiChipEventCallback12getHashChainENSt3__18functionIFvRKNS0_8hidl_vecINS0_10hidl_arrayIhLm32EJEEEEEEEE
_ZN7android8hardware4wifi4V1_022IWifiChipEventCallback13tryGetServiceERKNSt3__112basic_stringIcNS4_11char_traitsIcEENS4_9allocatorIcEEEEb
_ZN7android8hardware4wifi4V1_022IWifiChipEventCallback13unlinkToDeathERKNS_2spINS0_20hidl_death_recipientEEE
_ZN7android8hardware4wifi4V1_022IWifiChipEventCallback14interfaceChainENSt3__18functionIFvRKNS0_8hidl_vecINS0_11hidl_stringEEEEEE
_ZN7android8hardware4wifi4V1_022IWifiChipEventCallback17registerAsServiceERKNSt3__112basic_stringIcNS4_11char_traitsIcEENS4_9allocatorIcEEEE
_ZN7android8hardware4wifi4V1_022IWifiChipEventCallback19interfaceDescriptorENSt3__18functionIFvRKNS0_11hidl_stringEEEE
_ZN7android8hardware4wifi4V1_022IWifiChipEventCallback21notifySyspropsChangedEv
_ZN7android8hardware4wifi4V1_022IWifiChipEventCallback21setHALInstrumentationEv
_ZN7android8hardware4wifi4V1_022IWifiChipEventCallback24registerForNotificationsERKNSt3__112basic_stringIcNS4_11char_traitsIcEENS4_9allocatorIcEEEERKNS_2spINS_4hidl7manager4V1_020IServiceNotificationEEE
_ZN7android8hardware4wifi4V1_022IWifiChipEventCallback4pingEv
_ZN7android8hardware4wifi4V1_022IWifiChipEventCallback5debugERKNS0_11hidl_handleERKNS0_8hidl_vecINS0_11hidl_stringEEE
_ZN7android8hardware4wifi4V1_022IWifiChipEventCallback8castFromERKNS_2spINS_4hidl4base4V1_05IBaseEEEb
_ZN7android8hardware4wifi4V1_022IWifiChipEventCallback8castFromERKNS_2spIS3_EEb
_ZN7android8hardware4wifi4V1_022readEmbeddedFromParcelERKNS2_10WifiStatusERKNS0_6ParcelEmm
_ZN7android8hardware4wifi4V1_022readEmbeddedFromParcelERKNS2_11NanMatchIndERKNS0_6ParcelEmm
_ZN7android8hardware4wifi4V1_022readEmbeddedFromParcelERKNS2_11StaScanDataERKNS0_6ParcelEmm
_ZN7android8hardware4wifi4V1_022readEmbeddedFromParcelERKNS2_13StaScanResultERKNS0_6ParcelEmm
_ZN7android8hardware4wifi4V1_022readEmbeddedFromParcelERKNS2_13WifiNanStatusERKNS0_6ParcelEmm
_ZN7android8hardware4wifi4V1_022readEmbeddedFromParcelERKNS2_16StaRoamingConfigERKNS0_6ParcelEmm
_ZN7android8hardware4wifi4V1_022readEmbeddedFromParcelERKNS2_17NanPublishRequestERKNS0_6ParcelEmm
_ZN7android8hardware4wifi4V1_022readEmbeddedFromParcelERKNS2_17RttLcrInformationERKNS0_6ParcelEmm
_ZN7android8hardware4wifi4V1_022readEmbeddedFromParcelERKNS2_17StaLinkLayerStatsERKNS0_6ParcelEmm
_ZN7android8hardware4wifi4V1_022readEmbeddedFromParcelERKNS2_19NanSubscribeRequestERKNS0_6ParcelEmm
_ZN7android8hardware4wifi4V1_022readEmbeddedFromParcelERKNS2_21NanDataPathConfirmIndERKNS0_6ParcelEmm
_ZN7android8hardware4wifi4V1_022readEmbeddedFromParcelERKNS2_21NanDataPathRequestIndERKNS0_6ParcelEmm
_ZN7android8hardware4wifi4V1_022readEmbeddedFromParcelERKNS2_22NanFollowupReceivedIndERKNS0_6ParcelEmm
_ZN7android8hardware4wifi4V1_022readEmbeddedFromParcelERKNS2_22StaLinkLayerRadioStatsERKNS0_6ParcelEmm
_ZN7android8hardware4wifi4V1_022readEmbeddedFromParcelERKNS2_22WifiInformationElementERKNS0_6ParcelEmm
_ZN7android8hardware4wifi4V1_022readEmbeddedFromParcelERKNS2_24NanDiscoveryCommonConfigERKNS0_6ParcelEmm
_ZN7android8hardware4wifi4V1_022readEmbeddedFromParcelERKNS2_25NanDataPathSecurityConfigERKNS0_6ParcelEmm
_ZN7android8hardware4wifi4V1_022readEmbeddedFromParcelERKNS2_25WifiDebugRingBufferStatusERKNS0_6ParcelEmm
_ZN7android8hardware4wifi4V1_022readEmbeddedFromParcelERKNS2_26NanInitiateDataPathRequestERKNS0_6ParcelEmm
_ZN7android8hardware4wifi4V1_022readEmbeddedFromParcelERKNS2_26NanTransmitFollowupRequestERKNS0_6ParcelEmm
_ZN7android8hardware4wifi4V1_022readEmbeddedFromParcelERKNS2_27StaBackgroundScanParametersERKNS0_6ParcelEmm
_ZN7android8hardware4wifi4V1_022readEmbeddedFromParcelERKNS2_27WifiDebugRxPacketFateReportERKNS0_6ParcelEmm
_ZN7android8hardware4wifi4V1_022readEmbeddedFromParcelERKNS2_27WifiDebugTxPacketFateReportERKNS0_6ParcelEmm
_ZN7android8hardware4wifi4V1_022readEmbeddedFromParcelERKNS2_28WifiDebugHostWakeReasonStatsERKNS0_6ParcelEmm
_ZN7android8hardware4wifi4V1_022readEmbeddedFromParcelERKNS2_28WifiDebugPacketFateFrameInfoERKNS0_6ParcelEmm
_ZN7android8hardware4wifi4V1_022readEmbeddedFromParcelERKNS2_33StaBackgroundScanBucketParametersERKNS0_6ParcelEmm
_ZN7android8hardware4wifi4V1_022readEmbeddedFromParcelERKNS2_37NanRespondToDataPathIndicationRequestERKNS0_6ParcelEmm
_ZN7android8hardware4wifi4V1_022readEmbeddedFromParcelERKNS2_9IWifiChip13ChipDebugInfoERKNS0_6ParcelEmm
_ZN7android8hardware4wifi4V1_022readEmbeddedFromParcelERKNS2_9IWifiChip20ChipIfaceCombinationERKNS0_6ParcelEmm
_ZN7android8hardware4wifi4V1_022readEmbeddedFromParcelERKNS2_9IWifiChip25ChipIfaceCombinationLimitERKNS0_6ParcelEmm
_ZN7android8hardware4wifi4V1_022readEmbeddedFromParcelERKNS2_9IWifiChip8ChipModeERKNS0_6ParcelEmm
_ZN7android8hardware4wifi4V1_022readEmbeddedFromParcelERKNS2_9RttResultERKNS0_6ParcelEmm
_ZN7android8hardware4wifi4V1_023BsWifiChipEventCallback13addOnewayTaskENSt3__18functionIFvvEEE
_ZN7android8hardware4wifi4V1_023BsWifiChipEventCallbackC1ENS_2spINS2_22IWifiChipEventCallbackEEE
_ZN7android8hardware4wifi4V1_023BsWifiChipEventCallbackC2ENS_2spINS2_22IWifiChipEventCallbackEEE
_ZN7android8hardware4wifi4V1_025BnHwWifiChipEventCallback10onTransactEjRKNS0_6ParcelEPS4_jNSt3__18functionIFvRS4_EEE
_ZN7android8hardware4wifi4V1_025BnHwWifiChipEventCallback12getDebugInfoENSt3__18functionIFvRKNS_4hidl4base4V1_09DebugInfoEEEE
_ZN7android8hardware4wifi4V1_025BnHwWifiChipEventCallback18_hidl_onIfaceAddedEPNS_4hidl4base4V1_08BnHwBaseERKNS0_6ParcelEPS9_NSt3__18functionIFvRS9_EEE
_ZN7android8hardware4wifi4V1_025BnHwWifiChipEventCallback20_hidl_onIfaceRemovedEPNS_4hidl4base4V1_08BnHwBaseERKNS0_6ParcelEPS9_NSt3__18functionIFvRS9_EEE
_ZN7android8hardware4wifi4V1_025BnHwWifiChipEventCallback23_hidl_onDebugErrorAlertEPNS_4hidl4base4V1_08BnHwBaseERKNS0_6ParcelEPS9_NSt3__18functionIFvRS9_EEE
_ZN7android8hardware4wifi4V1_025BnHwWifiChipEventCallback24_hidl_onChipReconfiguredEPNS_4hidl4base4V1_08BnHwBaseERKNS0_6ParcelEPS9_NSt3__18functionIFvRS9_EEE
_ZN7android8hardware4wifi4V1_025BnHwWifiChipEventCallback30_hidl_onChipReconfigureFailureEPNS_4hidl4base4V1_08BnHwBaseERKNS0_6ParcelEPS9_NSt3__18functionIFvRS9_EEE
_ZN7android8hardware4wifi4V1_025BnHwWifiChipEventCallback36_hidl_onDebugRingBufferDataAvailableEPNS_4hidl4base4V1_08BnHwBaseERKNS0_6ParcelEPS9_NSt3__18functionIFvRS9_EEE
_ZN7android8hardware4wifi4V1_025BnHwWifiChipEventCallback4pingEv
_ZN7android8hardware4wifi4V1_025BnHwWifiChipEventCallbackC1ERKNS_2spINS2_22IWifiChipEventCallbackEEE
_ZN7android8hardware4wifi4V1_025BnHwWifiChipEventCallbackC2ERKNS_2spINS2_22IWifiChipEventCallbackEEE
_ZN7android8hardware4wifi4V1_025BnHwWifiChipEventCallbackD0Ev
_ZN7android8hardware4wifi4V1_025BnHwWifiChipEventCallbackD1Ev
_ZN7android8hardware4wifi4V1_025BnHwWifiChipEventCallbackD2Ev
_ZN7android8hardware4wifi4V1_025BpHwWifiChipEventCallback11linkToDeathERKNS_2spINS0_20hidl_death_recipientEEEm
_ZN7android8hardware4wifi4V1_025BpHwWifiChipEventCallback12getDebugInfoENSt3__18functionIFvRKNS_4hidl4base4V1_09DebugInfoEEEE
_ZN7android8hardware4wifi4V1_025BpHwWifiChipEventCallback12getHashChainENSt3__18functionIFvRKNS0_8hidl_vecINS0_10hidl_arrayIhLm32EJEEEEEEEE
_ZN7android8hardware4wifi4V1_025BpHwWifiChipEventCallback12onIfaceAddedENS2_9IfaceTypeERKNS0_11hidl_stringE
_ZN7android8hardware4wifi4V1_025BpHwWifiChipEventCallback13unlinkToDeathERKNS_2spINS0_20hidl_death_recipientEEE
_ZN7android8hardware4wifi4V1_025BpHwWifiChipEventCallback14interfaceChainENSt3__18functionIFvRKNS0_8hidl_vecINS0_11hidl_stringEEEEEE
_ZN7android8hardware4wifi4V1_025BpHwWifiChipEventCallback14onIfaceRemovedENS2_9IfaceTypeERKNS0_11hidl_stringE
_ZN7android8hardware4wifi4V1_025BpHwWifiChipEventCallback17onDebugErrorAlertEiRKNS0_8hidl_vecIhEE
_ZN7android8hardware4wifi4V1_025BpHwWifiChipEventCallback18_hidl_onIfaceAddedEPNS0_10IInterfaceEPNS0_7details16HidlInstrumentorENS2_9IfaceTypeERKNS0_11hidl_stringE
_ZN7android8hardware4wifi4V1_025BpHwWifiChipEventCallback18onChipReconfiguredEj
_ZN7android8hardware4wifi4V1_025BpHwWifiChipEventCallback19interfaceDescriptorENSt3__18functionIFvRKNS0_11hidl_stringEEEE
_ZN7android8hardware4wifi4V1_025BpHwWifiChipEventCallback20_hidl_onIfaceRemovedEPNS0_10IInterfaceEPNS0_7details16HidlInstrumentorENS2_9IfaceTypeERKNS0_11hidl_stringE
_ZN7android8hardware4wifi4V1_025BpHwWifiChipEventCallback21notifySyspropsChangedEv
_ZN7android8hardware4wifi4V1_025BpHwWifiChipEventCallback21setHALInstrumentationEv
_ZN7android8hardware4wifi4V1_025BpHwWifiChipEventCallback23_hidl_onDebugErrorAlertEPNS0_10IInterfaceEPNS0_7details16HidlInstrumentorEiRKNS0_8hidl_vecIhEE
_ZN7android8hardware4wifi4V1_025BpHwWifiChipEventCallback24_hidl_onChipReconfiguredEPNS0_10IInterfaceEPNS0_7details16HidlInstrumentorEj
_ZN7android8hardware4wifi4V1_025BpHwWifiChipEventCallback24onChipReconfigureFailureERKNS2_10WifiStatusE
_ZN7android8hardware4wifi4V1_025BpHwWifiChipEventCallback30_hidl_onChipReconfigureFailureEPNS0_10IInterfaceEPNS0_7details16HidlInstrumentorERKNS2_10WifiStatusE
_ZN7android8hardware4wifi4V1_025BpHwWifiChipEventCallback30onDebugRingBufferDataAvailableERKNS2_25WifiDebugRingBufferStatusERKNS0_8hidl_vecIhEE
_ZN7android8hardware4wifi4V1_025BpHwWifiChipEventCallback36_hidl_onDebugRingBufferDataAvailableEPNS0_10IInterfaceEPNS0_7details16HidlInstrumentorERKNS2_25WifiDebugRingBufferStatusERKNS0_8hidl_vecIhEE
_ZN7android8hardware4wifi4V1_025BpHwWifiChipEventCallback4pingEv
_ZN7android8hardware4wifi4V1_025BpHwWifiChipEventCallback5debugERKNS0_11hidl_handleERKNS0_8hidl_vecINS0_11hidl_stringEEE
_ZN7android8hardware4wifi4V1_025BpHwWifiChipEventCallbackC1ERKNS_2spINS0_7IBinderEEE
_ZN7android8hardware4wifi4V1_025BpHwWifiChipEventCallbackC2ERKNS_2spINS0_7IBinderEEE
_ZN7android8hardware4wifi4V1_026IWifiNanIfaceEventCallback10descriptorE
_ZN7android8hardware4wifi4V1_026IWifiNanIfaceEventCallback10getServiceERKNSt3__112basic_stringIcNS4_11char_traitsIcEENS4_9allocatorIcEEEEb
_ZN7android8hardware4wifi4V1_026IWifiNanIfaceEventCallback11linkToDeathERKNS_2spINS0_20hidl_death_recipientEEEm
_ZN7android8hardware4wifi4V1_026IWifiNanIfaceEventCallback12getDebugInfoENSt3__18functionIFvRKNS_4hidl4base4V1_09DebugInfoEEEE
_ZN7android8hardware4wifi4V1_026IWifiNanIfaceEventCallback12getHashChainENSt3__18functionIFvRKNS0_8hidl_vecINS0_10hidl_arrayIhLm32EJEEEEEEEE
_ZN7android8hardware4wifi4V1_026IWifiNanIfaceEventCallback13tryGetServiceERKNSt3__112basic_stringIcNS4_11char_traitsIcEENS4_9allocatorIcEEEEb
_ZN7android8hardware4wifi4V1_026IWifiNanIfaceEventCallback13unlinkToDeathERKNS_2spINS0_20hidl_death_recipientEEE
_ZN7android8hardware4wifi4V1_026IWifiNanIfaceEventCallback14interfaceChainENSt3__18functionIFvRKNS0_8hidl_vecINS0_11hidl_stringEEEEEE
_ZN7android8hardware4wifi4V1_026IWifiNanIfaceEventCallback17registerAsServiceERKNSt3__112basic_stringIcNS4_11char_traitsIcEENS4_9allocatorIcEEEE
_ZN7android8hardware4wifi4V1_026IWifiNanIfaceEventCallback19interfaceDescriptorENSt3__18functionIFvRKNS0_11hidl_stringEEEE
_ZN7android8hardware4wifi4V1_026IWifiNanIfaceEventCallback21notifySyspropsChangedEv
_ZN7android8hardware4wifi4V1_026IWifiNanIfaceEventCallback21setHALInstrumentationEv
_ZN7android8hardware4wifi4V1_026IWifiNanIfaceEventCallback24registerForNotificationsERKNSt3__112basic_stringIcNS4_11char_traitsIcEENS4_9allocatorIcEEEERKNS_2spINS_4hidl7manager4V1_020IServiceNotificationEEE
_ZN7android8hardware4wifi4V1_026IWifiNanIfaceEventCallback4pingEv
_ZN7android8hardware4wifi4V1_026IWifiNanIfaceEventCallback5debugERKNS0_11hidl_handleERKNS0_8hidl_vecINS0_11hidl_stringEEE
_ZN7android8hardware4wifi4V1_026IWifiNanIfaceEventCallback8castFromERKNS_2spINS_4hidl4base4V1_05IBaseEEEb
_ZN7android8hardware4wifi4V1_026IWifiNanIfaceEventCallback8castFromERKNS_2spIS3_EEb
_ZN7android8hardware4wifi4V1_026IWifiStaIfaceEventCallback10descriptorE
_ZN7android8hardware4wifi4V1_026IWifiStaIfaceEventCallback10getServiceERKNSt3__112basic_stringIcNS4_11char_traitsIcEENS4_9allocatorIcEEEEb
_ZN7android8hardware4wifi4V1_026IWifiStaIfaceEventCallback11linkToDeathERKNS_2spINS0_20hidl_death_recipientEEEm
_ZN7android8hardware4wifi4V1_026IWifiStaIfaceEventCallback12getDebugInfoENSt3__18functionIFvRKNS_4hidl4base4V1_09DebugInfoEEEE
_ZN7android8hardware4wifi4V1_026IWifiStaIfaceEventCallback12getHashChainENSt3__18functionIFvRKNS0_8hidl_vecINS0_10hidl_arrayIhLm32EJEEEEEEEE
_ZN7android8hardware4wifi4V1_026IWifiStaIfaceEventCallback13tryGetServiceERKNSt3__112basic_stringIcNS4_11char_traitsIcEENS4_9allocatorIcEEEEb
_ZN7android8hardware4wifi4V1_026IWifiStaIfaceEventCallback13unlinkToDeathERKNS_2spINS0_20hidl_death_recipientEEE
_ZN7android8hardware4wifi4V1_026IWifiStaIfaceEventCallback14interfaceChainENSt3__18functionIFvRKNS0_8hidl_vecINS0_11hidl_stringEEEEEE
_ZN7android8hardware4wifi4V1_026IWifiStaIfaceEventCallback17registerAsServiceERKNSt3__112basic_stringIcNS4_11char_traitsIcEENS4_9allocatorIcEEEE
_ZN7android8hardware4wifi4V1_026IWifiStaIfaceEventCallback19interfaceDescriptorENSt3__18functionIFvRKNS0_11hidl_stringEEEE
_ZN7android8hardware4wifi4V1_026IWifiStaIfaceEventCallback21notifySyspropsChangedEv
_ZN7android8hardware4wifi4V1_026IWifiStaIfaceEventCallback21setHALInstrumentationEv
_ZN7android8hardware4wifi4V1_026IWifiStaIfaceEventCallback24registerForNotificationsERKNSt3__112basic_stringIcNS4_11char_traitsIcEENS4_9allocatorIcEEEERKNS_2spINS_4hidl7manager4V1_020IServiceNotificationEEE
_ZN7android8hardware4wifi4V1_026IWifiStaIfaceEventCallback4pingEv
_ZN7android8hardware4wifi4V1_026IWifiStaIfaceEventCallback5debugERKNS0_11hidl_handleERKNS0_8hidl_vecINS0_11hidl_stringEEE
_ZN7android8hardware4wifi4V1_026IWifiStaIfaceEventCallback8castFromERKNS_2spINS_4hidl4base4V1_05IBaseEEEb
_ZN7android8hardware4wifi4V1_026IWifiStaIfaceEventCallback8castFromERKNS_2spIS3_EEb
_ZN7android8hardware4wifi4V1_027BsWifiNanIfaceEventCallback13addOnewayTaskENSt3__18functionIFvvEEE
_ZN7android8hardware4wifi4V1_027BsWifiNanIfaceEventCallbackC1ENS_2spINS2_26IWifiNanIfaceEventCallbackEEE
_ZN7android8hardware4wifi4V1_027BsWifiNanIfaceEventCallbackC2ENS_2spINS2_26IWifiNanIfaceEventCallbackEEE
_ZN7android8hardware4wifi4V1_027BsWifiStaIfaceEventCallback13addOnewayTaskENSt3__18functionIFvvEEE
_ZN7android8hardware4wifi4V1_027BsWifiStaIfaceEventCallbackC1ENS_2spINS2_26IWifiStaIfaceEventCallbackEEE
_ZN7android8hardware4wifi4V1_027BsWifiStaIfaceEventCallbackC2ENS_2spINS2_26IWifiStaIfaceEventCallbackEEE
_ZN7android8hardware4wifi4V1_029BnHwWifiNanIfaceEventCallback10onTransactEjRKNS0_6ParcelEPS4_jNSt3__18functionIFvRS4_EEE
_ZN7android8hardware4wifi4V1_029BnHwWifiNanIfaceEventCallback12getDebugInfoENSt3__18functionIFvRKNS_4hidl4base4V1_09DebugInfoEEEE
_ZN7android8hardware4wifi4V1_029BnHwWifiNanIfaceEventCallback16_hidl_eventMatchEPNS_4hidl4base4V1_08BnHwBaseERKNS0_6ParcelEPS9_NSt3__18functionIFvRS9_EEE
_ZN7android8hardware4wifi4V1_029BnHwWifiNanIfaceEventCallback19_hidl_eventDisabledEPNS_4hidl4base4V1_08BnHwBaseERKNS0_6ParcelEPS9_NSt3__18functionIFvRS9_EEE
_ZN7android8hardware4wifi4V1_029BnHwWifiNanIfaceEventCallback23_hidl_eventClusterEventEPNS_4hidl4base4V1_08BnHwBaseERKNS0_6ParcelEPS9_NSt3__18functionIFvRS9_EEE
_ZN7android8hardware4wifi4V1_029BnHwWifiNanIfaceEventCallback23_hidl_eventMatchExpiredEPNS_4hidl4base4V1_08BnHwBaseERKNS0_6ParcelEPS9_NSt3__18functionIFvRS9_EEE
_ZN7android8hardware4wifi4V1_029BnHwWifiNanIfaceEventCallback26_hidl_eventDataPathConfirmEPNS_4hidl4base4V1_08BnHwBaseERKNS0_6ParcelEPS9_NSt3__18functionIFvRS9_EEE
_ZN7android8hardware4wifi4V1_029BnHwWifiNanIfaceEventCallback26_hidl_eventDataPathRequestEPNS_4hidl4base4V1_08BnHwBaseERKNS0_6ParcelEPS9_NSt3__18functionIFvRS9_EEE
_ZN7android8hardware4wifi4V1_029BnHwWifiNanIfaceEventCallback26_hidl_notifyConfigResponseEPNS_4hidl4base4V1_08BnHwBaseERKNS0_6ParcelEPS9_NSt3__18functionIFvRS9_EEE
_ZN7android8hardware4wifi4V1_029BnHwWifiNanIfaceEventCallback26_hidl_notifyEnableResponseEPNS_4hidl4base4V1_08BnHwBaseERKNS0_6ParcelEPS9_NSt3__18functionIFvRS9_EEE
_ZN7android8hardware4wifi4V1_029BnHwWifiNanIfaceEventCallback27_hidl_eventFollowupReceivedEPNS_4hidl4base4V1_08BnHwBaseERKNS0_6ParcelEPS9_NSt3__18functionIFvRS9_EEE
_ZN7android8hardware4wifi4V1_029BnHwWifiNanIfaceEventCallback27_hidl_eventTransmitFollowupEPNS_4hidl4base4V1_08BnHwBaseERKNS0_6ParcelEPS9_NSt3__18functionIFvRS9_EEE
_ZN7android8hardware4wifi4V1_029BnHwWifiNanIfaceEventCallback27_hidl_notifyDisableResponseEPNS_4hidl4base4V1_08BnHwBaseERKNS0_6ParcelEPS9_NSt3__18functionIFvRS9_EEE
_ZN7android8hardware4wifi4V1_029BnHwWifiNanIfaceEventCallback28_hidl_eventPublishTerminatedEPNS_4hidl4base4V1_08BnHwBaseERKNS0_6ParcelEPS9_NSt3__18functionIFvRS9_EEE
_ZN7android8hardware4wifi4V1_029BnHwWifiNanIfaceEventCallback29_hidl_eventDataPathTerminatedEPNS_4hidl4base4V1_08BnHwBaseERKNS0_6ParcelEPS9_NSt3__18functionIFvRS9_EEE
_ZN7android8hardware4wifi4V1_029BnHwWifiNanIfaceEventCallback30_hidl_eventSubscribeTerminatedEPNS_4hidl4base4V1_08BnHwBaseERKNS0_6ParcelEPS9_NSt3__18functionIFvRS9_EEE
_ZN7android8hardware4wifi4V1_029BnHwWifiNanIfaceEventCallback31_hidl_notifyStopPublishResponseEPNS_4hidl4base4V1_08BnHwBaseERKNS0_6ParcelEPS9_NSt3__18functionIFvRS9_EEE
_ZN7android8hardware4wifi4V1_029BnHwWifiNanIfaceEventCallback32_hidl_notifyCapabilitiesResponseEPNS_4hidl4base4V1_08BnHwBaseERKNS0_6ParcelEPS9_NSt3__18functionIFvRS9_EEE
_ZN7android8hardware4wifi4V1_029BnHwWifiNanIfaceEventCallback32_hidl_notifyStartPublishResponseEPNS_4hidl4base4V1_08BnHwBaseERKNS0_6ParcelEPS9_NSt3__18functionIFvRS9_EEE
_ZN7android8hardware4wifi4V1_029BnHwWifiNanIfaceEventCallback33_hidl_notifyStopSubscribeResponseEPNS_4hidl4base4V1_08BnHwBaseERKNS0_6ParcelEPS9_NSt3__18functionIFvRS9_EEE
_ZN7android8hardware4wifi4V1_029BnHwWifiNanIfaceEventCallback34_hidl_notifyStartSubscribeResponseEPNS_4hidl4base4V1_08BnHwBaseERKNS0_6ParcelEPS9_NSt3__18functionIFvRS9_EEE
_ZN7android8hardware4wifi4V1_029BnHwWifiNanIfaceEventCallback36_hidl_notifyInitiateDataPathResponseEPNS_4hidl4base4V1_08BnHwBaseERKNS0_6ParcelEPS9_NSt3__18functionIFvRS9_EEE
_ZN7android8hardware4wifi4V1_029BnHwWifiNanIfaceEventCallback36_hidl_notifyTransmitFollowupResponseEPNS_4hidl4base4V1_08BnHwBaseERKNS0_6ParcelEPS9_NSt3__18functionIFvRS9_EEE
_ZN7android8hardware4wifi4V1_029BnHwWifiNanIfaceEventCallback37_hidl_notifyTerminateDataPathResponseEPNS_4hidl4base4V1_08BnHwBaseERKNS0_6ParcelEPS9_NSt3__18functionIFvRS9_EEE
_ZN7android8hardware4wifi4V1_029BnHwWifiNanIfaceEventCallback39_hidl_notifyCreateDataInterfaceResponseEPNS_4hidl4base4V1_08BnHwBaseERKNS0_6ParcelEPS9_NSt3__18functionIFvRS9_EEE
_ZN7android8hardware4wifi4V1_029BnHwWifiNanIfaceEventCallback39_hidl_notifyDeleteDataInterfaceResponseEPNS_4hidl4base4V1_08BnHwBaseERKNS0_6ParcelEPS9_NSt3__18functionIFvRS9_EEE
_ZN7android8hardware4wifi4V1_029BnHwWifiNanIfaceEventCallback47_hidl_notifyRespondToDataPathIndicationResponseEPNS_4hidl4base4V1_08BnHwBaseERKNS0_6ParcelEPS9_NSt3__18functionIFvRS9_EEE
_ZN7android8hardware4wifi4V1_029BnHwWifiNanIfaceEventCallback4pingEv
_ZN7android8hardware4wifi4V1_029BnHwWifiNanIfaceEventCallbackC1ERKNS_2spINS2_26IWifiNanIfaceEventCallbackEEE
_ZN7android8hardware4wifi4V1_029BnHwWifiNanIfaceEventCallbackC2ERKNS_2spINS2_26IWifiNanIfaceEventCallbackEEE
_ZN7android8hardware4wifi4V1_029BnHwWifiNanIfaceEventCallbackD0Ev
_ZN7android8hardware4wifi4V1_029BnHwWifiNanIfaceEventCallbackD1Ev
_ZN7android8hardware4wifi4V1_029BnHwWifiNanIfaceEventCallbackD2Ev
_ZN7android8hardware4wifi4V1_029BnHwWifiStaIfaceEventCallback10onTransactEjRKNS0_6ParcelEPS4_jNSt3__18functionIFvRS4_EEE
_ZN7android8hardware4wifi4V1_029BnHwWifiStaIfaceEventCallback12getDebugInfoENSt3__18functionIFvRKNS_4hidl4base4V1_09DebugInfoEEEE
_ZN7android8hardware4wifi4V1_029BnHwWifiStaIfaceEventCallback29_hidl_onBackgroundScanFailureEPNS_4hidl4base4V1_08BnHwBaseERKNS0_6ParcelEPS9_NSt3__18functionIFvRS9_EEE
_ZN7android8hardware4wifi4V1_029BnHwWifiStaIfaceEventCallback29_hidl_onBackgroundScanResultsEPNS_4hidl4base4V1_08BnHwBaseERKNS0_6ParcelEPS9_NSt3__18functionIFvRS9_EEE
_ZN7android8hardware4wifi4V1_029BnHwWifiStaIfaceEventCallback29_hidl_onRssiThresholdBreachedEPNS_4hidl4base4V1_08BnHwBaseERKNS0_6ParcelEPS9_NSt3__18functionIFvRS9_EEE
_ZN7android8hardware4wifi4V1_029BnHwWifiStaIfaceEventCallback32_hidl_onBackgroundFullScanResultEPNS_4hidl4base4V1_08BnHwBaseERKNS0_6ParcelEPS9_NSt3__18functionIFvRS9_EEE
_ZN7android8hardware4wifi4V1_029BnHwWifiStaIfaceEventCallback4pingEv
_ZN7android8hardware4wifi4V1_029BnHwWifiStaIfaceEventCallbackC1ERKNS_2spINS2_26IWifiStaIfaceEventCallbackEEE
_ZN7android8hardware4wifi4V1_029BnHwWifiStaIfaceEventCallbackC2ERKNS_2spINS2_26IWifiStaIfaceEventCallbackEEE
_ZN7android8hardware4wifi4V1_029BnHwWifiStaIfaceEventCallbackD0Ev
_ZN7android8hardware4wifi4V1_029BnHwWifiStaIfaceEventCallbackD1Ev
_ZN7android8hardware4wifi4V1_029BnHwWifiStaIfaceEventCallbackD2Ev
_ZN7android8hardware4wifi4V1_029BpHwWifiNanIfaceEventCallback10eventMatchERKNS2_11NanMatchIndE
_ZN7android8hardware4wifi4V1_029BpHwWifiNanIfaceEventCallback11linkToDeathERKNS_2spINS0_20hidl_death_recipientEEEm
_ZN7android8hardware4wifi4V1_029BpHwWifiNanIfaceEventCallback12getDebugInfoENSt3__18functionIFvRKNS_4hidl4base4V1_09DebugInfoEEEE
_ZN7android8hardware4wifi4V1_029BpHwWifiNanIfaceEventCallback12getHashChainENSt3__18functionIFvRKNS0_8hidl_vecINS0_10hidl_arrayIhLm32EJEEEEEEEE
_ZN7android8hardware4wifi4V1_029BpHwWifiNanIfaceEventCallback13eventDisabledERKNS2_13WifiNanStatusE
_ZN7android8hardware4wifi4V1_029BpHwWifiNanIfaceEventCallback13unlinkToDeathERKNS_2spINS0_20hidl_death_recipientEEE
_ZN7android8hardware4wifi4V1_029BpHwWifiNanIfaceEventCallback14interfaceChainENSt3__18functionIFvRKNS0_8hidl_vecINS0_11hidl_stringEEEEEE
_ZN7android8hardware4wifi4V1_029BpHwWifiNanIfaceEventCallback16_hidl_eventMatchEPNS0_10IInterfaceEPNS0_7details16HidlInstrumentorERKNS2_11NanMatchIndE
_ZN7android8hardware4wifi4V1_029BpHwWifiNanIfaceEventCallback17eventClusterEventERKNS2_18NanClusterEventIndE
_ZN7android8hardware4wifi4V1_029BpHwWifiNanIfaceEventCallback17eventMatchExpiredEhj
_ZN7android8hardware4wifi4V1_029BpHwWifiNanIfaceEventCallback19_hidl_eventDisabledEPNS0_10IInterfaceEPNS0_7details16HidlInstrumentorERKNS2_13WifiNanStatusE
_ZN7android8hardware4wifi4V1_029BpHwWifiNanIfaceEventCallback19interfaceDescriptorENSt3__18functionIFvRKNS0_11hidl_stringEEEE
_ZN7android8hardware4wifi4V1_029BpHwWifiNanIfaceEventCallback20eventDataPathConfirmERKNS2_21NanDataPathConfirmIndE
_ZN7android8hardware4wifi4V1_029BpHwWifiNanIfaceEventCallback20eventDataPathRequestERKNS2_21NanDataPathRequestIndE
_ZN7android8hardware4wifi4V1_029BpHwWifiNanIfaceEventCallback20notifyConfigResponseEtRKNS2_13WifiNanStatusE
_ZN7android8hardware4wifi4V1_029BpHwWifiNanIfaceEventCallback20notifyEnableResponseEtRKNS2_13WifiNanStatusE
_ZN7android8hardware4wifi4V1_029BpHwWifiNanIfaceEventCallback21eventFollowupReceivedERKNS2_22NanFollowupReceivedIndE
_ZN7android8hardware4wifi4V1_029BpHwWifiNanIfaceEventCallback21eventTransmitFollowupEtRKNS2_13WifiNanStatusE
_ZN7android8hardware4wifi4V1_029BpHwWifiNanIfaceEventCallback21notifyDisableResponseEtRKNS2_13WifiNanStatusE
_ZN7android8hardware4wifi4V1_029BpHwWifiNanIfaceEventCallback21notifySyspropsChangedEv
_ZN7android8hardware4wifi4V1_029BpHwWifiNanIfaceEventCallback21setHALInstrumentationEv
_ZN7android8hardware4wifi4V1_029BpHwWifiNanIfaceEventCallback22eventPublishTerminatedEhRKNS2_13WifiNanStatusE
_ZN7android8hardware4wifi4V1_029BpHwWifiNanIfaceEventCallback23_hidl_eventClusterEventEPNS0_10IInterfaceEPNS0_7details16HidlInstrumentorERKNS2_18NanClusterEventIndE
_ZN7android8hardware4wifi4V1_029BpHwWifiNanIfaceEventCallback23_hidl_eventMatchExpiredEPNS0_10IInterfaceEPNS0_7details16HidlInstrumentorEhj
_ZN7android8hardware4wifi4V1_029BpHwWifiNanIfaceEventCallback23eventDataPathTerminatedEj
_ZN7android8hardware4wifi4V1_029BpHwWifiNanIfaceEventCallback24eventSubscribeTerminatedEhRKNS2_13WifiNanStatusE
_ZN7android8hardware4wifi4V1_029BpHwWifiNanIfaceEventCallback25notifyStopPublishResponseEtRKNS2_13WifiNanStatusE
_ZN7android8hardware4wifi4V1_029BpHwWifiNanIfaceEventCallback26_hidl_eventDataPathConfirmEPNS0_10IInterfaceEPNS0_7details16HidlInstrumentorERKNS2_21NanDataPathConfirmIndE
_ZN7android8hardware4wifi4V1_029BpHwWifiNanIfaceEventCallback26_hidl_eventDataPathRequestEPNS0_10IInterfaceEPNS0_7details16HidlInstrumentorERKNS2_21NanDataPathRequestIndE
_ZN7android8hardware4wifi4V1_029BpHwWifiNanIfaceEventCallback26_hidl_notifyConfigResponseEPNS0_10IInterfaceEPNS0_7details16HidlInstrumentorEtRKNS2_13WifiNanStatusE
_ZN7android8hardware4wifi4V1_029BpHwWifiNanIfaceEventCallback26_hidl_notifyEnableResponseEPNS0_10IInterfaceEPNS0_7details16HidlInstrumentorEtRKNS2_13WifiNanStatusE
_ZN7android8hardware4wifi4V1_029BpHwWifiNanIfaceEventCallback26notifyCapabilitiesResponseEtRKNS2_13WifiNanStatusERKNS2_15NanCapabilitiesE
_ZN7android8hardware4wifi4V1_029BpHwWifiNanIfaceEventCallback26notifyStartPublishResponseEtRKNS2_13WifiNanStatusEh
_ZN7android8hardware4wifi4V1_029BpHwWifiNanIfaceEventCallback27_hidl_eventFollowupReceivedEPNS0_10IInterfaceEPNS0_7details16HidlInstrumentorERKNS2_22NanFollowupReceivedIndE
_ZN7android8hardware4wifi4V1_029BpHwWifiNanIfaceEventCallback27_hidl_eventTransmitFollowupEPNS0_10IInterfaceEPNS0_7details16HidlInstrumentorEtRKNS2_13WifiNanStatusE
_ZN7android8hardware4wifi4V1_029BpHwWifiNanIfaceEventCallback27_hidl_notifyDisableResponseEPNS0_10IInterfaceEPNS0_7details16HidlInstrumentorEtRKNS2_13WifiNanStatusE
_ZN7android8hardware4wifi4V1_029BpHwWifiNanIfaceEventCallback27notifyStopSubscribeResponseEtRKNS2_13WifiNanStatusE
_ZN7android8hardware4wifi4V1_029BpHwWifiNanIfaceEventCallback28_hidl_eventPublishTerminatedEPNS0_10IInterfaceEPNS0_7details16HidlInstrumentorEhRKNS2_13WifiNanStatusE
_ZN7android8hardware4wifi4V1_029BpHwWifiNanIfaceEventCallback28notifyStartSubscribeResponseEtRKNS2_13WifiNanStatusEh
_ZN7android8hardware4wifi4V1_029BpHwWifiNanIfaceEventCallback29_hidl_eventDataPathTerminatedEPNS0_10IInterfaceEPNS0_7details16HidlInstrumentorEj
_ZN7android8hardware4wifi4V1_029BpHwWifiNanIfaceEventCallback30_hidl_eventSubscribeTerminatedEPNS0_10IInterfaceEPNS0_7details16HidlInstrumentorEhRKNS2_13WifiNanStatusE
_ZN7android8hardware4wifi4V1_029BpHwWifiNanIfaceEventCallback30notifyInitiateDataPathResponseEtRKNS2_13WifiNanStatusEj
_ZN7android8hardware4wifi4V1_029BpHwWifiNanIfaceEventCallback30notifyTransmitFollowupResponseEtRKNS2_13WifiNanStatusE
_ZN7android8hardware4wifi4V1_029BpHwWifiNanIfaceEventCallback31_hidl_notifyStopPublishResponseEPNS0_10IInterfaceEPNS0_7details16HidlInstrumentorEtRKNS2_13WifiNanStatusE
_ZN7android8hardware4wifi4V1_029BpHwWifiNanIfaceEventCallback31notifyTerminateDataPathResponseEtRKNS2_13WifiNanStatusE
_ZN7android8hardware4wifi4V1_029BpHwWifiNanIfaceEventCallback32_hidl_notifyCapabilitiesResponseEPNS0_10IInterfaceEPNS0_7details16HidlInstrumentorEtRKNS2_13WifiNanStatusERKNS2_15NanCapabilitiesE
_ZN7android8hardware4wifi4V1_029BpHwWifiNanIfaceEventCallback32_hidl_notifyStartPublishResponseEPNS0_10IInterfaceEPNS0_7details16HidlInstrumentorEtRKNS2_13WifiNanStatusEh
_ZN7android8hardware4wifi4V1_029BpHwWifiNanIfaceEventCallback33_hidl_notifyStopSubscribeResponseEPNS0_10IInterfaceEPNS0_7details16HidlInstrumentorEtRKNS2_13WifiNanStatusE
_ZN7android8hardware4wifi4V1_029BpHwWifiNanIfaceEventCallback33notifyCreateDataInterfaceResponseEtRKNS2_13WifiNanStatusE
_ZN7android8hardware4wifi4V1_029BpHwWifiNanIfaceEventCallback33notifyDeleteDataInterfaceResponseEtRKNS2_13WifiNanStatusE
_ZN7android8hardware4wifi4V1_029BpHwWifiNanIfaceEventCallback34_hidl_notifyStartSubscribeResponseEPNS0_10IInterfaceEPNS0_7details16HidlInstrumentorEtRKNS2_13WifiNanStatusEh
_ZN7android8hardware4wifi4V1_029BpHwWifiNanIfaceEventCallback36_hidl_notifyInitiateDataPathResponseEPNS0_10IInterfaceEPNS0_7details16HidlInstrumentorEtRKNS2_13WifiNanStatusEj
_ZN7android8hardware4wifi4V1_029BpHwWifiNanIfaceEventCallback36_hidl_notifyTransmitFollowupResponseEPNS0_10IInterfaceEPNS0_7details16HidlInstrumentorEtRKNS2_13WifiNanStatusE
_ZN7android8hardware4wifi4V1_029BpHwWifiNanIfaceEventCallback37_hidl_notifyTerminateDataPathResponseEPNS0_10IInterfaceEPNS0_7details16HidlInstrumentorEtRKNS2_13WifiNanStatusE
_ZN7android8hardware4wifi4V1_029BpHwWifiNanIfaceEventCallback39_hidl_notifyCreateDataInterfaceResponseEPNS0_10IInterfaceEPNS0_7details16HidlInstrumentorEtRKNS2_13WifiNanStatusE
_ZN7android8hardware4wifi4V1_029BpHwWifiNanIfaceEventCallback39_hidl_notifyDeleteDataInterfaceResponseEPNS0_10IInterfaceEPNS0_7details16HidlInstrumentorEtRKNS2_13WifiNanStatusE
_ZN7android8hardware4wifi4V1_029BpHwWifiNanIfaceEventCallback41notifyRespondToDataPathIndicationResponseEtRKNS2_13WifiNanStatusE
_ZN7android8hardware4wifi4V1_029BpHwWifiNanIfaceEventCallback47_hidl_notifyRespondToDataPathIndicationResponseEPNS0_10IInterfaceEPNS0_7details16HidlInstrumentorEtRKNS2_13WifiNanStatusE
_ZN7android8hardware4wifi4V1_029BpHwWifiNanIfaceEventCallback4pingEv
_ZN7android8hardware4wifi4V1_029BpHwWifiNanIfaceEventCallback5debugERKNS0_11hidl_handleERKNS0_8hidl_vecINS0_11hidl_stringEEE
_ZN7android8hardware4wifi4V1_029BpHwWifiNanIfaceEventCallbackC1ERKNS_2spINS0_7IBinderEEE
_ZN7android8hardware4wifi4V1_029BpHwWifiNanIfaceEventCallbackC2ERKNS_2spINS0_7IBinderEEE
_ZN7android8hardware4wifi4V1_029BpHwWifiStaIfaceEventCallback11linkToDeathERKNS_2spINS0_20hidl_death_recipientEEEm
_ZN7android8hardware4wifi4V1_029BpHwWifiStaIfaceEventCallback12getDebugInfoENSt3__18functionIFvRKNS_4hidl4base4V1_09DebugInfoEEEE
_ZN7android8hardware4wifi4V1_029BpHwWifiStaIfaceEventCallback12getHashChainENSt3__18functionIFvRKNS0_8hidl_vecINS0_10hidl_arrayIhLm32EJEEEEEEEE
_ZN7android8hardware4wifi4V1_029BpHwWifiStaIfaceEventCallback13unlinkToDeathERKNS_2spINS0_20hidl_death_recipientEEE
_ZN7android8hardware4wifi4V1_029BpHwWifiStaIfaceEventCallback14interfaceChainENSt3__18functionIFvRKNS0_8hidl_vecINS0_11hidl_stringEEEEEE
_ZN7android8hardware4wifi4V1_029BpHwWifiStaIfaceEventCallback19interfaceDescriptorENSt3__18functionIFvRKNS0_11hidl_stringEEEE
_ZN7android8hardware4wifi4V1_029BpHwWifiStaIfaceEventCallback21notifySyspropsChangedEv
_ZN7android8hardware4wifi4V1_029BpHwWifiStaIfaceEventCallback21setHALInstrumentationEv
_ZN7android8hardware4wifi4V1_029BpHwWifiStaIfaceEventCallback23onBackgroundScanFailureEj
_ZN7android8hardware4wifi4V1_029BpHwWifiStaIfaceEventCallback23onBackgroundScanResultsEjRKNS0_8hidl_vecINS2_11StaScanDataEEE
_ZN7android8hardware4wifi4V1_029BpHwWifiStaIfaceEventCallback23onRssiThresholdBreachedEjRKNS0_10hidl_arrayIhLm6EJEEEi
_ZN7android8hardware4wifi4V1_029BpHwWifiStaIfaceEventCallback26onBackgroundFullScanResultEjjRKNS2_13StaScanResultE
_ZN7android8hardware4wifi4V1_029BpHwWifiStaIfaceEventCallback29_hidl_onBackgroundScanFailureEPNS0_10IInterfaceEPNS0_7details16HidlInstrumentorEj
_ZN7android8hardware4wifi4V1_029BpHwWifiStaIfaceEventCallback29_hidl_onBackgroundScanResultsEPNS0_10IInterfaceEPNS0_7details16HidlInstrumentorEjRKNS0_8hidl_vecINS2_11StaScanDataEEE
_ZN7android8hardware4wifi4V1_029BpHwWifiStaIfaceEventCallback29_hidl_onRssiThresholdBreachedEPNS0_10IInterfaceEPNS0_7details16HidlInstrumentorEjRKNS0_10hidl_arrayIhLm6EJEEEi
_ZN7android8hardware4wifi4V1_029BpHwWifiStaIfaceEventCallback32_hidl_onBackgroundFullScanResultEPNS0_10IInterfaceEPNS0_7details16HidlInstrumentorEjjRKNS2_13StaScanResultE
_ZN7android8hardware4wifi4V1_029BpHwWifiStaIfaceEventCallback4pingEv
_ZN7android8hardware4wifi4V1_029BpHwWifiStaIfaceEventCallback5debugERKNS0_11hidl_handleERKNS0_8hidl_vecINS0_11hidl_stringEEE
_ZN7android8hardware4wifi4V1_029BpHwWifiStaIfaceEventCallbackC1ERKNS_2spINS0_7IBinderEEE
_ZN7android8hardware4wifi4V1_029BpHwWifiStaIfaceEventCallbackC2ERKNS_2spINS0_7IBinderEEE
_ZN7android8hardware4wifi4V1_031IWifiRttControllerEventCallback10descriptorE
_ZN7android8hardware4wifi4V1_031IWifiRttControllerEventCallback10getServiceERKNSt3__112basic_stringIcNS4_11char_traitsIcEENS4_9allocatorIcEEEEb
_ZN7android8hardware4wifi4V1_031IWifiRttControllerEventCallback11linkToDeathERKNS_2spINS0_20hidl_death_recipientEEEm
_ZN7android8hardware4wifi4V1_031IWifiRttControllerEventCallback12getDebugInfoENSt3__18functionIFvRKNS_4hidl4base4V1_09DebugInfoEEEE
_ZN7android8hardware4wifi4V1_031IWifiRttControllerEventCallback12getHashChainENSt3__18functionIFvRKNS0_8hidl_vecINS0_10hidl_arrayIhLm32EJEEEEEEEE
_ZN7android8hardware4wifi4V1_031IWifiRttControllerEventCallback13tryGetServiceERKNSt3__112basic_stringIcNS4_11char_traitsIcEENS4_9allocatorIcEEEEb
_ZN7android8hardware4wifi4V1_031IWifiRttControllerEventCallback13unlinkToDeathERKNS_2spINS0_20hidl_death_recipientEEE
_ZN7android8hardware4wifi4V1_031IWifiRttControllerEventCallback14interfaceChainENSt3__18functionIFvRKNS0_8hidl_vecINS0_11hidl_stringEEEEEE
_ZN7android8hardware4wifi4V1_031IWifiRttControllerEventCallback17registerAsServiceERKNSt3__112basic_stringIcNS4_11char_traitsIcEENS4_9allocatorIcEEEE
_ZN7android8hardware4wifi4V1_031IWifiRttControllerEventCallback19interfaceDescriptorENSt3__18functionIFvRKNS0_11hidl_stringEEEE
_ZN7android8hardware4wifi4V1_031IWifiRttControllerEventCallback21notifySyspropsChangedEv
_ZN7android8hardware4wifi4V1_031IWifiRttControllerEventCallback21setHALInstrumentationEv
_ZN7android8hardware4wifi4V1_031IWifiRttControllerEventCallback24registerForNotificationsERKNSt3__112basic_stringIcNS4_11char_traitsIcEENS4_9allocatorIcEEEERKNS_2spINS_4hidl7manager4V1_020IServiceNotificationEEE
_ZN7android8hardware4wifi4V1_031IWifiRttControllerEventCallback4pingEv
_ZN7android8hardware4wifi4V1_031IWifiRttControllerEventCallback5debugERKNS0_11hidl_handleERKNS0_8hidl_vecINS0_11hidl_stringEEE
_ZN7android8hardware4wifi4V1_031IWifiRttControllerEventCallback8castFromERKNS_2spINS_4hidl4base4V1_05IBaseEEEb
_ZN7android8hardware4wifi4V1_031IWifiRttControllerEventCallback8castFromERKNS_2spIS3_EEb
_ZN7android8hardware4wifi4V1_032BsWifiRttControllerEventCallback13addOnewayTaskENSt3__18functionIFvvEEE
_ZN7android8hardware4wifi4V1_032BsWifiRttControllerEventCallbackC1ENS_2spINS2_31IWifiRttControllerEventCallbackEEE
_ZN7android8hardware4wifi4V1_032BsWifiRttControllerEventCallbackC2ENS_2spINS2_31IWifiRttControllerEventCallbackEEE
_ZN7android8hardware4wifi4V1_034BnHwWifiRttControllerEventCallback10onTransactEjRKNS0_6ParcelEPS4_jNSt3__18functionIFvRS4_EEE
_ZN7android8hardware4wifi4V1_034BnHwWifiRttControllerEventCallback12getDebugInfoENSt3__18functionIFvRKNS_4hidl4base4V1_09DebugInfoEEEE
_ZN7android8hardware4wifi4V1_034BnHwWifiRttControllerEventCallback15_hidl_onResultsEPNS_4hidl4base4V1_08BnHwBaseERKNS0_6ParcelEPS9_NSt3__18functionIFvRS9_EEE
_ZN7android8hardware4wifi4V1_034BnHwWifiRttControllerEventCallback4pingEv
_ZN7android8hardware4wifi4V1_034BnHwWifiRttControllerEventCallbackC1ERKNS_2spINS2_31IWifiRttControllerEventCallbackEEE
_ZN7android8hardware4wifi4V1_034BnHwWifiRttControllerEventCallbackC2ERKNS_2spINS2_31IWifiRttControllerEventCallbackEEE
_ZN7android8hardware4wifi4V1_034BnHwWifiRttControllerEventCallbackD0Ev
_ZN7android8hardware4wifi4V1_034BnHwWifiRttControllerEventCallbackD1Ev
_ZN7android8hardware4wifi4V1_034BnHwWifiRttControllerEventCallbackD2Ev
_ZN7android8hardware4wifi4V1_034BpHwWifiRttControllerEventCallback11linkToDeathERKNS_2spINS0_20hidl_death_recipientEEEm
_ZN7android8hardware4wifi4V1_034BpHwWifiRttControllerEventCallback12getDebugInfoENSt3__18functionIFvRKNS_4hidl4base4V1_09DebugInfoEEEE
_ZN7android8hardware4wifi4V1_034BpHwWifiRttControllerEventCallback12getHashChainENSt3__18functionIFvRKNS0_8hidl_vecINS0_10hidl_arrayIhLm32EJEEEEEEEE
_ZN7android8hardware4wifi4V1_034BpHwWifiRttControllerEventCallback13unlinkToDeathERKNS_2spINS0_20hidl_death_recipientEEE
_ZN7android8hardware4wifi4V1_034BpHwWifiRttControllerEventCallback14interfaceChainENSt3__18functionIFvRKNS0_8hidl_vecINS0_11hidl_stringEEEEEE
_ZN7android8hardware4wifi4V1_034BpHwWifiRttControllerEventCallback15_hidl_onResultsEPNS0_10IInterfaceEPNS0_7details16HidlInstrumentorEjRKNS0_8hidl_vecINS2_9RttResultEEE
_ZN7android8hardware4wifi4V1_034BpHwWifiRttControllerEventCallback19interfaceDescriptorENSt3__18functionIFvRKNS0_11hidl_stringEEEE
_ZN7android8hardware4wifi4V1_034BpHwWifiRttControllerEventCallback21notifySyspropsChangedEv
_ZN7android8hardware4wifi4V1_034BpHwWifiRttControllerEventCallback21setHALInstrumentationEv
_ZN7android8hardware4wifi4V1_034BpHwWifiRttControllerEventCallback4pingEv
_ZN7android8hardware4wifi4V1_034BpHwWifiRttControllerEventCallback5debugERKNS0_11hidl_handleERKNS0_8hidl_vecINS0_11hidl_stringEEE
_ZN7android8hardware4wifi4V1_034BpHwWifiRttControllerEventCallback9onResultsEjRKNS0_8hidl_vecINS2_9RttResultEEE
_ZN7android8hardware4wifi4V1_034BpHwWifiRttControllerEventCallbackC1ERKNS_2spINS0_7IBinderEEE
_ZN7android8hardware4wifi4V1_034BpHwWifiRttControllerEventCallbackC2ERKNS_2spINS0_7IBinderEEE
_ZN7android8hardware4wifi4V1_05IWifi10descriptorE
_ZN7android8hardware4wifi4V1_05IWifi10getServiceERKNSt3__112basic_stringIcNS4_11char_traitsIcEENS4_9allocatorIcEEEEb
_ZN7android8hardware4wifi4V1_05IWifi11linkToDeathERKNS_2spINS0_20hidl_death_recipientEEEm
_ZN7android8hardware4wifi4V1_05IWifi12getDebugInfoENSt3__18functionIFvRKNS_4hidl4base4V1_09DebugInfoEEEE
_ZN7android8hardware4wifi4V1_05IWifi12getHashChainENSt3__18functionIFvRKNS0_8hidl_vecINS0_10hidl_arrayIhLm32EJEEEEEEEE
_ZN7android8hardware4wifi4V1_05IWifi13tryGetServiceERKNSt3__112basic_stringIcNS4_11char_traitsIcEENS4_9allocatorIcEEEEb
_ZN7android8hardware4wifi4V1_05IWifi13unlinkToDeathERKNS_2spINS0_20hidl_death_recipientEEE
_ZN7android8hardware4wifi4V1_05IWifi14interfaceChainENSt3__18functionIFvRKNS0_8hidl_vecINS0_11hidl_stringEEEEEE
_ZN7android8hardware4wifi4V1_05IWifi17registerAsServiceERKNSt3__112basic_stringIcNS4_11char_traitsIcEENS4_9allocatorIcEEEE
_ZN7android8hardware4wifi4V1_05IWifi19interfaceDescriptorENSt3__18functionIFvRKNS0_11hidl_stringEEEE
_ZN7android8hardware4wifi4V1_05IWifi21notifySyspropsChangedEv
_ZN7android8hardware4wifi4V1_05IWifi21setHALInstrumentationEv
_ZN7android8hardware4wifi4V1_05IWifi24registerForNotificationsERKNSt3__112basic_stringIcNS4_11char_traitsIcEENS4_9allocatorIcEEEERKNS_2spINS_4hidl7manager4V1_020IServiceNotificationEEE
_ZN7android8hardware4wifi4V1_05IWifi4pingEv
_ZN7android8hardware4wifi4V1_05IWifi5debugERKNS0_11hidl_handleERKNS0_8hidl_vecINS0_11hidl_stringEEE
_ZN7android8hardware4wifi4V1_05IWifi8castFromERKNS_2spINS_4hidl4base4V1_05IBaseEEEb
_ZN7android8hardware4wifi4V1_05IWifi8castFromERKNS_2spIS3_EEb
_ZN7android8hardware4wifi4V1_06BsWifi13addOnewayTaskENSt3__18functionIFvvEEE
_ZN7android8hardware4wifi4V1_06BsWifiC1ENS_2spINS2_5IWifiEEE
_ZN7android8hardware4wifi4V1_06BsWifiC2ENS_2spINS2_5IWifiEEE
_ZN7android8hardware4wifi4V1_08BnHwWifi10_hidl_stopEPNS_4hidl4base4V1_08BnHwBaseERKNS0_6ParcelEPS9_NSt3__18functionIFvRS9_EEE
_ZN7android8hardware4wifi4V1_08BnHwWifi10onTransactEjRKNS0_6ParcelEPS4_jNSt3__18functionIFvRS4_EEE
_ZN7android8hardware4wifi4V1_08BnHwWifi11_hidl_startEPNS_4hidl4base4V1_08BnHwBaseERKNS0_6ParcelEPS9_NSt3__18functionIFvRS9_EEE
_ZN7android8hardware4wifi4V1_08BnHwWifi12getDebugInfoENSt3__18functionIFvRKNS_4hidl4base4V1_09DebugInfoEEEE
_ZN7android8hardware4wifi4V1_08BnHwWifi13_hidl_getChipEPNS_4hidl4base4V1_08BnHwBaseERKNS0_6ParcelEPS9_NSt3__18functionIFvRS9_EEE
_ZN7android8hardware4wifi4V1_08BnHwWifi15_hidl_isStartedEPNS_4hidl4base4V1_08BnHwBaseERKNS0_6ParcelEPS9_NSt3__18functionIFvRS9_EEE
_ZN7android8hardware4wifi4V1_08BnHwWifi16_hidl_getChipIdsEPNS_4hidl4base4V1_08BnHwBaseERKNS0_6ParcelEPS9_NSt3__18functionIFvRS9_EEE
_ZN7android8hardware4wifi4V1_08BnHwWifi27_hidl_registerEventCallbackEPNS_4hidl4base4V1_08BnHwBaseERKNS0_6ParcelEPS9_NSt3__18functionIFvRS9_EEE
_ZN7android8hardware4wifi4V1_08BnHwWifi4pingEv
_ZN7android8hardware4wifi4V1_08BnHwWifiC1ERKNS_2spINS2_5IWifiEEE
_ZN7android8hardware4wifi4V1_08BnHwWifiC2ERKNS_2spINS2_5IWifiEEE
_ZN7android8hardware4wifi4V1_08BnHwWifiD0Ev
_ZN7android8hardware4wifi4V1_08BnHwWifiD1Ev
_ZN7android8hardware4wifi4V1_08BnHwWifiD2Ev
_ZN7android8hardware4wifi4V1_08BpHwWifi10_hidl_stopEPNS0_10IInterfaceEPNS0_7details16HidlInstrumentorENSt3__18functionIFvRKNS2_10WifiStatusEEEE
_ZN7android8hardware4wifi4V1_08BpHwWifi10getChipIdsENSt3__18functionIFvRKNS2_10WifiStatusERKNS0_8hidl_vecIjEEEEE
_ZN7android8hardware4wifi4V1_08BpHwWifi11_hidl_startEPNS0_10IInterfaceEPNS0_7details16HidlInstrumentorENSt3__18functionIFvRKNS2_10WifiStatusEEEE
_ZN7android8hardware4wifi4V1_08BpHwWifi11linkToDeathERKNS_2spINS0_20hidl_death_recipientEEEm
_ZN7android8hardware4wifi4V1_08BpHwWifi12getDebugInfoENSt3__18functionIFvRKNS_4hidl4base4V1_09DebugInfoEEEE
_ZN7android8hardware4wifi4V1_08BpHwWifi12getHashChainENSt3__18functionIFvRKNS0_8hidl_vecINS0_10hidl_arrayIhLm32EJEEEEEEEE
_ZN7android8hardware4wifi4V1_08BpHwWifi13_hidl_getChipEPNS0_10IInterfaceEPNS0_7details16HidlInstrumentorEjNSt3__18functionIFvRKNS2_10WifiStatusERKNS_2spINS2_9IWifiChipEEEEEE
_ZN7android8hardware4wifi4V1_08BpHwWifi13unlinkToDeathERKNS_2spINS0_20hidl_death_recipientEEE
_ZN7android8hardware4wifi4V1_08BpHwWifi14interfaceChainENSt3__18functionIFvRKNS0_8hidl_vecINS0_11hidl_stringEEEEEE
_ZN7android8hardware4wifi4V1_08BpHwWifi15_hidl_isStartedEPNS0_10IInterfaceEPNS0_7details16HidlInstrumentorE
_ZN7android8hardware4wifi4V1_08BpHwWifi16_hidl_getChipIdsEPNS0_10IInterfaceEPNS0_7details16HidlInstrumentorENSt3__18functionIFvRKNS2_10WifiStatusERKNS0_8hidl_vecIjEEEEE
_ZN7android8hardware4wifi4V1_08BpHwWifi19interfaceDescriptorENSt3__18functionIFvRKNS0_11hidl_stringEEEE
_ZN7android8hardware4wifi4V1_08BpHwWifi21notifySyspropsChangedEv
_ZN7android8hardware4wifi4V1_08BpHwWifi21registerEventCallbackERKNS_2spINS2_18IWifiEventCallbackEEENSt3__18functionIFvRKNS2_10WifiStatusEEEE
_ZN7android8hardware4wifi4V1_08BpHwWifi21setHALInstrumentationEv
_ZN7android8hardware4wifi4V1_08BpHwWifi27_hidl_registerEventCallbackEPNS0_10IInterfaceEPNS0_7details16HidlInstrumentorERKNS_2spINS2_18IWifiEventCallbackEEENSt3__18functionIFvRKNS2_10WifiStatusEEEE
_ZN7android8hardware4wifi4V1_08BpHwWifi4pingEv
_ZN7android8hardware4wifi4V1_08BpHwWifi4stopENSt3__18functionIFvRKNS2_10WifiStatusEEEE
_ZN7android8hardware4wifi4V1_08BpHwWifi5debugERKNS0_11hidl_handleERKNS0_8hidl_vecINS0_11hidl_stringEEE
_ZN7android8hardware4wifi4V1_08BpHwWifi5startENSt3__18functionIFvRKNS2_10WifiStatusEEEE
_ZN7android8hardware4wifi4V1_08BpHwWifi7getChipEjNSt3__18functionIFvRKNS2_10WifiStatusERKNS_2spINS2_9IWifiChipEEEEEE
_ZN7android8hardware4wifi4V1_08BpHwWifi9isStartedEv
_ZN7android8hardware4wifi4V1_08BpHwWifiC1ERKNS_2spINS0_7IBinderEEE
_ZN7android8hardware4wifi4V1_08BpHwWifiC2ERKNS_2spINS0_7IBinderEEE
_ZN7android8hardware4wifi4V1_09IWifiChip10descriptorE
_ZN7android8hardware4wifi4V1_09IWifiChip10getServiceERKNSt3__112basic_stringIcNS4_11char_traitsIcEENS4_9allocatorIcEEEEb
_ZN7android8hardware4wifi4V1_09IWifiChip11linkToDeathERKNS_2spINS0_20hidl_death_recipientEEEm
_ZN7android8hardware4wifi4V1_09IWifiChip12getDebugInfoENSt3__18functionIFvRKNS_4hidl4base4V1_09DebugInfoEEEE
_ZN7android8hardware4wifi4V1_09IWifiChip12getHashChainENSt3__18functionIFvRKNS0_8hidl_vecINS0_10hidl_arrayIhLm32EJEEEEEEEE
_ZN7android8hardware4wifi4V1_09IWifiChip13tryGetServiceERKNSt3__112basic_stringIcNS4_11char_traitsIcEENS4_9allocatorIcEEEEb
_ZN7android8hardware4wifi4V1_09IWifiChip13unlinkToDeathERKNS_2spINS0_20hidl_death_recipientEEE
_ZN7android8hardware4wifi4V1_09IWifiChip14interfaceChainENSt3__18functionIFvRKNS0_8hidl_vecINS0_11hidl_stringEEEEEE
_ZN7android8hardware4wifi4V1_09IWifiChip17registerAsServiceERKNSt3__112basic_stringIcNS4_11char_traitsIcEENS4_9allocatorIcEEEE
_ZN7android8hardware4wifi4V1_09IWifiChip19interfaceDescriptorENSt3__18functionIFvRKNS0_11hidl_stringEEEE
_ZN7android8hardware4wifi4V1_09IWifiChip21notifySyspropsChangedEv
_ZN7android8hardware4wifi4V1_09IWifiChip21setHALInstrumentationEv
_ZN7android8hardware4wifi4V1_09IWifiChip24registerForNotificationsERKNSt3__112basic_stringIcNS4_11char_traitsIcEENS4_9allocatorIcEEEERKNS_2spINS_4hidl7manager4V1_020IServiceNotificationEEE
_ZN7android8hardware4wifi4V1_09IWifiChip4pingEv
_ZN7android8hardware4wifi4V1_09IWifiChip5debugERKNS0_11hidl_handleERKNS0_8hidl_vecINS0_11hidl_stringEEE
_ZN7android8hardware4wifi4V1_09IWifiChip8castFromERKNS_2spINS_4hidl4base4V1_05IBaseEEEb
_ZN7android8hardware4wifi4V1_09IWifiChip8castFromERKNS_2spIS3_EEb
_ZTCN7android8hardware4wifi4V1_010IWifiIfaceE0_NS_4hidl4base4V1_05IBaseE
_ZTCN7android8hardware4wifi4V1_012BnHwWifiChipE0_NS0_7IBinderE
_ZTCN7android8hardware4wifi4V1_012BnHwWifiChipE0_NS0_9BHwBinderE
_ZTCN7android8hardware4wifi4V1_012BnHwWifiChipE0_NS_4hidl4base4V1_08BnHwBaseE
_ZTCN7android8hardware4wifi4V1_012BpHwWifiChipE0_NS0_11BpInterfaceINS2_9IWifiChipEEE
_ZTCN7android8hardware4wifi4V1_012BpHwWifiChipE0_NS2_9IWifiChipE
_ZTCN7android8hardware4wifi4V1_012BpHwWifiChipE0_NS_4hidl4base4V1_05IBaseE
_ZTCN7android8hardware4wifi4V1_012BpHwWifiChipE16_NS0_11BpHwRefBaseE
_ZTCN7android8hardware4wifi4V1_012BpHwWifiChipE8_NS0_10IInterfaceE
_ZTCN7android8hardware4wifi4V1_012IWifiApIfaceE0_NS2_10IWifiIfaceE
_ZTCN7android8hardware4wifi4V1_012IWifiApIfaceE0_NS_4hidl4base4V1_05IBaseE
_ZTCN7android8hardware4wifi4V1_013BnHwWifiIfaceE0_NS0_7IBinderE
_ZTCN7android8hardware4wifi4V1_013BnHwWifiIfaceE0_NS0_9BHwBinderE
_ZTCN7android8hardware4wifi4V1_013BnHwWifiIfaceE0_NS_4hidl4base4V1_08BnHwBaseE
_ZTCN7android8hardware4wifi4V1_013BpHwWifiIfaceE0_NS0_11BpInterfaceINS2_10IWifiIfaceEEE
_ZTCN7android8hardware4wifi4V1_013BpHwWifiIfaceE0_NS2_10IWifiIfaceE
_ZTCN7android8hardware4wifi4V1_013BpHwWifiIfaceE0_NS_4hidl4base4V1_05IBaseE
_ZTCN7android8hardware4wifi4V1_013BpHwWifiIfaceE16_NS0_11BpHwRefBaseE
_ZTCN7android8hardware4wifi4V1_013BpHwWifiIfaceE8_NS0_10IInterfaceE
_ZTCN7android8hardware4wifi4V1_013IWifiNanIfaceE0_NS2_10IWifiIfaceE
_ZTCN7android8hardware4wifi4V1_013IWifiNanIfaceE0_NS_4hidl4base4V1_05IBaseE
_ZTCN7android8hardware4wifi4V1_013IWifiP2pIfaceE0_NS2_10IWifiIfaceE
_ZTCN7android8hardware4wifi4V1_013IWifiP2pIfaceE0_NS_4hidl4base4V1_05IBaseE
_ZTCN7android8hardware4wifi4V1_013IWifiStaIfaceE0_NS2_10IWifiIfaceE
_ZTCN7android8hardware4wifi4V1_013IWifiStaIfaceE0_NS_4hidl4base4V1_05IBaseE
_ZTCN7android8hardware4wifi4V1_015BnHwWifiApIfaceE0_NS0_7IBinderE
_ZTCN7android8hardware4wifi4V1_015BnHwWifiApIfaceE0_NS0_9BHwBinderE
_ZTCN7android8hardware4wifi4V1_015BnHwWifiApIfaceE0_NS_4hidl4base4V1_08BnHwBaseE
_ZTCN7android8hardware4wifi4V1_015BpHwWifiApIfaceE0_NS0_11BpInterfaceINS2_12IWifiApIfaceEEE
_ZTCN7android8hardware4wifi4V1_015BpHwWifiApIfaceE0_NS2_10IWifiIfaceE
_ZTCN7android8hardware4wifi4V1_015BpHwWifiApIfaceE0_NS2_12IWifiApIfaceE
_ZTCN7android8hardware4wifi4V1_015BpHwWifiApIfaceE0_NS_4hidl4base4V1_05IBaseE
_ZTCN7android8hardware4wifi4V1_015BpHwWifiApIfaceE16_NS0_11BpHwRefBaseE
_ZTCN7android8hardware4wifi4V1_015BpHwWifiApIfaceE8_NS0_10IInterfaceE
_ZTCN7android8hardware4wifi4V1_016BnHwWifiNanIfaceE0_NS0_7IBinderE
_ZTCN7android8hardware4wifi4V1_016BnHwWifiNanIfaceE0_NS0_9BHwBinderE
_ZTCN7android8hardware4wifi4V1_016BnHwWifiNanIfaceE0_NS_4hidl4base4V1_08BnHwBaseE
_ZTCN7android8hardware4wifi4V1_016BnHwWifiP2pIfaceE0_NS0_7IBinderE
_ZTCN7android8hardware4wifi4V1_016BnHwWifiP2pIfaceE0_NS0_9BHwBinderE
_ZTCN7android8hardware4wifi4V1_016BnHwWifiP2pIfaceE0_NS_4hidl4base4V1_08BnHwBaseE
_ZTCN7android8hardware4wifi4V1_016BnHwWifiStaIfaceE0_NS0_7IBinderE
_ZTCN7android8hardware4wifi4V1_016BnHwWifiStaIfaceE0_NS0_9BHwBinderE
_ZTCN7android8hardware4wifi4V1_016BnHwWifiStaIfaceE0_NS_4hidl4base4V1_08BnHwBaseE
_ZTCN7android8hardware4wifi4V1_016BpHwWifiNanIfaceE0_NS0_11BpInterfaceINS2_13IWifiNanIfaceEEE
_ZTCN7android8hardware4wifi4V1_016BpHwWifiNanIfaceE0_NS2_10IWifiIfaceE
_ZTCN7android8hardware4wifi4V1_016BpHwWifiNanIfaceE0_NS2_13IWifiNanIfaceE
_ZTCN7android8hardware4wifi4V1_016BpHwWifiNanIfaceE0_NS_4hidl4base4V1_05IBaseE
_ZTCN7android8hardware4wifi4V1_016BpHwWifiNanIfaceE16_NS0_11BpHwRefBaseE
_ZTCN7android8hardware4wifi4V1_016BpHwWifiNanIfaceE8_NS0_10IInterfaceE
_ZTCN7android8hardware4wifi4V1_016BpHwWifiP2pIfaceE0_NS0_11BpInterfaceINS2_13IWifiP2pIfaceEEE
_ZTCN7android8hardware4wifi4V1_016BpHwWifiP2pIfaceE0_NS2_10IWifiIfaceE
_ZTCN7android8hardware4wifi4V1_016BpHwWifiP2pIfaceE0_NS2_13IWifiP2pIfaceE
_ZTCN7android8hardware4wifi4V1_016BpHwWifiP2pIfaceE0_NS_4hidl4base4V1_05IBaseE
_ZTCN7android8hardware4wifi4V1_016BpHwWifiP2pIfaceE16_NS0_11BpHwRefBaseE
_ZTCN7android8hardware4wifi4V1_016BpHwWifiP2pIfaceE8_NS0_10IInterfaceE
_ZTCN7android8hardware4wifi4V1_016BpHwWifiStaIfaceE0_NS0_11BpInterfaceINS2_13IWifiStaIfaceEEE
_ZTCN7android8hardware4wifi4V1_016BpHwWifiStaIfaceE0_NS2_10IWifiIfaceE
_ZTCN7android8hardware4wifi4V1_016BpHwWifiStaIfaceE0_NS2_13IWifiStaIfaceE
_ZTCN7android8hardware4wifi4V1_016BpHwWifiStaIfaceE0_NS_4hidl4base4V1_05IBaseE
_ZTCN7android8hardware4wifi4V1_016BpHwWifiStaIfaceE16_NS0_11BpHwRefBaseE
_ZTCN7android8hardware4wifi4V1_016BpHwWifiStaIfaceE8_NS0_10IInterfaceE
_ZTCN7android8hardware4wifi4V1_018IWifiEventCallbackE0_NS_4hidl4base4V1_05IBaseE
_ZTCN7android8hardware4wifi4V1_018IWifiRttControllerE0_NS_4hidl4base4V1_05IBaseE
_ZTCN7android8hardware4wifi4V1_021BnHwWifiEventCallbackE0_NS0_7IBinderE
_ZTCN7android8hardware4wifi4V1_021BnHwWifiEventCallbackE0_NS0_9BHwBinderE
_ZTCN7android8hardware4wifi4V1_021BnHwWifiEventCallbackE0_NS_4hidl4base4V1_08BnHwBaseE
_ZTCN7android8hardware4wifi4V1_021BnHwWifiRttControllerE0_NS0_7IBinderE
_ZTCN7android8hardware4wifi4V1_021BnHwWifiRttControllerE0_NS0_9BHwBinderE
_ZTCN7android8hardware4wifi4V1_021BnHwWifiRttControllerE0_NS_4hidl4base4V1_08BnHwBaseE
_ZTCN7android8hardware4wifi4V1_021BpHwWifiEventCallbackE0_NS0_11BpInterfaceINS2_18IWifiEventCallbackEEE
_ZTCN7android8hardware4wifi4V1_021BpHwWifiEventCallbackE0_NS2_18IWifiEventCallbackE
_ZTCN7android8hardware4wifi4V1_021BpHwWifiEventCallbackE0_NS_4hidl4base4V1_05IBaseE
_ZTCN7android8hardware4wifi4V1_021BpHwWifiEventCallbackE16_NS0_11BpHwRefBaseE
_ZTCN7android8hardware4wifi4V1_021BpHwWifiEventCallbackE8_NS0_10IInterfaceE
_ZTCN7android8hardware4wifi4V1_021BpHwWifiRttControllerE0_NS0_11BpInterfaceINS2_18IWifiRttControllerEEE
_ZTCN7android8hardware4wifi4V1_021BpHwWifiRttControllerE0_NS2_18IWifiRttControllerE
_ZTCN7android8hardware4wifi4V1_021BpHwWifiRttControllerE0_NS_4hidl4base4V1_05IBaseE
_ZTCN7android8hardware4wifi4V1_021BpHwWifiRttControllerE16_NS0_11BpHwRefBaseE
_ZTCN7android8hardware4wifi4V1_021BpHwWifiRttControllerE8_NS0_10IInterfaceE
_ZTCN7android8hardware4wifi4V1_022IWifiChipEventCallbackE0_NS_4hidl4base4V1_05IBaseE
_ZTCN7android8hardware4wifi4V1_025BnHwWifiChipEventCallbackE0_NS0_7IBinderE
_ZTCN7android8hardware4wifi4V1_025BnHwWifiChipEventCallbackE0_NS0_9BHwBinderE
_ZTCN7android8hardware4wifi4V1_025BnHwWifiChipEventCallbackE0_NS_4hidl4base4V1_08BnHwBaseE
_ZTCN7android8hardware4wifi4V1_025BpHwWifiChipEventCallbackE0_NS0_11BpInterfaceINS2_22IWifiChipEventCallbackEEE
_ZTCN7android8hardware4wifi4V1_025BpHwWifiChipEventCallbackE0_NS2_22IWifiChipEventCallbackE
_ZTCN7android8hardware4wifi4V1_025BpHwWifiChipEventCallbackE0_NS_4hidl4base4V1_05IBaseE
_ZTCN7android8hardware4wifi4V1_025BpHwWifiChipEventCallbackE16_NS0_11BpHwRefBaseE
_ZTCN7android8hardware4wifi4V1_025BpHwWifiChipEventCallbackE8_NS0_10IInterfaceE
_ZTCN7android8hardware4wifi4V1_026IWifiNanIfaceEventCallbackE0_NS_4hidl4base4V1_05IBaseE
_ZTCN7android8hardware4wifi4V1_026IWifiStaIfaceEventCallbackE0_NS_4hidl4base4V1_05IBaseE
_ZTCN7android8hardware4wifi4V1_029BnHwWifiNanIfaceEventCallbackE0_NS0_7IBinderE
_ZTCN7android8hardware4wifi4V1_029BnHwWifiNanIfaceEventCallbackE0_NS0_9BHwBinderE
_ZTCN7android8hardware4wifi4V1_029BnHwWifiNanIfaceEventCallbackE0_NS_4hidl4base4V1_08BnHwBaseE
_ZTCN7android8hardware4wifi4V1_029BnHwWifiStaIfaceEventCallbackE0_NS0_7IBinderE
_ZTCN7android8hardware4wifi4V1_029BnHwWifiStaIfaceEventCallbackE0_NS0_9BHwBinderE
_ZTCN7android8hardware4wifi4V1_029BnHwWifiStaIfaceEventCallbackE0_NS_4hidl4base4V1_08BnHwBaseE
_ZTCN7android8hardware4wifi4V1_029BpHwWifiNanIfaceEventCallbackE0_NS0_11BpInterfaceINS2_26IWifiNanIfaceEventCallbackEEE
_ZTCN7android8hardware4wifi4V1_029BpHwWifiNanIfaceEventCallbackE0_NS2_26IWifiNanIfaceEventCallbackE
_ZTCN7android8hardware4wifi4V1_029BpHwWifiNanIfaceEventCallbackE0_NS_4hidl4base4V1_05IBaseE
_ZTCN7android8hardware4wifi4V1_029BpHwWifiNanIfaceEventCallbackE16_NS0_11BpHwRefBaseE
_ZTCN7android8hardware4wifi4V1_029BpHwWifiNanIfaceEventCallbackE8_NS0_10IInterfaceE
_ZTCN7android8hardware4wifi4V1_029BpHwWifiStaIfaceEventCallbackE0_NS0_11BpInterfaceINS2_26IWifiStaIfaceEventCallbackEEE
_ZTCN7android8hardware4wifi4V1_029BpHwWifiStaIfaceEventCallbackE0_NS2_26IWifiStaIfaceEventCallbackE
_ZTCN7android8hardware4wifi4V1_029BpHwWifiStaIfaceEventCallbackE0_NS_4hidl4base4V1_05IBaseE
_ZTCN7android8hardware4wifi4V1_029BpHwWifiStaIfaceEventCallbackE16_NS0_11BpHwRefBaseE
_ZTCN7android8hardware4wifi4V1_029BpHwWifiStaIfaceEventCallbackE8_NS0_10IInterfaceE
_ZTCN7android8hardware4wifi4V1_031IWifiRttControllerEventCallbackE0_NS_4hidl4base4V1_05IBaseE
_ZTCN7android8hardware4wifi4V1_034BnHwWifiRttControllerEventCallbackE0_NS0_7IBinderE
_ZTCN7android8hardware4wifi4V1_034BnHwWifiRttControllerEventCallbackE0_NS0_9BHwBinderE
_ZTCN7android8hardware4wifi4V1_034BnHwWifiRttControllerEventCallbackE0_NS_4hidl4base4V1_08BnHwBaseE
_ZTCN7android8hardware4wifi4V1_034BpHwWifiRttControllerEventCallbackE0_NS0_11BpInterfaceINS2_31IWifiRttControllerEventCallbackEEE
_ZTCN7android8hardware4wifi4V1_034BpHwWifiRttControllerEventCallbackE0_NS2_31IWifiRttControllerEventCallbackE
_ZTCN7android8hardware4wifi4V1_034BpHwWifiRttControllerEventCallbackE0_NS_4hidl4base4V1_05IBaseE
_ZTCN7android8hardware4wifi4V1_034BpHwWifiRttControllerEventCallbackE16_NS0_11BpHwRefBaseE
_ZTCN7android8hardware4wifi4V1_034BpHwWifiRttControllerEventCallbackE8_NS0_10IInterfaceE
_ZTCN7android8hardware4wifi4V1_05IWifiE0_NS_4hidl4base4V1_05IBaseE
_ZTCN7android8hardware4wifi4V1_08BnHwWifiE0_NS0_7IBinderE
_ZTCN7android8hardware4wifi4V1_08BnHwWifiE0_NS0_9BHwBinderE
_ZTCN7android8hardware4wifi4V1_08BnHwWifiE0_NS_4hidl4base4V1_08BnHwBaseE
_ZTCN7android8hardware4wifi4V1_08BpHwWifiE0_NS0_11BpInterfaceINS2_5IWifiEEE
_ZTCN7android8hardware4wifi4V1_08BpHwWifiE0_NS2_5IWifiE
_ZTCN7android8hardware4wifi4V1_08BpHwWifiE0_NS_4hidl4base4V1_05IBaseE
_ZTCN7android8hardware4wifi4V1_08BpHwWifiE16_NS0_11BpHwRefBaseE
_ZTCN7android8hardware4wifi4V1_08BpHwWifiE8_NS0_10IInterfaceE
_ZTCN7android8hardware4wifi4V1_09IWifiChipE0_NS_4hidl4base4V1_05IBaseE
_ZTTN7android8hardware4wifi4V1_010IWifiIfaceE
_ZTTN7android8hardware4wifi4V1_012BnHwWifiChipE
_ZTTN7android8hardware4wifi4V1_012BpHwWifiChipE
_ZTTN7android8hardware4wifi4V1_012IWifiApIfaceE
_ZTTN7android8hardware4wifi4V1_013BnHwWifiIfaceE
_ZTTN7android8hardware4wifi4V1_013BpHwWifiIfaceE
_ZTTN7android8hardware4wifi4V1_013IWifiNanIfaceE
_ZTTN7android8hardware4wifi4V1_013IWifiP2pIfaceE
_ZTTN7android8hardware4wifi4V1_013IWifiStaIfaceE
_ZTTN7android8hardware4wifi4V1_015BnHwWifiApIfaceE
_ZTTN7android8hardware4wifi4V1_015BpHwWifiApIfaceE
_ZTTN7android8hardware4wifi4V1_016BnHwWifiNanIfaceE
_ZTTN7android8hardware4wifi4V1_016BnHwWifiP2pIfaceE
_ZTTN7android8hardware4wifi4V1_016BnHwWifiStaIfaceE
_ZTTN7android8hardware4wifi4V1_016BpHwWifiNanIfaceE
_ZTTN7android8hardware4wifi4V1_016BpHwWifiP2pIfaceE
_ZTTN7android8hardware4wifi4V1_016BpHwWifiStaIfaceE
_ZTTN7android8hardware4wifi4V1_018IWifiEventCallbackE
_ZTTN7android8hardware4wifi4V1_018IWifiRttControllerE
_ZTTN7android8hardware4wifi4V1_021BnHwWifiEventCallbackE
_ZTTN7android8hardware4wifi4V1_021BnHwWifiRttControllerE
_ZTTN7android8hardware4wifi4V1_021BpHwWifiEventCallbackE
_ZTTN7android8hardware4wifi4V1_021BpHwWifiRttControllerE
_ZTTN7android8hardware4wifi4V1_022IWifiChipEventCallbackE
_ZTTN7android8hardware4wifi4V1_025BnHwWifiChipEventCallbackE
_ZTTN7android8hardware4wifi4V1_025BpHwWifiChipEventCallbackE
_ZTTN7android8hardware4wifi4V1_026IWifiNanIfaceEventCallbackE
_ZTTN7android8hardware4wifi4V1_026IWifiStaIfaceEventCallbackE
_ZTTN7android8hardware4wifi4V1_029BnHwWifiNanIfaceEventCallbackE
_ZTTN7android8hardware4wifi4V1_029BnHwWifiStaIfaceEventCallbackE
_ZTTN7android8hardware4wifi4V1_029BpHwWifiNanIfaceEventCallbackE
_ZTTN7android8hardware4wifi4V1_029BpHwWifiStaIfaceEventCallbackE
_ZTTN7android8hardware4wifi4V1_031IWifiRttControllerEventCallbackE
_ZTTN7android8hardware4wifi4V1_034BnHwWifiRttControllerEventCallbackE
_ZTTN7android8hardware4wifi4V1_034BpHwWifiRttControllerEventCallbackE
_ZTTN7android8hardware4wifi4V1_05IWifiE
_ZTTN7android8hardware4wifi4V1_08BnHwWifiE
_ZTTN7android8hardware4wifi4V1_08BpHwWifiE
_ZTTN7android8hardware4wifi4V1_09IWifiChipE
_ZTVN7android8hardware4wifi4V1_010IWifiIfaceE
_ZTVN7android8hardware4wifi4V1_012BnHwWifiChipE
_ZTVN7android8hardware4wifi4V1_012BpHwWifiChipE
_ZTVN7android8hardware4wifi4V1_012IWifiApIfaceE
_ZTVN7android8hardware4wifi4V1_013BnHwWifiIfaceE
_ZTVN7android8hardware4wifi4V1_013BpHwWifiIfaceE
_ZTVN7android8hardware4wifi4V1_013IWifiNanIfaceE
_ZTVN7android8hardware4wifi4V1_013IWifiP2pIfaceE
_ZTVN7android8hardware4wifi4V1_013IWifiStaIfaceE
_ZTVN7android8hardware4wifi4V1_015BnHwWifiApIfaceE
_ZTVN7android8hardware4wifi4V1_015BpHwWifiApIfaceE
_ZTVN7android8hardware4wifi4V1_016BnHwWifiNanIfaceE
_ZTVN7android8hardware4wifi4V1_016BnHwWifiP2pIfaceE
_ZTVN7android8hardware4wifi4V1_016BnHwWifiStaIfaceE
_ZTVN7android8hardware4wifi4V1_016BpHwWifiNanIfaceE
_ZTVN7android8hardware4wifi4V1_016BpHwWifiP2pIfaceE
_ZTVN7android8hardware4wifi4V1_016BpHwWifiStaIfaceE
_ZTVN7android8hardware4wifi4V1_018IWifiEventCallbackE
_ZTVN7android8hardware4wifi4V1_018IWifiRttControllerE
_ZTVN7android8hardware4wifi4V1_021BnHwWifiEventCallbackE
_ZTVN7android8hardware4wifi4V1_021BnHwWifiRttControllerE
_ZTVN7android8hardware4wifi4V1_021BpHwWifiEventCallbackE
_ZTVN7android8hardware4wifi4V1_021BpHwWifiRttControllerE
_ZTVN7android8hardware4wifi4V1_022IWifiChipEventCallbackE
_ZTVN7android8hardware4wifi4V1_025BnHwWifiChipEventCallbackE
_ZTVN7android8hardware4wifi4V1_025BpHwWifiChipEventCallbackE
_ZTVN7android8hardware4wifi4V1_026IWifiNanIfaceEventCallbackE
_ZTVN7android8hardware4wifi4V1_026IWifiStaIfaceEventCallbackE
_ZTVN7android8hardware4wifi4V1_029BnHwWifiNanIfaceEventCallbackE
_ZTVN7android8hardware4wifi4V1_029BnHwWifiStaIfaceEventCallbackE
_ZTVN7android8hardware4wifi4V1_029BpHwWifiNanIfaceEventCallbackE
_ZTVN7android8hardware4wifi4V1_029BpHwWifiStaIfaceEventCallbackE
_ZTVN7android8hardware4wifi4V1_031IWifiRttControllerEventCallbackE
_ZTVN7android8hardware4wifi4V1_034BnHwWifiRttControllerEventCallbackE
_ZTVN7android8hardware4wifi4V1_034BpHwWifiRttControllerEventCallbackE
_ZTVN7android8hardware4wifi4V1_05IWifiE
_ZTVN7android8hardware4wifi4V1_08BnHwWifiE
_ZTVN7android8hardware4wifi4V1_08BpHwWifiE
_ZTVN7android8hardware4wifi4V1_09IWifiChipE
_ZThn32_N7android8hardware4wifi4V1_012BnHwWifiChipD0Ev
_ZThn32_N7android8hardware4wifi4V1_012BnHwWifiChipD1Ev
_ZThn32_N7android8hardware4wifi4V1_013BnHwWifiIfaceD0Ev
_ZThn32_N7android8hardware4wifi4V1_013BnHwWifiIfaceD1Ev
_ZThn32_N7android8hardware4wifi4V1_015BnHwWifiApIfaceD0Ev
_ZThn32_N7android8hardware4wifi4V1_015BnHwWifiApIfaceD1Ev
_ZThn32_N7android8hardware4wifi4V1_016BnHwWifiNanIfaceD0Ev
_ZThn32_N7android8hardware4wifi4V1_016BnHwWifiNanIfaceD1Ev
_ZThn32_N7android8hardware4wifi4V1_016BnHwWifiP2pIfaceD0Ev
_ZThn32_N7android8hardware4wifi4V1_016BnHwWifiP2pIfaceD1Ev
_ZThn32_N7android8hardware4wifi4V1_016BnHwWifiStaIfaceD0Ev
_ZThn32_N7android8hardware4wifi4V1_016BnHwWifiStaIfaceD1Ev
_ZThn32_N7android8hardware4wifi4V1_021BnHwWifiEventCallbackD0Ev
_ZThn32_N7android8hardware4wifi4V1_021BnHwWifiEventCallbackD1Ev
_ZThn32_N7android8hardware4wifi4V1_021BnHwWifiRttControllerD0Ev
_ZThn32_N7android8hardware4wifi4V1_021BnHwWifiRttControllerD1Ev
_ZThn32_N7android8hardware4wifi4V1_025BnHwWifiChipEventCallbackD0Ev
_ZThn32_N7android8hardware4wifi4V1_025BnHwWifiChipEventCallbackD1Ev
_ZThn32_N7android8hardware4wifi4V1_029BnHwWifiNanIfaceEventCallbackD0Ev
_ZThn32_N7android8hardware4wifi4V1_029BnHwWifiNanIfaceEventCallbackD1Ev
_ZThn32_N7android8hardware4wifi4V1_029BnHwWifiStaIfaceEventCallbackD0Ev
_ZThn32_N7android8hardware4wifi4V1_029BnHwWifiStaIfaceEventCallbackD1Ev
_ZThn32_N7android8hardware4wifi4V1_034BnHwWifiRttControllerEventCallbackD0Ev
_ZThn32_N7android8hardware4wifi4V1_034BnHwWifiRttControllerEventCallbackD1Ev
_ZThn32_N7android8hardware4wifi4V1_08BnHwWifiD0Ev
_ZThn32_N7android8hardware4wifi4V1_08BnHwWifiD1Ev
_ZTv0_n24_N7android8hardware4wifi4V1_012BnHwWifiChipD0Ev
_ZTv0_n24_N7android8hardware4wifi4V1_012BnHwWifiChipD1Ev
_ZTv0_n24_N7android8hardware4wifi4V1_013BnHwWifiIfaceD0Ev
_ZTv0_n24_N7android8hardware4wifi4V1_013BnHwWifiIfaceD1Ev
_ZTv0_n24_N7android8hardware4wifi4V1_015BnHwWifiApIfaceD0Ev
_ZTv0_n24_N7android8hardware4wifi4V1_015BnHwWifiApIfaceD1Ev
_ZTv0_n24_N7android8hardware4wifi4V1_016BnHwWifiNanIfaceD0Ev
_ZTv0_n24_N7android8hardware4wifi4V1_016BnHwWifiNanIfaceD1Ev
_ZTv0_n24_N7android8hardware4wifi4V1_016BnHwWifiP2pIfaceD0Ev
_ZTv0_n24_N7android8hardware4wifi4V1_016BnHwWifiP2pIfaceD1Ev
_ZTv0_n24_N7android8hardware4wifi4V1_016BnHwWifiStaIfaceD0Ev
_ZTv0_n24_N7android8hardware4wifi4V1_016BnHwWifiStaIfaceD1Ev
_ZTv0_n24_N7android8hardware4wifi4V1_021BnHwWifiEventCallbackD0Ev
_ZTv0_n24_N7android8hardware4wifi4V1_021BnHwWifiEventCallbackD1Ev
_ZTv0_n24_N7android8hardware4wifi4V1_021BnHwWifiRttControllerD0Ev
_ZTv0_n24_N7android8hardware4wifi4V1_021BnHwWifiRttControllerD1Ev
_ZTv0_n24_N7android8hardware4wifi4V1_025BnHwWifiChipEventCallbackD0Ev
_ZTv0_n24_N7android8hardware4wifi4V1_025BnHwWifiChipEventCallbackD1Ev
_ZTv0_n24_N7android8hardware4wifi4V1_029BnHwWifiNanIfaceEventCallbackD0Ev
_ZTv0_n24_N7android8hardware4wifi4V1_029BnHwWifiNanIfaceEventCallbackD1Ev
_ZTv0_n24_N7android8hardware4wifi4V1_029BnHwWifiStaIfaceEventCallbackD0Ev
_ZTv0_n24_N7android8hardware4wifi4V1_029BnHwWifiStaIfaceEventCallbackD1Ev
_ZTv0_n24_N7android8hardware4wifi4V1_034BnHwWifiRttControllerEventCallbackD0Ev
_ZTv0_n24_N7android8hardware4wifi4V1_034BnHwWifiRttControllerEventCallbackD1Ev
_ZTv0_n24_N7android8hardware4wifi4V1_08BnHwWifiD0Ev
_ZTv0_n24_N7android8hardware4wifi4V1_08BnHwWifiD1Ev
