_ZN7android8hardware5light4V2_06ILight10descriptorE
_ZN7android8hardware5light4V2_06ILight10getServiceERKNSt3__112basic_stringIcNS4_11char_traitsIcEENS4_9allocatorIcEEEEb
_ZN7android8hardware5light4V2_06ILight11linkToDeathERKNS_2spINS0_20hidl_death_recipientEEEm
_ZN7android8hardware5light4V2_06ILight12getDebugInfoENSt3__18functionIFvRKNS_4hidl4base4V1_09DebugInfoEEEE
_ZN7android8hardware5light4V2_06ILight12getHashChainENSt3__18functionIFvRKNS0_8hidl_vecINS0_10hidl_arrayIhLm32EJEEEEEEEE
_ZN7android8hardware5light4V2_06ILight13tryGetServiceERKNSt3__112basic_stringIcNS4_11char_traitsIcEENS4_9allocatorIcEEEEb
_ZN7android8hardware5light4V2_06ILight13unlinkToDeathERKNS_2spINS0_20hidl_death_recipientEEE
_ZN7android8hardware5light4V2_06ILight14interfaceChainENSt3__18functionIFvRKNS0_8hidl_vecINS0_11hidl_stringEEEEEE
_ZN7android8hardware5light4V2_06ILight17registerAsServiceERKNSt3__112basic_stringIcNS4_11char_traitsIcEENS4_9allocatorIcEEEE
_ZN7android8hardware5light4V2_06ILight19interfaceDescriptorENSt3__18functionIFvRKNS0_11hidl_stringEEEE
_ZN7android8hardware5light4V2_06ILight21notifySyspropsChangedEv
_ZN7android8hardware5light4V2_06ILight21setHALInstrumentationEv
_ZN7android8hardware5light4V2_06ILight24registerForNotificationsERKNSt3__112basic_stringIcNS4_11char_traitsIcEENS4_9allocatorIcEEEERKNS_2spINS_4hidl7manager4V1_020IServiceNotificationEEE
_ZN7android8hardware5light4V2_06ILight4pingEv
_ZN7android8hardware5light4V2_06ILight5debugERKNS0_11hidl_handleERKNS0_8hidl_vecINS0_11hidl_stringEEE
_ZN7android8hardware5light4V2_06ILight8castFromERKNS_2spINS_4hidl4base4V1_05IBaseEEEb
_ZN7android8hardware5light4V2_06ILight8castFromERKNS_2spIS3_EEb
_ZN7android8hardware5light4V2_07BsLight13addOnewayTaskENSt3__18functionIFvvEEE
_ZN7android8hardware5light4V2_07BsLightC1ENS_2spINS2_6ILightEEE
_ZN7android8hardware5light4V2_07BsLightC2ENS_2spINS2_6ILightEEE
_ZN7android8hardware5light4V2_09BnHwLight10onTransactEjRKNS0_6ParcelEPS4_jNSt3__18functionIFvRS4_EEE
_ZN7android8hardware5light4V2_09BnHwLight12getDebugInfoENSt3__18functionIFvRKNS_4hidl4base4V1_09DebugInfoEEEE
_ZN7android8hardware5light4V2_09BnHwLight14_hidl_setLightEPNS_4hidl4base4V1_08BnHwBaseERKNS0_6ParcelEPS9_NSt3__18functionIFvRS9_EEE
_ZN7android8hardware5light4V2_09BnHwLight23_hidl_getSupportedTypesEPNS_4hidl4base4V1_08BnHwBaseERKNS0_6ParcelEPS9_NSt3__18functionIFvRS9_EEE
_ZN7android8hardware5light4V2_09BnHwLight4pingEv
_ZN7android8hardware5light4V2_09BnHwLightC1ERKNS_2spINS2_6ILightEEE
_ZN7android8hardware5light4V2_09BnHwLightC2ERKNS_2spINS2_6ILightEEE
_ZN7android8hardware5light4V2_09BnHwLightD0Ev
_ZN7android8hardware5light4V2_09BnHwLightD1Ev
_ZN7android8hardware5light4V2_09BnHwLightD2Ev
_ZN7android8hardware5light4V2_09BpHwLight11linkToDeathERKNS_2spINS0_20hidl_death_recipientEEEm
_ZN7android8hardware5light4V2_09BpHwLight12getDebugInfoENSt3__18functionIFvRKNS_4hidl4base4V1_09DebugInfoEEEE
_ZN7android8hardware5light4V2_09BpHwLight12getHashChainENSt3__18functionIFvRKNS0_8hidl_vecINS0_10hidl_arrayIhLm32EJEEEEEEEE
_ZN7android8hardware5light4V2_09BpHwLight13unlinkToDeathERKNS_2spINS0_20hidl_death_recipientEEE
_ZN7android8hardware5light4V2_09BpHwLight14_hidl_setLightEPNS0_10IInterfaceEPNS0_7details16HidlInstrumentorENS2_4TypeERKNS2_10LightStateE
_ZN7android8hardware5light4V2_09BpHwLight14interfaceChainENSt3__18functionIFvRKNS0_8hidl_vecINS0_11hidl_stringEEEEEE
_ZN7android8hardware5light4V2_09BpHwLight17getSupportedTypesENSt3__18functionIFvRKNS0_8hidl_vecINS2_4TypeEEEEEE
_ZN7android8hardware5light4V2_09BpHwLight19interfaceDescriptorENSt3__18functionIFvRKNS0_11hidl_stringEEEE
_ZN7android8hardware5light4V2_09BpHwLight21notifySyspropsChangedEv
_ZN7android8hardware5light4V2_09BpHwLight21setHALInstrumentationEv
_ZN7android8hardware5light4V2_09BpHwLight23_hidl_getSupportedTypesEPNS0_10IInterfaceEPNS0_7details16HidlInstrumentorENSt3__18functionIFvRKNS0_8hidl_vecINS2_4TypeEEEEEE
_ZN7android8hardware5light4V2_09BpHwLight4pingEv
_ZN7android8hardware5light4V2_09BpHwLight5debugERKNS0_11hidl_handleERKNS0_8hidl_vecINS0_11hidl_stringEEE
_ZN7android8hardware5light4V2_09BpHwLight8setLightENS2_4TypeERKNS2_10LightStateE
_ZN7android8hardware5light4V2_09BpHwLightC1ERKNS_2spINS0_7IBinderEEE
_ZN7android8hardware5light4V2_09BpHwLightC2ERKNS_2spINS0_7IBinderEEE
_ZTCN7android8hardware5light4V2_06ILightE0_NS_4hidl4base4V1_05IBaseE
_ZTCN7android8hardware5light4V2_09BnHwLightE0_NS0_7IBinderE
_ZTCN7android8hardware5light4V2_09BnHwLightE0_NS0_9BHwBinderE
_ZTCN7android8hardware5light4V2_09BnHwLightE0_NS_4hidl4base4V1_08BnHwBaseE
_ZTCN7android8hardware5light4V2_09BpHwLightE0_NS0_11BpInterfaceINS2_6ILightEEE
_ZTCN7android8hardware5light4V2_09BpHwLightE0_NS2_6ILightE
_ZTCN7android8hardware5light4V2_09BpHwLightE0_NS_4hidl4base4V1_05IBaseE
_ZTCN7android8hardware5light4V2_09BpHwLightE16_NS0_11BpHwRefBaseE
_ZTCN7android8hardware5light4V2_09BpHwLightE8_NS0_10IInterfaceE
_ZTTN7android8hardware5light4V2_06ILightE
_ZTTN7android8hardware5light4V2_09BnHwLightE
_ZTTN7android8hardware5light4V2_09BpHwLightE
_ZTVN7android8hardware5light4V2_06ILightE
_ZTVN7android8hardware5light4V2_09BnHwLightE
_ZTVN7android8hardware5light4V2_09BpHwLightE
_ZThn32_N7android8hardware5light4V2_09BnHwLightD0Ev
_ZThn32_N7android8hardware5light4V2_09BnHwLightD1Ev
_ZTv0_n24_N7android8hardware5light4V2_09BnHwLightD0Ev
_ZTv0_n24_N7android8hardware5light4V2_09BnHwLightD1Ev
