_ZN7android8hardware10automotive7vehicle4V2_011BnHwVehicle10onTransactEjRKNS0_6ParcelEPS5_jNSt3__18functionIFvRS5_EEE
_ZN7android8hardware10automotive7vehicle4V2_011BnHwVehicle12getDebugInfoENSt3__18functionIFvRKNS_4hidl4base4V1_09DebugInfoEEEE
_ZN7android8hardware10automotive7vehicle4V2_011BnHwVehicle15_hidl_debugDumpEPNS_4hidl4base4V1_08BnHwBaseERKNS0_6ParcelEPSA_NSt3__18functionIFvRSA_EEE
_ZN7android8hardware10automotive7vehicle4V2_011BnHwVehicle15_hidl_subscribeEPNS_4hidl4base4V1_08BnHwBaseERKNS0_6ParcelEPSA_NSt3__18functionIFvRSA_EEE
_ZN7android8hardware10automotive7vehicle4V2_011BnHwVehicle17_hidl_unsubscribeEPNS_4hidl4base4V1_08BnHwBaseERKNS0_6ParcelEPSA_NSt3__18functionIFvRSA_EEE
_ZN7android8hardware10automotive7vehicle4V2_011BnHwVehicle20_hidl_getPropConfigsEPNS_4hidl4base4V1_08BnHwBaseERKNS0_6ParcelEPSA_NSt3__18functionIFvRSA_EEE
_ZN7android8hardware10automotive7vehicle4V2_011BnHwVehicle23_hidl_getAllPropConfigsEPNS_4hidl4base4V1_08BnHwBaseERKNS0_6ParcelEPSA_NSt3__18functionIFvRSA_EEE
_ZN7android8hardware10automotive7vehicle4V2_011BnHwVehicle4pingEv
_ZN7android8hardware10automotive7vehicle4V2_011BnHwVehicle9_hidl_getEPNS_4hidl4base4V1_08BnHwBaseERKNS0_6ParcelEPSA_NSt3__18functionIFvRSA_EEE
_ZN7android8hardware10automotive7vehicle4V2_011BnHwVehicle9_hidl_setEPNS_4hidl4base4V1_08BnHwBaseERKNS0_6ParcelEPSA_NSt3__18functionIFvRSA_EEE
_ZN7android8hardware10automotive7vehicle4V2_011BnHwVehicleC1ERKNS_2spINS3_8IVehicleEEE
_ZN7android8hardware10automotive7vehicle4V2_011BnHwVehicleC2ERKNS_2spINS3_8IVehicleEEE
_ZN7android8hardware10automotive7vehicle4V2_011BnHwVehicleD0Ev
_ZN7android8hardware10automotive7vehicle4V2_011BnHwVehicleD1Ev
_ZN7android8hardware10automotive7vehicle4V2_011BnHwVehicleD2Ev
_ZN7android8hardware10automotive7vehicle4V2_011BpHwVehicle11linkToDeathERKNS_2spINS0_20hidl_death_recipientEEEm
_ZN7android8hardware10automotive7vehicle4V2_011BpHwVehicle11unsubscribeERKNS_2spINS3_16IVehicleCallbackEEEi
_ZN7android8hardware10automotive7vehicle4V2_011BpHwVehicle12getDebugInfoENSt3__18functionIFvRKNS_4hidl4base4V1_09DebugInfoEEEE
_ZN7android8hardware10automotive7vehicle4V2_011BpHwVehicle12getHashChainENSt3__18functionIFvRKNS0_8hidl_vecINS0_10hidl_arrayIhLm32EJEEEEEEEE
_ZN7android8hardware10automotive7vehicle4V2_011BpHwVehicle13unlinkToDeathERKNS_2spINS0_20hidl_death_recipientEEE
_ZN7android8hardware10automotive7vehicle4V2_011BpHwVehicle14getPropConfigsERKNS0_8hidl_vecIiEENSt3__18functionIFvNS3_10StatusCodeERKNS5_INS3_17VehiclePropConfigEEEEEE
_ZN7android8hardware10automotive7vehicle4V2_011BpHwVehicle14interfaceChainENSt3__18functionIFvRKNS0_8hidl_vecINS0_11hidl_stringEEEEEE
_ZN7android8hardware10automotive7vehicle4V2_011BpHwVehicle15_hidl_debugDumpEPNS0_10IInterfaceEPNS0_7details16HidlInstrumentorENSt3__18functionIFvRKNS0_11hidl_stringEEEE
_ZN7android8hardware10automotive7vehicle4V2_011BpHwVehicle15_hidl_subscribeEPNS0_10IInterfaceEPNS0_7details16HidlInstrumentorERKNS_2spINS3_16IVehicleCallbackEEERKNS0_8hidl_vecINS3_16SubscribeOptionsEEE
_ZN7android8hardware10automotive7vehicle4V2_011BpHwVehicle17_hidl_unsubscribeEPNS0_10IInterfaceEPNS0_7details16HidlInstrumentorERKNS_2spINS3_16IVehicleCallbackEEEi
_ZN7android8hardware10automotive7vehicle4V2_011BpHwVehicle17getAllPropConfigsENSt3__18functionIFvRKNS0_8hidl_vecINS3_17VehiclePropConfigEEEEEE
_ZN7android8hardware10automotive7vehicle4V2_011BpHwVehicle19interfaceDescriptorENSt3__18functionIFvRKNS0_11hidl_stringEEEE
_ZN7android8hardware10automotive7vehicle4V2_011BpHwVehicle20_hidl_getPropConfigsEPNS0_10IInterfaceEPNS0_7details16HidlInstrumentorERKNS0_8hidl_vecIiEENSt3__18functionIFvNS3_10StatusCodeERKNSA_INS3_17VehiclePropConfigEEEEEE
_ZN7android8hardware10automotive7vehicle4V2_011BpHwVehicle21notifySyspropsChangedEv
_ZN7android8hardware10automotive7vehicle4V2_011BpHwVehicle21setHALInstrumentationEv
_ZN7android8hardware10automotive7vehicle4V2_011BpHwVehicle23_hidl_getAllPropConfigsEPNS0_10IInterfaceEPNS0_7details16HidlInstrumentorENSt3__18functionIFvRKNS0_8hidl_vecINS3_17VehiclePropConfigEEEEEE
_ZN7android8hardware10automotive7vehicle4V2_011BpHwVehicle3getERKNS3_16VehiclePropValueENSt3__18functionIFvNS3_10StatusCodeES7_EEE
_ZN7android8hardware10automotive7vehicle4V2_011BpHwVehicle3setERKNS3_16VehiclePropValueE
_ZN7android8hardware10automotive7vehicle4V2_011BpHwVehicle4pingEv
_ZN7android8hardware10automotive7vehicle4V2_011BpHwVehicle5debugERKNS0_11hidl_handleERKNS0_8hidl_vecINS0_11hidl_stringEEE
_ZN7android8hardware10automotive7vehicle4V2_011BpHwVehicle9_hidl_getEPNS0_10IInterfaceEPNS0_7details16HidlInstrumentorERKNS3_16VehiclePropValueENSt3__18functionIFvNS3_10StatusCodeESC_EEE
_ZN7android8hardware10automotive7vehicle4V2_011BpHwVehicle9_hidl_setEPNS0_10IInterfaceEPNS0_7details16HidlInstrumentorERKNS3_16VehiclePropValueE
_ZN7android8hardware10automotive7vehicle4V2_011BpHwVehicle9debugDumpENSt3__18functionIFvRKNS0_11hidl_stringEEEE
_ZN7android8hardware10automotive7vehicle4V2_011BpHwVehicle9subscribeERKNS_2spINS3_16IVehicleCallbackEEERKNS0_8hidl_vecINS3_16SubscribeOptionsEEE
_ZN7android8hardware10automotive7vehicle4V2_011BpHwVehicleC1ERKNS_2spINS0_7IBinderEEE
_ZN7android8hardware10automotive7vehicle4V2_011BpHwVehicleC2ERKNS_2spINS0_7IBinderEEE
_ZN7android8hardware10automotive7vehicle4V2_016IVehicleCallback10descriptorE
_ZN7android8hardware10automotive7vehicle4V2_016IVehicleCallback10getServiceERKNSt3__112basic_stringIcNS5_11char_traitsIcEENS5_9allocatorIcEEEEb
_ZN7android8hardware10automotive7vehicle4V2_016IVehicleCallback11linkToDeathERKNS_2spINS0_20hidl_death_recipientEEEm
_ZN7android8hardware10automotive7vehicle4V2_016IVehicleCallback12getDebugInfoENSt3__18functionIFvRKNS_4hidl4base4V1_09DebugInfoEEEE
_ZN7android8hardware10automotive7vehicle4V2_016IVehicleCallback12getHashChainENSt3__18functionIFvRKNS0_8hidl_vecINS0_10hidl_arrayIhLm32EJEEEEEEEE
_ZN7android8hardware10automotive7vehicle4V2_016IVehicleCallback13tryGetServiceERKNSt3__112basic_stringIcNS5_11char_traitsIcEENS5_9allocatorIcEEEEb
_ZN7android8hardware10automotive7vehicle4V2_016IVehicleCallback13unlinkToDeathERKNS_2spINS0_20hidl_death_recipientEEE
_ZN7android8hardware10automotive7vehicle4V2_016IVehicleCallback14interfaceChainENSt3__18functionIFvRKNS0_8hidl_vecINS0_11hidl_stringEEEEEE
_ZN7android8hardware10automotive7vehicle4V2_016IVehicleCallback17registerAsServiceERKNSt3__112basic_stringIcNS5_11char_traitsIcEENS5_9allocatorIcEEEE
_ZN7android8hardware10automotive7vehicle4V2_016IVehicleCallback19interfaceDescriptorENSt3__18functionIFvRKNS0_11hidl_stringEEEE
_ZN7android8hardware10automotive7vehicle4V2_016IVehicleCallback21notifySyspropsChangedEv
_ZN7android8hardware10automotive7vehicle4V2_016IVehicleCallback21setHALInstrumentationEv
_ZN7android8hardware10automotive7vehicle4V2_016IVehicleCallback24registerForNotificationsERKNSt3__112basic_stringIcNS5_11char_traitsIcEENS5_9allocatorIcEEEERKNS_2spINS_4hidl7manager4V1_020IServiceNotificationEEE
_ZN7android8hardware10automotive7vehicle4V2_016IVehicleCallback4pingEv
_ZN7android8hardware10automotive7vehicle4V2_016IVehicleCallback5debugERKNS0_11hidl_handleERKNS0_8hidl_vecINS0_11hidl_stringEEE
_ZN7android8hardware10automotive7vehicle4V2_016IVehicleCallback8castFromERKNS_2spINS_4hidl4base4V1_05IBaseEEEb
_ZN7android8hardware10automotive7vehicle4V2_016IVehicleCallback8castFromERKNS_2spIS4_EEb
_ZN7android8hardware10automotive7vehicle4V2_017BsVehicleCallback13addOnewayTaskENSt3__18functionIFvvEEE
_ZN7android8hardware10automotive7vehicle4V2_017BsVehicleCallbackC1ENS_2spINS3_16IVehicleCallbackEEE
_ZN7android8hardware10automotive7vehicle4V2_017BsVehicleCallbackC2ENS_2spINS3_16IVehicleCallbackEEE
_ZN7android8hardware10automotive7vehicle4V2_019BnHwVehicleCallback10onTransactEjRKNS0_6ParcelEPS5_jNSt3__18functionIFvRS5_EEE
_ZN7android8hardware10automotive7vehicle4V2_019BnHwVehicleCallback12getDebugInfoENSt3__18functionIFvRKNS_4hidl4base4V1_09DebugInfoEEEE
_ZN7android8hardware10automotive7vehicle4V2_019BnHwVehicleCallback19_hidl_onPropertySetEPNS_4hidl4base4V1_08BnHwBaseERKNS0_6ParcelEPSA_NSt3__18functionIFvRSA_EEE
_ZN7android8hardware10automotive7vehicle4V2_019BnHwVehicleCallback21_hidl_onPropertyEventEPNS_4hidl4base4V1_08BnHwBaseERKNS0_6ParcelEPSA_NSt3__18functionIFvRSA_EEE
_ZN7android8hardware10automotive7vehicle4V2_019BnHwVehicleCallback24_hidl_onPropertySetErrorEPNS_4hidl4base4V1_08BnHwBaseERKNS0_6ParcelEPSA_NSt3__18functionIFvRSA_EEE
_ZN7android8hardware10automotive7vehicle4V2_019BnHwVehicleCallback4pingEv
_ZN7android8hardware10automotive7vehicle4V2_019BnHwVehicleCallbackC1ERKNS_2spINS3_16IVehicleCallbackEEE
_ZN7android8hardware10automotive7vehicle4V2_019BnHwVehicleCallbackC2ERKNS_2spINS3_16IVehicleCallbackEEE
_ZN7android8hardware10automotive7vehicle4V2_019BnHwVehicleCallbackD0Ev
_ZN7android8hardware10automotive7vehicle4V2_019BnHwVehicleCallbackD1Ev
_ZN7android8hardware10automotive7vehicle4V2_019BnHwVehicleCallbackD2Ev
_ZN7android8hardware10automotive7vehicle4V2_019BpHwVehicleCallback11linkToDeathERKNS_2spINS0_20hidl_death_recipientEEEm
_ZN7android8hardware10automotive7vehicle4V2_019BpHwVehicleCallback12getDebugInfoENSt3__18functionIFvRKNS_4hidl4base4V1_09DebugInfoEEEE
_ZN7android8hardware10automotive7vehicle4V2_019BpHwVehicleCallback12getHashChainENSt3__18functionIFvRKNS0_8hidl_vecINS0_10hidl_arrayIhLm32EJEEEEEEEE
_ZN7android8hardware10automotive7vehicle4V2_019BpHwVehicleCallback13onPropertySetERKNS3_16VehiclePropValueE
_ZN7android8hardware10automotive7vehicle4V2_019BpHwVehicleCallback13unlinkToDeathERKNS_2spINS0_20hidl_death_recipientEEE
_ZN7android8hardware10automotive7vehicle4V2_019BpHwVehicleCallback14interfaceChainENSt3__18functionIFvRKNS0_8hidl_vecINS0_11hidl_stringEEEEEE
_ZN7android8hardware10automotive7vehicle4V2_019BpHwVehicleCallback15onPropertyEventERKNS0_8hidl_vecINS3_16VehiclePropValueEEE
_ZN7android8hardware10automotive7vehicle4V2_019BpHwVehicleCallback18onPropertySetErrorENS3_10StatusCodeEii
_ZN7android8hardware10automotive7vehicle4V2_019BpHwVehicleCallback19_hidl_onPropertySetEPNS0_10IInterfaceEPNS0_7details16HidlInstrumentorERKNS3_16VehiclePropValueE
_ZN7android8hardware10automotive7vehicle4V2_019BpHwVehicleCallback19interfaceDescriptorENSt3__18functionIFvRKNS0_11hidl_stringEEEE
_ZN7android8hardware10automotive7vehicle4V2_019BpHwVehicleCallback21_hidl_onPropertyEventEPNS0_10IInterfaceEPNS0_7details16HidlInstrumentorERKNS0_8hidl_vecINS3_16VehiclePropValueEEE
_ZN7android8hardware10automotive7vehicle4V2_019BpHwVehicleCallback21notifySyspropsChangedEv
_ZN7android8hardware10automotive7vehicle4V2_019BpHwVehicleCallback21setHALInstrumentationEv
_ZN7android8hardware10automotive7vehicle4V2_019BpHwVehicleCallback24_hidl_onPropertySetErrorEPNS0_10IInterfaceEPNS0_7details16HidlInstrumentorENS3_10StatusCodeEii
_ZN7android8hardware10automotive7vehicle4V2_019BpHwVehicleCallback4pingEv
_ZN7android8hardware10automotive7vehicle4V2_019BpHwVehicleCallback5debugERKNS0_11hidl_handleERKNS0_8hidl_vecINS0_11hidl_stringEEE
_ZN7android8hardware10automotive7vehicle4V2_019BpHwVehicleCallbackC1ERKNS_2spINS0_7IBinderEEE
_ZN7android8hardware10automotive7vehicle4V2_019BpHwVehicleCallbackC2ERKNS_2spINS0_7IBinderEEE
_ZN7android8hardware10automotive7vehicle4V2_021writeEmbeddedToParcelERKNS3_16VehiclePropValue8RawValueEPNS0_6ParcelEmm
_ZN7android8hardware10automotive7vehicle4V2_021writeEmbeddedToParcelERKNS3_16VehiclePropValueEPNS0_6ParcelEmm
_ZN7android8hardware10automotive7vehicle4V2_021writeEmbeddedToParcelERKNS3_17VehiclePropConfigEPNS0_6ParcelEmm
_ZN7android8hardware10automotive7vehicle4V2_022readEmbeddedFromParcelERKNS3_16VehiclePropValue8RawValueERKNS0_6ParcelEmm
_ZN7android8hardware10automotive7vehicle4V2_022readEmbeddedFromParcelERKNS3_16VehiclePropValueERKNS0_6ParcelEmm
_ZN7android8hardware10automotive7vehicle4V2_022readEmbeddedFromParcelERKNS3_17VehiclePropConfigERKNS0_6ParcelEmm
_ZN7android8hardware10automotive7vehicle4V2_08IVehicle10descriptorE
_ZN7android8hardware10automotive7vehicle4V2_08IVehicle10getServiceERKNSt3__112basic_stringIcNS5_11char_traitsIcEENS5_9allocatorIcEEEEb
_ZN7android8hardware10automotive7vehicle4V2_08IVehicle11linkToDeathERKNS_2spINS0_20hidl_death_recipientEEEm
_ZN7android8hardware10automotive7vehicle4V2_08IVehicle12getDebugInfoENSt3__18functionIFvRKNS_4hidl4base4V1_09DebugInfoEEEE
_ZN7android8hardware10automotive7vehicle4V2_08IVehicle12getHashChainENSt3__18functionIFvRKNS0_8hidl_vecINS0_10hidl_arrayIhLm32EJEEEEEEEE
_ZN7android8hardware10automotive7vehicle4V2_08IVehicle13tryGetServiceERKNSt3__112basic_stringIcNS5_11char_traitsIcEENS5_9allocatorIcEEEEb
_ZN7android8hardware10automotive7vehicle4V2_08IVehicle13unlinkToDeathERKNS_2spINS0_20hidl_death_recipientEEE
_ZN7android8hardware10automotive7vehicle4V2_08IVehicle14interfaceChainENSt3__18functionIFvRKNS0_8hidl_vecINS0_11hidl_stringEEEEEE
_ZN7android8hardware10automotive7vehicle4V2_08IVehicle17registerAsServiceERKNSt3__112basic_stringIcNS5_11char_traitsIcEENS5_9allocatorIcEEEE
_ZN7android8hardware10automotive7vehicle4V2_08IVehicle19interfaceDescriptorENSt3__18functionIFvRKNS0_11hidl_stringEEEE
_ZN7android8hardware10automotive7vehicle4V2_08IVehicle21notifySyspropsChangedEv
_ZN7android8hardware10automotive7vehicle4V2_08IVehicle21setHALInstrumentationEv
_ZN7android8hardware10automotive7vehicle4V2_08IVehicle24registerForNotificationsERKNSt3__112basic_stringIcNS5_11char_traitsIcEENS5_9allocatorIcEEEERKNS_2spINS_4hidl7manager4V1_020IServiceNotificationEEE
_ZN7android8hardware10automotive7vehicle4V2_08IVehicle4pingEv
_ZN7android8hardware10automotive7vehicle4V2_08IVehicle5debugERKNS0_11hidl_handleERKNS0_8hidl_vecINS0_11hidl_stringEEE
_ZN7android8hardware10automotive7vehicle4V2_08IVehicle8castFromERKNS_2spINS_4hidl4base4V1_05IBaseEEEb
_ZN7android8hardware10automotive7vehicle4V2_08IVehicle8castFromERKNS_2spIS4_EEb
_ZN7android8hardware10automotive7vehicle4V2_09BsVehicle13addOnewayTaskENSt3__18functionIFvvEEE
_ZN7android8hardware10automotive7vehicle4V2_09BsVehicleC1ENS_2spINS3_8IVehicleEEE
_ZN7android8hardware10automotive7vehicle4V2_09BsVehicleC2ENS_2spINS3_8IVehicleEEE
_ZTCN7android8hardware10automotive7vehicle4V2_011BnHwVehicleE0_NS0_7IBinderE
_ZTCN7android8hardware10automotive7vehicle4V2_011BnHwVehicleE0_NS0_9BHwBinderE
_ZTCN7android8hardware10automotive7vehicle4V2_011BnHwVehicleE0_NS_4hidl4base4V1_08BnHwBaseE
_ZTCN7android8hardware10automotive7vehicle4V2_011BpHwVehicleE0_NS0_11BpInterfaceINS3_8IVehicleEEE
_ZTCN7android8hardware10automotive7vehicle4V2_011BpHwVehicleE0_NS3_8IVehicleE
_ZTCN7android8hardware10automotive7vehicle4V2_011BpHwVehicleE0_NS_4hidl4base4V1_05IBaseE
_ZTCN7android8hardware10automotive7vehicle4V2_011BpHwVehicleE16_NS0_11BpHwRefBaseE
_ZTCN7android8hardware10automotive7vehicle4V2_011BpHwVehicleE8_NS0_10IInterfaceE
_ZTCN7android8hardware10automotive7vehicle4V2_016IVehicleCallbackE0_NS_4hidl4base4V1_05IBaseE
_ZTCN7android8hardware10automotive7vehicle4V2_019BnHwVehicleCallbackE0_NS0_7IBinderE
_ZTCN7android8hardware10automotive7vehicle4V2_019BnHwVehicleCallbackE0_NS0_9BHwBinderE
_ZTCN7android8hardware10automotive7vehicle4V2_019BnHwVehicleCallbackE0_NS_4hidl4base4V1_08BnHwBaseE
_ZTCN7android8hardware10automotive7vehicle4V2_019BpHwVehicleCallbackE0_NS0_11BpInterfaceINS3_16IVehicleCallbackEEE
_ZTCN7android8hardware10automotive7vehicle4V2_019BpHwVehicleCallbackE0_NS3_16IVehicleCallbackE
_ZTCN7android8hardware10automotive7vehicle4V2_019BpHwVehicleCallbackE0_NS_4hidl4base4V1_05IBaseE
_ZTCN7android8hardware10automotive7vehicle4V2_019BpHwVehicleCallbackE16_NS0_11BpHwRefBaseE
_ZTCN7android8hardware10automotive7vehicle4V2_019BpHwVehicleCallbackE8_NS0_10IInterfaceE
_ZTCN7android8hardware10automotive7vehicle4V2_08IVehicleE0_NS_4hidl4base4V1_05IBaseE
_ZTTN7android8hardware10automotive7vehicle4V2_011BnHwVehicleE
_ZTTN7android8hardware10automotive7vehicle4V2_011BpHwVehicleE
_ZTTN7android8hardware10automotive7vehicle4V2_016IVehicleCallbackE
_ZTTN7android8hardware10automotive7vehicle4V2_019BnHwVehicleCallbackE
_ZTTN7android8hardware10automotive7vehicle4V2_019BpHwVehicleCallbackE
_ZTTN7android8hardware10automotive7vehicle4V2_08IVehicleE
_ZTVN7android8hardware10automotive7vehicle4V2_011BnHwVehicleE
_ZTVN7android8hardware10automotive7vehicle4V2_011BpHwVehicleE
_ZTVN7android8hardware10automotive7vehicle4V2_016IVehicleCallbackE
_ZTVN7android8hardware10automotive7vehicle4V2_019BnHwVehicleCallbackE
_ZTVN7android8hardware10automotive7vehicle4V2_019BpHwVehicleCallbackE
_ZTVN7android8hardware10automotive7vehicle4V2_08IVehicleE
_ZThn32_N7android8hardware10automotive7vehicle4V2_011BnHwVehicleD0Ev
_ZThn32_N7android8hardware10automotive7vehicle4V2_011BnHwVehicleD1Ev
_ZThn32_N7android8hardware10automotive7vehicle4V2_019BnHwVehicleCallbackD0Ev
_ZThn32_N7android8hardware10automotive7vehicle4V2_019BnHwVehicleCallbackD1Ev
_ZTv0_n24_N7android8hardware10automotive7vehicle4V2_011BnHwVehicleD0Ev
_ZTv0_n24_N7android8hardware10automotive7vehicle4V2_011BnHwVehicleD1Ev
_ZTv0_n24_N7android8hardware10automotive7vehicle4V2_019BnHwVehicleCallbackD0Ev
_ZTv0_n24_N7android8hardware10automotive7vehicle4V2_019BnHwVehicleCallbackD1Ev
