_ZN7android8hardware5media10bufferpool4V1_010BsAccessor13addOnewayTaskENSt3__18functionIFvvEEE
_ZN7android8hardware5media10bufferpool4V1_010BsAccessorC1ENS_2spINS3_9IAccessorEEE
_ZN7android8hardware5media10bufferpool4V1_010BsAccessorC2ENS_2spINS3_9IAccessorEEE
_ZN7android8hardware5media10bufferpool4V1_011IConnection10descriptorE
_ZN7android8hardware5media10bufferpool4V1_011IConnection10getServiceERKNSt3__112basic_stringIcNS5_11char_traitsIcEENS5_9allocatorIcEEEEb
_ZN7android8hardware5media10bufferpool4V1_011IConnection11linkToDeathERKNS_2spINS0_20hidl_death_recipientEEEm
_ZN7android8hardware5media10bufferpool4V1_011IConnection12getDebugInfoENSt3__18functionIFvRKNS_4hidl4base4V1_09DebugInfoEEEE
_ZN7android8hardware5media10bufferpool4V1_011IConnection12getHashChainENSt3__18functionIFvRKNS0_8hidl_vecINS0_10hidl_arrayIhLm32EJEEEEEEEE
_ZN7android8hardware5media10bufferpool4V1_011IConnection13tryGetServiceERKNSt3__112basic_stringIcNS5_11char_traitsIcEENS5_9allocatorIcEEEEb
_ZN7android8hardware5media10bufferpool4V1_011IConnection13unlinkToDeathERKNS_2spINS0_20hidl_death_recipientEEE
_ZN7android8hardware5media10bufferpool4V1_011IConnection14interfaceChainENSt3__18functionIFvRKNS0_8hidl_vecINS0_11hidl_stringEEEEEE
_ZN7android8hardware5media10bufferpool4V1_011IConnection17registerAsServiceERKNSt3__112basic_stringIcNS5_11char_traitsIcEENS5_9allocatorIcEEEE
_ZN7android8hardware5media10bufferpool4V1_011IConnection19interfaceDescriptorENSt3__18functionIFvRKNS0_11hidl_stringEEEE
_ZN7android8hardware5media10bufferpool4V1_011IConnection21notifySyspropsChangedEv
_ZN7android8hardware5media10bufferpool4V1_011IConnection21setHALInstrumentationEv
_ZN7android8hardware5media10bufferpool4V1_011IConnection24registerForNotificationsERKNSt3__112basic_stringIcNS5_11char_traitsIcEENS5_9allocatorIcEEEERKNS_2spINS_4hidl7manager4V1_020IServiceNotificationEEE
_ZN7android8hardware5media10bufferpool4V1_011IConnection4pingEv
_ZN7android8hardware5media10bufferpool4V1_011IConnection5debugERKNS0_11hidl_handleERKNS0_8hidl_vecINS0_11hidl_stringEEE
_ZN7android8hardware5media10bufferpool4V1_011IConnection8castFromERKNS_2spINS_4hidl4base4V1_05IBaseEEEb
_ZN7android8hardware5media10bufferpool4V1_011IConnection8castFromERKNS_2spIS4_EEb
_ZN7android8hardware5media10bufferpool4V1_012BnHwAccessor10onTransactEjRKNS0_6ParcelEPS5_jNSt3__18functionIFvRS5_EEE
_ZN7android8hardware5media10bufferpool4V1_012BnHwAccessor12getDebugInfoENSt3__18functionIFvRKNS_4hidl4base4V1_09DebugInfoEEEE
_ZN7android8hardware5media10bufferpool4V1_012BnHwAccessor13_hidl_connectEPNS_4hidl4base4V1_08BnHwBaseERKNS0_6ParcelEPSA_NSt3__18functionIFvRSA_EEE
_ZN7android8hardware5media10bufferpool4V1_012BnHwAccessor4pingEv
_ZN7android8hardware5media10bufferpool4V1_012BnHwAccessorC1ERKNS_2spINS3_9IAccessorEEE
_ZN7android8hardware5media10bufferpool4V1_012BnHwAccessorC2ERKNS_2spINS3_9IAccessorEEE
_ZN7android8hardware5media10bufferpool4V1_012BnHwAccessorD0Ev
_ZN7android8hardware5media10bufferpool4V1_012BnHwAccessorD1Ev
_ZN7android8hardware5media10bufferpool4V1_012BnHwAccessorD2Ev
_ZN7android8hardware5media10bufferpool4V1_012BpHwAccessor11linkToDeathERKNS_2spINS0_20hidl_death_recipientEEEm
_ZN7android8hardware5media10bufferpool4V1_012BpHwAccessor12getDebugInfoENSt3__18functionIFvRKNS_4hidl4base4V1_09DebugInfoEEEE
_ZN7android8hardware5media10bufferpool4V1_012BpHwAccessor12getHashChainENSt3__18functionIFvRKNS0_8hidl_vecINS0_10hidl_arrayIhLm32EJEEEEEEEE
_ZN7android8hardware5media10bufferpool4V1_012BpHwAccessor13_hidl_connectEPNS0_10IInterfaceEPNS0_7details16HidlInstrumentorENSt3__18functionIFvNS3_12ResultStatusERKNS_2spINS3_11IConnectionEEElRKNS0_12MQDescriptorINS3_19BufferStatusMessageELNS0_8MQFlavorE1EEEEEE
_ZN7android8hardware5media10bufferpool4V1_012BpHwAccessor13unlinkToDeathERKNS_2spINS0_20hidl_death_recipientEEE
_ZN7android8hardware5media10bufferpool4V1_012BpHwAccessor14interfaceChainENSt3__18functionIFvRKNS0_8hidl_vecINS0_11hidl_stringEEEEEE
_ZN7android8hardware5media10bufferpool4V1_012BpHwAccessor19interfaceDescriptorENSt3__18functionIFvRKNS0_11hidl_stringEEEE
_ZN7android8hardware5media10bufferpool4V1_012BpHwAccessor21notifySyspropsChangedEv
_ZN7android8hardware5media10bufferpool4V1_012BpHwAccessor21setHALInstrumentationEv
_ZN7android8hardware5media10bufferpool4V1_012BpHwAccessor4pingEv
_ZN7android8hardware5media10bufferpool4V1_012BpHwAccessor5debugERKNS0_11hidl_handleERKNS0_8hidl_vecINS0_11hidl_stringEEE
_ZN7android8hardware5media10bufferpool4V1_012BpHwAccessor7connectENSt3__18functionIFvNS3_12ResultStatusERKNS_2spINS3_11IConnectionEEElRKNS0_12MQDescriptorINS3_19BufferStatusMessageELNS0_8MQFlavorE1EEEEEE
_ZN7android8hardware5media10bufferpool4V1_012BpHwAccessorC1ERKNS_2spINS0_7IBinderEEE
_ZN7android8hardware5media10bufferpool4V1_012BpHwAccessorC2ERKNS_2spINS0_7IBinderEEE
_ZN7android8hardware5media10bufferpool4V1_012BsConnection13addOnewayTaskENSt3__18functionIFvvEEE
_ZN7android8hardware5media10bufferpool4V1_012BsConnectionC1ENS_2spINS3_11IConnectionEEE
_ZN7android8hardware5media10bufferpool4V1_012BsConnectionC2ENS_2spINS3_11IConnectionEEE
_ZN7android8hardware5media10bufferpool4V1_014BnHwConnection10onTransactEjRKNS0_6ParcelEPS5_jNSt3__18functionIFvRS5_EEE
_ZN7android8hardware5media10bufferpool4V1_014BnHwConnection11_hidl_fetchEPNS_4hidl4base4V1_08BnHwBaseERKNS0_6ParcelEPSA_NSt3__18functionIFvRSA_EEE
_ZN7android8hardware5media10bufferpool4V1_014BnHwConnection12getDebugInfoENSt3__18functionIFvRKNS_4hidl4base4V1_09DebugInfoEEEE
_ZN7android8hardware5media10bufferpool4V1_014BnHwConnection4pingEv
_ZN7android8hardware5media10bufferpool4V1_014BnHwConnectionC1ERKNS_2spINS3_11IConnectionEEE
_ZN7android8hardware5media10bufferpool4V1_014BnHwConnectionC2ERKNS_2spINS3_11IConnectionEEE
_ZN7android8hardware5media10bufferpool4V1_014BnHwConnectionD0Ev
_ZN7android8hardware5media10bufferpool4V1_014BnHwConnectionD1Ev
_ZN7android8hardware5media10bufferpool4V1_014BnHwConnectionD2Ev
_ZN7android8hardware5media10bufferpool4V1_014BpHwConnection11_hidl_fetchEPNS0_10IInterfaceEPNS0_7details16HidlInstrumentorEmjNSt3__18functionIFvNS3_12ResultStatusERKNS3_6BufferEEEE
_ZN7android8hardware5media10bufferpool4V1_014BpHwConnection11linkToDeathERKNS_2spINS0_20hidl_death_recipientEEEm
_ZN7android8hardware5media10bufferpool4V1_014BpHwConnection12getDebugInfoENSt3__18functionIFvRKNS_4hidl4base4V1_09DebugInfoEEEE
_ZN7android8hardware5media10bufferpool4V1_014BpHwConnection12getHashChainENSt3__18functionIFvRKNS0_8hidl_vecINS0_10hidl_arrayIhLm32EJEEEEEEEE
_ZN7android8hardware5media10bufferpool4V1_014BpHwConnection13unlinkToDeathERKNS_2spINS0_20hidl_death_recipientEEE
_ZN7android8hardware5media10bufferpool4V1_014BpHwConnection14interfaceChainENSt3__18functionIFvRKNS0_8hidl_vecINS0_11hidl_stringEEEEEE
_ZN7android8hardware5media10bufferpool4V1_014BpHwConnection19interfaceDescriptorENSt3__18functionIFvRKNS0_11hidl_stringEEEE
_ZN7android8hardware5media10bufferpool4V1_014BpHwConnection21notifySyspropsChangedEv
_ZN7android8hardware5media10bufferpool4V1_014BpHwConnection21setHALInstrumentationEv
_ZN7android8hardware5media10bufferpool4V1_014BpHwConnection4pingEv
_ZN7android8hardware5media10bufferpool4V1_014BpHwConnection5debugERKNS0_11hidl_handleERKNS0_8hidl_vecINS0_11hidl_stringEEE
_ZN7android8hardware5media10bufferpool4V1_014BpHwConnection5fetchEmjNSt3__18functionIFvNS3_12ResultStatusERKNS3_6BufferEEEE
_ZN7android8hardware5media10bufferpool4V1_014BpHwConnectionC1ERKNS_2spINS0_7IBinderEEE
_ZN7android8hardware5media10bufferpool4V1_014BpHwConnectionC2ERKNS_2spINS0_7IBinderEEE
_ZN7android8hardware5media10bufferpool4V1_014IClientManager10descriptorE
_ZN7android8hardware5media10bufferpool4V1_014IClientManager10getServiceERKNSt3__112basic_stringIcNS5_11char_traitsIcEENS5_9allocatorIcEEEEb
_ZN7android8hardware5media10bufferpool4V1_014IClientManager11linkToDeathERKNS_2spINS0_20hidl_death_recipientEEEm
_ZN7android8hardware5media10bufferpool4V1_014IClientManager12getDebugInfoENSt3__18functionIFvRKNS_4hidl4base4V1_09DebugInfoEEEE
_ZN7android8hardware5media10bufferpool4V1_014IClientManager12getHashChainENSt3__18functionIFvRKNS0_8hidl_vecINS0_10hidl_arrayIhLm32EJEEEEEEEE
_ZN7android8hardware5media10bufferpool4V1_014IClientManager13tryGetServiceERKNSt3__112basic_stringIcNS5_11char_traitsIcEENS5_9allocatorIcEEEEb
_ZN7android8hardware5media10bufferpool4V1_014IClientManager13unlinkToDeathERKNS_2spINS0_20hidl_death_recipientEEE
_ZN7android8hardware5media10bufferpool4V1_014IClientManager14interfaceChainENSt3__18functionIFvRKNS0_8hidl_vecINS0_11hidl_stringEEEEEE
_ZN7android8hardware5media10bufferpool4V1_014IClientManager17registerAsServiceERKNSt3__112basic_stringIcNS5_11char_traitsIcEENS5_9allocatorIcEEEE
_ZN7android8hardware5media10bufferpool4V1_014IClientManager19interfaceDescriptorENSt3__18functionIFvRKNS0_11hidl_stringEEEE
_ZN7android8hardware5media10bufferpool4V1_014IClientManager21notifySyspropsChangedEv
_ZN7android8hardware5media10bufferpool4V1_014IClientManager21setHALInstrumentationEv
_ZN7android8hardware5media10bufferpool4V1_014IClientManager24registerForNotificationsERKNSt3__112basic_stringIcNS5_11char_traitsIcEENS5_9allocatorIcEEEERKNS_2spINS_4hidl7manager4V1_020IServiceNotificationEEE
_ZN7android8hardware5media10bufferpool4V1_014IClientManager4pingEv
_ZN7android8hardware5media10bufferpool4V1_014IClientManager5debugERKNS0_11hidl_handleERKNS0_8hidl_vecINS0_11hidl_stringEEE
_ZN7android8hardware5media10bufferpool4V1_014IClientManager8castFromERKNS_2spINS_4hidl4base4V1_05IBaseEEEb
_ZN7android8hardware5media10bufferpool4V1_014IClientManager8castFromERKNS_2spIS4_EEb
_ZN7android8hardware5media10bufferpool4V1_015BsClientManager13addOnewayTaskENSt3__18functionIFvvEEE
_ZN7android8hardware5media10bufferpool4V1_015BsClientManagerC1ENS_2spINS3_14IClientManagerEEE
_ZN7android8hardware5media10bufferpool4V1_015BsClientManagerC2ENS_2spINS3_14IClientManagerEEE
_ZN7android8hardware5media10bufferpool4V1_017BnHwClientManager10onTransactEjRKNS0_6ParcelEPS5_jNSt3__18functionIFvRS5_EEE
_ZN7android8hardware5media10bufferpool4V1_017BnHwClientManager12getDebugInfoENSt3__18functionIFvRKNS_4hidl4base4V1_09DebugInfoEEEE
_ZN7android8hardware5media10bufferpool4V1_017BnHwClientManager20_hidl_registerSenderEPNS_4hidl4base4V1_08BnHwBaseERKNS0_6ParcelEPSA_NSt3__18functionIFvRSA_EEE
_ZN7android8hardware5media10bufferpool4V1_017BnHwClientManager4pingEv
_ZN7android8hardware5media10bufferpool4V1_017BnHwClientManagerC1ERKNS_2spINS3_14IClientManagerEEE
_ZN7android8hardware5media10bufferpool4V1_017BnHwClientManagerC2ERKNS_2spINS3_14IClientManagerEEE
_ZN7android8hardware5media10bufferpool4V1_017BnHwClientManagerD0Ev
_ZN7android8hardware5media10bufferpool4V1_017BnHwClientManagerD1Ev
_ZN7android8hardware5media10bufferpool4V1_017BnHwClientManagerD2Ev
_ZN7android8hardware5media10bufferpool4V1_017BpHwClientManager11linkToDeathERKNS_2spINS0_20hidl_death_recipientEEEm
_ZN7android8hardware5media10bufferpool4V1_017BpHwClientManager12getDebugInfoENSt3__18functionIFvRKNS_4hidl4base4V1_09DebugInfoEEEE
_ZN7android8hardware5media10bufferpool4V1_017BpHwClientManager12getHashChainENSt3__18functionIFvRKNS0_8hidl_vecINS0_10hidl_arrayIhLm32EJEEEEEEEE
_ZN7android8hardware5media10bufferpool4V1_017BpHwClientManager13unlinkToDeathERKNS_2spINS0_20hidl_death_recipientEEE
_ZN7android8hardware5media10bufferpool4V1_017BpHwClientManager14interfaceChainENSt3__18functionIFvRKNS0_8hidl_vecINS0_11hidl_stringEEEEEE
_ZN7android8hardware5media10bufferpool4V1_017BpHwClientManager14registerSenderERKNS_2spINS3_9IAccessorEEENSt3__18functionIFvNS3_12ResultStatusElEEE
_ZN7android8hardware5media10bufferpool4V1_017BpHwClientManager19interfaceDescriptorENSt3__18functionIFvRKNS0_11hidl_stringEEEE
_ZN7android8hardware5media10bufferpool4V1_017BpHwClientManager20_hidl_registerSenderEPNS0_10IInterfaceEPNS0_7details16HidlInstrumentorERKNS_2spINS3_9IAccessorEEENSt3__18functionIFvNS3_12ResultStatusElEEE
_ZN7android8hardware5media10bufferpool4V1_017BpHwClientManager21notifySyspropsChangedEv
_ZN7android8hardware5media10bufferpool4V1_017BpHwClientManager21setHALInstrumentationEv
_ZN7android8hardware5media10bufferpool4V1_017BpHwClientManager4pingEv
_ZN7android8hardware5media10bufferpool4V1_017BpHwClientManager5debugERKNS0_11hidl_handleERKNS0_8hidl_vecINS0_11hidl_stringEEE
_ZN7android8hardware5media10bufferpool4V1_017BpHwClientManagerC1ERKNS_2spINS0_7IBinderEEE
_ZN7android8hardware5media10bufferpool4V1_017BpHwClientManagerC2ERKNS_2spINS0_7IBinderEEE
_ZN7android8hardware5media10bufferpool4V1_021writeEmbeddedToParcelERKNS3_6BufferEPNS0_6ParcelEmm
_ZN7android8hardware5media10bufferpool4V1_022readEmbeddedFromParcelERKNS3_6BufferERKNS0_6ParcelEmm
_ZN7android8hardware5media10bufferpool4V1_09IAccessor10descriptorE
_ZN7android8hardware5media10bufferpool4V1_09IAccessor10getServiceERKNSt3__112basic_stringIcNS5_11char_traitsIcEENS5_9allocatorIcEEEEb
_ZN7android8hardware5media10bufferpool4V1_09IAccessor11linkToDeathERKNS_2spINS0_20hidl_death_recipientEEEm
_ZN7android8hardware5media10bufferpool4V1_09IAccessor12getDebugInfoENSt3__18functionIFvRKNS_4hidl4base4V1_09DebugInfoEEEE
_ZN7android8hardware5media10bufferpool4V1_09IAccessor12getHashChainENSt3__18functionIFvRKNS0_8hidl_vecINS0_10hidl_arrayIhLm32EJEEEEEEEE
_ZN7android8hardware5media10bufferpool4V1_09IAccessor13tryGetServiceERKNSt3__112basic_stringIcNS5_11char_traitsIcEENS5_9allocatorIcEEEEb
_ZN7android8hardware5media10bufferpool4V1_09IAccessor13unlinkToDeathERKNS_2spINS0_20hidl_death_recipientEEE
_ZN7android8hardware5media10bufferpool4V1_09IAccessor14interfaceChainENSt3__18functionIFvRKNS0_8hidl_vecINS0_11hidl_stringEEEEEE
_ZN7android8hardware5media10bufferpool4V1_09IAccessor17registerAsServiceERKNSt3__112basic_stringIcNS5_11char_traitsIcEENS5_9allocatorIcEEEE
_ZN7android8hardware5media10bufferpool4V1_09IAccessor19interfaceDescriptorENSt3__18functionIFvRKNS0_11hidl_stringEEEE
_ZN7android8hardware5media10bufferpool4V1_09IAccessor21notifySyspropsChangedEv
_ZN7android8hardware5media10bufferpool4V1_09IAccessor21setHALInstrumentationEv
_ZN7android8hardware5media10bufferpool4V1_09IAccessor24registerForNotificationsERKNSt3__112basic_stringIcNS5_11char_traitsIcEENS5_9allocatorIcEEEERKNS_2spINS_4hidl7manager4V1_020IServiceNotificationEEE
_ZN7android8hardware5media10bufferpool4V1_09IAccessor4pingEv
_ZN7android8hardware5media10bufferpool4V1_09IAccessor5debugERKNS0_11hidl_handleERKNS0_8hidl_vecINS0_11hidl_stringEEE
_ZN7android8hardware5media10bufferpool4V1_09IAccessor8castFromERKNS_2spINS_4hidl4base4V1_05IBaseEEEb
_ZN7android8hardware5media10bufferpool4V1_09IAccessor8castFromERKNS_2spIS4_EEb
_ZTCN7android8hardware5media10bufferpool4V1_011IConnectionE0_NS_4hidl4base4V1_05IBaseE
_ZTCN7android8hardware5media10bufferpool4V1_012BnHwAccessorE0_NS0_7IBinderE
_ZTCN7android8hardware5media10bufferpool4V1_012BnHwAccessorE0_NS0_9BHwBinderE
_ZTCN7android8hardware5media10bufferpool4V1_012BnHwAccessorE0_NS_4hidl4base4V1_08BnHwBaseE
_ZTCN7android8hardware5media10bufferpool4V1_012BpHwAccessorE0_NS0_11BpInterfaceINS3_9IAccessorEEE
_ZTCN7android8hardware5media10bufferpool4V1_012BpHwAccessorE0_NS3_9IAccessorE
_ZTCN7android8hardware5media10bufferpool4V1_012BpHwAccessorE0_NS_4hidl4base4V1_05IBaseE
_ZTCN7android8hardware5media10bufferpool4V1_012BpHwAccessorE16_NS0_11BpHwRefBaseE
_ZTCN7android8hardware5media10bufferpool4V1_012BpHwAccessorE8_NS0_10IInterfaceE
_ZTCN7android8hardware5media10bufferpool4V1_014BnHwConnectionE0_NS0_7IBinderE
_ZTCN7android8hardware5media10bufferpool4V1_014BnHwConnectionE0_NS0_9BHwBinderE
_ZTCN7android8hardware5media10bufferpool4V1_014BnHwConnectionE0_NS_4hidl4base4V1_08BnHwBaseE
_ZTCN7android8hardware5media10bufferpool4V1_014BpHwConnectionE0_NS0_11BpInterfaceINS3_11IConnectionEEE
_ZTCN7android8hardware5media10bufferpool4V1_014BpHwConnectionE0_NS3_11IConnectionE
_ZTCN7android8hardware5media10bufferpool4V1_014BpHwConnectionE0_NS_4hidl4base4V1_05IBaseE
_ZTCN7android8hardware5media10bufferpool4V1_014BpHwConnectionE16_NS0_11BpHwRefBaseE
_ZTCN7android8hardware5media10bufferpool4V1_014BpHwConnectionE8_NS0_10IInterfaceE
_ZTCN7android8hardware5media10bufferpool4V1_014IClientManagerE0_NS_4hidl4base4V1_05IBaseE
_ZTCN7android8hardware5media10bufferpool4V1_017BnHwClientManagerE0_NS0_7IBinderE
_ZTCN7android8hardware5media10bufferpool4V1_017BnHwClientManagerE0_NS0_9BHwBinderE
_ZTCN7android8hardware5media10bufferpool4V1_017BnHwClientManagerE0_NS_4hidl4base4V1_08BnHwBaseE
_ZTCN7android8hardware5media10bufferpool4V1_017BpHwClientManagerE0_NS0_11BpInterfaceINS3_14IClientManagerEEE
_ZTCN7android8hardware5media10bufferpool4V1_017BpHwClientManagerE0_NS3_14IClientManagerE
_ZTCN7android8hardware5media10bufferpool4V1_017BpHwClientManagerE0_NS_4hidl4base4V1_05IBaseE
_ZTCN7android8hardware5media10bufferpool4V1_017BpHwClientManagerE16_NS0_11BpHwRefBaseE
_ZTCN7android8hardware5media10bufferpool4V1_017BpHwClientManagerE8_NS0_10IInterfaceE
_ZTCN7android8hardware5media10bufferpool4V1_09IAccessorE0_NS_4hidl4base4V1_05IBaseE
_ZTTN7android8hardware5media10bufferpool4V1_011IConnectionE
_ZTTN7android8hardware5media10bufferpool4V1_012BnHwAccessorE
_ZTTN7android8hardware5media10bufferpool4V1_012BpHwAccessorE
_ZTTN7android8hardware5media10bufferpool4V1_014BnHwConnectionE
_ZTTN7android8hardware5media10bufferpool4V1_014BpHwConnectionE
_ZTTN7android8hardware5media10bufferpool4V1_014IClientManagerE
_ZTTN7android8hardware5media10bufferpool4V1_017BnHwClientManagerE
_ZTTN7android8hardware5media10bufferpool4V1_017BpHwClientManagerE
_ZTTN7android8hardware5media10bufferpool4V1_09IAccessorE
_ZTVN7android8hardware5media10bufferpool4V1_011IConnectionE
_ZTVN7android8hardware5media10bufferpool4V1_012BnHwAccessorE
_ZTVN7android8hardware5media10bufferpool4V1_012BpHwAccessorE
_ZTVN7android8hardware5media10bufferpool4V1_014BnHwConnectionE
_ZTVN7android8hardware5media10bufferpool4V1_014BpHwConnectionE
_ZTVN7android8hardware5media10bufferpool4V1_014IClientManagerE
_ZTVN7android8hardware5media10bufferpool4V1_017BnHwClientManagerE
_ZTVN7android8hardware5media10bufferpool4V1_017BpHwClientManagerE
_ZTVN7android8hardware5media10bufferpool4V1_09IAccessorE
_ZThn32_N7android8hardware5media10bufferpool4V1_012BnHwAccessorD0Ev
_ZThn32_N7android8hardware5media10bufferpool4V1_012BnHwAccessorD1Ev
_ZThn32_N7android8hardware5media10bufferpool4V1_014BnHwConnectionD0Ev
_ZThn32_N7android8hardware5media10bufferpool4V1_014BnHwConnectionD1Ev
_ZThn32_N7android8hardware5media10bufferpool4V1_017BnHwClientManagerD0Ev
_ZThn32_N7android8hardware5media10bufferpool4V1_017BnHwClientManagerD1Ev
_ZTv0_n24_N7android8hardware5media10bufferpool4V1_012BnHwAccessorD0Ev
_ZTv0_n24_N7android8hardware5media10bufferpool4V1_012BnHwAccessorD1Ev
_ZTv0_n24_N7android8hardware5media10bufferpool4V1_014BnHwConnectionD0Ev
_ZTv0_n24_N7android8hardware5media10bufferpool4V1_014BnHwConnectionD1Ev
_ZTv0_n24_N7android8hardware5media10bufferpool4V1_017BnHwClientManagerD0Ev
_ZTv0_n24_N7android8hardware5media10bufferpool4V1_017BnHwClientManagerD1Ev
