_ZN7android8hardware6health4V2_010BnHwHealth10onTransactEjRKNS0_6ParcelEPS4_jNSt3__18functionIFvRS4_EEE
_ZN7android8hardware6health4V2_010BnHwHealth12_hidl_updateEPNS_4hidl4base4V1_08BnHwBaseERKNS0_6ParcelEPS9_NSt3__18functionIFvRS9_EEE
_ZN7android8hardware6health4V2_010BnHwHealth12getDebugInfoENSt3__18functionIFvRKNS_4hidl4base4V1_09DebugInfoEEEE
_ZN7android8hardware6health4V2_010BnHwHealth17_hidl_getCapacityEPNS_4hidl4base4V1_08BnHwBaseERKNS0_6ParcelEPS9_NSt3__18functionIFvRS9_EEE
_ZN7android8hardware6health4V2_010BnHwHealth18_hidl_getDiskStatsEPNS_4hidl4base4V1_08BnHwBaseERKNS0_6ParcelEPS9_NSt3__18functionIFvRS9_EEE
_ZN7android8hardware6health4V2_010BnHwHealth19_hidl_getCurrentNowEPNS_4hidl4base4V1_08BnHwBaseERKNS0_6ParcelEPS9_NSt3__18functionIFvRS9_EEE
_ZN7android8hardware6health4V2_010BnHwHealth19_hidl_getHealthInfoEPNS_4hidl4base4V1_08BnHwBaseERKNS0_6ParcelEPS9_NSt3__18functionIFvRS9_EEE
_ZN7android8hardware6health4V2_010BnHwHealth20_hidl_getStorageInfoEPNS_4hidl4base4V1_08BnHwBaseERKNS0_6ParcelEPS9_NSt3__18functionIFvRS9_EEE
_ZN7android8hardware6health4V2_010BnHwHealth21_hidl_getChargeStatusEPNS_4hidl4base4V1_08BnHwBaseERKNS0_6ParcelEPS9_NSt3__18functionIFvRS9_EEE
_ZN7android8hardware6health4V2_010BnHwHealth22_hidl_getChargeCounterEPNS_4hidl4base4V1_08BnHwBaseERKNS0_6ParcelEPS9_NSt3__18functionIFvRS9_EEE
_ZN7android8hardware6health4V2_010BnHwHealth22_hidl_getEnergyCounterEPNS_4hidl4base4V1_08BnHwBaseERKNS0_6ParcelEPS9_NSt3__18functionIFvRS9_EEE
_ZN7android8hardware6health4V2_010BnHwHealth22_hidl_registerCallbackEPNS_4hidl4base4V1_08BnHwBaseERKNS0_6ParcelEPS9_NSt3__18functionIFvRS9_EEE
_ZN7android8hardware6health4V2_010BnHwHealth23_hidl_getCurrentAverageEPNS_4hidl4base4V1_08BnHwBaseERKNS0_6ParcelEPS9_NSt3__18functionIFvRS9_EEE
_ZN7android8hardware6health4V2_010BnHwHealth24_hidl_unregisterCallbackEPNS_4hidl4base4V1_08BnHwBaseERKNS0_6ParcelEPS9_NSt3__18functionIFvRS9_EEE
_ZN7android8hardware6health4V2_010BnHwHealth4pingEv
_ZN7android8hardware6health4V2_010BnHwHealthC1ERKNS_2spINS2_7IHealthEEE
_ZN7android8hardware6health4V2_010BnHwHealthC2ERKNS_2spINS2_7IHealthEEE
_ZN7android8hardware6health4V2_010BnHwHealthD0Ev
_ZN7android8hardware6health4V2_010BnHwHealthD1Ev
_ZN7android8hardware6health4V2_010BnHwHealthD2Ev
_ZN7android8hardware6health4V2_010BpHwHealth11getCapacityENSt3__18functionIFvNS2_6ResultEiEEE
_ZN7android8hardware6health4V2_010BpHwHealth11linkToDeathERKNS_2spINS0_20hidl_death_recipientEEEm
_ZN7android8hardware6health4V2_010BpHwHealth12_hidl_updateEPNS0_10IInterfaceEPNS0_7details16HidlInstrumentorE
_ZN7android8hardware6health4V2_010BpHwHealth12getDebugInfoENSt3__18functionIFvRKNS_4hidl4base4V1_09DebugInfoEEEE
_ZN7android8hardware6health4V2_010BpHwHealth12getDiskStatsENSt3__18functionIFvNS2_6ResultERKNS0_8hidl_vecINS2_9DiskStatsEEEEEE
_ZN7android8hardware6health4V2_010BpHwHealth12getHashChainENSt3__18functionIFvRKNS0_8hidl_vecINS0_10hidl_arrayIhLm32EJEEEEEEEE
_ZN7android8hardware6health4V2_010BpHwHealth13getCurrentNowENSt3__18functionIFvNS2_6ResultEiEEE
_ZN7android8hardware6health4V2_010BpHwHealth13getHealthInfoENSt3__18functionIFvNS2_6ResultERKNS2_10HealthInfoEEEE
_ZN7android8hardware6health4V2_010BpHwHealth13unlinkToDeathERKNS_2spINS0_20hidl_death_recipientEEE
_ZN7android8hardware6health4V2_010BpHwHealth14getStorageInfoENSt3__18functionIFvNS2_6ResultERKNS0_8hidl_vecINS2_11StorageInfoEEEEEE
_ZN7android8hardware6health4V2_010BpHwHealth14interfaceChainENSt3__18functionIFvRKNS0_8hidl_vecINS0_11hidl_stringEEEEEE
_ZN7android8hardware6health4V2_010BpHwHealth15getChargeStatusENSt3__18functionIFvNS2_6ResultENS1_4V1_013BatteryStatusEEEE
_ZN7android8hardware6health4V2_010BpHwHealth16getChargeCounterENSt3__18functionIFvNS2_6ResultEiEEE
_ZN7android8hardware6health4V2_010BpHwHealth16getEnergyCounterENSt3__18functionIFvNS2_6ResultElEEE
_ZN7android8hardware6health4V2_010BpHwHealth16registerCallbackERKNS_2spINS2_19IHealthInfoCallbackEEE
_ZN7android8hardware6health4V2_010BpHwHealth17_hidl_getCapacityEPNS0_10IInterfaceEPNS0_7details16HidlInstrumentorENSt3__18functionIFvNS2_6ResultEiEEE
_ZN7android8hardware6health4V2_010BpHwHealth17getCurrentAverageENSt3__18functionIFvNS2_6ResultEiEEE
_ZN7android8hardware6health4V2_010BpHwHealth18_hidl_getDiskStatsEPNS0_10IInterfaceEPNS0_7details16HidlInstrumentorENSt3__18functionIFvNS2_6ResultERKNS0_8hidl_vecINS2_9DiskStatsEEEEEE
_ZN7android8hardware6health4V2_010BpHwHealth18unregisterCallbackERKNS_2spINS2_19IHealthInfoCallbackEEE
_ZN7android8hardware6health4V2_010BpHwHealth19_hidl_getCurrentNowEPNS0_10IInterfaceEPNS0_7details16HidlInstrumentorENSt3__18functionIFvNS2_6ResultEiEEE
_ZN7android8hardware6health4V2_010BpHwHealth19_hidl_getHealthInfoEPNS0_10IInterfaceEPNS0_7details16HidlInstrumentorENSt3__18functionIFvNS2_6ResultERKNS2_10HealthInfoEEEE
_ZN7android8hardware6health4V2_010BpHwHealth19interfaceDescriptorENSt3__18functionIFvRKNS0_11hidl_stringEEEE
_ZN7android8hardware6health4V2_010BpHwHealth20_hidl_getStorageInfoEPNS0_10IInterfaceEPNS0_7details16HidlInstrumentorENSt3__18functionIFvNS2_6ResultERKNS0_8hidl_vecINS2_11StorageInfoEEEEEE
_ZN7android8hardware6health4V2_010BpHwHealth21_hidl_getChargeStatusEPNS0_10IInterfaceEPNS0_7details16HidlInstrumentorENSt3__18functionIFvNS2_6ResultENS1_4V1_013BatteryStatusEEEE
_ZN7android8hardware6health4V2_010BpHwHealth21notifySyspropsChangedEv
_ZN7android8hardware6health4V2_010BpHwHealth21setHALInstrumentationEv
_ZN7android8hardware6health4V2_010BpHwHealth22_hidl_getChargeCounterEPNS0_10IInterfaceEPNS0_7details16HidlInstrumentorENSt3__18functionIFvNS2_6ResultEiEEE
_ZN7android8hardware6health4V2_010BpHwHealth22_hidl_getEnergyCounterEPNS0_10IInterfaceEPNS0_7details16HidlInstrumentorENSt3__18functionIFvNS2_6ResultElEEE
_ZN7android8hardware6health4V2_010BpHwHealth22_hidl_registerCallbackEPNS0_10IInterfaceEPNS0_7details16HidlInstrumentorERKNS_2spINS2_19IHealthInfoCallbackEEE
_ZN7android8hardware6health4V2_010BpHwHealth23_hidl_getCurrentAverageEPNS0_10IInterfaceEPNS0_7details16HidlInstrumentorENSt3__18functionIFvNS2_6ResultEiEEE
_ZN7android8hardware6health4V2_010BpHwHealth24_hidl_unregisterCallbackEPNS0_10IInterfaceEPNS0_7details16HidlInstrumentorERKNS_2spINS2_19IHealthInfoCallbackEEE
_ZN7android8hardware6health4V2_010BpHwHealth4pingEv
_ZN7android8hardware6health4V2_010BpHwHealth5debugERKNS0_11hidl_handleERKNS0_8hidl_vecINS0_11hidl_stringEEE
_ZN7android8hardware6health4V2_010BpHwHealth6updateEv
_ZN7android8hardware6health4V2_010BpHwHealthC1ERKNS_2spINS0_7IBinderEEE
_ZN7android8hardware6health4V2_010BpHwHealthC2ERKNS_2spINS0_7IBinderEEE
_ZN7android8hardware6health4V2_019IHealthInfoCallback10descriptorE
_ZN7android8hardware6health4V2_019IHealthInfoCallback10getServiceERKNSt3__112basic_stringIcNS4_11char_traitsIcEENS4_9allocatorIcEEEEb
_ZN7android8hardware6health4V2_019IHealthInfoCallback11linkToDeathERKNS_2spINS0_20hidl_death_recipientEEEm
_ZN7android8hardware6health4V2_019IHealthInfoCallback12getDebugInfoENSt3__18functionIFvRKNS_4hidl4base4V1_09DebugInfoEEEE
_ZN7android8hardware6health4V2_019IHealthInfoCallback12getHashChainENSt3__18functionIFvRKNS0_8hidl_vecINS0_10hidl_arrayIhLm32EJEEEEEEEE
_ZN7android8hardware6health4V2_019IHealthInfoCallback13tryGetServiceERKNSt3__112basic_stringIcNS4_11char_traitsIcEENS4_9allocatorIcEEEEb
_ZN7android8hardware6health4V2_019IHealthInfoCallback13unlinkToDeathERKNS_2spINS0_20hidl_death_recipientEEE
_ZN7android8hardware6health4V2_019IHealthInfoCallback14interfaceChainENSt3__18functionIFvRKNS0_8hidl_vecINS0_11hidl_stringEEEEEE
_ZN7android8hardware6health4V2_019IHealthInfoCallback17registerAsServiceERKNSt3__112basic_stringIcNS4_11char_traitsIcEENS4_9allocatorIcEEEE
_ZN7android8hardware6health4V2_019IHealthInfoCallback19interfaceDescriptorENSt3__18functionIFvRKNS0_11hidl_stringEEEE
_ZN7android8hardware6health4V2_019IHealthInfoCallback21notifySyspropsChangedEv
_ZN7android8hardware6health4V2_019IHealthInfoCallback21setHALInstrumentationEv
_ZN7android8hardware6health4V2_019IHealthInfoCallback24registerForNotificationsERKNSt3__112basic_stringIcNS4_11char_traitsIcEENS4_9allocatorIcEEEERKNS_2spINS_4hidl7manager4V1_020IServiceNotificationEEE
_ZN7android8hardware6health4V2_019IHealthInfoCallback4pingEv
_ZN7android8hardware6health4V2_019IHealthInfoCallback5debugERKNS0_11hidl_handleERKNS0_8hidl_vecINS0_11hidl_stringEEE
_ZN7android8hardware6health4V2_019IHealthInfoCallback8castFromERKNS_2spINS_4hidl4base4V1_05IBaseEEEb
_ZN7android8hardware6health4V2_019IHealthInfoCallback8castFromERKNS_2spIS3_EEb
_ZN7android8hardware6health4V2_020BsHealthInfoCallback13addOnewayTaskENSt3__18functionIFvvEEE
_ZN7android8hardware6health4V2_020BsHealthInfoCallbackC1ENS_2spINS2_19IHealthInfoCallbackEEE
_ZN7android8hardware6health4V2_020BsHealthInfoCallbackC2ENS_2spINS2_19IHealthInfoCallbackEEE
_ZN7android8hardware6health4V2_021writeEmbeddedToParcelERKNS2_10HealthInfoEPNS0_6ParcelEmm
_ZN7android8hardware6health4V2_021writeEmbeddedToParcelERKNS2_11StorageInfoEPNS0_6ParcelEmm
_ZN7android8hardware6health4V2_021writeEmbeddedToParcelERKNS2_16StorageAttributeEPNS0_6ParcelEmm
_ZN7android8hardware6health4V2_021writeEmbeddedToParcelERKNS2_9DiskStatsEPNS0_6ParcelEmm
_ZN7android8hardware6health4V2_022BnHwHealthInfoCallback10onTransactEjRKNS0_6ParcelEPS4_jNSt3__18functionIFvRS4_EEE
_ZN7android8hardware6health4V2_022BnHwHealthInfoCallback12getDebugInfoENSt3__18functionIFvRKNS_4hidl4base4V1_09DebugInfoEEEE
_ZN7android8hardware6health4V2_022BnHwHealthInfoCallback23_hidl_healthInfoChangedEPNS_4hidl4base4V1_08BnHwBaseERKNS0_6ParcelEPS9_NSt3__18functionIFvRS9_EEE
_ZN7android8hardware6health4V2_022BnHwHealthInfoCallback4pingEv
_ZN7android8hardware6health4V2_022BnHwHealthInfoCallbackC1ERKNS_2spINS2_19IHealthInfoCallbackEEE
_ZN7android8hardware6health4V2_022BnHwHealthInfoCallbackC2ERKNS_2spINS2_19IHealthInfoCallbackEEE
_ZN7android8hardware6health4V2_022BnHwHealthInfoCallbackD0Ev
_ZN7android8hardware6health4V2_022BnHwHealthInfoCallbackD1Ev
_ZN7android8hardware6health4V2_022BnHwHealthInfoCallbackD2Ev
_ZN7android8hardware6health4V2_022BpHwHealthInfoCallback11linkToDeathERKNS_2spINS0_20hidl_death_recipientEEEm
_ZN7android8hardware6health4V2_022BpHwHealthInfoCallback12getDebugInfoENSt3__18functionIFvRKNS_4hidl4base4V1_09DebugInfoEEEE
_ZN7android8hardware6health4V2_022BpHwHealthInfoCallback12getHashChainENSt3__18functionIFvRKNS0_8hidl_vecINS0_10hidl_arrayIhLm32EJEEEEEEEE
_ZN7android8hardware6health4V2_022BpHwHealthInfoCallback13unlinkToDeathERKNS_2spINS0_20hidl_death_recipientEEE
_ZN7android8hardware6health4V2_022BpHwHealthInfoCallback14interfaceChainENSt3__18functionIFvRKNS0_8hidl_vecINS0_11hidl_stringEEEEEE
_ZN7android8hardware6health4V2_022BpHwHealthInfoCallback17healthInfoChangedERKNS2_10HealthInfoE
_ZN7android8hardware6health4V2_022BpHwHealthInfoCallback19interfaceDescriptorENSt3__18functionIFvRKNS0_11hidl_stringEEEE
_ZN7android8hardware6health4V2_022BpHwHealthInfoCallback21notifySyspropsChangedEv
_ZN7android8hardware6health4V2_022BpHwHealthInfoCallback21setHALInstrumentationEv
_ZN7android8hardware6health4V2_022BpHwHealthInfoCallback23_hidl_healthInfoChangedEPNS0_10IInterfaceEPNS0_7details16HidlInstrumentorERKNS2_10HealthInfoE
_ZN7android8hardware6health4V2_022BpHwHealthInfoCallback4pingEv
_ZN7android8hardware6health4V2_022BpHwHealthInfoCallback5debugERKNS0_11hidl_handleERKNS0_8hidl_vecINS0_11hidl_stringEEE
_ZN7android8hardware6health4V2_022BpHwHealthInfoCallbackC1ERKNS_2spINS0_7IBinderEEE
_ZN7android8hardware6health4V2_022BpHwHealthInfoCallbackC2ERKNS_2spINS0_7IBinderEEE
_ZN7android8hardware6health4V2_022readEmbeddedFromParcelERKNS2_10HealthInfoERKNS0_6ParcelEmm
_ZN7android8hardware6health4V2_022readEmbeddedFromParcelERKNS2_11StorageInfoERKNS0_6ParcelEmm
_ZN7android8hardware6health4V2_022readEmbeddedFromParcelERKNS2_16StorageAttributeERKNS0_6ParcelEmm
_ZN7android8hardware6health4V2_022readEmbeddedFromParcelERKNS2_9DiskStatsERKNS0_6ParcelEmm
_ZN7android8hardware6health4V2_07IHealth10descriptorE
_ZN7android8hardware6health4V2_07IHealth10getServiceERKNSt3__112basic_stringIcNS4_11char_traitsIcEENS4_9allocatorIcEEEEb
_ZN7android8hardware6health4V2_07IHealth11linkToDeathERKNS_2spINS0_20hidl_death_recipientEEEm
_ZN7android8hardware6health4V2_07IHealth12getDebugInfoENSt3__18functionIFvRKNS_4hidl4base4V1_09DebugInfoEEEE
_ZN7android8hardware6health4V2_07IHealth12getHashChainENSt3__18functionIFvRKNS0_8hidl_vecINS0_10hidl_arrayIhLm32EJEEEEEEEE
_ZN7android8hardware6health4V2_07IHealth13tryGetServiceERKNSt3__112basic_stringIcNS4_11char_traitsIcEENS4_9allocatorIcEEEEb
_ZN7android8hardware6health4V2_07IHealth13unlinkToDeathERKNS_2spINS0_20hidl_death_recipientEEE
_ZN7android8hardware6health4V2_07IHealth14interfaceChainENSt3__18functionIFvRKNS0_8hidl_vecINS0_11hidl_stringEEEEEE
_ZN7android8hardware6health4V2_07IHealth17registerAsServiceERKNSt3__112basic_stringIcNS4_11char_traitsIcEENS4_9allocatorIcEEEE
_ZN7android8hardware6health4V2_07IHealth19interfaceDescriptorENSt3__18functionIFvRKNS0_11hidl_stringEEEE
_ZN7android8hardware6health4V2_07IHealth21notifySyspropsChangedEv
_ZN7android8hardware6health4V2_07IHealth21setHALInstrumentationEv
_ZN7android8hardware6health4V2_07IHealth24registerForNotificationsERKNSt3__112basic_stringIcNS4_11char_traitsIcEENS4_9allocatorIcEEEERKNS_2spINS_4hidl7manager4V1_020IServiceNotificationEEE
_ZN7android8hardware6health4V2_07IHealth4pingEv
_ZN7android8hardware6health4V2_07IHealth5debugERKNS0_11hidl_handleERKNS0_8hidl_vecINS0_11hidl_stringEEE
_ZN7android8hardware6health4V2_07IHealth8castFromERKNS_2spINS_4hidl4base4V1_05IBaseEEEb
_ZN7android8hardware6health4V2_07IHealth8castFromERKNS_2spIS3_EEb
_ZN7android8hardware6health4V2_08BsHealth13addOnewayTaskENSt3__18functionIFvvEEE
_ZN7android8hardware6health4V2_08BsHealthC1ENS_2spINS2_7IHealthEEE
_ZN7android8hardware6health4V2_08BsHealthC2ENS_2spINS2_7IHealthEEE
_ZTCN7android8hardware6health4V2_010BnHwHealthE0_NS0_7IBinderE
_ZTCN7android8hardware6health4V2_010BnHwHealthE0_NS0_9BHwBinderE
_ZTCN7android8hardware6health4V2_010BnHwHealthE0_NS_4hidl4base4V1_08BnHwBaseE
_ZTCN7android8hardware6health4V2_010BpHwHealthE0_NS0_11BpInterfaceINS2_7IHealthEEE
_ZTCN7android8hardware6health4V2_010BpHwHealthE0_NS2_7IHealthE
_ZTCN7android8hardware6health4V2_010BpHwHealthE0_NS_4hidl4base4V1_05IBaseE
_ZTCN7android8hardware6health4V2_010BpHwHealthE16_NS0_11BpHwRefBaseE
_ZTCN7android8hardware6health4V2_010BpHwHealthE8_NS0_10IInterfaceE
_ZTCN7android8hardware6health4V2_019IHealthInfoCallbackE0_NS_4hidl4base4V1_05IBaseE
_ZTCN7android8hardware6health4V2_022BnHwHealthInfoCallbackE0_NS0_7IBinderE
_ZTCN7android8hardware6health4V2_022BnHwHealthInfoCallbackE0_NS0_9BHwBinderE
_ZTCN7android8hardware6health4V2_022BnHwHealthInfoCallbackE0_NS_4hidl4base4V1_08BnHwBaseE
_ZTCN7android8hardware6health4V2_022BpHwHealthInfoCallbackE0_NS0_11BpInterfaceINS2_19IHealthInfoCallbackEEE
_ZTCN7android8hardware6health4V2_022BpHwHealthInfoCallbackE0_NS2_19IHealthInfoCallbackE
_ZTCN7android8hardware6health4V2_022BpHwHealthInfoCallbackE0_NS_4hidl4base4V1_05IBaseE
_ZTCN7android8hardware6health4V2_022BpHwHealthInfoCallbackE16_NS0_11BpHwRefBaseE
_ZTCN7android8hardware6health4V2_022BpHwHealthInfoCallbackE8_NS0_10IInterfaceE
_ZTCN7android8hardware6health4V2_07IHealthE0_NS_4hidl4base4V1_05IBaseE
_ZTTN7android8hardware6health4V2_010BnHwHealthE
_ZTTN7android8hardware6health4V2_010BpHwHealthE
_ZTTN7android8hardware6health4V2_019IHealthInfoCallbackE
_ZTTN7android8hardware6health4V2_022BnHwHealthInfoCallbackE
_ZTTN7android8hardware6health4V2_022BpHwHealthInfoCallbackE
_ZTTN7android8hardware6health4V2_07IHealthE
_ZTVN7android8hardware6health4V2_010BnHwHealthE
_ZTVN7android8hardware6health4V2_010BpHwHealthE
_ZTVN7android8hardware6health4V2_019IHealthInfoCallbackE
_ZTVN7android8hardware6health4V2_022BnHwHealthInfoCallbackE
_ZTVN7android8hardware6health4V2_022BpHwHealthInfoCallbackE
_ZTVN7android8hardware6health4V2_07IHealthE
_ZThn32_N7android8hardware6health4V2_010BnHwHealthD0Ev
_ZThn32_N7android8hardware6health4V2_010BnHwHealthD1Ev
_ZThn32_N7android8hardware6health4V2_022BnHwHealthInfoCallbackD0Ev
_ZThn32_N7android8hardware6health4V2_022BnHwHealthInfoCallbackD1Ev
_ZTv0_n24_N7android8hardware6health4V2_010BnHwHealthD0Ev
_ZTv0_n24_N7android8hardware6health4V2_010BnHwHealthD1Ev
_ZTv0_n24_N7android8hardware6health4V2_022BnHwHealthInfoCallbackD0Ev
_ZTv0_n24_N7android8hardware6health4V2_022BnHwHealthInfoCallbackD1Ev
