_ZN7android4hidl5token4V1_013ITokenManager10descriptorE
_ZN7android4hidl5token4V1_013ITokenManager10getServiceERKNSt3__112basic_stringIcNS4_11char_traitsIcEENS4_9allocatorIcEEEEb
_ZN7android4hidl5token4V1_013ITokenManager11linkToDeathERKNS_2spINS_8hardware20hidl_death_recipientEEEm
_ZN7android4hidl5token4V1_013ITokenManager12getDebugInfoENSt3__18functionIFvRKNS0_4base4V1_09DebugInfoEEEE
_ZN7android4hidl5token4V1_013ITokenManager12getHashChainENSt3__18functionIFvRKNS_8hardware8hidl_vecINS6_10hidl_arrayIhLm32EJEEEEEEEE
_ZN7android4hidl5token4V1_013ITokenManager13tryGetServiceERKNSt3__112basic_stringIcNS4_11char_traitsIcEENS4_9allocatorIcEEEEb
_ZN7android4hidl5token4V1_013ITokenManager13unlinkToDeathERKNS_2spINS_8hardware20hidl_death_recipientEEE
_ZN7android4hidl5token4V1_013ITokenManager14interfaceChainENSt3__18functionIFvRKNS_8hardware8hidl_vecINS6_11hidl_stringEEEEEE
_ZN7android4hidl5token4V1_013ITokenManager17registerAsServiceERKNSt3__112basic_stringIcNS4_11char_traitsIcEENS4_9allocatorIcEEEE
_ZN7android4hidl5token4V1_013ITokenManager19interfaceDescriptorENSt3__18functionIFvRKNS_8hardware11hidl_stringEEEE
_ZN7android4hidl5token4V1_013ITokenManager21notifySyspropsChangedEv
_ZN7android4hidl5token4V1_013ITokenManager21setHALInstrumentationEv
_ZN7android4hidl5token4V1_013ITokenManager24registerForNotificationsERKNSt3__112basic_stringIcNS4_11char_traitsIcEENS4_9allocatorIcEEEERKNS_2spINS0_7manager4V1_020IServiceNotificationEEE
_ZN7android4hidl5token4V1_013ITokenManager4pingEv
_ZN7android4hidl5token4V1_013ITokenManager5debugERKNS_8hardware11hidl_handleERKNS4_8hidl_vecINS4_11hidl_stringEEE
_ZN7android4hidl5token4V1_013ITokenManager8castFromERKNS_2spINS0_4base4V1_05IBaseEEEb
_ZN7android4hidl5token4V1_013ITokenManager8castFromERKNS_2spIS3_EEb
_ZN7android4hidl5token4V1_014BsTokenManager13addOnewayTaskENSt3__18functionIFvvEEE
_ZN7android4hidl5token4V1_014BsTokenManagerC1ENS_2spINS2_13ITokenManagerEEE
_ZN7android4hidl5token4V1_014BsTokenManagerC2ENS_2spINS2_13ITokenManagerEEE
_ZN7android4hidl5token4V1_016BnHwTokenManager10onTransactEjRKNS_8hardware6ParcelEPS5_jNSt3__18functionIFvRS5_EEE
_ZN7android4hidl5token4V1_016BnHwTokenManager12getDebugInfoENSt3__18functionIFvRKNS0_4base4V1_09DebugInfoEEEE
_ZN7android4hidl5token4V1_016BnHwTokenManager16_hidl_unregisterEPNS0_4base4V1_08BnHwBaseERKNS_8hardware6ParcelEPS9_NSt3__18functionIFvRS9_EEE
_ZN7android4hidl5token4V1_016BnHwTokenManager17_hidl_createTokenEPNS0_4base4V1_08BnHwBaseERKNS_8hardware6ParcelEPS9_NSt3__18functionIFvRS9_EEE
_ZN7android4hidl5token4V1_016BnHwTokenManager4pingEv
_ZN7android4hidl5token4V1_016BnHwTokenManager9_hidl_getEPNS0_4base4V1_08BnHwBaseERKNS_8hardware6ParcelEPS9_NSt3__18functionIFvRS9_EEE
_ZN7android4hidl5token4V1_016BnHwTokenManagerC1ERKNS_2spINS2_13ITokenManagerEEE
_ZN7android4hidl5token4V1_016BnHwTokenManagerC2ERKNS_2spINS2_13ITokenManagerEEE
_ZN7android4hidl5token4V1_016BnHwTokenManagerD0Ev
_ZN7android4hidl5token4V1_016BnHwTokenManagerD1Ev
_ZN7android4hidl5token4V1_016BnHwTokenManagerD2Ev
_ZN7android4hidl5token4V1_016BpHwTokenManager10unregisterERKNS_8hardware8hidl_vecIhEE
_ZN7android4hidl5token4V1_016BpHwTokenManager11createTokenERKNS_2spINS0_4base4V1_05IBaseEEENSt3__18functionIFvRKNS_8hardware8hidl_vecIhEEEEE
_ZN7android4hidl5token4V1_016BpHwTokenManager11linkToDeathERKNS_2spINS_8hardware20hidl_death_recipientEEEm
_ZN7android4hidl5token4V1_016BpHwTokenManager12getDebugInfoENSt3__18functionIFvRKNS0_4base4V1_09DebugInfoEEEE
_ZN7android4hidl5token4V1_016BpHwTokenManager12getHashChainENSt3__18functionIFvRKNS_8hardware8hidl_vecINS6_10hidl_arrayIhLm32EJEEEEEEEE
_ZN7android4hidl5token4V1_016BpHwTokenManager13unlinkToDeathERKNS_2spINS_8hardware20hidl_death_recipientEEE
_ZN7android4hidl5token4V1_016BpHwTokenManager14interfaceChainENSt3__18functionIFvRKNS_8hardware8hidl_vecINS6_11hidl_stringEEEEEE
_ZN7android4hidl5token4V1_016BpHwTokenManager16_hidl_unregisterEPNS_8hardware10IInterfaceEPNS4_7details16HidlInstrumentorERKNS4_8hidl_vecIhEE
_ZN7android4hidl5token4V1_016BpHwTokenManager17_hidl_createTokenEPNS_8hardware10IInterfaceEPNS4_7details16HidlInstrumentorERKNS_2spINS0_4base4V1_05IBaseEEENSt3__18functionIFvRKNS4_8hidl_vecIhEEEEE
_ZN7android4hidl5token4V1_016BpHwTokenManager19interfaceDescriptorENSt3__18functionIFvRKNS_8hardware11hidl_stringEEEE
_ZN7android4hidl5token4V1_016BpHwTokenManager21notifySyspropsChangedEv
_ZN7android4hidl5token4V1_016BpHwTokenManager21setHALInstrumentationEv
_ZN7android4hidl5token4V1_016BpHwTokenManager3getERKNS_8hardware8hidl_vecIhEE
_ZN7android4hidl5token4V1_016BpHwTokenManager4pingEv
_ZN7android4hidl5token4V1_016BpHwTokenManager5debugERKNS_8hardware11hidl_handleERKNS4_8hidl_vecINS4_11hidl_stringEEE
_ZN7android4hidl5token4V1_016BpHwTokenManager9_hidl_getEPNS_8hardware10IInterfaceEPNS4_7details16HidlInstrumentorERKNS4_8hidl_vecIhEE
_ZN7android4hidl5token4V1_016BpHwTokenManagerC1ERKNS_2spINS_8hardware7IBinderEEE
_ZN7android4hidl5token4V1_016BpHwTokenManagerC2ERKNS_2spINS_8hardware7IBinderEEE
_ZTCN7android4hidl5token4V1_013ITokenManagerE0_NS0_4base4V1_05IBaseE
_ZTCN7android4hidl5token4V1_016BnHwTokenManagerE0_NS0_4base4V1_08BnHwBaseE
_ZTCN7android4hidl5token4V1_016BnHwTokenManagerE0_NS_8hardware7IBinderE
_ZTCN7android4hidl5token4V1_016BnHwTokenManagerE0_NS_8hardware9BHwBinderE
_ZTCN7android4hidl5token4V1_016BpHwTokenManagerE0_NS0_4base4V1_05IBaseE
_ZTCN7android4hidl5token4V1_016BpHwTokenManagerE0_NS2_13ITokenManagerE
_ZTCN7android4hidl5token4V1_016BpHwTokenManagerE0_NS_8hardware11BpInterfaceINS2_13ITokenManagerEEE
_ZTCN7android4hidl5token4V1_016BpHwTokenManagerE16_NS_8hardware11BpHwRefBaseE
_ZTCN7android4hidl5token4V1_016BpHwTokenManagerE8_NS_8hardware10IInterfaceE
_ZTTN7android4hidl5token4V1_013ITokenManagerE
_ZTTN7android4hidl5token4V1_016BnHwTokenManagerE
_ZTTN7android4hidl5token4V1_016BpHwTokenManagerE
_ZTVN7android4hidl5token4V1_013ITokenManagerE
_ZTVN7android4hidl5token4V1_016BnHwTokenManagerE
_ZTVN7android4hidl5token4V1_016BpHwTokenManagerE
_ZThn32_N7android4hidl5token4V1_016BnHwTokenManagerD0Ev
_ZThn32_N7android4hidl5token4V1_016BnHwTokenManagerD1Ev
_ZTv0_n24_N7android4hidl5token4V1_016BnHwTokenManagerD0Ev
_ZTv0_n24_N7android4hidl5token4V1_016BnHwTokenManagerD1Ev
