_ZN7android8hardware14neuralnetworks4V1_010BnHwDevice10onTransactEjRKNS0_6ParcelEPS4_jNSt3__18functionIFvRS4_EEE
_ZN7android8hardware14neuralnetworks4V1_010BnHwDevice12getDebugInfoENSt3__18functionIFvRKNS_4hidl4base4V1_09DebugInfoEEEE
_ZN7android8hardware14neuralnetworks4V1_010BnHwDevice15_hidl_getStatusEPNS_4hidl4base4V1_08BnHwBaseERKNS0_6ParcelEPS9_NSt3__18functionIFvRS9_EEE
_ZN7android8hardware14neuralnetworks4V1_010BnHwDevice18_hidl_prepareModelEPNS_4hidl4base4V1_08BnHwBaseERKNS0_6ParcelEPS9_NSt3__18functionIFvRS9_EEE
_ZN7android8hardware14neuralnetworks4V1_010BnHwDevice21_hidl_getCapabilitiesEPNS_4hidl4base4V1_08BnHwBaseERKNS0_6ParcelEPS9_NSt3__18functionIFvRS9_EEE
_ZN7android8hardware14neuralnetworks4V1_010BnHwDevice28_hidl_getSupportedOperationsEPNS_4hidl4base4V1_08BnHwBaseERKNS0_6ParcelEPS9_NSt3__18functionIFvRS9_EEE
_ZN7android8hardware14neuralnetworks4V1_010BnHwDevice4pingEv
_ZN7android8hardware14neuralnetworks4V1_010BnHwDeviceC1ERKNS_2spINS2_7IDeviceEEE
_ZN7android8hardware14neuralnetworks4V1_010BnHwDeviceC2ERKNS_2spINS2_7IDeviceEEE
_ZN7android8hardware14neuralnetworks4V1_010BnHwDeviceD0Ev
_ZN7android8hardware14neuralnetworks4V1_010BnHwDeviceD1Ev
_ZN7android8hardware14neuralnetworks4V1_010BnHwDeviceD2Ev
_ZN7android8hardware14neuralnetworks4V1_010BpHwDevice11linkToDeathERKNS_2spINS0_20hidl_death_recipientEEEm
_ZN7android8hardware14neuralnetworks4V1_010BpHwDevice12getDebugInfoENSt3__18functionIFvRKNS_4hidl4base4V1_09DebugInfoEEEE
_ZN7android8hardware14neuralnetworks4V1_010BpHwDevice12getHashChainENSt3__18functionIFvRKNS0_8hidl_vecINS0_10hidl_arrayIhLm32EJEEEEEEEE
_ZN7android8hardware14neuralnetworks4V1_010BpHwDevice12prepareModelERKNS2_5ModelERKNS_2spINS2_22IPreparedModelCallbackEEE
_ZN7android8hardware14neuralnetworks4V1_010BpHwDevice13unlinkToDeathERKNS_2spINS0_20hidl_death_recipientEEE
_ZN7android8hardware14neuralnetworks4V1_010BpHwDevice14interfaceChainENSt3__18functionIFvRKNS0_8hidl_vecINS0_11hidl_stringEEEEEE
_ZN7android8hardware14neuralnetworks4V1_010BpHwDevice15_hidl_getStatusEPNS0_10IInterfaceEPNS0_7details16HidlInstrumentorE
_ZN7android8hardware14neuralnetworks4V1_010BpHwDevice15getCapabilitiesENSt3__18functionIFvNS2_11ErrorStatusERKNS2_12CapabilitiesEEEE
_ZN7android8hardware14neuralnetworks4V1_010BpHwDevice18_hidl_prepareModelEPNS0_10IInterfaceEPNS0_7details16HidlInstrumentorERKNS2_5ModelERKNS_2spINS2_22IPreparedModelCallbackEEE
_ZN7android8hardware14neuralnetworks4V1_010BpHwDevice19interfaceDescriptorENSt3__18functionIFvRKNS0_11hidl_stringEEEE
_ZN7android8hardware14neuralnetworks4V1_010BpHwDevice21_hidl_getCapabilitiesEPNS0_10IInterfaceEPNS0_7details16HidlInstrumentorENSt3__18functionIFvNS2_11ErrorStatusERKNS2_12CapabilitiesEEEE
_ZN7android8hardware14neuralnetworks4V1_010BpHwDevice21notifySyspropsChangedEv
_ZN7android8hardware14neuralnetworks4V1_010BpHwDevice21setHALInstrumentationEv
_ZN7android8hardware14neuralnetworks4V1_010BpHwDevice22getSupportedOperationsERKNS2_5ModelENSt3__18functionIFvNS2_11ErrorStatusERKNS0_8hidl_vecIbEEEEE
_ZN7android8hardware14neuralnetworks4V1_010BpHwDevice28_hidl_getSupportedOperationsEPNS0_10IInterfaceEPNS0_7details16HidlInstrumentorERKNS2_5ModelENSt3__18functionIFvNS2_11ErrorStatusERKNS0_8hidl_vecIbEEEEE
_ZN7android8hardware14neuralnetworks4V1_010BpHwDevice4pingEv
_ZN7android8hardware14neuralnetworks4V1_010BpHwDevice5debugERKNS0_11hidl_handleERKNS0_8hidl_vecINS0_11hidl_stringEEE
_ZN7android8hardware14neuralnetworks4V1_010BpHwDevice9getStatusEv
_ZN7android8hardware14neuralnetworks4V1_010BpHwDeviceC1ERKNS_2spINS0_7IBinderEEE
_ZN7android8hardware14neuralnetworks4V1_010BpHwDeviceC2ERKNS_2spINS0_7IBinderEEE
_ZN7android8hardware14neuralnetworks4V1_014IPreparedModel10descriptorE
_ZN7android8hardware14neuralnetworks4V1_014IPreparedModel10getServiceERKNSt3__112basic_stringIcNS4_11char_traitsIcEENS4_9allocatorIcEEEEb
_ZN7android8hardware14neuralnetworks4V1_014IPreparedModel11linkToDeathERKNS_2spINS0_20hidl_death_recipientEEEm
_ZN7android8hardware14neuralnetworks4V1_014IPreparedModel12getDebugInfoENSt3__18functionIFvRKNS_4hidl4base4V1_09DebugInfoEEEE
_ZN7android8hardware14neuralnetworks4V1_014IPreparedModel12getHashChainENSt3__18functionIFvRKNS0_8hidl_vecINS0_10hidl_arrayIhLm32EJEEEEEEEE
_ZN7android8hardware14neuralnetworks4V1_014IPreparedModel13tryGetServiceERKNSt3__112basic_stringIcNS4_11char_traitsIcEENS4_9allocatorIcEEEEb
_ZN7android8hardware14neuralnetworks4V1_014IPreparedModel13unlinkToDeathERKNS_2spINS0_20hidl_death_recipientEEE
_ZN7android8hardware14neuralnetworks4V1_014IPreparedModel14interfaceChainENSt3__18functionIFvRKNS0_8hidl_vecINS0_11hidl_stringEEEEEE
_ZN7android8hardware14neuralnetworks4V1_014IPreparedModel17registerAsServiceERKNSt3__112basic_stringIcNS4_11char_traitsIcEENS4_9allocatorIcEEEE
_ZN7android8hardware14neuralnetworks4V1_014IPreparedModel19interfaceDescriptorENSt3__18functionIFvRKNS0_11hidl_stringEEEE
_ZN7android8hardware14neuralnetworks4V1_014IPreparedModel21notifySyspropsChangedEv
_ZN7android8hardware14neuralnetworks4V1_014IPreparedModel21setHALInstrumentationEv
_ZN7android8hardware14neuralnetworks4V1_014IPreparedModel24registerForNotificationsERKNSt3__112basic_stringIcNS4_11char_traitsIcEENS4_9allocatorIcEEEERKNS_2spINS_4hidl7manager4V1_020IServiceNotificationEEE
_ZN7android8hardware14neuralnetworks4V1_014IPreparedModel4pingEv
_ZN7android8hardware14neuralnetworks4V1_014IPreparedModel5debugERKNS0_11hidl_handleERKNS0_8hidl_vecINS0_11hidl_stringEEE
_ZN7android8hardware14neuralnetworks4V1_014IPreparedModel8castFromERKNS_2spINS_4hidl4base4V1_05IBaseEEEb
_ZN7android8hardware14neuralnetworks4V1_014IPreparedModel8castFromERKNS_2spIS3_EEb
_ZN7android8hardware14neuralnetworks4V1_015BsPreparedModel13addOnewayTaskENSt3__18functionIFvvEEE
_ZN7android8hardware14neuralnetworks4V1_015BsPreparedModelC1ENS_2spINS2_14IPreparedModelEEE
_ZN7android8hardware14neuralnetworks4V1_015BsPreparedModelC2ENS_2spINS2_14IPreparedModelEEE
_ZN7android8hardware14neuralnetworks4V1_017BnHwPreparedModel10onTransactEjRKNS0_6ParcelEPS4_jNSt3__18functionIFvRS4_EEE
_ZN7android8hardware14neuralnetworks4V1_017BnHwPreparedModel12getDebugInfoENSt3__18functionIFvRKNS_4hidl4base4V1_09DebugInfoEEEE
_ZN7android8hardware14neuralnetworks4V1_017BnHwPreparedModel13_hidl_executeEPNS_4hidl4base4V1_08BnHwBaseERKNS0_6ParcelEPS9_NSt3__18functionIFvRS9_EEE
_ZN7android8hardware14neuralnetworks4V1_017BnHwPreparedModel4pingEv
_ZN7android8hardware14neuralnetworks4V1_017BnHwPreparedModelC1ERKNS_2spINS2_14IPreparedModelEEE
_ZN7android8hardware14neuralnetworks4V1_017BnHwPreparedModelC2ERKNS_2spINS2_14IPreparedModelEEE
_ZN7android8hardware14neuralnetworks4V1_017BnHwPreparedModelD0Ev
_ZN7android8hardware14neuralnetworks4V1_017BnHwPreparedModelD1Ev
_ZN7android8hardware14neuralnetworks4V1_017BnHwPreparedModelD2Ev
_ZN7android8hardware14neuralnetworks4V1_017BpHwPreparedModel11linkToDeathERKNS_2spINS0_20hidl_death_recipientEEEm
_ZN7android8hardware14neuralnetworks4V1_017BpHwPreparedModel12getDebugInfoENSt3__18functionIFvRKNS_4hidl4base4V1_09DebugInfoEEEE
_ZN7android8hardware14neuralnetworks4V1_017BpHwPreparedModel12getHashChainENSt3__18functionIFvRKNS0_8hidl_vecINS0_10hidl_arrayIhLm32EJEEEEEEEE
_ZN7android8hardware14neuralnetworks4V1_017BpHwPreparedModel13_hidl_executeEPNS0_10IInterfaceEPNS0_7details16HidlInstrumentorERKNS2_7RequestERKNS_2spINS2_18IExecutionCallbackEEE
_ZN7android8hardware14neuralnetworks4V1_017BpHwPreparedModel13unlinkToDeathERKNS_2spINS0_20hidl_death_recipientEEE
_ZN7android8hardware14neuralnetworks4V1_017BpHwPreparedModel14interfaceChainENSt3__18functionIFvRKNS0_8hidl_vecINS0_11hidl_stringEEEEEE
_ZN7android8hardware14neuralnetworks4V1_017BpHwPreparedModel19interfaceDescriptorENSt3__18functionIFvRKNS0_11hidl_stringEEEE
_ZN7android8hardware14neuralnetworks4V1_017BpHwPreparedModel21notifySyspropsChangedEv
_ZN7android8hardware14neuralnetworks4V1_017BpHwPreparedModel21setHALInstrumentationEv
_ZN7android8hardware14neuralnetworks4V1_017BpHwPreparedModel4pingEv
_ZN7android8hardware14neuralnetworks4V1_017BpHwPreparedModel5debugERKNS0_11hidl_handleERKNS0_8hidl_vecINS0_11hidl_stringEEE
_ZN7android8hardware14neuralnetworks4V1_017BpHwPreparedModel7executeERKNS2_7RequestERKNS_2spINS2_18IExecutionCallbackEEE
_ZN7android8hardware14neuralnetworks4V1_017BpHwPreparedModelC1ERKNS_2spINS0_7IBinderEEE
_ZN7android8hardware14neuralnetworks4V1_017BpHwPreparedModelC2ERKNS_2spINS0_7IBinderEEE
_ZN7android8hardware14neuralnetworks4V1_018IExecutionCallback10descriptorE
_ZN7android8hardware14neuralnetworks4V1_018IExecutionCallback10getServiceERKNSt3__112basic_stringIcNS4_11char_traitsIcEENS4_9allocatorIcEEEEb
_ZN7android8hardware14neuralnetworks4V1_018IExecutionCallback11linkToDeathERKNS_2spINS0_20hidl_death_recipientEEEm
_ZN7android8hardware14neuralnetworks4V1_018IExecutionCallback12getDebugInfoENSt3__18functionIFvRKNS_4hidl4base4V1_09DebugInfoEEEE
_ZN7android8hardware14neuralnetworks4V1_018IExecutionCallback12getHashChainENSt3__18functionIFvRKNS0_8hidl_vecINS0_10hidl_arrayIhLm32EJEEEEEEEE
_ZN7android8hardware14neuralnetworks4V1_018IExecutionCallback13tryGetServiceERKNSt3__112basic_stringIcNS4_11char_traitsIcEENS4_9allocatorIcEEEEb
_ZN7android8hardware14neuralnetworks4V1_018IExecutionCallback13unlinkToDeathERKNS_2spINS0_20hidl_death_recipientEEE
_ZN7android8hardware14neuralnetworks4V1_018IExecutionCallback14interfaceChainENSt3__18functionIFvRKNS0_8hidl_vecINS0_11hidl_stringEEEEEE
_ZN7android8hardware14neuralnetworks4V1_018IExecutionCallback17registerAsServiceERKNSt3__112basic_stringIcNS4_11char_traitsIcEENS4_9allocatorIcEEEE
_ZN7android8hardware14neuralnetworks4V1_018IExecutionCallback19interfaceDescriptorENSt3__18functionIFvRKNS0_11hidl_stringEEEE
_ZN7android8hardware14neuralnetworks4V1_018IExecutionCallback21notifySyspropsChangedEv
_ZN7android8hardware14neuralnetworks4V1_018IExecutionCallback21setHALInstrumentationEv
_ZN7android8hardware14neuralnetworks4V1_018IExecutionCallback24registerForNotificationsERKNSt3__112basic_stringIcNS4_11char_traitsIcEENS4_9allocatorIcEEEERKNS_2spINS_4hidl7manager4V1_020IServiceNotificationEEE
_ZN7android8hardware14neuralnetworks4V1_018IExecutionCallback4pingEv
_ZN7android8hardware14neuralnetworks4V1_018IExecutionCallback5debugERKNS0_11hidl_handleERKNS0_8hidl_vecINS0_11hidl_stringEEE
_ZN7android8hardware14neuralnetworks4V1_018IExecutionCallback8castFromERKNS_2spINS_4hidl4base4V1_05IBaseEEEb
_ZN7android8hardware14neuralnetworks4V1_018IExecutionCallback8castFromERKNS_2spIS3_EEb
_ZN7android8hardware14neuralnetworks4V1_019BsExecutionCallback13addOnewayTaskENSt3__18functionIFvvEEE
_ZN7android8hardware14neuralnetworks4V1_019BsExecutionCallbackC1ENS_2spINS2_18IExecutionCallbackEEE
_ZN7android8hardware14neuralnetworks4V1_019BsExecutionCallbackC2ENS_2spINS2_18IExecutionCallbackEEE
_ZN7android8hardware14neuralnetworks4V1_021BnHwExecutionCallback10onTransactEjRKNS0_6ParcelEPS4_jNSt3__18functionIFvRS4_EEE
_ZN7android8hardware14neuralnetworks4V1_021BnHwExecutionCallback12_hidl_notifyEPNS_4hidl4base4V1_08BnHwBaseERKNS0_6ParcelEPS9_NSt3__18functionIFvRS9_EEE
_ZN7android8hardware14neuralnetworks4V1_021BnHwExecutionCallback12getDebugInfoENSt3__18functionIFvRKNS_4hidl4base4V1_09DebugInfoEEEE
_ZN7android8hardware14neuralnetworks4V1_021BnHwExecutionCallback4pingEv
_ZN7android8hardware14neuralnetworks4V1_021BnHwExecutionCallbackC1ERKNS_2spINS2_18IExecutionCallbackEEE
_ZN7android8hardware14neuralnetworks4V1_021BnHwExecutionCallbackC2ERKNS_2spINS2_18IExecutionCallbackEEE
_ZN7android8hardware14neuralnetworks4V1_021BnHwExecutionCallbackD0Ev
_ZN7android8hardware14neuralnetworks4V1_021BnHwExecutionCallbackD1Ev
_ZN7android8hardware14neuralnetworks4V1_021BnHwExecutionCallbackD2Ev
_ZN7android8hardware14neuralnetworks4V1_021BpHwExecutionCallback11linkToDeathERKNS_2spINS0_20hidl_death_recipientEEEm
_ZN7android8hardware14neuralnetworks4V1_021BpHwExecutionCallback12_hidl_notifyEPNS0_10IInterfaceEPNS0_7details16HidlInstrumentorENS2_11ErrorStatusE
_ZN7android8hardware14neuralnetworks4V1_021BpHwExecutionCallback12getDebugInfoENSt3__18functionIFvRKNS_4hidl4base4V1_09DebugInfoEEEE
_ZN7android8hardware14neuralnetworks4V1_021BpHwExecutionCallback12getHashChainENSt3__18functionIFvRKNS0_8hidl_vecINS0_10hidl_arrayIhLm32EJEEEEEEEE
_ZN7android8hardware14neuralnetworks4V1_021BpHwExecutionCallback13unlinkToDeathERKNS_2spINS0_20hidl_death_recipientEEE
_ZN7android8hardware14neuralnetworks4V1_021BpHwExecutionCallback14interfaceChainENSt3__18functionIFvRKNS0_8hidl_vecINS0_11hidl_stringEEEEEE
_ZN7android8hardware14neuralnetworks4V1_021BpHwExecutionCallback19interfaceDescriptorENSt3__18functionIFvRKNS0_11hidl_stringEEEE
_ZN7android8hardware14neuralnetworks4V1_021BpHwExecutionCallback21notifySyspropsChangedEv
_ZN7android8hardware14neuralnetworks4V1_021BpHwExecutionCallback21setHALInstrumentationEv
_ZN7android8hardware14neuralnetworks4V1_021BpHwExecutionCallback4pingEv
_ZN7android8hardware14neuralnetworks4V1_021BpHwExecutionCallback5debugERKNS0_11hidl_handleERKNS0_8hidl_vecINS0_11hidl_stringEEE
_ZN7android8hardware14neuralnetworks4V1_021BpHwExecutionCallback6notifyENS2_11ErrorStatusE
_ZN7android8hardware14neuralnetworks4V1_021BpHwExecutionCallbackC1ERKNS_2spINS0_7IBinderEEE
_ZN7android8hardware14neuralnetworks4V1_021BpHwExecutionCallbackC2ERKNS_2spINS0_7IBinderEEE
_ZN7android8hardware14neuralnetworks4V1_021writeEmbeddedToParcelERKNS2_15RequestArgumentEPNS0_6ParcelEmm
_ZN7android8hardware14neuralnetworks4V1_021writeEmbeddedToParcelERKNS2_5ModelEPNS0_6ParcelEmm
_ZN7android8hardware14neuralnetworks4V1_021writeEmbeddedToParcelERKNS2_7OperandEPNS0_6ParcelEmm
_ZN7android8hardware14neuralnetworks4V1_021writeEmbeddedToParcelERKNS2_7RequestEPNS0_6ParcelEmm
_ZN7android8hardware14neuralnetworks4V1_021writeEmbeddedToParcelERKNS2_9OperationEPNS0_6ParcelEmm
_ZN7android8hardware14neuralnetworks4V1_022IPreparedModelCallback10descriptorE
_ZN7android8hardware14neuralnetworks4V1_022IPreparedModelCallback10getServiceERKNSt3__112basic_stringIcNS4_11char_traitsIcEENS4_9allocatorIcEEEEb
_ZN7android8hardware14neuralnetworks4V1_022IPreparedModelCallback11linkToDeathERKNS_2spINS0_20hidl_death_recipientEEEm
_ZN7android8hardware14neuralnetworks4V1_022IPreparedModelCallback12getDebugInfoENSt3__18functionIFvRKNS_4hidl4base4V1_09DebugInfoEEEE
_ZN7android8hardware14neuralnetworks4V1_022IPreparedModelCallback12getHashChainENSt3__18functionIFvRKNS0_8hidl_vecINS0_10hidl_arrayIhLm32EJEEEEEEEE
_ZN7android8hardware14neuralnetworks4V1_022IPreparedModelCallback13tryGetServiceERKNSt3__112basic_stringIcNS4_11char_traitsIcEENS4_9allocatorIcEEEEb
_ZN7android8hardware14neuralnetworks4V1_022IPreparedModelCallback13unlinkToDeathERKNS_2spINS0_20hidl_death_recipientEEE
_ZN7android8hardware14neuralnetworks4V1_022IPreparedModelCallback14interfaceChainENSt3__18functionIFvRKNS0_8hidl_vecINS0_11hidl_stringEEEEEE
_ZN7android8hardware14neuralnetworks4V1_022IPreparedModelCallback17registerAsServiceERKNSt3__112basic_stringIcNS4_11char_traitsIcEENS4_9allocatorIcEEEE
_ZN7android8hardware14neuralnetworks4V1_022IPreparedModelCallback19interfaceDescriptorENSt3__18functionIFvRKNS0_11hidl_stringEEEE
_ZN7android8hardware14neuralnetworks4V1_022IPreparedModelCallback21notifySyspropsChangedEv
_ZN7android8hardware14neuralnetworks4V1_022IPreparedModelCallback21setHALInstrumentationEv
_ZN7android8hardware14neuralnetworks4V1_022IPreparedModelCallback24registerForNotificationsERKNSt3__112basic_stringIcNS4_11char_traitsIcEENS4_9allocatorIcEEEERKNS_2spINS_4hidl7manager4V1_020IServiceNotificationEEE
_ZN7android8hardware14neuralnetworks4V1_022IPreparedModelCallback4pingEv
_ZN7android8hardware14neuralnetworks4V1_022IPreparedModelCallback5debugERKNS0_11hidl_handleERKNS0_8hidl_vecINS0_11hidl_stringEEE
_ZN7android8hardware14neuralnetworks4V1_022IPreparedModelCallback8castFromERKNS_2spINS_4hidl4base4V1_05IBaseEEEb
_ZN7android8hardware14neuralnetworks4V1_022IPreparedModelCallback8castFromERKNS_2spIS3_EEb
_ZN7android8hardware14neuralnetworks4V1_022readEmbeddedFromParcelERKNS2_15RequestArgumentERKNS0_6ParcelEmm
_ZN7android8hardware14neuralnetworks4V1_022readEmbeddedFromParcelERKNS2_5ModelERKNS0_6ParcelEmm
_ZN7android8hardware14neuralnetworks4V1_022readEmbeddedFromParcelERKNS2_7OperandERKNS0_6ParcelEmm
_ZN7android8hardware14neuralnetworks4V1_022readEmbeddedFromParcelERKNS2_7RequestERKNS0_6ParcelEmm
_ZN7android8hardware14neuralnetworks4V1_022readEmbeddedFromParcelERKNS2_9OperationERKNS0_6ParcelEmm
_ZN7android8hardware14neuralnetworks4V1_023BsPreparedModelCallback13addOnewayTaskENSt3__18functionIFvvEEE
_ZN7android8hardware14neuralnetworks4V1_023BsPreparedModelCallbackC1ENS_2spINS2_22IPreparedModelCallbackEEE
_ZN7android8hardware14neuralnetworks4V1_023BsPreparedModelCallbackC2ENS_2spINS2_22IPreparedModelCallbackEEE
_ZN7android8hardware14neuralnetworks4V1_025BnHwPreparedModelCallback10onTransactEjRKNS0_6ParcelEPS4_jNSt3__18functionIFvRS4_EEE
_ZN7android8hardware14neuralnetworks4V1_025BnHwPreparedModelCallback12_hidl_notifyEPNS_4hidl4base4V1_08BnHwBaseERKNS0_6ParcelEPS9_NSt3__18functionIFvRS9_EEE
_ZN7android8hardware14neuralnetworks4V1_025BnHwPreparedModelCallback12getDebugInfoENSt3__18functionIFvRKNS_4hidl4base4V1_09DebugInfoEEEE
_ZN7android8hardware14neuralnetworks4V1_025BnHwPreparedModelCallback4pingEv
_ZN7android8hardware14neuralnetworks4V1_025BnHwPreparedModelCallbackC1ERKNS_2spINS2_22IPreparedModelCallbackEEE
_ZN7android8hardware14neuralnetworks4V1_025BnHwPreparedModelCallbackC2ERKNS_2spINS2_22IPreparedModelCallbackEEE
_ZN7android8hardware14neuralnetworks4V1_025BnHwPreparedModelCallbackD0Ev
_ZN7android8hardware14neuralnetworks4V1_025BnHwPreparedModelCallbackD1Ev
_ZN7android8hardware14neuralnetworks4V1_025BnHwPreparedModelCallbackD2Ev
_ZN7android8hardware14neuralnetworks4V1_025BpHwPreparedModelCallback11linkToDeathERKNS_2spINS0_20hidl_death_recipientEEEm
_ZN7android8hardware14neuralnetworks4V1_025BpHwPreparedModelCallback12_hidl_notifyEPNS0_10IInterfaceEPNS0_7details16HidlInstrumentorENS2_11ErrorStatusERKNS_2spINS2_14IPreparedModelEEE
_ZN7android8hardware14neuralnetworks4V1_025BpHwPreparedModelCallback12getDebugInfoENSt3__18functionIFvRKNS_4hidl4base4V1_09DebugInfoEEEE
_ZN7android8hardware14neuralnetworks4V1_025BpHwPreparedModelCallback12getHashChainENSt3__18functionIFvRKNS0_8hidl_vecINS0_10hidl_arrayIhLm32EJEEEEEEEE
_ZN7android8hardware14neuralnetworks4V1_025BpHwPreparedModelCallback13unlinkToDeathERKNS_2spINS0_20hidl_death_recipientEEE
_ZN7android8hardware14neuralnetworks4V1_025BpHwPreparedModelCallback14interfaceChainENSt3__18functionIFvRKNS0_8hidl_vecINS0_11hidl_stringEEEEEE
_ZN7android8hardware14neuralnetworks4V1_025BpHwPreparedModelCallback19interfaceDescriptorENSt3__18functionIFvRKNS0_11hidl_stringEEEE
_ZN7android8hardware14neuralnetworks4V1_025BpHwPreparedModelCallback21notifySyspropsChangedEv
_ZN7android8hardware14neuralnetworks4V1_025BpHwPreparedModelCallback21setHALInstrumentationEv
_ZN7android8hardware14neuralnetworks4V1_025BpHwPreparedModelCallback4pingEv
_ZN7android8hardware14neuralnetworks4V1_025BpHwPreparedModelCallback5debugERKNS0_11hidl_handleERKNS0_8hidl_vecINS0_11hidl_stringEEE
_ZN7android8hardware14neuralnetworks4V1_025BpHwPreparedModelCallback6notifyENS2_11ErrorStatusERKNS_2spINS2_14IPreparedModelEEE
_ZN7android8hardware14neuralnetworks4V1_025BpHwPreparedModelCallbackC1ERKNS_2spINS0_7IBinderEEE
_ZN7android8hardware14neuralnetworks4V1_025BpHwPreparedModelCallbackC2ERKNS_2spINS0_7IBinderEEE
_ZN7android8hardware14neuralnetworks4V1_07IDevice10descriptorE
_ZN7android8hardware14neuralnetworks4V1_07IDevice10getServiceERKNSt3__112basic_stringIcNS4_11char_traitsIcEENS4_9allocatorIcEEEEb
_ZN7android8hardware14neuralnetworks4V1_07IDevice11linkToDeathERKNS_2spINS0_20hidl_death_recipientEEEm
_ZN7android8hardware14neuralnetworks4V1_07IDevice12getDebugInfoENSt3__18functionIFvRKNS_4hidl4base4V1_09DebugInfoEEEE
_ZN7android8hardware14neuralnetworks4V1_07IDevice12getHashChainENSt3__18functionIFvRKNS0_8hidl_vecINS0_10hidl_arrayIhLm32EJEEEEEEEE
_ZN7android8hardware14neuralnetworks4V1_07IDevice13tryGetServiceERKNSt3__112basic_stringIcNS4_11char_traitsIcEENS4_9allocatorIcEEEEb
_ZN7android8hardware14neuralnetworks4V1_07IDevice13unlinkToDeathERKNS_2spINS0_20hidl_death_recipientEEE
_ZN7android8hardware14neuralnetworks4V1_07IDevice14interfaceChainENSt3__18functionIFvRKNS0_8hidl_vecINS0_11hidl_stringEEEEEE
_ZN7android8hardware14neuralnetworks4V1_07IDevice17registerAsServiceERKNSt3__112basic_stringIcNS4_11char_traitsIcEENS4_9allocatorIcEEEE
_ZN7android8hardware14neuralnetworks4V1_07IDevice19interfaceDescriptorENSt3__18functionIFvRKNS0_11hidl_stringEEEE
_ZN7android8hardware14neuralnetworks4V1_07IDevice21notifySyspropsChangedEv
_ZN7android8hardware14neuralnetworks4V1_07IDevice21setHALInstrumentationEv
_ZN7android8hardware14neuralnetworks4V1_07IDevice24registerForNotificationsERKNSt3__112basic_stringIcNS4_11char_traitsIcEENS4_9allocatorIcEEEERKNS_2spINS_4hidl7manager4V1_020IServiceNotificationEEE
_ZN7android8hardware14neuralnetworks4V1_07IDevice4pingEv
_ZN7android8hardware14neuralnetworks4V1_07IDevice5debugERKNS0_11hidl_handleERKNS0_8hidl_vecINS0_11hidl_stringEEE
_ZN7android8hardware14neuralnetworks4V1_07IDevice8castFromERKNS_2spINS_4hidl4base4V1_05IBaseEEEb
_ZN7android8hardware14neuralnetworks4V1_07IDevice8castFromERKNS_2spIS3_EEb
_ZN7android8hardware14neuralnetworks4V1_08BsDevice13addOnewayTaskENSt3__18functionIFvvEEE
_ZN7android8hardware14neuralnetworks4V1_08BsDeviceC1ENS_2spINS2_7IDeviceEEE
_ZN7android8hardware14neuralnetworks4V1_08BsDeviceC2ENS_2spINS2_7IDeviceEEE
_ZTCN7android8hardware14neuralnetworks4V1_010BnHwDeviceE0_NS0_7IBinderE
_ZTCN7android8hardware14neuralnetworks4V1_010BnHwDeviceE0_NS0_9BHwBinderE
_ZTCN7android8hardware14neuralnetworks4V1_010BnHwDeviceE0_NS_4hidl4base4V1_08BnHwBaseE
_ZTCN7android8hardware14neuralnetworks4V1_010BpHwDeviceE0_NS0_11BpInterfaceINS2_7IDeviceEEE
_ZTCN7android8hardware14neuralnetworks4V1_010BpHwDeviceE0_NS2_7IDeviceE
_ZTCN7android8hardware14neuralnetworks4V1_010BpHwDeviceE0_NS_4hidl4base4V1_05IBaseE
_ZTCN7android8hardware14neuralnetworks4V1_010BpHwDeviceE16_NS0_11BpHwRefBaseE
_ZTCN7android8hardware14neuralnetworks4V1_010BpHwDeviceE8_NS0_10IInterfaceE
_ZTCN7android8hardware14neuralnetworks4V1_014IPreparedModelE0_NS_4hidl4base4V1_05IBaseE
_ZTCN7android8hardware14neuralnetworks4V1_017BnHwPreparedModelE0_NS0_7IBinderE
_ZTCN7android8hardware14neuralnetworks4V1_017BnHwPreparedModelE0_NS0_9BHwBinderE
_ZTCN7android8hardware14neuralnetworks4V1_017BnHwPreparedModelE0_NS_4hidl4base4V1_08BnHwBaseE
_ZTCN7android8hardware14neuralnetworks4V1_017BpHwPreparedModelE0_NS0_11BpInterfaceINS2_14IPreparedModelEEE
_ZTCN7android8hardware14neuralnetworks4V1_017BpHwPreparedModelE0_NS2_14IPreparedModelE
_ZTCN7android8hardware14neuralnetworks4V1_017BpHwPreparedModelE0_NS_4hidl4base4V1_05IBaseE
_ZTCN7android8hardware14neuralnetworks4V1_017BpHwPreparedModelE16_NS0_11BpHwRefBaseE
_ZTCN7android8hardware14neuralnetworks4V1_017BpHwPreparedModelE8_NS0_10IInterfaceE
_ZTCN7android8hardware14neuralnetworks4V1_018IExecutionCallbackE0_NS_4hidl4base4V1_05IBaseE
_ZTCN7android8hardware14neuralnetworks4V1_021BnHwExecutionCallbackE0_NS0_7IBinderE
_ZTCN7android8hardware14neuralnetworks4V1_021BnHwExecutionCallbackE0_NS0_9BHwBinderE
_ZTCN7android8hardware14neuralnetworks4V1_021BnHwExecutionCallbackE0_NS_4hidl4base4V1_08BnHwBaseE
_ZTCN7android8hardware14neuralnetworks4V1_021BpHwExecutionCallbackE0_NS0_11BpInterfaceINS2_18IExecutionCallbackEEE
_ZTCN7android8hardware14neuralnetworks4V1_021BpHwExecutionCallbackE0_NS2_18IExecutionCallbackE
_ZTCN7android8hardware14neuralnetworks4V1_021BpHwExecutionCallbackE0_NS_4hidl4base4V1_05IBaseE
_ZTCN7android8hardware14neuralnetworks4V1_021BpHwExecutionCallbackE16_NS0_11BpHwRefBaseE
_ZTCN7android8hardware14neuralnetworks4V1_021BpHwExecutionCallbackE8_NS0_10IInterfaceE
_ZTCN7android8hardware14neuralnetworks4V1_022IPreparedModelCallbackE0_NS_4hidl4base4V1_05IBaseE
_ZTCN7android8hardware14neuralnetworks4V1_025BnHwPreparedModelCallbackE0_NS0_7IBinderE
_ZTCN7android8hardware14neuralnetworks4V1_025BnHwPreparedModelCallbackE0_NS0_9BHwBinderE
_ZTCN7android8hardware14neuralnetworks4V1_025BnHwPreparedModelCallbackE0_NS_4hidl4base4V1_08BnHwBaseE
_ZTCN7android8hardware14neuralnetworks4V1_025BpHwPreparedModelCallbackE0_NS0_11BpInterfaceINS2_22IPreparedModelCallbackEEE
_ZTCN7android8hardware14neuralnetworks4V1_025BpHwPreparedModelCallbackE0_NS2_22IPreparedModelCallbackE
_ZTCN7android8hardware14neuralnetworks4V1_025BpHwPreparedModelCallbackE0_NS_4hidl4base4V1_05IBaseE
_ZTCN7android8hardware14neuralnetworks4V1_025BpHwPreparedModelCallbackE16_NS0_11BpHwRefBaseE
_ZTCN7android8hardware14neuralnetworks4V1_025BpHwPreparedModelCallbackE8_NS0_10IInterfaceE
_ZTCN7android8hardware14neuralnetworks4V1_07IDeviceE0_NS_4hidl4base4V1_05IBaseE
_ZTTN7android8hardware14neuralnetworks4V1_010BnHwDeviceE
_ZTTN7android8hardware14neuralnetworks4V1_010BpHwDeviceE
_ZTTN7android8hardware14neuralnetworks4V1_014IPreparedModelE
_ZTTN7android8hardware14neuralnetworks4V1_017BnHwPreparedModelE
_ZTTN7android8hardware14neuralnetworks4V1_017BpHwPreparedModelE
_ZTTN7android8hardware14neuralnetworks4V1_018IExecutionCallbackE
_ZTTN7android8hardware14neuralnetworks4V1_021BnHwExecutionCallbackE
_ZTTN7android8hardware14neuralnetworks4V1_021BpHwExecutionCallbackE
_ZTTN7android8hardware14neuralnetworks4V1_022IPreparedModelCallbackE
_ZTTN7android8hardware14neuralnetworks4V1_025BnHwPreparedModelCallbackE
_ZTTN7android8hardware14neuralnetworks4V1_025BpHwPreparedModelCallbackE
_ZTTN7android8hardware14neuralnetworks4V1_07IDeviceE
_ZTVN7android8hardware14neuralnetworks4V1_010BnHwDeviceE
_ZTVN7android8hardware14neuralnetworks4V1_010BpHwDeviceE
_ZTVN7android8hardware14neuralnetworks4V1_014IPreparedModelE
_ZTVN7android8hardware14neuralnetworks4V1_017BnHwPreparedModelE
_ZTVN7android8hardware14neuralnetworks4V1_017BpHwPreparedModelE
_ZTVN7android8hardware14neuralnetworks4V1_018IExecutionCallbackE
_ZTVN7android8hardware14neuralnetworks4V1_021BnHwExecutionCallbackE
_ZTVN7android8hardware14neuralnetworks4V1_021BpHwExecutionCallbackE
_ZTVN7android8hardware14neuralnetworks4V1_022IPreparedModelCallbackE
_ZTVN7android8hardware14neuralnetworks4V1_025BnHwPreparedModelCallbackE
_ZTVN7android8hardware14neuralnetworks4V1_025BpHwPreparedModelCallbackE
_ZTVN7android8hardware14neuralnetworks4V1_07IDeviceE
_ZThn32_N7android8hardware14neuralnetworks4V1_010BnHwDeviceD0Ev
_ZThn32_N7android8hardware14neuralnetworks4V1_010BnHwDeviceD1Ev
_ZThn32_N7android8hardware14neuralnetworks4V1_017BnHwPreparedModelD0Ev
_ZThn32_N7android8hardware14neuralnetworks4V1_017BnHwPreparedModelD1Ev
_ZThn32_N7android8hardware14neuralnetworks4V1_021BnHwExecutionCallbackD0Ev
_ZThn32_N7android8hardware14neuralnetworks4V1_021BnHwExecutionCallbackD1Ev
_ZThn32_N7android8hardware14neuralnetworks4V1_025BnHwPreparedModelCallbackD0Ev
_ZThn32_N7android8hardware14neuralnetworks4V1_025BnHwPreparedModelCallbackD1Ev
_ZTv0_n24_N7android8hardware14neuralnetworks4V1_010BnHwDeviceD0Ev
_ZTv0_n24_N7android8hardware14neuralnetworks4V1_010BnHwDeviceD1Ev
_ZTv0_n24_N7android8hardware14neuralnetworks4V1_017BnHwPreparedModelD0Ev
_ZTv0_n24_N7android8hardware14neuralnetworks4V1_017BnHwPreparedModelD1Ev
_ZTv0_n24_N7android8hardware14neuralnetworks4V1_021BnHwExecutionCallbackD0Ev
_ZTv0_n24_N7android8hardware14neuralnetworks4V1_021BnHwExecutionCallbackD1Ev
_ZTv0_n24_N7android8hardware14neuralnetworks4V1_025BnHwPreparedModelCallbackD0Ev
_ZTv0_n24_N7android8hardware14neuralnetworks4V1_025BnHwPreparedModelCallbackD1Ev
