_ZN7android8hardware2ir4V1_011IConsumerIr10descriptorE
_ZN7android8hardware2ir4V1_011IConsumerIr10getServiceERKNSt3__112basic_stringIcNS4_11char_traitsIcEENS4_9allocatorIcEEEEb
_ZN7android8hardware2ir4V1_011IConsumerIr11linkToDeathERKNS_2spINS0_20hidl_death_recipientEEEm
_ZN7android8hardware2ir4V1_011IConsumerIr12getDebugInfoENSt3__18functionIFvRKNS_4hidl4base4V1_09DebugInfoEEEE
_ZN7android8hardware2ir4V1_011IConsumerIr12getHashChainENSt3__18functionIFvRKNS0_8hidl_vecINS0_10hidl_arrayIhLm32EJEEEEEEEE
_ZN7android8hardware2ir4V1_011IConsumerIr13tryGetServiceERKNSt3__112basic_stringIcNS4_11char_traitsIcEENS4_9allocatorIcEEEEb
_ZN7android8hardware2ir4V1_011IConsumerIr13unlinkToDeathERKNS_2spINS0_20hidl_death_recipientEEE
_ZN7android8hardware2ir4V1_011IConsumerIr14interfaceChainENSt3__18functionIFvRKNS0_8hidl_vecINS0_11hidl_stringEEEEEE
_ZN7android8hardware2ir4V1_011IConsumerIr17registerAsServiceERKNSt3__112basic_stringIcNS4_11char_traitsIcEENS4_9allocatorIcEEEE
_ZN7android8hardware2ir4V1_011IConsumerIr19interfaceDescriptorENSt3__18functionIFvRKNS0_11hidl_stringEEEE
_ZN7android8hardware2ir4V1_011IConsumerIr21notifySyspropsChangedEv
_ZN7android8hardware2ir4V1_011IConsumerIr21setHALInstrumentationEv
_ZN7android8hardware2ir4V1_011IConsumerIr24registerForNotificationsERKNSt3__112basic_stringIcNS4_11char_traitsIcEENS4_9allocatorIcEEEERKNS_2spINS_4hidl7manager4V1_020IServiceNotificationEEE
_ZN7android8hardware2ir4V1_011IConsumerIr4pingEv
_ZN7android8hardware2ir4V1_011IConsumerIr5debugERKNS0_11hidl_handleERKNS0_8hidl_vecINS0_11hidl_stringEEE
_ZN7android8hardware2ir4V1_011IConsumerIr8castFromERKNS_2spINS_4hidl4base4V1_05IBaseEEEb
_ZN7android8hardware2ir4V1_011IConsumerIr8castFromERKNS_2spIS3_EEb
_ZN7android8hardware2ir4V1_012BsConsumerIr13addOnewayTaskENSt3__18functionIFvvEEE
_ZN7android8hardware2ir4V1_012BsConsumerIrC1ENS_2spINS2_11IConsumerIrEEE
_ZN7android8hardware2ir4V1_012BsConsumerIrC2ENS_2spINS2_11IConsumerIrEEE
_ZN7android8hardware2ir4V1_014BnHwConsumerIr10onTransactEjRKNS0_6ParcelEPS4_jNSt3__18functionIFvRS4_EEE
_ZN7android8hardware2ir4V1_014BnHwConsumerIr12getDebugInfoENSt3__18functionIFvRKNS_4hidl4base4V1_09DebugInfoEEEE
_ZN7android8hardware2ir4V1_014BnHwConsumerIr14_hidl_transmitEPNS_4hidl4base4V1_08BnHwBaseERKNS0_6ParcelEPS9_NSt3__18functionIFvRS9_EEE
_ZN7android8hardware2ir4V1_014BnHwConsumerIr21_hidl_getCarrierFreqsEPNS_4hidl4base4V1_08BnHwBaseERKNS0_6ParcelEPS9_NSt3__18functionIFvRS9_EEE
_ZN7android8hardware2ir4V1_014BnHwConsumerIr4pingEv
_ZN7android8hardware2ir4V1_014BnHwConsumerIrC1ERKNS_2spINS2_11IConsumerIrEEE
_ZN7android8hardware2ir4V1_014BnHwConsumerIrC2ERKNS_2spINS2_11IConsumerIrEEE
_ZN7android8hardware2ir4V1_014BnHwConsumerIrD0Ev
_ZN7android8hardware2ir4V1_014BnHwConsumerIrD1Ev
_ZN7android8hardware2ir4V1_014BnHwConsumerIrD2Ev
_ZN7android8hardware2ir4V1_014BpHwConsumerIr11linkToDeathERKNS_2spINS0_20hidl_death_recipientEEEm
_ZN7android8hardware2ir4V1_014BpHwConsumerIr12getDebugInfoENSt3__18functionIFvRKNS_4hidl4base4V1_09DebugInfoEEEE
_ZN7android8hardware2ir4V1_014BpHwConsumerIr12getHashChainENSt3__18functionIFvRKNS0_8hidl_vecINS0_10hidl_arrayIhLm32EJEEEEEEEE
_ZN7android8hardware2ir4V1_014BpHwConsumerIr13unlinkToDeathERKNS_2spINS0_20hidl_death_recipientEEE
_ZN7android8hardware2ir4V1_014BpHwConsumerIr14_hidl_transmitEPNS0_10IInterfaceEPNS0_7details16HidlInstrumentorEiRKNS0_8hidl_vecIiEE
_ZN7android8hardware2ir4V1_014BpHwConsumerIr14interfaceChainENSt3__18functionIFvRKNS0_8hidl_vecINS0_11hidl_stringEEEEEE
_ZN7android8hardware2ir4V1_014BpHwConsumerIr15getCarrierFreqsENSt3__18functionIFvbRKNS0_8hidl_vecINS2_19ConsumerIrFreqRangeEEEEEE
_ZN7android8hardware2ir4V1_014BpHwConsumerIr19interfaceDescriptorENSt3__18functionIFvRKNS0_11hidl_stringEEEE
_ZN7android8hardware2ir4V1_014BpHwConsumerIr21_hidl_getCarrierFreqsEPNS0_10IInterfaceEPNS0_7details16HidlInstrumentorENSt3__18functionIFvbRKNS0_8hidl_vecINS2_19ConsumerIrFreqRangeEEEEEE
_ZN7android8hardware2ir4V1_014BpHwConsumerIr21notifySyspropsChangedEv
_ZN7android8hardware2ir4V1_014BpHwConsumerIr21setHALInstrumentationEv
_ZN7android8hardware2ir4V1_014BpHwConsumerIr4pingEv
_ZN7android8hardware2ir4V1_014BpHwConsumerIr5debugERKNS0_11hidl_handleERKNS0_8hidl_vecINS0_11hidl_stringEEE
_ZN7android8hardware2ir4V1_014BpHwConsumerIr8transmitEiRKNS0_8hidl_vecIiEE
_ZN7android8hardware2ir4V1_014BpHwConsumerIrC1ERKNS_2spINS0_7IBinderEEE
_ZN7android8hardware2ir4V1_014BpHwConsumerIrC2ERKNS_2spINS0_7IBinderEEE
_ZTCN7android8hardware2ir4V1_011IConsumerIrE0_NS_4hidl4base4V1_05IBaseE
_ZTCN7android8hardware2ir4V1_014BnHwConsumerIrE0_NS0_7IBinderE
_ZTCN7android8hardware2ir4V1_014BnHwConsumerIrE0_NS0_9BHwBinderE
_ZTCN7android8hardware2ir4V1_014BnHwConsumerIrE0_NS_4hidl4base4V1_08BnHwBaseE
_ZTCN7android8hardware2ir4V1_014BpHwConsumerIrE0_NS0_11BpInterfaceINS2_11IConsumerIrEEE
_ZTCN7android8hardware2ir4V1_014BpHwConsumerIrE0_NS2_11IConsumerIrE
_ZTCN7android8hardware2ir4V1_014BpHwConsumerIrE0_NS_4hidl4base4V1_05IBaseE
_ZTCN7android8hardware2ir4V1_014BpHwConsumerIrE16_NS0_11BpHwRefBaseE
_ZTCN7android8hardware2ir4V1_014BpHwConsumerIrE8_NS0_10IInterfaceE
_ZTTN7android8hardware2ir4V1_011IConsumerIrE
_ZTTN7android8hardware2ir4V1_014BnHwConsumerIrE
_ZTTN7android8hardware2ir4V1_014BpHwConsumerIrE
_ZTVN7android8hardware2ir4V1_011IConsumerIrE
_ZTVN7android8hardware2ir4V1_014BnHwConsumerIrE
_ZTVN7android8hardware2ir4V1_014BpHwConsumerIrE
_ZThn32_N7android8hardware2ir4V1_014BnHwConsumerIrD0Ev
_ZThn32_N7android8hardware2ir4V1_014BnHwConsumerIrD1Ev
_ZTv0_n24_N7android8hardware2ir4V1_014BnHwConsumerIrD0Ev
_ZTv0_n24_N7android8hardware2ir4V1_014BnHwConsumerIrD1Ev
