_ZN7android8hardware4wifi7hostapd4V1_011BnHwHostapd10onTransactEjRKNS0_6ParcelEPS5_jNSt3__18functionIFvRS5_EEE
_ZN7android8hardware4wifi7hostapd4V1_011BnHwHostapd12getDebugInfoENSt3__18functionIFvRKNS_4hidl4base4V1_09DebugInfoEEEE
_ZN7android8hardware4wifi7hostapd4V1_011BnHwHostapd15_hidl_terminateEPNS_4hidl4base4V1_08BnHwBaseERKNS0_6ParcelEPSA_NSt3__18functionIFvRSA_EEE
_ZN7android8hardware4wifi7hostapd4V1_011BnHwHostapd20_hidl_addAccessPointEPNS_4hidl4base4V1_08BnHwBaseERKNS0_6ParcelEPSA_NSt3__18functionIFvRSA_EEE
_ZN7android8hardware4wifi7hostapd4V1_011BnHwHostapd23_hidl_removeAccessPointEPNS_4hidl4base4V1_08BnHwBaseERKNS0_6ParcelEPSA_NSt3__18functionIFvRSA_EEE
_ZN7android8hardware4wifi7hostapd4V1_011BnHwHostapd4pingEv
_ZN7android8hardware4wifi7hostapd4V1_011BnHwHostapdC1ERKNS_2spINS3_8IHostapdEEE
_ZN7android8hardware4wifi7hostapd4V1_011BnHwHostapdC2ERKNS_2spINS3_8IHostapdEEE
_ZN7android8hardware4wifi7hostapd4V1_011BnHwHostapdD0Ev
_ZN7android8hardware4wifi7hostapd4V1_011BnHwHostapdD1Ev
_ZN7android8hardware4wifi7hostapd4V1_011BnHwHostapdD2Ev
_ZN7android8hardware4wifi7hostapd4V1_011BpHwHostapd11linkToDeathERKNS_2spINS0_20hidl_death_recipientEEEm
_ZN7android8hardware4wifi7hostapd4V1_011BpHwHostapd12getDebugInfoENSt3__18functionIFvRKNS_4hidl4base4V1_09DebugInfoEEEE
_ZN7android8hardware4wifi7hostapd4V1_011BpHwHostapd12getHashChainENSt3__18functionIFvRKNS0_8hidl_vecINS0_10hidl_arrayIhLm32EJEEEEEEEE
_ZN7android8hardware4wifi7hostapd4V1_011BpHwHostapd13unlinkToDeathERKNS_2spINS0_20hidl_death_recipientEEE
_ZN7android8hardware4wifi7hostapd4V1_011BpHwHostapd14addAccessPointERKNS3_8IHostapd11IfaceParamsERKNS5_13NetworkParamsENSt3__18functionIFvRKNS3_13HostapdStatusEEEE
_ZN7android8hardware4wifi7hostapd4V1_011BpHwHostapd14interfaceChainENSt3__18functionIFvRKNS0_8hidl_vecINS0_11hidl_stringEEEEEE
_ZN7android8hardware4wifi7hostapd4V1_011BpHwHostapd15_hidl_terminateEPNS0_10IInterfaceEPNS0_7details16HidlInstrumentorE
_ZN7android8hardware4wifi7hostapd4V1_011BpHwHostapd17removeAccessPointERKNS0_11hidl_stringENSt3__18functionIFvRKNS3_13HostapdStatusEEEE
_ZN7android8hardware4wifi7hostapd4V1_011BpHwHostapd19interfaceDescriptorENSt3__18functionIFvRKNS0_11hidl_stringEEEE
_ZN7android8hardware4wifi7hostapd4V1_011BpHwHostapd20_hidl_addAccessPointEPNS0_10IInterfaceEPNS0_7details16HidlInstrumentorERKNS3_8IHostapd11IfaceParamsERKNSA_13NetworkParamsENSt3__18functionIFvRKNS3_13HostapdStatusEEEE
_ZN7android8hardware4wifi7hostapd4V1_011BpHwHostapd21notifySyspropsChangedEv
_ZN7android8hardware4wifi7hostapd4V1_011BpHwHostapd21setHALInstrumentationEv
_ZN7android8hardware4wifi7hostapd4V1_011BpHwHostapd23_hidl_removeAccessPointEPNS0_10IInterfaceEPNS0_7details16HidlInstrumentorERKNS0_11hidl_stringENSt3__18functionIFvRKNS3_13HostapdStatusEEEE
_ZN7android8hardware4wifi7hostapd4V1_011BpHwHostapd4pingEv
_ZN7android8hardware4wifi7hostapd4V1_011BpHwHostapd5debugERKNS0_11hidl_handleERKNS0_8hidl_vecINS0_11hidl_stringEEE
_ZN7android8hardware4wifi7hostapd4V1_011BpHwHostapd9terminateEv
_ZN7android8hardware4wifi7hostapd4V1_011BpHwHostapdC1ERKNS_2spINS0_7IBinderEEE
_ZN7android8hardware4wifi7hostapd4V1_011BpHwHostapdC2ERKNS_2spINS0_7IBinderEEE
_ZN7android8hardware4wifi7hostapd4V1_021writeEmbeddedToParcelERKNS3_13HostapdStatusEPNS0_6ParcelEmm
_ZN7android8hardware4wifi7hostapd4V1_021writeEmbeddedToParcelERKNS3_8IHostapd11IfaceParamsEPNS0_6ParcelEmm
_ZN7android8hardware4wifi7hostapd4V1_021writeEmbeddedToParcelERKNS3_8IHostapd13NetworkParamsEPNS0_6ParcelEmm
_ZN7android8hardware4wifi7hostapd4V1_022readEmbeddedFromParcelERKNS3_13HostapdStatusERKNS0_6ParcelEmm
_ZN7android8hardware4wifi7hostapd4V1_022readEmbeddedFromParcelERKNS3_8IHostapd11IfaceParamsERKNS0_6ParcelEmm
_ZN7android8hardware4wifi7hostapd4V1_022readEmbeddedFromParcelERKNS3_8IHostapd13NetworkParamsERKNS0_6ParcelEmm
_ZN7android8hardware4wifi7hostapd4V1_08IHostapd10descriptorE
_ZN7android8hardware4wifi7hostapd4V1_08IHostapd10getServiceERKNSt3__112basic_stringIcNS5_11char_traitsIcEENS5_9allocatorIcEEEEb
_ZN7android8hardware4wifi7hostapd4V1_08IHostapd11linkToDeathERKNS_2spINS0_20hidl_death_recipientEEEm
_ZN7android8hardware4wifi7hostapd4V1_08IHostapd12getDebugInfoENSt3__18functionIFvRKNS_4hidl4base4V1_09DebugInfoEEEE
_ZN7android8hardware4wifi7hostapd4V1_08IHostapd12getHashChainENSt3__18functionIFvRKNS0_8hidl_vecINS0_10hidl_arrayIhLm32EJEEEEEEEE
_ZN7android8hardware4wifi7hostapd4V1_08IHostapd13tryGetServiceERKNSt3__112basic_stringIcNS5_11char_traitsIcEENS5_9allocatorIcEEEEb
_ZN7android8hardware4wifi7hostapd4V1_08IHostapd13unlinkToDeathERKNS_2spINS0_20hidl_death_recipientEEE
_ZN7android8hardware4wifi7hostapd4V1_08IHostapd14interfaceChainENSt3__18functionIFvRKNS0_8hidl_vecINS0_11hidl_stringEEEEEE
_ZN7android8hardware4wifi7hostapd4V1_08IHostapd17registerAsServiceERKNSt3__112basic_stringIcNS5_11char_traitsIcEENS5_9allocatorIcEEEE
_ZN7android8hardware4wifi7hostapd4V1_08IHostapd19interfaceDescriptorENSt3__18functionIFvRKNS0_11hidl_stringEEEE
_ZN7android8hardware4wifi7hostapd4V1_08IHostapd21notifySyspropsChangedEv
_ZN7android8hardware4wifi7hostapd4V1_08IHostapd21setHALInstrumentationEv
_ZN7android8hardware4wifi7hostapd4V1_08IHostapd24registerForNotificationsERKNSt3__112basic_stringIcNS5_11char_traitsIcEENS5_9allocatorIcEEEERKNS_2spINS_4hidl7manager4V1_020IServiceNotificationEEE
_ZN7android8hardware4wifi7hostapd4V1_08IHostapd4pingEv
_ZN7android8hardware4wifi7hostapd4V1_08IHostapd5debugERKNS0_11hidl_handleERKNS0_8hidl_vecINS0_11hidl_stringEEE
_ZN7android8hardware4wifi7hostapd4V1_08IHostapd8castFromERKNS_2spINS_4hidl4base4V1_05IBaseEEEb
_ZN7android8hardware4wifi7hostapd4V1_08IHostapd8castFromERKNS_2spIS4_EEb
_ZN7android8hardware4wifi7hostapd4V1_09BsHostapd13addOnewayTaskENSt3__18functionIFvvEEE
_ZN7android8hardware4wifi7hostapd4V1_09BsHostapdC1ENS_2spINS3_8IHostapdEEE
_ZN7android8hardware4wifi7hostapd4V1_09BsHostapdC2ENS_2spINS3_8IHostapdEEE
_ZTCN7android8hardware4wifi7hostapd4V1_011BnHwHostapdE0_NS0_7IBinderE
_ZTCN7android8hardware4wifi7hostapd4V1_011BnHwHostapdE0_NS0_9BHwBinderE
_ZTCN7android8hardware4wifi7hostapd4V1_011BnHwHostapdE0_NS_4hidl4base4V1_08BnHwBaseE
_ZTCN7android8hardware4wifi7hostapd4V1_011BpHwHostapdE0_NS0_11BpInterfaceINS3_8IHostapdEEE
_ZTCN7android8hardware4wifi7hostapd4V1_011BpHwHostapdE0_NS3_8IHostapdE
_ZTCN7android8hardware4wifi7hostapd4V1_011BpHwHostapdE0_NS_4hidl4base4V1_05IBaseE
_ZTCN7android8hardware4wifi7hostapd4V1_011BpHwHostapdE16_NS0_11BpHwRefBaseE
_ZTCN7android8hardware4wifi7hostapd4V1_011BpHwHostapdE8_NS0_10IInterfaceE
_ZTCN7android8hardware4wifi7hostapd4V1_08IHostapdE0_NS_4hidl4base4V1_05IBaseE
_ZTTN7android8hardware4wifi7hostapd4V1_011BnHwHostapdE
_ZTTN7android8hardware4wifi7hostapd4V1_011BpHwHostapdE
_ZTTN7android8hardware4wifi7hostapd4V1_08IHostapdE
_ZTVN7android8hardware4wifi7hostapd4V1_011BnHwHostapdE
_ZTVN7android8hardware4wifi7hostapd4V1_011BpHwHostapdE
_ZTVN7android8hardware4wifi7hostapd4V1_08IHostapdE
_ZThn32_N7android8hardware4wifi7hostapd4V1_011BnHwHostapdD0Ev
_ZThn32_N7android8hardware4wifi7hostapd4V1_011BnHwHostapdD1Ev
_ZTv0_n24_N7android8hardware4wifi7hostapd4V1_011BnHwHostapdD0Ev
_ZTv0_n24_N7android8hardware4wifi7hostapd4V1_011BnHwHostapdD1Ev
