_ZN9keymaster10HmacSha2564InitEPKhm
_ZN9keymaster10HmacSha2564InitERKNS_6BufferE
_ZN9keymaster10TAG_DIGESTE
_ZN9keymaster10TAG_ORIGINE
_ZN9keymaster10dup_bufferEPKvm
_ZN9keymaster11Iso18033Kdf11GenerateKeyEPKhmPhm
_ZN9keymaster11TAG_INVALIDE
_ZN9keymaster11TAG_PADDINGE
_ZN9keymaster11TAG_PURPOSEE
_ZN9keymaster11TAG_USER_IDE
_ZN9keymaster11empty_paramE
_ZN9keymaster12EcKeyFactory11ChooseGroupE20keymaster_ec_curve_t
_ZN9keymaster12EcKeyFactory11ChooseGroupEm
_ZN9keymaster12EcKeyFactory15GetCurveAndSizeERKNS_16AuthorizationSetEP20keymaster_ec_curve_tPj
_ZN9keymaster12RsaOperation10InitDigestEv
_ZN9keymaster12RsaOperation25SetRsaPaddingInEvpContextEP15evp_pkey_ctx_stb
_ZN9keymaster12RsaOperation5BeginERKNS_16AuthorizationSetEPS1_
_ZN9keymaster12RsaOperation6UpdateERKNS_16AuthorizationSetERKNS_6BufferEPS1_PS4_Pm
_ZN9keymaster12RsaOperation9StoreDataERKNS_6BufferEPm
_ZN9keymaster12RsaOperationD0Ev
_ZN9keymaster12RsaOperationD1Ev
_ZN9keymaster12RsaOperationD2Ev
_ZN9keymaster12SymmetricKeyC1EONS_14TKeymasterBlobI20keymaster_key_blob_tEEONS_16AuthorizationSetES6_PKNS_10KeyFactoryE
_ZN9keymaster12SymmetricKeyC2EONS_14TKeymasterBlobI20keymaster_key_blob_tEEONS_16AuthorizationSetES6_PKNS_10KeyFactoryE
_ZN9keymaster12SymmetricKeyD0Ev
_ZN9keymaster12SymmetricKeyD1Ev
_ZN9keymaster12SymmetricKeyD2Ev
_ZN9keymaster12TAG_EC_CURVEE
_ZN9keymaster12TAG_KEY_SIZEE
_ZN9keymaster12ec_get_groupE20keymaster_ec_curve_t
_ZN9keymaster13AccessTimeMap19UpdateKeyAccessTimeEmjj
_ZN9keymaster13HmacOperation5AbortEv
_ZN9keymaster13HmacOperation5BeginERKNS_16AuthorizationSetEPS1_
_ZN9keymaster13HmacOperation6FinishERKNS_16AuthorizationSetERKNS_6BufferES6_PS1_PS4_
_ZN9keymaster13HmacOperation6UpdateERKNS_16AuthorizationSetERKNS_6BufferEPS1_PS4_Pm
_ZN9keymaster13HmacOperationC1EONS_3KeyE19keymaster_purpose_t18keymaster_digest_tmm
_ZN9keymaster13HmacOperationC2EONS_3KeyE19keymaster_purpose_t18keymaster_digest_tmm
_ZN9keymaster13HmacOperationD0Ev
_ZN9keymaster13HmacOperationD1Ev
_ZN9keymaster13HmacOperationD2Ev
_ZN9keymaster13OcbDecryptKeyERKNS_16AuthorizationSetES2_S2_RKNS_14TKeymasterBlobI20keymaster_key_blob_tEES7_RKNS_6BufferESA_PS5_
_ZN9keymaster13OcbEncryptKeyERKNS_16AuthorizationSetES2_S2_RKNS_14TKeymasterBlobI20keymaster_key_blob_tEES7_RKNS_6BufferEPS5_PS8_
_ZN9keymaster13TAG_ALGORITHME
_ZN9keymaster13TAG_ALL_USERSE
_ZN9keymaster13TAG_UNIQUE_IDE
_ZN9keymaster13append_to_bufEPhPKhPKvm
_ZN9keymaster13copy_from_bufEPPKhS1_Pvm
_ZN9keymaster14AccessCountMap23IncrementKeyAccessCountEm
_ZN9keymaster14EcdsaOperation10InitDigestEv
_ZN9keymaster14EcdsaOperation9StoreDataERKNS_6BufferEPm
_ZN9keymaster14EcdsaOperationD0Ev
_ZN9keymaster14EcdsaOperationD1Ev
_ZN9keymaster14EcdsaOperationD2Ev
_ZN9keymaster14GenerateRandomEPhm
_ZN9keymaster14OperationTable3AddEONS_9UniquePtrINS_9OperationENS_13DefaultDeleteIS2_EEEE
_ZN9keymaster14OperationTable4FindEm
_ZN9keymaster14OperationTable6DeleteEm
_ZN9keymaster14TAG_AUTH_TOKENE
_ZN9keymaster14TAG_BLOCK_MODEE
_ZN9keymaster14TAG_DIGEST_OLDE
_ZN9keymaster14TAG_MAC_LENGTHE
_ZN9keymaster14TAG_OS_VERSIONE
_ZN9keymaster15TAG_PADDING_OLDE
_ZN9keymaster15build_auth_listERKNS_16AuthorizationSetEPNS_12km_auth_listE
_ZN9keymaster16AndroidKeymaster10GetVersionERKNS_17GetVersionRequestEPNS_18GetVersionResponseE
_ZN9keymaster16AndroidKeymaster10UpgradeKeyERKNS_17UpgradeKeyRequestEPNS_18UpgradeKeyResponseE
_ZN9keymaster16AndroidKeymaster11GenerateKeyERKNS_18GenerateKeyRequestEPNS_19GenerateKeyResponseE
_ZN9keymaster16AndroidKeymaster13AddRngEntropyERKNS_17AddEntropyRequestEPNS_18AddEntropyResponseE
_ZN9keymaster16AndroidKeymaster13DeleteAllKeysERKNS_20DeleteAllKeysRequestEPNS_21DeleteAllKeysResponseE
_ZN9keymaster16AndroidKeymaster14AbortOperationERKNS_21AbortOperationRequestEPNS_22AbortOperationResponseE
_ZN9keymaster16AndroidKeymaster14BeginOperationERKNS_21BeginOperationRequestEPNS_22BeginOperationResponseE
_ZN9keymaster16AndroidKeymaster15FinishOperationERKNS_22FinishOperationRequestEPNS_23FinishOperationResponseE
_ZN9keymaster16AndroidKeymaster15UpdateOperationERKNS_22UpdateOperationRequestEPNS_23UpdateOperationResponseE
_ZN9keymaster16AndroidKeymaster16ImportWrappedKeyERKNS_23ImportWrappedKeyRequestEPNS_24ImportWrappedKeyResponseE
_ZN9keymaster16AndroidKeymaster16SupportedDigestsERKNS_23SupportedDigestsRequestEPNS_24SupportedDigestsResponseE
_ZN9keymaster16AndroidKeymaster17ComputeSharedHmacERKNS_24ComputeSharedHmacRequestE
_ZN9keymaster16AndroidKeymaster19SupportedAlgorithmsERKNS_26SupportedAlgorithmsRequestEPNS_27SupportedAlgorithmsResponseE
_ZN9keymaster16AndroidKeymaster19SupportedBlockModesERKNS_26SupportedBlockModesRequestEPNS_27SupportedBlockModesResponseE
_ZN9keymaster16AndroidKeymaster19VerifyAuthorizationERKNS_26VerifyAuthorizationRequestE
_ZN9keymaster16AndroidKeymaster21GetKeyCharacteristicsERKNS_28GetKeyCharacteristicsRequestEPNS_29GetKeyCharacteristicsResponseE
_ZN9keymaster16AndroidKeymaster21SupportedPaddingModesERKNS_28SupportedPaddingModesRequestEPNS_29SupportedPaddingModesResponseE
_ZN9keymaster16AndroidKeymaster22SupportedExportFormatsERKNS_29SupportedExportFormatsRequestEPNS_30SupportedExportFormatsResponseE
_ZN9keymaster16AndroidKeymaster22SupportedImportFormatsERKNS_29SupportedImportFormatsRequestEPNS_30SupportedImportFormatsResponseE
_ZN9keymaster16AndroidKeymaster24GetHmacSharingParametersEv
_ZN9keymaster16AndroidKeymaster7LoadKeyERK20keymaster_key_blob_tRKNS_16AuthorizationSetEPPKNS_10KeyFactoryEPNS_9UniquePtrINS_3KeyENS_13DefaultDeleteISC_EEEE
_ZN9keymaster16AndroidKeymaster9AttestKeyERKNS_16AttestKeyRequestEPNS_17AttestKeyResponseE
_ZN9keymaster16AndroidKeymaster9ConfigureERKNS_16ConfigureRequestEPNS_17ConfigureResponseE
_ZN9keymaster16AndroidKeymaster9DeleteKeyERKNS_16DeleteKeyRequestEPNS_17DeleteKeyResponseE
_ZN9keymaster16AndroidKeymaster9ExportKeyERKNS_16ExportKeyRequestEPNS_17ExportKeyResponseE
_ZN9keymaster16AndroidKeymaster9ImportKeyERKNS_16ImportKeyRequestEPNS_17ImportKeyResponseE
_ZN9keymaster16AndroidKeymasterC1EOS0_
_ZN9keymaster16AndroidKeymasterC1EPNS_16KeymasterContextEm
_ZN9keymaster16AndroidKeymasterC2EOS0_
_ZN9keymaster16AndroidKeymasterC2EPNS_16KeymasterContextEm
_ZN9keymaster16AndroidKeymasterD0Ev
_ZN9keymaster16AndroidKeymasterD1Ev
_ZN9keymaster16AndroidKeymasterD2Ev
_ZN9keymaster16AttestKeyRequest11DeserializeEPPKhS2_
_ZN9keymaster16AttestKeyRequest14SetKeyMaterialEPKvm
_ZN9keymaster16AttestKeyRequestD0Ev
_ZN9keymaster16AttestKeyRequestD1Ev
_ZN9keymaster16AttestKeyRequestD2Ev
_ZN9keymaster16AuthorizationSet10DifferenceERK25keymaster_key_param_set_t
_ZN9keymaster16AuthorizationSet11DeduplicateEv
_ZN9keymaster16AuthorizationSet11DeserializeEPPKhS2_
_ZN9keymaster16AuthorizationSet11set_invalidENS0_5ErrorE
_ZN9keymaster16AuthorizationSet12ReinitializeEPK21keymaster_key_param_tm
_ZN9keymaster16AuthorizationSet13reserve_elemsEm
_ZN9keymaster16AuthorizationSet16CopyIndirectDataEv
_ZN9keymaster16AuthorizationSet16reserve_indirectEm
_ZN9keymaster16AuthorizationSet23ComputeIndirectDataSizeEPK21keymaster_key_param_tm
_ZN9keymaster16AuthorizationSet23DeserializeElementsDataEPPKhS2_
_ZN9keymaster16AuthorizationSet23DeserializeIndirectDataEPPKhS2_
_ZN9keymaster16AuthorizationSet4SortEv
_ZN9keymaster16AuthorizationSet5ClearEv
_ZN9keymaster16AuthorizationSet5UnionERK25keymaster_key_param_set_t
_ZN9keymaster16AuthorizationSet5eraseEi
_ZN9keymaster16AuthorizationSet8FreeDataEv
_ZN9keymaster16AuthorizationSet8MoveFromERS0_
_ZN9keymaster16AuthorizationSet9push_backE21keymaster_key_param_t
_ZN9keymaster16AuthorizationSet9push_backERK25keymaster_key_param_set_t
_ZN9keymaster16AuthorizationSetC1ERNS_23AuthorizationSetBuilderE
_ZN9keymaster16AuthorizationSetC2ERNS_23AuthorizationSetBuilderE
_ZN9keymaster16AuthorizationSetD0Ev
_ZN9keymaster16AuthorizationSetD1Ev
_ZN9keymaster16AuthorizationSetD2Ev
_ZN9keymaster16AuthorizationSetixEi
_ZN9keymaster16DeleteKeyRequest11DeserializeEPPKhS2_
_ZN9keymaster16DeleteKeyRequest14SetKeyMaterialEPKvm
_ZN9keymaster16EcCurveToKeySizeE20keymaster_ec_curve_tPj
_ZN9keymaster16EcKeySizeToCurveEjP20keymaster_ec_curve_t
_ZN9keymaster16ExportKeyRequest11DeserializeEPPKhS2_
_ZN9keymaster16ExportKeyRequest14SetKeyMaterialEPKvm
_ZN9keymaster16ImportKeyRequest11DeserializeEPPKhS2_
_ZN9keymaster16ImportKeyRequest14SetKeyMaterialEPKvm
_ZN9keymaster16KM_AUTH_LIST_newEv
_ZN9keymaster16Rfc5869Sha256Kdf11GenerateKeyEPKhmPhm
_ZN9keymaster16RsaSignOperation12SignDigestedEPNS_6BufferE
_ZN9keymaster16RsaSignOperation14SignUndigestedEPNS_6BufferE
_ZN9keymaster16RsaSignOperation5BeginERKNS_16AuthorizationSetEPS1_
_ZN9keymaster16RsaSignOperation6FinishERKNS_16AuthorizationSetERKNS_6BufferES6_PS1_PS4_
_ZN9keymaster16RsaSignOperation6UpdateERKNS_16AuthorizationSetERKNS_6BufferEPS1_PS4_Pm
_ZN9keymaster16TAG_AUTH_TIMEOUTE
_ZN9keymaster16TAG_CALLER_NONCEE
_ZN9keymaster16d2i_KM_AUTH_LISTEPPNS_12km_auth_listEPPKhl
_ZN9keymaster16i2d_KM_AUTH_LISTEPNS_12km_auth_listEPPh
_ZN9keymaster17AddEntropyRequest11DeserializeEPPKhS2_
_ZN9keymaster17AttestKeyResponse13AllocateChainEm
_ZN9keymaster17AttestKeyResponse19NonErrorDeserializeEPPKhS2_
_ZN9keymaster17AttestKeyResponseD0Ev
_ZN9keymaster17AttestKeyResponseD1Ev
_ZN9keymaster17AttestKeyResponseD2Ev
_ZN9keymaster17ExportKeyResponse14SetKeyMaterialEPKvm
_ZN9keymaster17ExportKeyResponse19NonErrorDeserializeEPPKhS2_
_ZN9keymaster17HardwareAuthToken11DeserializeEPPKhS2_
_ZN9keymaster17ImportKeyResponse14SetKeyMaterialEPKvm
_ZN9keymaster17ImportKeyResponse19NonErrorDeserializeEPPKhS2_
_ZN9keymaster17KM_AUTH_LIST_freeEPNS_12km_auth_listE
_ZN9keymaster17KeymasterResponse11DeserializeEPPKhS2_
_ZN9keymaster17RsaCryptOperation17GetOpensslPaddingEP17keymaster_error_t
_ZN9keymaster17RsaCryptOperation23SetOaepDigestIfRequiredEP15evp_pkey_ctx_st
_ZN9keymaster17TAG_OS_PATCHLEVELE
_ZN9keymaster17TAG_ROOT_OF_TRUSTE
_ZN9keymaster17UpgradeKeyRequest11DeserializeEPPKhS2_
_ZN9keymaster17UpgradeKeyRequest14SetKeyMaterialEPKvm
_ZN9keymaster17UpgradeKeyRequestD0Ev
_ZN9keymaster17UpgradeKeyRequestD1Ev
_ZN9keymaster17UpgradeKeyRequestD2Ev
_ZN9keymaster17VerificationToken11DeserializeEPPKhS2_
_ZN9keymaster17build_wrapped_keyERKNS_14TKeymasterBlobI20keymaster_key_blob_tEERKNS0_I16keymaster_blob_tEE22keymaster_key_format_tS4_S8_RKNS_16AuthorizationSetEPS2_
_ZN9keymaster17ec_get_group_sizeEPK11ec_group_stPm
_ZN9keymaster17extract_auth_listEPKNS_12km_auth_listEPNS_16AuthorizationSetE
_ZN9keymaster17parse_wrapped_keyERKNS_14TKeymasterBlobI20keymaster_key_blob_tEEPNS0_I16keymaster_blob_tEEPS2_S8_S7_PNS_16AuthorizationSetEP22keymaster_key_format_tS7_
_ZN9keymaster18EcdsaSignOperation5BeginERKNS_16AuthorizationSetEPS1_
_ZN9keymaster18EcdsaSignOperation6FinishERKNS_16AuthorizationSetERKNS_6BufferES6_PS1_PS4_
_ZN9keymaster18EcdsaSignOperation6UpdateERKNS_16AuthorizationSetERKNS_6BufferEPS1_PS4_Pm
_ZN9keymaster18GetVersionResponse19NonErrorDeserializeEPPKhS2_
_ZN9keymaster18KM_WRAPPED_KEY_newEv
_ZN9keymaster18RsaVerifyOperation14VerifyDigestedERKNS_6BufferE
_ZN9keymaster18RsaVerifyOperation16VerifyUndigestedERKNS_6BufferE
_ZN9keymaster18RsaVerifyOperation5BeginERKNS_16AuthorizationSetEPS1_
_ZN9keymaster18RsaVerifyOperation6FinishERKNS_16AuthorizationSetERKNS_6BufferES6_PS1_PS4_
_ZN9keymaster18RsaVerifyOperation6UpdateERKNS_16AuthorizationSetERKNS_6BufferEPS1_PS4_Pm
_ZN9keymaster18TAG_APPLICATION_IDE
_ZN9keymaster18TAG_MIN_MAC_LENGTHE
_ZN9keymaster18TAG_USER_AUTH_TYPEE
_ZN9keymaster18TAG_USER_SECURE_IDE
_ZN9keymaster18UpgradeKeyResponse19NonErrorDeserializeEPPKhS2_
_ZN9keymaster18UpgradeKeyResponseD0Ev
_ZN9keymaster18UpgradeKeyResponseD1Ev
_ZN9keymaster18UpgradeKeyResponseD2Ev
_ZN9keymaster18UpgradeSoftKeyBlobERKNS_9UniquePtrINS_3KeyENS_13DefaultDeleteIS1_EEEEjjRKNS_16AuthorizationSetEPNS_14TKeymasterBlobI20keymaster_key_blob_tEE
_ZN9keymaster18d2i_KM_WRAPPED_KEYEPPNS_14km_wrapped_keyEPPKhl
_ZN9keymaster18ec_group_size_bitsEP9ec_key_st
_ZN9keymaster18i2d_KM_WRAPPED_KEYEPNS_14km_wrapped_keyEPPh
_ZN9keymaster19EvpKeyToKeyMaterialEPK11evp_pkey_stPNS_14TKeymasterBlobI20keymaster_key_blob_tEE
_ZN9keymaster19GenerateKeyResponse19NonErrorDeserializeEPPKhS2_
_ZN9keymaster19GenerateKeyResponseD0Ev
_ZN9keymaster19GenerateKeyResponseD1Ev
_ZN9keymaster19GenerateKeyResponseD2Ev
_ZN9keymaster19KM_WRAPPED_KEY_freeEPNS_14km_wrapped_keyE
_ZN9keymaster19KeyMaterialToEvpKeyE22keymaster_key_format_tRKNS_14TKeymasterBlobI20keymaster_key_blob_tEE21keymaster_algorithm_tPNS_9UniquePtrI11evp_pkey_stNS_20OpenSslObjectDeleterIS8_XadL_Z13EVP_PKEY_freeEEEEEE
_ZN9keymaster19RsaDecryptOperation6FinishERKNS_16AuthorizationSetERKNS_6BufferES6_PS1_PS4_
_ZN9keymaster19RsaEncryptOperation6FinishERKNS_16AuthorizationSetERKNS_6BufferES6_PS1_PS4_
_ZN9keymaster19RsaOperationFactory18CreateRsaOperationEONS_3KeyERKNS_16AuthorizationSetEP17keymaster_error_t
_ZN9keymaster19RsaOperationFactory9GetRsaKeyEONS_3KeyEP17keymaster_error_t
_ZN9keymaster19TAG_ACTIVE_DATETIMEE
_ZN9keymaster19TAG_ASSOCIATED_DATAE
_ZN9keymaster19TAG_BOOTLOADER_ONLYE
_ZN9keymaster19softwareRootOfTrustE
_ZN9keymaster20EcdsaVerifyOperation5BeginERKNS_16AuthorizationSetEPS1_
_ZN9keymaster20EcdsaVerifyOperation6FinishERKNS_16AuthorizationSetERKNS_6BufferES6_PS1_PS4_
_ZN9keymaster20EcdsaVerifyOperation6UpdateERKNS_16AuthorizationSetERKNS_6BufferEPS1_PS4_Pm
_ZN9keymaster20HmacOperationFactory15CreateOperationEONS_3KeyERKNS_16AuthorizationSetEP17keymaster_error_t
_ZN9keymaster20KM_ROOT_OF_TRUST_newEv
_ZN9keymaster20KeymasterEnforcement14AuthorizeBeginE19keymaster_purpose_tmRKNS_9AuthProxyERKNS_16AuthorizationSetE
_ZN9keymaster20KeymasterEnforcement18AuthorizeOperationE19keymaster_purpose_tmRKNS_9AuthProxyERKNS_16AuthorizationSetEmb
_ZN9keymaster20KeymasterEnforcement23AuthorizeUpdateOrFinishERKNS_9AuthProxyERKNS_16AuthorizationSetEm
_ZN9keymaster20KeymasterEnforcement23MinTimeBetweenOpsPassedEjm
_ZN9keymaster20KeymasterEnforcement25MaxUsesPerBootNotExceededEmj
_ZN9keymaster20KeymasterEnforcementC2Ejj
_ZN9keymaster20KeymasterEnforcementD0Ev
_ZN9keymaster20KeymasterEnforcementD1Ev
_ZN9keymaster20KeymasterEnforcementD2Ev
_ZN9keymaster20NistCurveKeyExchange16ExtractPublicKeyEv
_ZN9keymaster20NistCurveKeyExchange19GenerateKeyExchangeE20keymaster_ec_curve_t
_ZN9keymaster20NistCurveKeyExchangeC1EP9ec_key_stP17keymaster_error_t
_ZN9keymaster20NistCurveKeyExchangeC2EP9ec_key_stP17keymaster_error_t
_ZN9keymaster20TAG_ALL_APPLICATIONSE
_ZN9keymaster20TAG_APPLICATION_DATAE
_ZN9keymaster20TAG_NO_AUTH_REQUIREDE
_ZN9keymaster20d2i_KM_ROOT_OF_TRUSTEPPNS_16km_root_of_trustEPPKhl
_ZN9keymaster20i2d_KM_ROOT_OF_TRUSTEPNS_16km_root_of_trustEPPh
_ZN9keymaster21BeginOperationRequest11DeserializeEPPKhS2_
_ZN9keymaster21BeginOperationRequest14SetKeyMaterialEPKvm
_ZN9keymaster21EcdsaOperationFactory15CreateOperationEONS_3KeyERKNS_16AuthorizationSetEP17keymaster_error_t
_ZN9keymaster21FakeKeyAuthorizationsEP11evp_pkey_stPNS_16AuthorizationSetES3_
_ZN9keymaster21HmacSharingParameters11DeserializeEPPKhS2_
_ZN9keymaster21KM_ROOT_OF_TRUST_freeEPNS_16km_root_of_trustE
_ZN9keymaster21RsaDigestingOperation17GetOpensslPaddingEP17keymaster_error_t
_ZN9keymaster21RsaDigestingOperationC2EONS_16AuthorizationSetES2_19keymaster_purpose_t18keymaster_digest_t19keymaster_padding_tP11evp_pkey_st
_ZN9keymaster21RsaDigestingOperationD0Ev
_ZN9keymaster21RsaDigestingOperationD1Ev
_ZN9keymaster21RsaDigestingOperationD2Ev
_ZN9keymaster21TAG_CREATION_DATETIMEE
_ZN9keymaster21TAG_INCLUDE_UNIQUE_IDE
_ZN9keymaster21TAG_MAX_USES_PER_BOOTE
_ZN9keymaster22BeginOperationResponse19NonErrorDeserializeEPPKhS2_
_ZN9keymaster22FinishOperationRequest11DeserializeEPPKhS2_
_ZN9keymaster22KM_KEY_DESCRIPTION_newEv
_ZN9keymaster22TAG_ROLLBACK_RESISTANTE
_ZN9keymaster22UpdateOperationRequest11DeserializeEPPKhS2_
_ZN9keymaster22d2i_KM_KEY_DESCRIPTIONEPPNS_18km_key_descriptionEPPKhl
_ZN9keymaster22i2d_KM_KEY_DESCRIPTIONEPNS_18km_key_descriptionEPPh
_ZN9keymaster23BlockCipherEvpOperation14InternalUpdateEPKhmPNS_6BufferEP17keymaster_error_t
_ZN9keymaster23BlockCipherEvpOperation15UpdateForFinishERKNS_16AuthorizationSetERKNS_6BufferEPS1_PS4_P17keymaster_error_t
_ZN9keymaster23BlockCipherEvpOperation16InitializeCipherENS_14TKeymasterBlobI20keymaster_key_blob_tEE
_ZN9keymaster23BlockCipherEvpOperation16ProcessAadBlocksEPKhmP17keymaster_error_t
_ZN9keymaster23BlockCipherEvpOperation20FillBufferedAadBlockEP16keymaster_blob_t
_ZN9keymaster23BlockCipherEvpOperation23ProcessBufferedAadBlockEP17keymaster_error_t
_ZN9keymaster23BlockCipherEvpOperation5AbortEv
_ZN9keymaster23BlockCipherEvpOperation5BeginERKNS_16AuthorizationSetEPS1_
_ZN9keymaster23BlockCipherEvpOperation5GetIvERKNS_16AuthorizationSetE
_ZN9keymaster23BlockCipherEvpOperation6FinishERKNS_16AuthorizationSetERKNS_6BufferES6_PS1_PS4_
_ZN9keymaster23BlockCipherEvpOperation6UpdateERKNS_16AuthorizationSetERKNS_6BufferEPS1_PS4_Pm
_ZN9keymaster23BlockCipherEvpOperation9HandleAadERKNS_16AuthorizationSetERKNS_6BufferEP17keymaster_error_t
_ZN9keymaster23BlockCipherEvpOperationC2E19keymaster_purpose_t22keymaster_block_mode_t19keymaster_padding_tbmONS_3KeyERKNS_20EvpCipherDescriptionE
_ZN9keymaster23BlockCipherEvpOperationD0Ev
_ZN9keymaster23BlockCipherEvpOperationD1Ev
_ZN9keymaster23BlockCipherEvpOperationD2Ev
_ZN9keymaster23FinishOperationResponse19NonErrorDeserializeEPPKhS2_
_ZN9keymaster23ImportWrappedKeyRequest11DeserializeEPPKhS2_
_ZN9keymaster23ImportWrappedKeyRequest18SetWrappedMaterialEPKvm
_ZN9keymaster23ImportWrappedKeyRequest19SetWrappingMaterialEPKvm
_ZN9keymaster23ImportWrappedKeyRequest21SetMaskingKeyMaterialEPKvm
_ZN9keymaster23KM_KEY_DESCRIPTION_freeEPNS_18km_key_descriptionE
_ZN9keymaster23TAG_ALLOW_WHILE_ON_BODYE
_ZN9keymaster23TAG_ATTESTATION_ID_IMEIE
_ZN9keymaster23TAG_ATTESTATION_ID_MEIDE
_ZN9keymaster23TAG_RSA_PUBLIC_EXPONENTE
_ZN9keymaster23UpdateOperationResponse19NonErrorDeserializeEPPKhS2_
_ZN9keymaster23is_public_key_algorithmERKNS_9AuthProxyE
_ZN9keymaster24ImportWrappedKeyResponse14SetKeyMaterialEPKvm
_ZN9keymaster24ImportWrappedKeyResponse19NonErrorDeserializeEPPKhS2_
_ZN9keymaster24SetKeyBlobAuthorizationsERKNS_16AuthorizationSetE22keymaster_key_origin_tjjPS0_S4_
_ZN9keymaster24TAG_ATTESTATION_ID_BRANDE
_ZN9keymaster24TAG_ATTESTATION_ID_MODELE
_ZN9keymaster24build_attestation_recordERKNS_16AuthorizationSetES0_S0_RKNS_24AttestationRecordContextEPNS_9UniquePtrIA_hNS_13DefaultDeleteIS7_EEEEPm
_ZN9keymaster24parse_attestation_recordEPKhmPjP26keymaster_security_level_tS2_S4_P16keymaster_blob_tPNS_16AuthorizationSetES8_S6_
_ZN9keymaster25BuildHiddenAuthorizationsERKNS_16AuthorizationSetEPS0_RKNS_14TKeymasterBlobI16keymaster_blob_tEE
_ZN9keymaster25ComputeSharedHmacResponse19NonErrorDeserializeEPPKhS2_
_ZN9keymaster25ParseOcbAuthEncryptedBlobERKNS_14TKeymasterBlobI20keymaster_key_blob_tEERKNS_16AuthorizationSetEPS2_PS5_S9_
_ZN9keymaster25ParseOldSoftkeymasterBlobERKNS_14TKeymasterBlobI20keymaster_key_blob_tEEPS2_PNS_16AuthorizationSetES7_
_ZN9keymaster25TAG_ATTESTATION_ID_DEVICEE
_ZN9keymaster25TAG_ATTESTATION_ID_SERIALE
_ZN9keymaster25TAG_USAGE_EXPIRE_DATETIMEE
_ZN9keymaster25TranslateLastOpenSslErrorEb
_ZN9keymaster25convert_pkcs8_blob_to_evpEPKhm21keymaster_algorithm_tPNS_9UniquePtrI11evp_pkey_stNS_20OpenSslObjectDeleterIS4_XadL_Z13EVP_PKEY_freeEEEEEE
_ZN9keymaster26HmacSharingParametersArray11DeserializeEPPKhS2_
_ZN9keymaster26SerializeAuthEncryptedBlobERKNS_14TKeymasterBlobI20keymaster_key_blob_tEERKNS_16AuthorizationSetES7_RKNS_6BufferESA_PS2_
_ZN9keymaster26TAG_ATTESTATION_ID_PRODUCTE
_ZN9keymaster26TAG_ECIES_SINGLE_HASH_MODEE
_ZN9keymaster27BlockCipherOperationFactory15CreateOperationEONS_3KeyERKNS_16AuthorizationSetEP17keymaster_error_t
_ZN9keymaster27RsaCryptingOperationFactory18CreateRsaOperationEONS_3KeyERKNS_16AuthorizationSetEP17keymaster_error_t
_ZN9keymaster27TAG_BLOB_USAGE_REQUIREMENTSE
_ZN9keymaster27TAG_MIN_SECONDS_BETWEEN_OPSE
_ZN9keymaster27copy_size_and_data_from_bufEPPKhS1_PmPNS_9UniquePtrIA_hNS_13DefaultDeleteIS5_EEEE
_ZN9keymaster28DeserializeAuthEncryptedBlobERKNS_14TKeymasterBlobI20keymaster_key_blob_tEEPS2_PNS_16AuthorizationSetES7_PNS_6BufferES9_
_ZN9keymaster28GetKeyCharacteristicsRequest11DeserializeEPPKhS2_
_ZN9keymaster28GetKeyCharacteristicsRequest14SetKeyMaterialEPKvm
_ZN9keymaster28GetKeyCharacteristicsRequestD0Ev
_ZN9keymaster28GetKeyCharacteristicsRequestD1Ev
_ZN9keymaster28GetKeyCharacteristicsRequestD2Ev
_ZN9keymaster29GetKeyCharacteristicsResponse19NonErrorDeserializeEPPKhS2_
_ZN9keymaster29SerializeIntegrityAssuredBlobERKNS_14TKeymasterBlobI20keymaster_key_blob_tEERKNS_16AuthorizationSetES7_S7_PS2_
_ZN9keymaster30BlockCipherEvpDecryptOperation22BufferCandidateTagDataEPKhm
_ZN9keymaster30BlockCipherEvpDecryptOperation27ProcessAllButTagLengthBytesERKNS_6BufferEPS1_
_ZN9keymaster30BlockCipherEvpDecryptOperation27ProcessTagBufContentsAsDataEmPNS_6BufferEP17keymaster_error_t
_ZN9keymaster30BlockCipherEvpDecryptOperation5BeginERKNS_16AuthorizationSetEPS1_
_ZN9keymaster30BlockCipherEvpDecryptOperation6FinishERKNS_16AuthorizationSetERKNS_6BufferES6_PS1_PS4_
_ZN9keymaster30BlockCipherEvpDecryptOperation6UpdateERKNS_16AuthorizationSetERKNS_6BufferEPS1_PS4_Pm
_ZN9keymaster30BlockCipherEvpEncryptOperation10GenerateIvEv
_ZN9keymaster30BlockCipherEvpEncryptOperation5BeginERKNS_16AuthorizationSetEPS1_
_ZN9keymaster30BlockCipherEvpEncryptOperation6FinishERKNS_16AuthorizationSetERKNS_6BufferES6_PS1_PS4_
_ZN9keymaster30KM_WRAPPED_KEY_DESCRIPTION_newEv
_ZN9keymaster30TAG_ATTESTATION_APPLICATION_IDE
_ZN9keymaster30d2i_KM_WRAPPED_KEY_DESCRIPTIONEPPNS_26km_wrapped_key_descriptionEPPKhl
_ZN9keymaster30i2d_KM_WRAPPED_KEY_DESCRIPTIONEPNS_26km_wrapped_key_descriptionEPPh
_ZN9keymaster31DeserializeIntegrityAssuredBlobERKNS_14TKeymasterBlobI20keymaster_key_blob_tEERKNS_16AuthorizationSetEPS2_PS5_S9_
_ZN9keymaster31KM_WRAPPED_KEY_DESCRIPTION_freeEPNS_26km_wrapped_key_descriptionE
_ZN9keymaster31TAG_ATTESTATION_ID_MANUFACTURERE
_ZN9keymaster31TAG_ORIGINATION_EXPIRE_DATETIMEE
_ZN9keymaster3Kdf26Uint32ToBigEndianByteArrayEjPh
_ZN9keymaster3Kdf4InitE18keymaster_digest_tPKhmS3_m
_ZN9keymaster3KdfC2Ev
_ZN9keymaster3minEmm
_ZN9keymaster43DeserializeIntegrityAssuredBlob_NoHmacCheckERKNS_14TKeymasterBlobI20keymaster_key_blob_tEEPS2_PNS_16AuthorizationSetES7_
_ZN9keymaster4ckdfERKNS_14TKeymasterBlobI20keymaster_key_blob_tEERKNS0_I16keymaster_blob_tEEPKS5_mPS2_
_ZN9keymaster5EcKey13EvpToInternalEPK11evp_pkey_st
_ZN9keymaster6Buffer11DeserializeEPPKhS2_
_ZN9keymaster6Buffer12ReinitializeEPKvm
_ZN9keymaster6Buffer12ReinitializeEm
_ZN9keymaster6Buffer4readEPhm
_ZN9keymaster6Buffer5ClearEv
_ZN9keymaster6Buffer5writeEPKhm
_ZN9keymaster6Buffer7reserveEm
_ZN9keymaster6Logger3LogENS0_8LogLevelEPKcP13__va_list_tag
_ZN9keymaster6Logger3LogENS0_8LogLevelEPKcz
_ZN9keymaster6Logger4InfoEPKcz
_ZN9keymaster6Logger5DebugEPKcz
_ZN9keymaster6Logger5ErrorEPKcz
_ZN9keymaster6Logger6SevereEPKcz
_ZN9keymaster6Logger7WarningEPKcz
_ZN9keymaster6Logger9instance_E
_ZN9keymaster6RsaKey13EvpToInternalEPK11evp_pkey_st
_ZN9keymaster6RsaKey13SupportedModeE19keymaster_purpose_t18keymaster_digest_t
_ZN9keymaster6RsaKey13SupportedModeE19keymaster_purpose_t19keymaster_padding_t
_ZN9keymaster7TAG_KDFE
_ZN9keymaster8EciesKem7DecryptEP9ec_key_stPKhmPNS_6BufferE
_ZN9keymaster8EciesKem7DecryptEP9ec_key_stRKNS_6BufferEPS3_
_ZN9keymaster8EciesKem7EncryptEPKhmPNS_6BufferES4_
_ZN9keymaster8EciesKem7EncryptERKNS_6BufferEPS1_S4_
_ZN9keymaster8EciesKemC1ERKNS_16AuthorizationSetEP17keymaster_error_t
_ZN9keymaster8EciesKemC2ERKNS_16AuthorizationSetEP17keymaster_error_t
_ZN9keymaster8memcmp_sEPKvS1_m
_ZN9keymaster9Operation15UpdateForFinishERKNS_16AuthorizationSetERKNS_6BufferE
_ZN9keymaster9TAG_NONCEE
_ZNK9keymaster10HmacSha25612DigestLengthEv
_ZNK9keymaster10HmacSha2564SignEPKhmPhm
_ZNK9keymaster10HmacSha2564SignERKNS_6BufferEPhm
_ZNK9keymaster10HmacSha2566VerifyEPKhmS2_m
_ZNK9keymaster10HmacSha2566VerifyERKNS_6BufferES3_
_ZNK9keymaster12EcKeyFactory11GenerateKeyERKNS_16AuthorizationSetEPNS_14TKeymasterBlobI20keymaster_key_blob_tEEPS1_S8_
_ZNK9keymaster12EcKeyFactory14CreateEmptyKeyEONS_16AuthorizationSetES2_PNS_9UniquePtrINS_13AsymmetricKeyENS_13DefaultDeleteIS4_EEEE
_ZNK9keymaster12EcKeyFactory19GetOperationFactoryE19keymaster_purpose_t
_ZNK9keymaster12EcKeyFactory26UpdateImportKeyDescriptionERKNS_16AuthorizationSetE22keymaster_key_format_tRKNS_14TKeymasterBlobI20keymaster_key_blob_tEEPS1_Pj
_ZNK9keymaster12EcKeyFactory9ImportKeyERKNS_16AuthorizationSetE22keymaster_key_format_tRKNS_14TKeymasterBlobI20keymaster_key_blob_tEEPS7_PS1_SB_
_ZNK9keymaster13AccessTimeMap17LastKeyAccessTimeEmPj
_ZNK9keymaster13AesKeyFactory19GetOperationFactoryE19keymaster_purpose_t
_ZNK9keymaster13AesKeyFactory42validate_algorithm_specific_new_key_paramsERKNS_16AuthorizationSetE
_ZNK9keymaster13AesKeyFactory7LoadKeyEONS_14TKeymasterBlobI20keymaster_key_blob_tEERKNS_16AuthorizationSetEOS5_S8_PNS_9UniquePtrINS_3KeyENS_13DefaultDeleteISA_EEEE
_ZNK9keymaster13AsymmetricKey22formatted_key_materialE22keymaster_key_format_tPNS_9UniquePtrIA_hNS_13DefaultDeleteIS3_EEEEPm
_ZNK9keymaster13RsaKeyFactory11GenerateKeyERKNS_16AuthorizationSetEPNS_14TKeymasterBlobI20keymaster_key_blob_tEEPS1_S8_
_ZNK9keymaster13RsaKeyFactory14CreateEmptyKeyEONS_16AuthorizationSetES2_PNS_9UniquePtrINS_13AsymmetricKeyENS_13DefaultDeleteIS4_EEEE
_ZNK9keymaster13RsaKeyFactory19GetOperationFactoryE19keymaster_purpose_t
_ZNK9keymaster13RsaKeyFactory26UpdateImportKeyDescriptionERKNS_16AuthorizationSetE22keymaster_key_format_tRKNS_14TKeymasterBlobI20keymaster_key_blob_tEEPS1_PmPj
_ZNK9keymaster13RsaKeyFactory9ImportKeyERKNS_16AuthorizationSetE22keymaster_key_format_tRKNS_14TKeymasterBlobI20keymaster_key_blob_tEEPS7_PS1_SB_
_ZNK9keymaster14AccessCountMap14KeyAccessCountEmPj
_ZNK9keymaster14HmacKeyFactory19GetOperationFactoryE19keymaster_purpose_t
_ZNK9keymaster14HmacKeyFactory42validate_algorithm_specific_new_key_paramsERKNS_16AuthorizationSetE
_ZNK9keymaster14HmacKeyFactory7LoadKeyEONS_14TKeymasterBlobI20keymaster_key_blob_tEERKNS_16AuthorizationSetEOS5_S8_PNS_9UniquePtrINS_3KeyENS_13DefaultDeleteISA_EEEE
_ZNK9keymaster16AndroidKeymaster13has_operationEm
_ZNK9keymaster16AttestKeyRequest14SerializedSizeEv
_ZNK9keymaster16AttestKeyRequest9SerializeEPhPKh
_ZNK9keymaster16AuthorizationSet11GetTagCountE15keymaster_tag_t
_ZNK9keymaster16AuthorizationSet14CopyToParamSetEP25keymaster_key_param_set_t
_ZNK9keymaster16AuthorizationSet14GetTagValueIntE15keymaster_tag_tPj
_ZNK9keymaster16AuthorizationSet14SerializedSizeEv
_ZNK9keymaster16AuthorizationSet15GetTagValueBlobE15keymaster_tag_tP16keymaster_blob_t
_ZNK9keymaster16AuthorizationSet15GetTagValueBoolE15keymaster_tag_t
_ZNK9keymaster16AuthorizationSet15GetTagValueDateE15keymaster_tag_tPm
_ZNK9keymaster16AuthorizationSet15GetTagValueEnumE15keymaster_tag_tPj
_ZNK9keymaster16AuthorizationSet15GetTagValueLongE15keymaster_tag_tPm
_ZNK9keymaster16AuthorizationSet16ContainsIntValueE15keymaster_tag_tj
_ZNK9keymaster16AuthorizationSet17ContainsEnumValueE15keymaster_tag_tj
_ZNK9keymaster16AuthorizationSet17GetTagValueIntRepE15keymaster_tag_tmPj
_ZNK9keymaster16AuthorizationSet18GetTagValueEnumRepE15keymaster_tag_tmPj
_ZNK9keymaster16AuthorizationSet18GetTagValueLongRepE15keymaster_tag_tmPm
_ZNK9keymaster16AuthorizationSet24SerializedSizeOfElementsEv
_ZNK9keymaster16AuthorizationSet4findE15keymaster_tag_ti
_ZNK9keymaster16AuthorizationSet9SerializeEPhPKh
_ZNK9keymaster16AuthorizationSetixEi
_ZNK9keymaster16DeleteKeyRequest14SerializedSizeEv
_ZNK9keymaster16DeleteKeyRequest9SerializeEPhPKh
_ZNK9keymaster16ExportKeyRequest14SerializedSizeEv
_ZNK9keymaster16ExportKeyRequest9SerializeEPhPKh
_ZNK9keymaster16ImportKeyRequest14SerializedSizeEv
_ZNK9keymaster16ImportKeyRequest9SerializeEPhPKh
_ZNK9keymaster16OperationFactory20GetAndValidateDigestERKNS_16AuthorizationSetERKNS_3KeyEP18keymaster_digest_tP17keymaster_error_t
_ZNK9keymaster16OperationFactory21GetAndValidatePaddingERKNS_16AuthorizationSetERKNS_3KeyEP19keymaster_padding_tP17keymaster_error_t
_ZNK9keymaster16OperationFactory23is_public_key_operationEv
_ZNK9keymaster16OperationFactory9supportedE18keymaster_digest_t
_ZNK9keymaster16OperationFactory9supportedE19keymaster_padding_t
_ZNK9keymaster16OperationFactory9supportedE22keymaster_block_mode_t
_ZNK9keymaster17AddEntropyRequest14SerializedSizeEv
_ZNK9keymaster17AddEntropyRequest9SerializeEPhPKh
_ZNK9keymaster17AttestKeyResponse17NonErrorSerializeEPhPKh
_ZNK9keymaster17AttestKeyResponse22NonErrorSerializedSizeEv
_ZNK9keymaster17ExportKeyResponse17NonErrorSerializeEPhPKh
_ZNK9keymaster17ExportKeyResponse22NonErrorSerializedSizeEv
_ZNK9keymaster17HardwareAuthToken14SerializedSizeEv
_ZNK9keymaster17HardwareAuthToken9SerializeEPhPKh
_ZNK9keymaster17ImportKeyResponse17NonErrorSerializeEPhPKh
_ZNK9keymaster17ImportKeyResponse22NonErrorSerializedSizeEv
_ZNK9keymaster17KeymasterResponse14SerializedSizeEv
_ZNK9keymaster17KeymasterResponse9SerializeEPhPKh
_ZNK9keymaster17UpgradeKeyRequest14SerializedSizeEv
_ZNK9keymaster17UpgradeKeyRequest9SerializeEPhPKh
_ZNK9keymaster17VerificationToken14SerializedSizeEv
_ZNK9keymaster17VerificationToken9SerializeEPhPKh
_ZNK9keymaster18GetVersionResponse17NonErrorSerializeEPhPKh
_ZNK9keymaster18GetVersionResponse22NonErrorSerializedSizeEv
_ZNK9keymaster18UpgradeKeyResponse17NonErrorSerializeEPhPKh
_ZNK9keymaster18UpgradeKeyResponse22NonErrorSerializedSizeEv
_ZNK9keymaster19AesOperationFactory20GetCipherDescriptionEv
_ZNK9keymaster19GenerateKeyResponse17NonErrorSerializeEPhPKh
_ZNK9keymaster19GenerateKeyResponse22NonErrorSerializedSizeEv
_ZNK9keymaster19RsaOperationFactory16SupportedDigestsEPm
_ZNK9keymaster19SymmetricKeyFactory11GenerateKeyERKNS_16AuthorizationSetEPNS_14TKeymasterBlobI20keymaster_key_blob_tEEPS1_S8_
_ZNK9keymaster19SymmetricKeyFactory22SupportedImportFormatsEPm
_ZNK9keymaster19SymmetricKeyFactory9ImportKeyERKNS_16AuthorizationSetE22keymaster_key_format_tRKNS_14TKeymasterBlobI20keymaster_key_blob_tEEPS7_PS1_SB_
_ZNK9keymaster19TripleDesKeyFactory19GetOperationFactoryE19keymaster_purpose_t
_ZNK9keymaster19TripleDesKeyFactory42validate_algorithm_specific_new_key_paramsERKNS_16AuthorizationSetE
_ZNK9keymaster19TripleDesKeyFactory7LoadKeyEONS_14TKeymasterBlobI20keymaster_key_blob_tEERKNS_16AuthorizationSetEOS5_S8_PNS_9UniquePtrINS_3KeyENS_13DefaultDeleteISA_EEEE
_ZNK9keymaster20AsymmetricKeyFactory22SupportedExportFormatsEPm
_ZNK9keymaster20AsymmetricKeyFactory22SupportedImportFormatsEPm
_ZNK9keymaster20AsymmetricKeyFactory7LoadKeyEONS_14TKeymasterBlobI20keymaster_key_blob_tEERKNS_16AuthorizationSetEOS5_S8_PNS_9UniquePtrINS_3KeyENS_13DefaultDeleteISA_EEEE
_ZNK9keymaster20HmacOperationFactory16SupportedDigestsEPm
_ZNK9keymaster20KeymasterEnforcement16AuthTokenMatchesERKNS_9AuthProxyERKNS_16AuthorizationSetEmiimb
_ZNK9keymaster20NistCurveKeyExchange12public_valueEPNS_6BufferE
_ZNK9keymaster20NistCurveKeyExchange18CalculateSharedKeyEPKhmPNS_6BufferE
_ZNK9keymaster20NistCurveKeyExchange18CalculateSharedKeyERKNS_6BufferEPS1_
_ZNK9keymaster20SoftwareRandomSource14GenerateRandomEPhm
_ZNK9keymaster21BeginOperationRequest14SerializedSizeEv
_ZNK9keymaster21BeginOperationRequest9SerializeEPhPKh
_ZNK9keymaster21EcdsaOperationFactory16SupportedDigestsEPm
_ZNK9keymaster21HmacSharingParameters14SerializedSizeEv
_ZNK9keymaster21HmacSharingParameters9SerializeEPhPKh
_ZNK9keymaster22BeginOperationResponse17NonErrorSerializeEPhPKh
_ZNK9keymaster22BeginOperationResponse22NonErrorSerializedSizeEv
_ZNK9keymaster22FinishOperationRequest14SerializedSizeEv
_ZNK9keymaster22FinishOperationRequest9SerializeEPhPKh
_ZNK9keymaster22UpdateOperationRequest14SerializedSizeEv
_ZNK9keymaster22UpdateOperationRequest9SerializeEPhPKh
_ZNK9keymaster23AesEvpCipherDescription17GetCipherInstanceEm22keymaster_block_mode_tP17keymaster_error_t
_ZNK9keymaster23AesEvpCipherDescription19SupportedBlockModesEPm
_ZNK9keymaster23BlockCipherEvpOperation7need_ivEv
_ZNK9keymaster23FinishOperationResponse17NonErrorSerializeEPhPKh
_ZNK9keymaster23FinishOperationResponse22NonErrorSerializedSizeEv
_ZNK9keymaster23ImportWrappedKeyRequest14SerializedSizeEv
_ZNK9keymaster23ImportWrappedKeyRequest9SerializeEPhPKh
_ZNK9keymaster23UpdateOperationResponse17NonErrorSerializeEPhPKh
_ZNK9keymaster23UpdateOperationResponse22NonErrorSerializedSizeEv
_ZNK9keymaster24ImportWrappedKeyResponse17NonErrorSerializeEPhPKh
_ZNK9keymaster24ImportWrappedKeyResponse22NonErrorSerializedSizeEv
_ZNK9keymaster25ComputeSharedHmacResponse17NonErrorSerializeEPhPKh
_ZNK9keymaster25ComputeSharedHmacResponse22NonErrorSerializedSizeEv
_ZNK9keymaster25TripleDesOperationFactory20GetCipherDescriptionEv
_ZNK9keymaster26HmacSharingParametersArray14SerializedSizeEv
_ZNK9keymaster26HmacSharingParametersArray9SerializeEPhPKh
_ZNK9keymaster27BlockCipherOperationFactory21SupportedPaddingModesEPm
_ZNK9keymaster27RsaCryptingOperationFactory21SupportedPaddingModesEPm
_ZNK9keymaster28GetKeyCharacteristicsRequest14SerializedSizeEv
_ZNK9keymaster28GetKeyCharacteristicsRequest9SerializeEPhPKh
_ZNK9keymaster28RsaDigestingOperationFactory21SupportedPaddingModesEPm
_ZNK9keymaster29GetKeyCharacteristicsResponse17NonErrorSerializeEPhPKh
_ZNK9keymaster29GetKeyCharacteristicsResponse22NonErrorSerializedSizeEv
_ZNK9keymaster29TripleDesEvpCipherDescription17GetCipherInstanceEm22keymaster_block_mode_tP17keymaster_error_t
_ZNK9keymaster29TripleDesEvpCipherDescription19SupportedBlockModesEPm
_ZNK9keymaster5EcKey13InternalToEvpEP11evp_pkey_st
_ZNK9keymaster6Buffer14SerializedSizeEv
_ZNK9keymaster6Buffer14available_readEv
_ZNK9keymaster6Buffer15available_writeEv
_ZNK9keymaster6Buffer9SerializeEPhPKh
_ZNK9keymaster6RsaKey13InternalToEvpEP11evp_pkey_st
_ZTVN9keymaster11Iso18033KdfE
_ZTVN9keymaster12EcKeyFactoryE
_ZTVN9keymaster12RsaOperationE
_ZTVN9keymaster12SymmetricKeyE
_ZTVN9keymaster13AesKeyFactoryE
_ZTVN9keymaster13AsymmetricKeyE
_ZTVN9keymaster13HmacOperationE
_ZTVN9keymaster13RsaKeyFactoryE
_ZTVN9keymaster14EcdsaOperationE
_ZTVN9keymaster14HmacKeyFactoryE
_ZTVN9keymaster16AndroidKeymasterE
_ZTVN9keymaster16AttestKeyRequestE
_ZTVN9keymaster16AuthorizationSetE
_ZTVN9keymaster16DeleteKeyRequestE
_ZTVN9keymaster16ExportKeyRequestE
_ZTVN9keymaster16ImportKeyRequestE
_ZTVN9keymaster16Rfc5869Sha256KdfE
_ZTVN9keymaster16RsaSignOperationE
_ZTVN9keymaster17AddEntropyRequestE
_ZTVN9keymaster17AttestKeyResponseE
_ZTVN9keymaster17ExportKeyResponseE
_ZTVN9keymaster17HardwareAuthTokenE
_ZTVN9keymaster17ImportKeyResponseE
_ZTVN9keymaster17KeymasterResponseE
_ZTVN9keymaster17RsaCryptOperationE
_ZTVN9keymaster17UpgradeKeyRequestE
_ZTVN9keymaster17VerificationTokenE
_ZTVN9keymaster18EcdsaSignOperationE
_ZTVN9keymaster18GetVersionResponseE
_ZTVN9keymaster18RsaVerifyOperationE
_ZTVN9keymaster18UpgradeKeyResponseE
_ZTVN9keymaster19AesOperationFactoryE
_ZTVN9keymaster19GenerateKeyResponseE
_ZTVN9keymaster19RsaDecryptOperationE
_ZTVN9keymaster19RsaEncryptOperationE
_ZTVN9keymaster19RsaOperationFactoryE
_ZTVN9keymaster19SymmetricKeyFactoryE
_ZTVN9keymaster19TripleDesKeyFactoryE
_ZTVN9keymaster20AsymmetricKeyFactoryE
_ZTVN9keymaster20EcdsaVerifyOperationE
_ZTVN9keymaster20HmacOperationFactoryE
_ZTVN9keymaster20KeymasterEnforcementE
_ZTVN9keymaster20NistCurveKeyExchangeE
_ZTVN9keymaster20SoftwareRandomSourceE
_ZTVN9keymaster21BeginOperationRequestE
_ZTVN9keymaster21EcdsaOperationFactoryE
_ZTVN9keymaster21HmacSharingParametersE
_ZTVN9keymaster21RsaDigestingOperationE
_ZTVN9keymaster22BeginOperationResponseE
_ZTVN9keymaster22FinishOperationRequestE
_ZTVN9keymaster22UpdateOperationRequestE
_ZTVN9keymaster23AesEvpCipherDescriptionE
_ZTVN9keymaster23BlockCipherEvpOperationE
_ZTVN9keymaster23FinishOperationResponseE
_ZTVN9keymaster23ImportWrappedKeyRequestE
_ZTVN9keymaster23UpdateOperationResponseE
_ZTVN9keymaster24ImportWrappedKeyResponseE
_ZTVN9keymaster25ComputeSharedHmacResponseE
_ZTVN9keymaster25TripleDesOperationFactoryE
_ZTVN9keymaster26HmacSharingParametersArrayE
_ZTVN9keymaster27BlockCipherOperationFactoryE
_ZTVN9keymaster27RsaCryptingOperationFactoryE
_ZTVN9keymaster28GetKeyCharacteristicsRequestE
_ZTVN9keymaster28RsaDigestingOperationFactoryE
_ZTVN9keymaster29GetKeyCharacteristicsResponseE
_ZTVN9keymaster29TripleDesEvpCipherDescriptionE
_ZTVN9keymaster30BlockCipherEvpDecryptOperationE
_ZTVN9keymaster30BlockCipherEvpEncryptOperationE
_ZTVN9keymaster5EcKeyE
_ZTVN9keymaster6BufferE
_ZTVN9keymaster6RsaKeyE
_ZTVN9keymaster8EciesKemE
ae_allocate
ae_clear
ae_ctx_sizeof
ae_decrypt
ae_encrypt
ae_free
ae_init
infoString
