_ZN7android10conversion10getFdCountERKNS_8hardware8graphics11bufferqueue4V1_022IGraphicBufferProducer16FrameEventsDeltaE
_ZN7android10conversion10getFdCountERKNS_8hardware8graphics11bufferqueue4V1_022IGraphicBufferProducer16QueueBufferInputE
_ZN7android10conversion10getFdCountERKNS_8hardware8graphics11bufferqueue4V1_022IGraphicBufferProducer17FenceTimeSnapshotE
_ZN7android10conversion10getFdCountERKNS_8hardware8graphics11bufferqueue4V1_022IGraphicBufferProducer22FrameEventHistoryDeltaE
_ZN7android10conversion11inHidlBytesEPKvm
_ZN7android10conversion11toHidlBytesEPKvm
_ZN7android10conversion12flattenFenceERKNS_8hardware11hidl_handleERPvRmRPiS7_
_ZN7android10conversion12inHidlHandleEPK13native_handle
_ZN7android10conversion14toBinderStatusERKNS_8hardware6ReturnIvEE
_ZN7android10conversion14toRawDataspaceERKNS_8hardware8graphics6common4V1_09DataspaceE
_ZN7android10conversion14unflattenFenceEPNS_8hardware11hidl_handleEPP13native_handleRPKvRmRPKiSA_
_ZN7android10conversion15getFenceFdCountERKNS_8hardware11hidl_handleE
_ZN7android10conversion16getFlattenedSizeERKNS_8hardware8graphics11bufferqueue4V1_022IGraphicBufferProducer16FrameEventsDeltaE
_ZN7android10conversion16getFlattenedSizeERKNS_8hardware8graphics11bufferqueue4V1_022IGraphicBufferProducer16QueueBufferInputE
_ZN7android10conversion16getFlattenedSizeERKNS_8hardware8graphics11bufferqueue4V1_022IGraphicBufferProducer17FenceTimeSnapshotE
_ZN7android10conversion16getFlattenedSizeERKNS_8hardware8graphics11bufferqueue4V1_022IGraphicBufferProducer22FrameEventHistoryDeltaE
_ZN7android10conversion16getFlattenedSizeERKNS_8hardware8hidl_vecINS1_5media4V1_04RectEEE
_ZN7android10conversion19toGuiDisconnectModeENS_8hardware8graphics11bufferqueue4V1_022IGraphicBufferProducer14DisconnectModeE
_ZN7android10conversion19toHardwareDataspaceEi
_ZN7android10conversion20toHidlDisconnectModeENS_22IGraphicBufferProducer14DisconnectModeE
_ZN7android10conversion21getFenceFlattenedSizeERKNS_8hardware11hidl_handleE
_ZN7android10conversion21native_handle_read_fdEPK13native_handlei
_ZN7android10conversion28native_handle_create_from_fdEi
_ZN7android10conversion6wrapAsEPNS_8hardware11hidl_handleEPP13native_handleRKNS_5FenceE
_ZN7android10conversion6wrapAsEPNS_8hardware5media4V1_09AnwBufferERKNS_13GraphicBufferE
_ZN7android10conversion6wrapAsEPNS_8hardware8graphics11bufferqueue4V1_022IGraphicBufferProducer16QueueBufferInputEPP13native_handleRKNS_22IGraphicBufferProducer16QueueBufferInputE
_ZN7android10conversion6wrapAsEPNS_8hardware8graphics11bufferqueue4V1_022IGraphicBufferProducer17QueueBufferOutputEPNSt3__16vectorINS9_IP13native_handleNS8_9allocatorISB_EEEENSC_ISE_EEEERKNS_22IGraphicBufferProducer17QueueBufferOutputE
_ZN7android10conversion6wrapAsEPNS_8hardware8graphics11bufferqueue4V1_022IGraphicBufferProducer22FrameEventHistoryDeltaEPNSt3__16vectorINS9_IP13native_handleNS8_9allocatorISB_EEEENSC_ISE_EEEERKNS_22FrameEventHistoryDeltaE
_ZN7android10conversion7flattenERKNS_8hardware8graphics11bufferqueue4V1_022IGraphicBufferProducer16FrameEventsDeltaERPvRmRPim
_ZN7android10conversion7flattenERKNS_8hardware8graphics11bufferqueue4V1_022IGraphicBufferProducer16QueueBufferInputEPP13native_handleRPvRmRPiSE_
_ZN7android10conversion7flattenERKNS_8hardware8graphics11bufferqueue4V1_022IGraphicBufferProducer17FenceTimeSnapshotERPvRmRPiSB_
_ZN7android10conversion7flattenERKNS_8hardware8graphics11bufferqueue4V1_022IGraphicBufferProducer22FrameEventHistoryDeltaERPvRmRPiSB_
_ZN7android10conversion7flattenERKNS_8hardware8hidl_vecINS1_5media4V1_04RectEEERPvRm
_ZN7android10conversion9convertToEPNS_13GraphicBufferERKNS_8hardware5media4V1_09AnwBufferE
_ZN7android10conversion9convertToEPNS_22FrameEventHistoryDeltaERKNS_8hardware8graphics11bufferqueue4V1_022IGraphicBufferProducer22FrameEventHistoryDeltaE
_ZN7android10conversion9convertToEPNS_22IGraphicBufferProducer16QueueBufferInputERKNS_8hardware8graphics11bufferqueue4V1_022IGraphicBufferProducer16QueueBufferInputE
_ZN7android10conversion9convertToEPNS_22IGraphicBufferProducer17QueueBufferOutputERKNS_8hardware8graphics11bufferqueue4V1_022IGraphicBufferProducer17QueueBufferOutputE
_ZN7android10conversion9convertToEPNS_5FenceERKNS_8hardware11hidl_handleE
_ZN7android10conversion9convertToEPNS_6RegionERKNS_8hardware8hidl_vecINS3_5media4V1_04RectEEE
_ZN7android10conversion9convertToEPNS_8hardware8hidl_vecINS1_5media4V1_04RectEEERKNS_6RegionE
_ZN7android10conversion9toStatusTERKNS_8hardware6ReturnIvEE
_ZN7android10conversion9unflattenEPNS_8hardware8graphics11bufferqueue4V1_022IGraphicBufferProducer16FrameEventsDeltaEPNSt3__16vectorIP13native_handleNS8_9allocatorISB_EEEERPKvRmRPKiSJ_
_ZN7android10conversion9unflattenEPNS_8hardware8graphics11bufferqueue4V1_022IGraphicBufferProducer16QueueBufferInputEPP13native_handleRPKvRmRPKiSE_
_ZN7android10conversion9unflattenEPNS_8hardware8graphics11bufferqueue4V1_022IGraphicBufferProducer17FenceTimeSnapshotEPP13native_handleRPKvRmRPKiSE_
_ZN7android10conversion9unflattenEPNS_8hardware8graphics11bufferqueue4V1_022IGraphicBufferProducer22FrameEventHistoryDeltaEPNSt3__16vectorINS9_IP13native_handleNS8_9allocatorISB_EEEENSC_ISE_EEEERPKvRmRPKiSL_
_ZN7android10conversion9unflattenEPNS_8hardware8hidl_vecINS1_5media4V1_04RectEEERPKvRm
_ZN7android12FrameDropper10shouldDropEl
_ZN7android12FrameDropper15setMaxFrameRateEf
_ZN7android12FrameDropperC1Ev
_ZN7android12FrameDropperC2Ev
_ZN7android12FrameDropperD0Ev
_ZN7android12FrameDropperD1Ev
_ZN7android12FrameDropperD2Ev
_ZN7android18LWProducerListener16onBufferReleasedEv
_ZN7android18LWProducerListener18needsReleaseNotifyEv
_ZN7android18LWProducerListenerC1ERKNS_2spINS_8hardware8graphics11bufferqueue4V1_017IProducerListenerEEE
_ZN7android18LWProducerListenerC2ERKNS_2spINS_8hardware8graphics11bufferqueue4V1_017IProducerListenerEEE
_ZN7android18TWProducerListener16onBufferReleasedEv
_ZN7android18TWProducerListener18needsReleaseNotifyEv
_ZN7android18TWProducerListenerC1ERKNS_2spINS_17IProducerListenerEEE
_ZN7android18TWProducerListenerC2ERKNS_2spINS_17IProducerListenerEEE
_ZN7android19GraphicBufferSource10setSuspendEbl
_ZN7android19GraphicBufferSource13setStopTimeUsEl
_ZN7android19GraphicBufferSource14setStartTimeUsEl
_ZN7android19GraphicBufferSource14submitBuffer_lERKNS0_11VideoBufferE
_ZN7android19GraphicBufferSource15acquireBuffer_lEPNS0_11VideoBufferE
_ZN7android19GraphicBufferSource15setColorAspectsEi
_ZN7android19GraphicBufferSource15setTimeOffsetUsEl
_ZN7android19GraphicBufferSource16onFrameAvailableERKNS_10BufferItemE
_ZN7android19GraphicBufferSource17fillCodecBuffer_lEv
_ZN7android19GraphicBufferSource17onBuffersReleasedEv
_ZN7android19GraphicBufferSource17onMessageReceivedERKNS_2spINS_8AMessageEEE
_ZN7android19GraphicBufferSource17setLatestBuffer_lERKNS0_11VideoBufferE
_ZN7android19GraphicBufferSource18onBufferAcquired_lERKNS0_11VideoBufferE
_ZN7android19GraphicBufferSource18onInputBufferAddedEi
_ZN7android19GraphicBufferSource18queueFrameRepeat_lEv
_ZN7android19GraphicBufferSource18setTimeLapseConfigEdd
_ZN7android19GraphicBufferSource19getStopTimeOffsetUsEPl
_ZN7android19GraphicBufferSource20onDataspaceChanged_lE19android_dataspace_t22android_pixel_format_t
_ZN7android19GraphicBufferSource20onInputBufferEmptiedEii
_ZN7android19GraphicBufferSource20repeatLatestBuffer_lEv
_ZN7android19GraphicBufferSource21discardBufferInSlot_lEi
_ZN7android19GraphicBufferSource22signalEndOfInputStreamEv
_ZN7android19GraphicBufferSource23onSidebandStreamChangedEv
_ZN7android19GraphicBufferSource24submitEndOfInputStream_lEv
_ZN7android19GraphicBufferSource25calculateCodecTimestamp_lElPl
_ZN7android19GraphicBufferSource26discardBufferAtSlotIndex_lEl
_ZN7android19GraphicBufferSource28releaseAllAvailableBuffers_lEv
_ZN7android19GraphicBufferSource29setRepeatPreviousFrameDelayUsEl
_ZN7android19GraphicBufferSource33areWeDiscardingAvailableBuffers_lEv
_ZN7android19GraphicBufferSource4stopEv
_ZN7android19GraphicBufferSource5startEv
_ZN7android19GraphicBufferSource7releaseEv
_ZN7android19GraphicBufferSource9configureERKNS_2spINS_16ComponentWrapperEEEiijjj
_ZN7android19GraphicBufferSource9setMaxFpsEf
_ZN7android19GraphicBufferSourceC1Ev
_ZN7android19GraphicBufferSourceC2Ev
_ZN7android19GraphicBufferSourceD0Ev
_ZN7android19GraphicBufferSourceD1Ev
_ZN7android19GraphicBufferSourceD2Ev
_ZTCN7android18LWProducerListenerE0_NS_11BnInterfaceINS_17IProducerListenerEEE
_ZTCN7android18LWProducerListenerE0_NS_16ProducerListenerE
_ZTCN7android18LWProducerListenerE0_NS_17IProducerListenerE
_ZTCN7android18LWProducerListenerE0_NS_18BnProducerListenerE
_ZTCN7android18LWProducerListenerE16_NS_7BBinderE
_ZTCN7android18LWProducerListenerE16_NS_7IBinderE
_ZTCN7android18LWProducerListenerE8_NS_10IInterfaceE
_ZTCN7android18TWProducerListenerE0_NS_4hidl4base4V1_05IBaseE
_ZTCN7android18TWProducerListenerE0_NS_8hardware8graphics11bufferqueue4V1_017IProducerListenerE
_ZTCN7android19GraphicBufferSourceE0_NS_16ConsumerListenerE
_ZTTN7android18LWProducerListenerE
_ZTTN7android18TWProducerListenerE
_ZTTN7android19GraphicBufferSourceE
_ZTVN7android12FrameDropperE
_ZTVN7android18LWProducerListenerE
_ZTVN7android18TWProducerListenerE
_ZTVN7android19GraphicBufferSourceE
_ZTv0_n24_N7android19GraphicBufferSourceD0Ev
_ZTv0_n24_N7android19GraphicBufferSourceD1Ev
