_ZN9keymaster12GetOsVersionEPKc
_ZN9keymaster12GetOsVersionEv
_ZN9keymaster15ConfigureDeviceEP17keymaster2_device
_ZN9keymaster15ConfigureDeviceEP17keymaster2_devicejj
_ZN9keymaster15GetOsPatchlevelEPKc
_ZN9keymaster15GetOsPatchlevelEv
_ZN9keymaster16Keymaster0Engine10ecdsa_signEPKhmPhPjP9ec_key_st
_ZN9keymaster16Keymaster0Engine11keyblob_dupEP17crypto_ex_data_stPKS1_PPvilS5_
_ZN9keymaster16Keymaster0Engine12keyblob_freeEPvS1_P17crypto_ex_data_stilS1_
_ZN9keymaster16Keymaster0Engine21rsa_private_transformEP6rsa_stPhPKhm
_ZN9keymaster16Keymaster0Engine9instance_E
_ZN9keymaster16Keymaster0EngineC1EPK17keymaster0_device
_ZN9keymaster16Keymaster0EngineC2EPK17keymaster0_device
_ZN9keymaster16Keymaster0EngineD1Ev
_ZN9keymaster16Keymaster0EngineD2Ev
_ZN9keymaster16Keymaster1Engine10ecdsa_signEPKhmPhPjP9ec_key_st
_ZN9keymaster16Keymaster1Engine11rsa_decryptEP6rsa_stPmPhmPKhmi
_ZN9keymaster16Keymaster1Engine12rsa_sign_rawEP6rsa_stPmPhmPKhmi
_ZN9keymaster16Keymaster1Engine13free_key_dataEPvS1_P17crypto_ex_data_stilS1_
_ZN9keymaster16Keymaster1Engine14BuildRsaMethodEv
_ZN9keymaster16Keymaster1Engine16BuildEcdsaMethodEv
_ZN9keymaster16Keymaster1Engine16Keymaster1FinishEPKNS0_7KeyDataERK16keymaster_blob_tPS4_
_ZN9keymaster16Keymaster1Engine18duplicate_key_dataEP17crypto_ex_data_stPKS1_PPvilS5_
_ZN9keymaster16Keymaster1Engine9instance_E
_ZN9keymaster16Keymaster1EngineC1EPK17keymaster1_device
_ZN9keymaster16Keymaster1EngineC2EPK17keymaster1_device
_ZN9keymaster16Keymaster1EngineD1Ev
_ZN9keymaster16Keymaster1EngineD2Ev
_ZN9keymaster17getAttestationKeyE21keymaster_algorithm_tP17keymaster_error_t
_ZN9keymaster19SoftKeymasterDevice10attest_keyEPK17keymaster2_devicePK20keymaster_key_blob_tPK25keymaster_key_param_set_tP22keymaster_cert_chain_t
_ZN9keymaster19SoftKeymasterDevice10delete_keyEPK17keymaster1_devicePK20keymaster_key_blob_t
_ZN9keymaster19SoftKeymasterDevice10delete_keyEPK17keymaster2_devicePK20keymaster_key_blob_t
_ZN9keymaster19SoftKeymasterDevice10export_keyEPK17keymaster1_device22keymaster_key_format_tPK20keymaster_key_blob_tPK16keymaster_blob_tSA_PS8_
_ZN9keymaster19SoftKeymasterDevice10export_keyEPK17keymaster2_device22keymaster_key_format_tPK20keymaster_key_blob_tPK16keymaster_blob_tSA_PS8_
_ZN9keymaster19SoftKeymasterDevice10import_keyEPK17keymaster1_devicePK25keymaster_key_param_set_t22keymaster_key_format_tPK16keymaster_blob_tP20keymaster_key_blob_tPP31keymaster_key_characteristics_t
_ZN9keymaster19SoftKeymasterDevice10import_keyEPK17keymaster2_devicePK25keymaster_key_param_set_t22keymaster_key_format_tPK16keymaster_blob_tP20keymaster_key_blob_tP31keymaster_key_characteristics_t
_ZN9keymaster19SoftKeymasterDevice11upgrade_keyEPK17keymaster2_devicePK20keymaster_key_blob_tPK25keymaster_key_param_set_tPS4_
_ZN9keymaster19SoftKeymasterDevice12close_deviceEP11hw_device_t
_ZN9keymaster19SoftKeymasterDevice12generate_keyEPK17keymaster1_devicePK25keymaster_key_param_set_tP20keymaster_key_blob_tPP31keymaster_key_characteristics_t
_ZN9keymaster19SoftKeymasterDevice12generate_keyEPK17keymaster2_devicePK25keymaster_key_param_set_tP20keymaster_key_blob_tP31keymaster_key_characteristics_t
_ZN9keymaster19SoftKeymasterDevice15add_rng_entropyEPK17keymaster1_devicePKhm
_ZN9keymaster19SoftKeymasterDevice15add_rng_entropyEPK17keymaster2_devicePKhm
_ZN9keymaster19SoftKeymasterDevice15delete_all_keysEPK17keymaster1_device
_ZN9keymaster19SoftKeymasterDevice15delete_all_keysEPK17keymaster2_device
_ZN9keymaster19SoftKeymasterDevice16keymaster_deviceEv
_ZN9keymaster19SoftKeymasterDevice17SetHardwareDeviceEP17keymaster0_device
_ZN9keymaster19SoftKeymasterDevice17SetHardwareDeviceEP17keymaster1_device
_ZN9keymaster19SoftKeymasterDevice17keymaster2_deviceEv
_ZN9keymaster19SoftKeymasterDevice21get_supported_digestsEPK17keymaster1_device21keymaster_algorithm_t19keymaster_purpose_tPP18keymaster_digest_tPm
_ZN9keymaster19SoftKeymasterDevice22Keymaster1DeviceIsGoodEv
_ZN9keymaster19SoftKeymasterDevice23get_key_characteristicsEPK17keymaster1_devicePK20keymaster_key_blob_tPK16keymaster_blob_tS9_PP31keymaster_key_characteristics_t
_ZN9keymaster19SoftKeymasterDevice23get_key_characteristicsEPK17keymaster2_devicePK20keymaster_key_blob_tPK16keymaster_blob_tS9_P31keymaster_key_characteristics_t
_ZN9keymaster19SoftKeymasterDevice24StoreDefaultNewKeyParamsE21keymaster_algorithm_tPNS_16AuthorizationSetE
_ZN9keymaster19SoftKeymasterDevice24get_supported_algorithmsEPK17keymaster1_devicePP21keymaster_algorithm_tPm
_ZN9keymaster19SoftKeymasterDevice24initialize_device_structEj
_ZN9keymaster19SoftKeymasterDevice25get_supported_block_modesEPK17keymaster1_device21keymaster_algorithm_t19keymaster_purpose_tPP22keymaster_block_mode_tPm
_ZN9keymaster19SoftKeymasterDevice27get_supported_padding_modesEPK17keymaster1_device21keymaster_algorithm_t19keymaster_purpose_tPP19keymaster_padding_tPm
_ZN9keymaster19SoftKeymasterDevice28get_supported_export_formatsEPK17keymaster1_device21keymaster_algorithm_tPP22keymaster_key_format_tPm
_ZN9keymaster19SoftKeymasterDevice28get_supported_import_formatsEPK17keymaster1_device21keymaster_algorithm_tPP22keymaster_key_format_tPm
_ZN9keymaster19SoftKeymasterDevice5abortEPK17keymaster1_devicem
_ZN9keymaster19SoftKeymasterDevice5abortEPK17keymaster2_devicem
_ZN9keymaster19SoftKeymasterDevice5beginEPK17keymaster1_device19keymaster_purpose_tPK20keymaster_key_blob_tPK25keymaster_key_param_set_tPS8_Pm
_ZN9keymaster19SoftKeymasterDevice5beginEPK17keymaster2_device19keymaster_purpose_tPK20keymaster_key_blob_tPK25keymaster_key_param_set_tPS8_Pm
_ZN9keymaster19SoftKeymasterDevice6finishEPK17keymaster1_devicemPK25keymaster_key_param_set_tPK16keymaster_blob_tPS4_PS7_
_ZN9keymaster19SoftKeymasterDevice6finishEPK17keymaster2_devicemPK25keymaster_key_param_set_tPK16keymaster_blob_tS9_PS4_PS7_
_ZN9keymaster19SoftKeymasterDevice6updateEPK17keymaster1_devicemPK25keymaster_key_param_set_tPK16keymaster_blob_tPmPS4_PS7_
_ZN9keymaster19SoftKeymasterDevice6updateEPK17keymaster2_devicemPK25keymaster_key_param_set_tPK16keymaster_blob_tPmPS4_PS7_
_ZN9keymaster19SoftKeymasterDevice9configureEPK17keymaster2_devicePK25keymaster_key_param_set_t
_ZN9keymaster19SoftKeymasterDevice9hw_deviceEv
_ZN9keymaster19SoftKeymasterDeviceC1EPNS_20SoftKeymasterContextE
_ZN9keymaster19SoftKeymasterDeviceC1Ev
_ZN9keymaster19SoftKeymasterDeviceC2EPNS_20SoftKeymasterContextE
_ZN9keymaster19SoftKeymasterDeviceC2Ev
_ZN9keymaster19getAttestationChainE21keymaster_algorithm_tP17keymaster_error_t
_ZN9keymaster20SoftKeymasterContext16SetSystemVersionEjj
_ZN9keymaster20SoftKeymasterContext17SetHardwareDeviceEP17keymaster0_device
_ZN9keymaster20SoftKeymasterContext17SetHardwareDeviceEP17keymaster1_device
_ZN9keymaster20SoftKeymasterContextC1ERKNSt3__112basic_stringIcNS1_11char_traitsIcEENS1_9allocatorIcEEEE
_ZN9keymaster20SoftKeymasterContextC2ERKNSt3__112basic_stringIcNS1_11char_traitsIcEENS1_9allocatorIcEEEE
_ZN9keymaster20SoftKeymasterContextD0Ev
_ZN9keymaster20SoftKeymasterContextD1Ev
_ZN9keymaster20SoftKeymasterContextD2Ev
_ZN9keymaster20generate_attestationERKNS_13AsymmetricKeyERKNS_16AuthorizationSetERK22keymaster_cert_chain_tRK20keymaster_key_blob_tRKNS_24AttestationRecordContextEPNS_9UniquePtrIS6_NS_22CertificateChainDeleteEEE
_ZN9keymaster23Keymaster1LegacySupportC1EPK17keymaster1_device
_ZN9keymaster23Keymaster1LegacySupportC2EPK17keymaster1_device
_ZN9keymaster23RsaKeymaster0KeyFactoryC1EPKNS_20SoftwareKeyBlobMakerEPKNS_16Keymaster0EngineE
_ZN9keymaster23RsaKeymaster0KeyFactoryC2EPKNS_20SoftwareKeyBlobMakerEPKNS_16Keymaster0EngineE
_ZN9keymaster23RsaKeymaster1KeyFactoryC1EPKNS_20SoftwareKeyBlobMakerEPKNS_16Keymaster1EngineE
_ZN9keymaster23RsaKeymaster1KeyFactoryC2EPKNS_20SoftwareKeyBlobMakerEPKNS_16Keymaster1EngineE
_ZN9keymaster24PureSoftKeymasterContext16SetSystemVersionEjj
_ZN9keymaster24PureSoftKeymasterContextC1Ev
_ZN9keymaster24PureSoftKeymasterContextC2Ev
_ZN9keymaster24PureSoftKeymasterContextD0Ev
_ZN9keymaster24PureSoftKeymasterContextD1Ev
_ZN9keymaster24PureSoftKeymasterContextD2Ev
_ZN9keymaster24SoftKeymasterEnforcement17ComputeSharedHmacERKNS_26HmacSharingParametersArrayEPNS_14TKeymasterBlobI16keymaster_blob_tEE
_ZN9keymaster24SoftKeymasterEnforcement19VerifyAuthorizationERKNS_26VerifyAuthorizationRequestE
_ZN9keymaster24SoftKeymasterEnforcement24GetHmacSharingParametersEPNS_21HmacSharingParametersE
_ZN9keymaster25EcdsaKeymaster0KeyFactoryC1EPKNS_20SoftwareKeyBlobMakerEPKNS_16Keymaster0EngineE
_ZN9keymaster25EcdsaKeymaster0KeyFactoryC2EPKNS_20SoftwareKeyBlobMakerEPKNS_16Keymaster0EngineE
_ZN9keymaster25EcdsaKeymaster1KeyFactoryC1EPKNS_20SoftwareKeyBlobMakerEPKNS_16Keymaster1EngineE
_ZN9keymaster25EcdsaKeymaster1KeyFactoryC2EPKNS_20SoftwareKeyBlobMakerEPKNS_16Keymaster1EngineE
_ZN9keymaster29RsaKeymaster1OperationFactory15CreateOperationEONS_3KeyERKNS_16AuthorizationSetEP17keymaster_error_t
_ZN9keymaster29RsaKeymaster1WrappedOperation13PrepareFinishEP11evp_pkey_stRKNS_16AuthorizationSetE
_ZN9keymaster29RsaKeymaster1WrappedOperation5AbortEv
_ZN9keymaster29RsaKeymaster1WrappedOperation5BeginEP11evp_pkey_stRKNS_16AuthorizationSetE
_ZN9keymaster29RsaKeymaster1WrappedOperation8GetErrorEP11evp_pkey_st
_ZN9keymaster31EcdsaKeymaster1OperationFactory15CreateOperationEONS_3KeyERKNS_16AuthorizationSetEP17keymaster_error_t
_ZN9keymaster31EcdsaKeymaster1WrappedOperation13PrepareFinishEP11evp_pkey_stRKNS_16AuthorizationSetE
_ZN9keymaster31EcdsaKeymaster1WrappedOperation5AbortEv
_ZN9keymaster31EcdsaKeymaster1WrappedOperation5BeginEP11evp_pkey_stRKNS_16AuthorizationSetE
_ZN9keymaster31EcdsaKeymaster1WrappedOperation8GetErrorEP11evp_pkey_st
_ZNK9keymaster16Keymaster0Engine11BlobToEcKeyERKNS_14TKeymasterBlobI20keymaster_key_blob_tEE
_ZNK9keymaster16Keymaster0Engine11EcKeyToBlobEPK9ec_key_st
_ZNK9keymaster16Keymaster0Engine12BlobToRsaKeyERKNS_14TKeymasterBlobI20keymaster_key_blob_tEE
_ZNK9keymaster16Keymaster0Engine12RsaKeyToBlobEPK6rsa_st
_ZNK9keymaster16Keymaster0Engine13DeleteAllKeysEv
_ZNK9keymaster16Keymaster0Engine13GenerateEcKeyEjPNS_14TKeymasterBlobI20keymaster_key_blob_tEE
_ZNK9keymaster16Keymaster0Engine14GenerateRsaKeyEmjPNS_14TKeymasterBlobI20keymaster_key_blob_tEE
_ZNK9keymaster16Keymaster0Engine14Keymaster0SignEPKvRK20keymaster_key_blob_tPKhmPNSt3__110unique_ptrIA_hNS0_13Malloc_DeleteEEEPm
_ZNK9keymaster16Keymaster0Engine19RsaPrivateTransformEP6rsa_stPhPKhm
_ZNK9keymaster16Keymaster0Engine22GetKeymaster0PublicKeyERKNS_14TKeymasterBlobI20keymaster_key_blob_tEE
_ZNK9keymaster16Keymaster0Engine9DeleteKeyERKNS_14TKeymasterBlobI20keymaster_key_blob_tEE
_ZNK9keymaster16Keymaster0Engine9EcdsaSignEPKhmPhPjP9ec_key_st
_ZNK9keymaster16Keymaster0Engine9ImportKeyE22keymaster_key_format_tRKNS_14TKeymasterBlobI20keymaster_key_blob_tEEPS4_
_ZNK9keymaster16Keymaster1Engine10BuildEcKeyERKNS_14TKeymasterBlobI20keymaster_key_blob_tEERKNS_16AuthorizationSetEP17keymaster_error_t
_ZNK9keymaster16Keymaster1Engine11BuildRsaKeyERKNS_14TKeymasterBlobI20keymaster_key_blob_tEERKNS_16AuthorizationSetEP17keymaster_error_t
_ZNK9keymaster16Keymaster1Engine11GenerateKeyERKNS_16AuthorizationSetEPNS_14TKeymasterBlobI20keymaster_key_blob_tEEPS1_S8_
_ZNK9keymaster16Keymaster1Engine13DeleteAllKeysEv
_ZNK9keymaster16Keymaster1Engine22GetKeymaster1PublicKeyERKNS_14TKeymasterBlobI20keymaster_key_blob_tEERKNS_16AuthorizationSetEP17keymaster_error_t
_ZNK9keymaster16Keymaster1Engine7GetDataEP11evp_pkey_st
_ZNK9keymaster16Keymaster1Engine7GetDataEPK6rsa_st
_ZNK9keymaster16Keymaster1Engine7GetDataEPK9ec_key_st
_ZNK9keymaster16Keymaster1Engine9DeleteKeyERKNS_14TKeymasterBlobI20keymaster_key_blob_tEE
_ZNK9keymaster16Keymaster1Engine9ImportKeyERKNS_16AuthorizationSetE22keymaster_key_format_tRKNS_14TKeymasterBlobI20keymaster_key_blob_tEEPS7_PS1_SB_
_ZNK9keymaster19SoftKeymasterDevice21FindUnsupportedDigestE21keymaster_algorithm_t19keymaster_purpose_tRKNS_16AuthorizationSetEP18keymaster_digest_t
_ZNK9keymaster19SoftKeymasterDevice25RequiresSoftwareDigestingE21keymaster_algorithm_t19keymaster_purpose_tRKNS_16AuthorizationSetE
_ZNK9keymaster19SoftKeymasterDevice28KeyRequiresSoftwareDigestingERKNS_16AuthorizationSetE
_ZNK9keymaster19SoftKeymasterLogger7log_msgENS_6Logger8LogLevelEPKcP13__va_list_tag
_ZNK9keymaster20SoftKeymasterContext12ParseKeyBlobERKNS_14TKeymasterBlobI20keymaster_key_blob_tEERKNS_16AuthorizationSetEPNS_9UniquePtrINS_3KeyENS_13DefaultDeleteISA_EEEE
_ZNK9keymaster20SoftKeymasterContext13AddRngEntropyEPKhm
_ZNK9keymaster20SoftKeymasterContext13CreateKeyBlobERKNS_16AuthorizationSetE22keymaster_key_origin_tRKNS_14TKeymasterBlobI20keymaster_key_blob_tEEPS7_PS1_SB_
_ZNK9keymaster20SoftKeymasterContext13DeleteAllKeysEv
_ZNK9keymaster20SoftKeymasterContext13GetKeyFactoryE21keymaster_algorithm_t
_ZNK9keymaster20SoftKeymasterContext14UpgradeKeyBlobERKNS_14TKeymasterBlobI20keymaster_key_blob_tEERKNS_16AuthorizationSetEPS3_
_ZNK9keymaster20SoftKeymasterContext16GetSystemVersionEPjS1_
_ZNK9keymaster20SoftKeymasterContext19GenerateAttestationERKNS_3KeyERKNS_16AuthorizationSetEPNS_9UniquePtrI22keymaster_cert_chain_tNS_22CertificateChainDeleteEEE
_ZNK9keymaster20SoftKeymasterContext19GetOperationFactoryE21keymaster_algorithm_t19keymaster_purpose_t
_ZNK9keymaster20SoftKeymasterContext21ParseKeymaster0HwBlobERKNS_14TKeymasterBlobI20keymaster_key_blob_tEEPS3_PNS_16AuthorizationSetES8_
_ZNK9keymaster20SoftKeymasterContext21ParseKeymaster1HwBlobERKNS_14TKeymasterBlobI20keymaster_key_blob_tEERKNS_16AuthorizationSetEPS3_PS6_SA_
_ZNK9keymaster20SoftKeymasterContext22GetSupportedAlgorithmsEPm
_ZNK9keymaster20SoftKeymasterContext9DeleteKeyERKNS_14TKeymasterBlobI20keymaster_key_blob_tEE
_ZNK9keymaster20SoftKeymasterContext9UnwrapKeyERKNS_14TKeymasterBlobI20keymaster_key_blob_tEES5_RKNS_16AuthorizationSetES5_PS6_P22keymaster_key_format_tPS3_
_ZNK9keymaster23Keymaster1LegacySupport25RequiresSoftwareDigestingERKNS_16AuthorizationSetE
_ZNK9keymaster23Keymaster1LegacySupport25RequiresSoftwareDigestingERKNS_9AuthProxyE
_ZNK9keymaster23RsaKeymaster0KeyFactory11GenerateKeyERKNS_16AuthorizationSetEPNS_14TKeymasterBlobI20keymaster_key_blob_tEEPS1_S8_
_ZNK9keymaster23RsaKeymaster0KeyFactory7LoadKeyEONS_14TKeymasterBlobI20keymaster_key_blob_tEERKNS_16AuthorizationSetEOS5_S8_PNS_9UniquePtrINS_3KeyENS_13DefaultDeleteISA_EEEE
_ZNK9keymaster23RsaKeymaster0KeyFactory9ImportKeyERKNS_16AuthorizationSetE22keymaster_key_format_tRKNS_14TKeymasterBlobI20keymaster_key_blob_tEEPS7_PS1_SB_
_ZNK9keymaster23RsaKeymaster1KeyFactory11GenerateKeyERKNS_16AuthorizationSetEPNS_14TKeymasterBlobI20keymaster_key_blob_tEEPS1_S8_
_ZNK9keymaster23RsaKeymaster1KeyFactory19GetOperationFactoryE19keymaster_purpose_t
_ZNK9keymaster23RsaKeymaster1KeyFactory7LoadKeyEONS_14TKeymasterBlobI20keymaster_key_blob_tEERKNS_16AuthorizationSetEOS5_S8_PNS_9UniquePtrINS_3KeyENS_13DefaultDeleteISA_EEEE
_ZNK9keymaster23RsaKeymaster1KeyFactory9ImportKeyERKNS_16AuthorizationSetE22keymaster_key_format_tRKNS_14TKeymasterBlobI20keymaster_key_blob_tEEPS7_PS1_SB_
_ZNK9keymaster24PureSoftKeymasterContext12ParseKeyBlobERKNS_14TKeymasterBlobI20keymaster_key_blob_tEERKNS_16AuthorizationSetEPNS_9UniquePtrINS_3KeyENS_13DefaultDeleteISA_EEEE
_ZNK9keymaster24PureSoftKeymasterContext13AddRngEntropyEPKhm
_ZNK9keymaster24PureSoftKeymasterContext13CreateKeyBlobERKNS_16AuthorizationSetE22keymaster_key_origin_tRKNS_14TKeymasterBlobI20keymaster_key_blob_tEEPS7_PS1_SB_
_ZNK9keymaster24PureSoftKeymasterContext13DeleteAllKeysEv
_ZNK9keymaster24PureSoftKeymasterContext13GetKeyFactoryE21keymaster_algorithm_t
_ZNK9keymaster24PureSoftKeymasterContext14UpgradeKeyBlobERKNS_14TKeymasterBlobI20keymaster_key_blob_tEERKNS_16AuthorizationSetEPS3_
_ZNK9keymaster24PureSoftKeymasterContext16GetSystemVersionEPjS1_
_ZNK9keymaster24PureSoftKeymasterContext19GenerateAttestationERKNS_3KeyERKNS_16AuthorizationSetEPNS_9UniquePtrI22keymaster_cert_chain_tNS_22CertificateChainDeleteEEE
_ZNK9keymaster24PureSoftKeymasterContext19GetOperationFactoryE21keymaster_algorithm_t19keymaster_purpose_t
_ZNK9keymaster24PureSoftKeymasterContext22GetSupportedAlgorithmsEPm
_ZNK9keymaster24PureSoftKeymasterContext9DeleteKeyERKNS_14TKeymasterBlobI20keymaster_key_blob_tEE
_ZNK9keymaster24PureSoftKeymasterContext9UnwrapKeyERKNS_14TKeymasterBlobI20keymaster_key_blob_tEES5_RKNS_16AuthorizationSetES5_PS6_P22keymaster_key_format_tPS3_
_ZNK9keymaster24SoftKeymasterEnforcement11CreateKeyIdERK20keymaster_key_blob_tPm
_ZNK9keymaster24SoftKeymasterEnforcement19get_current_time_msEv
_ZNK9keymaster25EcdsaKeymaster0KeyFactory11GenerateKeyERKNS_16AuthorizationSetEPNS_14TKeymasterBlobI20keymaster_key_blob_tEEPS1_S8_
_ZNK9keymaster25EcdsaKeymaster0KeyFactory7LoadKeyEONS_14TKeymasterBlobI20keymaster_key_blob_tEERKNS_16AuthorizationSetEOS5_S8_PNS_9UniquePtrINS_3KeyENS_13DefaultDeleteISA_EEEE
_ZNK9keymaster25EcdsaKeymaster0KeyFactory9ImportKeyERKNS_16AuthorizationSetE22keymaster_key_format_tRKNS_14TKeymasterBlobI20keymaster_key_blob_tEEPS7_PS1_SB_
_ZNK9keymaster25EcdsaKeymaster1KeyFactory11GenerateKeyERKNS_16AuthorizationSetEPNS_14TKeymasterBlobI20keymaster_key_blob_tEEPS1_S8_
_ZNK9keymaster25EcdsaKeymaster1KeyFactory19GetOperationFactoryE19keymaster_purpose_t
_ZNK9keymaster25EcdsaKeymaster1KeyFactory7LoadKeyEONS_14TKeymasterBlobI20keymaster_key_blob_tEERKNS_16AuthorizationSetEOS5_S8_PNS_9UniquePtrINS_3KeyENS_13DefaultDeleteISA_EEEE
_ZNK9keymaster25EcdsaKeymaster1KeyFactory9ImportKeyERKNS_16AuthorizationSetE22keymaster_key_format_tRKNS_14TKeymasterBlobI20keymaster_key_blob_tEEPS7_PS1_SB_
_ZNK9keymaster28Keymaster1ArbitrationFactoryINS_23RsaKeymaster1KeyFactoryEE7LoadKeyEONS_14TKeymasterBlobI20keymaster_key_blob_tEERKNS_16AuthorizationSetEOS7_SA_PNS_9UniquePtrINS_3KeyENS_13DefaultDeleteISC_EEEE
_ZNK9keymaster28Keymaster1ArbitrationFactoryINS_25EcdsaKeymaster1KeyFactoryEE11GenerateKeyERKNS_16AuthorizationSetEPNS_14TKeymasterBlobI20keymaster_key_blob_tEEPS3_SA_
_ZNK9keymaster28Keymaster1ArbitrationFactoryINS_25EcdsaKeymaster1KeyFactoryEE7LoadKeyEONS_14TKeymasterBlobI20keymaster_key_blob_tEERKNS_16AuthorizationSetEOS7_SA_PNS_9UniquePtrINS_3KeyENS_13DefaultDeleteISC_EEEE
_ZNK9keymaster29RsaKeymaster1OperationFactory16SupportedDigestsEPm
_ZNK9keymaster29RsaKeymaster1OperationFactory21SupportedPaddingModesEPm
_ZNK9keymaster31EcdsaKeymaster1OperationFactory16SupportedDigestsEPm
_ZNK9keymaster31EcdsaKeymaster1OperationFactory21SupportedPaddingModesEPm
_ZTVN9keymaster19SoftKeymasterLoggerE
_ZTVN9keymaster20SoftKeymasterContextE
_ZTVN9keymaster23RsaKeymaster0KeyFactoryE
_ZTVN9keymaster23RsaKeymaster1KeyFactoryE
_ZTVN9keymaster24PureSoftKeymasterContextE
_ZTVN9keymaster24SoftKeymasterEnforcementE
_ZTVN9keymaster25EcdsaKeymaster0KeyFactoryE
_ZTVN9keymaster25EcdsaKeymaster1KeyFactoryE
_ZTVN9keymaster29RsaKeymaster1OperationFactoryE
_ZTVN9keymaster31EcdsaKeymaster1OperationFactoryE
_ZThn16_N9keymaster20SoftKeymasterContextD0Ev
_ZThn16_N9keymaster20SoftKeymasterContextD1Ev
_ZThn16_N9keymaster24PureSoftKeymasterContextD0Ev
_ZThn16_N9keymaster24PureSoftKeymasterContextD1Ev
_ZThn24_N9keymaster20SoftKeymasterContextD0Ev
_ZThn24_N9keymaster20SoftKeymasterContextD1Ev
_ZThn24_N9keymaster24PureSoftKeymasterContextD0Ev
_ZThn24_N9keymaster24PureSoftKeymasterContextD1Ev
_ZThn8_N9keymaster20SoftKeymasterContextD0Ev
_ZThn8_N9keymaster20SoftKeymasterContextD1Ev
_ZThn8_N9keymaster24PureSoftKeymasterContextD0Ev
_ZThn8_N9keymaster24PureSoftKeymasterContextD1Ev
_ZThn8_NK9keymaster20SoftKeymasterContext13CreateKeyBlobERKNS_16AuthorizationSetE22keymaster_key_origin_tRKNS_14TKeymasterBlobI20keymaster_key_blob_tEEPS7_PS1_SB_
_ZThn8_NK9keymaster24PureSoftKeymasterContext13CreateKeyBlobERKNS_16AuthorizationSetE22keymaster_key_origin_tRKNS_14TKeymasterBlobI20keymaster_key_blob_tEEPS7_PS1_SB_
soft_keymaster1_device_module
soft_keymaster2_device_module
