_ZN7android10ABitReader13fillReservoirEv
_ZN7android10ABitReader15getBitsGracefulEmPj
_ZN7android10ABitReader19getBitsWithFallbackEmj
_ZN7android10ABitReader7getBitsEm
_ZN7android10ABitReader7putBitsEjm
_ZN7android10ABitReader8skipBitsEm
_ZN7android10ABitReaderC1EPKhm
_ZN7android10ABitReaderC2EPKhm
_ZN7android10ABitReaderD0Ev
_ZN7android10ABitReaderD1Ev
_ZN7android10ABitReaderD2Ev
_ZN7android10ColorUtils15copyColorConfigERKNS_2spINS_8AMessageEEERS3_
_ZN7android10ColorUtils20convertDataSpaceToV0ER19android_dataspace_t
_ZN7android10ColorUtils20unpackToColorAspectsEj
_ZN7android10ColorUtils24getColorConfigFromFormatERKNS_2spINS_8AMessageEEEPiS6_S6_
_ZN7android10ColorUtils25getColorAspectsFromFormatERKNS_2spINS_8AMessageEEERNS_12ColorAspectsE
_ZN7android10ColorUtils25setColorAspectsIntoFormatERKNS_12ColorAspectsERNS_2spINS_8AMessageEEEb
_ZN7android10ColorUtils26getHDRStaticInfoFromFormatERKNS_2spINS_8AMessageEEEPNS_13HDRStaticInfoE
_ZN7android10ColorUtils26setHDRStaticInfoIntoFormatERKNS_13HDRStaticInfoERNS_2spINS_8AMessageEEE
_ZN7android10ColorUtils27getDataSpaceForColorAspectsERNS_12ColorAspectsEb
_ZN7android10ColorUtils30wrapColorAspectsIntoColorRangeENS_12ColorAspects5RangeE
_ZN7android10ColorUtils32unwrapColorAspectsFromColorRangeEiPNS_12ColorAspects5RangeE
_ZN7android10ColorUtils33wrapColorAspectsIntoColorStandardENS_12ColorAspects9PrimariesENS1_12MatrixCoeffsE
_ZN7android10ColorUtils33wrapColorAspectsIntoColorTransferENS_12ColorAspects8TransferE
_ZN7android10ColorUtils35setDefaultCodecColorAspectsIfNeededERNS_12ColorAspectsEii
_ZN7android10ColorUtils35unwrapColorAspectsFromColorStandardEiPNS_12ColorAspects9PrimariesEPNS1_12MatrixCoeffsE
_ZN7android10ColorUtils35unwrapColorAspectsFromColorTransferEiPNS_12ColorAspects8TransferE
_ZN7android10ColorUtils36convertCodecColorAspectsToIsoAspectsERKNS_12ColorAspectsEPiS4_S4_Pb
_ZN7android10ColorUtils36convertIsoColorAspectsToCodecAspectsEiiibRNS_12ColorAspectsE
_ZN7android10ColorUtils37checkIfAspectsChangedAndUnspecifyThemERNS_12ColorAspectsERKS1_b
_ZN7android10ColorUtils41convertCodecColorAspectsToPlatformAspectsERKNS_12ColorAspectsEPiS4_S4_
_ZN7android10ColorUtils41convertPlatformColorAspectsToCodecAspectsEiiiRNS_12ColorAspectsE
_ZN7android10ColorUtils9packToU32ERKNS_12ColorAspectsE
_ZN7android11AReplyToken8setReplyERKNS_2spINS_8AMessageEEE
_ZN7android12AStringUtils11MatchesGlobEPKcmS2_mb
_ZN7android12AStringUtils7CompareEPKcS2_mb
_ZN7android12NALBitReader13fillReservoirEv
_ZN7android12NALBitReaderC1EPKhm
_ZN7android12NALBitReaderC2EPKhm
_ZN7android12decodeBase64ERKNS_7AStringE
_ZN7android12encodeBase64EPKvmPNS_7AStringE
_ZN7android13ALooperRoster15registerHandlerERKNS_2spINS_7ALooperEEERKNS1_INS_8AHandlerEEE
_ZN7android13ALooperRoster17unregisterHandlerEi
_ZN7android13ALooperRoster23unregisterStaleHandlersEv
_ZN7android13ALooperRoster4dumpEiRKNS_6VectorINS_8String16EEE
_ZN7android13ALooperRosterC1Ev
_ZN7android13ALooperRosterC2Ev
_ZN7android13AStringPrintfEPKcz
_ZN7android13ParsedMessage12GetAttributeEPKcS2_PNS_7AStringE
_ZN7android13ParsedMessage17GetInt32AttributeEPKcS2_Pi
_ZN7android13ParsedMessage5ParseEPKcmbPm
_ZN7android13ParsedMessage5parseEPKcmb
_ZN7android13ParsedMessageC1Ev
_ZN7android13ParsedMessageC2Ev
_ZN7android13ParsedMessageD0Ev
_ZN7android13ParsedMessageD1Ev
_ZN7android13ParsedMessageD2Ev
_ZN7android13gLooperRosterE
_ZN7android14FindAVCLayerIdEPKhm
_ZN7android14getNextNALUnitEPPKhPmS2_S3_b
_ZN7android15ANetworkSession10threadLoopEv
_ZN7android15ANetworkSession11sendRequestEiPKvlbl
_ZN7android15ANetworkSession13NetworkThread10threadLoopEv
_ZN7android15ANetworkSession13NetworkThreadC1EPS0_
_ZN7android15ANetworkSession13NetworkThreadC2EPS0_
_ZN7android15ANetworkSession13NetworkThreadD0Ev
_ZN7android15ANetworkSession13NetworkThreadD1Ev
_ZN7android15ANetworkSession13NetworkThreadD2Ev
_ZN7android15ANetworkSession14destroySessionEi
_ZN7android15ANetworkSession16createRTSPClientEPKcjRKNS_2spINS_8AMessageEEEPi
_ZN7android15ANetworkSession16createRTSPServerERK7in_addrjRKNS_2spINS_8AMessageEEEPi
_ZN7android15ANetworkSession16createUDPSessionEjPKcjRKNS_2spINS_8AMessageEEEPi
_ZN7android15ANetworkSession16createUDPSessionEjRKNS_2spINS_8AMessageEEEPi
_ZN7android15ANetworkSession17connectUDPSessionEiPKcj
_ZN7android15ANetworkSession20createClientOrServerENS0_4ModeEPK7in_addrjPKcjRKNS_2spINS_8AMessageEEEPi
_ZN7android15ANetworkSession21MakeSocketNonBlockingEi
_ZN7android15ANetworkSession21switchToWebSocketModeEi
_ZN7android15ANetworkSession24createTCPDatagramSessionERK7in_addrjRKNS_2spINS_8AMessageEEEPi
_ZN7android15ANetworkSession24createTCPDatagramSessionEjPKcjRKNS_2spINS_8AMessageEEEPi
_ZN7android15ANetworkSession4stopEv
_ZN7android15ANetworkSession5startEv
_ZN7android15ANetworkSession7Session11notifyErrorEbiPKc
_ZN7android15ANetworkSession7Session11sendRequestEPKvlbl
_ZN7android15ANetworkSession7Session11wantsToReadEv
_ZN7android15ANetworkSession7Session12wantsToWriteEv
_ZN7android15ANetworkSession7Session17dumpFragmentStatsERKNS1_8FragmentE
_ZN7android15ANetworkSession7Session21switchToWebSocketModeEv
_ZN7android15ANetworkSession7Session6notifyENS0_18NotificationReasonE
_ZN7android15ANetworkSession7Session7setModeENS1_4ModeE
_ZN7android15ANetworkSession7Session8readMoreEv
_ZN7android15ANetworkSession7Session9writeMoreEv
_ZN7android15ANetworkSession7SessionC1EiNS1_5StateEiRKNS_2spINS_8AMessageEEE
_ZN7android15ANetworkSession7SessionC2EiNS1_5StateEiRKNS_2spINS_8AMessageEEE
_ZN7android15ANetworkSession7SessionD0Ev
_ZN7android15ANetworkSession7SessionD1Ev
_ZN7android15ANetworkSession7SessionD2Ev
_ZN7android15ANetworkSession9interruptEv
_ZN7android15ANetworkSessionC1Ev
_ZN7android15ANetworkSessionC2Ev
_ZN7android15ANetworkSessionD0Ev
_ZN7android15ANetworkSessionD1Ev
_ZN7android15ANetworkSessionD2Ev
_ZN7android15encodeBase64UrlEPKvmPNS_7AStringE
_ZN7android16MakeFourCCStringEjPc
_ZN7android17FindAVCDimensionsERKNS_2spINS_7ABufferEEEPiS5_S5_S5_
_ZN7android18AVCProfileToStringEh
_ZN7android19IsAVCReferenceFrameERKNS_2spINS_7ABufferEEE
_ZN7android19parseSEWithFallbackEPNS_10ABitReaderEi
_ZN7android19parseUEWithFallbackEPNS_10ABitReaderEj
_ZN7android21GetMPEGAudioFrameSizeEjPmPiS1_S1_S1_
_ZN7android23MEDIA_MIMETYPE_TEXT_VTTE
_ZN7android24MEDIA_MIMETYPE_AUDIO_AACE
_ZN7android24MEDIA_MIMETYPE_AUDIO_AC3E
_ZN7android24MEDIA_MIMETYPE_AUDIO_RAWE
_ZN7android24MEDIA_MIMETYPE_TEXT_3GPPE
_ZN7android24MEDIA_MIMETYPE_VIDEO_AVCE
_ZN7android24MEDIA_MIMETYPE_VIDEO_RAWE
_ZN7android24MEDIA_MIMETYPE_VIDEO_VP8E
_ZN7android24MEDIA_MIMETYPE_VIDEO_VP9E
_ZN7android24MakeAVCCodecSpecificDataERKNS_2spINS_7ABufferEEEPiS5_S5_S5_
_ZN7android24kATSParserKeyMediaTimeUsE
_ZN7android24kATSParserKeyResumeAtPTSE
_ZN7android25AHierarchicalStateMachine11changeStateERKNS_2spINS_6AStateEEE
_ZN7android25AHierarchicalStateMachine13handleMessageERKNS_2spINS_8AMessageEEE
_ZN7android25AHierarchicalStateMachineC1Ev
_ZN7android25AHierarchicalStateMachineC2Ev
_ZN7android25AHierarchicalStateMachineD0Ev
_ZN7android25AHierarchicalStateMachineD1Ev
_ZN7android25AHierarchicalStateMachineD2Ev
_ZN7android25MEDIA_MIMETYPE_AUDIO_EAC3E
_ZN7android25MEDIA_MIMETYPE_AUDIO_FLACE
_ZN7android25MEDIA_MIMETYPE_AUDIO_MIDIE
_ZN7android25MEDIA_MIMETYPE_AUDIO_MPEGE
_ZN7android25MEDIA_MIMETYPE_AUDIO_OPUSE
_ZN7android25MEDIA_MIMETYPE_IMAGE_JPEGE
_ZN7android25MEDIA_MIMETYPE_VIDEO_H263E
_ZN7android25MEDIA_MIMETYPE_VIDEO_HEVCE
_ZN7android26MEDIA_MIMETYPE_AUDIO_MSGSME
_ZN7android26MEDIA_MIMETYPE_AUDIO_QCELPE
_ZN7android26MEDIA_MIMETYPE_TEXT_SUBRIPE
_ZN7android26MEDIA_MIMETYPE_VIDEO_MPEG2E
_ZN7android26MEDIA_MIMETYPE_VIDEO_MPEG4E
_ZN7android27MEDIA_MIMETYPE_AUDIO_AMR_NBE
_ZN7android27MEDIA_MIMETYPE_AUDIO_AMR_WBE
_ZN7android27MEDIA_MIMETYPE_AUDIO_VORBISE
_ZN7android27MEDIA_MIMETYPE_TEXT_CEA_608E
_ZN7android27MEDIA_MIMETYPE_TEXT_CEA_708E
_ZN7android28MEDIA_MIMETYPE_CONTAINER_AVIE
_ZN7android28MEDIA_MIMETYPE_CONTAINER_OGGE
_ZN7android28MEDIA_MIMETYPE_CONTAINER_WAVE
_ZN7android29MEDIA_MIMETYPE_AUDIO_AAC_ADTSE
_ZN7android29MEDIA_MIMETYPE_CONTAINER_HEIFE
_ZN7android29MEDIA_MIMETYPE_DATA_TIMED_ID3E
_ZN7android30ExtractDimensionsFromVOLHeaderEPKhmPiS2_
_ZN7android30MEDIA_MIMETYPE_AUDIO_G711_ALAWE
_ZN7android30MEDIA_MIMETYPE_AUDIO_G711_MLAWE
_ZN7android30MEDIA_MIMETYPE_AUDIO_SCRAMBLEDE
_ZN7android30MEDIA_MIMETYPE_CONTAINER_MPEG4E
_ZN7android30MEDIA_MIMETYPE_VIDEO_SCRAMBLEDE
_ZN7android30kATSParserKeyRecentMediaTimeUsE
_ZN7android32MEDIA_MIMETYPE_CONTAINER_MPEG2PSE
_ZN7android32MEDIA_MIMETYPE_CONTAINER_MPEG2TSE
_ZN7android33MEDIA_MIMETYPE_AUDIO_MPEG_LAYER_IE
_ZN7android33MEDIA_MIMETYPE_CONTAINER_MATROSKAE
_ZN7android33MEDIA_MIMETYPE_IMAGE_ANDROID_HEICE
_ZN7android33MEDIA_MIMETYPE_VIDEO_DOLBY_VISIONE
_ZN7android34MEDIA_MIMETYPE_AUDIO_MPEG_LAYER_IIE
_ZN7android36kIStreamListenerKeyDiscontinuityMaskE
_ZN7android5IsIDREPKhm
_ZN7android6ADebug12GetDebugNameEPKc
_ZN7android6ADebug17getExperimentFlagEbPKcmmmm
_ZN7android6ADebug20GetLevelFromPropertyEPKcS2_l
_ZN7android6ADebug25GetDebugLevelFromPropertyEPKcS2_NS0_5LevelE
_ZN7android6ADebug26GetLevelFromSettingsStringEPKcS2_l
_ZN7android6AState11parentStateEv
_ZN7android6AState11stateExitedEv
_ZN7android6AState12stateEnteredEv
_ZN7android6AStateC2ERKNS_2spIS0_EE
_ZN7android6AStateD0Ev
_ZN7android6AStateD1Ev
_ZN7android6AStateD2Ev
_ZN7android6U16_ATEPKh
_ZN7android6U32_ATEPKh
_ZN7android6U64_ATEPKh
_ZN7android6hton64Em
_ZN7android6ntoh64Em
_ZN7android7ABuffer12CreateAsCopyEPKvm
_ZN7android7ABuffer4metaEv
_ZN7android7ABuffer8setRangeEmm
_ZN7android7ABufferC1EPvm
_ZN7android7ABufferC1Em
_ZN7android7ABufferC2EPvm
_ZN7android7ABufferC2Em
_ZN7android7ABufferD0Ev
_ZN7android7ABufferD1Ev
_ZN7android7ABufferD2Ev
_ZN7android7ALooper13awaitResponseERKNS_2spINS_11AReplyTokenEEEPNS1_INS_8AMessageEEE
_ZN7android7ALooper15registerHandlerERKNS_2spINS_8AHandlerEEE
_ZN7android7ALooper16createReplyTokenEv
_ZN7android7ALooper17unregisterHandlerEi
_ZN7android7ALooper4loopEv
_ZN7android7ALooper4postERKNS_2spINS_8AMessageEEEl
_ZN7android7ALooper4stopEv
_ZN7android7ALooper5startEbbi
_ZN7android7ALooper7setNameEPKc
_ZN7android7ALooper8GetNowUsEv
_ZN7android7ALooper9postReplyERKNS_2spINS_11AReplyTokenEEERKNS1_INS_8AMessageEEE
_ZN7android7ALooperC1Ev
_ZN7android7ALooperC2Ev
_ZN7android7ALooperD0Ev
_ZN7android7ALooperD1Ev
_ZN7android7ALooperD2Ev
_ZN7android7AString10FromParcelERKNS_6ParcelE
_ZN7android7AString11makeMutableEv
_ZN7android7AString12kEmptyStringE
_ZN7android7AString4trimEv
_ZN7android7AString5clearEv
_ZN7android7AString5eraseEmm
_ZN7android7AString5setToEPKc
_ZN7android7AString5setToEPKcm
_ZN7android7AString5setToERKS0_mm
_ZN7android7AString6appendEPKc
_ZN7android7AString6appendEPKcm
_ZN7android7AString6appendEPv
_ZN7android7AString6appendERKS0_
_ZN7android7AString6appendERKS0_mm
_ZN7android7AString6appendEd
_ZN7android7AString6appendEf
_ZN7android7AString6appendEi
_ZN7android7AString6appendEj
_ZN7android7AString6appendEl
_ZN7android7AString6appendEm
_ZN7android7AString6appendEx
_ZN7android7AString6appendEy
_ZN7android7AString6insertEPKcmm
_ZN7android7AString6insertERKS0_m
_ZN7android7AString7tolowerEv
_ZN7android7AStringC1EPKc
_ZN7android7AStringC1EPKcm
_ZN7android7AStringC1ERKNS_7String8E
_ZN7android7AStringC1ERKS0_
_ZN7android7AStringC1ERKS0_mm
_ZN7android7AStringC1Ev
_ZN7android7AStringC2EPKc
_ZN7android7AStringC2EPKcm
_ZN7android7AStringC2ERKNS_7String8E
_ZN7android7AStringC2ERKS0_
_ZN7android7AStringC2ERKS0_mm
_ZN7android7AStringC2Ev
_ZN7android7AStringD1Ev
_ZN7android7AStringD2Ev
_ZN7android7AStringaSERKS0_
_ZN7android7hexdumpEPKvmmPNS_7AStringE
_ZN7android7parseSEEPNS_10ABitReaderE
_ZN7android7parseUEEPNS_10ABitReaderE
_ZN7android8AHandler14deliverMessageERKNS_2spINS_8AMessageEEE
_ZN7android8AMessage10FromParcelERKNS_6ParcelEm
_ZN7android8AMessage10setEntryAtEmRKNS_5ADataIJilmfdNS0_4RectENS_7AStringEPvNS_2spIS0_EENS5_INS_7ABufferEEENS5_INS_7RefBaseEEEEE6CustomINSB_7flaggerIjEEEE
_ZN7android8AMessage10setMessageEPKcRKNS_2spIS0_EE
_ZN7android8AMessage10setPointerEPKcPv
_ZN7android8AMessage12allocateItemEPKc
_ZN7android8AMessage13freeItemValueEPNS0_4ItemE
_ZN7android8AMessage13removeEntryAtEm
_ZN7android8AMessage14setEntryNameAtEmPKc
_ZN7android8AMessage17setObjectInternalEPKcRKNS_2spINS_7RefBaseEEENS0_4TypeE
_ZN7android8AMessage20postAndAwaitResponseEPNS_2spIS0_EE
_ZN7android8AMessage20senderAwaitsResponseEPNS_2spINS_11AReplyTokenEEE
_ZN7android8AMessage4Item7setNameEPKcm
_ZN7android8AMessage4postEl
_ZN7android8AMessage5clearEv
_ZN7android8AMessage6extendERKNS_2spIS0_EE
_ZN7android8AMessage7deliverEv
_ZN7android8AMessage7setItemEPKcRKNS_5ADataIJilmfdNS0_4RectENS_7AStringEPvNS_2spIS0_EENS7_INS_7ABufferEEENS7_INS_7RefBaseEEEEE6CustomINSD_7flaggerIjEEEE
_ZN7android8AMessage7setRectEPKciiii
_ZN7android8AMessage7setSizeEPKcm
_ZN7android8AMessage7setWhatEj
_ZN7android8AMessage8setFloatEPKcf
_ZN7android8AMessage8setInt32EPKci
_ZN7android8AMessage8setInt64EPKcl
_ZN7android8AMessage9postReplyERKNS_2spINS_11AReplyTokenEEE
_ZN7android8AMessage9setBufferEPKcRKNS_2spINS_7ABufferEEE
_ZN7android8AMessage9setDoubleEPKcd
_ZN7android8AMessage9setObjectEPKcRKNS_2spINS_7RefBaseEEE
_ZN7android8AMessage9setStringEPKcRKNS_7AStringE
_ZN7android8AMessage9setStringEPKcS2_l
_ZN7android8AMessage9setTargetERKNS_2spIKNS_8AHandlerEEE
_ZN7android8AMessageC1EjRKNS_2spIKNS_8AHandlerEEE
_ZN7android8AMessageC1Ev
_ZN7android8AMessageC2EjRKNS_2spIKNS_8AHandlerEEE
_ZN7android8AMessageC2Ev
_ZN7android8AMessageD0Ev
_ZN7android8AMessageD1Ev
_ZN7android8AMessageD2Ev
_ZN7android8U16LE_ATEPKh
_ZN7android8U32LE_ATEPKh
_ZN7android8U64LE_ATEPKh
_ZN7android9AAtomizer4HashEPKc
_ZN7android9AAtomizer7AtomizeEPKc
_ZN7android9AAtomizer7atomizeEPKc
_ZN7android9AAtomizer9gAtomizerE
_ZN7android9AAtomizerC1Ev
_ZN7android9AAtomizerC2Ev
_ZNK7android10ABitReader11numBitsLeftEv
_ZNK7android10ABitReader4dataEv
_ZNK7android12NALBitReader18atLeastNumBitsLeftEm
_ZNK7android13ParsedMessage10findStringEPKcPNS_7AStringE
_ZNK7android13ParsedMessage10getContentEv
_ZNK7android13ParsedMessage11debugStringEv
_ZNK7android13ParsedMessage13getStatusCodeEPi
_ZNK7android13ParsedMessage15getRequestFieldEmPNS_7AStringE
_ZNK7android13ParsedMessage9findInt32EPKcPi
_ZNK7android15ANetworkSession7Session12isRTSPServerEv
_ZNK7android15ANetworkSession7Session19isTCPDatagramServerEv
_ZNK7android15ANetworkSession7Session22getNotificationMessageEv
_ZNK7android15ANetworkSession7Session6socketEv
_ZNK7android15ANetworkSession7Session9sessionIDEv
_ZNK7android7AString10startsWithEPKc
_ZNK7android7AString13writeToParcelEPNS_6ParcelE
_ZNK7android7AString16equalsIgnoreCaseERKS0_
_ZNK7android7AString17compareIgnoreCaseERKS0_
_ZNK7android7AString18endsWithIgnoreCaseEPKc
_ZNK7android7AString20startsWithIgnoreCaseEPKc
_ZNK7android7AString4findEPKcm
_ZNK7android7AString4hashEv
_ZNK7android7AString4sizeEv
_ZNK7android7AString5c_strEv
_ZNK7android7AString5emptyEv
_ZNK7android7AString7compareERKS0_
_ZNK7android7AString8endsWithEPKc
_ZNK7android7AStringeqERKS0_
_ZNK7android7AStringgtERKS0_
_ZNK7android7AStringltERKS0_
_ZNK7android8AMessage10findBufferEPKcPNS_2spINS_7ABufferEEE
_ZNK7android8AMessage10findDoubleEPKcPd
_ZNK7android8AMessage10findObjectEPKcPNS_2spINS_7RefBaseEEE
_ZNK7android8AMessage10findStringEPKcPNS_7AStringE
_ZNK7android8AMessage10getEntryAtEm
_ZNK7android8AMessage11changesFromERKNS_2spIKS0_EEb
_ZNK7android8AMessage11debugStringEi
_ZNK7android8AMessage11findAsFloatEPKcPf
_ZNK7android8AMessage11findAsInt64EPKcPl
_ZNK7android8AMessage11findMessageEPKcPNS_2spIS0_EE
_ZNK7android8AMessage11findPointerEPKcPPv
_ZNK7android8AMessage12countEntriesEv
_ZNK7android8AMessage13writeToParcelEPNS_6ParcelE
_ZNK7android8AMessage14getEntryNameAtEmPNS0_4TypeE
_ZNK7android8AMessage15findEntryByNameEPKc
_ZNK7android8AMessage3dupEv
_ZNK7android8AMessage4whatEv
_ZNK7android8AMessage8containsEPKc
_ZNK7android8AMessage8findItemEPKc
_ZNK7android8AMessage8findItemEPKcNS0_4TypeE
_ZNK7android8AMessage8findRectEPKcPiS3_S3_S3_
_ZNK7android8AMessage8findSizeEPKcPm
_ZNK7android8AMessage9findFloatEPKcPf
_ZNK7android8AMessage9findInt32EPKcPi
_ZNK7android8AMessage9findInt64EPKcPl
_ZTCN7android15ANetworkSession13NetworkThreadE0_NS_6ThreadE
_ZTTN7android15ANetworkSession13NetworkThreadE
_ZTVN7android10ABitReaderE
_ZTVN7android12NALBitReaderE
_ZTVN7android13ParsedMessageE
_ZTVN7android15ANetworkSession13NetworkThreadE
_ZTVN7android15ANetworkSession7SessionE
_ZTVN7android15ANetworkSessionE
_ZTVN7android25AHierarchicalStateMachineE
_ZTVN7android6AStateE
_ZTVN7android7ABufferE
_ZTVN7android7ALooperE
_ZTVN7android8AMessageE
_ZTv0_n24_N7android15ANetworkSession13NetworkThreadD0Ev
_ZTv0_n24_N7android15ANetworkSession13NetworkThreadD1Ev
