_Z11decodeRange19android_dataspace_t
_Z14decodeStandard19android_dataspace_t
_Z14decodeTransfer19android_dataspace_t
_Z15decodeColorModeN7android8hardware8graphics6common4V1_19ColorModeE
_Z16dataspaceDetails19android_dataspace_t
_Z17decodePixelFormati
_Z18decodeRenderIntentN7android8hardware8graphics6common4V1_112RenderIntentE
_Z20decodeColorTransform25android_color_transform_t
_Z9to_stringRKN7android4RectE
_ZN7android10ColorSpace10linearSRGBEv
_ZN7android10ColorSpace11ProPhotoRGBEv
_ZN7android10ColorSpace12extendedSRGBEv
_ZN7android10ColorSpace18linearExtendedSRGBEv
_ZN7android10ColorSpace4ACESEv
_ZN7android10ColorSpace4NTSCEv
_ZN7android10ColorSpace4sRGBEv
_ZN7android10ColorSpace5BT709Ev
_ZN7android10ColorSpace5DCIP3Ev
_ZN7android10ColorSpace6ACEScgEv
_ZN7android10ColorSpace6BT2020Ev
_ZN7android10ColorSpace8AdobeRGBEv
_ZN7android10ColorSpace9DisplayP3Ev
_ZN7android10ColorSpace9createLUTEjRKS0_S2_
_ZN7android10ColorSpaceC1ERKNSt3__112basic_stringIcNS1_11char_traitsIcEENS1_9allocatorIcEEEERKNS1_5arrayINS_7details5TVec2IfEELm3EEERKSD_NS0_18TransferParametersENS1_8functionIFffEEE
_ZN7android10ColorSpaceC1ERKNSt3__112basic_stringIcNS1_11char_traitsIcEENS1_9allocatorIcEEEERKNS1_5arrayINS_7details5TVec2IfEELm3EEERKSD_NS1_8functionIFffEEESL_SL_
_ZN7android10ColorSpaceC1ERKNSt3__112basic_stringIcNS1_11char_traitsIcEENS1_9allocatorIcEEEERKNS1_5arrayINS_7details5TVec2IfEELm3EEERKSD_fNS1_8functionIFffEEE
_ZN7android10ColorSpaceC1ERKNSt3__112basic_stringIcNS1_11char_traitsIcEENS1_9allocatorIcEEEERKNS_7details6TMat33IfEENS0_18TransferParametersENS1_8functionIFffEEE
_ZN7android10ColorSpaceC1ERKNSt3__112basic_stringIcNS1_11char_traitsIcEENS1_9allocatorIcEEEERKNS_7details6TMat33IfEENS1_8functionIFffEEESH_SH_
_ZN7android10ColorSpaceC1ERKNSt3__112basic_stringIcNS1_11char_traitsIcEENS1_9allocatorIcEEEERKNS_7details6TMat33IfEEfNS1_8functionIFffEEE
_ZN7android10ColorSpaceC2ERKNSt3__112basic_stringIcNS1_11char_traitsIcEENS1_9allocatorIcEEEERKNS1_5arrayINS_7details5TVec2IfEELm3EEERKSD_NS0_18TransferParametersENS1_8functionIFffEEE
_ZN7android10ColorSpaceC2ERKNSt3__112basic_stringIcNS1_11char_traitsIcEENS1_9allocatorIcEEEERKNS1_5arrayINS_7details5TVec2IfEELm3EEERKSD_NS1_8functionIFffEEESL_SL_
_ZN7android10ColorSpaceC2ERKNSt3__112basic_stringIcNS1_11char_traitsIcEENS1_9allocatorIcEEEERKNS1_5arrayINS_7details5TVec2IfEELm3EEERKSD_fNS1_8functionIFffEEE
_ZN7android10ColorSpaceC2ERKNSt3__112basic_stringIcNS1_11char_traitsIcEENS1_9allocatorIcEEEERKNS_7details6TMat33IfEENS0_18TransferParametersENS1_8functionIFffEEE
_ZN7android10ColorSpaceC2ERKNSt3__112basic_stringIcNS1_11char_traitsIcEENS1_9allocatorIcEEEERKNS_7details6TMat33IfEENS1_8functionIFffEEESH_SH_
_ZN7android10ColorSpaceC2ERKNSt3__112basic_stringIcNS1_11char_traitsIcEENS1_9allocatorIcEEEERKNS_7details6TMat33IfEEfNS1_8functionIFffEEE
_ZN7android10FrameStats9unflattenEPKvm
_ZN7android12bitsPerPixelEi
_ZN7android13FenceTimeline17updateSignalTimesEv
_ZN7android13FenceTimeline4pushERKNSt3__110shared_ptrINS_9FenceTimeEEE
_ZN7android13GraphicBuffer10reallocateEjjijm
_ZN7android13GraphicBuffer11free_handleEv
_ZN7android13GraphicBuffer11unlockAsyncEPi
_ZN7android13GraphicBuffer12initWithSizeEjjijmNSt3__112basic_stringIcNS1_11char_traitsIcEENS1_9allocatorIcEEEE
_ZN7android13GraphicBuffer14initWithHandleEPK13native_handleNS0_16HandleWrapMethodEjjijmj
_ZN7android13GraphicBuffer14lockAsyncYCbCrEjP13android_ycbcri
_ZN7android13GraphicBuffer14lockAsyncYCbCrEjRKNS_4RectEP13android_ycbcri
_ZN7android13GraphicBuffer17needsReallocationEjjijm
_ZN7android13GraphicBuffer23setDetachedBufferHandleENSt3__110unique_ptrINS_20DetachedBufferHandleENS1_14default_deleteIS3_EEEE
_ZN7android13GraphicBuffer24takeDetachedBufferHandleEv
_ZN7android13GraphicBuffer26dumpAllocationsToSystemLogEv
_ZN7android13GraphicBuffer4fromEP19ANativeWindowBuffer
_ZN7android13GraphicBuffer4lockEjPPv
_ZN7android13GraphicBuffer4lockEjRKNS_4RectEPPv
_ZN7android13GraphicBuffer6unlockEv
_ZN7android13GraphicBuffer9lockAsyncEjPPvi
_ZN7android13GraphicBuffer9lockAsyncEjRKNS_4RectEPPvi
_ZN7android13GraphicBuffer9lockAsyncEmmRKNS_4RectEPPvi
_ZN7android13GraphicBuffer9lockYCbCrEjP13android_ycbcr
_ZN7android13GraphicBuffer9lockYCbCrEjRKNS_4RectEP13android_ycbcr
_ZN7android13GraphicBuffer9unflattenERPKvRmRPKiS4_
_ZN7android13GraphicBufferC1EPK13native_handleNS0_16HandleWrapMethodEjjijmj
_ZN7android13GraphicBufferC1EjjijNSt3__112basic_stringIcNS1_11char_traitsIcEENS1_9allocatorIcEEEE
_ZN7android13GraphicBufferC1EjjijjjP13native_handleb
_ZN7android13GraphicBufferC1EjjijmNSt3__112basic_stringIcNS1_11char_traitsIcEENS1_9allocatorIcEEEE
_ZN7android13GraphicBufferC1Ev
_ZN7android13GraphicBufferC2EPK13native_handleNS0_16HandleWrapMethodEjjijmj
_ZN7android13GraphicBufferC2EjjijNSt3__112basic_stringIcNS1_11char_traitsIcEENS1_9allocatorIcEEEE
_ZN7android13GraphicBufferC2EjjijjjP13native_handleb
_ZN7android13GraphicBufferC2EjjijmNSt3__112basic_stringIcNS1_11char_traitsIcEENS1_9allocatorIcEEEE
_ZN7android13GraphicBufferC2Ev
_ZN7android13GraphicBufferD0Ev
_ZN7android13GraphicBufferD1Ev
_ZN7android13GraphicBufferD2Ev
_ZN7android13bytesPerPixelEi
_ZN7android15HdrCapabilities9unflattenEPKvm
_ZN7android15HdrCapabilitiesC1EOS0_
_ZN7android15HdrCapabilitiesC2EOS0_
_ZN7android15HdrCapabilitiesD1Ev
_ZN7android15HdrCapabilitiesD2Ev
_ZN7android15HdrCapabilitiesaSEOS0_
_ZN7android19ColorSpaceConnectorC1ERKNS_10ColorSpaceES3_
_ZN7android19ColorSpaceConnectorC2ERKNS_10ColorSpaceES3_
_ZN7android19FenceToFenceTimeMap16signalAllForTestERKNS_2spINS_5FenceEEEl
_ZN7android19FenceToFenceTimeMap20garbageCollectLockedEv
_ZN7android19FenceToFenceTimeMap22createFenceTimeForTestERKNS_2spINS_5FenceEEE
_ZN7android19GraphicBufferMapper10freeBufferEPK13native_handle
_ZN7android19GraphicBufferMapper10preloadHalEv
_ZN7android19GraphicBufferMapper11unlockAsyncEPK13native_handlePi
_ZN7android19GraphicBufferMapper12importBufferEPK13native_handlejjjimjPS3_
_ZN7android19GraphicBufferMapper14lockAsyncYCbCrEPK13native_handlejRKNS_4RectEP13android_ycbcri
_ZN7android19GraphicBufferMapper16getTransportSizeEPK13native_handlePjS4_
_ZN7android19GraphicBufferMapper4lockEPK13native_handlejRKNS_4RectEPPv
_ZN7android19GraphicBufferMapper6unlockEPK13native_handle
_ZN7android19GraphicBufferMapper9lockAsyncEPK13native_handlejRKNS_4RectEPPvi
_ZN7android19GraphicBufferMapper9lockAsyncEPK13native_handlemmRKNS_4RectEPPvi
_ZN7android19GraphicBufferMapper9lockYCbCrEPK13native_handlejRKNS_4RectEP13android_ycbcr
_ZN7android19GraphicBufferMapperC1Ev
_ZN7android19GraphicBufferMapperC2Ev
_ZN7android20appendUiConfigStringERNS_7String8E
_ZN7android22GraphicBufferAllocator10sAllocListE
_ZN7android22GraphicBufferAllocator15dumpToSystemLogEv
_ZN7android22GraphicBufferAllocator4freeEPK13native_handle
_ZN7android22GraphicBufferAllocator5sLockE
_ZN7android22GraphicBufferAllocator8allocateEjjijmPPK13native_handlePjmNSt3__112basic_stringIcNS6_11char_traitsIcEENS6_9allocatorIcEEEE
_ZN7android22GraphicBufferAllocatorC1Ev
_ZN7android22GraphicBufferAllocatorC2Ev
_ZN7android22GraphicBufferAllocatorD1Ev
_ZN7android22GraphicBufferAllocatorD2Ev
_ZN7android4Rect10EMPTY_RECTE
_ZN7android4Rect11makeInvalidEv
_ZN7android4Rect12INVALID_RECTE
_ZN7android4Rect8offsetByEii
_ZN7android4Rect8offsetToEii
_ZN7android5Fence11waitForeverEPKc
_ZN7android5Fence4waitEi
_ZN7android5Fence5mergeEPKcRKNS_2spIS0_EES6_
_ZN7android5Fence5mergeERKNS_7String8ERKNS_2spIS0_EES7_
_ZN7android5Fence8NO_FENCEE
_ZN7android5Fence9unflattenERPKvRmRPKiS4_
_ZN7android5FenceC1ENS_4base14unique_fd_implINS1_13DefaultCloserEEE
_ZN7android5FenceC1Ei
_ZN7android5FenceC2ENS_4base14unique_fd_implINS1_13DefaultCloserEEE
_ZN7android5FenceC2Ei
_ZN7android6Region10rasterizer9flushSpanEv
_ZN7android6Region10rasterizerD0Ev
_ZN7android6Region10rasterizerD1Ev
_ZN7android6Region10rasterizerD2Ev
_ZN7android6Region10rasterizerclERKNS_4RectE
_ZN7android6Region12subtractSelfERKNS_4RectE
_ZN7android6Region12subtractSelfERKS0_
_ZN7android6Region12subtractSelfERKS0_ii
_ZN7android6Region13operationSelfERKNS_4RectEj
_ZN7android6Region13operationSelfERKS0_iij
_ZN7android6Region13operationSelfERKS0_j
_ZN7android6Region13translateSelfEii
_ZN7android6Region14INVALID_REGIONE
_ZN7android6Region14makeBoundsSelfEv
_ZN7android6Region16addRectUncheckedEiiii
_ZN7android6Region17boolean_operationEjRS0_RKS0_RKNS_4RectE
_ZN7android6Region17boolean_operationEjRS0_RKS0_RKNS_4RectEii
_ZN7android6Region17boolean_operationEjRS0_RKS0_S3_
_ZN7android6Region17boolean_operationEjRS0_RKS0_S3_ii
_ZN7android6Region25createTJunctionFreeRegionERKS0_
_ZN7android6Region3setERKNS_4RectE
_ZN7android6Region3setEii
_ZN7android6Region3setEjj
_ZN7android6Region5clearEv
_ZN7android6Region6orSelfERKNS_4RectE
_ZN7android6Region6orSelfERKS0_
_ZN7android6Region6orSelfERKS0_ii
_ZN7android6Region7andSelfERKNS_4RectE
_ZN7android6Region7andSelfERKS0_
_ZN7android6Region7andSelfERKS0_ii
_ZN7android6Region7xorSelfERKNS_4RectE
_ZN7android6Region7xorSelfERKS0_
_ZN7android6Region7xorSelfERKS0_ii
_ZN7android6Region8validateERKS0_PKcb
_ZN7android6Region9translateERS0_RKS0_ii
_ZN7android6Region9translateERS0_ii
_ZN7android6Region9unflattenEPKvm
_ZN7android6RegionC1ERKNS_4RectE
_ZN7android6RegionC1ERKS0_
_ZN7android6RegionC1Ev
_ZN7android6RegionC2ERKNS_4RectE
_ZN7android6RegionC2ERKS0_
_ZN7android6RegionC2Ev
_ZN7android6RegionD1Ev
_ZN7android6RegionD2Ev
_ZN7android6RegionaSERKS0_
_ZN7android8Gralloc26Mapper7preloadEv
_ZN7android8Gralloc26MapperC1Ev
_ZN7android8Gralloc26MapperC2Ev
_ZN7android8Gralloc29AllocatorC1ERKNS0_6MapperE
_ZN7android8Gralloc29AllocatorC2ERKNS0_6MapperE
_ZN7android9FenceTime13getSignalTimeEv
_ZN7android9FenceTime13signalForTestEl
_ZN7android9FenceTime20applyTrustedSnapshotERKNS0_8SnapshotE
_ZN7android9FenceTime8NO_FENCEE
_ZN7android9FenceTime8Snapshot9unflattenERPKvRmRPKiS5_
_ZN7android9FenceTime8SnapshotC1ERKNS_2spINS_5FenceEEE
_ZN7android9FenceTime8SnapshotC1El
_ZN7android9FenceTime8SnapshotC2ERKNS_2spINS_5FenceEEE
_ZN7android9FenceTime8SnapshotC2El
_ZN7android9FenceTimeC1EONS_2spINS_5FenceEEE
_ZN7android9FenceTimeC1ERKNS_2spINS_5FenceEEE
_ZN7android9FenceTimeC1ERKNS_2spINS_5FenceEEEb
_ZN7android9FenceTimeC1El
_ZN7android9FenceTimeC2EONS_2spINS_5FenceEEE
_ZN7android9FenceTimeC2ERKNS_2spINS_5FenceEEE
_ZN7android9FenceTimeC2ERKNS_2spINS_5FenceEEEb
_ZN7android9FenceTimeC2El
_ZN7android9FenceTimedlEPv
_ZN7android9FenceTimenwEm
_ZN7android9SingletonINS_19GraphicBufferMapperEE5sLockE
_ZN7android9SingletonINS_19GraphicBufferMapperEE9sInstanceE
_ZN7android9SingletonINS_22GraphicBufferAllocatorEE5sLockE
_ZN7android9SingletonINS_22GraphicBufferAllocatorEE9sInstanceE
_ZNK7android10FrameStats11isFixedSizeEv
_ZNK7android10FrameStats16getFlattenedSizeEv
_ZNK7android10FrameStats7flattenEPvm
_ZNK7android13GraphicBuffer10getFdCountEv
_ZNK7android13GraphicBuffer15getNativeBufferEv
_ZNK7android13GraphicBuffer16getFlattenedSizeEv
_ZNK7android13GraphicBuffer16isDetachedBufferEv
_ZNK7android13GraphicBuffer7flattenERPvRmRPiS3_
_ZNK7android13GraphicBuffer9initCheckEv
_ZNK7android15HdrCapabilities16getFlattenedSizeEv
_ZNK7android15HdrCapabilities7flattenEPvm
_ZNK7android22GraphicBufferAllocator4dumpERNS_7String8E
_ZNK7android4Rect6reduceERKS0_
_ZNK7android4Rect9intersectERKS0_PS0_
_ZNK7android4Rect9transformEjii
_ZNK7android4RectltERKS0_
_ZNK7android4RectmiERKNS_5PointE
_ZNK7android4RectplERKNS_5PointE
_ZNK7android5Fence10getFdCountEv
_ZNK7android5Fence13getSignalTimeEv
_ZNK7android5Fence16getFlattenedSizeEv
_ZNK7android5Fence3dupEv
_ZNK7android5Fence7flattenERPvRmRPiS3_
_ZNK7android6Region14mergeExclusiveERKNS_4RectE
_ZNK7android6Region14mergeExclusiveERKS0_
_ZNK7android6Region14mergeExclusiveERKS0_ii
_ZNK7android6Region16getFlattenedSizeEv
_ZNK7android6Region16isTriviallyEqualERKS0_
_ZNK7android6Region3endEv
_ZNK7android6Region4dumpEPKcj
_ZNK7android6Region4dumpERNS_7String8EPKcj
_ZNK7android6Region5beginEv
_ZNK7android6Region5mergeERKNS_4RectE
_ZNK7android6Region5mergeERKS0_
_ZNK7android6Region5mergeERKS0_ii
_ZNK7android6Region7flattenEPvm
_ZNK7android6Region8containsERKNS_5PointE
_ZNK7android6Region8containsEii
_ZNK7android6Region8getArrayEPm
_ZNK7android6Region8subtractERKNS_4RectE
_ZNK7android6Region8subtractERKS0_
_ZNK7android6Region8subtractERKS0_ii
_ZNK7android6Region9intersectERKNS_4RectE
_ZNK7android6Region9intersectERKS0_
_ZNK7android6Region9intersectERKS0_ii
_ZNK7android6Region9operationERKNS_4RectEj
_ZNK7android6Region9operationERKS0_iij
_ZNK7android6Region9operationERKS0_j
_ZNK7android6Region9translateEii
_ZNK7android8Gralloc26Mapper10freeBufferEPK13native_handle
_ZNK7android8Gralloc26Mapper12importBufferERKNS_8hardware11hidl_handleEPPK13native_handle
_ZNK7android8Gralloc26Mapper16createDescriptorERKNS_8hardware8graphics6mapper4V2_17IMapper20BufferDescriptorInfoEPNS2_8hidl_vecIjEE
_ZNK7android8Gralloc26Mapper16getTransportSizeEPK13native_handlePjS5_
_ZNK7android8Gralloc26Mapper18validateBufferSizeEPK13native_handleRKNS_8hardware8graphics6mapper4V2_17IMapper20BufferDescriptorInfoEj
_ZNK7android8Gralloc26Mapper28validateBufferDescriptorInfoERKNS_8hardware8graphics6mapper4V2_17IMapper20BufferDescriptorInfoE
_ZNK7android8Gralloc26Mapper4lockEPK13native_handlemRKNS_8hardware8graphics6mapper4V2_07IMapper4RectEiPNS8_11YCbCrLayoutE
_ZNK7android8Gralloc26Mapper4lockEPK13native_handlemRKNS_8hardware8graphics6mapper4V2_07IMapper4RectEiPPv
_ZNK7android8Gralloc26Mapper6unlockEPK13native_handle
_ZNK7android8Gralloc29Allocator13dumpDebugInfoEv
_ZNK7android8Gralloc29Allocator8allocateENS_8hardware8hidl_vecIjEEjPjPPK13native_handle
_ZNK7android9FenceTime11getSnapshotEv
_ZNK7android9FenceTime19getCachedSignalTimeEv
_ZNK7android9FenceTime7isValidEv
_ZNK7android9FenceTime8Snapshot10getFdCountEv
_ZNK7android9FenceTime8Snapshot16getFlattenedSizeEv
_ZNK7android9FenceTime8Snapshot7flattenERPvRmRPiS4_
_ZTVN7android13GraphicBufferE
_ZTVN7android6Region10rasterizerE
android_convertGralloc0To1Usage
android_convertGralloc1To0Usage
