_ZN4vixl10CodeBuffer10EmitStringEPKc
_ZN4vixl10CodeBuffer10UpdateDataEmPKvm
_ZN4vixl10CodeBuffer15EmitZeroedBytesEi
_ZN4vixl10CodeBuffer4GrowEm
_ZN4vixl10CodeBuffer5AlignEv
_ZN4vixl10CodeBuffer5ResetEv
_ZN4vixl10CodeBuffer8EmitDataEPKvm
_ZN4vixl10CodeBufferC1EPhm
_ZN4vixl10CodeBufferC1Em
_ZN4vixl10CodeBufferC2EPhm
_ZN4vixl10CodeBufferC2Em
_ZN4vixl10CodeBufferD1Ev
_ZN4vixl10CodeBufferD2Ev
_ZN4vixl10DoublePackEmmm
_ZN4vixl10DoubleSignEd
_ZN4vixl13FloatMantissaEf
_ZN4vixl14DoubleMantissaEd
_ZN4vixl14FloatToRawbitsEf
_ZN4vixl14RawbitsToFloatEj
_ZN4vixl15DoubleToRawbitsEd
_ZN4vixl15Float16ClassifyEt
_ZN4vixl15RawbitsToDoubleEm
_ZN4vixl19CountClearHalfWordsEmj
_ZN4vixl20CountSetBitsFallBackEmi
_ZN4vixl25CountLeadingZerosFallBackEmi
_ZN4vixl26CountTrailingZerosFallBackEmi
_ZN4vixl28CountLeadingSignBitsFallBackEli
_ZN4vixl7aarch3210Dt_size_10C1ENS0_8DataTypeE
_ZN4vixl7aarch3210Dt_size_10C2ENS0_8DataTypeE
_ZN4vixl7aarch3210Dt_size_11C1ENS0_8DataTypeE
_ZN4vixl7aarch3210Dt_size_11C2ENS0_8DataTypeE
_ZN4vixl7aarch3210Dt_size_12C1ENS0_8DataTypeE
_ZN4vixl7aarch3210Dt_size_12C2ENS0_8DataTypeE
_ZN4vixl7aarch3210Dt_size_13C1ENS0_8DataTypeE
_ZN4vixl7aarch3210Dt_size_13C2ENS0_8DataTypeE
_ZN4vixl7aarch3210Dt_size_14C1ENS0_8DataTypeE
_ZN4vixl7aarch3210Dt_size_14C2ENS0_8DataTypeE
_ZN4vixl7aarch3210Dt_size_15C1ENS0_8DataTypeE
_ZN4vixl7aarch3210Dt_size_15C2ENS0_8DataTypeE
_ZN4vixl7aarch3210Dt_size_16C1ENS0_8DataTypeE
_ZN4vixl7aarch3210Dt_size_16C2ENS0_8DataTypeE
_ZN4vixl7aarch3210RawLiteral14EmitPoolObjectEPNS_23MacroAssemblerInterfaceE
_ZN4vixl7aarch3211Dt_F_size_1C1ENS0_8DataTypeE
_ZN4vixl7aarch3211Dt_F_size_1C2ENS0_8DataTypeE
_ZN4vixl7aarch3211Dt_F_size_2C1ENS0_8DataTypeE
_ZN4vixl7aarch3211Dt_F_size_2C2ENS0_8DataTypeE
_ZN4vixl7aarch3211Dt_F_size_3C1ENS0_8DataTypeE
_ZN4vixl7aarch3211Dt_F_size_3C2ENS0_8DataTypeE
_ZN4vixl7aarch3211Dt_F_size_4C1ENS0_8DataTypeE
_ZN4vixl7aarch3211Dt_F_size_4C2ENS0_8DataTypeE
_ZN4vixl7aarch3211Dt_L_imm6_1C1ENS0_8DataTypeE
_ZN4vixl7aarch3211Dt_L_imm6_1C2ENS0_8DataTypeE
_ZN4vixl7aarch3211Dt_L_imm6_2C1ENS0_8DataTypeE
_ZN4vixl7aarch3211Dt_L_imm6_2C2ENS0_8DataTypeE
_ZN4vixl7aarch3211Dt_L_imm6_3C1ENS0_8DataTypeE
_ZN4vixl7aarch3211Dt_L_imm6_3C2ENS0_8DataTypeE
_ZN4vixl7aarch3211Dt_L_imm6_4C1ENS0_8DataTypeE
_ZN4vixl7aarch3211Dt_L_imm6_4C2ENS0_8DataTypeE
_ZN4vixl7aarch3211Dt_U_size_1C1ENS0_8DataTypeE
_ZN4vixl7aarch3211Dt_U_size_1C2ENS0_8DataTypeE
_ZN4vixl7aarch3211Dt_U_size_2C1ENS0_8DataTypeE
_ZN4vixl7aarch3211Dt_U_size_2C2ENS0_8DataTypeE
_ZN4vixl7aarch3211Dt_U_size_3C1ENS0_8DataTypeE
_ZN4vixl7aarch3211Dt_U_size_3C2ENS0_8DataTypeE
_ZN4vixl7aarch3212Disassembler1bENS0_9ConditionENS0_12EncodingSizeEPNS1_8LocationE
_ZN4vixl7aarch3212Disassembler2blENS0_9ConditionEPNS1_8LocationE
_ZN4vixl7aarch3212Disassembler2bxENS0_9ConditionENS0_8RegisterE
_ZN4vixl7aarch3212Disassembler2itENS0_9ConditionEt
_ZN4vixl7aarch3212Disassembler3adcENS0_9ConditionENS0_12EncodingSizeENS0_8RegisterES4_RKNS0_7OperandE
_ZN4vixl7aarch3212Disassembler3addENS0_9ConditionENS0_12EncodingSizeENS0_8RegisterES4_RKNS0_7OperandE
_ZN4vixl7aarch3212Disassembler3addENS0_9ConditionENS0_8RegisterERKNS0_7OperandE
_ZN4vixl7aarch3212Disassembler3adrENS0_9ConditionENS0_12EncodingSizeENS0_8RegisterEPNS1_8LocationE
_ZN4vixl7aarch3212Disassembler3asrENS0_9ConditionENS0_12EncodingSizeENS0_8RegisterES4_RKNS0_7OperandE
_ZN4vixl7aarch3212Disassembler3bfcENS0_9ConditionENS0_8RegisterEjj
_ZN4vixl7aarch3212Disassembler3bfiENS0_9ConditionENS0_8RegisterES3_jj
_ZN4vixl7aarch3212Disassembler3bicENS0_9ConditionENS0_12EncodingSizeENS0_8RegisterES4_RKNS0_7OperandE
_ZN4vixl7aarch3212Disassembler3blxENS0_9ConditionENS0_8RegisterE
_ZN4vixl7aarch3212Disassembler3blxENS0_9ConditionEPNS1_8LocationE
_ZN4vixl7aarch3212Disassembler3bxjENS0_9ConditionENS0_8RegisterE
_ZN4vixl7aarch3212Disassembler3cbzENS0_8RegisterEPNS1_8LocationE
_ZN4vixl7aarch3212Disassembler3clzENS0_9ConditionENS0_8RegisterES3_
_ZN4vixl7aarch3212Disassembler3cmnENS0_9ConditionENS0_12EncodingSizeENS0_8RegisterERKNS0_7OperandE
_ZN4vixl7aarch3212Disassembler3cmpENS0_9ConditionENS0_12EncodingSizeENS0_8RegisterERKNS0_7OperandE
_ZN4vixl7aarch3212Disassembler3dmbENS0_9ConditionENS0_13MemoryBarrierE
_ZN4vixl7aarch3212Disassembler3dsbENS0_9ConditionENS0_13MemoryBarrierE
_ZN4vixl7aarch3212Disassembler3eorENS0_9ConditionENS0_12EncodingSizeENS0_8RegisterES4_RKNS0_7OperandE
_ZN4vixl7aarch3212Disassembler3hltENS0_9ConditionEj
_ZN4vixl7aarch3212Disassembler3hvcENS0_9ConditionEj
_ZN4vixl7aarch3212Disassembler3isbENS0_9ConditionENS0_13MemoryBarrierE
_ZN4vixl7aarch3212Disassembler3ldaENS0_9ConditionENS0_8RegisterERKNS0_10MemOperandE
_ZN4vixl7aarch3212Disassembler3ldmENS0_9ConditionENS0_12EncodingSizeENS0_8RegisterENS0_9WriteBackENS0_12RegisterListE
_ZN4vixl7aarch3212Disassembler3ldrENS0_9ConditionENS0_12EncodingSizeENS0_8RegisterEPNS1_8LocationE
_ZN4vixl7aarch3212Disassembler3ldrENS0_9ConditionENS0_12EncodingSizeENS0_8RegisterERKNS0_10MemOperandE
_ZN4vixl7aarch3212Disassembler3lslENS0_9ConditionENS0_12EncodingSizeENS0_8RegisterES4_RKNS0_7OperandE
_ZN4vixl7aarch3212Disassembler3lsrENS0_9ConditionENS0_12EncodingSizeENS0_8RegisterES4_RKNS0_7OperandE
_ZN4vixl7aarch3212Disassembler3mlaENS0_9ConditionENS0_8RegisterES3_S3_S3_
_ZN4vixl7aarch3212Disassembler3mlsENS0_9ConditionENS0_8RegisterES3_S3_S3_
_ZN4vixl7aarch3212Disassembler3movENS0_9ConditionENS0_12EncodingSizeENS0_8RegisterERKNS0_7OperandE
_ZN4vixl7aarch3212Disassembler3mrsENS0_9ConditionENS0_8RegisterENS0_15SpecialRegisterE
_ZN4vixl7aarch3212Disassembler3msrENS0_9ConditionENS0_21MaskedSpecialRegisterERKNS0_7OperandE
_ZN4vixl7aarch3212Disassembler3mulENS0_9ConditionENS0_12EncodingSizeENS0_8RegisterES4_S4_
_ZN4vixl7aarch3212Disassembler3mvnENS0_9ConditionENS0_12EncodingSizeENS0_8RegisterERKNS0_7OperandE
_ZN4vixl7aarch3212Disassembler3nopENS0_9ConditionENS0_12EncodingSizeE
_ZN4vixl7aarch3212Disassembler3ornENS0_9ConditionENS0_8RegisterES3_RKNS0_7OperandE
_ZN4vixl7aarch3212Disassembler3orrENS0_9ConditionENS0_12EncodingSizeENS0_8RegisterES4_RKNS0_7OperandE
_ZN4vixl7aarch3212Disassembler3pldENS0_9ConditionEPNS1_8LocationE
_ZN4vixl7aarch3212Disassembler3pldENS0_9ConditionERKNS0_10MemOperandE
_ZN4vixl7aarch3212Disassembler3pliENS0_9ConditionEPNS1_8LocationE
_ZN4vixl7aarch3212Disassembler3pliENS0_9ConditionERKNS0_10MemOperandE
_ZN4vixl7aarch3212Disassembler3popENS0_9ConditionENS0_12EncodingSizeENS0_12RegisterListE
_ZN4vixl7aarch3212Disassembler3popENS0_9ConditionENS0_12EncodingSizeENS0_8RegisterE
_ZN4vixl7aarch3212Disassembler3revENS0_9ConditionENS0_12EncodingSizeENS0_8RegisterES4_
_ZN4vixl7aarch3212Disassembler3rorENS0_9ConditionENS0_12EncodingSizeENS0_8RegisterES4_RKNS0_7OperandE
_ZN4vixl7aarch3212Disassembler3rrxENS0_9ConditionENS0_8RegisterES3_
_ZN4vixl7aarch3212Disassembler3rsbENS0_9ConditionENS0_12EncodingSizeENS0_8RegisterES4_RKNS0_7OperandE
_ZN4vixl7aarch3212Disassembler3rscENS0_9ConditionENS0_8RegisterES3_RKNS0_7OperandE
_ZN4vixl7aarch3212Disassembler3sbcENS0_9ConditionENS0_12EncodingSizeENS0_8RegisterES4_RKNS0_7OperandE
_ZN4vixl7aarch3212Disassembler3selENS0_9ConditionENS0_8RegisterES3_S3_
_ZN4vixl7aarch3212Disassembler3stlENS0_9ConditionENS0_8RegisterERKNS0_10MemOperandE
_ZN4vixl7aarch3212Disassembler3stmENS0_9ConditionENS0_12EncodingSizeENS0_8RegisterENS0_9WriteBackENS0_12RegisterListE
_ZN4vixl7aarch3212Disassembler3strENS0_9ConditionENS0_12EncodingSizeENS0_8RegisterERKNS0_10MemOperandE
_ZN4vixl7aarch3212Disassembler3subENS0_9ConditionENS0_12EncodingSizeENS0_8RegisterES4_RKNS0_7OperandE
_ZN4vixl7aarch3212Disassembler3subENS0_9ConditionENS0_8RegisterERKNS0_7OperandE
_ZN4vixl7aarch3212Disassembler3svcENS0_9ConditionEj
_ZN4vixl7aarch3212Disassembler3tbbENS0_9ConditionENS0_8RegisterES3_
_ZN4vixl7aarch3212Disassembler3tbhENS0_9ConditionENS0_8RegisterES3_
_ZN4vixl7aarch3212Disassembler3teqENS0_9ConditionENS0_8RegisterERKNS0_7OperandE
_ZN4vixl7aarch3212Disassembler3tstENS0_9ConditionENS0_12EncodingSizeENS0_8RegisterERKNS0_7OperandE
_ZN4vixl7aarch3212Disassembler3udfENS0_9ConditionENS0_12EncodingSizeEj
_ZN4vixl7aarch3212Disassembler4adcsENS0_9ConditionENS0_12EncodingSizeENS0_8RegisterES4_RKNS0_7OperandE
_ZN4vixl7aarch3212Disassembler4addsENS0_8RegisterERKNS0_7OperandE
_ZN4vixl7aarch3212Disassembler4addsENS0_9ConditionENS0_12EncodingSizeENS0_8RegisterES4_RKNS0_7OperandE
_ZN4vixl7aarch3212Disassembler4addwENS0_9ConditionENS0_8RegisterES3_RKNS0_7OperandE
_ZN4vixl7aarch3212Disassembler4and_ENS0_9ConditionENS0_12EncodingSizeENS0_8RegisterES4_RKNS0_7OperandE
_ZN4vixl7aarch3212Disassembler4andsENS0_9ConditionENS0_12EncodingSizeENS0_8RegisterES4_RKNS0_7OperandE
_ZN4vixl7aarch3212Disassembler4asrsENS0_9ConditionENS0_12EncodingSizeENS0_8RegisterES4_RKNS0_7OperandE
_ZN4vixl7aarch3212Disassembler4bicsENS0_9ConditionENS0_12EncodingSizeENS0_8RegisterES4_RKNS0_7OperandE
_ZN4vixl7aarch3212Disassembler4bkptENS0_9ConditionEj
_ZN4vixl7aarch3212Disassembler4cbnzENS0_8RegisterEPNS1_8LocationE
_ZN4vixl7aarch3212Disassembler4eorsENS0_9ConditionENS0_12EncodingSizeENS0_8RegisterES4_RKNS0_7OperandE
_ZN4vixl7aarch3212Disassembler4ldabENS0_9ConditionENS0_8RegisterERKNS0_10MemOperandE
_ZN4vixl7aarch3212Disassembler4ldahENS0_9ConditionENS0_8RegisterERKNS0_10MemOperandE
_ZN4vixl7aarch3212Disassembler4ldrbENS0_9ConditionENS0_12EncodingSizeENS0_8RegisterERKNS0_10MemOperandE
_ZN4vixl7aarch3212Disassembler4ldrbENS0_9ConditionENS0_8RegisterEPNS1_8LocationE
_ZN4vixl7aarch3212Disassembler4ldrdENS0_9ConditionENS0_8RegisterES3_PNS1_8LocationE
_ZN4vixl7aarch3212Disassembler4ldrdENS0_9ConditionENS0_8RegisterES3_RKNS0_10MemOperandE
_ZN4vixl7aarch3212Disassembler4ldrhENS0_9ConditionENS0_12EncodingSizeENS0_8RegisterERKNS0_10MemOperandE
_ZN4vixl7aarch3212Disassembler4ldrhENS0_9ConditionENS0_8RegisterEPNS1_8LocationE
_ZN4vixl7aarch3212Disassembler4lslsENS0_9ConditionENS0_12EncodingSizeENS0_8RegisterES4_RKNS0_7OperandE
_ZN4vixl7aarch3212Disassembler4lsrsENS0_9ConditionENS0_12EncodingSizeENS0_8RegisterES4_RKNS0_7OperandE
_ZN4vixl7aarch3212Disassembler4mlasENS0_9ConditionENS0_8RegisterES3_S3_S3_
_ZN4vixl7aarch3212Disassembler4movsENS0_9ConditionENS0_12EncodingSizeENS0_8RegisterERKNS0_7OperandE
_ZN4vixl7aarch3212Disassembler4movtENS0_9ConditionENS0_8RegisterERKNS0_7OperandE
_ZN4vixl7aarch3212Disassembler4movwENS0_9ConditionENS0_8RegisterERKNS0_7OperandE
_ZN4vixl7aarch3212Disassembler4mulsENS0_9ConditionENS0_8RegisterES3_S3_
_ZN4vixl7aarch3212Disassembler4mvnsENS0_9ConditionENS0_12EncodingSizeENS0_8RegisterERKNS0_7OperandE
_ZN4vixl7aarch3212Disassembler4ornsENS0_9ConditionENS0_8RegisterES3_RKNS0_7OperandE
_ZN4vixl7aarch3212Disassembler4orrsENS0_9ConditionENS0_12EncodingSizeENS0_8RegisterES4_RKNS0_7OperandE
_ZN4vixl7aarch3212Disassembler4pldwENS0_9ConditionERKNS0_10MemOperandE
_ZN4vixl7aarch3212Disassembler4pushENS0_9ConditionENS0_12EncodingSizeENS0_12RegisterListE
_ZN4vixl7aarch3212Disassembler4pushENS0_9ConditionENS0_12EncodingSizeENS0_8RegisterE
_ZN4vixl7aarch3212Disassembler4qaddENS0_9ConditionENS0_8RegisterES3_S3_
_ZN4vixl7aarch3212Disassembler4qasxENS0_9ConditionENS0_8RegisterES3_S3_
_ZN4vixl7aarch3212Disassembler4qsaxENS0_9ConditionENS0_8RegisterES3_S3_
_ZN4vixl7aarch3212Disassembler4qsubENS0_9ConditionENS0_8RegisterES3_S3_
_ZN4vixl7aarch3212Disassembler4rbitENS0_9ConditionENS0_8RegisterES3_
_ZN4vixl7aarch3212Disassembler4rorsENS0_9ConditionENS0_12EncodingSizeENS0_8RegisterES4_RKNS0_7OperandE
_ZN4vixl7aarch3212Disassembler4rrxsENS0_9ConditionENS0_8RegisterES3_
_ZN4vixl7aarch3212Disassembler4rsbsENS0_9ConditionENS0_12EncodingSizeENS0_8RegisterES4_RKNS0_7OperandE
_ZN4vixl7aarch3212Disassembler4rscsENS0_9ConditionENS0_8RegisterES3_RKNS0_7OperandE
_ZN4vixl7aarch3212Disassembler4sasxENS0_9ConditionENS0_8RegisterES3_S3_
_ZN4vixl7aarch3212Disassembler4sbcsENS0_9ConditionENS0_12EncodingSizeENS0_8RegisterES4_RKNS0_7OperandE
_ZN4vixl7aarch3212Disassembler4sbfxENS0_9ConditionENS0_8RegisterES3_jj
_ZN4vixl7aarch3212Disassembler4sdivENS0_9ConditionENS0_8RegisterES3_S3_
_ZN4vixl7aarch3212Disassembler4ssatENS0_9ConditionENS0_8RegisterEjRKNS0_7OperandE
_ZN4vixl7aarch3212Disassembler4ssaxENS0_9ConditionENS0_8RegisterES3_S3_
_ZN4vixl7aarch3212Disassembler4stlbENS0_9ConditionENS0_8RegisterERKNS0_10MemOperandE
_ZN4vixl7aarch3212Disassembler4stlhENS0_9ConditionENS0_8RegisterERKNS0_10MemOperandE
_ZN4vixl7aarch3212Disassembler4strbENS0_9ConditionENS0_12EncodingSizeENS0_8RegisterERKNS0_10MemOperandE
_ZN4vixl7aarch3212Disassembler4strdENS0_9ConditionENS0_8RegisterES3_RKNS0_10MemOperandE
_ZN4vixl7aarch3212Disassembler4strhENS0_9ConditionENS0_12EncodingSizeENS0_8RegisterERKNS0_10MemOperandE
_ZN4vixl7aarch3212Disassembler4subsENS0_8RegisterERKNS0_7OperandE
_ZN4vixl7aarch3212Disassembler4subsENS0_9ConditionENS0_12EncodingSizeENS0_8RegisterES4_RKNS0_7OperandE
_ZN4vixl7aarch3212Disassembler4subwENS0_9ConditionENS0_8RegisterES3_RKNS0_7OperandE
_ZN4vixl7aarch3212Disassembler4sxtbENS0_9ConditionENS0_12EncodingSizeENS0_8RegisterERKNS0_7OperandE
_ZN4vixl7aarch3212Disassembler4sxthENS0_9ConditionENS0_12EncodingSizeENS0_8RegisterERKNS0_7OperandE
_ZN4vixl7aarch3212Disassembler4uasxENS0_9ConditionENS0_8RegisterES3_S3_
_ZN4vixl7aarch3212Disassembler4ubfxENS0_9ConditionENS0_8RegisterES3_jj
_ZN4vixl7aarch3212Disassembler4udivENS0_9ConditionENS0_8RegisterES3_S3_
_ZN4vixl7aarch3212Disassembler4usatENS0_9ConditionENS0_8RegisterEjRKNS0_7OperandE
_ZN4vixl7aarch3212Disassembler4usaxENS0_9ConditionENS0_8RegisterES3_S3_
_ZN4vixl7aarch3212Disassembler4uxtbENS0_9ConditionENS0_12EncodingSizeENS0_8RegisterERKNS0_7OperandE
_ZN4vixl7aarch3212Disassembler4uxthENS0_9ConditionENS0_12EncodingSizeENS0_8RegisterERKNS0_7OperandE
_ZN4vixl7aarch3212Disassembler4vabaENS0_9ConditionENS0_8DataTypeENS0_9DRegisterES4_S4_
_ZN4vixl7aarch3212Disassembler4vabaENS0_9ConditionENS0_8DataTypeENS0_9QRegisterES4_S4_
_ZN4vixl7aarch3212Disassembler4vabdENS0_9ConditionENS0_8DataTypeENS0_9DRegisterES4_S4_
_ZN4vixl7aarch3212Disassembler4vabdENS0_9ConditionENS0_8DataTypeENS0_9QRegisterES4_S4_
_ZN4vixl7aarch3212Disassembler4vabsENS0_9ConditionENS0_8DataTypeENS0_9DRegisterES4_
_ZN4vixl7aarch3212Disassembler4vabsENS0_9ConditionENS0_8DataTypeENS0_9QRegisterES4_
_ZN4vixl7aarch3212Disassembler4vabsENS0_9ConditionENS0_8DataTypeENS0_9SRegisterES4_
_ZN4vixl7aarch3212Disassembler4vaddENS0_9ConditionENS0_8DataTypeENS0_9DRegisterES4_S4_
_ZN4vixl7aarch3212Disassembler4vaddENS0_9ConditionENS0_8DataTypeENS0_9QRegisterES4_S4_
_ZN4vixl7aarch3212Disassembler4vaddENS0_9ConditionENS0_8DataTypeENS0_9SRegisterES4_S4_
_ZN4vixl7aarch3212Disassembler4vandENS0_9ConditionENS0_8DataTypeENS0_9DRegisterES4_RKNS0_8DOperandE
_ZN4vixl7aarch3212Disassembler4vandENS0_9ConditionENS0_8DataTypeENS0_9QRegisterES4_RKNS0_8QOperandE
_ZN4vixl7aarch3212Disassembler4vbicENS0_9ConditionENS0_8DataTypeENS0_9DRegisterES4_RKNS0_8DOperandE
_ZN4vixl7aarch3212Disassembler4vbicENS0_9ConditionENS0_8DataTypeENS0_9QRegisterES4_RKNS0_8QOperandE
_ZN4vixl7aarch3212Disassembler4vbifENS0_9ConditionENS0_8DataTypeENS0_9DRegisterES4_S4_
_ZN4vixl7aarch3212Disassembler4vbifENS0_9ConditionENS0_8DataTypeENS0_9QRegisterES4_S4_
_ZN4vixl7aarch3212Disassembler4vbitENS0_9ConditionENS0_8DataTypeENS0_9DRegisterES4_S4_
_ZN4vixl7aarch3212Disassembler4vbitENS0_9ConditionENS0_8DataTypeENS0_9QRegisterES4_S4_
_ZN4vixl7aarch3212Disassembler4vbslENS0_9ConditionENS0_8DataTypeENS0_9DRegisterES4_S4_
_ZN4vixl7aarch3212Disassembler4vbslENS0_9ConditionENS0_8DataTypeENS0_9QRegisterES4_S4_
_ZN4vixl7aarch3212Disassembler4vceqENS0_9ConditionENS0_8DataTypeENS0_9DRegisterES4_RKNS0_8DOperandE
_ZN4vixl7aarch3212Disassembler4vceqENS0_9ConditionENS0_8DataTypeENS0_9DRegisterES4_S4_
_ZN4vixl7aarch3212Disassembler4vceqENS0_9ConditionENS0_8DataTypeENS0_9QRegisterES4_RKNS0_8QOperandE
_ZN4vixl7aarch3212Disassembler4vceqENS0_9ConditionENS0_8DataTypeENS0_9QRegisterES4_S4_
_ZN4vixl7aarch3212Disassembler4vcgeENS0_9ConditionENS0_8DataTypeENS0_9DRegisterES4_RKNS0_8DOperandE
_ZN4vixl7aarch3212Disassembler4vcgeENS0_9ConditionENS0_8DataTypeENS0_9DRegisterES4_S4_
_ZN4vixl7aarch3212Disassembler4vcgeENS0_9ConditionENS0_8DataTypeENS0_9QRegisterES4_RKNS0_8QOperandE
_ZN4vixl7aarch3212Disassembler4vcgeENS0_9ConditionENS0_8DataTypeENS0_9QRegisterES4_S4_
_ZN4vixl7aarch3212Disassembler4vcgtENS0_9ConditionENS0_8DataTypeENS0_9DRegisterES4_RKNS0_8DOperandE
_ZN4vixl7aarch3212Disassembler4vcgtENS0_9ConditionENS0_8DataTypeENS0_9DRegisterES4_S4_
_ZN4vixl7aarch3212Disassembler4vcgtENS0_9ConditionENS0_8DataTypeENS0_9QRegisterES4_RKNS0_8QOperandE
_ZN4vixl7aarch3212Disassembler4vcgtENS0_9ConditionENS0_8DataTypeENS0_9QRegisterES4_S4_
_ZN4vixl7aarch3212Disassembler4vcleENS0_9ConditionENS0_8DataTypeENS0_9DRegisterES4_RKNS0_8DOperandE
_ZN4vixl7aarch3212Disassembler4vcleENS0_9ConditionENS0_8DataTypeENS0_9DRegisterES4_S4_
_ZN4vixl7aarch3212Disassembler4vcleENS0_9ConditionENS0_8DataTypeENS0_9QRegisterES4_RKNS0_8QOperandE
_ZN4vixl7aarch3212Disassembler4vcleENS0_9ConditionENS0_8DataTypeENS0_9QRegisterES4_S4_
_ZN4vixl7aarch3212Disassembler4vclsENS0_9ConditionENS0_8DataTypeENS0_9DRegisterES4_
_ZN4vixl7aarch3212Disassembler4vclsENS0_9ConditionENS0_8DataTypeENS0_9QRegisterES4_
_ZN4vixl7aarch3212Disassembler4vcltENS0_9ConditionENS0_8DataTypeENS0_9DRegisterES4_RKNS0_8DOperandE
_ZN4vixl7aarch3212Disassembler4vcltENS0_9ConditionENS0_8DataTypeENS0_9DRegisterES4_S4_
_ZN4vixl7aarch3212Disassembler4vcltENS0_9ConditionENS0_8DataTypeENS0_9QRegisterES4_RKNS0_8QOperandE
_ZN4vixl7aarch3212Disassembler4vcltENS0_9ConditionENS0_8DataTypeENS0_9QRegisterES4_S4_
_ZN4vixl7aarch3212Disassembler4vclzENS0_9ConditionENS0_8DataTypeENS0_9DRegisterES4_
_ZN4vixl7aarch3212Disassembler4vclzENS0_9ConditionENS0_8DataTypeENS0_9QRegisterES4_
_ZN4vixl7aarch3212Disassembler4vcmpENS0_9ConditionENS0_8DataTypeENS0_9DRegisterERKNS0_8DOperandE
_ZN4vixl7aarch3212Disassembler4vcmpENS0_9ConditionENS0_8DataTypeENS0_9SRegisterERKNS0_8SOperandE
_ZN4vixl7aarch3212Disassembler4vcntENS0_9ConditionENS0_8DataTypeENS0_9DRegisterES4_
_ZN4vixl7aarch3212Disassembler4vcntENS0_9ConditionENS0_8DataTypeENS0_9QRegisterES4_
_ZN4vixl7aarch3212Disassembler4vcvtENS0_9ConditionENS0_8DataTypeES3_NS0_9DRegisterENS0_9QRegisterE
_ZN4vixl7aarch3212Disassembler4vcvtENS0_9ConditionENS0_8DataTypeES3_NS0_9DRegisterENS0_9SRegisterE
_ZN4vixl7aarch3212Disassembler4vcvtENS0_9ConditionENS0_8DataTypeES3_NS0_9DRegisterES4_
_ZN4vixl7aarch3212Disassembler4vcvtENS0_9ConditionENS0_8DataTypeES3_NS0_9DRegisterES4_i
_ZN4vixl7aarch3212Disassembler4vcvtENS0_9ConditionENS0_8DataTypeES3_NS0_9QRegisterENS0_9DRegisterE
_ZN4vixl7aarch3212Disassembler4vcvtENS0_9ConditionENS0_8DataTypeES3_NS0_9QRegisterES4_
_ZN4vixl7aarch3212Disassembler4vcvtENS0_9ConditionENS0_8DataTypeES3_NS0_9QRegisterES4_i
_ZN4vixl7aarch3212Disassembler4vcvtENS0_9ConditionENS0_8DataTypeES3_NS0_9SRegisterENS0_9DRegisterE
_ZN4vixl7aarch3212Disassembler4vcvtENS0_9ConditionENS0_8DataTypeES3_NS0_9SRegisterES4_
_ZN4vixl7aarch3212Disassembler4vcvtENS0_9ConditionENS0_8DataTypeES3_NS0_9SRegisterES4_i
_ZN4vixl7aarch3212Disassembler4vdivENS0_9ConditionENS0_8DataTypeENS0_9DRegisterES4_S4_
_ZN4vixl7aarch3212Disassembler4vdivENS0_9ConditionENS0_8DataTypeENS0_9SRegisterES4_S4_
_ZN4vixl7aarch3212Disassembler4vdupENS0_9ConditionENS0_8DataTypeENS0_9DRegisterENS0_13DRegisterLaneE
_ZN4vixl7aarch3212Disassembler4vdupENS0_9ConditionENS0_8DataTypeENS0_9DRegisterENS0_8RegisterE
_ZN4vixl7aarch3212Disassembler4vdupENS0_9ConditionENS0_8DataTypeENS0_9QRegisterENS0_13DRegisterLaneE
_ZN4vixl7aarch3212Disassembler4vdupENS0_9ConditionENS0_8DataTypeENS0_9QRegisterENS0_8RegisterE
_ZN4vixl7aarch3212Disassembler4veorENS0_9ConditionENS0_8DataTypeENS0_9DRegisterES4_S4_
_ZN4vixl7aarch3212Disassembler4veorENS0_9ConditionENS0_8DataTypeENS0_9QRegisterES4_S4_
_ZN4vixl7aarch3212Disassembler4vextENS0_9ConditionENS0_8DataTypeENS0_9DRegisterES4_S4_RKNS0_8DOperandE
_ZN4vixl7aarch3212Disassembler4vextENS0_9ConditionENS0_8DataTypeENS0_9QRegisterES4_S4_RKNS0_8QOperandE
_ZN4vixl7aarch3212Disassembler4vfmaENS0_9ConditionENS0_8DataTypeENS0_9DRegisterES4_S4_
_ZN4vixl7aarch3212Disassembler4vfmaENS0_9ConditionENS0_8DataTypeENS0_9QRegisterES4_S4_
_ZN4vixl7aarch3212Disassembler4vfmaENS0_9ConditionENS0_8DataTypeENS0_9SRegisterES4_S4_
_ZN4vixl7aarch3212Disassembler4vfmsENS0_9ConditionENS0_8DataTypeENS0_9DRegisterES4_S4_
_ZN4vixl7aarch3212Disassembler4vfmsENS0_9ConditionENS0_8DataTypeENS0_9QRegisterES4_S4_
_ZN4vixl7aarch3212Disassembler4vfmsENS0_9ConditionENS0_8DataTypeENS0_9SRegisterES4_S4_
_ZN4vixl7aarch3212Disassembler4vld1ENS0_9ConditionENS0_8DataTypeERKNS0_16NeonRegisterListERKNS0_17AlignedMemOperandE
_ZN4vixl7aarch3212Disassembler4vld2ENS0_9ConditionENS0_8DataTypeERKNS0_16NeonRegisterListERKNS0_17AlignedMemOperandE
_ZN4vixl7aarch3212Disassembler4vld3ENS0_9ConditionENS0_8DataTypeERKNS0_16NeonRegisterListERKNS0_10MemOperandE
_ZN4vixl7aarch3212Disassembler4vld3ENS0_9ConditionENS0_8DataTypeERKNS0_16NeonRegisterListERKNS0_17AlignedMemOperandE
_ZN4vixl7aarch3212Disassembler4vld4ENS0_9ConditionENS0_8DataTypeERKNS0_16NeonRegisterListERKNS0_17AlignedMemOperandE
_ZN4vixl7aarch3212Disassembler4vldmENS0_9ConditionENS0_8DataTypeENS0_8RegisterENS0_9WriteBackENS0_13DRegisterListE
_ZN4vixl7aarch3212Disassembler4vldmENS0_9ConditionENS0_8DataTypeENS0_8RegisterENS0_9WriteBackENS0_13SRegisterListE
_ZN4vixl7aarch3212Disassembler4vldrENS0_9ConditionENS0_8DataTypeENS0_9DRegisterEPNS1_8LocationE
_ZN4vixl7aarch3212Disassembler4vldrENS0_9ConditionENS0_8DataTypeENS0_9DRegisterERKNS0_10MemOperandE
_ZN4vixl7aarch3212Disassembler4vldrENS0_9ConditionENS0_8DataTypeENS0_9SRegisterEPNS1_8LocationE
_ZN4vixl7aarch3212Disassembler4vldrENS0_9ConditionENS0_8DataTypeENS0_9SRegisterERKNS0_10MemOperandE
_ZN4vixl7aarch3212Disassembler4vmaxENS0_9ConditionENS0_8DataTypeENS0_9DRegisterES4_S4_
_ZN4vixl7aarch3212Disassembler4vmaxENS0_9ConditionENS0_8DataTypeENS0_9QRegisterES4_S4_
_ZN4vixl7aarch3212Disassembler4vminENS0_9ConditionENS0_8DataTypeENS0_9DRegisterES4_S4_
_ZN4vixl7aarch3212Disassembler4vminENS0_9ConditionENS0_8DataTypeENS0_9QRegisterES4_S4_
_ZN4vixl7aarch3212Disassembler4vmlaENS0_9ConditionENS0_8DataTypeENS0_9DRegisterES4_NS0_13DRegisterLaneE
_ZN4vixl7aarch3212Disassembler4vmlaENS0_9ConditionENS0_8DataTypeENS0_9DRegisterES4_S4_
_ZN4vixl7aarch3212Disassembler4vmlaENS0_9ConditionENS0_8DataTypeENS0_9QRegisterES4_NS0_13DRegisterLaneE
_ZN4vixl7aarch3212Disassembler4vmlaENS0_9ConditionENS0_8DataTypeENS0_9QRegisterES4_S4_
_ZN4vixl7aarch3212Disassembler4vmlaENS0_9ConditionENS0_8DataTypeENS0_9SRegisterES4_S4_
_ZN4vixl7aarch3212Disassembler4vmlsENS0_9ConditionENS0_8DataTypeENS0_9DRegisterES4_NS0_13DRegisterLaneE
_ZN4vixl7aarch3212Disassembler4vmlsENS0_9ConditionENS0_8DataTypeENS0_9DRegisterES4_S4_
_ZN4vixl7aarch3212Disassembler4vmlsENS0_9ConditionENS0_8DataTypeENS0_9QRegisterES4_NS0_13DRegisterLaneE
_ZN4vixl7aarch3212Disassembler4vmlsENS0_9ConditionENS0_8DataTypeENS0_9QRegisterES4_S4_
_ZN4vixl7aarch3212Disassembler4vmlsENS0_9ConditionENS0_8DataTypeENS0_9SRegisterES4_S4_
_ZN4vixl7aarch3212Disassembler4vmovENS0_9ConditionENS0_8DataTypeENS0_13DRegisterLaneENS0_8RegisterE
_ZN4vixl7aarch3212Disassembler4vmovENS0_9ConditionENS0_8DataTypeENS0_8RegisterENS0_13DRegisterLaneE
_ZN4vixl7aarch3212Disassembler4vmovENS0_9ConditionENS0_8DataTypeENS0_9DRegisterERKNS0_8DOperandE
_ZN4vixl7aarch3212Disassembler4vmovENS0_9ConditionENS0_8DataTypeENS0_9QRegisterERKNS0_8QOperandE
_ZN4vixl7aarch3212Disassembler4vmovENS0_9ConditionENS0_8DataTypeENS0_9SRegisterERKNS0_8SOperandE
_ZN4vixl7aarch3212Disassembler4vmovENS0_9ConditionENS0_8RegisterENS0_9SRegisterE
_ZN4vixl7aarch3212Disassembler4vmovENS0_9ConditionENS0_8RegisterES3_NS0_9DRegisterE
_ZN4vixl7aarch3212Disassembler4vmovENS0_9ConditionENS0_8RegisterES3_NS0_9SRegisterES4_
_ZN4vixl7aarch3212Disassembler4vmovENS0_9ConditionENS0_9DRegisterENS0_8RegisterES4_
_ZN4vixl7aarch3212Disassembler4vmovENS0_9ConditionENS0_9SRegisterENS0_8RegisterE
_ZN4vixl7aarch3212Disassembler4vmovENS0_9ConditionENS0_9SRegisterES3_NS0_8RegisterES4_
_ZN4vixl7aarch3212Disassembler4vmrsENS0_9ConditionENS0_19RegisterOrAPSR_nzcvENS0_17SpecialFPRegisterE
_ZN4vixl7aarch3212Disassembler4vmsrENS0_9ConditionENS0_17SpecialFPRegisterENS0_8RegisterE
_ZN4vixl7aarch3212Disassembler4vmulENS0_9ConditionENS0_8DataTypeENS0_9DRegisterES4_S4_
_ZN4vixl7aarch3212Disassembler4vmulENS0_9ConditionENS0_8DataTypeENS0_9DRegisterES4_S4_j
_ZN4vixl7aarch3212Disassembler4vmulENS0_9ConditionENS0_8DataTypeENS0_9QRegisterES4_NS0_9DRegisterEj
_ZN4vixl7aarch3212Disassembler4vmulENS0_9ConditionENS0_8DataTypeENS0_9QRegisterES4_S4_
_ZN4vixl7aarch3212Disassembler4vmulENS0_9ConditionENS0_8DataTypeENS0_9SRegisterES4_S4_
_ZN4vixl7aarch3212Disassembler4vmvnENS0_9ConditionENS0_8DataTypeENS0_9DRegisterERKNS0_8DOperandE
_ZN4vixl7aarch3212Disassembler4vmvnENS0_9ConditionENS0_8DataTypeENS0_9QRegisterERKNS0_8QOperandE
_ZN4vixl7aarch3212Disassembler4vnegENS0_9ConditionENS0_8DataTypeENS0_9DRegisterES4_
_ZN4vixl7aarch3212Disassembler4vnegENS0_9ConditionENS0_8DataTypeENS0_9QRegisterES4_
_ZN4vixl7aarch3212Disassembler4vnegENS0_9ConditionENS0_8DataTypeENS0_9SRegisterES4_
_ZN4vixl7aarch3212Disassembler4vornENS0_9ConditionENS0_8DataTypeENS0_9DRegisterES4_RKNS0_8DOperandE
_ZN4vixl7aarch3212Disassembler4vornENS0_9ConditionENS0_8DataTypeENS0_9QRegisterES4_RKNS0_8QOperandE
_ZN4vixl7aarch3212Disassembler4vorrENS0_9ConditionENS0_8DataTypeENS0_9DRegisterES4_RKNS0_8DOperandE
_ZN4vixl7aarch3212Disassembler4vorrENS0_9ConditionENS0_8DataTypeENS0_9QRegisterES4_RKNS0_8QOperandE
_ZN4vixl7aarch3212Disassembler4vpopENS0_9ConditionENS0_8DataTypeENS0_13DRegisterListE
_ZN4vixl7aarch3212Disassembler4vpopENS0_9ConditionENS0_8DataTypeENS0_13SRegisterListE
_ZN4vixl7aarch3212Disassembler4vshlENS0_9ConditionENS0_8DataTypeENS0_9DRegisterES4_RKNS0_8DOperandE
_ZN4vixl7aarch3212Disassembler4vshlENS0_9ConditionENS0_8DataTypeENS0_9QRegisterES4_RKNS0_8QOperandE
_ZN4vixl7aarch3212Disassembler4vshrENS0_9ConditionENS0_8DataTypeENS0_9DRegisterES4_RKNS0_8DOperandE
_ZN4vixl7aarch3212Disassembler4vshrENS0_9ConditionENS0_8DataTypeENS0_9QRegisterES4_RKNS0_8QOperandE
_ZN4vixl7aarch3212Disassembler4vsliENS0_9ConditionENS0_8DataTypeENS0_9DRegisterES4_RKNS0_8DOperandE
_ZN4vixl7aarch3212Disassembler4vsliENS0_9ConditionENS0_8DataTypeENS0_9QRegisterES4_RKNS0_8QOperandE
_ZN4vixl7aarch3212Disassembler4vsraENS0_9ConditionENS0_8DataTypeENS0_9DRegisterES4_RKNS0_8DOperandE
_ZN4vixl7aarch3212Disassembler4vsraENS0_9ConditionENS0_8DataTypeENS0_9QRegisterES4_RKNS0_8QOperandE
_ZN4vixl7aarch3212Disassembler4vsriENS0_9ConditionENS0_8DataTypeENS0_9DRegisterES4_RKNS0_8DOperandE
_ZN4vixl7aarch3212Disassembler4vsriENS0_9ConditionENS0_8DataTypeENS0_9QRegisterES4_RKNS0_8QOperandE
_ZN4vixl7aarch3212Disassembler4vst1ENS0_9ConditionENS0_8DataTypeERKNS0_16NeonRegisterListERKNS0_17AlignedMemOperandE
_ZN4vixl7aarch3212Disassembler4vst2ENS0_9ConditionENS0_8DataTypeERKNS0_16NeonRegisterListERKNS0_17AlignedMemOperandE
_ZN4vixl7aarch3212Disassembler4vst3ENS0_9ConditionENS0_8DataTypeERKNS0_16NeonRegisterListERKNS0_10MemOperandE
_ZN4vixl7aarch3212Disassembler4vst3ENS0_9ConditionENS0_8DataTypeERKNS0_16NeonRegisterListERKNS0_17AlignedMemOperandE
_ZN4vixl7aarch3212Disassembler4vst4ENS0_9ConditionENS0_8DataTypeERKNS0_16NeonRegisterListERKNS0_17AlignedMemOperandE
_ZN4vixl7aarch3212Disassembler4vstmENS0_9ConditionENS0_8DataTypeENS0_8RegisterENS0_9WriteBackENS0_13DRegisterListE
_ZN4vixl7aarch3212Disassembler4vstmENS0_9ConditionENS0_8DataTypeENS0_8RegisterENS0_9WriteBackENS0_13SRegisterListE
_ZN4vixl7aarch3212Disassembler4vstrENS0_9ConditionENS0_8DataTypeENS0_9DRegisterERKNS0_10MemOperandE
_ZN4vixl7aarch3212Disassembler4vstrENS0_9ConditionENS0_8DataTypeENS0_9SRegisterERKNS0_10MemOperandE
_ZN4vixl7aarch3212Disassembler4vsubENS0_9ConditionENS0_8DataTypeENS0_9DRegisterES4_S4_
_ZN4vixl7aarch3212Disassembler4vsubENS0_9ConditionENS0_8DataTypeENS0_9QRegisterES4_S4_
_ZN4vixl7aarch3212Disassembler4vsubENS0_9ConditionENS0_8DataTypeENS0_9SRegisterES4_S4_
_ZN4vixl7aarch3212Disassembler4vswpENS0_9ConditionENS0_8DataTypeENS0_9DRegisterES4_
_ZN4vixl7aarch3212Disassembler4vswpENS0_9ConditionENS0_8DataTypeENS0_9QRegisterES4_
_ZN4vixl7aarch3212Disassembler4vtblENS0_9ConditionENS0_8DataTypeENS0_9DRegisterERKNS0_16NeonRegisterListES4_
_ZN4vixl7aarch3212Disassembler4vtbxENS0_9ConditionENS0_8DataTypeENS0_9DRegisterERKNS0_16NeonRegisterListES4_
_ZN4vixl7aarch3212Disassembler4vtrnENS0_9ConditionENS0_8DataTypeENS0_9DRegisterES4_
_ZN4vixl7aarch3212Disassembler4vtrnENS0_9ConditionENS0_8DataTypeENS0_9QRegisterES4_
_ZN4vixl7aarch3212Disassembler4vtstENS0_9ConditionENS0_8DataTypeENS0_9DRegisterES4_S4_
_ZN4vixl7aarch3212Disassembler4vtstENS0_9ConditionENS0_8DataTypeENS0_9QRegisterES4_S4_
_ZN4vixl7aarch3212Disassembler4vuzpENS0_9ConditionENS0_8DataTypeENS0_9DRegisterES4_
_ZN4vixl7aarch3212Disassembler4vuzpENS0_9ConditionENS0_8DataTypeENS0_9QRegisterES4_
_ZN4vixl7aarch3212Disassembler4vzipENS0_9ConditionENS0_8DataTypeENS0_9DRegisterES4_
_ZN4vixl7aarch3212Disassembler4vzipENS0_9ConditionENS0_8DataTypeENS0_9QRegisterES4_
_ZN4vixl7aarch3212Disassembler5clrexENS0_9ConditionE
_ZN4vixl7aarch3212Disassembler5ldaexENS0_9ConditionENS0_8RegisterERKNS0_10MemOperandE
_ZN4vixl7aarch3212Disassembler5ldmdaENS0_9ConditionENS0_8RegisterENS0_9WriteBackENS0_12RegisterListE
_ZN4vixl7aarch3212Disassembler5ldmdbENS0_9ConditionENS0_8RegisterENS0_9WriteBackENS0_12RegisterListE
_ZN4vixl7aarch3212Disassembler5ldmeaENS0_9ConditionENS0_8RegisterENS0_9WriteBackENS0_12RegisterListE
_ZN4vixl7aarch3212Disassembler5ldmedENS0_9ConditionENS0_8RegisterENS0_9WriteBackENS0_12RegisterListE
_ZN4vixl7aarch3212Disassembler5ldmfaENS0_9ConditionENS0_8RegisterENS0_9WriteBackENS0_12RegisterListE
_ZN4vixl7aarch3212Disassembler5ldmfdENS0_9ConditionENS0_12EncodingSizeENS0_8RegisterENS0_9WriteBackENS0_12RegisterListE
_ZN4vixl7aarch3212Disassembler5ldmibENS0_9ConditionENS0_8RegisterENS0_9WriteBackENS0_12RegisterListE
_ZN4vixl7aarch3212Disassembler5ldrexENS0_9ConditionENS0_8RegisterERKNS0_10MemOperandE
_ZN4vixl7aarch3212Disassembler5ldrsbENS0_9ConditionENS0_12EncodingSizeENS0_8RegisterERKNS0_10MemOperandE
_ZN4vixl7aarch3212Disassembler5ldrsbENS0_9ConditionENS0_8RegisterEPNS1_8LocationE
_ZN4vixl7aarch3212Disassembler5ldrshENS0_9ConditionENS0_12EncodingSizeENS0_8RegisterERKNS0_10MemOperandE
_ZN4vixl7aarch3212Disassembler5ldrshENS0_9ConditionENS0_8RegisterEPNS1_8LocationE
_ZN4vixl7aarch3212Disassembler5pkhbtENS0_9ConditionENS0_8RegisterES3_RKNS0_7OperandE
_ZN4vixl7aarch3212Disassembler5pkhtbENS0_9ConditionENS0_8RegisterES3_RKNS0_7OperandE
_ZN4vixl7aarch3212Disassembler5qadd8ENS0_9ConditionENS0_8RegisterES3_S3_
_ZN4vixl7aarch3212Disassembler5qdaddENS0_9ConditionENS0_8RegisterES3_S3_
_ZN4vixl7aarch3212Disassembler5qdsubENS0_9ConditionENS0_8RegisterES3_S3_
_ZN4vixl7aarch3212Disassembler5qsub8ENS0_9ConditionENS0_8RegisterES3_S3_
_ZN4vixl7aarch3212Disassembler5rev16ENS0_9ConditionENS0_12EncodingSizeENS0_8RegisterES4_
_ZN4vixl7aarch3212Disassembler5revshENS0_9ConditionENS0_12EncodingSizeENS0_8RegisterES4_
_ZN4vixl7aarch3212Disassembler5sadd8ENS0_9ConditionENS0_8RegisterES3_S3_
_ZN4vixl7aarch3212Disassembler5shasxENS0_9ConditionENS0_8RegisterES3_S3_
_ZN4vixl7aarch3212Disassembler5shsaxENS0_9ConditionENS0_8RegisterES3_S3_
_ZN4vixl7aarch3212Disassembler5smladENS0_9ConditionENS0_8RegisterES3_S3_S3_
_ZN4vixl7aarch3212Disassembler5smlalENS0_9ConditionENS0_8RegisterES3_S3_S3_
_ZN4vixl7aarch3212Disassembler5smlsdENS0_9ConditionENS0_8RegisterES3_S3_S3_
_ZN4vixl7aarch3212Disassembler5smmlaENS0_9ConditionENS0_8RegisterES3_S3_S3_
_ZN4vixl7aarch3212Disassembler5smmlsENS0_9ConditionENS0_8RegisterES3_S3_S3_
_ZN4vixl7aarch3212Disassembler5smmulENS0_9ConditionENS0_8RegisterES3_S3_
_ZN4vixl7aarch3212Disassembler5smuadENS0_9ConditionENS0_8RegisterES3_S3_
_ZN4vixl7aarch3212Disassembler5smullENS0_9ConditionENS0_8RegisterES3_S3_S3_
_ZN4vixl7aarch3212Disassembler5smusdENS0_9ConditionENS0_8RegisterES3_S3_
_ZN4vixl7aarch3212Disassembler5ssub8ENS0_9ConditionENS0_8RegisterES3_S3_
_ZN4vixl7aarch3212Disassembler5stlexENS0_9ConditionENS0_8RegisterES3_RKNS0_10MemOperandE
_ZN4vixl7aarch3212Disassembler5stmdaENS0_9ConditionENS0_8RegisterENS0_9WriteBackENS0_12RegisterListE
_ZN4vixl7aarch3212Disassembler5stmdbENS0_9ConditionENS0_12EncodingSizeENS0_8RegisterENS0_9WriteBackENS0_12RegisterListE
_ZN4vixl7aarch3212Disassembler5stmeaENS0_9ConditionENS0_12EncodingSizeENS0_8RegisterENS0_9WriteBackENS0_12RegisterListE
_ZN4vixl7aarch3212Disassembler5stmedENS0_9ConditionENS0_8RegisterENS0_9WriteBackENS0_12RegisterListE
_ZN4vixl7aarch3212Disassembler5stmfaENS0_9ConditionENS0_8RegisterENS0_9WriteBackENS0_12RegisterListE
_ZN4vixl7aarch3212Disassembler5stmfdENS0_9ConditionENS0_8RegisterENS0_9WriteBackENS0_12RegisterListE
_ZN4vixl7aarch3212Disassembler5stmibENS0_9ConditionENS0_8RegisterENS0_9WriteBackENS0_12RegisterListE
_ZN4vixl7aarch3212Disassembler5strexENS0_9ConditionENS0_8RegisterES3_RKNS0_10MemOperandE
_ZN4vixl7aarch3212Disassembler5sxtabENS0_9ConditionENS0_8RegisterES3_RKNS0_7OperandE
_ZN4vixl7aarch3212Disassembler5sxtahENS0_9ConditionENS0_8RegisterES3_RKNS0_7OperandE
_ZN4vixl7aarch3212Disassembler5uadd8ENS0_9ConditionENS0_8RegisterES3_S3_
_ZN4vixl7aarch3212Disassembler5uhasxENS0_9ConditionENS0_8RegisterES3_S3_
_ZN4vixl7aarch3212Disassembler5uhsaxENS0_9ConditionENS0_8RegisterES3_S3_
_ZN4vixl7aarch3212Disassembler5umaalENS0_9ConditionENS0_8RegisterES3_S3_S3_
_ZN4vixl7aarch3212Disassembler5umlalENS0_9ConditionENS0_8RegisterES3_S3_S3_
_ZN4vixl7aarch3212Disassembler5umullENS0_9ConditionENS0_8RegisterES3_S3_S3_
_ZN4vixl7aarch3212Disassembler5uqasxENS0_9ConditionENS0_8RegisterES3_S3_
_ZN4vixl7aarch3212Disassembler5uqsaxENS0_9ConditionENS0_8RegisterES3_S3_
_ZN4vixl7aarch3212Disassembler5usad8ENS0_9ConditionENS0_8RegisterES3_S3_
_ZN4vixl7aarch3212Disassembler5usub8ENS0_9ConditionENS0_8RegisterES3_S3_
_ZN4vixl7aarch3212Disassembler5uxtabENS0_9ConditionENS0_8RegisterES3_RKNS0_7OperandE
_ZN4vixl7aarch3212Disassembler5uxtahENS0_9ConditionENS0_8RegisterES3_RKNS0_7OperandE
_ZN4vixl7aarch3212Disassembler5vabalENS0_9ConditionENS0_8DataTypeENS0_9QRegisterENS0_9DRegisterES5_
_ZN4vixl7aarch3212Disassembler5vabdlENS0_9ConditionENS0_8DataTypeENS0_9QRegisterENS0_9DRegisterES5_
_ZN4vixl7aarch3212Disassembler5vacgeENS0_9ConditionENS0_8DataTypeENS0_9DRegisterES4_S4_
_ZN4vixl7aarch3212Disassembler5vacgeENS0_9ConditionENS0_8DataTypeENS0_9QRegisterES4_S4_
_ZN4vixl7aarch3212Disassembler5vacgtENS0_9ConditionENS0_8DataTypeENS0_9DRegisterES4_S4_
_ZN4vixl7aarch3212Disassembler5vacgtENS0_9ConditionENS0_8DataTypeENS0_9QRegisterES4_S4_
_ZN4vixl7aarch3212Disassembler5vacleENS0_9ConditionENS0_8DataTypeENS0_9DRegisterES4_S4_
_ZN4vixl7aarch3212Disassembler5vacleENS0_9ConditionENS0_8DataTypeENS0_9QRegisterES4_S4_
_ZN4vixl7aarch3212Disassembler5vacltENS0_9ConditionENS0_8DataTypeENS0_9DRegisterES4_S4_
_ZN4vixl7aarch3212Disassembler5vacltENS0_9ConditionENS0_8DataTypeENS0_9QRegisterES4_S4_
_ZN4vixl7aarch3212Disassembler5vaddlENS0_9ConditionENS0_8DataTypeENS0_9QRegisterENS0_9DRegisterES5_
_ZN4vixl7aarch3212Disassembler5vaddwENS0_9ConditionENS0_8DataTypeENS0_9QRegisterES4_NS0_9DRegisterE
_ZN4vixl7aarch3212Disassembler5vcmpeENS0_9ConditionENS0_8DataTypeENS0_9DRegisterERKNS0_8DOperandE
_ZN4vixl7aarch3212Disassembler5vcmpeENS0_9ConditionENS0_8DataTypeENS0_9SRegisterERKNS0_8SOperandE
_ZN4vixl7aarch3212Disassembler5vcvtaENS0_8DataTypeES2_NS0_9DRegisterES3_
_ZN4vixl7aarch3212Disassembler5vcvtaENS0_8DataTypeES2_NS0_9QRegisterES3_
_ZN4vixl7aarch3212Disassembler5vcvtaENS0_8DataTypeES2_NS0_9SRegisterENS0_9DRegisterE
_ZN4vixl7aarch3212Disassembler5vcvtaENS0_8DataTypeES2_NS0_9SRegisterES3_
_ZN4vixl7aarch3212Disassembler5vcvtbENS0_9ConditionENS0_8DataTypeES3_NS0_9DRegisterENS0_9SRegisterE
_ZN4vixl7aarch3212Disassembler5vcvtbENS0_9ConditionENS0_8DataTypeES3_NS0_9SRegisterENS0_9DRegisterE
_ZN4vixl7aarch3212Disassembler5vcvtbENS0_9ConditionENS0_8DataTypeES3_NS0_9SRegisterES4_
_ZN4vixl7aarch3212Disassembler5vcvtmENS0_8DataTypeES2_NS0_9DRegisterES3_
_ZN4vixl7aarch3212Disassembler5vcvtmENS0_8DataTypeES2_NS0_9QRegisterES3_
_ZN4vixl7aarch3212Disassembler5vcvtmENS0_8DataTypeES2_NS0_9SRegisterENS0_9DRegisterE
_ZN4vixl7aarch3212Disassembler5vcvtmENS0_8DataTypeES2_NS0_9SRegisterES3_
_ZN4vixl7aarch3212Disassembler5vcvtnENS0_8DataTypeES2_NS0_9DRegisterES3_
_ZN4vixl7aarch3212Disassembler5vcvtnENS0_8DataTypeES2_NS0_9QRegisterES3_
_ZN4vixl7aarch3212Disassembler5vcvtnENS0_8DataTypeES2_NS0_9SRegisterENS0_9DRegisterE
_ZN4vixl7aarch3212Disassembler5vcvtnENS0_8DataTypeES2_NS0_9SRegisterES3_
_ZN4vixl7aarch3212Disassembler5vcvtpENS0_8DataTypeES2_NS0_9DRegisterES3_
_ZN4vixl7aarch3212Disassembler5vcvtpENS0_8DataTypeES2_NS0_9QRegisterES3_
_ZN4vixl7aarch3212Disassembler5vcvtpENS0_8DataTypeES2_NS0_9SRegisterENS0_9DRegisterE
_ZN4vixl7aarch3212Disassembler5vcvtpENS0_8DataTypeES2_NS0_9SRegisterES3_
_ZN4vixl7aarch3212Disassembler5vcvtrENS0_9ConditionENS0_8DataTypeES3_NS0_9SRegisterENS0_9DRegisterE
_ZN4vixl7aarch3212Disassembler5vcvtrENS0_9ConditionENS0_8DataTypeES3_NS0_9SRegisterES4_
_ZN4vixl7aarch3212Disassembler5vcvttENS0_9ConditionENS0_8DataTypeES3_NS0_9DRegisterENS0_9SRegisterE
_ZN4vixl7aarch3212Disassembler5vcvttENS0_9ConditionENS0_8DataTypeES3_NS0_9SRegisterENS0_9DRegisterE
_ZN4vixl7aarch3212Disassembler5vcvttENS0_9ConditionENS0_8DataTypeES3_NS0_9SRegisterES4_
_ZN4vixl7aarch3212Disassembler5vfnmaENS0_9ConditionENS0_8DataTypeENS0_9DRegisterES4_S4_
_ZN4vixl7aarch3212Disassembler5vfnmaENS0_9ConditionENS0_8DataTypeENS0_9SRegisterES4_S4_
_ZN4vixl7aarch3212Disassembler5vfnmsENS0_9ConditionENS0_8DataTypeENS0_9DRegisterES4_S4_
_ZN4vixl7aarch3212Disassembler5vfnmsENS0_9ConditionENS0_8DataTypeENS0_9SRegisterES4_S4_
_ZN4vixl7aarch3212Disassembler5vhaddENS0_9ConditionENS0_8DataTypeENS0_9DRegisterES4_S4_
_ZN4vixl7aarch3212Disassembler5vhaddENS0_9ConditionENS0_8DataTypeENS0_9QRegisterES4_S4_
_ZN4vixl7aarch3212Disassembler5vhsubENS0_9ConditionENS0_8DataTypeENS0_9DRegisterES4_S4_
_ZN4vixl7aarch3212Disassembler5vhsubENS0_9ConditionENS0_8DataTypeENS0_9QRegisterES4_S4_
_ZN4vixl7aarch3212Disassembler5vmlalENS0_9ConditionENS0_8DataTypeENS0_9QRegisterENS0_9DRegisterENS0_13DRegisterLaneE
_ZN4vixl7aarch3212Disassembler5vmlalENS0_9ConditionENS0_8DataTypeENS0_9QRegisterENS0_9DRegisterES5_
_ZN4vixl7aarch3212Disassembler5vmlslENS0_9ConditionENS0_8DataTypeENS0_9QRegisterENS0_9DRegisterENS0_13DRegisterLaneE
_ZN4vixl7aarch3212Disassembler5vmlslENS0_9ConditionENS0_8DataTypeENS0_9QRegisterENS0_9DRegisterES5_
_ZN4vixl7aarch3212Disassembler5vmovlENS0_9ConditionENS0_8DataTypeENS0_9QRegisterENS0_9DRegisterE
_ZN4vixl7aarch3212Disassembler5vmovnENS0_9ConditionENS0_8DataTypeENS0_9DRegisterENS0_9QRegisterE
_ZN4vixl7aarch3212Disassembler5vmullENS0_9ConditionENS0_8DataTypeENS0_9QRegisterENS0_9DRegisterES5_
_ZN4vixl7aarch3212Disassembler5vmullENS0_9ConditionENS0_8DataTypeENS0_9QRegisterENS0_9DRegisterES5_j
_ZN4vixl7aarch3212Disassembler5vnmlaENS0_9ConditionENS0_8DataTypeENS0_9DRegisterES4_S4_
_ZN4vixl7aarch3212Disassembler5vnmlaENS0_9ConditionENS0_8DataTypeENS0_9SRegisterES4_S4_
_ZN4vixl7aarch3212Disassembler5vnmlsENS0_9ConditionENS0_8DataTypeENS0_9DRegisterES4_S4_
_ZN4vixl7aarch3212Disassembler5vnmlsENS0_9ConditionENS0_8DataTypeENS0_9SRegisterES4_S4_
_ZN4vixl7aarch3212Disassembler5vnmulENS0_9ConditionENS0_8DataTypeENS0_9DRegisterES4_S4_
_ZN4vixl7aarch3212Disassembler5vnmulENS0_9ConditionENS0_8DataTypeENS0_9SRegisterES4_S4_
_ZN4vixl7aarch3212Disassembler5vpaddENS0_9ConditionENS0_8DataTypeENS0_9DRegisterES4_S4_
_ZN4vixl7aarch3212Disassembler5vpmaxENS0_9ConditionENS0_8DataTypeENS0_9DRegisterES4_S4_
_ZN4vixl7aarch3212Disassembler5vpminENS0_9ConditionENS0_8DataTypeENS0_9DRegisterES4_S4_
_ZN4vixl7aarch3212Disassembler5vpushENS0_9ConditionENS0_8DataTypeENS0_13DRegisterListE
_ZN4vixl7aarch3212Disassembler5vpushENS0_9ConditionENS0_8DataTypeENS0_13SRegisterListE
_ZN4vixl7aarch3212Disassembler5vqabsENS0_9ConditionENS0_8DataTypeENS0_9DRegisterES4_
_ZN4vixl7aarch3212Disassembler5vqabsENS0_9ConditionENS0_8DataTypeENS0_9QRegisterES4_
_ZN4vixl7aarch3212Disassembler5vqaddENS0_9ConditionENS0_8DataTypeENS0_9DRegisterES4_S4_
_ZN4vixl7aarch3212Disassembler5vqaddENS0_9ConditionENS0_8DataTypeENS0_9QRegisterES4_S4_
_ZN4vixl7aarch3212Disassembler5vqnegENS0_9ConditionENS0_8DataTypeENS0_9DRegisterES4_
_ZN4vixl7aarch3212Disassembler5vqnegENS0_9ConditionENS0_8DataTypeENS0_9QRegisterES4_
_ZN4vixl7aarch3212Disassembler5vqshlENS0_9ConditionENS0_8DataTypeENS0_9DRegisterES4_RKNS0_8DOperandE
_ZN4vixl7aarch3212Disassembler5vqshlENS0_9ConditionENS0_8DataTypeENS0_9QRegisterES4_RKNS0_8QOperandE
_ZN4vixl7aarch3212Disassembler5vqsubENS0_9ConditionENS0_8DataTypeENS0_9DRegisterES4_S4_
_ZN4vixl7aarch3212Disassembler5vqsubENS0_9ConditionENS0_8DataTypeENS0_9QRegisterES4_S4_
_ZN4vixl7aarch3212Disassembler5vrshlENS0_9ConditionENS0_8DataTypeENS0_9DRegisterES4_S4_
_ZN4vixl7aarch3212Disassembler5vrshlENS0_9ConditionENS0_8DataTypeENS0_9QRegisterES4_S4_
_ZN4vixl7aarch3212Disassembler5vrshrENS0_9ConditionENS0_8DataTypeENS0_9DRegisterES4_RKNS0_8DOperandE
_ZN4vixl7aarch3212Disassembler5vrshrENS0_9ConditionENS0_8DataTypeENS0_9QRegisterES4_RKNS0_8QOperandE
_ZN4vixl7aarch3212Disassembler5vrsraENS0_9ConditionENS0_8DataTypeENS0_9DRegisterES4_RKNS0_8DOperandE
_ZN4vixl7aarch3212Disassembler5vrsraENS0_9ConditionENS0_8DataTypeENS0_9QRegisterES4_RKNS0_8QOperandE
_ZN4vixl7aarch3212Disassembler5vshllENS0_9ConditionENS0_8DataTypeENS0_9QRegisterENS0_9DRegisterERKNS0_8DOperandE
_ZN4vixl7aarch3212Disassembler5vshrnENS0_9ConditionENS0_8DataTypeENS0_9DRegisterENS0_9QRegisterERKNS0_8QOperandE
_ZN4vixl7aarch3212Disassembler5vsqrtENS0_9ConditionENS0_8DataTypeENS0_9DRegisterES4_
_ZN4vixl7aarch3212Disassembler5vsqrtENS0_9ConditionENS0_8DataTypeENS0_9SRegisterES4_
_ZN4vixl7aarch3212Disassembler5vsublENS0_9ConditionENS0_8DataTypeENS0_9QRegisterENS0_9DRegisterES5_
_ZN4vixl7aarch3212Disassembler5vsubwENS0_9ConditionENS0_8DataTypeENS0_9QRegisterES4_NS0_9DRegisterE
_ZN4vixl7aarch3212Disassembler5yieldENS0_9ConditionENS0_12EncodingSizeE
_ZN4vixl7aarch3212Disassembler6crc32bENS0_9ConditionENS0_8RegisterES3_S3_
_ZN4vixl7aarch3212Disassembler6crc32hENS0_9ConditionENS0_8RegisterES3_S3_
_ZN4vixl7aarch3212Disassembler6crc32wENS0_9ConditionENS0_8RegisterES3_S3_
_ZN4vixl7aarch3212Disassembler6ldaexbENS0_9ConditionENS0_8RegisterERKNS0_10MemOperandE
_ZN4vixl7aarch3212Disassembler6ldaexdENS0_9ConditionENS0_8RegisterES3_RKNS0_10MemOperandE
_ZN4vixl7aarch3212Disassembler6ldaexhENS0_9ConditionENS0_8RegisterERKNS0_10MemOperandE
_ZN4vixl7aarch3212Disassembler6ldrexbENS0_9ConditionENS0_8RegisterERKNS0_10MemOperandE
_ZN4vixl7aarch3212Disassembler6ldrexdENS0_9ConditionENS0_8RegisterES3_RKNS0_10MemOperandE
_ZN4vixl7aarch3212Disassembler6ldrexhENS0_9ConditionENS0_8RegisterERKNS0_10MemOperandE
_ZN4vixl7aarch3212Disassembler6qadd16ENS0_9ConditionENS0_8RegisterES3_S3_
_ZN4vixl7aarch3212Disassembler6qsub16ENS0_9ConditionENS0_8RegisterES3_S3_
_ZN4vixl7aarch3212Disassembler6sadd16ENS0_9ConditionENS0_8RegisterES3_S3_
_ZN4vixl7aarch3212Disassembler6shadd8ENS0_9ConditionENS0_8RegisterES3_S3_
_ZN4vixl7aarch3212Disassembler6shsub8ENS0_9ConditionENS0_8RegisterES3_S3_
_ZN4vixl7aarch3212Disassembler6smlabbENS0_9ConditionENS0_8RegisterES3_S3_S3_
_ZN4vixl7aarch3212Disassembler6smlabtENS0_9ConditionENS0_8RegisterES3_S3_S3_
_ZN4vixl7aarch3212Disassembler6smladxENS0_9ConditionENS0_8RegisterES3_S3_S3_
_ZN4vixl7aarch3212Disassembler6smlaldENS0_9ConditionENS0_8RegisterES3_S3_S3_
_ZN4vixl7aarch3212Disassembler6smlalsENS0_9ConditionENS0_8RegisterES3_S3_S3_
_ZN4vixl7aarch3212Disassembler6smlatbENS0_9ConditionENS0_8RegisterES3_S3_S3_
_ZN4vixl7aarch3212Disassembler6smlattENS0_9ConditionENS0_8RegisterES3_S3_S3_
_ZN4vixl7aarch3212Disassembler6smlawbENS0_9ConditionENS0_8RegisterES3_S3_S3_
_ZN4vixl7aarch3212Disassembler6smlawtENS0_9ConditionENS0_8RegisterES3_S3_S3_
_ZN4vixl7aarch3212Disassembler6smlsdxENS0_9ConditionENS0_8RegisterES3_S3_S3_
_ZN4vixl7aarch3212Disassembler6smlsldENS0_9ConditionENS0_8RegisterES3_S3_S3_
_ZN4vixl7aarch3212Disassembler6smmlarENS0_9ConditionENS0_8RegisterES3_S3_S3_
_ZN4vixl7aarch3212Disassembler6smmlsrENS0_9ConditionENS0_8RegisterES3_S3_S3_
_ZN4vixl7aarch3212Disassembler6smmulrENS0_9ConditionENS0_8RegisterES3_S3_
_ZN4vixl7aarch3212Disassembler6smuadxENS0_9ConditionENS0_8RegisterES3_S3_
_ZN4vixl7aarch3212Disassembler6smulbbENS0_9ConditionENS0_8RegisterES3_S3_
_ZN4vixl7aarch3212Disassembler6smulbtENS0_9ConditionENS0_8RegisterES3_S3_
_ZN4vixl7aarch3212Disassembler6smullsENS0_9ConditionENS0_8RegisterES3_S3_S3_
_ZN4vixl7aarch3212Disassembler6smultbENS0_9ConditionENS0_8RegisterES3_S3_
_ZN4vixl7aarch3212Disassembler6smulttENS0_9ConditionENS0_8RegisterES3_S3_
_ZN4vixl7aarch3212Disassembler6smulwbENS0_9ConditionENS0_8RegisterES3_S3_
_ZN4vixl7aarch3212Disassembler6smulwtENS0_9ConditionENS0_8RegisterES3_S3_
_ZN4vixl7aarch3212Disassembler6smusdxENS0_9ConditionENS0_8RegisterES3_S3_
_ZN4vixl7aarch3212Disassembler6ssat16ENS0_9ConditionENS0_8RegisterEjS3_
_ZN4vixl7aarch3212Disassembler6ssub16ENS0_9ConditionENS0_8RegisterES3_S3_
_ZN4vixl7aarch3212Disassembler6stlexbENS0_9ConditionENS0_8RegisterES3_RKNS0_10MemOperandE
_ZN4vixl7aarch3212Disassembler6stlexdENS0_9ConditionENS0_8RegisterES3_S3_RKNS0_10MemOperandE
_ZN4vixl7aarch3212Disassembler6stlexhENS0_9ConditionENS0_8RegisterES3_RKNS0_10MemOperandE
_ZN4vixl7aarch3212Disassembler6strexbENS0_9ConditionENS0_8RegisterES3_RKNS0_10MemOperandE
_ZN4vixl7aarch3212Disassembler6strexdENS0_9ConditionENS0_8RegisterES3_S3_RKNS0_10MemOperandE
_ZN4vixl7aarch3212Disassembler6strexhENS0_9ConditionENS0_8RegisterES3_RKNS0_10MemOperandE
_ZN4vixl7aarch3212Disassembler6sxtb16ENS0_9ConditionENS0_8RegisterERKNS0_7OperandE
_ZN4vixl7aarch3212Disassembler6uadd16ENS0_9ConditionENS0_8RegisterES3_S3_
_ZN4vixl7aarch3212Disassembler6uhadd8ENS0_9ConditionENS0_8RegisterES3_S3_
_ZN4vixl7aarch3212Disassembler6uhsub8ENS0_9ConditionENS0_8RegisterES3_S3_
_ZN4vixl7aarch3212Disassembler6umlalsENS0_9ConditionENS0_8RegisterES3_S3_S3_
_ZN4vixl7aarch3212Disassembler6umullsENS0_9ConditionENS0_8RegisterES3_S3_S3_
_ZN4vixl7aarch3212Disassembler6uqadd8ENS0_9ConditionENS0_8RegisterES3_S3_
_ZN4vixl7aarch3212Disassembler6uqsub8ENS0_9ConditionENS0_8RegisterES3_S3_
_ZN4vixl7aarch3212Disassembler6usada8ENS0_9ConditionENS0_8RegisterES3_S3_S3_
_ZN4vixl7aarch3212Disassembler6usat16ENS0_9ConditionENS0_8RegisterEjS3_
_ZN4vixl7aarch3212Disassembler6usub16ENS0_9ConditionENS0_8RegisterES3_S3_
_ZN4vixl7aarch3212Disassembler6uxtb16ENS0_9ConditionENS0_8RegisterERKNS0_7OperandE
_ZN4vixl7aarch3212Disassembler6vaddhnENS0_9ConditionENS0_8DataTypeENS0_9DRegisterENS0_9QRegisterES5_
_ZN4vixl7aarch3212Disassembler6vldmdbENS0_9ConditionENS0_8DataTypeENS0_8RegisterENS0_9WriteBackENS0_13DRegisterListE
_ZN4vixl7aarch3212Disassembler6vldmdbENS0_9ConditionENS0_8DataTypeENS0_8RegisterENS0_9WriteBackENS0_13SRegisterListE
_ZN4vixl7aarch3212Disassembler6vldmiaENS0_9ConditionENS0_8DataTypeENS0_8RegisterENS0_9WriteBackENS0_13DRegisterListE
_ZN4vixl7aarch3212Disassembler6vldmiaENS0_9ConditionENS0_8DataTypeENS0_8RegisterENS0_9WriteBackENS0_13SRegisterListE
_ZN4vixl7aarch3212Disassembler6vmaxnmENS0_8DataTypeENS0_9DRegisterES3_S3_
_ZN4vixl7aarch3212Disassembler6vmaxnmENS0_8DataTypeENS0_9QRegisterES3_S3_
_ZN4vixl7aarch3212Disassembler6vmaxnmENS0_8DataTypeENS0_9SRegisterES3_S3_
_ZN4vixl7aarch3212Disassembler6vminnmENS0_8DataTypeENS0_9DRegisterES3_S3_
_ZN4vixl7aarch3212Disassembler6vminnmENS0_8DataTypeENS0_9QRegisterES3_S3_
_ZN4vixl7aarch3212Disassembler6vminnmENS0_8DataTypeENS0_9SRegisterES3_S3_
_ZN4vixl7aarch3212Disassembler6vpadalENS0_9ConditionENS0_8DataTypeENS0_9DRegisterES4_
_ZN4vixl7aarch3212Disassembler6vpadalENS0_9ConditionENS0_8DataTypeENS0_9QRegisterES4_
_ZN4vixl7aarch3212Disassembler6vpaddlENS0_9ConditionENS0_8DataTypeENS0_9DRegisterES4_
_ZN4vixl7aarch3212Disassembler6vpaddlENS0_9ConditionENS0_8DataTypeENS0_9QRegisterES4_
_ZN4vixl7aarch3212Disassembler6vqmovnENS0_9ConditionENS0_8DataTypeENS0_9DRegisterENS0_9QRegisterE
_ZN4vixl7aarch3212Disassembler6vqrshlENS0_9ConditionENS0_8DataTypeENS0_9DRegisterES4_S4_
_ZN4vixl7aarch3212Disassembler6vqrshlENS0_9ConditionENS0_8DataTypeENS0_9QRegisterES4_S4_
_ZN4vixl7aarch3212Disassembler6vqshluENS0_9ConditionENS0_8DataTypeENS0_9DRegisterES4_RKNS0_8DOperandE
_ZN4vixl7aarch3212Disassembler6vqshluENS0_9ConditionENS0_8DataTypeENS0_9QRegisterES4_RKNS0_8QOperandE
_ZN4vixl7aarch3212Disassembler6vqshrnENS0_9ConditionENS0_8DataTypeENS0_9DRegisterENS0_9QRegisterERKNS0_8QOperandE
_ZN4vixl7aarch3212Disassembler6vrecpeENS0_9ConditionENS0_8DataTypeENS0_9DRegisterES4_
_ZN4vixl7aarch3212Disassembler6vrecpeENS0_9ConditionENS0_8DataTypeENS0_9QRegisterES4_
_ZN4vixl7aarch3212Disassembler6vrecpsENS0_9ConditionENS0_8DataTypeENS0_9DRegisterES4_S4_
_ZN4vixl7aarch3212Disassembler6vrecpsENS0_9ConditionENS0_8DataTypeENS0_9QRegisterES4_S4_
_ZN4vixl7aarch3212Disassembler6vrev16ENS0_9ConditionENS0_8DataTypeENS0_9DRegisterES4_
_ZN4vixl7aarch3212Disassembler6vrev16ENS0_9ConditionENS0_8DataTypeENS0_9QRegisterES4_
_ZN4vixl7aarch3212Disassembler6vrev32ENS0_9ConditionENS0_8DataTypeENS0_9DRegisterES4_
_ZN4vixl7aarch3212Disassembler6vrev32ENS0_9ConditionENS0_8DataTypeENS0_9QRegisterES4_
_ZN4vixl7aarch3212Disassembler6vrev64ENS0_9ConditionENS0_8DataTypeENS0_9DRegisterES4_
_ZN4vixl7aarch3212Disassembler6vrev64ENS0_9ConditionENS0_8DataTypeENS0_9QRegisterES4_
_ZN4vixl7aarch3212Disassembler6vrhaddENS0_9ConditionENS0_8DataTypeENS0_9DRegisterES4_S4_
_ZN4vixl7aarch3212Disassembler6vrhaddENS0_9ConditionENS0_8DataTypeENS0_9QRegisterES4_S4_
_ZN4vixl7aarch3212Disassembler6vrintaENS0_8DataTypeES2_NS0_9DRegisterES3_
_ZN4vixl7aarch3212Disassembler6vrintaENS0_8DataTypeES2_NS0_9QRegisterES3_
_ZN4vixl7aarch3212Disassembler6vrintaENS0_8DataTypeES2_NS0_9SRegisterES3_
_ZN4vixl7aarch3212Disassembler6vrintmENS0_8DataTypeES2_NS0_9DRegisterES3_
_ZN4vixl7aarch3212Disassembler6vrintmENS0_8DataTypeES2_NS0_9QRegisterES3_
_ZN4vixl7aarch3212Disassembler6vrintmENS0_8DataTypeES2_NS0_9SRegisterES3_
_ZN4vixl7aarch3212Disassembler6vrintnENS0_8DataTypeES2_NS0_9DRegisterES3_
_ZN4vixl7aarch3212Disassembler6vrintnENS0_8DataTypeES2_NS0_9QRegisterES3_
_ZN4vixl7aarch3212Disassembler6vrintnENS0_8DataTypeES2_NS0_9SRegisterES3_
_ZN4vixl7aarch3212Disassembler6vrintpENS0_8DataTypeES2_NS0_9DRegisterES3_
_ZN4vixl7aarch3212Disassembler6vrintpENS0_8DataTypeES2_NS0_9QRegisterES3_
_ZN4vixl7aarch3212Disassembler6vrintpENS0_8DataTypeES2_NS0_9SRegisterES3_
_ZN4vixl7aarch3212Disassembler6vrintrENS0_9ConditionENS0_8DataTypeES3_NS0_9DRegisterES4_
_ZN4vixl7aarch3212Disassembler6vrintrENS0_9ConditionENS0_8DataTypeES3_NS0_9SRegisterES4_
_ZN4vixl7aarch3212Disassembler6vrintxENS0_8DataTypeES2_NS0_9QRegisterES3_
_ZN4vixl7aarch3212Disassembler6vrintxENS0_9ConditionENS0_8DataTypeES3_NS0_9DRegisterES4_
_ZN4vixl7aarch3212Disassembler6vrintxENS0_9ConditionENS0_8DataTypeES3_NS0_9SRegisterES4_
_ZN4vixl7aarch3212Disassembler6vrintzENS0_8DataTypeES2_NS0_9QRegisterES3_
_ZN4vixl7aarch3212Disassembler6vrintzENS0_9ConditionENS0_8DataTypeES3_NS0_9DRegisterES4_
_ZN4vixl7aarch3212Disassembler6vrintzENS0_9ConditionENS0_8DataTypeES3_NS0_9SRegisterES4_
_ZN4vixl7aarch3212Disassembler6vrshrnENS0_9ConditionENS0_8DataTypeENS0_9DRegisterENS0_9QRegisterERKNS0_8QOperandE
_ZN4vixl7aarch3212Disassembler6vseleqENS0_8DataTypeENS0_9DRegisterES3_S3_
_ZN4vixl7aarch3212Disassembler6vseleqENS0_8DataTypeENS0_9SRegisterES3_S3_
_ZN4vixl7aarch3212Disassembler6vselgeENS0_8DataTypeENS0_9DRegisterES3_S3_
_ZN4vixl7aarch3212Disassembler6vselgeENS0_8DataTypeENS0_9SRegisterES3_S3_
_ZN4vixl7aarch3212Disassembler6vselgtENS0_8DataTypeENS0_9DRegisterES3_S3_
_ZN4vixl7aarch3212Disassembler6vselgtENS0_8DataTypeENS0_9SRegisterES3_S3_
_ZN4vixl7aarch3212Disassembler6vselvsENS0_8DataTypeENS0_9DRegisterES3_S3_
_ZN4vixl7aarch3212Disassembler6vselvsENS0_8DataTypeENS0_9SRegisterES3_S3_
_ZN4vixl7aarch3212Disassembler6vstmdbENS0_9ConditionENS0_8DataTypeENS0_8RegisterENS0_9WriteBackENS0_13DRegisterListE
_ZN4vixl7aarch3212Disassembler6vstmdbENS0_9ConditionENS0_8DataTypeENS0_8RegisterENS0_9WriteBackENS0_13SRegisterListE
_ZN4vixl7aarch3212Disassembler6vstmiaENS0_9ConditionENS0_8DataTypeENS0_8RegisterENS0_9WriteBackENS0_13DRegisterListE
_ZN4vixl7aarch3212Disassembler6vstmiaENS0_9ConditionENS0_8DataTypeENS0_8RegisterENS0_9WriteBackENS0_13SRegisterListE
_ZN4vixl7aarch3212Disassembler6vsubhnENS0_9ConditionENS0_8DataTypeENS0_9DRegisterENS0_9QRegisterES5_
_ZN4vixl7aarch3212Disassembler7T32SizeEj
_ZN4vixl7aarch3212Disassembler7crc32cbENS0_9ConditionENS0_8RegisterES3_S3_
_ZN4vixl7aarch3212Disassembler7crc32chENS0_9ConditionENS0_8RegisterES3_S3_
_ZN4vixl7aarch3212Disassembler7crc32cwENS0_9ConditionENS0_8RegisterES3_S3_
_ZN4vixl7aarch3212Disassembler7fldmdbxENS0_9ConditionENS0_8RegisterENS0_9WriteBackENS0_13DRegisterListE
_ZN4vixl7aarch3212Disassembler7fldmiaxENS0_9ConditionENS0_8RegisterENS0_9WriteBackENS0_13DRegisterListE
_ZN4vixl7aarch3212Disassembler7fstmdbxENS0_9ConditionENS0_8RegisterENS0_9WriteBackENS0_13DRegisterListE
_ZN4vixl7aarch3212Disassembler7fstmiaxENS0_9ConditionENS0_8RegisterENS0_9WriteBackENS0_13DRegisterListE
_ZN4vixl7aarch3212Disassembler7shadd16ENS0_9ConditionENS0_8RegisterES3_S3_
_ZN4vixl7aarch3212Disassembler7shsub16ENS0_9ConditionENS0_8RegisterES3_S3_
_ZN4vixl7aarch3212Disassembler7smlalbbENS0_9ConditionENS0_8RegisterES3_S3_S3_
_ZN4vixl7aarch3212Disassembler7smlalbtENS0_9ConditionENS0_8RegisterES3_S3_S3_
_ZN4vixl7aarch3212Disassembler7smlaldxENS0_9ConditionENS0_8RegisterES3_S3_S3_
_ZN4vixl7aarch3212Disassembler7smlaltbENS0_9ConditionENS0_8RegisterES3_S3_S3_
_ZN4vixl7aarch3212Disassembler7smlalttENS0_9ConditionENS0_8RegisterES3_S3_S3_
_ZN4vixl7aarch3212Disassembler7smlsldxENS0_9ConditionENS0_8RegisterES3_S3_S3_
_ZN4vixl7aarch3212Disassembler7sxtab16ENS0_9ConditionENS0_8RegisterES3_RKNS0_7OperandE
_ZN4vixl7aarch3212Disassembler7uhadd16ENS0_9ConditionENS0_8RegisterES3_S3_
_ZN4vixl7aarch3212Disassembler7uhsub16ENS0_9ConditionENS0_8RegisterES3_S3_
_ZN4vixl7aarch3212Disassembler7uqadd16ENS0_9ConditionENS0_8RegisterES3_S3_
_ZN4vixl7aarch3212Disassembler7uqsub16ENS0_9ConditionENS0_8RegisterES3_S3_
_ZN4vixl7aarch3212Disassembler7uxtab16ENS0_9ConditionENS0_8RegisterES3_RKNS0_7OperandE
_ZN4vixl7aarch3212Disassembler7vqdmlalENS0_9ConditionENS0_8DataTypeENS0_9QRegisterENS0_9DRegisterES5_
_ZN4vixl7aarch3212Disassembler7vqdmlalENS0_9ConditionENS0_8DataTypeENS0_9QRegisterENS0_9DRegisterES5_j
_ZN4vixl7aarch3212Disassembler7vqdmlslENS0_9ConditionENS0_8DataTypeENS0_9QRegisterENS0_9DRegisterES5_
_ZN4vixl7aarch3212Disassembler7vqdmlslENS0_9ConditionENS0_8DataTypeENS0_9QRegisterENS0_9DRegisterES5_j
_ZN4vixl7aarch3212Disassembler7vqdmulhENS0_9ConditionENS0_8DataTypeENS0_9DRegisterES4_NS0_13DRegisterLaneE
_ZN4vixl7aarch3212Disassembler7vqdmulhENS0_9ConditionENS0_8DataTypeENS0_9DRegisterES4_S4_
_ZN4vixl7aarch3212Disassembler7vqdmulhENS0_9ConditionENS0_8DataTypeENS0_9QRegisterES4_NS0_13DRegisterLaneE
_ZN4vixl7aarch3212Disassembler7vqdmulhENS0_9ConditionENS0_8DataTypeENS0_9QRegisterES4_S4_
_ZN4vixl7aarch3212Disassembler7vqdmullENS0_9ConditionENS0_8DataTypeENS0_9QRegisterENS0_9DRegisterENS0_13DRegisterLaneE
_ZN4vixl7aarch3212Disassembler7vqdmullENS0_9ConditionENS0_8DataTypeENS0_9QRegisterENS0_9DRegisterES5_
_ZN4vixl7aarch3212Disassembler7vqmovunENS0_9ConditionENS0_8DataTypeENS0_9DRegisterENS0_9QRegisterE
_ZN4vixl7aarch3212Disassembler7vqrshrnENS0_9ConditionENS0_8DataTypeENS0_9DRegisterENS0_9QRegisterERKNS0_8QOperandE
_ZN4vixl7aarch3212Disassembler7vqshrunENS0_9ConditionENS0_8DataTypeENS0_9DRegisterENS0_9QRegisterERKNS0_8QOperandE
_ZN4vixl7aarch3212Disassembler7vraddhnENS0_9ConditionENS0_8DataTypeENS0_9DRegisterENS0_9QRegisterES5_
_ZN4vixl7aarch3212Disassembler7vrsqrteENS0_9ConditionENS0_8DataTypeENS0_9DRegisterES4_
_ZN4vixl7aarch3212Disassembler7vrsqrteENS0_9ConditionENS0_8DataTypeENS0_9QRegisterES4_
_ZN4vixl7aarch3212Disassembler7vrsqrtsENS0_9ConditionENS0_8DataTypeENS0_9DRegisterES4_S4_
_ZN4vixl7aarch3212Disassembler7vrsqrtsENS0_9ConditionENS0_8DataTypeENS0_9QRegisterES4_S4_
_ZN4vixl7aarch3212Disassembler7vrsubhnENS0_9ConditionENS0_8DataTypeENS0_9DRegisterENS0_9QRegisterES5_
_ZN4vixl7aarch3212Disassembler8vqrdmulhENS0_9ConditionENS0_8DataTypeENS0_9DRegisterES4_NS0_13DRegisterLaneE
_ZN4vixl7aarch3212Disassembler8vqrdmulhENS0_9ConditionENS0_8DataTypeENS0_9DRegisterES4_S4_
_ZN4vixl7aarch3212Disassembler8vqrdmulhENS0_9ConditionENS0_8DataTypeENS0_9QRegisterES4_NS0_13DRegisterLaneE
_ZN4vixl7aarch3212Disassembler8vqrdmulhENS0_9ConditionENS0_8DataTypeENS0_9QRegisterES4_S4_
_ZN4vixl7aarch3212Disassembler8vqrshrunENS0_9ConditionENS0_8DataTypeENS0_9DRegisterENS0_9QRegisterERKNS0_8QOperandE
_ZN4vixl7aarch3212Disassembler9DecodeA32Ej
_ZN4vixl7aarch3212Disassembler9DecodeT32Ej
_ZN4vixl7aarch3212Dt_U_imm3H_1C1ENS0_8DataTypeE
_ZN4vixl7aarch3212Dt_U_imm3H_1C2ENS0_8DataTypeE
_ZN4vixl7aarch3212Dt_op_size_1C1ENS0_8DataTypeE
_ZN4vixl7aarch3212Dt_op_size_1C2ENS0_8DataTypeE
_ZN4vixl7aarch3212Dt_op_size_2C1ENS0_8DataTypeE
_ZN4vixl7aarch3212Dt_op_size_2C2ENS0_8DataTypeE
_ZN4vixl7aarch3212Dt_op_size_3C1ENS0_8DataTypeE
_ZN4vixl7aarch3212Dt_op_size_3C2ENS0_8DataTypeE
_ZN4vixl7aarch3212ImmediateA3214IsImmediateA32Ej
_ZN4vixl7aarch3212ImmediateA326DecodeEj
_ZN4vixl7aarch3212ImmediateA32C1Ej
_ZN4vixl7aarch3212ImmediateA32C2Ej
_ZN4vixl7aarch3212ImmediateT3214IsImmediateT32Ej
_ZN4vixl7aarch3212ImmediateT326DecodeEj
_ZN4vixl7aarch3212ImmediateT32C1Ej
_ZN4vixl7aarch3212ImmediateT32C2Ej
_ZN4vixl7aarch3213Align_align_1C1ENS0_9AlignmentERKNS0_16NeonRegisterListE
_ZN4vixl7aarch3213Align_align_1C2ENS0_9AlignmentERKNS0_16NeonRegisterListE
_ZN4vixl7aarch3213Align_align_2C1ENS0_9AlignmentERKNS0_16NeonRegisterListE
_ZN4vixl7aarch3213Align_align_2C2ENS0_9AlignmentERKNS0_16NeonRegisterListE
_ZN4vixl7aarch3213Align_align_3C1ENS0_9AlignmentE
_ZN4vixl7aarch3213Align_align_3C2ENS0_9AlignmentE
_ZN4vixl7aarch3213Align_align_4C1ENS0_9AlignmentE
_ZN4vixl7aarch3213Align_align_4C2ENS0_9AlignmentE
_ZN4vixl7aarch3213Align_align_5C1ENS0_9AlignmentERKNS0_16NeonRegisterListE
_ZN4vixl7aarch3213Align_align_5C2ENS0_9AlignmentERKNS0_16NeonRegisterListE
_ZN4vixl7aarch3213ImmediateVbic15DecodeImmediateEjj
_ZN4vixl7aarch3213ImmediateVbic8DecodeDtEj
_ZN4vixl7aarch3213ImmediateVbicC1ENS0_8DataTypeERKNS0_13NeonImmediateE
_ZN4vixl7aarch3213ImmediateVbicC2ENS0_8DataTypeERKNS0_13NeonImmediateE
_ZN4vixl7aarch3213ImmediateVmov15DecodeImmediateEjj
_ZN4vixl7aarch3213ImmediateVmov8DecodeDtEj
_ZN4vixl7aarch3213ImmediateVmovC1ENS0_8DataTypeERKNS0_13NeonImmediateE
_ZN4vixl7aarch3213ImmediateVmovC2ENS0_8DataTypeERKNS0_13NeonImmediateE
_ZN4vixl7aarch3213ImmediateVmvn15DecodeImmediateEjj
_ZN4vixl7aarch3213ImmediateVmvn8DecodeDtEj
_ZN4vixl7aarch3213ImmediateVmvnC1ENS0_8DataTypeERKNS0_13NeonImmediateE
_ZN4vixl7aarch3213ImmediateVmvnC2ENS0_8DataTypeERKNS0_13NeonImmediateE
_ZN4vixl7aarch3213ImmediateVorr15DecodeImmediateEjj
_ZN4vixl7aarch3213ImmediateVorr8DecodeDtEj
_ZN4vixl7aarch3213ImmediateVorrC1ENS0_8DataTypeERKNS0_13NeonImmediateE
_ZN4vixl7aarch3213ImmediateVorrC2ENS0_8DataTypeERKNS0_13NeonImmediateE
_ZN4vixl7aarch3214Dt_op_2_DecodeEj
_ZN4vixl7aarch3214Dt_op_3_DecodeEj
_ZN4vixl7aarch3214Dt_op_U_size_1C1ENS0_8DataTypeE
_ZN4vixl7aarch3214Dt_op_U_size_1C2ENS0_8DataTypeE
_ZN4vixl7aarch3214Dt_opc1_opc2_1C1ENS0_8DataTypeERKNS0_13DRegisterLaneE
_ZN4vixl7aarch3214Dt_opc1_opc2_1C2ENS0_8DataTypeERKNS0_13DRegisterLaneE
_ZN4vixl7aarch3214Dt_sz_1_DecodeEj
_ZN4vixl7aarch3214Index_1_DecodeEjNS0_8DataTypeE
_ZN4vixl7aarch3214MacroAssembler12PushRegisterENS0_11CPURegisterE
_ZN4vixl7aarch3214MacroAssembler13GetOffsetMaskENS0_15InstructionTypeENS0_8AddrModeE
_ZN4vixl7aarch3214MacroAssembler18EnsureEmitPoolsForEm
_ZN4vixl7aarch3214MacroAssembler21PreparePrintfArgumentENS0_11CPURegisterEPiS3_Pj
_ZN4vixl7aarch3214MacroAssembler24GenerateSplitInstructionEMNS0_9AssemblerEFvNS0_9ConditionENS0_12EncodingSizeENS0_8RegisterES5_RKNS0_7OperandEES3_S5_S5_jj
_ZN4vixl7aarch3214MacroAssembler26HandleOutOfBoundsImmediateENS0_9ConditionENS0_8RegisterEj
_ZN4vixl7aarch3214MacroAssembler27MemOperandComputationHelperENS0_9ConditionENS0_8RegisterES3_jj
_ZN4vixl7aarch3214MacroAssembler6PrintfEPKcNS0_11CPURegisterES4_S4_S4_
_ZN4vixl7aarch3214MacroAssembler8DelegateENS0_15InstructionTypeEMNS0_9AssemblerEFvNS0_8RegisterEPNS0_8LocationEES4_S6_
_ZN4vixl7aarch3214MacroAssembler8DelegateENS0_15InstructionTypeEMNS0_9AssemblerEFvNS0_9ConditionENS0_12EncodingSizeENS0_8RegisterEPNS0_8LocationEES4_S5_S6_S8_
_ZN4vixl7aarch3214MacroAssembler8DelegateENS0_15InstructionTypeEMNS0_9AssemblerEFvNS0_9ConditionENS0_12EncodingSizeENS0_8RegisterERKNS0_10MemOperandEES4_S5_S6_S9_
_ZN4vixl7aarch3214MacroAssembler8DelegateENS0_15InstructionTypeEMNS0_9AssemblerEFvNS0_9ConditionENS0_12EncodingSizeENS0_8RegisterERKNS0_7OperandEES4_S5_S6_S9_
_ZN4vixl7aarch3214MacroAssembler8DelegateENS0_15InstructionTypeEMNS0_9AssemblerEFvNS0_9ConditionENS0_12EncodingSizeENS0_8RegisterES6_RKNS0_7OperandEES4_S5_S6_S6_S9_
_ZN4vixl7aarch3214MacroAssembler8DelegateENS0_15InstructionTypeEMNS0_9AssemblerEFvNS0_9ConditionENS0_21MaskedSpecialRegisterERKNS0_7OperandEES4_S5_S8_
_ZN4vixl7aarch3214MacroAssembler8DelegateENS0_15InstructionTypeEMNS0_9AssemblerEFvNS0_9ConditionENS0_8DataTypeENS0_9DRegisterEPNS0_8LocationEES4_S5_S6_S8_
_ZN4vixl7aarch3214MacroAssembler8DelegateENS0_15InstructionTypeEMNS0_9AssemblerEFvNS0_9ConditionENS0_8DataTypeENS0_9DRegisterERKNS0_10MemOperandEES4_S5_S6_S9_
_ZN4vixl7aarch3214MacroAssembler8DelegateENS0_15InstructionTypeEMNS0_9AssemblerEFvNS0_9ConditionENS0_8DataTypeENS0_9DRegisterERKNS0_8DOperandEES4_S5_S6_S9_
_ZN4vixl7aarch3214MacroAssembler8DelegateENS0_15InstructionTypeEMNS0_9AssemblerEFvNS0_9ConditionENS0_8DataTypeENS0_9QRegisterERKNS0_8QOperandEES4_S5_S6_S9_
_ZN4vixl7aarch3214MacroAssembler8DelegateENS0_15InstructionTypeEMNS0_9AssemblerEFvNS0_9ConditionENS0_8DataTypeENS0_9SRegisterEPNS0_8LocationEES4_S5_S6_S8_
_ZN4vixl7aarch3214MacroAssembler8DelegateENS0_15InstructionTypeEMNS0_9AssemblerEFvNS0_9ConditionENS0_8DataTypeENS0_9SRegisterERKNS0_10MemOperandEES4_S5_S6_S9_
_ZN4vixl7aarch3214MacroAssembler8DelegateENS0_15InstructionTypeEMNS0_9AssemblerEFvNS0_9ConditionENS0_8DataTypeENS0_9SRegisterERKNS0_8SOperandEES4_S5_S6_S9_
_ZN4vixl7aarch3214MacroAssembler8DelegateENS0_15InstructionTypeEMNS0_9AssemblerEFvNS0_9ConditionENS0_8RegisterEPNS0_8LocationEES4_S5_S7_
_ZN4vixl7aarch3214MacroAssembler8DelegateENS0_15InstructionTypeEMNS0_9AssemblerEFvNS0_9ConditionENS0_8RegisterERKNS0_7OperandEES4_S5_S8_
_ZN4vixl7aarch3214MacroAssembler8DelegateENS0_15InstructionTypeEMNS0_9AssemblerEFvNS0_9ConditionENS0_8RegisterES5_PNS0_8LocationEES4_S5_S5_S7_
_ZN4vixl7aarch3214MacroAssembler8DelegateENS0_15InstructionTypeEMNS0_9AssemblerEFvNS0_9ConditionENS0_8RegisterES5_RKNS0_10MemOperandEES4_S5_S5_S8_
_ZN4vixl7aarch3214MacroAssembler8DelegateENS0_15InstructionTypeEMNS0_9AssemblerEFvNS0_9ConditionENS0_8RegisterES5_RKNS0_7OperandEES4_S5_S5_S8_
_ZN4vixl7aarch3215Dt_B_E_1_DecodeEj
_ZN4vixl7aarch3215Dt_op_1_Decode1Ej
_ZN4vixl7aarch3215Dt_op_1_Decode2Ej
_ZN4vixl7aarch3216Align_a_1_DecodeEjNS0_8DataTypeE
_ZN4vixl7aarch3216Align_a_2_DecodeEjNS0_8DataTypeE
_ZN4vixl7aarch3216Align_a_3_DecodeEjNS0_8DataTypeEj
_ZN4vixl7aarch3216Dt_U_opc1_opc2_1C1ENS0_8DataTypeERKNS0_13DRegisterLaneE
_ZN4vixl7aarch3216Dt_U_opc1_opc2_1C2ENS0_8DataTypeERKNS0_13DRegisterLaneE
_ZN4vixl7aarch3216Dt_U_sx_1_DecodeEj
_ZN4vixl7aarch3216Dt_imm4_1_DecodeEjPj
_ZN4vixl7aarch3216Dt_imm6_1_DecodeEjj
_ZN4vixl7aarch3216Dt_imm6_2_DecodeEjj
_ZN4vixl7aarch3216Dt_imm6_3_DecodeEj
_ZN4vixl7aarch3216Dt_imm6_4_DecodeEjj
_ZN4vixl7aarch3216Dt_size_1_DecodeEj
_ZN4vixl7aarch3216Dt_size_2_DecodeEj
_ZN4vixl7aarch3216Dt_size_3_DecodeEj
_ZN4vixl7aarch3216Dt_size_4_DecodeEj
_ZN4vixl7aarch3216Dt_size_5_DecodeEj
_ZN4vixl7aarch3216Dt_size_6_DecodeEj
_ZN4vixl7aarch3216Dt_size_7_DecodeEj
_ZN4vixl7aarch3216Dt_size_8_DecodeEj
_ZN4vixl7aarch3216Dt_size_9_DecodeEjj
_ZN4vixl7aarch3217Dt_op_U_1_Decode1Ej
_ZN4vixl7aarch3217Dt_op_U_1_Decode2Ej
_ZN4vixl7aarch3217Dt_size_10_DecodeEj
_ZN4vixl7aarch3217Dt_size_11_DecodeEjj
_ZN4vixl7aarch3217Dt_size_12_DecodeEjj
_ZN4vixl7aarch3217Dt_size_13_DecodeEj
_ZN4vixl7aarch3217Dt_size_14_DecodeEj
_ZN4vixl7aarch3217Dt_size_15_DecodeEj
_ZN4vixl7aarch3217Dt_size_16_DecodeEj
_ZN4vixl7aarch3217PrintDisassembler11DecodeT32AtEPKtS3_
_ZN4vixl7aarch3217PrintDisassembler20DisassembleA32BufferEPKjm
_ZN4vixl7aarch3217PrintDisassembler20DisassembleT32BufferEPKtm
_ZN4vixl7aarch3217PrintDisassembler9DecodeA32Ej
_ZN4vixl7aarch3217PrintDisassembler9DecodeT32Ej
_ZN4vixl7aarch3217PrintRegisterListERNSt3__113basic_ostreamIcNS1_11char_traitsIcEEEEj
_ZN4vixl7aarch3217TypeEncodingValueENS0_5ShiftE
_ZN4vixl7aarch3218Dt_F_size_1_DecodeEj
_ZN4vixl7aarch3218Dt_F_size_2_DecodeEj
_ZN4vixl7aarch3218Dt_F_size_3_DecodeEj
_ZN4vixl7aarch3218Dt_F_size_4_DecodeEj
_ZN4vixl7aarch3218Dt_L_imm6_1_DecodeEjj
_ZN4vixl7aarch3218Dt_L_imm6_2_DecodeEjj
_ZN4vixl7aarch3218Dt_L_imm6_3_DecodeEj
_ZN4vixl7aarch3218Dt_L_imm6_4_DecodeEj
_ZN4vixl7aarch3218Dt_U_size_1_DecodeEj
_ZN4vixl7aarch3218Dt_U_size_2_DecodeEj
_ZN4vixl7aarch3218Dt_U_size_3_DecodeEj
_ZN4vixl7aarch3219Align_index_align_1C1ENS0_9AlignmentERKNS0_16NeonRegisterListENS0_8DataTypeE
_ZN4vixl7aarch3219Align_index_align_1C2ENS0_9AlignmentERKNS0_16NeonRegisterListENS0_8DataTypeE
_ZN4vixl7aarch3219Align_index_align_2C1ENS0_9AlignmentERKNS0_16NeonRegisterListENS0_8DataTypeE
_ZN4vixl7aarch3219Align_index_align_2C2ENS0_9AlignmentERKNS0_16NeonRegisterListENS0_8DataTypeE
_ZN4vixl7aarch3219Align_index_align_3C1ENS0_9AlignmentERKNS0_16NeonRegisterListENS0_8DataTypeE
_ZN4vixl7aarch3219Align_index_align_3C2ENS0_9AlignmentERKNS0_16NeonRegisterListENS0_8DataTypeE
_ZN4vixl7aarch3219AmountEncodingValueENS0_5ShiftEj
_ZN4vixl7aarch3219Dt_U_imm3H_1_DecodeEj
_ZN4vixl7aarch3219Dt_op_size_1_DecodeEj
_ZN4vixl7aarch3219Dt_op_size_2_DecodeEj
_ZN4vixl7aarch3219Dt_op_size_3_DecodeEj
_ZN4vixl7aarch3220Align_align_1_DecodeEj
_ZN4vixl7aarch3220Align_align_2_DecodeEj
_ZN4vixl7aarch3220Align_align_3_DecodeEj
_ZN4vixl7aarch3220Align_align_4_DecodeEj
_ZN4vixl7aarch3220Align_align_5_DecodeEj
_ZN4vixl7aarch3220PrintfTrampolineDDDDEPKcdddd
_ZN4vixl7aarch3220PrintfTrampolineDDDREPKcdddj
_ZN4vixl7aarch3220PrintfTrampolineDDRDEPKcddjd
_ZN4vixl7aarch3220PrintfTrampolineDDRREPKcddjj
_ZN4vixl7aarch3220PrintfTrampolineDRDDEPKcdjdd
_ZN4vixl7aarch3220PrintfTrampolineDRDREPKcdjdj
_ZN4vixl7aarch3220PrintfTrampolineDRRDEPKcdjjd
_ZN4vixl7aarch3220PrintfTrampolineDRRREPKcdjjj
_ZN4vixl7aarch3220PrintfTrampolineRDDDEPKcjddd
_ZN4vixl7aarch3220PrintfTrampolineRDDREPKcjddj
_ZN4vixl7aarch3220PrintfTrampolineRDRDEPKcjdjd
_ZN4vixl7aarch3220PrintfTrampolineRDRREPKcjdjj
_ZN4vixl7aarch3220PrintfTrampolineRRDDEPKcjjdd
_ZN4vixl7aarch3220PrintfTrampolineRRDREPKcjjdj
_ZN4vixl7aarch3220PrintfTrampolineRRRDEPKcjjjd
_ZN4vixl7aarch3220PrintfTrampolineRRRREPKcjjjj
_ZN4vixl7aarch3221Dt_op_U_size_1_DecodeEj
_ZN4vixl7aarch3221Dt_opc1_opc2_1_DecodeEjPj
_ZN4vixl7aarch3221ImmediateShiftOperandC1Eii
_ZN4vixl7aarch3221ImmediateShiftOperandC2Eii
_ZN4vixl7aarch3223Dt_U_opc1_opc2_1_DecodeEjPj
_ZN4vixl7aarch3223UseScratchRegisterScope10ExcludeAllEv
_ZN4vixl7aarch3223UseScratchRegisterScope4OpenEPNS0_14MacroAssemblerE
_ZN4vixl7aarch3223UseScratchRegisterScope5CloseEv
_ZN4vixl7aarch3223UseScratchRegisterScope7AcquireEv
_ZN4vixl7aarch3223UseScratchRegisterScope7ExcludeERKNS0_12RegisterListE
_ZN4vixl7aarch3223UseScratchRegisterScope7ExcludeERKNS0_13VRegisterListE
_ZN4vixl7aarch3223UseScratchRegisterScope7ExcludeERKNS0_7OperandE
_ZN4vixl7aarch3223UseScratchRegisterScope7IncludeERKNS0_12RegisterListE
_ZN4vixl7aarch3223UseScratchRegisterScope7IncludeERKNS0_13VRegisterListE
_ZN4vixl7aarch3223UseScratchRegisterScope7ReleaseERKNS0_8RegisterE
_ZN4vixl7aarch3223UseScratchRegisterScope7ReleaseERKNS0_9VRegisterE
_ZN4vixl7aarch3223UseScratchRegisterScope8AcquireDEv
_ZN4vixl7aarch3223UseScratchRegisterScope8AcquireQEv
_ZN4vixl7aarch3223UseScratchRegisterScope8AcquireSEv
_ZN4vixl7aarch3223UseScratchRegisterScope8AcquireVEj
_ZN4vixl7aarch3226Align_index_align_1_DecodeEjNS0_8DataTypeE
_ZN4vixl7aarch3226Align_index_align_2_DecodeEjNS0_8DataTypeE
_ZN4vixl7aarch3226Align_index_align_3_DecodeEjNS0_8DataTypeE
_ZN4vixl7aarch3235ExactAssemblyScopeWithoutPoolsCheckC1EPNS0_14MacroAssemblerEmNS_20CodeBufferCheckScope10SizePolicyE
_ZN4vixl7aarch3235ExactAssemblyScopeWithoutPoolsCheckC2EPNS0_14MacroAssemblerEmNS_20CodeBufferCheckScope10SizePolicyE
_ZN4vixl7aarch325Label14EmitPoolObjectEPNS_23MacroAssemblerInterfaceE
_ZN4vixl7aarch325Label16UpdatePoolObjectEPNS_10PoolObjectIiEE
_ZN4vixl7aarch327Dt_op_1C1ENS0_8DataTypeES2_
_ZN4vixl7aarch327Dt_op_1C2ENS0_8DataTypeES2_
_ZN4vixl7aarch327Dt_op_2C1ENS0_8DataTypeE
_ZN4vixl7aarch327Dt_op_2C2ENS0_8DataTypeE
_ZN4vixl7aarch327Dt_op_3C1ENS0_8DataTypeE
_ZN4vixl7aarch327Dt_op_3C2ENS0_8DataTypeE
_ZN4vixl7aarch327Dt_sz_1C1ENS0_8DataTypeE
_ZN4vixl7aarch327Dt_sz_1C2ENS0_8DataTypeE
_ZN4vixl7aarch327Index_1C1ERKNS0_16NeonRegisterListENS0_8DataTypeE
_ZN4vixl7aarch327Index_1C2ERKNS0_16NeonRegisterListENS0_8DataTypeE
_ZN4vixl7aarch328Dt_B_E_1C1ENS0_8DataTypeE
_ZN4vixl7aarch328Dt_B_E_1C2ENS0_8DataTypeE
_ZN4vixl7aarch328Location13AddForwardRefEiRKNS1_12EmitOperatorEPKNS0_13ReferenceInfoE
_ZN4vixl7aarch328Location17EncodeLocationForEPNS_8internal13AssemblerBaseEiPKNS1_12EmitOperatorE
_ZN4vixl7aarch328Location17ResolveReferencesEPNS_8internal13AssemblerBaseE
_ZN4vixl7aarch329Align_a_1C1ENS0_9AlignmentENS0_8DataTypeE
_ZN4vixl7aarch329Align_a_1C2ENS0_9AlignmentENS0_8DataTypeE
_ZN4vixl7aarch329Align_a_2C1ENS0_9AlignmentENS0_8DataTypeE
_ZN4vixl7aarch329Align_a_2C2ENS0_9AlignmentENS0_8DataTypeE
_ZN4vixl7aarch329Align_a_3C1ENS0_9AlignmentENS0_8DataTypeE
_ZN4vixl7aarch329Align_a_3C2ENS0_9AlignmentENS0_8DataTypeE
_ZN4vixl7aarch329Assembler10BindHelperEPNS0_5LabelE
_ZN4vixl7aarch329Assembler10EmitT32_16Et
_ZN4vixl7aarch329Assembler10EmitT32_32Ej
_ZN4vixl7aarch329Assembler10ldrsb_infoENS0_9ConditionENS0_8RegisterEPNS0_8LocationEPPKNS0_13ReferenceInfoE
_ZN4vixl7aarch329Assembler10ldrsh_infoENS0_9ConditionENS0_8RegisterEPNS0_8LocationEPPKNS0_13ReferenceInfoE
_ZN4vixl7aarch329Assembler1bENS0_9ConditionENS0_12EncodingSizeEPNS0_8LocationE
_ZN4vixl7aarch329Assembler2blENS0_9ConditionEPNS0_8LocationE
_ZN4vixl7aarch329Assembler2bxENS0_9ConditionENS0_8RegisterE
_ZN4vixl7aarch329Assembler2itENS0_9ConditionEt
_ZN4vixl7aarch329Assembler3adcENS0_9ConditionENS0_12EncodingSizeENS0_8RegisterES4_RKNS0_7OperandE
_ZN4vixl7aarch329Assembler3addENS0_9ConditionENS0_12EncodingSizeENS0_8RegisterES4_RKNS0_7OperandE
_ZN4vixl7aarch329Assembler3addENS0_9ConditionENS0_8RegisterERKNS0_7OperandE
_ZN4vixl7aarch329Assembler3adrENS0_9ConditionENS0_12EncodingSizeENS0_8RegisterEPNS0_8LocationE
_ZN4vixl7aarch329Assembler3asrENS0_9ConditionENS0_12EncodingSizeENS0_8RegisterES4_RKNS0_7OperandE
_ZN4vixl7aarch329Assembler3bfcENS0_9ConditionENS0_8RegisterEjj
_ZN4vixl7aarch329Assembler3bfiENS0_9ConditionENS0_8RegisterES3_jj
_ZN4vixl7aarch329Assembler3bicENS0_9ConditionENS0_12EncodingSizeENS0_8RegisterES4_RKNS0_7OperandE
_ZN4vixl7aarch329Assembler3blxENS0_9ConditionENS0_8RegisterE
_ZN4vixl7aarch329Assembler3blxENS0_9ConditionEPNS0_8LocationE
_ZN4vixl7aarch329Assembler3bxjENS0_9ConditionENS0_8RegisterE
_ZN4vixl7aarch329Assembler3cbzENS0_8RegisterEPNS0_8LocationE
_ZN4vixl7aarch329Assembler3clzENS0_9ConditionENS0_8RegisterES3_
_ZN4vixl7aarch329Assembler3cmnENS0_9ConditionENS0_12EncodingSizeENS0_8RegisterERKNS0_7OperandE
_ZN4vixl7aarch329Assembler3cmpENS0_9ConditionENS0_12EncodingSizeENS0_8RegisterERKNS0_7OperandE
_ZN4vixl7aarch329Assembler3dmbENS0_9ConditionENS0_13MemoryBarrierE
_ZN4vixl7aarch329Assembler3dsbENS0_9ConditionENS0_13MemoryBarrierE
_ZN4vixl7aarch329Assembler3eorENS0_9ConditionENS0_12EncodingSizeENS0_8RegisterES4_RKNS0_7OperandE
_ZN4vixl7aarch329Assembler3hltENS0_9ConditionEj
_ZN4vixl7aarch329Assembler3hvcENS0_9ConditionEj
_ZN4vixl7aarch329Assembler3isbENS0_9ConditionENS0_13MemoryBarrierE
_ZN4vixl7aarch329Assembler3ldaENS0_9ConditionENS0_8RegisterERKNS0_10MemOperandE
_ZN4vixl7aarch329Assembler3ldmENS0_9ConditionENS0_12EncodingSizeENS0_8RegisterENS0_9WriteBackENS0_12RegisterListE
_ZN4vixl7aarch329Assembler3ldrENS0_9ConditionENS0_12EncodingSizeENS0_8RegisterEPNS0_8LocationE
_ZN4vixl7aarch329Assembler3ldrENS0_9ConditionENS0_12EncodingSizeENS0_8RegisterERKNS0_10MemOperandE
_ZN4vixl7aarch329Assembler3lslENS0_9ConditionENS0_12EncodingSizeENS0_8RegisterES4_RKNS0_7OperandE
_ZN4vixl7aarch329Assembler3lsrENS0_9ConditionENS0_12EncodingSizeENS0_8RegisterES4_RKNS0_7OperandE
_ZN4vixl7aarch329Assembler3mlaENS0_9ConditionENS0_8RegisterES3_S3_S3_
_ZN4vixl7aarch329Assembler3mlsENS0_9ConditionENS0_8RegisterES3_S3_S3_
_ZN4vixl7aarch329Assembler3movENS0_9ConditionENS0_12EncodingSizeENS0_8RegisterERKNS0_7OperandE
_ZN4vixl7aarch329Assembler3mrsENS0_9ConditionENS0_8RegisterENS0_15SpecialRegisterE
_ZN4vixl7aarch329Assembler3msrENS0_9ConditionENS0_21MaskedSpecialRegisterERKNS0_7OperandE
_ZN4vixl7aarch329Assembler3mulENS0_9ConditionENS0_12EncodingSizeENS0_8RegisterES4_S4_
_ZN4vixl7aarch329Assembler3mvnENS0_9ConditionENS0_12EncodingSizeENS0_8RegisterERKNS0_7OperandE
_ZN4vixl7aarch329Assembler3nopENS0_9ConditionENS0_12EncodingSizeE
_ZN4vixl7aarch329Assembler3ornENS0_9ConditionENS0_8RegisterES3_RKNS0_7OperandE
_ZN4vixl7aarch329Assembler3orrENS0_9ConditionENS0_12EncodingSizeENS0_8RegisterES4_RKNS0_7OperandE
_ZN4vixl7aarch329Assembler3pldENS0_9ConditionEPNS0_8LocationE
_ZN4vixl7aarch329Assembler3pldENS0_9ConditionERKNS0_10MemOperandE
_ZN4vixl7aarch329Assembler3pliENS0_9ConditionEPNS0_8LocationE
_ZN4vixl7aarch329Assembler3pliENS0_9ConditionERKNS0_10MemOperandE
_ZN4vixl7aarch329Assembler3popENS0_9ConditionENS0_12EncodingSizeENS0_12RegisterListE
_ZN4vixl7aarch329Assembler3popENS0_9ConditionENS0_12EncodingSizeENS0_8RegisterE
_ZN4vixl7aarch329Assembler3revENS0_9ConditionENS0_12EncodingSizeENS0_8RegisterES4_
_ZN4vixl7aarch329Assembler3rorENS0_9ConditionENS0_12EncodingSizeENS0_8RegisterES4_RKNS0_7OperandE
_ZN4vixl7aarch329Assembler3rrxENS0_9ConditionENS0_8RegisterES3_
_ZN4vixl7aarch329Assembler3rsbENS0_9ConditionENS0_12EncodingSizeENS0_8RegisterES4_RKNS0_7OperandE
_ZN4vixl7aarch329Assembler3rscENS0_9ConditionENS0_8RegisterES3_RKNS0_7OperandE
_ZN4vixl7aarch329Assembler3sbcENS0_9ConditionENS0_12EncodingSizeENS0_8RegisterES4_RKNS0_7OperandE
_ZN4vixl7aarch329Assembler3selENS0_9ConditionENS0_8RegisterES3_S3_
_ZN4vixl7aarch329Assembler3stlENS0_9ConditionENS0_8RegisterERKNS0_10MemOperandE
_ZN4vixl7aarch329Assembler3stmENS0_9ConditionENS0_12EncodingSizeENS0_8RegisterENS0_9WriteBackENS0_12RegisterListE
_ZN4vixl7aarch329Assembler3strENS0_9ConditionENS0_12EncodingSizeENS0_8RegisterERKNS0_10MemOperandE
_ZN4vixl7aarch329Assembler3subENS0_9ConditionENS0_12EncodingSizeENS0_8RegisterES4_RKNS0_7OperandE
_ZN4vixl7aarch329Assembler3subENS0_9ConditionENS0_8RegisterERKNS0_7OperandE
_ZN4vixl7aarch329Assembler3svcENS0_9ConditionEj
_ZN4vixl7aarch329Assembler3tbbENS0_9ConditionENS0_8RegisterES3_
_ZN4vixl7aarch329Assembler3tbhENS0_9ConditionENS0_8RegisterES3_
_ZN4vixl7aarch329Assembler3teqENS0_9ConditionENS0_8RegisterERKNS0_7OperandE
_ZN4vixl7aarch329Assembler3tstENS0_9ConditionENS0_12EncodingSizeENS0_8RegisterERKNS0_7OperandE
_ZN4vixl7aarch329Assembler3udfENS0_9ConditionENS0_12EncodingSizeEj
_ZN4vixl7aarch329Assembler4LinkEjPNS0_8LocationERKNS2_12EmitOperatorEPKNS0_13ReferenceInfoE
_ZN4vixl7aarch329Assembler4adcsENS0_9ConditionENS0_12EncodingSizeENS0_8RegisterES4_RKNS0_7OperandE
_ZN4vixl7aarch329Assembler4addsENS0_8RegisterERKNS0_7OperandE
_ZN4vixl7aarch329Assembler4addsENS0_9ConditionENS0_12EncodingSizeENS0_8RegisterES4_RKNS0_7OperandE
_ZN4vixl7aarch329Assembler4addwENS0_9ConditionENS0_8RegisterES3_RKNS0_7OperandE
_ZN4vixl7aarch329Assembler4and_ENS0_9ConditionENS0_12EncodingSizeENS0_8RegisterES4_RKNS0_7OperandE
_ZN4vixl7aarch329Assembler4andsENS0_9ConditionENS0_12EncodingSizeENS0_8RegisterES4_RKNS0_7OperandE
_ZN4vixl7aarch329Assembler4asrsENS0_9ConditionENS0_12EncodingSizeENS0_8RegisterES4_RKNS0_7OperandE
_ZN4vixl7aarch329Assembler4bicsENS0_9ConditionENS0_12EncodingSizeENS0_8RegisterES4_RKNS0_7OperandE
_ZN4vixl7aarch329Assembler4bkptENS0_9ConditionEj
_ZN4vixl7aarch329Assembler4cbnzENS0_8RegisterEPNS0_8LocationE
_ZN4vixl7aarch329Assembler4eorsENS0_9ConditionENS0_12EncodingSizeENS0_8RegisterES4_RKNS0_7OperandE
_ZN4vixl7aarch329Assembler4ldabENS0_9ConditionENS0_8RegisterERKNS0_10MemOperandE
_ZN4vixl7aarch329Assembler4ldahENS0_9ConditionENS0_8RegisterERKNS0_10MemOperandE
_ZN4vixl7aarch329Assembler4ldrbENS0_9ConditionENS0_12EncodingSizeENS0_8RegisterERKNS0_10MemOperandE
_ZN4vixl7aarch329Assembler4ldrbENS0_9ConditionENS0_8RegisterEPNS0_8LocationE
_ZN4vixl7aarch329Assembler4ldrdENS0_9ConditionENS0_8RegisterES3_PNS0_8LocationE
_ZN4vixl7aarch329Assembler4ldrdENS0_9ConditionENS0_8RegisterES3_RKNS0_10MemOperandE
_ZN4vixl7aarch329Assembler4ldrhENS0_9ConditionENS0_12EncodingSizeENS0_8RegisterERKNS0_10MemOperandE
_ZN4vixl7aarch329Assembler4ldrhENS0_9ConditionENS0_8RegisterEPNS0_8LocationE
_ZN4vixl7aarch329Assembler4lslsENS0_9ConditionENS0_12EncodingSizeENS0_8RegisterES4_RKNS0_7OperandE
_ZN4vixl7aarch329Assembler4lsrsENS0_9ConditionENS0_12EncodingSizeENS0_8RegisterES4_RKNS0_7OperandE
_ZN4vixl7aarch329Assembler4mlasENS0_9ConditionENS0_8RegisterES3_S3_S3_
_ZN4vixl7aarch329Assembler4movsENS0_9ConditionENS0_12EncodingSizeENS0_8RegisterERKNS0_7OperandE
_ZN4vixl7aarch329Assembler4movtENS0_9ConditionENS0_8RegisterERKNS0_7OperandE
_ZN4vixl7aarch329Assembler4movwENS0_9ConditionENS0_8RegisterERKNS0_7OperandE
_ZN4vixl7aarch329Assembler4mulsENS0_9ConditionENS0_8RegisterES3_S3_
_ZN4vixl7aarch329Assembler4mvnsENS0_9ConditionENS0_12EncodingSizeENS0_8RegisterERKNS0_7OperandE
_ZN4vixl7aarch329Assembler4ornsENS0_9ConditionENS0_8RegisterES3_RKNS0_7OperandE
_ZN4vixl7aarch329Assembler4orrsENS0_9ConditionENS0_12EncodingSizeENS0_8RegisterES4_RKNS0_7OperandE
_ZN4vixl7aarch329Assembler4pldwENS0_9ConditionERKNS0_10MemOperandE
_ZN4vixl7aarch329Assembler4pushENS0_9ConditionENS0_12EncodingSizeENS0_12RegisterListE
_ZN4vixl7aarch329Assembler4pushENS0_9ConditionENS0_12EncodingSizeENS0_8RegisterE
_ZN4vixl7aarch329Assembler4qaddENS0_9ConditionENS0_8RegisterES3_S3_
_ZN4vixl7aarch329Assembler4qasxENS0_9ConditionENS0_8RegisterES3_S3_
_ZN4vixl7aarch329Assembler4qsaxENS0_9ConditionENS0_8RegisterES3_S3_
_ZN4vixl7aarch329Assembler4qsubENS0_9ConditionENS0_8RegisterES3_S3_
_ZN4vixl7aarch329Assembler4rbitENS0_9ConditionENS0_8RegisterES3_
_ZN4vixl7aarch329Assembler4rorsENS0_9ConditionENS0_12EncodingSizeENS0_8RegisterES4_RKNS0_7OperandE
_ZN4vixl7aarch329Assembler4rrxsENS0_9ConditionENS0_8RegisterES3_
_ZN4vixl7aarch329Assembler4rsbsENS0_9ConditionENS0_12EncodingSizeENS0_8RegisterES4_RKNS0_7OperandE
_ZN4vixl7aarch329Assembler4rscsENS0_9ConditionENS0_8RegisterES3_RKNS0_7OperandE
_ZN4vixl7aarch329Assembler4sasxENS0_9ConditionENS0_8RegisterES3_S3_
_ZN4vixl7aarch329Assembler4sbcsENS0_9ConditionENS0_12EncodingSizeENS0_8RegisterES4_RKNS0_7OperandE
_ZN4vixl7aarch329Assembler4sbfxENS0_9ConditionENS0_8RegisterES3_jj
_ZN4vixl7aarch329Assembler4sdivENS0_9ConditionENS0_8RegisterES3_S3_
_ZN4vixl7aarch329Assembler4ssatENS0_9ConditionENS0_8RegisterEjRKNS0_7OperandE
_ZN4vixl7aarch329Assembler4ssaxENS0_9ConditionENS0_8RegisterES3_S3_
_ZN4vixl7aarch329Assembler4stlbENS0_9ConditionENS0_8RegisterERKNS0_10MemOperandE
_ZN4vixl7aarch329Assembler4stlhENS0_9ConditionENS0_8RegisterERKNS0_10MemOperandE
_ZN4vixl7aarch329Assembler4strbENS0_9ConditionENS0_12EncodingSizeENS0_8RegisterERKNS0_10MemOperandE
_ZN4vixl7aarch329Assembler4strdENS0_9ConditionENS0_8RegisterES3_RKNS0_10MemOperandE
_ZN4vixl7aarch329Assembler4strhENS0_9ConditionENS0_12EncodingSizeENS0_8RegisterERKNS0_10MemOperandE
_ZN4vixl7aarch329Assembler4subsENS0_8RegisterERKNS0_7OperandE
_ZN4vixl7aarch329Assembler4subsENS0_9ConditionENS0_12EncodingSizeENS0_8RegisterES4_RKNS0_7OperandE
_ZN4vixl7aarch329Assembler4subwENS0_9ConditionENS0_8RegisterES3_RKNS0_7OperandE
_ZN4vixl7aarch329Assembler4sxtbENS0_9ConditionENS0_12EncodingSizeENS0_8RegisterERKNS0_7OperandE
_ZN4vixl7aarch329Assembler4sxthENS0_9ConditionENS0_12EncodingSizeENS0_8RegisterERKNS0_7OperandE
_ZN4vixl7aarch329Assembler4uasxENS0_9ConditionENS0_8RegisterES3_S3_
_ZN4vixl7aarch329Assembler4ubfxENS0_9ConditionENS0_8RegisterES3_jj
_ZN4vixl7aarch329Assembler4udivENS0_9ConditionENS0_8RegisterES3_S3_
_ZN4vixl7aarch329Assembler4usatENS0_9ConditionENS0_8RegisterEjRKNS0_7OperandE
_ZN4vixl7aarch329Assembler4usaxENS0_9ConditionENS0_8RegisterES3_S3_
_ZN4vixl7aarch329Assembler4uxtbENS0_9ConditionENS0_12EncodingSizeENS0_8RegisterERKNS0_7OperandE
_ZN4vixl7aarch329Assembler4uxthENS0_9ConditionENS0_12EncodingSizeENS0_8RegisterERKNS0_7OperandE
_ZN4vixl7aarch329Assembler4vabaENS0_9ConditionENS0_8DataTypeENS0_9DRegisterES4_S4_
_ZN4vixl7aarch329Assembler4vabaENS0_9ConditionENS0_8DataTypeENS0_9QRegisterES4_S4_
_ZN4vixl7aarch329Assembler4vabdENS0_9ConditionENS0_8DataTypeENS0_9DRegisterES4_S4_
_ZN4vixl7aarch329Assembler4vabdENS0_9ConditionENS0_8DataTypeENS0_9QRegisterES4_S4_
_ZN4vixl7aarch329Assembler4vabsENS0_9ConditionENS0_8DataTypeENS0_9DRegisterES4_
_ZN4vixl7aarch329Assembler4vabsENS0_9ConditionENS0_8DataTypeENS0_9QRegisterES4_
_ZN4vixl7aarch329Assembler4vabsENS0_9ConditionENS0_8DataTypeENS0_9SRegisterES4_
_ZN4vixl7aarch329Assembler4vaddENS0_9ConditionENS0_8DataTypeENS0_9DRegisterES4_S4_
_ZN4vixl7aarch329Assembler4vaddENS0_9ConditionENS0_8DataTypeENS0_9QRegisterES4_S4_
_ZN4vixl7aarch329Assembler4vaddENS0_9ConditionENS0_8DataTypeENS0_9SRegisterES4_S4_
_ZN4vixl7aarch329Assembler4vandENS0_9ConditionENS0_8DataTypeENS0_9DRegisterES4_RKNS0_8DOperandE
_ZN4vixl7aarch329Assembler4vandENS0_9ConditionENS0_8DataTypeENS0_9QRegisterES4_RKNS0_8QOperandE
_ZN4vixl7aarch329Assembler4vbicENS0_9ConditionENS0_8DataTypeENS0_9DRegisterES4_RKNS0_8DOperandE
_ZN4vixl7aarch329Assembler4vbicENS0_9ConditionENS0_8DataTypeENS0_9QRegisterES4_RKNS0_8QOperandE
_ZN4vixl7aarch329Assembler4vbifENS0_9ConditionENS0_8DataTypeENS0_9DRegisterES4_S4_
_ZN4vixl7aarch329Assembler4vbifENS0_9ConditionENS0_8DataTypeENS0_9QRegisterES4_S4_
_ZN4vixl7aarch329Assembler4vbitENS0_9ConditionENS0_8DataTypeENS0_9DRegisterES4_S4_
_ZN4vixl7aarch329Assembler4vbitENS0_9ConditionENS0_8DataTypeENS0_9QRegisterES4_S4_
_ZN4vixl7aarch329Assembler4vbslENS0_9ConditionENS0_8DataTypeENS0_9DRegisterES4_S4_
_ZN4vixl7aarch329Assembler4vbslENS0_9ConditionENS0_8DataTypeENS0_9QRegisterES4_S4_
_ZN4vixl7aarch329Assembler4vceqENS0_9ConditionENS0_8DataTypeENS0_9DRegisterES4_RKNS0_8DOperandE
_ZN4vixl7aarch329Assembler4vceqENS0_9ConditionENS0_8DataTypeENS0_9DRegisterES4_S4_
_ZN4vixl7aarch329Assembler4vceqENS0_9ConditionENS0_8DataTypeENS0_9QRegisterES4_RKNS0_8QOperandE
_ZN4vixl7aarch329Assembler4vceqENS0_9ConditionENS0_8DataTypeENS0_9QRegisterES4_S4_
_ZN4vixl7aarch329Assembler4vcgeENS0_9ConditionENS0_8DataTypeENS0_9DRegisterES4_RKNS0_8DOperandE
_ZN4vixl7aarch329Assembler4vcgeENS0_9ConditionENS0_8DataTypeENS0_9DRegisterES4_S4_
_ZN4vixl7aarch329Assembler4vcgeENS0_9ConditionENS0_8DataTypeENS0_9QRegisterES4_RKNS0_8QOperandE
_ZN4vixl7aarch329Assembler4vcgeENS0_9ConditionENS0_8DataTypeENS0_9QRegisterES4_S4_
_ZN4vixl7aarch329Assembler4vcgtENS0_9ConditionENS0_8DataTypeENS0_9DRegisterES4_RKNS0_8DOperandE
_ZN4vixl7aarch329Assembler4vcgtENS0_9ConditionENS0_8DataTypeENS0_9DRegisterES4_S4_
_ZN4vixl7aarch329Assembler4vcgtENS0_9ConditionENS0_8DataTypeENS0_9QRegisterES4_RKNS0_8QOperandE
_ZN4vixl7aarch329Assembler4vcgtENS0_9ConditionENS0_8DataTypeENS0_9QRegisterES4_S4_
_ZN4vixl7aarch329Assembler4vcleENS0_9ConditionENS0_8DataTypeENS0_9DRegisterES4_RKNS0_8DOperandE
_ZN4vixl7aarch329Assembler4vcleENS0_9ConditionENS0_8DataTypeENS0_9DRegisterES4_S4_
_ZN4vixl7aarch329Assembler4vcleENS0_9ConditionENS0_8DataTypeENS0_9QRegisterES4_RKNS0_8QOperandE
_ZN4vixl7aarch329Assembler4vcleENS0_9ConditionENS0_8DataTypeENS0_9QRegisterES4_S4_
_ZN4vixl7aarch329Assembler4vclsENS0_9ConditionENS0_8DataTypeENS0_9DRegisterES4_
_ZN4vixl7aarch329Assembler4vclsENS0_9ConditionENS0_8DataTypeENS0_9QRegisterES4_
_ZN4vixl7aarch329Assembler4vcltENS0_9ConditionENS0_8DataTypeENS0_9DRegisterES4_RKNS0_8DOperandE
_ZN4vixl7aarch329Assembler4vcltENS0_9ConditionENS0_8DataTypeENS0_9DRegisterES4_S4_
_ZN4vixl7aarch329Assembler4vcltENS0_9ConditionENS0_8DataTypeENS0_9QRegisterES4_RKNS0_8QOperandE
_ZN4vixl7aarch329Assembler4vcltENS0_9ConditionENS0_8DataTypeENS0_9QRegisterES4_S4_
_ZN4vixl7aarch329Assembler4vclzENS0_9ConditionENS0_8DataTypeENS0_9DRegisterES4_
_ZN4vixl7aarch329Assembler4vclzENS0_9ConditionENS0_8DataTypeENS0_9QRegisterES4_
_ZN4vixl7aarch329Assembler4vcmpENS0_9ConditionENS0_8DataTypeENS0_9DRegisterERKNS0_8DOperandE
_ZN4vixl7aarch329Assembler4vcmpENS0_9ConditionENS0_8DataTypeENS0_9SRegisterERKNS0_8SOperandE
_ZN4vixl7aarch329Assembler4vcntENS0_9ConditionENS0_8DataTypeENS0_9DRegisterES4_
_ZN4vixl7aarch329Assembler4vcntENS0_9ConditionENS0_8DataTypeENS0_9QRegisterES4_
_ZN4vixl7aarch329Assembler4vcvtENS0_9ConditionENS0_8DataTypeES3_NS0_9DRegisterENS0_9QRegisterE
_ZN4vixl7aarch329Assembler4vcvtENS0_9ConditionENS0_8DataTypeES3_NS0_9DRegisterENS0_9SRegisterE
_ZN4vixl7aarch329Assembler4vcvtENS0_9ConditionENS0_8DataTypeES3_NS0_9DRegisterES4_
_ZN4vixl7aarch329Assembler4vcvtENS0_9ConditionENS0_8DataTypeES3_NS0_9DRegisterES4_i
_ZN4vixl7aarch329Assembler4vcvtENS0_9ConditionENS0_8DataTypeES3_NS0_9QRegisterENS0_9DRegisterE
_ZN4vixl7aarch329Assembler4vcvtENS0_9ConditionENS0_8DataTypeES3_NS0_9QRegisterES4_
_ZN4vixl7aarch329Assembler4vcvtENS0_9ConditionENS0_8DataTypeES3_NS0_9QRegisterES4_i
_ZN4vixl7aarch329Assembler4vcvtENS0_9ConditionENS0_8DataTypeES3_NS0_9SRegisterENS0_9DRegisterE
_ZN4vixl7aarch329Assembler4vcvtENS0_9ConditionENS0_8DataTypeES3_NS0_9SRegisterES4_
_ZN4vixl7aarch329Assembler4vcvtENS0_9ConditionENS0_8DataTypeES3_NS0_9SRegisterES4_i
_ZN4vixl7aarch329Assembler4vdivENS0_9ConditionENS0_8DataTypeENS0_9DRegisterES4_S4_
_ZN4vixl7aarch329Assembler4vdivENS0_9ConditionENS0_8DataTypeENS0_9SRegisterES4_S4_
_ZN4vixl7aarch329Assembler4vdupENS0_9ConditionENS0_8DataTypeENS0_9DRegisterENS0_13DRegisterLaneE
_ZN4vixl7aarch329Assembler4vdupENS0_9ConditionENS0_8DataTypeENS0_9DRegisterENS0_8RegisterE
_ZN4vixl7aarch329Assembler4vdupENS0_9ConditionENS0_8DataTypeENS0_9QRegisterENS0_13DRegisterLaneE
_ZN4vixl7aarch329Assembler4vdupENS0_9ConditionENS0_8DataTypeENS0_9QRegisterENS0_8RegisterE
_ZN4vixl7aarch329Assembler4veorENS0_9ConditionENS0_8DataTypeENS0_9DRegisterES4_S4_
_ZN4vixl7aarch329Assembler4veorENS0_9ConditionENS0_8DataTypeENS0_9QRegisterES4_S4_
_ZN4vixl7aarch329Assembler4vextENS0_9ConditionENS0_8DataTypeENS0_9DRegisterES4_S4_RKNS0_8DOperandE
_ZN4vixl7aarch329Assembler4vextENS0_9ConditionENS0_8DataTypeENS0_9QRegisterES4_S4_RKNS0_8QOperandE
_ZN4vixl7aarch329Assembler4vfmaENS0_9ConditionENS0_8DataTypeENS0_9DRegisterES4_S4_
_ZN4vixl7aarch329Assembler4vfmaENS0_9ConditionENS0_8DataTypeENS0_9QRegisterES4_S4_
_ZN4vixl7aarch329Assembler4vfmaENS0_9ConditionENS0_8DataTypeENS0_9SRegisterES4_S4_
_ZN4vixl7aarch329Assembler4vfmsENS0_9ConditionENS0_8DataTypeENS0_9DRegisterES4_S4_
_ZN4vixl7aarch329Assembler4vfmsENS0_9ConditionENS0_8DataTypeENS0_9QRegisterES4_S4_
_ZN4vixl7aarch329Assembler4vfmsENS0_9ConditionENS0_8DataTypeENS0_9SRegisterES4_S4_
_ZN4vixl7aarch329Assembler4vld1ENS0_9ConditionENS0_8DataTypeERKNS0_16NeonRegisterListERKNS0_17AlignedMemOperandE
_ZN4vixl7aarch329Assembler4vld2ENS0_9ConditionENS0_8DataTypeERKNS0_16NeonRegisterListERKNS0_17AlignedMemOperandE
_ZN4vixl7aarch329Assembler4vld3ENS0_9ConditionENS0_8DataTypeERKNS0_16NeonRegisterListERKNS0_10MemOperandE
_ZN4vixl7aarch329Assembler4vld3ENS0_9ConditionENS0_8DataTypeERKNS0_16NeonRegisterListERKNS0_17AlignedMemOperandE
_ZN4vixl7aarch329Assembler4vld4ENS0_9ConditionENS0_8DataTypeERKNS0_16NeonRegisterListERKNS0_17AlignedMemOperandE
_ZN4vixl7aarch329Assembler4vldmENS0_9ConditionENS0_8DataTypeENS0_8RegisterENS0_9WriteBackENS0_13DRegisterListE
_ZN4vixl7aarch329Assembler4vldmENS0_9ConditionENS0_8DataTypeENS0_8RegisterENS0_9WriteBackENS0_13SRegisterListE
_ZN4vixl7aarch329Assembler4vldrENS0_9ConditionENS0_8DataTypeENS0_9DRegisterEPNS0_8LocationE
_ZN4vixl7aarch329Assembler4vldrENS0_9ConditionENS0_8DataTypeENS0_9DRegisterERKNS0_10MemOperandE
_ZN4vixl7aarch329Assembler4vldrENS0_9ConditionENS0_8DataTypeENS0_9SRegisterEPNS0_8LocationE
_ZN4vixl7aarch329Assembler4vldrENS0_9ConditionENS0_8DataTypeENS0_9SRegisterERKNS0_10MemOperandE
_ZN4vixl7aarch329Assembler4vmaxENS0_9ConditionENS0_8DataTypeENS0_9DRegisterES4_S4_
_ZN4vixl7aarch329Assembler4vmaxENS0_9ConditionENS0_8DataTypeENS0_9QRegisterES4_S4_
_ZN4vixl7aarch329Assembler4vminENS0_9ConditionENS0_8DataTypeENS0_9DRegisterES4_S4_
_ZN4vixl7aarch329Assembler4vminENS0_9ConditionENS0_8DataTypeENS0_9QRegisterES4_S4_
_ZN4vixl7aarch329Assembler4vmlaENS0_9ConditionENS0_8DataTypeENS0_9DRegisterES4_NS0_13DRegisterLaneE
_ZN4vixl7aarch329Assembler4vmlaENS0_9ConditionENS0_8DataTypeENS0_9DRegisterES4_S4_
_ZN4vixl7aarch329Assembler4vmlaENS0_9ConditionENS0_8DataTypeENS0_9QRegisterES4_NS0_13DRegisterLaneE
_ZN4vixl7aarch329Assembler4vmlaENS0_9ConditionENS0_8DataTypeENS0_9QRegisterES4_S4_
_ZN4vixl7aarch329Assembler4vmlaENS0_9ConditionENS0_8DataTypeENS0_9SRegisterES4_S4_
_ZN4vixl7aarch329Assembler4vmlsENS0_9ConditionENS0_8DataTypeENS0_9DRegisterES4_NS0_13DRegisterLaneE
_ZN4vixl7aarch329Assembler4vmlsENS0_9ConditionENS0_8DataTypeENS0_9DRegisterES4_S4_
_ZN4vixl7aarch329Assembler4vmlsENS0_9ConditionENS0_8DataTypeENS0_9QRegisterES4_NS0_13DRegisterLaneE
_ZN4vixl7aarch329Assembler4vmlsENS0_9ConditionENS0_8DataTypeENS0_9QRegisterES4_S4_
_ZN4vixl7aarch329Assembler4vmlsENS0_9ConditionENS0_8DataTypeENS0_9SRegisterES4_S4_
_ZN4vixl7aarch329Assembler4vmovENS0_9ConditionENS0_8DataTypeENS0_13DRegisterLaneENS0_8RegisterE
_ZN4vixl7aarch329Assembler4vmovENS0_9ConditionENS0_8DataTypeENS0_8RegisterENS0_13DRegisterLaneE
_ZN4vixl7aarch329Assembler4vmovENS0_9ConditionENS0_8DataTypeENS0_9DRegisterERKNS0_8DOperandE
_ZN4vixl7aarch329Assembler4vmovENS0_9ConditionENS0_8DataTypeENS0_9QRegisterERKNS0_8QOperandE
_ZN4vixl7aarch329Assembler4vmovENS0_9ConditionENS0_8DataTypeENS0_9SRegisterERKNS0_8SOperandE
_ZN4vixl7aarch329Assembler4vmovENS0_9ConditionENS0_8RegisterENS0_9SRegisterE
_ZN4vixl7aarch329Assembler4vmovENS0_9ConditionENS0_8RegisterES3_NS0_9DRegisterE
_ZN4vixl7aarch329Assembler4vmovENS0_9ConditionENS0_8RegisterES3_NS0_9SRegisterES4_
_ZN4vixl7aarch329Assembler4vmovENS0_9ConditionENS0_9DRegisterENS0_8RegisterES4_
_ZN4vixl7aarch329Assembler4vmovENS0_9ConditionENS0_9SRegisterENS0_8RegisterE
_ZN4vixl7aarch329Assembler4vmovENS0_9ConditionENS0_9SRegisterES3_NS0_8RegisterES4_
_ZN4vixl7aarch329Assembler4vmrsENS0_9ConditionENS0_19RegisterOrAPSR_nzcvENS0_17SpecialFPRegisterE
_ZN4vixl7aarch329Assembler4vmsrENS0_9ConditionENS0_17SpecialFPRegisterENS0_8RegisterE
_ZN4vixl7aarch329Assembler4vmulENS0_9ConditionENS0_8DataTypeENS0_9DRegisterES4_S4_
_ZN4vixl7aarch329Assembler4vmulENS0_9ConditionENS0_8DataTypeENS0_9DRegisterES4_S4_j
_ZN4vixl7aarch329Assembler4vmulENS0_9ConditionENS0_8DataTypeENS0_9QRegisterES4_NS0_9DRegisterEj
_ZN4vixl7aarch329Assembler4vmulENS0_9ConditionENS0_8DataTypeENS0_9QRegisterES4_S4_
_ZN4vixl7aarch329Assembler4vmulENS0_9ConditionENS0_8DataTypeENS0_9SRegisterES4_S4_
_ZN4vixl7aarch329Assembler4vmvnENS0_9ConditionENS0_8DataTypeENS0_9DRegisterERKNS0_8DOperandE
_ZN4vixl7aarch329Assembler4vmvnENS0_9ConditionENS0_8DataTypeENS0_9QRegisterERKNS0_8QOperandE
_ZN4vixl7aarch329Assembler4vnegENS0_9ConditionENS0_8DataTypeENS0_9DRegisterES4_
_ZN4vixl7aarch329Assembler4vnegENS0_9ConditionENS0_8DataTypeENS0_9QRegisterES4_
_ZN4vixl7aarch329Assembler4vnegENS0_9ConditionENS0_8DataTypeENS0_9SRegisterES4_
_ZN4vixl7aarch329Assembler4vornENS0_9ConditionENS0_8DataTypeENS0_9DRegisterES4_RKNS0_8DOperandE
_ZN4vixl7aarch329Assembler4vornENS0_9ConditionENS0_8DataTypeENS0_9QRegisterES4_RKNS0_8QOperandE
_ZN4vixl7aarch329Assembler4vorrENS0_9ConditionENS0_8DataTypeENS0_9DRegisterES4_RKNS0_8DOperandE
_ZN4vixl7aarch329Assembler4vorrENS0_9ConditionENS0_8DataTypeENS0_9QRegisterES4_RKNS0_8QOperandE
_ZN4vixl7aarch329Assembler4vpopENS0_9ConditionENS0_8DataTypeENS0_13DRegisterListE
_ZN4vixl7aarch329Assembler4vpopENS0_9ConditionENS0_8DataTypeENS0_13SRegisterListE
_ZN4vixl7aarch329Assembler4vshlENS0_9ConditionENS0_8DataTypeENS0_9DRegisterES4_RKNS0_8DOperandE
_ZN4vixl7aarch329Assembler4vshlENS0_9ConditionENS0_8DataTypeENS0_9QRegisterES4_RKNS0_8QOperandE
_ZN4vixl7aarch329Assembler4vshrENS0_9ConditionENS0_8DataTypeENS0_9DRegisterES4_RKNS0_8DOperandE
_ZN4vixl7aarch329Assembler4vshrENS0_9ConditionENS0_8DataTypeENS0_9QRegisterES4_RKNS0_8QOperandE
_ZN4vixl7aarch329Assembler4vsliENS0_9ConditionENS0_8DataTypeENS0_9DRegisterES4_RKNS0_8DOperandE
_ZN4vixl7aarch329Assembler4vsliENS0_9ConditionENS0_8DataTypeENS0_9QRegisterES4_RKNS0_8QOperandE
_ZN4vixl7aarch329Assembler4vsraENS0_9ConditionENS0_8DataTypeENS0_9DRegisterES4_RKNS0_8DOperandE
_ZN4vixl7aarch329Assembler4vsraENS0_9ConditionENS0_8DataTypeENS0_9QRegisterES4_RKNS0_8QOperandE
_ZN4vixl7aarch329Assembler4vsriENS0_9ConditionENS0_8DataTypeENS0_9DRegisterES4_RKNS0_8DOperandE
_ZN4vixl7aarch329Assembler4vsriENS0_9ConditionENS0_8DataTypeENS0_9QRegisterES4_RKNS0_8QOperandE
_ZN4vixl7aarch329Assembler4vst1ENS0_9ConditionENS0_8DataTypeERKNS0_16NeonRegisterListERKNS0_17AlignedMemOperandE
_ZN4vixl7aarch329Assembler4vst2ENS0_9ConditionENS0_8DataTypeERKNS0_16NeonRegisterListERKNS0_17AlignedMemOperandE
_ZN4vixl7aarch329Assembler4vst3ENS0_9ConditionENS0_8DataTypeERKNS0_16NeonRegisterListERKNS0_10MemOperandE
_ZN4vixl7aarch329Assembler4vst3ENS0_9ConditionENS0_8DataTypeERKNS0_16NeonRegisterListERKNS0_17AlignedMemOperandE
_ZN4vixl7aarch329Assembler4vst4ENS0_9ConditionENS0_8DataTypeERKNS0_16NeonRegisterListERKNS0_17AlignedMemOperandE
_ZN4vixl7aarch329Assembler4vstmENS0_9ConditionENS0_8DataTypeENS0_8RegisterENS0_9WriteBackENS0_13DRegisterListE
_ZN4vixl7aarch329Assembler4vstmENS0_9ConditionENS0_8DataTypeENS0_8RegisterENS0_9WriteBackENS0_13SRegisterListE
_ZN4vixl7aarch329Assembler4vstrENS0_9ConditionENS0_8DataTypeENS0_9DRegisterERKNS0_10MemOperandE
_ZN4vixl7aarch329Assembler4vstrENS0_9ConditionENS0_8DataTypeENS0_9SRegisterERKNS0_10MemOperandE
_ZN4vixl7aarch329Assembler4vsubENS0_9ConditionENS0_8DataTypeENS0_9DRegisterES4_S4_
_ZN4vixl7aarch329Assembler4vsubENS0_9ConditionENS0_8DataTypeENS0_9QRegisterES4_S4_
_ZN4vixl7aarch329Assembler4vsubENS0_9ConditionENS0_8DataTypeENS0_9SRegisterES4_S4_
_ZN4vixl7aarch329Assembler4vswpENS0_9ConditionENS0_8DataTypeENS0_9DRegisterES4_
_ZN4vixl7aarch329Assembler4vswpENS0_9ConditionENS0_8DataTypeENS0_9QRegisterES4_
_ZN4vixl7aarch329Assembler4vtblENS0_9ConditionENS0_8DataTypeENS0_9DRegisterERKNS0_16NeonRegisterListES4_
_ZN4vixl7aarch329Assembler4vtbxENS0_9ConditionENS0_8DataTypeENS0_9DRegisterERKNS0_16NeonRegisterListES4_
_ZN4vixl7aarch329Assembler4vtrnENS0_9ConditionENS0_8DataTypeENS0_9DRegisterES4_
_ZN4vixl7aarch329Assembler4vtrnENS0_9ConditionENS0_8DataTypeENS0_9QRegisterES4_
_ZN4vixl7aarch329Assembler4vtstENS0_9ConditionENS0_8DataTypeENS0_9DRegisterES4_S4_
_ZN4vixl7aarch329Assembler4vtstENS0_9ConditionENS0_8DataTypeENS0_9QRegisterES4_S4_
_ZN4vixl7aarch329Assembler4vuzpENS0_9ConditionENS0_8DataTypeENS0_9DRegisterES4_
_ZN4vixl7aarch329Assembler4vuzpENS0_9ConditionENS0_8DataTypeENS0_9QRegisterES4_
_ZN4vixl7aarch329Assembler4vzipENS0_9ConditionENS0_8DataTypeENS0_9DRegisterES4_
_ZN4vixl7aarch329Assembler4vzipENS0_9ConditionENS0_8DataTypeENS0_9QRegisterES4_
_ZN4vixl7aarch329Assembler5clrexENS0_9ConditionE
_ZN4vixl7aarch329Assembler5ldaexENS0_9ConditionENS0_8RegisterERKNS0_10MemOperandE
_ZN4vixl7aarch329Assembler5ldmdaENS0_9ConditionENS0_8RegisterENS0_9WriteBackENS0_12RegisterListE
_ZN4vixl7aarch329Assembler5ldmdbENS0_9ConditionENS0_8RegisterENS0_9WriteBackENS0_12RegisterListE
_ZN4vixl7aarch329Assembler5ldmeaENS0_9ConditionENS0_8RegisterENS0_9WriteBackENS0_12RegisterListE
_ZN4vixl7aarch329Assembler5ldmedENS0_9ConditionENS0_8RegisterENS0_9WriteBackENS0_12RegisterListE
_ZN4vixl7aarch329Assembler5ldmfaENS0_9ConditionENS0_8RegisterENS0_9WriteBackENS0_12RegisterListE
_ZN4vixl7aarch329Assembler5ldmfdENS0_9ConditionENS0_12EncodingSizeENS0_8RegisterENS0_9WriteBackENS0_12RegisterListE
_ZN4vixl7aarch329Assembler5ldmibENS0_9ConditionENS0_8RegisterENS0_9WriteBackENS0_12RegisterListE
_ZN4vixl7aarch329Assembler5ldrexENS0_9ConditionENS0_8RegisterERKNS0_10MemOperandE
_ZN4vixl7aarch329Assembler5ldrsbENS0_9ConditionENS0_12EncodingSizeENS0_8RegisterERKNS0_10MemOperandE
_ZN4vixl7aarch329Assembler5ldrsbENS0_9ConditionENS0_8RegisterEPNS0_8LocationE
_ZN4vixl7aarch329Assembler5ldrshENS0_9ConditionENS0_12EncodingSizeENS0_8RegisterERKNS0_10MemOperandE
_ZN4vixl7aarch329Assembler5ldrshENS0_9ConditionENS0_8RegisterEPNS0_8LocationE
_ZN4vixl7aarch329Assembler5pkhbtENS0_9ConditionENS0_8RegisterES3_RKNS0_7OperandE
_ZN4vixl7aarch329Assembler5pkhtbENS0_9ConditionENS0_8RegisterES3_RKNS0_7OperandE
_ZN4vixl7aarch329Assembler5qadd8ENS0_9ConditionENS0_8RegisterES3_S3_
_ZN4vixl7aarch329Assembler5qdaddENS0_9ConditionENS0_8RegisterES3_S3_
_ZN4vixl7aarch329Assembler5qdsubENS0_9ConditionENS0_8RegisterES3_S3_
_ZN4vixl7aarch329Assembler5qsub8ENS0_9ConditionENS0_8RegisterES3_S3_
_ZN4vixl7aarch329Assembler5rev16ENS0_9ConditionENS0_12EncodingSizeENS0_8RegisterES4_
_ZN4vixl7aarch329Assembler5revshENS0_9ConditionENS0_12EncodingSizeENS0_8RegisterES4_
_ZN4vixl7aarch329Assembler5sadd8ENS0_9ConditionENS0_8RegisterES3_S3_
_ZN4vixl7aarch329Assembler5shasxENS0_9ConditionENS0_8RegisterES3_S3_
_ZN4vixl7aarch329Assembler5shsaxENS0_9ConditionENS0_8RegisterES3_S3_
_ZN4vixl7aarch329Assembler5smladENS0_9ConditionENS0_8RegisterES3_S3_S3_
_ZN4vixl7aarch329Assembler5smlalENS0_9ConditionENS0_8RegisterES3_S3_S3_
_ZN4vixl7aarch329Assembler5smlsdENS0_9ConditionENS0_8RegisterES3_S3_S3_
_ZN4vixl7aarch329Assembler5smmlaENS0_9ConditionENS0_8RegisterES3_S3_S3_
_ZN4vixl7aarch329Assembler5smmlsENS0_9ConditionENS0_8RegisterES3_S3_S3_
_ZN4vixl7aarch329Assembler5smmulENS0_9ConditionENS0_8RegisterES3_S3_
_ZN4vixl7aarch329Assembler5smuadENS0_9ConditionENS0_8RegisterES3_S3_
_ZN4vixl7aarch329Assembler5smullENS0_9ConditionENS0_8RegisterES3_S3_S3_
_ZN4vixl7aarch329Assembler5smusdENS0_9ConditionENS0_8RegisterES3_S3_
_ZN4vixl7aarch329Assembler5ssub8ENS0_9ConditionENS0_8RegisterES3_S3_
_ZN4vixl7aarch329Assembler5stlexENS0_9ConditionENS0_8RegisterES3_RKNS0_10MemOperandE
_ZN4vixl7aarch329Assembler5stmdaENS0_9ConditionENS0_8RegisterENS0_9WriteBackENS0_12RegisterListE
_ZN4vixl7aarch329Assembler5stmdbENS0_9ConditionENS0_12EncodingSizeENS0_8RegisterENS0_9WriteBackENS0_12RegisterListE
_ZN4vixl7aarch329Assembler5stmeaENS0_9ConditionENS0_12EncodingSizeENS0_8RegisterENS0_9WriteBackENS0_12RegisterListE
_ZN4vixl7aarch329Assembler5stmedENS0_9ConditionENS0_8RegisterENS0_9WriteBackENS0_12RegisterListE
_ZN4vixl7aarch329Assembler5stmfaENS0_9ConditionENS0_8RegisterENS0_9WriteBackENS0_12RegisterListE
_ZN4vixl7aarch329Assembler5stmfdENS0_9ConditionENS0_8RegisterENS0_9WriteBackENS0_12RegisterListE
_ZN4vixl7aarch329Assembler5stmibENS0_9ConditionENS0_8RegisterENS0_9WriteBackENS0_12RegisterListE
_ZN4vixl7aarch329Assembler5strexENS0_9ConditionENS0_8RegisterES3_RKNS0_10MemOperandE
_ZN4vixl7aarch329Assembler5sxtabENS0_9ConditionENS0_8RegisterES3_RKNS0_7OperandE
_ZN4vixl7aarch329Assembler5sxtahENS0_9ConditionENS0_8RegisterES3_RKNS0_7OperandE
_ZN4vixl7aarch329Assembler5uadd8ENS0_9ConditionENS0_8RegisterES3_S3_
_ZN4vixl7aarch329Assembler5uhasxENS0_9ConditionENS0_8RegisterES3_S3_
_ZN4vixl7aarch329Assembler5uhsaxENS0_9ConditionENS0_8RegisterES3_S3_
_ZN4vixl7aarch329Assembler5umaalENS0_9ConditionENS0_8RegisterES3_S3_S3_
_ZN4vixl7aarch329Assembler5umlalENS0_9ConditionENS0_8RegisterES3_S3_S3_
_ZN4vixl7aarch329Assembler5umullENS0_9ConditionENS0_8RegisterES3_S3_S3_
_ZN4vixl7aarch329Assembler5uqasxENS0_9ConditionENS0_8RegisterES3_S3_
_ZN4vixl7aarch329Assembler5uqsaxENS0_9ConditionENS0_8RegisterES3_S3_
_ZN4vixl7aarch329Assembler5usad8ENS0_9ConditionENS0_8RegisterES3_S3_
_ZN4vixl7aarch329Assembler5usub8ENS0_9ConditionENS0_8RegisterES3_S3_
_ZN4vixl7aarch329Assembler5uxtabENS0_9ConditionENS0_8RegisterES3_RKNS0_7OperandE
_ZN4vixl7aarch329Assembler5uxtahENS0_9ConditionENS0_8RegisterES3_RKNS0_7OperandE
_ZN4vixl7aarch329Assembler5vabalENS0_9ConditionENS0_8DataTypeENS0_9QRegisterENS0_9DRegisterES5_
_ZN4vixl7aarch329Assembler5vabdlENS0_9ConditionENS0_8DataTypeENS0_9QRegisterENS0_9DRegisterES5_
_ZN4vixl7aarch329Assembler5vacgeENS0_9ConditionENS0_8DataTypeENS0_9DRegisterES4_S4_
_ZN4vixl7aarch329Assembler5vacgeENS0_9ConditionENS0_8DataTypeENS0_9QRegisterES4_S4_
_ZN4vixl7aarch329Assembler5vacgtENS0_9ConditionENS0_8DataTypeENS0_9DRegisterES4_S4_
_ZN4vixl7aarch329Assembler5vacgtENS0_9ConditionENS0_8DataTypeENS0_9QRegisterES4_S4_
_ZN4vixl7aarch329Assembler5vacleENS0_9ConditionENS0_8DataTypeENS0_9DRegisterES4_S4_
_ZN4vixl7aarch329Assembler5vacleENS0_9ConditionENS0_8DataTypeENS0_9QRegisterES4_S4_
_ZN4vixl7aarch329Assembler5vacltENS0_9ConditionENS0_8DataTypeENS0_9DRegisterES4_S4_
_ZN4vixl7aarch329Assembler5vacltENS0_9ConditionENS0_8DataTypeENS0_9QRegisterES4_S4_
_ZN4vixl7aarch329Assembler5vaddlENS0_9ConditionENS0_8DataTypeENS0_9QRegisterENS0_9DRegisterES5_
_ZN4vixl7aarch329Assembler5vaddwENS0_9ConditionENS0_8DataTypeENS0_9QRegisterES4_NS0_9DRegisterE
_ZN4vixl7aarch329Assembler5vcmpeENS0_9ConditionENS0_8DataTypeENS0_9DRegisterERKNS0_8DOperandE
_ZN4vixl7aarch329Assembler5vcmpeENS0_9ConditionENS0_8DataTypeENS0_9SRegisterERKNS0_8SOperandE
_ZN4vixl7aarch329Assembler5vcvtaENS0_8DataTypeES2_NS0_9DRegisterES3_
_ZN4vixl7aarch329Assembler5vcvtaENS0_8DataTypeES2_NS0_9QRegisterES3_
_ZN4vixl7aarch329Assembler5vcvtaENS0_8DataTypeES2_NS0_9SRegisterENS0_9DRegisterE
_ZN4vixl7aarch329Assembler5vcvtaENS0_8DataTypeES2_NS0_9SRegisterES3_
_ZN4vixl7aarch329Assembler5vcvtbENS0_9ConditionENS0_8DataTypeES3_NS0_9DRegisterENS0_9SRegisterE
_ZN4vixl7aarch329Assembler5vcvtbENS0_9ConditionENS0_8DataTypeES3_NS0_9SRegisterENS0_9DRegisterE
_ZN4vixl7aarch329Assembler5vcvtbENS0_9ConditionENS0_8DataTypeES3_NS0_9SRegisterES4_
_ZN4vixl7aarch329Assembler5vcvtmENS0_8DataTypeES2_NS0_9DRegisterES3_
_ZN4vixl7aarch329Assembler5vcvtmENS0_8DataTypeES2_NS0_9QRegisterES3_
_ZN4vixl7aarch329Assembler5vcvtmENS0_8DataTypeES2_NS0_9SRegisterENS0_9DRegisterE
_ZN4vixl7aarch329Assembler5vcvtmENS0_8DataTypeES2_NS0_9SRegisterES3_
_ZN4vixl7aarch329Assembler5vcvtnENS0_8DataTypeES2_NS0_9DRegisterES3_
_ZN4vixl7aarch329Assembler5vcvtnENS0_8DataTypeES2_NS0_9QRegisterES3_
_ZN4vixl7aarch329Assembler5vcvtnENS0_8DataTypeES2_NS0_9SRegisterENS0_9DRegisterE
_ZN4vixl7aarch329Assembler5vcvtnENS0_8DataTypeES2_NS0_9SRegisterES3_
_ZN4vixl7aarch329Assembler5vcvtpENS0_8DataTypeES2_NS0_9DRegisterES3_
_ZN4vixl7aarch329Assembler5vcvtpENS0_8DataTypeES2_NS0_9QRegisterES3_
_ZN4vixl7aarch329Assembler5vcvtpENS0_8DataTypeES2_NS0_9SRegisterENS0_9DRegisterE
_ZN4vixl7aarch329Assembler5vcvtpENS0_8DataTypeES2_NS0_9SRegisterES3_
_ZN4vixl7aarch329Assembler5vcvtrENS0_9ConditionENS0_8DataTypeES3_NS0_9SRegisterENS0_9DRegisterE
_ZN4vixl7aarch329Assembler5vcvtrENS0_9ConditionENS0_8DataTypeES3_NS0_9SRegisterES4_
_ZN4vixl7aarch329Assembler5vcvttENS0_9ConditionENS0_8DataTypeES3_NS0_9DRegisterENS0_9SRegisterE
_ZN4vixl7aarch329Assembler5vcvttENS0_9ConditionENS0_8DataTypeES3_NS0_9SRegisterENS0_9DRegisterE
_ZN4vixl7aarch329Assembler5vcvttENS0_9ConditionENS0_8DataTypeES3_NS0_9SRegisterES4_
_ZN4vixl7aarch329Assembler5vfnmaENS0_9ConditionENS0_8DataTypeENS0_9DRegisterES4_S4_
_ZN4vixl7aarch329Assembler5vfnmaENS0_9ConditionENS0_8DataTypeENS0_9SRegisterES4_S4_
_ZN4vixl7aarch329Assembler5vfnmsENS0_9ConditionENS0_8DataTypeENS0_9DRegisterES4_S4_
_ZN4vixl7aarch329Assembler5vfnmsENS0_9ConditionENS0_8DataTypeENS0_9SRegisterES4_S4_
_ZN4vixl7aarch329Assembler5vhaddENS0_9ConditionENS0_8DataTypeENS0_9DRegisterES4_S4_
_ZN4vixl7aarch329Assembler5vhaddENS0_9ConditionENS0_8DataTypeENS0_9QRegisterES4_S4_
_ZN4vixl7aarch329Assembler5vhsubENS0_9ConditionENS0_8DataTypeENS0_9DRegisterES4_S4_
_ZN4vixl7aarch329Assembler5vhsubENS0_9ConditionENS0_8DataTypeENS0_9QRegisterES4_S4_
_ZN4vixl7aarch329Assembler5vmlalENS0_9ConditionENS0_8DataTypeENS0_9QRegisterENS0_9DRegisterENS0_13DRegisterLaneE
_ZN4vixl7aarch329Assembler5vmlalENS0_9ConditionENS0_8DataTypeENS0_9QRegisterENS0_9DRegisterES5_
_ZN4vixl7aarch329Assembler5vmlslENS0_9ConditionENS0_8DataTypeENS0_9QRegisterENS0_9DRegisterENS0_13DRegisterLaneE
_ZN4vixl7aarch329Assembler5vmlslENS0_9ConditionENS0_8DataTypeENS0_9QRegisterENS0_9DRegisterES5_
_ZN4vixl7aarch329Assembler5vmovlENS0_9ConditionENS0_8DataTypeENS0_9QRegisterENS0_9DRegisterE
_ZN4vixl7aarch329Assembler5vmovnENS0_9ConditionENS0_8DataTypeENS0_9DRegisterENS0_9QRegisterE
_ZN4vixl7aarch329Assembler5vmullENS0_9ConditionENS0_8DataTypeENS0_9QRegisterENS0_9DRegisterES5_
_ZN4vixl7aarch329Assembler5vmullENS0_9ConditionENS0_8DataTypeENS0_9QRegisterENS0_9DRegisterES5_j
_ZN4vixl7aarch329Assembler5vnmlaENS0_9ConditionENS0_8DataTypeENS0_9DRegisterES4_S4_
_ZN4vixl7aarch329Assembler5vnmlaENS0_9ConditionENS0_8DataTypeENS0_9SRegisterES4_S4_
_ZN4vixl7aarch329Assembler5vnmlsENS0_9ConditionENS0_8DataTypeENS0_9DRegisterES4_S4_
_ZN4vixl7aarch329Assembler5vnmlsENS0_9ConditionENS0_8DataTypeENS0_9SRegisterES4_S4_
_ZN4vixl7aarch329Assembler5vnmulENS0_9ConditionENS0_8DataTypeENS0_9DRegisterES4_S4_
_ZN4vixl7aarch329Assembler5vnmulENS0_9ConditionENS0_8DataTypeENS0_9SRegisterES4_S4_
_ZN4vixl7aarch329Assembler5vpaddENS0_9ConditionENS0_8DataTypeENS0_9DRegisterES4_S4_
_ZN4vixl7aarch329Assembler5vpmaxENS0_9ConditionENS0_8DataTypeENS0_9DRegisterES4_S4_
_ZN4vixl7aarch329Assembler5vpminENS0_9ConditionENS0_8DataTypeENS0_9DRegisterES4_S4_
_ZN4vixl7aarch329Assembler5vpushENS0_9ConditionENS0_8DataTypeENS0_13DRegisterListE
_ZN4vixl7aarch329Assembler5vpushENS0_9ConditionENS0_8DataTypeENS0_13SRegisterListE
_ZN4vixl7aarch329Assembler5vqabsENS0_9ConditionENS0_8DataTypeENS0_9DRegisterES4_
_ZN4vixl7aarch329Assembler5vqabsENS0_9ConditionENS0_8DataTypeENS0_9QRegisterES4_
_ZN4vixl7aarch329Assembler5vqaddENS0_9ConditionENS0_8DataTypeENS0_9DRegisterES4_S4_
_ZN4vixl7aarch329Assembler5vqaddENS0_9ConditionENS0_8DataTypeENS0_9QRegisterES4_S4_
_ZN4vixl7aarch329Assembler5vqnegENS0_9ConditionENS0_8DataTypeENS0_9DRegisterES4_
_ZN4vixl7aarch329Assembler5vqnegENS0_9ConditionENS0_8DataTypeENS0_9QRegisterES4_
_ZN4vixl7aarch329Assembler5vqshlENS0_9ConditionENS0_8DataTypeENS0_9DRegisterES4_RKNS0_8DOperandE
_ZN4vixl7aarch329Assembler5vqshlENS0_9ConditionENS0_8DataTypeENS0_9QRegisterES4_RKNS0_8QOperandE
_ZN4vixl7aarch329Assembler5vqsubENS0_9ConditionENS0_8DataTypeENS0_9DRegisterES4_S4_
_ZN4vixl7aarch329Assembler5vqsubENS0_9ConditionENS0_8DataTypeENS0_9QRegisterES4_S4_
_ZN4vixl7aarch329Assembler5vrshlENS0_9ConditionENS0_8DataTypeENS0_9DRegisterES4_S4_
_ZN4vixl7aarch329Assembler5vrshlENS0_9ConditionENS0_8DataTypeENS0_9QRegisterES4_S4_
_ZN4vixl7aarch329Assembler5vrshrENS0_9ConditionENS0_8DataTypeENS0_9DRegisterES4_RKNS0_8DOperandE
_ZN4vixl7aarch329Assembler5vrshrENS0_9ConditionENS0_8DataTypeENS0_9QRegisterES4_RKNS0_8QOperandE
_ZN4vixl7aarch329Assembler5vrsraENS0_9ConditionENS0_8DataTypeENS0_9DRegisterES4_RKNS0_8DOperandE
_ZN4vixl7aarch329Assembler5vrsraENS0_9ConditionENS0_8DataTypeENS0_9QRegisterES4_RKNS0_8QOperandE
_ZN4vixl7aarch329Assembler5vshllENS0_9ConditionENS0_8DataTypeENS0_9QRegisterENS0_9DRegisterERKNS0_8DOperandE
_ZN4vixl7aarch329Assembler5vshrnENS0_9ConditionENS0_8DataTypeENS0_9DRegisterENS0_9QRegisterERKNS0_8QOperandE
_ZN4vixl7aarch329Assembler5vsqrtENS0_9ConditionENS0_8DataTypeENS0_9DRegisterES4_
_ZN4vixl7aarch329Assembler5vsqrtENS0_9ConditionENS0_8DataTypeENS0_9SRegisterES4_
_ZN4vixl7aarch329Assembler5vsublENS0_9ConditionENS0_8DataTypeENS0_9QRegisterENS0_9DRegisterES5_
_ZN4vixl7aarch329Assembler5vsubwENS0_9ConditionENS0_8DataTypeENS0_9QRegisterES4_NS0_9DRegisterE
_ZN4vixl7aarch329Assembler5yieldENS0_9ConditionENS0_12EncodingSizeE
_ZN4vixl7aarch329Assembler6b_infoENS0_9ConditionENS0_12EncodingSizeEPNS0_8LocationEPPKNS0_13ReferenceInfoE
_ZN4vixl7aarch329Assembler6crc32bENS0_9ConditionENS0_8RegisterES3_S3_
_ZN4vixl7aarch329Assembler6crc32hENS0_9ConditionENS0_8RegisterES3_S3_
_ZN4vixl7aarch329Assembler6crc32wENS0_9ConditionENS0_8RegisterES3_S3_
_ZN4vixl7aarch329Assembler6ldaexbENS0_9ConditionENS0_8RegisterERKNS0_10MemOperandE
_ZN4vixl7aarch329Assembler6ldaexdENS0_9ConditionENS0_8RegisterES3_RKNS0_10MemOperandE
_ZN4vixl7aarch329Assembler6ldaexhENS0_9ConditionENS0_8RegisterERKNS0_10MemOperandE
_ZN4vixl7aarch329Assembler6ldrexbENS0_9ConditionENS0_8RegisterERKNS0_10MemOperandE
_ZN4vixl7aarch329Assembler6ldrexdENS0_9ConditionENS0_8RegisterES3_RKNS0_10MemOperandE
_ZN4vixl7aarch329Assembler6ldrexhENS0_9ConditionENS0_8RegisterERKNS0_10MemOperandE
_ZN4vixl7aarch329Assembler6qadd16ENS0_9ConditionENS0_8RegisterES3_S3_
_ZN4vixl7aarch329Assembler6qsub16ENS0_9ConditionENS0_8RegisterES3_S3_
_ZN4vixl7aarch329Assembler6sadd16ENS0_9ConditionENS0_8RegisterES3_S3_
_ZN4vixl7aarch329Assembler6shadd8ENS0_9ConditionENS0_8RegisterES3_S3_
_ZN4vixl7aarch329Assembler6shsub8ENS0_9ConditionENS0_8RegisterES3_S3_
_ZN4vixl7aarch329Assembler6smlabbENS0_9ConditionENS0_8RegisterES3_S3_S3_
_ZN4vixl7aarch329Assembler6smlabtENS0_9ConditionENS0_8RegisterES3_S3_S3_
_ZN4vixl7aarch329Assembler6smladxENS0_9ConditionENS0_8RegisterES3_S3_S3_
_ZN4vixl7aarch329Assembler6smlaldENS0_9ConditionENS0_8RegisterES3_S3_S3_
_ZN4vixl7aarch329Assembler6smlalsENS0_9ConditionENS0_8RegisterES3_S3_S3_
_ZN4vixl7aarch329Assembler6smlatbENS0_9ConditionENS0_8RegisterES3_S3_S3_
_ZN4vixl7aarch329Assembler6smlattENS0_9ConditionENS0_8RegisterES3_S3_S3_
_ZN4vixl7aarch329Assembler6smlawbENS0_9ConditionENS0_8RegisterES3_S3_S3_
_ZN4vixl7aarch329Assembler6smlawtENS0_9ConditionENS0_8RegisterES3_S3_S3_
_ZN4vixl7aarch329Assembler6smlsdxENS0_9ConditionENS0_8RegisterES3_S3_S3_
_ZN4vixl7aarch329Assembler6smlsldENS0_9ConditionENS0_8RegisterES3_S3_S3_
_ZN4vixl7aarch329Assembler6smmlarENS0_9ConditionENS0_8RegisterES3_S3_S3_
_ZN4vixl7aarch329Assembler6smmlsrENS0_9ConditionENS0_8RegisterES3_S3_S3_
_ZN4vixl7aarch329Assembler6smmulrENS0_9ConditionENS0_8RegisterES3_S3_
_ZN4vixl7aarch329Assembler6smuadxENS0_9ConditionENS0_8RegisterES3_S3_
_ZN4vixl7aarch329Assembler6smulbbENS0_9ConditionENS0_8RegisterES3_S3_
_ZN4vixl7aarch329Assembler6smulbtENS0_9ConditionENS0_8RegisterES3_S3_
_ZN4vixl7aarch329Assembler6smullsENS0_9ConditionENS0_8RegisterES3_S3_S3_
_ZN4vixl7aarch329Assembler6smultbENS0_9ConditionENS0_8RegisterES3_S3_
_ZN4vixl7aarch329Assembler6smulttENS0_9ConditionENS0_8RegisterES3_S3_
_ZN4vixl7aarch329Assembler6smulwbENS0_9ConditionENS0_8RegisterES3_S3_
_ZN4vixl7aarch329Assembler6smulwtENS0_9ConditionENS0_8RegisterES3_S3_
_ZN4vixl7aarch329Assembler6smusdxENS0_9ConditionENS0_8RegisterES3_S3_
_ZN4vixl7aarch329Assembler6ssat16ENS0_9ConditionENS0_8RegisterEjS3_
_ZN4vixl7aarch329Assembler6ssub16ENS0_9ConditionENS0_8RegisterES3_S3_
_ZN4vixl7aarch329Assembler6stlexbENS0_9ConditionENS0_8RegisterES3_RKNS0_10MemOperandE
_ZN4vixl7aarch329Assembler6stlexdENS0_9ConditionENS0_8RegisterES3_S3_RKNS0_10MemOperandE
_ZN4vixl7aarch329Assembler6stlexhENS0_9ConditionENS0_8RegisterES3_RKNS0_10MemOperandE
_ZN4vixl7aarch329Assembler6strexbENS0_9ConditionENS0_8RegisterES3_RKNS0_10MemOperandE
_ZN4vixl7aarch329Assembler6strexdENS0_9ConditionENS0_8RegisterES3_S3_RKNS0_10MemOperandE
_ZN4vixl7aarch329Assembler6strexhENS0_9ConditionENS0_8RegisterES3_RKNS0_10MemOperandE
_ZN4vixl7aarch329Assembler6sxtb16ENS0_9ConditionENS0_8RegisterERKNS0_7OperandE
_ZN4vixl7aarch329Assembler6uadd16ENS0_9ConditionENS0_8RegisterES3_S3_
_ZN4vixl7aarch329Assembler6uhadd8ENS0_9ConditionENS0_8RegisterES3_S3_
_ZN4vixl7aarch329Assembler6uhsub8ENS0_9ConditionENS0_8RegisterES3_S3_
_ZN4vixl7aarch329Assembler6umlalsENS0_9ConditionENS0_8RegisterES3_S3_S3_
_ZN4vixl7aarch329Assembler6umullsENS0_9ConditionENS0_8RegisterES3_S3_S3_
_ZN4vixl7aarch329Assembler6uqadd8ENS0_9ConditionENS0_8RegisterES3_S3_
_ZN4vixl7aarch329Assembler6uqsub8ENS0_9ConditionENS0_8RegisterES3_S3_
_ZN4vixl7aarch329Assembler6usada8ENS0_9ConditionENS0_8RegisterES3_S3_S3_
_ZN4vixl7aarch329Assembler6usat16ENS0_9ConditionENS0_8RegisterEjS3_
_ZN4vixl7aarch329Assembler6usub16ENS0_9ConditionENS0_8RegisterES3_S3_
_ZN4vixl7aarch329Assembler6uxtb16ENS0_9ConditionENS0_8RegisterERKNS0_7OperandE
_ZN4vixl7aarch329Assembler6vaddhnENS0_9ConditionENS0_8DataTypeENS0_9DRegisterENS0_9QRegisterES5_
_ZN4vixl7aarch329Assembler6vldmdbENS0_9ConditionENS0_8DataTypeENS0_8RegisterENS0_9WriteBackENS0_13DRegisterListE
_ZN4vixl7aarch329Assembler6vldmdbENS0_9ConditionENS0_8DataTypeENS0_8RegisterENS0_9WriteBackENS0_13SRegisterListE
_ZN4vixl7aarch329Assembler6vldmiaENS0_9ConditionENS0_8DataTypeENS0_8RegisterENS0_9WriteBackENS0_13DRegisterListE
_ZN4vixl7aarch329Assembler6vldmiaENS0_9ConditionENS0_8DataTypeENS0_8RegisterENS0_9WriteBackENS0_13SRegisterListE
_ZN4vixl7aarch329Assembler6vmaxnmENS0_8DataTypeENS0_9DRegisterES3_S3_
_ZN4vixl7aarch329Assembler6vmaxnmENS0_8DataTypeENS0_9QRegisterES3_S3_
_ZN4vixl7aarch329Assembler6vmaxnmENS0_8DataTypeENS0_9SRegisterES3_S3_
_ZN4vixl7aarch329Assembler6vminnmENS0_8DataTypeENS0_9DRegisterES3_S3_
_ZN4vixl7aarch329Assembler6vminnmENS0_8DataTypeENS0_9QRegisterES3_S3_
_ZN4vixl7aarch329Assembler6vminnmENS0_8DataTypeENS0_9SRegisterES3_S3_
_ZN4vixl7aarch329Assembler6vpadalENS0_9ConditionENS0_8DataTypeENS0_9DRegisterES4_
_ZN4vixl7aarch329Assembler6vpadalENS0_9ConditionENS0_8DataTypeENS0_9QRegisterES4_
_ZN4vixl7aarch329Assembler6vpaddlENS0_9ConditionENS0_8DataTypeENS0_9DRegisterES4_
_ZN4vixl7aarch329Assembler6vpaddlENS0_9ConditionENS0_8DataTypeENS0_9QRegisterES4_
_ZN4vixl7aarch329Assembler6vqmovnENS0_9ConditionENS0_8DataTypeENS0_9DRegisterENS0_9QRegisterE
_ZN4vixl7aarch329Assembler6vqrshlENS0_9ConditionENS0_8DataTypeENS0_9DRegisterES4_S4_
_ZN4vixl7aarch329Assembler6vqrshlENS0_9ConditionENS0_8DataTypeENS0_9QRegisterES4_S4_
_ZN4vixl7aarch329Assembler6vqshluENS0_9ConditionENS0_8DataTypeENS0_9DRegisterES4_RKNS0_8DOperandE
_ZN4vixl7aarch329Assembler6vqshluENS0_9ConditionENS0_8DataTypeENS0_9QRegisterES4_RKNS0_8QOperandE
_ZN4vixl7aarch329Assembler6vqshrnENS0_9ConditionENS0_8DataTypeENS0_9DRegisterENS0_9QRegisterERKNS0_8QOperandE
_ZN4vixl7aarch329Assembler6vrecpeENS0_9ConditionENS0_8DataTypeENS0_9DRegisterES4_
_ZN4vixl7aarch329Assembler6vrecpeENS0_9ConditionENS0_8DataTypeENS0_9QRegisterES4_
_ZN4vixl7aarch329Assembler6vrecpsENS0_9ConditionENS0_8DataTypeENS0_9DRegisterES4_S4_
_ZN4vixl7aarch329Assembler6vrecpsENS0_9ConditionENS0_8DataTypeENS0_9QRegisterES4_S4_
_ZN4vixl7aarch329Assembler6vrev16ENS0_9ConditionENS0_8DataTypeENS0_9DRegisterES4_
_ZN4vixl7aarch329Assembler6vrev16ENS0_9ConditionENS0_8DataTypeENS0_9QRegisterES4_
_ZN4vixl7aarch329Assembler6vrev32ENS0_9ConditionENS0_8DataTypeENS0_9DRegisterES4_
_ZN4vixl7aarch329Assembler6vrev32ENS0_9ConditionENS0_8DataTypeENS0_9QRegisterES4_
_ZN4vixl7aarch329Assembler6vrev64ENS0_9ConditionENS0_8DataTypeENS0_9DRegisterES4_
_ZN4vixl7aarch329Assembler6vrev64ENS0_9ConditionENS0_8DataTypeENS0_9QRegisterES4_
_ZN4vixl7aarch329Assembler6vrhaddENS0_9ConditionENS0_8DataTypeENS0_9DRegisterES4_S4_
_ZN4vixl7aarch329Assembler6vrhaddENS0_9ConditionENS0_8DataTypeENS0_9QRegisterES4_S4_
_ZN4vixl7aarch329Assembler6vrintaENS0_8DataTypeES2_NS0_9DRegisterES3_
_ZN4vixl7aarch329Assembler6vrintaENS0_8DataTypeES2_NS0_9QRegisterES3_
_ZN4vixl7aarch329Assembler6vrintaENS0_8DataTypeES2_NS0_9SRegisterES3_
_ZN4vixl7aarch329Assembler6vrintmENS0_8DataTypeES2_NS0_9DRegisterES3_
_ZN4vixl7aarch329Assembler6vrintmENS0_8DataTypeES2_NS0_9QRegisterES3_
_ZN4vixl7aarch329Assembler6vrintmENS0_8DataTypeES2_NS0_9SRegisterES3_
_ZN4vixl7aarch329Assembler6vrintnENS0_8DataTypeES2_NS0_9DRegisterES3_
_ZN4vixl7aarch329Assembler6vrintnENS0_8DataTypeES2_NS0_9QRegisterES3_
_ZN4vixl7aarch329Assembler6vrintnENS0_8DataTypeES2_NS0_9SRegisterES3_
_ZN4vixl7aarch329Assembler6vrintpENS0_8DataTypeES2_NS0_9DRegisterES3_
_ZN4vixl7aarch329Assembler6vrintpENS0_8DataTypeES2_NS0_9QRegisterES3_
_ZN4vixl7aarch329Assembler6vrintpENS0_8DataTypeES2_NS0_9SRegisterES3_
_ZN4vixl7aarch329Assembler6vrintrENS0_9ConditionENS0_8DataTypeES3_NS0_9DRegisterES4_
_ZN4vixl7aarch329Assembler6vrintrENS0_9ConditionENS0_8DataTypeES3_NS0_9SRegisterES4_
_ZN4vixl7aarch329Assembler6vrintxENS0_8DataTypeES2_NS0_9QRegisterES3_
_ZN4vixl7aarch329Assembler6vrintxENS0_9ConditionENS0_8DataTypeES3_NS0_9DRegisterES4_
_ZN4vixl7aarch329Assembler6vrintxENS0_9ConditionENS0_8DataTypeES3_NS0_9SRegisterES4_
_ZN4vixl7aarch329Assembler6vrintzENS0_8DataTypeES2_NS0_9QRegisterES3_
_ZN4vixl7aarch329Assembler6vrintzENS0_9ConditionENS0_8DataTypeES3_NS0_9DRegisterES4_
_ZN4vixl7aarch329Assembler6vrintzENS0_9ConditionENS0_8DataTypeES3_NS0_9SRegisterES4_
_ZN4vixl7aarch329Assembler6vrshrnENS0_9ConditionENS0_8DataTypeENS0_9DRegisterENS0_9QRegisterERKNS0_8QOperandE
_ZN4vixl7aarch329Assembler6vseleqENS0_8DataTypeENS0_9DRegisterES3_S3_
_ZN4vixl7aarch329Assembler6vseleqENS0_8DataTypeENS0_9SRegisterES3_S3_
_ZN4vixl7aarch329Assembler6vselgeENS0_8DataTypeENS0_9DRegisterES3_S3_
_ZN4vixl7aarch329Assembler6vselgeENS0_8DataTypeENS0_9SRegisterES3_S3_
_ZN4vixl7aarch329Assembler6vselgtENS0_8DataTypeENS0_9DRegisterES3_S3_
_ZN4vixl7aarch329Assembler6vselgtENS0_8DataTypeENS0_9SRegisterES3_S3_
_ZN4vixl7aarch329Assembler6vselvsENS0_8DataTypeENS0_9DRegisterES3_S3_
_ZN4vixl7aarch329Assembler6vselvsENS0_8DataTypeENS0_9SRegisterES3_S3_
_ZN4vixl7aarch329Assembler6vstmdbENS0_9ConditionENS0_8DataTypeENS0_8RegisterENS0_9WriteBackENS0_13DRegisterListE
_ZN4vixl7aarch329Assembler6vstmdbENS0_9ConditionENS0_8DataTypeENS0_8RegisterENS0_9WriteBackENS0_13SRegisterListE
_ZN4vixl7aarch329Assembler6vstmiaENS0_9ConditionENS0_8DataTypeENS0_8RegisterENS0_9WriteBackENS0_13DRegisterListE
_ZN4vixl7aarch329Assembler6vstmiaENS0_9ConditionENS0_8DataTypeENS0_8RegisterENS0_9WriteBackENS0_13SRegisterListE
_ZN4vixl7aarch329Assembler6vsubhnENS0_9ConditionENS0_8DataTypeENS0_9DRegisterENS0_9QRegisterES5_
_ZN4vixl7aarch329Assembler7EmitA32Ej
_ZN4vixl7aarch329Assembler7bl_infoENS0_9ConditionEPNS0_8LocationEPPKNS0_13ReferenceInfoE
_ZN4vixl7aarch329Assembler7crc32cbENS0_9ConditionENS0_8RegisterES3_S3_
_ZN4vixl7aarch329Assembler7crc32chENS0_9ConditionENS0_8RegisterES3_S3_
_ZN4vixl7aarch329Assembler7crc32cwENS0_9ConditionENS0_8RegisterES3_S3_
_ZN4vixl7aarch329Assembler7fldmdbxENS0_9ConditionENS0_8RegisterENS0_9WriteBackENS0_13DRegisterListE
_ZN4vixl7aarch329Assembler7fldmiaxENS0_9ConditionENS0_8RegisterENS0_9WriteBackENS0_13DRegisterListE
_ZN4vixl7aarch329Assembler7fstmdbxENS0_9ConditionENS0_8RegisterENS0_9WriteBackENS0_13DRegisterListE
_ZN4vixl7aarch329Assembler7fstmiaxENS0_9ConditionENS0_8RegisterENS0_9WriteBackENS0_13DRegisterListE
_ZN4vixl7aarch329Assembler7shadd16ENS0_9ConditionENS0_8RegisterES3_S3_
_ZN4vixl7aarch329Assembler7shsub16ENS0_9ConditionENS0_8RegisterES3_S3_
_ZN4vixl7aarch329Assembler7smlalbbENS0_9ConditionENS0_8RegisterES3_S3_S3_
_ZN4vixl7aarch329Assembler7smlalbtENS0_9ConditionENS0_8RegisterES3_S3_S3_
_ZN4vixl7aarch329Assembler7smlaldxENS0_9ConditionENS0_8RegisterES3_S3_S3_
_ZN4vixl7aarch329Assembler7smlaltbENS0_9ConditionENS0_8RegisterES3_S3_S3_
_ZN4vixl7aarch329Assembler7smlalttENS0_9ConditionENS0_8RegisterES3_S3_S3_
_ZN4vixl7aarch329Assembler7smlsldxENS0_9ConditionENS0_8RegisterES3_S3_S3_
_ZN4vixl7aarch329Assembler7sxtab16ENS0_9ConditionENS0_8RegisterES3_RKNS0_7OperandE
_ZN4vixl7aarch329Assembler7uhadd16ENS0_9ConditionENS0_8RegisterES3_S3_
_ZN4vixl7aarch329Assembler7uhsub16ENS0_9ConditionENS0_8RegisterES3_S3_
_ZN4vixl7aarch329Assembler7uqadd16ENS0_9ConditionENS0_8RegisterES3_S3_
_ZN4vixl7aarch329Assembler7uqsub16ENS0_9ConditionENS0_8RegisterES3_S3_
_ZN4vixl7aarch329Assembler7uxtab16ENS0_9ConditionENS0_8RegisterES3_RKNS0_7OperandE
_ZN4vixl7aarch329Assembler7vqdmlalENS0_9ConditionENS0_8DataTypeENS0_9QRegisterENS0_9DRegisterES5_
_ZN4vixl7aarch329Assembler7vqdmlalENS0_9ConditionENS0_8DataTypeENS0_9QRegisterENS0_9DRegisterES5_j
_ZN4vixl7aarch329Assembler7vqdmlslENS0_9ConditionENS0_8DataTypeENS0_9QRegisterENS0_9DRegisterES5_
_ZN4vixl7aarch329Assembler7vqdmlslENS0_9ConditionENS0_8DataTypeENS0_9QRegisterENS0_9DRegisterES5_j
_ZN4vixl7aarch329Assembler7vqdmulhENS0_9ConditionENS0_8DataTypeENS0_9DRegisterES4_NS0_13DRegisterLaneE
_ZN4vixl7aarch329Assembler7vqdmulhENS0_9ConditionENS0_8DataTypeENS0_9DRegisterES4_S4_
_ZN4vixl7aarch329Assembler7vqdmulhENS0_9ConditionENS0_8DataTypeENS0_9QRegisterES4_NS0_13DRegisterLaneE
_ZN4vixl7aarch329Assembler7vqdmulhENS0_9ConditionENS0_8DataTypeENS0_9QRegisterES4_S4_
_ZN4vixl7aarch329Assembler7vqdmullENS0_9ConditionENS0_8DataTypeENS0_9QRegisterENS0_9DRegisterENS0_13DRegisterLaneE
_ZN4vixl7aarch329Assembler7vqdmullENS0_9ConditionENS0_8DataTypeENS0_9QRegisterENS0_9DRegisterES5_
_ZN4vixl7aarch329Assembler7vqmovunENS0_9ConditionENS0_8DataTypeENS0_9DRegisterENS0_9QRegisterE
_ZN4vixl7aarch329Assembler7vqrshrnENS0_9ConditionENS0_8DataTypeENS0_9DRegisterENS0_9QRegisterERKNS0_8QOperandE
_ZN4vixl7aarch329Assembler7vqshrunENS0_9ConditionENS0_8DataTypeENS0_9DRegisterENS0_9QRegisterERKNS0_8QOperandE
_ZN4vixl7aarch329Assembler7vraddhnENS0_9ConditionENS0_8DataTypeENS0_9DRegisterENS0_9QRegisterES5_
_ZN4vixl7aarch329Assembler7vrsqrteENS0_9ConditionENS0_8DataTypeENS0_9DRegisterES4_
_ZN4vixl7aarch329Assembler7vrsqrteENS0_9ConditionENS0_8DataTypeENS0_9QRegisterES4_
_ZN4vixl7aarch329Assembler7vrsqrtsENS0_9ConditionENS0_8DataTypeENS0_9DRegisterES4_S4_
_ZN4vixl7aarch329Assembler7vrsqrtsENS0_9ConditionENS0_8DataTypeENS0_9QRegisterES4_S4_
_ZN4vixl7aarch329Assembler7vrsubhnENS0_9ConditionENS0_8DataTypeENS0_9DRegisterENS0_9QRegisterES5_
_ZN4vixl7aarch329Assembler8adr_infoENS0_9ConditionENS0_12EncodingSizeENS0_8RegisterEPNS0_8LocationEPPKNS0_13ReferenceInfoE
_ZN4vixl7aarch329Assembler8blx_infoENS0_9ConditionEPNS0_8LocationEPPKNS0_13ReferenceInfoE
_ZN4vixl7aarch329Assembler8cbz_infoENS0_8RegisterEPNS0_8LocationEPPKNS0_13ReferenceInfoE
_ZN4vixl7aarch329Assembler8ldr_infoENS0_9ConditionENS0_12EncodingSizeENS0_8RegisterEPNS0_8LocationEPPKNS0_13ReferenceInfoE
_ZN4vixl7aarch329Assembler8pld_infoENS0_9ConditionEPNS0_8LocationEPPKNS0_13ReferenceInfoE
_ZN4vixl7aarch329Assembler8pli_infoENS0_9ConditionEPNS0_8LocationEPPKNS0_13ReferenceInfoE
_ZN4vixl7aarch329Assembler8vqrdmulhENS0_9ConditionENS0_8DataTypeENS0_9DRegisterES4_NS0_13DRegisterLaneE
_ZN4vixl7aarch329Assembler8vqrdmulhENS0_9ConditionENS0_8DataTypeENS0_9DRegisterES4_S4_
_ZN4vixl7aarch329Assembler8vqrdmulhENS0_9ConditionENS0_8DataTypeENS0_9QRegisterES4_NS0_13DRegisterLaneE
_ZN4vixl7aarch329Assembler8vqrdmulhENS0_9ConditionENS0_8DataTypeENS0_9QRegisterES4_S4_
_ZN4vixl7aarch329Assembler8vqrshrunENS0_9ConditionENS0_8DataTypeENS0_9DRegisterENS0_9QRegisterERKNS0_8QOperandE
_ZN4vixl7aarch329Assembler9cbnz_infoENS0_8RegisterEPNS0_8LocationEPPKNS0_13ReferenceInfoE
_ZN4vixl7aarch329Assembler9ldrb_infoENS0_9ConditionENS0_8RegisterEPNS0_8LocationEPPKNS0_13ReferenceInfoE
_ZN4vixl7aarch329Assembler9ldrd_infoENS0_9ConditionENS0_8RegisterES3_PNS0_8LocationEPPKNS0_13ReferenceInfoE
_ZN4vixl7aarch329Assembler9ldrh_infoENS0_9ConditionENS0_8RegisterEPNS0_8LocationEPPKNS0_13ReferenceInfoE
_ZN4vixl7aarch329Assembler9vldr_infoENS0_9ConditionENS0_8DataTypeENS0_9DRegisterEPNS0_8LocationEPPKNS0_13ReferenceInfoE
_ZN4vixl7aarch329Assembler9vldr_infoENS0_9ConditionENS0_8DataTypeENS0_9SRegisterEPNS0_8LocationEPPKNS0_13ReferenceInfoE
_ZN4vixl7aarch329Dt_U_sx_1C1ENS0_8DataTypeE
_ZN4vixl7aarch329Dt_U_sx_1C2ENS0_8DataTypeE
_ZN4vixl7aarch329Dt_imm4_1C1ENS0_8DataTypeERKNS0_13DRegisterLaneE
_ZN4vixl7aarch329Dt_imm4_1C2ENS0_8DataTypeERKNS0_13DRegisterLaneE
_ZN4vixl7aarch329Dt_imm6_1C1ENS0_8DataTypeE
_ZN4vixl7aarch329Dt_imm6_1C2ENS0_8DataTypeE
_ZN4vixl7aarch329Dt_imm6_2C1ENS0_8DataTypeE
_ZN4vixl7aarch329Dt_imm6_2C2ENS0_8DataTypeE
_ZN4vixl7aarch329Dt_imm6_3C1ENS0_8DataTypeE
_ZN4vixl7aarch329Dt_imm6_3C2ENS0_8DataTypeE
_ZN4vixl7aarch329Dt_imm6_4C1ENS0_8DataTypeE
_ZN4vixl7aarch329Dt_imm6_4C2ENS0_8DataTypeE
_ZN4vixl7aarch329Dt_op_U_1C1ENS0_8DataTypeES2_
_ZN4vixl7aarch329Dt_op_U_1C2ENS0_8DataTypeES2_
_ZN4vixl7aarch329Dt_size_1C1ENS0_8DataTypeE
_ZN4vixl7aarch329Dt_size_1C2ENS0_8DataTypeE
_ZN4vixl7aarch329Dt_size_2C1ENS0_8DataTypeE
_ZN4vixl7aarch329Dt_size_2C2ENS0_8DataTypeE
_ZN4vixl7aarch329Dt_size_3C1ENS0_8DataTypeE
_ZN4vixl7aarch329Dt_size_3C2ENS0_8DataTypeE
_ZN4vixl7aarch329Dt_size_4C1ENS0_8DataTypeE
_ZN4vixl7aarch329Dt_size_4C2ENS0_8DataTypeE
_ZN4vixl7aarch329Dt_size_5C1ENS0_8DataTypeE
_ZN4vixl7aarch329Dt_size_5C2ENS0_8DataTypeE
_ZN4vixl7aarch329Dt_size_6C1ENS0_8DataTypeE
_ZN4vixl7aarch329Dt_size_6C2ENS0_8DataTypeE
_ZN4vixl7aarch329Dt_size_7C1ENS0_8DataTypeE
_ZN4vixl7aarch329Dt_size_7C2ENS0_8DataTypeE
_ZN4vixl7aarch329Dt_size_8C1ENS0_8DataTypeENS0_9AlignmentE
_ZN4vixl7aarch329Dt_size_8C2ENS0_8DataTypeENS0_9AlignmentE
_ZN4vixl7aarch329Dt_size_9C1ENS0_8DataTypeE
_ZN4vixl7aarch329Dt_size_9C2ENS0_8DataTypeE
_ZN4vixl7aarch329ToCStringENS0_15InstructionTypeE
_ZN4vixl7aarch32lsERNSt3__113basic_ostreamIcNS1_11char_traitsIcEEEENS0_12RegisterListE
_ZN4vixl7aarch32lsERNSt3__113basic_ostreamIcNS1_11char_traitsIcEEEENS0_13DRegisterListE
_ZN4vixl7aarch32lsERNSt3__113basic_ostreamIcNS1_11char_traitsIcEEEENS0_13SRegisterListE
_ZN4vixl7aarch32lsERNSt3__113basic_ostreamIcNS1_11char_traitsIcEEEENS0_16NeonRegisterListE
_ZN4vixl7aarch32lsERNSt3__113basic_ostreamIcNS1_11char_traitsIcEEEENS0_8RegisterE
_ZN4vixl7aarch32lsERNSt3__113basic_ostreamIcNS1_11char_traitsIcEEEERKNS0_10MemOperandE
_ZN4vixl7aarch32lsERNSt3__113basic_ostreamIcNS1_11char_traitsIcEEEERKNS0_13NeonImmediateE
_ZN4vixl7aarch32lsERNSt3__113basic_ostreamIcNS1_11char_traitsIcEEEERKNS0_17AlignedMemOperandE
_ZN4vixl7aarch32lsERNSt3__113basic_ostreamIcNS1_11char_traitsIcEEEERKNS0_7OperandE
_ZN4vixl7aarch32lsERNSt3__113basic_ostreamIcNS1_11char_traitsIcEEEERKNS0_8DOperandE
_ZN4vixl7aarch32lsERNSt3__113basic_ostreamIcNS1_11char_traitsIcEEEERKNS0_8QOperandE
_ZN4vixl7aarch32lsERNSt3__113basic_ostreamIcNS1_11char_traitsIcEEEERKNS0_8SOperandE
_ZN4vixl8BitCountENS_6Uint32E
_ZN4vixl8BitCountEm
_ZN4vixl8FloatExpEf
_ZN4vixl9DoubleExpEd
_ZN4vixl9FloatPackEjjj
_ZN4vixl9FloatSignEf
_ZNK4vixl7aarch3210Endianness7GetNameEv
_ZNK4vixl7aarch3212EncodingSize7GetNameEv
_ZNK4vixl7aarch3212RegisterList25GetFirstAvailableRegisterEv
_ZNK4vixl7aarch3213MemoryBarrier7GetNameEv
_ZNK4vixl7aarch3213VRegisterList26GetFirstAvailableDRegisterEv
_ZNK4vixl7aarch3213VRegisterList26GetFirstAvailableQRegisterEv
_ZNK4vixl7aarch3213VRegisterList26GetFirstAvailableSRegisterEv
_ZNK4vixl7aarch3214BankedRegister7GetNameEv
_ZNK4vixl7aarch3214InterruptFlags7GetNameEv
_ZNK4vixl7aarch3215SpecialRegister7GetNameEv
_ZNK4vixl7aarch3217SpecialFPRegister7GetNameEv
_ZNK4vixl7aarch3221MaskedSpecialRegister7GetNameEv
_ZNK4vixl7aarch3223UseScratchRegisterScope11IsAvailableERKNS0_8RegisterE
_ZNK4vixl7aarch3223UseScratchRegisterScope11IsAvailableERKNS0_9VRegisterE
_ZNK4vixl7aarch325Shift13IsValidAmountEj
_ZNK4vixl7aarch325Shift7GetNameEv
_ZNK4vixl7aarch328DataType7GetNameEv
_ZNK4vixl7aarch328Location14GetMinLocationEv
_ZNK4vixl7aarch328Location15GetMaxAlignmentEv
_ZNK4vixl7aarch328Location17Needs16BitPaddingEi
_ZNK4vixl7aarch329Condition7GetNameEv
_ZNK4vixl7aarch329VRegister1DEv
_ZNK4vixl7aarch329VRegister1QEv
_ZNK4vixl7aarch329VRegister1SEv
_ZTVN4vixl7aarch3210RawLiteralE
_ZTVN4vixl7aarch3214MacroAssemblerE
_ZTVN4vixl7aarch325LabelE
_ZTVN4vixl7aarch328LocationE
_ZTVN4vixl7aarch329AssemblerE
_ZThn72_N4vixl7aarch3214MacroAssembler18EnsureEmitPoolsForEm
