_ZN7android8hardware10automotive3evs4V1_010IEvsCamera10descriptorE
_ZN7android8hardware10automotive3evs4V1_010IEvsCamera10getServiceERKNSt3__112basic_stringIcNS5_11char_traitsIcEENS5_9allocatorIcEEEEb
_ZN7android8hardware10automotive3evs4V1_010IEvsCamera11linkToDeathERKNS_2spINS0_20hidl_death_recipientEEEy
_ZN7android8hardware10automotive3evs4V1_010IEvsCamera12getDebugInfoENSt3__18functionIFvRKNS_4hidl4base4V1_09DebugInfoEEEE
_ZN7android8hardware10automotive3evs4V1_010IEvsCamera12getHashChainENSt3__18functionIFvRKNS0_8hidl_vecINS0_10hidl_arrayIhLj32EJEEEEEEEE
_ZN7android8hardware10automotive3evs4V1_010IEvsCamera13tryGetServiceERKNSt3__112basic_stringIcNS5_11char_traitsIcEENS5_9allocatorIcEEEEb
_ZN7android8hardware10automotive3evs4V1_010IEvsCamera13unlinkToDeathERKNS_2spINS0_20hidl_death_recipientEEE
_ZN7android8hardware10automotive3evs4V1_010IEvsCamera14interfaceChainENSt3__18functionIFvRKNS0_8hidl_vecINS0_11hidl_stringEEEEEE
_ZN7android8hardware10automotive3evs4V1_010IEvsCamera17registerAsServiceERKNSt3__112basic_stringIcNS5_11char_traitsIcEENS5_9allocatorIcEEEE
_ZN7android8hardware10automotive3evs4V1_010IEvsCamera19interfaceDescriptorENSt3__18functionIFvRKNS0_11hidl_stringEEEE
_ZN7android8hardware10automotive3evs4V1_010IEvsCamera21notifySyspropsChangedEv
_ZN7android8hardware10automotive3evs4V1_010IEvsCamera21setHALInstrumentationEv
_ZN7android8hardware10automotive3evs4V1_010IEvsCamera24registerForNotificationsERKNSt3__112basic_stringIcNS5_11char_traitsIcEENS5_9allocatorIcEEEERKNS_2spINS_4hidl7manager4V1_020IServiceNotificationEEE
_ZN7android8hardware10automotive3evs4V1_010IEvsCamera4pingEv
_ZN7android8hardware10automotive3evs4V1_010IEvsCamera5debugERKNS0_11hidl_handleERKNS0_8hidl_vecINS0_11hidl_stringEEE
_ZN7android8hardware10automotive3evs4V1_010IEvsCamera8castFromERKNS_2spINS_4hidl4base4V1_05IBaseEEEb
_ZN7android8hardware10automotive3evs4V1_010IEvsCamera8castFromERKNS_2spIS4_EEb
_ZN7android8hardware10automotive3evs4V1_011BsEvsCamera13addOnewayTaskENSt3__18functionIFvvEEE
_ZN7android8hardware10automotive3evs4V1_011BsEvsCameraC1ENS_2spINS3_10IEvsCameraEEE
_ZN7android8hardware10automotive3evs4V1_011BsEvsCameraC2ENS_2spINS3_10IEvsCameraEEE
_ZN7android8hardware10automotive3evs4V1_011IEvsDisplay10descriptorE
_ZN7android8hardware10automotive3evs4V1_011IEvsDisplay10getServiceERKNSt3__112basic_stringIcNS5_11char_traitsIcEENS5_9allocatorIcEEEEb
_ZN7android8hardware10automotive3evs4V1_011IEvsDisplay11linkToDeathERKNS_2spINS0_20hidl_death_recipientEEEy
_ZN7android8hardware10automotive3evs4V1_011IEvsDisplay12getDebugInfoENSt3__18functionIFvRKNS_4hidl4base4V1_09DebugInfoEEEE
_ZN7android8hardware10automotive3evs4V1_011IEvsDisplay12getHashChainENSt3__18functionIFvRKNS0_8hidl_vecINS0_10hidl_arrayIhLj32EJEEEEEEEE
_ZN7android8hardware10automotive3evs4V1_011IEvsDisplay13tryGetServiceERKNSt3__112basic_stringIcNS5_11char_traitsIcEENS5_9allocatorIcEEEEb
_ZN7android8hardware10automotive3evs4V1_011IEvsDisplay13unlinkToDeathERKNS_2spINS0_20hidl_death_recipientEEE
_ZN7android8hardware10automotive3evs4V1_011IEvsDisplay14interfaceChainENSt3__18functionIFvRKNS0_8hidl_vecINS0_11hidl_stringEEEEEE
_ZN7android8hardware10automotive3evs4V1_011IEvsDisplay17registerAsServiceERKNSt3__112basic_stringIcNS5_11char_traitsIcEENS5_9allocatorIcEEEE
_ZN7android8hardware10automotive3evs4V1_011IEvsDisplay19interfaceDescriptorENSt3__18functionIFvRKNS0_11hidl_stringEEEE
_ZN7android8hardware10automotive3evs4V1_011IEvsDisplay21notifySyspropsChangedEv
_ZN7android8hardware10automotive3evs4V1_011IEvsDisplay21setHALInstrumentationEv
_ZN7android8hardware10automotive3evs4V1_011IEvsDisplay24registerForNotificationsERKNSt3__112basic_stringIcNS5_11char_traitsIcEENS5_9allocatorIcEEEERKNS_2spINS_4hidl7manager4V1_020IServiceNotificationEEE
_ZN7android8hardware10automotive3evs4V1_011IEvsDisplay4pingEv
_ZN7android8hardware10automotive3evs4V1_011IEvsDisplay5debugERKNS0_11hidl_handleERKNS0_8hidl_vecINS0_11hidl_stringEEE
_ZN7android8hardware10automotive3evs4V1_011IEvsDisplay8castFromERKNS_2spINS_4hidl4base4V1_05IBaseEEEb
_ZN7android8hardware10automotive3evs4V1_011IEvsDisplay8castFromERKNS_2spIS4_EEb
_ZN7android8hardware10automotive3evs4V1_012BsEvsDisplay13addOnewayTaskENSt3__18functionIFvvEEE
_ZN7android8hardware10automotive3evs4V1_012BsEvsDisplayC1ENS_2spINS3_11IEvsDisplayEEE
_ZN7android8hardware10automotive3evs4V1_012BsEvsDisplayC2ENS_2spINS3_11IEvsDisplayEEE
_ZN7android8hardware10automotive3evs4V1_013BnHwEvsCamera10onTransactEjRKNS0_6ParcelEPS5_jNSt3__18functionIFvRS5_EEE
_ZN7android8hardware10automotive3evs4V1_013BnHwEvsCamera12getDebugInfoENSt3__18functionIFvRKNS_4hidl4base4V1_09DebugInfoEEEE
_ZN7android8hardware10automotive3evs4V1_013BnHwEvsCamera19_hidl_doneWithFrameEPNS_4hidl4base4V1_08BnHwBaseERKNS0_6ParcelEPSA_NSt3__18functionIFvRSA_EEE
_ZN7android8hardware10automotive3evs4V1_013BnHwEvsCamera19_hidl_getCameraInfoEPNS_4hidl4base4V1_08BnHwBaseERKNS0_6ParcelEPSA_NSt3__18functionIFvRSA_EEE
_ZN7android8hardware10automotive3evs4V1_013BnHwEvsCamera21_hidl_getExtendedInfoEPNS_4hidl4base4V1_08BnHwBaseERKNS0_6ParcelEPSA_NSt3__18functionIFvRSA_EEE
_ZN7android8hardware10automotive3evs4V1_013BnHwEvsCamera21_hidl_setExtendedInfoEPNS_4hidl4base4V1_08BnHwBaseERKNS0_6ParcelEPSA_NSt3__18functionIFvRSA_EEE
_ZN7android8hardware10automotive3evs4V1_013BnHwEvsCamera21_hidl_stopVideoStreamEPNS_4hidl4base4V1_08BnHwBaseERKNS0_6ParcelEPSA_NSt3__18functionIFvRSA_EEE
_ZN7android8hardware10automotive3evs4V1_013BnHwEvsCamera22_hidl_startVideoStreamEPNS_4hidl4base4V1_08BnHwBaseERKNS0_6ParcelEPSA_NSt3__18functionIFvRSA_EEE
_ZN7android8hardware10automotive3evs4V1_013BnHwEvsCamera26_hidl_setMaxFramesInFlightEPNS_4hidl4base4V1_08BnHwBaseERKNS0_6ParcelEPSA_NSt3__18functionIFvRSA_EEE
_ZN7android8hardware10automotive3evs4V1_013BnHwEvsCamera4pingEv
_ZN7android8hardware10automotive3evs4V1_013BnHwEvsCameraC1ERKNS_2spINS3_10IEvsCameraEEE
_ZN7android8hardware10automotive3evs4V1_013BnHwEvsCameraC2ERKNS_2spINS3_10IEvsCameraEEE
_ZN7android8hardware10automotive3evs4V1_013BnHwEvsCameraD0Ev
_ZN7android8hardware10automotive3evs4V1_013BnHwEvsCameraD1Ev
_ZN7android8hardware10automotive3evs4V1_013BnHwEvsCameraD2Ev
_ZN7android8hardware10automotive3evs4V1_013BpHwEvsCamera11linkToDeathERKNS_2spINS0_20hidl_death_recipientEEEy
_ZN7android8hardware10automotive3evs4V1_013BpHwEvsCamera12getDebugInfoENSt3__18functionIFvRKNS_4hidl4base4V1_09DebugInfoEEEE
_ZN7android8hardware10automotive3evs4V1_013BpHwEvsCamera12getHashChainENSt3__18functionIFvRKNS0_8hidl_vecINS0_10hidl_arrayIhLj32EJEEEEEEEE
_ZN7android8hardware10automotive3evs4V1_013BpHwEvsCamera13doneWithFrameERKNS3_10BufferDescE
_ZN7android8hardware10automotive3evs4V1_013BpHwEvsCamera13getCameraInfoENSt3__18functionIFvRKNS3_10CameraDescEEEE
_ZN7android8hardware10automotive3evs4V1_013BpHwEvsCamera13unlinkToDeathERKNS_2spINS0_20hidl_death_recipientEEE
_ZN7android8hardware10automotive3evs4V1_013BpHwEvsCamera14interfaceChainENSt3__18functionIFvRKNS0_8hidl_vecINS0_11hidl_stringEEEEEE
_ZN7android8hardware10automotive3evs4V1_013BpHwEvsCamera15getExtendedInfoEj
_ZN7android8hardware10automotive3evs4V1_013BpHwEvsCamera15setExtendedInfoEji
_ZN7android8hardware10automotive3evs4V1_013BpHwEvsCamera15stopVideoStreamEv
_ZN7android8hardware10automotive3evs4V1_013BpHwEvsCamera16startVideoStreamERKNS_2spINS3_16IEvsCameraStreamEEE
_ZN7android8hardware10automotive3evs4V1_013BpHwEvsCamera19_hidl_doneWithFrameEPNS0_10IInterfaceEPNS0_7details16HidlInstrumentorERKNS3_10BufferDescE
_ZN7android8hardware10automotive3evs4V1_013BpHwEvsCamera19_hidl_getCameraInfoEPNS0_10IInterfaceEPNS0_7details16HidlInstrumentorENSt3__18functionIFvRKNS3_10CameraDescEEEE
_ZN7android8hardware10automotive3evs4V1_013BpHwEvsCamera19interfaceDescriptorENSt3__18functionIFvRKNS0_11hidl_stringEEEE
_ZN7android8hardware10automotive3evs4V1_013BpHwEvsCamera20setMaxFramesInFlightEj
_ZN7android8hardware10automotive3evs4V1_013BpHwEvsCamera21_hidl_getExtendedInfoEPNS0_10IInterfaceEPNS0_7details16HidlInstrumentorEj
_ZN7android8hardware10automotive3evs4V1_013BpHwEvsCamera21_hidl_setExtendedInfoEPNS0_10IInterfaceEPNS0_7details16HidlInstrumentorEji
_ZN7android8hardware10automotive3evs4V1_013BpHwEvsCamera21_hidl_stopVideoStreamEPNS0_10IInterfaceEPNS0_7details16HidlInstrumentorE
_ZN7android8hardware10automotive3evs4V1_013BpHwEvsCamera21notifySyspropsChangedEv
_ZN7android8hardware10automotive3evs4V1_013BpHwEvsCamera21setHALInstrumentationEv
_ZN7android8hardware10automotive3evs4V1_013BpHwEvsCamera22_hidl_startVideoStreamEPNS0_10IInterfaceEPNS0_7details16HidlInstrumentorERKNS_2spINS3_16IEvsCameraStreamEEE
_ZN7android8hardware10automotive3evs4V1_013BpHwEvsCamera26_hidl_setMaxFramesInFlightEPNS0_10IInterfaceEPNS0_7details16HidlInstrumentorEj
_ZN7android8hardware10automotive3evs4V1_013BpHwEvsCamera4pingEv
_ZN7android8hardware10automotive3evs4V1_013BpHwEvsCamera5debugERKNS0_11hidl_handleERKNS0_8hidl_vecINS0_11hidl_stringEEE
_ZN7android8hardware10automotive3evs4V1_013BpHwEvsCameraC1ERKNS_2spINS0_7IBinderEEE
_ZN7android8hardware10automotive3evs4V1_013BpHwEvsCameraC2ERKNS_2spINS0_7IBinderEEE
_ZN7android8hardware10automotive3evs4V1_014BnHwEvsDisplay10onTransactEjRKNS0_6ParcelEPS5_jNSt3__18functionIFvRS5_EEE
_ZN7android8hardware10automotive3evs4V1_014BnHwEvsDisplay12getDebugInfoENSt3__18functionIFvRKNS_4hidl4base4V1_09DebugInfoEEEE
_ZN7android8hardware10automotive3evs4V1_014BnHwEvsDisplay20_hidl_getDisplayInfoEPNS_4hidl4base4V1_08BnHwBaseERKNS0_6ParcelEPSA_NSt3__18functionIFvRSA_EEE
_ZN7android8hardware10automotive3evs4V1_014BnHwEvsDisplay21_hidl_getDisplayStateEPNS_4hidl4base4V1_08BnHwBaseERKNS0_6ParcelEPSA_NSt3__18functionIFvRSA_EEE
_ZN7android8hardware10automotive3evs4V1_014BnHwEvsDisplay21_hidl_getTargetBufferEPNS_4hidl4base4V1_08BnHwBaseERKNS0_6ParcelEPSA_NSt3__18functionIFvRSA_EEE
_ZN7android8hardware10automotive3evs4V1_014BnHwEvsDisplay21_hidl_setDisplayStateEPNS_4hidl4base4V1_08BnHwBaseERKNS0_6ParcelEPSA_NSt3__18functionIFvRSA_EEE
_ZN7android8hardware10automotive3evs4V1_014BnHwEvsDisplay34_hidl_returnTargetBufferForDisplayEPNS_4hidl4base4V1_08BnHwBaseERKNS0_6ParcelEPSA_NSt3__18functionIFvRSA_EEE
_ZN7android8hardware10automotive3evs4V1_014BnHwEvsDisplay4pingEv
_ZN7android8hardware10automotive3evs4V1_014BnHwEvsDisplayC1ERKNS_2spINS3_11IEvsDisplayEEE
_ZN7android8hardware10automotive3evs4V1_014BnHwEvsDisplayC2ERKNS_2spINS3_11IEvsDisplayEEE
_ZN7android8hardware10automotive3evs4V1_014BnHwEvsDisplayD0Ev
_ZN7android8hardware10automotive3evs4V1_014BnHwEvsDisplayD1Ev
_ZN7android8hardware10automotive3evs4V1_014BnHwEvsDisplayD2Ev
_ZN7android8hardware10automotive3evs4V1_014BpHwEvsDisplay11linkToDeathERKNS_2spINS0_20hidl_death_recipientEEEy
_ZN7android8hardware10automotive3evs4V1_014BpHwEvsDisplay12getDebugInfoENSt3__18functionIFvRKNS_4hidl4base4V1_09DebugInfoEEEE
_ZN7android8hardware10automotive3evs4V1_014BpHwEvsDisplay12getHashChainENSt3__18functionIFvRKNS0_8hidl_vecINS0_10hidl_arrayIhLj32EJEEEEEEEE
_ZN7android8hardware10automotive3evs4V1_014BpHwEvsDisplay13unlinkToDeathERKNS_2spINS0_20hidl_death_recipientEEE
_ZN7android8hardware10automotive3evs4V1_014BpHwEvsDisplay14getDisplayInfoENSt3__18functionIFvRKNS3_11DisplayDescEEEE
_ZN7android8hardware10automotive3evs4V1_014BpHwEvsDisplay14interfaceChainENSt3__18functionIFvRKNS0_8hidl_vecINS0_11hidl_stringEEEEEE
_ZN7android8hardware10automotive3evs4V1_014BpHwEvsDisplay15getDisplayStateEv
_ZN7android8hardware10automotive3evs4V1_014BpHwEvsDisplay15getTargetBufferENSt3__18functionIFvRKNS3_10BufferDescEEEE
_ZN7android8hardware10automotive3evs4V1_014BpHwEvsDisplay15setDisplayStateENS3_12DisplayStateE
_ZN7android8hardware10automotive3evs4V1_014BpHwEvsDisplay19interfaceDescriptorENSt3__18functionIFvRKNS0_11hidl_stringEEEE
_ZN7android8hardware10automotive3evs4V1_014BpHwEvsDisplay20_hidl_getDisplayInfoEPNS0_10IInterfaceEPNS0_7details16HidlInstrumentorENSt3__18functionIFvRKNS3_11DisplayDescEEEE
_ZN7android8hardware10automotive3evs4V1_014BpHwEvsDisplay21_hidl_getDisplayStateEPNS0_10IInterfaceEPNS0_7details16HidlInstrumentorE
_ZN7android8hardware10automotive3evs4V1_014BpHwEvsDisplay21_hidl_getTargetBufferEPNS0_10IInterfaceEPNS0_7details16HidlInstrumentorENSt3__18functionIFvRKNS3_10BufferDescEEEE
_ZN7android8hardware10automotive3evs4V1_014BpHwEvsDisplay21_hidl_setDisplayStateEPNS0_10IInterfaceEPNS0_7details16HidlInstrumentorENS3_12DisplayStateE
_ZN7android8hardware10automotive3evs4V1_014BpHwEvsDisplay21notifySyspropsChangedEv
_ZN7android8hardware10automotive3evs4V1_014BpHwEvsDisplay21setHALInstrumentationEv
_ZN7android8hardware10automotive3evs4V1_014BpHwEvsDisplay28returnTargetBufferForDisplayERKNS3_10BufferDescE
_ZN7android8hardware10automotive3evs4V1_014BpHwEvsDisplay34_hidl_returnTargetBufferForDisplayEPNS0_10IInterfaceEPNS0_7details16HidlInstrumentorERKNS3_10BufferDescE
_ZN7android8hardware10automotive3evs4V1_014BpHwEvsDisplay4pingEv
_ZN7android8hardware10automotive3evs4V1_014BpHwEvsDisplay5debugERKNS0_11hidl_handleERKNS0_8hidl_vecINS0_11hidl_stringEEE
_ZN7android8hardware10automotive3evs4V1_014BpHwEvsDisplayC1ERKNS_2spINS0_7IBinderEEE
_ZN7android8hardware10automotive3evs4V1_014BpHwEvsDisplayC2ERKNS_2spINS0_7IBinderEEE
_ZN7android8hardware10automotive3evs4V1_014IEvsEnumerator10descriptorE
_ZN7android8hardware10automotive3evs4V1_014IEvsEnumerator10getServiceERKNSt3__112basic_stringIcNS5_11char_traitsIcEENS5_9allocatorIcEEEEb
_ZN7android8hardware10automotive3evs4V1_014IEvsEnumerator11linkToDeathERKNS_2spINS0_20hidl_death_recipientEEEy
_ZN7android8hardware10automotive3evs4V1_014IEvsEnumerator12getDebugInfoENSt3__18functionIFvRKNS_4hidl4base4V1_09DebugInfoEEEE
_ZN7android8hardware10automotive3evs4V1_014IEvsEnumerator12getHashChainENSt3__18functionIFvRKNS0_8hidl_vecINS0_10hidl_arrayIhLj32EJEEEEEEEE
_ZN7android8hardware10automotive3evs4V1_014IEvsEnumerator13tryGetServiceERKNSt3__112basic_stringIcNS5_11char_traitsIcEENS5_9allocatorIcEEEEb
_ZN7android8hardware10automotive3evs4V1_014IEvsEnumerator13unlinkToDeathERKNS_2spINS0_20hidl_death_recipientEEE
_ZN7android8hardware10automotive3evs4V1_014IEvsEnumerator14interfaceChainENSt3__18functionIFvRKNS0_8hidl_vecINS0_11hidl_stringEEEEEE
_ZN7android8hardware10automotive3evs4V1_014IEvsEnumerator17registerAsServiceERKNSt3__112basic_stringIcNS5_11char_traitsIcEENS5_9allocatorIcEEEE
_ZN7android8hardware10automotive3evs4V1_014IEvsEnumerator19interfaceDescriptorENSt3__18functionIFvRKNS0_11hidl_stringEEEE
_ZN7android8hardware10automotive3evs4V1_014IEvsEnumerator21notifySyspropsChangedEv
_ZN7android8hardware10automotive3evs4V1_014IEvsEnumerator21setHALInstrumentationEv
_ZN7android8hardware10automotive3evs4V1_014IEvsEnumerator24registerForNotificationsERKNSt3__112basic_stringIcNS5_11char_traitsIcEENS5_9allocatorIcEEEERKNS_2spINS_4hidl7manager4V1_020IServiceNotificationEEE
_ZN7android8hardware10automotive3evs4V1_014IEvsEnumerator4pingEv
_ZN7android8hardware10automotive3evs4V1_014IEvsEnumerator5debugERKNS0_11hidl_handleERKNS0_8hidl_vecINS0_11hidl_stringEEE
_ZN7android8hardware10automotive3evs4V1_014IEvsEnumerator8castFromERKNS_2spINS_4hidl4base4V1_05IBaseEEEb
_ZN7android8hardware10automotive3evs4V1_014IEvsEnumerator8castFromERKNS_2spIS4_EEb
_ZN7android8hardware10automotive3evs4V1_015BsEvsEnumerator13addOnewayTaskENSt3__18functionIFvvEEE
_ZN7android8hardware10automotive3evs4V1_015BsEvsEnumeratorC1ENS_2spINS3_14IEvsEnumeratorEEE
_ZN7android8hardware10automotive3evs4V1_015BsEvsEnumeratorC2ENS_2spINS3_14IEvsEnumeratorEEE
_ZN7android8hardware10automotive3evs4V1_016IEvsCameraStream10descriptorE
_ZN7android8hardware10automotive3evs4V1_016IEvsCameraStream10getServiceERKNSt3__112basic_stringIcNS5_11char_traitsIcEENS5_9allocatorIcEEEEb
_ZN7android8hardware10automotive3evs4V1_016IEvsCameraStream11linkToDeathERKNS_2spINS0_20hidl_death_recipientEEEy
_ZN7android8hardware10automotive3evs4V1_016IEvsCameraStream12getDebugInfoENSt3__18functionIFvRKNS_4hidl4base4V1_09DebugInfoEEEE
_ZN7android8hardware10automotive3evs4V1_016IEvsCameraStream12getHashChainENSt3__18functionIFvRKNS0_8hidl_vecINS0_10hidl_arrayIhLj32EJEEEEEEEE
_ZN7android8hardware10automotive3evs4V1_016IEvsCameraStream13tryGetServiceERKNSt3__112basic_stringIcNS5_11char_traitsIcEENS5_9allocatorIcEEEEb
_ZN7android8hardware10automotive3evs4V1_016IEvsCameraStream13unlinkToDeathERKNS_2spINS0_20hidl_death_recipientEEE
_ZN7android8hardware10automotive3evs4V1_016IEvsCameraStream14interfaceChainENSt3__18functionIFvRKNS0_8hidl_vecINS0_11hidl_stringEEEEEE
_ZN7android8hardware10automotive3evs4V1_016IEvsCameraStream17registerAsServiceERKNSt3__112basic_stringIcNS5_11char_traitsIcEENS5_9allocatorIcEEEE
_ZN7android8hardware10automotive3evs4V1_016IEvsCameraStream19interfaceDescriptorENSt3__18functionIFvRKNS0_11hidl_stringEEEE
_ZN7android8hardware10automotive3evs4V1_016IEvsCameraStream21notifySyspropsChangedEv
_ZN7android8hardware10automotive3evs4V1_016IEvsCameraStream21setHALInstrumentationEv
_ZN7android8hardware10automotive3evs4V1_016IEvsCameraStream24registerForNotificationsERKNSt3__112basic_stringIcNS5_11char_traitsIcEENS5_9allocatorIcEEEERKNS_2spINS_4hidl7manager4V1_020IServiceNotificationEEE
_ZN7android8hardware10automotive3evs4V1_016IEvsCameraStream4pingEv
_ZN7android8hardware10automotive3evs4V1_016IEvsCameraStream5debugERKNS0_11hidl_handleERKNS0_8hidl_vecINS0_11hidl_stringEEE
_ZN7android8hardware10automotive3evs4V1_016IEvsCameraStream8castFromERKNS_2spINS_4hidl4base4V1_05IBaseEEEb
_ZN7android8hardware10automotive3evs4V1_016IEvsCameraStream8castFromERKNS_2spIS4_EEb
_ZN7android8hardware10automotive3evs4V1_017BnHwEvsEnumerator10onTransactEjRKNS0_6ParcelEPS5_jNSt3__18functionIFvRS5_EEE
_ZN7android8hardware10automotive3evs4V1_017BnHwEvsEnumerator12getDebugInfoENSt3__18functionIFvRKNS_4hidl4base4V1_09DebugInfoEEEE
_ZN7android8hardware10automotive3evs4V1_017BnHwEvsEnumerator16_hidl_openCameraEPNS_4hidl4base4V1_08BnHwBaseERKNS0_6ParcelEPSA_NSt3__18functionIFvRSA_EEE
_ZN7android8hardware10automotive3evs4V1_017BnHwEvsEnumerator17_hidl_closeCameraEPNS_4hidl4base4V1_08BnHwBaseERKNS0_6ParcelEPSA_NSt3__18functionIFvRSA_EEE
_ZN7android8hardware10automotive3evs4V1_017BnHwEvsEnumerator17_hidl_openDisplayEPNS_4hidl4base4V1_08BnHwBaseERKNS0_6ParcelEPSA_NSt3__18functionIFvRSA_EEE
_ZN7android8hardware10automotive3evs4V1_017BnHwEvsEnumerator18_hidl_closeDisplayEPNS_4hidl4base4V1_08BnHwBaseERKNS0_6ParcelEPSA_NSt3__18functionIFvRSA_EEE
_ZN7android8hardware10automotive3evs4V1_017BnHwEvsEnumerator19_hidl_getCameraListEPNS_4hidl4base4V1_08BnHwBaseERKNS0_6ParcelEPSA_NSt3__18functionIFvRSA_EEE
_ZN7android8hardware10automotive3evs4V1_017BnHwEvsEnumerator21_hidl_getDisplayStateEPNS_4hidl4base4V1_08BnHwBaseERKNS0_6ParcelEPSA_NSt3__18functionIFvRSA_EEE
_ZN7android8hardware10automotive3evs4V1_017BnHwEvsEnumerator4pingEv
_ZN7android8hardware10automotive3evs4V1_017BnHwEvsEnumeratorC1ERKNS_2spINS3_14IEvsEnumeratorEEE
_ZN7android8hardware10automotive3evs4V1_017BnHwEvsEnumeratorC2ERKNS_2spINS3_14IEvsEnumeratorEEE
_ZN7android8hardware10automotive3evs4V1_017BnHwEvsEnumeratorD0Ev
_ZN7android8hardware10automotive3evs4V1_017BnHwEvsEnumeratorD1Ev
_ZN7android8hardware10automotive3evs4V1_017BnHwEvsEnumeratorD2Ev
_ZN7android8hardware10automotive3evs4V1_017BpHwEvsEnumerator10openCameraERKNS0_11hidl_stringE
_ZN7android8hardware10automotive3evs4V1_017BpHwEvsEnumerator11closeCameraERKNS_2spINS3_10IEvsCameraEEE
_ZN7android8hardware10automotive3evs4V1_017BpHwEvsEnumerator11linkToDeathERKNS_2spINS0_20hidl_death_recipientEEEy
_ZN7android8hardware10automotive3evs4V1_017BpHwEvsEnumerator11openDisplayEv
_ZN7android8hardware10automotive3evs4V1_017BpHwEvsEnumerator12closeDisplayERKNS_2spINS3_11IEvsDisplayEEE
_ZN7android8hardware10automotive3evs4V1_017BpHwEvsEnumerator12getDebugInfoENSt3__18functionIFvRKNS_4hidl4base4V1_09DebugInfoEEEE
_ZN7android8hardware10automotive3evs4V1_017BpHwEvsEnumerator12getHashChainENSt3__18functionIFvRKNS0_8hidl_vecINS0_10hidl_arrayIhLj32EJEEEEEEEE
_ZN7android8hardware10automotive3evs4V1_017BpHwEvsEnumerator13getCameraListENSt3__18functionIFvRKNS0_8hidl_vecINS3_10CameraDescEEEEEE
_ZN7android8hardware10automotive3evs4V1_017BpHwEvsEnumerator13unlinkToDeathERKNS_2spINS0_20hidl_death_recipientEEE
_ZN7android8hardware10automotive3evs4V1_017BpHwEvsEnumerator14interfaceChainENSt3__18functionIFvRKNS0_8hidl_vecINS0_11hidl_stringEEEEEE
_ZN7android8hardware10automotive3evs4V1_017BpHwEvsEnumerator15getDisplayStateEv
_ZN7android8hardware10automotive3evs4V1_017BpHwEvsEnumerator16_hidl_openCameraEPNS0_10IInterfaceEPNS0_7details16HidlInstrumentorERKNS0_11hidl_stringE
_ZN7android8hardware10automotive3evs4V1_017BpHwEvsEnumerator17_hidl_closeCameraEPNS0_10IInterfaceEPNS0_7details16HidlInstrumentorERKNS_2spINS3_10IEvsCameraEEE
_ZN7android8hardware10automotive3evs4V1_017BpHwEvsEnumerator17_hidl_openDisplayEPNS0_10IInterfaceEPNS0_7details16HidlInstrumentorE
_ZN7android8hardware10automotive3evs4V1_017BpHwEvsEnumerator18_hidl_closeDisplayEPNS0_10IInterfaceEPNS0_7details16HidlInstrumentorERKNS_2spINS3_11IEvsDisplayEEE
_ZN7android8hardware10automotive3evs4V1_017BpHwEvsEnumerator19_hidl_getCameraListEPNS0_10IInterfaceEPNS0_7details16HidlInstrumentorENSt3__18functionIFvRKNS0_8hidl_vecINS3_10CameraDescEEEEEE
_ZN7android8hardware10automotive3evs4V1_017BpHwEvsEnumerator19interfaceDescriptorENSt3__18functionIFvRKNS0_11hidl_stringEEEE
_ZN7android8hardware10automotive3evs4V1_017BpHwEvsEnumerator21_hidl_getDisplayStateEPNS0_10IInterfaceEPNS0_7details16HidlInstrumentorE
_ZN7android8hardware10automotive3evs4V1_017BpHwEvsEnumerator21notifySyspropsChangedEv
_ZN7android8hardware10automotive3evs4V1_017BpHwEvsEnumerator21setHALInstrumentationEv
_ZN7android8hardware10automotive3evs4V1_017BpHwEvsEnumerator4pingEv
_ZN7android8hardware10automotive3evs4V1_017BpHwEvsEnumerator5debugERKNS0_11hidl_handleERKNS0_8hidl_vecINS0_11hidl_stringEEE
_ZN7android8hardware10automotive3evs4V1_017BpHwEvsEnumeratorC1ERKNS_2spINS0_7IBinderEEE
_ZN7android8hardware10automotive3evs4V1_017BpHwEvsEnumeratorC2ERKNS_2spINS0_7IBinderEEE
_ZN7android8hardware10automotive3evs4V1_017BsEvsCameraStream13addOnewayTaskENSt3__18functionIFvvEEE
_ZN7android8hardware10automotive3evs4V1_017BsEvsCameraStreamC1ENS_2spINS3_16IEvsCameraStreamEEE
_ZN7android8hardware10automotive3evs4V1_017BsEvsCameraStreamC2ENS_2spINS3_16IEvsCameraStreamEEE
_ZN7android8hardware10automotive3evs4V1_019BnHwEvsCameraStream10onTransactEjRKNS0_6ParcelEPS5_jNSt3__18functionIFvRS5_EEE
_ZN7android8hardware10automotive3evs4V1_019BnHwEvsCameraStream12getDebugInfoENSt3__18functionIFvRKNS_4hidl4base4V1_09DebugInfoEEEE
_ZN7android8hardware10automotive3evs4V1_019BnHwEvsCameraStream18_hidl_deliverFrameEPNS_4hidl4base4V1_08BnHwBaseERKNS0_6ParcelEPSA_NSt3__18functionIFvRSA_EEE
_ZN7android8hardware10automotive3evs4V1_019BnHwEvsCameraStream4pingEv
_ZN7android8hardware10automotive3evs4V1_019BnHwEvsCameraStreamC1ERKNS_2spINS3_16IEvsCameraStreamEEE
_ZN7android8hardware10automotive3evs4V1_019BnHwEvsCameraStreamC2ERKNS_2spINS3_16IEvsCameraStreamEEE
_ZN7android8hardware10automotive3evs4V1_019BnHwEvsCameraStreamD0Ev
_ZN7android8hardware10automotive3evs4V1_019BnHwEvsCameraStreamD1Ev
_ZN7android8hardware10automotive3evs4V1_019BnHwEvsCameraStreamD2Ev
_ZN7android8hardware10automotive3evs4V1_019BpHwEvsCameraStream11linkToDeathERKNS_2spINS0_20hidl_death_recipientEEEy
_ZN7android8hardware10automotive3evs4V1_019BpHwEvsCameraStream12deliverFrameERKNS3_10BufferDescE
_ZN7android8hardware10automotive3evs4V1_019BpHwEvsCameraStream12getDebugInfoENSt3__18functionIFvRKNS_4hidl4base4V1_09DebugInfoEEEE
_ZN7android8hardware10automotive3evs4V1_019BpHwEvsCameraStream12getHashChainENSt3__18functionIFvRKNS0_8hidl_vecINS0_10hidl_arrayIhLj32EJEEEEEEEE
_ZN7android8hardware10automotive3evs4V1_019BpHwEvsCameraStream13unlinkToDeathERKNS_2spINS0_20hidl_death_recipientEEE
_ZN7android8hardware10automotive3evs4V1_019BpHwEvsCameraStream14interfaceChainENSt3__18functionIFvRKNS0_8hidl_vecINS0_11hidl_stringEEEEEE
_ZN7android8hardware10automotive3evs4V1_019BpHwEvsCameraStream18_hidl_deliverFrameEPNS0_10IInterfaceEPNS0_7details16HidlInstrumentorERKNS3_10BufferDescE
_ZN7android8hardware10automotive3evs4V1_019BpHwEvsCameraStream19interfaceDescriptorENSt3__18functionIFvRKNS0_11hidl_stringEEEE
_ZN7android8hardware10automotive3evs4V1_019BpHwEvsCameraStream21notifySyspropsChangedEv
_ZN7android8hardware10automotive3evs4V1_019BpHwEvsCameraStream21setHALInstrumentationEv
_ZN7android8hardware10automotive3evs4V1_019BpHwEvsCameraStream4pingEv
_ZN7android8hardware10automotive3evs4V1_019BpHwEvsCameraStream5debugERKNS0_11hidl_handleERKNS0_8hidl_vecINS0_11hidl_stringEEE
_ZN7android8hardware10automotive3evs4V1_019BpHwEvsCameraStreamC1ERKNS_2spINS0_7IBinderEEE
_ZN7android8hardware10automotive3evs4V1_019BpHwEvsCameraStreamC2ERKNS_2spINS0_7IBinderEEE
_ZN7android8hardware10automotive3evs4V1_021writeEmbeddedToParcelERKNS3_10BufferDescEPNS0_6ParcelEjj
_ZN7android8hardware10automotive3evs4V1_021writeEmbeddedToParcelERKNS3_10CameraDescEPNS0_6ParcelEjj
_ZN7android8hardware10automotive3evs4V1_021writeEmbeddedToParcelERKNS3_11DisplayDescEPNS0_6ParcelEjj
_ZN7android8hardware10automotive3evs4V1_022readEmbeddedFromParcelERKNS3_10BufferDescERKNS0_6ParcelEjj
_ZN7android8hardware10automotive3evs4V1_022readEmbeddedFromParcelERKNS3_10CameraDescERKNS0_6ParcelEjj
_ZN7android8hardware10automotive3evs4V1_022readEmbeddedFromParcelERKNS3_11DisplayDescERKNS0_6ParcelEjj
_ZTCN7android8hardware10automotive3evs4V1_010IEvsCameraE0_NS_4hidl4base4V1_05IBaseE
_ZTCN7android8hardware10automotive3evs4V1_011IEvsDisplayE0_NS_4hidl4base4V1_05IBaseE
_ZTCN7android8hardware10automotive3evs4V1_013BnHwEvsCameraE0_NS0_7IBinderE
_ZTCN7android8hardware10automotive3evs4V1_013BnHwEvsCameraE0_NS0_9BHwBinderE
_ZTCN7android8hardware10automotive3evs4V1_013BnHwEvsCameraE0_NS_4hidl4base4V1_08BnHwBaseE
_ZTCN7android8hardware10automotive3evs4V1_013BpHwEvsCameraE0_NS0_11BpInterfaceINS3_10IEvsCameraEEE
_ZTCN7android8hardware10automotive3evs4V1_013BpHwEvsCameraE0_NS3_10IEvsCameraE
_ZTCN7android8hardware10automotive3evs4V1_013BpHwEvsCameraE0_NS_4hidl4base4V1_05IBaseE
_ZTCN7android8hardware10automotive3evs4V1_013BpHwEvsCameraE4_NS0_10IInterfaceE
_ZTCN7android8hardware10automotive3evs4V1_013BpHwEvsCameraE8_NS0_11BpHwRefBaseE
_ZTCN7android8hardware10automotive3evs4V1_014BnHwEvsDisplayE0_NS0_7IBinderE
_ZTCN7android8hardware10automotive3evs4V1_014BnHwEvsDisplayE0_NS0_9BHwBinderE
_ZTCN7android8hardware10automotive3evs4V1_014BnHwEvsDisplayE0_NS_4hidl4base4V1_08BnHwBaseE
_ZTCN7android8hardware10automotive3evs4V1_014BpHwEvsDisplayE0_NS0_11BpInterfaceINS3_11IEvsDisplayEEE
_ZTCN7android8hardware10automotive3evs4V1_014BpHwEvsDisplayE0_NS3_11IEvsDisplayE
_ZTCN7android8hardware10automotive3evs4V1_014BpHwEvsDisplayE0_NS_4hidl4base4V1_05IBaseE
_ZTCN7android8hardware10automotive3evs4V1_014BpHwEvsDisplayE4_NS0_10IInterfaceE
_ZTCN7android8hardware10automotive3evs4V1_014BpHwEvsDisplayE8_NS0_11BpHwRefBaseE
_ZTCN7android8hardware10automotive3evs4V1_014IEvsEnumeratorE0_NS_4hidl4base4V1_05IBaseE
_ZTCN7android8hardware10automotive3evs4V1_016IEvsCameraStreamE0_NS_4hidl4base4V1_05IBaseE
_ZTCN7android8hardware10automotive3evs4V1_017BnHwEvsEnumeratorE0_NS0_7IBinderE
_ZTCN7android8hardware10automotive3evs4V1_017BnHwEvsEnumeratorE0_NS0_9BHwBinderE
_ZTCN7android8hardware10automotive3evs4V1_017BnHwEvsEnumeratorE0_NS_4hidl4base4V1_08BnHwBaseE
_ZTCN7android8hardware10automotive3evs4V1_017BpHwEvsEnumeratorE0_NS0_11BpInterfaceINS3_14IEvsEnumeratorEEE
_ZTCN7android8hardware10automotive3evs4V1_017BpHwEvsEnumeratorE0_NS3_14IEvsEnumeratorE
_ZTCN7android8hardware10automotive3evs4V1_017BpHwEvsEnumeratorE0_NS_4hidl4base4V1_05IBaseE
_ZTCN7android8hardware10automotive3evs4V1_017BpHwEvsEnumeratorE4_NS0_10IInterfaceE
_ZTCN7android8hardware10automotive3evs4V1_017BpHwEvsEnumeratorE8_NS0_11BpHwRefBaseE
_ZTCN7android8hardware10automotive3evs4V1_019BnHwEvsCameraStreamE0_NS0_7IBinderE
_ZTCN7android8hardware10automotive3evs4V1_019BnHwEvsCameraStreamE0_NS0_9BHwBinderE
_ZTCN7android8hardware10automotive3evs4V1_019BnHwEvsCameraStreamE0_NS_4hidl4base4V1_08BnHwBaseE
_ZTCN7android8hardware10automotive3evs4V1_019BpHwEvsCameraStreamE0_NS0_11BpInterfaceINS3_16IEvsCameraStreamEEE
_ZTCN7android8hardware10automotive3evs4V1_019BpHwEvsCameraStreamE0_NS3_16IEvsCameraStreamE
_ZTCN7android8hardware10automotive3evs4V1_019BpHwEvsCameraStreamE0_NS_4hidl4base4V1_05IBaseE
_ZTCN7android8hardware10automotive3evs4V1_019BpHwEvsCameraStreamE4_NS0_10IInterfaceE
_ZTCN7android8hardware10automotive3evs4V1_019BpHwEvsCameraStreamE8_NS0_11BpHwRefBaseE
_ZTTN7android8hardware10automotive3evs4V1_010IEvsCameraE
_ZTTN7android8hardware10automotive3evs4V1_011IEvsDisplayE
_ZTTN7android8hardware10automotive3evs4V1_013BnHwEvsCameraE
_ZTTN7android8hardware10automotive3evs4V1_013BpHwEvsCameraE
_ZTTN7android8hardware10automotive3evs4V1_014BnHwEvsDisplayE
_ZTTN7android8hardware10automotive3evs4V1_014BpHwEvsDisplayE
_ZTTN7android8hardware10automotive3evs4V1_014IEvsEnumeratorE
_ZTTN7android8hardware10automotive3evs4V1_016IEvsCameraStreamE
_ZTTN7android8hardware10automotive3evs4V1_017BnHwEvsEnumeratorE
_ZTTN7android8hardware10automotive3evs4V1_017BpHwEvsEnumeratorE
_ZTTN7android8hardware10automotive3evs4V1_019BnHwEvsCameraStreamE
_ZTTN7android8hardware10automotive3evs4V1_019BpHwEvsCameraStreamE
_ZTVN7android8hardware10automotive3evs4V1_010IEvsCameraE
_ZTVN7android8hardware10automotive3evs4V1_011IEvsDisplayE
_ZTVN7android8hardware10automotive3evs4V1_013BnHwEvsCameraE
_ZTVN7android8hardware10automotive3evs4V1_013BpHwEvsCameraE
_ZTVN7android8hardware10automotive3evs4V1_014BnHwEvsDisplayE
_ZTVN7android8hardware10automotive3evs4V1_014BpHwEvsDisplayE
_ZTVN7android8hardware10automotive3evs4V1_014IEvsEnumeratorE
_ZTVN7android8hardware10automotive3evs4V1_016IEvsCameraStreamE
_ZTVN7android8hardware10automotive3evs4V1_017BnHwEvsEnumeratorE
_ZTVN7android8hardware10automotive3evs4V1_017BpHwEvsEnumeratorE
_ZTVN7android8hardware10automotive3evs4V1_019BnHwEvsCameraStreamE
_ZTVN7android8hardware10automotive3evs4V1_019BpHwEvsCameraStreamE
_ZThn20_N7android8hardware10automotive3evs4V1_013BnHwEvsCameraD0Ev
_ZThn20_N7android8hardware10automotive3evs4V1_013BnHwEvsCameraD1Ev
_ZThn20_N7android8hardware10automotive3evs4V1_014BnHwEvsDisplayD0Ev
_ZThn20_N7android8hardware10automotive3evs4V1_014BnHwEvsDisplayD1Ev
_ZThn20_N7android8hardware10automotive3evs4V1_017BnHwEvsEnumeratorD0Ev
_ZThn20_N7android8hardware10automotive3evs4V1_017BnHwEvsEnumeratorD1Ev
_ZThn20_N7android8hardware10automotive3evs4V1_019BnHwEvsCameraStreamD0Ev
_ZThn20_N7android8hardware10automotive3evs4V1_019BnHwEvsCameraStreamD1Ev
_ZTv0_n12_N7android8hardware10automotive3evs4V1_013BnHwEvsCameraD0Ev
_ZTv0_n12_N7android8hardware10automotive3evs4V1_013BnHwEvsCameraD1Ev
_ZTv0_n12_N7android8hardware10automotive3evs4V1_014BnHwEvsDisplayD0Ev
_ZTv0_n12_N7android8hardware10automotive3evs4V1_014BnHwEvsDisplayD1Ev
_ZTv0_n12_N7android8hardware10automotive3evs4V1_017BnHwEvsEnumeratorD0Ev
_ZTv0_n12_N7android8hardware10automotive3evs4V1_017BnHwEvsEnumeratorD1Ev
_ZTv0_n12_N7android8hardware10automotive3evs4V1_019BnHwEvsCameraStreamD0Ev
_ZTv0_n12_N7android8hardware10automotive3evs4V1_019BnHwEvsCameraStreamD1Ev
