_ZN7android8hardware8graphics9allocator4V2_010IAllocator10descriptorE
_ZN7android8hardware8graphics9allocator4V2_010IAllocator10getServiceERKNSt3__112basic_stringIcNS5_11char_traitsIcEENS5_9allocatorIcEEEEb
_ZN7android8hardware8graphics9allocator4V2_010IAllocator11linkToDeathERKNS_2spINS0_20hidl_death_recipientEEEy
_ZN7android8hardware8graphics9allocator4V2_010IAllocator12getDebugInfoENSt3__18functionIFvRKNS_4hidl4base4V1_09DebugInfoEEEE
_ZN7android8hardware8graphics9allocator4V2_010IAllocator12getHashChainENSt3__18functionIFvRKNS0_8hidl_vecINS0_10hidl_arrayIhLj32EJEEEEEEEE
_ZN7android8hardware8graphics9allocator4V2_010IAllocator13tryGetServiceERKNSt3__112basic_stringIcNS5_11char_traitsIcEENS5_9allocatorIcEEEEb
_ZN7android8hardware8graphics9allocator4V2_010IAllocator13unlinkToDeathERKNS_2spINS0_20hidl_death_recipientEEE
_ZN7android8hardware8graphics9allocator4V2_010IAllocator14interfaceChainENSt3__18functionIFvRKNS0_8hidl_vecINS0_11hidl_stringEEEEEE
_ZN7android8hardware8graphics9allocator4V2_010IAllocator17registerAsServiceERKNSt3__112basic_stringIcNS5_11char_traitsIcEENS5_9allocatorIcEEEE
_ZN7android8hardware8graphics9allocator4V2_010IAllocator19interfaceDescriptorENSt3__18functionIFvRKNS0_11hidl_stringEEEE
_ZN7android8hardware8graphics9allocator4V2_010IAllocator21notifySyspropsChangedEv
_ZN7android8hardware8graphics9allocator4V2_010IAllocator21setHALInstrumentationEv
_ZN7android8hardware8graphics9allocator4V2_010IAllocator24registerForNotificationsERKNSt3__112basic_stringIcNS5_11char_traitsIcEENS5_9allocatorIcEEEERKNS_2spINS_4hidl7manager4V1_020IServiceNotificationEEE
_ZN7android8hardware8graphics9allocator4V2_010IAllocator4pingEv
_ZN7android8hardware8graphics9allocator4V2_010IAllocator5debugERKNS0_11hidl_handleERKNS0_8hidl_vecINS0_11hidl_stringEEE
_ZN7android8hardware8graphics9allocator4V2_010IAllocator8castFromERKNS_2spINS_4hidl4base4V1_05IBaseEEEb
_ZN7android8hardware8graphics9allocator4V2_010IAllocator8castFromERKNS_2spIS4_EEb
_ZN7android8hardware8graphics9allocator4V2_011BsAllocator13addOnewayTaskENSt3__18functionIFvvEEE
_ZN7android8hardware8graphics9allocator4V2_011BsAllocatorC1ENS_2spINS3_10IAllocatorEEE
_ZN7android8hardware8graphics9allocator4V2_011BsAllocatorC2ENS_2spINS3_10IAllocatorEEE
_ZN7android8hardware8graphics9allocator4V2_013BnHwAllocator10onTransactEjRKNS0_6ParcelEPS5_jNSt3__18functionIFvRS5_EEE
_ZN7android8hardware8graphics9allocator4V2_013BnHwAllocator12getDebugInfoENSt3__18functionIFvRKNS_4hidl4base4V1_09DebugInfoEEEE
_ZN7android8hardware8graphics9allocator4V2_013BnHwAllocator14_hidl_allocateEPNS_4hidl4base4V1_08BnHwBaseERKNS0_6ParcelEPSA_NSt3__18functionIFvRSA_EEE
_ZN7android8hardware8graphics9allocator4V2_013BnHwAllocator19_hidl_dumpDebugInfoEPNS_4hidl4base4V1_08BnHwBaseERKNS0_6ParcelEPSA_NSt3__18functionIFvRSA_EEE
_ZN7android8hardware8graphics9allocator4V2_013BnHwAllocator4pingEv
_ZN7android8hardware8graphics9allocator4V2_013BnHwAllocatorC1ERKNS_2spINS3_10IAllocatorEEE
_ZN7android8hardware8graphics9allocator4V2_013BnHwAllocatorC2ERKNS_2spINS3_10IAllocatorEEE
_ZN7android8hardware8graphics9allocator4V2_013BnHwAllocatorD0Ev
_ZN7android8hardware8graphics9allocator4V2_013BnHwAllocatorD1Ev
_ZN7android8hardware8graphics9allocator4V2_013BnHwAllocatorD2Ev
_ZN7android8hardware8graphics9allocator4V2_013BpHwAllocator11linkToDeathERKNS_2spINS0_20hidl_death_recipientEEEy
_ZN7android8hardware8graphics9allocator4V2_013BpHwAllocator12getDebugInfoENSt3__18functionIFvRKNS_4hidl4base4V1_09DebugInfoEEEE
_ZN7android8hardware8graphics9allocator4V2_013BpHwAllocator12getHashChainENSt3__18functionIFvRKNS0_8hidl_vecINS0_10hidl_arrayIhLj32EJEEEEEEEE
_ZN7android8hardware8graphics9allocator4V2_013BpHwAllocator13dumpDebugInfoENSt3__18functionIFvRKNS0_11hidl_stringEEEE
_ZN7android8hardware8graphics9allocator4V2_013BpHwAllocator13unlinkToDeathERKNS_2spINS0_20hidl_death_recipientEEE
_ZN7android8hardware8graphics9allocator4V2_013BpHwAllocator14_hidl_allocateEPNS0_10IInterfaceEPNS0_7details16HidlInstrumentorERKNS0_8hidl_vecIjEEjNSt3__18functionIFvNS1_6mapper4V2_05ErrorEjRKNSA_INS0_11hidl_handleEEEEEE
_ZN7android8hardware8graphics9allocator4V2_013BpHwAllocator14interfaceChainENSt3__18functionIFvRKNS0_8hidl_vecINS0_11hidl_stringEEEEEE
_ZN7android8hardware8graphics9allocator4V2_013BpHwAllocator19_hidl_dumpDebugInfoEPNS0_10IInterfaceEPNS0_7details16HidlInstrumentorENSt3__18functionIFvRKNS0_11hidl_stringEEEE
_ZN7android8hardware8graphics9allocator4V2_013BpHwAllocator19interfaceDescriptorENSt3__18functionIFvRKNS0_11hidl_stringEEEE
_ZN7android8hardware8graphics9allocator4V2_013BpHwAllocator21notifySyspropsChangedEv
_ZN7android8hardware8graphics9allocator4V2_013BpHwAllocator21setHALInstrumentationEv
_ZN7android8hardware8graphics9allocator4V2_013BpHwAllocator4pingEv
_ZN7android8hardware8graphics9allocator4V2_013BpHwAllocator5debugERKNS0_11hidl_handleERKNS0_8hidl_vecINS0_11hidl_stringEEE
_ZN7android8hardware8graphics9allocator4V2_013BpHwAllocator8allocateERKNS0_8hidl_vecIjEEjNSt3__18functionIFvNS1_6mapper4V2_05ErrorEjRKNS5_INS0_11hidl_handleEEEEEE
_ZN7android8hardware8graphics9allocator4V2_013BpHwAllocatorC1ERKNS_2spINS0_7IBinderEEE
_ZN7android8hardware8graphics9allocator4V2_013BpHwAllocatorC2ERKNS_2spINS0_7IBinderEEE
_ZTCN7android8hardware8graphics9allocator4V2_010IAllocatorE0_NS_4hidl4base4V1_05IBaseE
_ZTCN7android8hardware8graphics9allocator4V2_013BnHwAllocatorE0_NS0_7IBinderE
_ZTCN7android8hardware8graphics9allocator4V2_013BnHwAllocatorE0_NS0_9BHwBinderE
_ZTCN7android8hardware8graphics9allocator4V2_013BnHwAllocatorE0_NS_4hidl4base4V1_08BnHwBaseE
_ZTCN7android8hardware8graphics9allocator4V2_013BpHwAllocatorE0_NS0_11BpInterfaceINS3_10IAllocatorEEE
_ZTCN7android8hardware8graphics9allocator4V2_013BpHwAllocatorE0_NS3_10IAllocatorE
_ZTCN7android8hardware8graphics9allocator4V2_013BpHwAllocatorE0_NS_4hidl4base4V1_05IBaseE
_ZTCN7android8hardware8graphics9allocator4V2_013BpHwAllocatorE4_NS0_10IInterfaceE
_ZTCN7android8hardware8graphics9allocator4V2_013BpHwAllocatorE8_NS0_11BpHwRefBaseE
_ZTTN7android8hardware8graphics9allocator4V2_010IAllocatorE
_ZTTN7android8hardware8graphics9allocator4V2_013BnHwAllocatorE
_ZTTN7android8hardware8graphics9allocator4V2_013BpHwAllocatorE
_ZTVN7android8hardware8graphics9allocator4V2_010IAllocatorE
_ZTVN7android8hardware8graphics9allocator4V2_013BnHwAllocatorE
_ZTVN7android8hardware8graphics9allocator4V2_013BpHwAllocatorE
_ZThn20_N7android8hardware8graphics9allocator4V2_013BnHwAllocatorD0Ev
_ZThn20_N7android8hardware8graphics9allocator4V2_013BnHwAllocatorD1Ev
_ZTv0_n12_N7android8hardware8graphics9allocator4V2_013BnHwAllocatorD0Ev
_ZTv0_n12_N7android8hardware8graphics9allocator4V2_013BnHwAllocatorD1Ev
