_ZN7android8hardware5radio4V1_214IRadioResponse10descriptorE
_ZN7android8hardware5radio4V1_214IRadioResponse10getServiceERKNSt3__112basic_stringIcNS4_11char_traitsIcEENS4_9allocatorIcEEEEb
_ZN7android8hardware5radio4V1_214IRadioResponse11linkToDeathERKNS_2spINS0_20hidl_death_recipientEEEy
_ZN7android8hardware5radio4V1_214IRadioResponse12getDebugInfoENSt3__18functionIFvRKNS_4hidl4base4V1_09DebugInfoEEEE
_ZN7android8hardware5radio4V1_214IRadioResponse12getHashChainENSt3__18functionIFvRKNS0_8hidl_vecINS0_10hidl_arrayIhLj32EJEEEEEEEE
_ZN7android8hardware5radio4V1_214IRadioResponse13tryGetServiceERKNSt3__112basic_stringIcNS4_11char_traitsIcEENS4_9allocatorIcEEEEb
_ZN7android8hardware5radio4V1_214IRadioResponse13unlinkToDeathERKNS_2spINS0_20hidl_death_recipientEEE
_ZN7android8hardware5radio4V1_214IRadioResponse14interfaceChainENSt3__18functionIFvRKNS0_8hidl_vecINS0_11hidl_stringEEEEEE
_ZN7android8hardware5radio4V1_214IRadioResponse17registerAsServiceERKNSt3__112basic_stringIcNS4_11char_traitsIcEENS4_9allocatorIcEEEE
_ZN7android8hardware5radio4V1_214IRadioResponse19interfaceDescriptorENSt3__18functionIFvRKNS0_11hidl_stringEEEE
_ZN7android8hardware5radio4V1_214IRadioResponse21notifySyspropsChangedEv
_ZN7android8hardware5radio4V1_214IRadioResponse21setHALInstrumentationEv
_ZN7android8hardware5radio4V1_214IRadioResponse24registerForNotificationsERKNSt3__112basic_stringIcNS4_11char_traitsIcEENS4_9allocatorIcEEEERKNS_2spINS_4hidl7manager4V1_020IServiceNotificationEEE
_ZN7android8hardware5radio4V1_214IRadioResponse4pingEv
_ZN7android8hardware5radio4V1_214IRadioResponse5debugERKNS0_11hidl_handleERKNS0_8hidl_vecINS0_11hidl_stringEEE
_ZN7android8hardware5radio4V1_214IRadioResponse8castFromERKNS_2spINS1_4V1_014IRadioResponseEEEb
_ZN7android8hardware5radio4V1_214IRadioResponse8castFromERKNS_2spINS1_4V1_114IRadioResponseEEEb
_ZN7android8hardware5radio4V1_214IRadioResponse8castFromERKNS_2spINS_4hidl4base4V1_05IBaseEEEb
_ZN7android8hardware5radio4V1_214IRadioResponse8castFromERKNS_2spIS3_EEb
_ZN7android8hardware5radio4V1_215BsRadioResponse13addOnewayTaskENSt3__18functionIFvvEEE
_ZN7android8hardware5radio4V1_215BsRadioResponseC1ENS_2spINS2_14IRadioResponseEEE
_ZN7android8hardware5radio4V1_215BsRadioResponseC2ENS_2spINS2_14IRadioResponseEEE
_ZN7android8hardware5radio4V1_216IRadioIndication10descriptorE
_ZN7android8hardware5radio4V1_216IRadioIndication10getServiceERKNSt3__112basic_stringIcNS4_11char_traitsIcEENS4_9allocatorIcEEEEb
_ZN7android8hardware5radio4V1_216IRadioIndication11linkToDeathERKNS_2spINS0_20hidl_death_recipientEEEy
_ZN7android8hardware5radio4V1_216IRadioIndication12getDebugInfoENSt3__18functionIFvRKNS_4hidl4base4V1_09DebugInfoEEEE
_ZN7android8hardware5radio4V1_216IRadioIndication12getHashChainENSt3__18functionIFvRKNS0_8hidl_vecINS0_10hidl_arrayIhLj32EJEEEEEEEE
_ZN7android8hardware5radio4V1_216IRadioIndication13tryGetServiceERKNSt3__112basic_stringIcNS4_11char_traitsIcEENS4_9allocatorIcEEEEb
_ZN7android8hardware5radio4V1_216IRadioIndication13unlinkToDeathERKNS_2spINS0_20hidl_death_recipientEEE
_ZN7android8hardware5radio4V1_216IRadioIndication14interfaceChainENSt3__18functionIFvRKNS0_8hidl_vecINS0_11hidl_stringEEEEEE
_ZN7android8hardware5radio4V1_216IRadioIndication17registerAsServiceERKNSt3__112basic_stringIcNS4_11char_traitsIcEENS4_9allocatorIcEEEE
_ZN7android8hardware5radio4V1_216IRadioIndication19interfaceDescriptorENSt3__18functionIFvRKNS0_11hidl_stringEEEE
_ZN7android8hardware5radio4V1_216IRadioIndication21notifySyspropsChangedEv
_ZN7android8hardware5radio4V1_216IRadioIndication21setHALInstrumentationEv
_ZN7android8hardware5radio4V1_216IRadioIndication24registerForNotificationsERKNSt3__112basic_stringIcNS4_11char_traitsIcEENS4_9allocatorIcEEEERKNS_2spINS_4hidl7manager4V1_020IServiceNotificationEEE
_ZN7android8hardware5radio4V1_216IRadioIndication4pingEv
_ZN7android8hardware5radio4V1_216IRadioIndication5debugERKNS0_11hidl_handleERKNS0_8hidl_vecINS0_11hidl_stringEEE
_ZN7android8hardware5radio4V1_216IRadioIndication8castFromERKNS_2spINS1_4V1_016IRadioIndicationEEEb
_ZN7android8hardware5radio4V1_216IRadioIndication8castFromERKNS_2spINS1_4V1_116IRadioIndicationEEEb
_ZN7android8hardware5radio4V1_216IRadioIndication8castFromERKNS_2spINS_4hidl4base4V1_05IBaseEEEb
_ZN7android8hardware5radio4V1_216IRadioIndication8castFromERKNS_2spIS3_EEb
_ZN7android8hardware5radio4V1_217BnHwRadioResponse10onTransactEjRKNS0_6ParcelEPS4_jNSt3__18functionIFvRS4_EEE
_ZN7android8hardware5radio4V1_217BnHwRadioResponse12getDebugInfoENSt3__18functionIFvRKNS_4hidl4base4V1_09DebugInfoEEEE
_ZN7android8hardware5radio4V1_217BnHwRadioResponse33_hidl_getCellInfoListResponse_1_2EPNS_4hidl4base4V1_08BnHwBaseERKNS0_6ParcelEPS9_NSt3__18functionIFvRS9_EEE
_ZN7android8hardware5radio4V1_217BnHwRadioResponse33_hidl_getCurrentCallsResponse_1_2EPNS_4hidl4base4V1_08BnHwBaseERKNS0_6ParcelEPS9_NSt3__18functionIFvRS9_EEE
_ZN7android8hardware5radio4V1_217BnHwRadioResponse34_hidl_getIccCardStatusResponse_1_2EPNS_4hidl4base4V1_08BnHwBaseERKNS0_6ParcelEPS9_NSt3__18functionIFvRS9_EEE
_ZN7android8hardware5radio4V1_217BnHwRadioResponse35_hidl_getSignalStrengthResponse_1_2EPNS_4hidl4base4V1_08BnHwBaseERKNS0_6ParcelEPS9_NSt3__18functionIFvRS9_EEE
_ZN7android8hardware5radio4V1_217BnHwRadioResponse42_hidl_getDataRegistrationStateResponse_1_2EPNS_4hidl4base4V1_08BnHwBaseERKNS0_6ParcelEPS9_NSt3__18functionIFvRS9_EEE
_ZN7android8hardware5radio4V1_217BnHwRadioResponse43_hidl_getVoiceRegistrationStateResponse_1_2EPNS_4hidl4base4V1_08BnHwBaseERKNS0_6ParcelEPS9_NSt3__18functionIFvRS9_EEE
_ZN7android8hardware5radio4V1_217BnHwRadioResponse46_hidl_setLinkCapacityReportingCriteriaResponseEPNS_4hidl4base4V1_08BnHwBaseERKNS0_6ParcelEPS9_NSt3__18functionIFvRS9_EEE
_ZN7android8hardware5radio4V1_217BnHwRadioResponse48_hidl_setSignalStrengthReportingCriteriaResponseEPNS_4hidl4base4V1_08BnHwBaseERKNS0_6ParcelEPS9_NSt3__18functionIFvRS9_EEE
_ZN7android8hardware5radio4V1_217BnHwRadioResponse4pingEv
_ZN7android8hardware5radio4V1_217BnHwRadioResponseC1ERKNS_2spINS2_14IRadioResponseEEE
_ZN7android8hardware5radio4V1_217BnHwRadioResponseC2ERKNS_2spINS2_14IRadioResponseEEE
_ZN7android8hardware5radio4V1_217BnHwRadioResponseD0Ev
_ZN7android8hardware5radio4V1_217BnHwRadioResponseD1Ev
_ZN7android8hardware5radio4V1_217BnHwRadioResponseD2Ev
_ZN7android8hardware5radio4V1_217BpHwRadioResponse11linkToDeathERKNS_2spINS0_20hidl_death_recipientEEEy
_ZN7android8hardware5radio4V1_217BpHwRadioResponse12dialResponseERKNS1_4V1_017RadioResponseInfoE
_ZN7android8hardware5radio4V1_217BpHwRadioResponse12getDebugInfoENSt3__18functionIFvRKNS_4hidl4base4V1_09DebugInfoEEEE
_ZN7android8hardware5radio4V1_217BpHwRadioResponse12getHashChainENSt3__18functionIFvRKNS0_8hidl_vecINS0_10hidl_arrayIhLj32EJEEEEEEEE
_ZN7android8hardware5radio4V1_217BpHwRadioResponse13unlinkToDeathERKNS_2spINS0_20hidl_death_recipientEEE
_ZN7android8hardware5radio4V1_217BpHwRadioResponse14interfaceChainENSt3__18functionIFvRKNS0_8hidl_vecINS0_11hidl_stringEEEEEE
_ZN7android8hardware5radio4V1_217BpHwRadioResponse15getClipResponseERKNS1_4V1_017RadioResponseInfoENS4_10ClipStatusE
_ZN7android8hardware5radio4V1_217BpHwRadioResponse15getClirResponseERKNS1_4V1_017RadioResponseInfoEii
_ZN7android8hardware5radio4V1_217BpHwRadioResponse15getMuteResponseERKNS1_4V1_017RadioResponseInfoEb
_ZN7android8hardware5radio4V1_217BpHwRadioResponse15sendSmsResponseERKNS1_4V1_017RadioResponseInfoERKNS4_13SendSmsResultE
_ZN7android8hardware5radio4V1_217BpHwRadioResponse15setClirResponseERKNS1_4V1_017RadioResponseInfoE
_ZN7android8hardware5radio4V1_217BpHwRadioResponse15setMuteResponseERKNS1_4V1_017RadioResponseInfoE
_ZN7android8hardware5radio4V1_217BpHwRadioResponse16sendDtmfResponseERKNS1_4V1_017RadioResponseInfoE
_ZN7android8hardware5radio4V1_217BpHwRadioResponse16sendUssdResponseERKNS1_4V1_017RadioResponseInfoE
_ZN7android8hardware5radio4V1_217BpHwRadioResponse16stopDtmfResponseERKNS1_4V1_017RadioResponseInfoE
_ZN7android8hardware5radio4V1_217BpHwRadioResponse17startDtmfResponseERKNS1_4V1_017RadioResponseInfoE
_ZN7android8hardware5radio4V1_217BpHwRadioResponse18acceptCallResponseERKNS1_4V1_017RadioResponseInfoE
_ZN7android8hardware5radio4V1_217BpHwRadioResponse18acknowledgeRequestEi
_ZN7android8hardware5radio4V1_217BpHwRadioResponse18conferenceResponseERKNS1_4V1_017RadioResponseInfoE
_ZN7android8hardware5radio4V1_217BpHwRadioResponse18getTTYModeResponseERKNS1_4V1_017RadioResponseInfoENS4_7TtyModeE
_ZN7android8hardware5radio4V1_217BpHwRadioResponse18nvReadItemResponseERKNS1_4V1_017RadioResponseInfoERKNS0_11hidl_stringE
_ZN7android8hardware5radio4V1_217BpHwRadioResponse18rejectCallResponseERKNS1_4V1_017RadioResponseInfoE
_ZN7android8hardware5radio4V1_217BpHwRadioResponse18sendImsSmsResponseERKNS1_4V1_017RadioResponseInfoERKNS4_13SendSmsResultE
_ZN7android8hardware5radio4V1_217BpHwRadioResponse18setTTYModeResponseERKNS1_4V1_017RadioResponseInfoE
_ZN7android8hardware5radio4V1_217BpHwRadioResponse19getOperatorResponseERKNS1_4V1_017RadioResponseInfoERKNS0_11hidl_stringESA_SA_
_ZN7android8hardware5radio4V1_217BpHwRadioResponse19iccIOForAppResponseERKNS1_4V1_017RadioResponseInfoERKNS4_11IccIoResultE
_ZN7android8hardware5radio4V1_217BpHwRadioResponse19interfaceDescriptorENSt3__18functionIFvRKNS0_11hidl_stringEEEE
_ZN7android8hardware5radio4V1_217BpHwRadioResponse19nvWriteItemResponseERKNS1_4V1_017RadioResponseInfoE
_ZN7android8hardware5radio4V1_217BpHwRadioResponse19pullLceDataResponseERKNS1_4V1_017RadioResponseInfoERKNS4_11LceDataInfoE
_ZN7android8hardware5radio4V1_217BpHwRadioResponse19sendCdmaSmsResponseERKNS1_4V1_017RadioResponseInfoERKNS4_13SendSmsResultE
_ZN7android8hardware5radio4V1_217BpHwRadioResponse19setBandModeResponseERKNS1_4V1_017RadioResponseInfoE
_ZN7android8hardware5radio4V1_217BpHwRadioResponse20sendEnvelopeResponseERKNS1_4V1_017RadioResponseInfoERKNS0_11hidl_stringE
_ZN7android8hardware5radio4V1_217BpHwRadioResponse21getIMSIForAppResponseERKNS1_4V1_017RadioResponseInfoERKNS0_11hidl_stringE
_ZN7android8hardware5radio4V1_217BpHwRadioResponse21notifySyspropsChangedEv
_ZN7android8hardware5radio4V1_217BpHwRadioResponse21nvResetConfigResponseERKNS1_4V1_017RadioResponseInfoE
_ZN7android8hardware5radio4V1_217BpHwRadioResponse21sendBurstDtmfResponseERKNS1_4V1_017RadioResponseInfoE
_ZN7android8hardware5radio4V1_217BpHwRadioResponse21setHALInstrumentationEv
_ZN7android8hardware5radio4V1_217BpHwRadioResponse21setRadioPowerResponseERKNS1_4V1_017RadioResponseInfoE
_ZN7android8hardware5radio4V1_217BpHwRadioResponse21setupDataCallResponseERKNS1_4V1_017RadioResponseInfoERKNS4_19SetupDataCallResultE
_ZN7android8hardware5radio4V1_217BpHwRadioResponse21stopKeepaliveResponseERKNS1_4V1_017RadioResponseInfoE
_ZN7android8hardware5radio4V1_217BpHwRadioResponse21writeSmsToSimResponseERKNS1_4V1_017RadioResponseInfoEi
_ZN7android8hardware5radio4V1_217BpHwRadioResponse22deleteSmsOnSimResponseERKNS1_4V1_017RadioResponseInfoE
_ZN7android8hardware5radio4V1_217BpHwRadioResponse22getCallWaitingResponseERKNS1_4V1_017RadioResponseInfoEbi
_ZN7android8hardware5radio4V1_217BpHwRadioResponse22getSmscAddressResponseERKNS1_4V1_017RadioResponseInfoERKNS0_11hidl_stringE
_ZN7android8hardware5radio4V1_217BpHwRadioResponse22nvWriteCdmaPrlResponseERKNS1_4V1_017RadioResponseInfoE
_ZN7android8hardware5radio4V1_217BpHwRadioResponse22setCallForwardResponseERKNS1_4V1_017RadioResponseInfoE
_ZN7android8hardware5radio4V1_217BpHwRadioResponse22setCallWaitingResponseERKNS1_4V1_017RadioResponseInfoE
_ZN7android8hardware5radio4V1_217BpHwRadioResponse22setDataAllowedResponseERKNS1_4V1_017RadioResponseInfoE
_ZN7android8hardware5radio4V1_217BpHwRadioResponse22setDataProfileResponseERKNS1_4V1_017RadioResponseInfoE
_ZN7android8hardware5radio4V1_217BpHwRadioResponse22setSmscAddressResponseERKNS1_4V1_017RadioResponseInfoE
_ZN7android8hardware5radio4V1_217BpHwRadioResponse22startKeepaliveResponseERKNS1_4V1_017RadioResponseInfoERKNS1_4V1_115KeepaliveStatusE
_ZN7android8hardware5radio4V1_217BpHwRadioResponse22stopLceServiceResponseERKNS1_4V1_017RadioResponseInfoERKNS4_13LceStatusInfoE
_ZN7android8hardware5radio4V1_217BpHwRadioResponse22writeSmsToRuimResponseERKNS1_4V1_017RadioResponseInfoEj
_ZN7android8hardware5radio4V1_217BpHwRadioResponse23deleteSmsOnRuimResponseERKNS1_4V1_017RadioResponseInfoE
_ZN7android8hardware5radio4V1_217BpHwRadioResponse23getCellInfoListResponseERKNS1_4V1_017RadioResponseInfoERKNS0_8hidl_vecINS4_8CellInfoEEE
_ZN7android8hardware5radio4V1_217BpHwRadioResponse23getCurrentCallsResponseERKNS1_4V1_017RadioResponseInfoERKNS0_8hidl_vecINS4_4CallEEE
_ZN7android8hardware5radio4V1_217BpHwRadioResponse23getDataCallListResponseERKNS1_4V1_017RadioResponseInfoERKNS0_8hidl_vecINS4_19SetupDataCallResultEEE
_ZN7android8hardware5radio4V1_217BpHwRadioResponse23requestShutdownResponseERKNS1_4V1_017RadioResponseInfoE
_ZN7android8hardware5radio4V1_217BpHwRadioResponse23sendDeviceStateResponseERKNS1_4V1_017RadioResponseInfoE
_ZN7android8hardware5radio4V1_217BpHwRadioResponse23setSimCardPowerResponseERKNS1_4V1_017RadioResponseInfoE
_ZN7android8hardware5radio4V1_217BpHwRadioResponse23startLceServiceResponseERKNS1_4V1_017RadioResponseInfoERKNS4_13LceStatusInfoE
_ZN7android8hardware5radio4V1_217BpHwRadioResponse23stopNetworkScanResponseERKNS1_4V1_017RadioResponseInfoE
_ZN7android8hardware5radio4V1_217BpHwRadioResponse24getIccCardStatusResponseERKNS1_4V1_017RadioResponseInfoERKNS4_10CardStatusE
_ZN7android8hardware5radio4V1_217BpHwRadioResponse24hangupConnectionResponseERKNS1_4V1_017RadioResponseInfoE
_ZN7android8hardware5radio4V1_217BpHwRadioResponse24startNetworkScanResponseERKNS1_4V1_017RadioResponseInfoE
_ZN7android8hardware5radio4V1_217BpHwRadioResponse25cancelPendingUssdResponseERKNS1_4V1_017RadioResponseInfoE
_ZN7android8hardware5radio4V1_217BpHwRadioResponse25getDeviceIdentityResponseERKNS1_4V1_017RadioResponseInfoERKNS0_11hidl_stringESA_SA_SA_
_ZN7android8hardware5radio4V1_217BpHwRadioResponse25getHardwareConfigResponseERKNS1_4V1_017RadioResponseInfoERKNS0_8hidl_vecINS4_14HardwareConfigEEE
_ZN7android8hardware5radio4V1_217BpHwRadioResponse25getSignalStrengthResponseERKNS1_4V1_017RadioResponseInfoERKNS4_14SignalStrengthE
_ZN7android8hardware5radio4V1_217BpHwRadioResponse25sendSMSExpectMoreResponseERKNS1_4V1_017RadioResponseInfoERKNS4_13SendSmsResultE
_ZN7android8hardware5radio4V1_217BpHwRadioResponse26changeIccPinForAppResponseERKNS1_4V1_017RadioResponseInfoEi
_ZN7android8hardware5radio4V1_217BpHwRadioResponse26deactivateDataCallResponseERKNS1_4V1_017RadioResponseInfoE
_ZN7android8hardware5radio4V1_217BpHwRadioResponse26getAllowedCarriersResponseERKNS1_4V1_017RadioResponseInfoEbRKNS4_19CarrierRestrictionsE
_ZN7android8hardware5radio4V1_217BpHwRadioResponse26getBasebandVersionResponseERKNS1_4V1_017RadioResponseInfoERKNS0_11hidl_stringE
_ZN7android8hardware5radio4V1_217BpHwRadioResponse26getNeighboringCidsResponseERKNS1_4V1_017RadioResponseInfoERKNS0_8hidl_vecINS4_15NeighboringCellEEE
_ZN7android8hardware5radio4V1_217BpHwRadioResponse26getRadioCapabilityResponseERKNS1_4V1_017RadioResponseInfoERKNS4_15RadioCapabilityE
_ZN7android8hardware5radio4V1_217BpHwRadioResponse26separateConnectionResponseERKNS1_4V1_017RadioResponseInfoE
_ZN7android8hardware5radio4V1_217BpHwRadioResponse26setAllowedCarriersResponseERKNS1_4V1_017RadioResponseInfoEi
_ZN7android8hardware5radio4V1_217BpHwRadioResponse26setBarringPasswordResponseERKNS1_4V1_017RadioResponseInfoE
_ZN7android8hardware5radio4V1_217BpHwRadioResponse26setLocationUpdatesResponseERKNS1_4V1_017RadioResponseInfoE
_ZN7android8hardware5radio4V1_217BpHwRadioResponse26setRadioCapabilityResponseERKNS1_4V1_017RadioResponseInfoERKNS4_15RadioCapabilityE
_ZN7android8hardware5radio4V1_217BpHwRadioResponse26supplyIccPinForAppResponseERKNS1_4V1_017RadioResponseInfoEi
_ZN7android8hardware5radio4V1_217BpHwRadioResponse26supplyIccPukForAppResponseERKNS1_4V1_017RadioResponseInfoEi
_ZN7android8hardware5radio4V1_217BpHwRadioResponse27changeIccPin2ForAppResponseERKNS1_4V1_017RadioResponseInfoEi
_ZN7android8hardware5radio4V1_217BpHwRadioResponse27getCDMASubscriptionResponseERKNS1_4V1_017RadioResponseInfoERKNS0_11hidl_stringESA_SA_SA_SA_
_ZN7android8hardware5radio4V1_217BpHwRadioResponse27getCellInfoListResponse_1_2ERKNS1_4V1_017RadioResponseInfoERKNS0_8hidl_vecINS2_8CellInfoEEE
_ZN7android8hardware5radio4V1_217BpHwRadioResponse27getCurrentCallsResponse_1_2ERKNS1_4V1_017RadioResponseInfoERKNS0_8hidl_vecINS2_4CallEEE
_ZN7android8hardware5radio4V1_217BpHwRadioResponse27sendCDMAFeatureCodeResponseERKNS1_4V1_017RadioResponseInfoE
_ZN7android8hardware5radio4V1_217BpHwRadioResponse27setCellInfoListRateResponseERKNS1_4V1_017RadioResponseInfoE
_ZN7android8hardware5radio4V1_217BpHwRadioResponse27setIndicationFilterResponseERKNS1_4V1_017RadioResponseInfoE
_ZN7android8hardware5radio4V1_217BpHwRadioResponse27setInitialAttachApnResponseERKNS1_4V1_017RadioResponseInfoE
_ZN7android8hardware5radio4V1_217BpHwRadioResponse27setSimCardPowerResponse_1_1ERKNS1_4V1_017RadioResponseInfoE
_ZN7android8hardware5radio4V1_217BpHwRadioResponse27setUiccSubscriptionResponseERKNS1_4V1_017RadioResponseInfoE
_ZN7android8hardware5radio4V1_217BpHwRadioResponse27supplyIccPin2ForAppResponseERKNS1_4V1_017RadioResponseInfoEi
_ZN7android8hardware5radio4V1_217BpHwRadioResponse27supplyIccPuk2ForAppResponseERKNS1_4V1_017RadioResponseInfoEi
_ZN7android8hardware5radio4V1_217BpHwRadioResponse28explicitCallTransferResponseERKNS1_4V1_017RadioResponseInfoE
_ZN7android8hardware5radio4V1_217BpHwRadioResponse28getAvailableNetworksResponseERKNS1_4V1_017RadioResponseInfoERKNS0_8hidl_vecINS4_12OperatorInfoEEE
_ZN7android8hardware5radio4V1_217BpHwRadioResponse28getCallForwardStatusResponseERKNS1_4V1_017RadioResponseInfoERKNS0_8hidl_vecINS4_15CallForwardInfoEEE
_ZN7android8hardware5radio4V1_217BpHwRadioResponse28getIccCardStatusResponse_1_2ERKNS1_4V1_017RadioResponseInfoERKNS2_10CardStatusE
_ZN7android8hardware5radio4V1_217BpHwRadioResponse28getLastCallFailCauseResponseERKNS1_4V1_017RadioResponseInfoERKNS4_21LastCallFailCauseInfoE
_ZN7android8hardware5radio4V1_217BpHwRadioResponse28getModemActivityInfoResponseERKNS1_4V1_017RadioResponseInfoERKNS4_17ActivityStatsInfoE
_ZN7android8hardware5radio4V1_217BpHwRadioResponse29getAvailableBandModesResponseERKNS1_4V1_017RadioResponseInfoERKNS0_8hidl_vecINS4_13RadioBandModeEEE
_ZN7android8hardware5radio4V1_217BpHwRadioResponse29getFacilityLockForAppResponseERKNS1_4V1_017RadioResponseInfoEi
_ZN7android8hardware5radio4V1_217BpHwRadioResponse29getGsmBroadcastConfigResponseERKNS1_4V1_017RadioResponseInfoERKNS0_8hidl_vecINS4_25GsmBroadcastSmsConfigInfoEEE
_ZN7android8hardware5radio4V1_217BpHwRadioResponse29getSignalStrengthResponse_1_2ERKNS1_4V1_017RadioResponseInfoERKNS2_14SignalStrengthE
_ZN7android8hardware5radio4V1_217BpHwRadioResponse29iccOpenLogicalChannelResponseERKNS1_4V1_017RadioResponseInfoEiRKNS0_8hidl_vecIaEE
_ZN7android8hardware5radio4V1_217BpHwRadioResponse29reportSmsMemoryStatusResponseERKNS1_4V1_017RadioResponseInfoE
_ZN7android8hardware5radio4V1_217BpHwRadioResponse29setFacilityLockForAppResponseERKNS1_4V1_017RadioResponseInfoEi
_ZN7android8hardware5radio4V1_217BpHwRadioResponse29setGsmBroadcastConfigResponseERKNS1_4V1_017RadioResponseInfoE
_ZN7android8hardware5radio4V1_217BpHwRadioResponse30getCdmaBroadcastConfigResponseERKNS1_4V1_017RadioResponseInfoERKNS0_8hidl_vecINS4_26CdmaBroadcastSmsConfigInfoEEE
_ZN7android8hardware5radio4V1_217BpHwRadioResponse30iccCloseLogicalChannelResponseERKNS1_4V1_017RadioResponseInfoE
_ZN7android8hardware5radio4V1_217BpHwRadioResponse30sendEnvelopeWithStatusResponseERKNS1_4V1_017RadioResponseInfoERKNS4_11IccIoResultE
_ZN7android8hardware5radio4V1_217BpHwRadioResponse30setCdmaBroadcastConfigResponseERKNS1_4V1_017RadioResponseInfoE
_ZN7android8hardware5radio4V1_217BpHwRadioResponse31getImsRegistrationStateResponseERKNS1_4V1_017RadioResponseInfoEbNS4_21RadioTechnologyFamilyE
_ZN7android8hardware5radio4V1_217BpHwRadioResponse31getNetworkSelectionModeResponseERKNS1_4V1_017RadioResponseInfoEb
_ZN7android8hardware5radio4V1_217BpHwRadioResponse31getPreferredNetworkTypeResponseERKNS1_4V1_017RadioResponseInfoENS4_20PreferredNetworkTypeE
_ZN7android8hardware5radio4V1_217BpHwRadioResponse31getVoiceRadioTechnologyResponseERKNS1_4V1_017RadioResponseInfoENS4_15RadioTechnologyE
_ZN7android8hardware5radio4V1_217BpHwRadioResponse31setPreferredNetworkTypeResponseERKNS1_4V1_017RadioResponseInfoE
_ZN7android8hardware5radio4V1_217BpHwRadioResponse32getCdmaRoamingPreferenceResponseERKNS1_4V1_017RadioResponseInfoENS4_15CdmaRoamingTypeE
_ZN7android8hardware5radio4V1_217BpHwRadioResponse32getDataRegistrationStateResponseERKNS1_4V1_017RadioResponseInfoERKNS4_18DataRegStateResultE
_ZN7android8hardware5radio4V1_217BpHwRadioResponse32getPreferredVoicePrivacyResponseERKNS1_4V1_017RadioResponseInfoEb
_ZN7android8hardware5radio4V1_217BpHwRadioResponse32setCdmaRoamingPreferenceResponseERKNS1_4V1_017RadioResponseInfoE
_ZN7android8hardware5radio4V1_217BpHwRadioResponse32setPreferredVoicePrivacyResponseERKNS1_4V1_017RadioResponseInfoE
_ZN7android8hardware5radio4V1_217BpHwRadioResponse33_hidl_getCellInfoListResponse_1_2EPNS0_10IInterfaceEPNS0_7details16HidlInstrumentorERKNS1_4V1_017RadioResponseInfoERKNS0_8hidl_vecINS2_8CellInfoEEE
_ZN7android8hardware5radio4V1_217BpHwRadioResponse33_hidl_getCurrentCallsResponse_1_2EPNS0_10IInterfaceEPNS0_7details16HidlInstrumentorERKNS1_4V1_017RadioResponseInfoERKNS0_8hidl_vecINS2_4CallEEE
_ZN7android8hardware5radio4V1_217BpHwRadioResponse33exitEmergencyCallbackModeResponseERKNS1_4V1_017RadioResponseInfoE
_ZN7android8hardware5radio4V1_217BpHwRadioResponse33getCdmaSubscriptionSourceResponseERKNS1_4V1_017RadioResponseInfoENS4_22CdmaSubscriptionSourceE
_ZN7android8hardware5radio4V1_217BpHwRadioResponse33getVoiceRegistrationStateResponseERKNS1_4V1_017RadioResponseInfoERKNS4_19VoiceRegStateResultE
_ZN7android8hardware5radio4V1_217BpHwRadioResponse33hangupWaitingOrBackgroundResponseERKNS1_4V1_017RadioResponseInfoE
_ZN7android8hardware5radio4V1_217BpHwRadioResponse33reportStkServiceIsRunningResponseERKNS1_4V1_017RadioResponseInfoE
_ZN7android8hardware5radio4V1_217BpHwRadioResponse33requestIsimAuthenticationResponseERKNS1_4V1_017RadioResponseInfoERKNS0_11hidl_stringE
_ZN7android8hardware5radio4V1_217BpHwRadioResponse33sendTerminalResponseToSimResponseERKNS1_4V1_017RadioResponseInfoE
_ZN7android8hardware5radio4V1_217BpHwRadioResponse33setCdmaSubscriptionSourceResponseERKNS1_4V1_017RadioResponseInfoE
_ZN7android8hardware5radio4V1_217BpHwRadioResponse33setGsmBroadcastActivationResponseERKNS1_4V1_017RadioResponseInfoE
_ZN7android8hardware5radio4V1_217BpHwRadioResponse34_hidl_getIccCardStatusResponse_1_2EPNS0_10IInterfaceEPNS0_7details16HidlInstrumentorERKNS1_4V1_017RadioResponseInfoERKNS2_10CardStatusE
_ZN7android8hardware5radio4V1_217BpHwRadioResponse34setCdmaBroadcastActivationResponseERKNS1_4V1_017RadioResponseInfoE
_ZN7android8hardware5radio4V1_217BpHwRadioResponse35_hidl_getSignalStrengthResponse_1_2EPNS0_10IInterfaceEPNS0_7details16HidlInstrumentorERKNS1_4V1_017RadioResponseInfoERKNS2_14SignalStrengthE
_ZN7android8hardware5radio4V1_217BpHwRadioResponse35iccTransmitApduBasicChannelResponseERKNS1_4V1_017RadioResponseInfoERKNS4_11IccIoResultE
_ZN7android8hardware5radio4V1_217BpHwRadioResponse35requestIccSimAuthenticationResponseERKNS1_4V1_017RadioResponseInfoERKNS4_11IccIoResultE
_ZN7android8hardware5radio4V1_217BpHwRadioResponse35setSuppServiceNotificationsResponseERKNS1_4V1_017RadioResponseInfoE
_ZN7android8hardware5radio4V1_217BpHwRadioResponse36getDataRegistrationStateResponse_1_2ERKNS1_4V1_017RadioResponseInfoERKNS2_18DataRegStateResultE
_ZN7android8hardware5radio4V1_217BpHwRadioResponse37acknowledgeLastIncomingGsmSmsResponseERKNS1_4V1_017RadioResponseInfoE
_ZN7android8hardware5radio4V1_217BpHwRadioResponse37getVoiceRegistrationStateResponse_1_2ERKNS1_4V1_017RadioResponseInfoERKNS2_19VoiceRegStateResultE
_ZN7android8hardware5radio4V1_217BpHwRadioResponse37iccTransmitApduLogicalChannelResponseERKNS1_4V1_017RadioResponseInfoERKNS4_11IccIoResultE
_ZN7android8hardware5radio4V1_217BpHwRadioResponse37setNetworkSelectionModeManualResponseERKNS1_4V1_017RadioResponseInfoE
_ZN7android8hardware5radio4V1_217BpHwRadioResponse38acknowledgeLastIncomingCdmaSmsResponseERKNS1_4V1_017RadioResponseInfoE
_ZN7android8hardware5radio4V1_217BpHwRadioResponse38supplyNetworkDepersonalizationResponseERKNS1_4V1_017RadioResponseInfoEi
_ZN7android8hardware5radio4V1_217BpHwRadioResponse39setCarrierInfoForImsiEncryptionResponseERKNS1_4V1_017RadioResponseInfoE
_ZN7android8hardware5radio4V1_217BpHwRadioResponse39switchWaitingOrHoldingAndActiveResponseERKNS1_4V1_017RadioResponseInfoE
_ZN7android8hardware5radio4V1_217BpHwRadioResponse40acknowledgeIncomingGsmSmsWithPduResponseERKNS1_4V1_017RadioResponseInfoE
_ZN7android8hardware5radio4V1_217BpHwRadioResponse40handleStkCallSetupRequestFromSimResponseERKNS1_4V1_017RadioResponseInfoE
_ZN7android8hardware5radio4V1_217BpHwRadioResponse40hangupForegroundResumeBackgroundResponseERKNS1_4V1_017RadioResponseInfoE
_ZN7android8hardware5radio4V1_217BpHwRadioResponse40setLinkCapacityReportingCriteriaResponseERKNS1_4V1_017RadioResponseInfoE
_ZN7android8hardware5radio4V1_217BpHwRadioResponse40setNetworkSelectionModeAutomaticResponseERKNS1_4V1_017RadioResponseInfoE
_ZN7android8hardware5radio4V1_217BpHwRadioResponse42_hidl_getDataRegistrationStateResponse_1_2EPNS0_10IInterfaceEPNS0_7details16HidlInstrumentorERKNS1_4V1_017RadioResponseInfoERKNS2_18DataRegStateResultE
_ZN7android8hardware5radio4V1_217BpHwRadioResponse42setSignalStrengthReportingCriteriaResponseERKNS1_4V1_017RadioResponseInfoE
_ZN7android8hardware5radio4V1_217BpHwRadioResponse43_hidl_getVoiceRegistrationStateResponse_1_2EPNS0_10IInterfaceEPNS0_7details16HidlInstrumentorERKNS1_4V1_017RadioResponseInfoERKNS2_19VoiceRegStateResultE
_ZN7android8hardware5radio4V1_217BpHwRadioResponse46_hidl_setLinkCapacityReportingCriteriaResponseEPNS0_10IInterfaceEPNS0_7details16HidlInstrumentorERKNS1_4V1_017RadioResponseInfoE
_ZN7android8hardware5radio4V1_217BpHwRadioResponse48_hidl_setSignalStrengthReportingCriteriaResponseEPNS0_10IInterfaceEPNS0_7details16HidlInstrumentorERKNS1_4V1_017RadioResponseInfoE
_ZN7android8hardware5radio4V1_217BpHwRadioResponse4pingEv
_ZN7android8hardware5radio4V1_217BpHwRadioResponse5debugERKNS0_11hidl_handleERKNS0_8hidl_vecINS0_11hidl_stringEEE
_ZN7android8hardware5radio4V1_217BpHwRadioResponseC1ERKNS_2spINS0_7IBinderEEE
_ZN7android8hardware5radio4V1_217BpHwRadioResponseC2ERKNS_2spINS0_7IBinderEEE
_ZN7android8hardware5radio4V1_217BsRadioIndication13addOnewayTaskENSt3__18functionIFvvEEE
_ZN7android8hardware5radio4V1_217BsRadioIndicationC1ENS_2spINS2_16IRadioIndicationEEE
_ZN7android8hardware5radio4V1_217BsRadioIndicationC2ENS_2spINS2_16IRadioIndicationEEE
_ZN7android8hardware5radio4V1_219BnHwRadioIndication10onTransactEjRKNS0_6ParcelEPS4_jNSt3__18functionIFvRS4_EEE
_ZN7android8hardware5radio4V1_219BnHwRadioIndication12getDebugInfoENSt3__18functionIFvRKNS_4hidl4base4V1_09DebugInfoEEEE
_ZN7android8hardware5radio4V1_219BnHwRadioIndication22_hidl_cellInfoList_1_2EPNS_4hidl4base4V1_08BnHwBaseERKNS0_6ParcelEPS9_NSt3__18functionIFvRS9_EEE
_ZN7android8hardware5radio4V1_219BnHwRadioIndication27_hidl_networkScanResult_1_2EPNS_4hidl4base4V1_08BnHwBaseERKNS0_6ParcelEPS9_NSt3__18functionIFvRS9_EEE
_ZN7android8hardware5radio4V1_219BnHwRadioIndication31_hidl_currentSignalStrength_1_2EPNS_4hidl4base4V1_08BnHwBaseERKNS0_6ParcelEPS9_NSt3__18functionIFvRS9_EEE
_ZN7android8hardware5radio4V1_219BnHwRadioIndication33_hidl_currentLinkCapacityEstimateEPNS_4hidl4base4V1_08BnHwBaseERKNS0_6ParcelEPS9_NSt3__18functionIFvRS9_EEE
_ZN7android8hardware5radio4V1_219BnHwRadioIndication35_hidl_currentPhysicalChannelConfigsEPNS_4hidl4base4V1_08BnHwBaseERKNS0_6ParcelEPS9_NSt3__18functionIFvRS9_EEE
_ZN7android8hardware5radio4V1_219BnHwRadioIndication4pingEv
_ZN7android8hardware5radio4V1_219BnHwRadioIndicationC1ERKNS_2spINS2_16IRadioIndicationEEE
_ZN7android8hardware5radio4V1_219BnHwRadioIndicationC2ERKNS_2spINS2_16IRadioIndicationEEE
_ZN7android8hardware5radio4V1_219BnHwRadioIndicationD0Ev
_ZN7android8hardware5radio4V1_219BnHwRadioIndicationD1Ev
_ZN7android8hardware5radio4V1_219BnHwRadioIndicationD2Ev
_ZN7android8hardware5radio4V1_219BpHwRadioIndication10cdmaNewSmsENS1_4V1_019RadioIndicationTypeERKNS4_14CdmaSmsMessageE
_ZN7android8hardware5radio4V1_219BpHwRadioIndication10modemResetENS1_4V1_019RadioIndicationTypeERKNS0_11hidl_stringE
_ZN7android8hardware5radio4V1_219BpHwRadioIndication10simRefreshENS1_4V1_019RadioIndicationTypeERKNS4_16SimRefreshResultE
_ZN7android8hardware5radio4V1_219BpHwRadioIndication11cdmaInfoRecENS1_4V1_019RadioIndicationTypeERKNS4_22CdmaInformationRecordsE
_ZN7android8hardware5radio4V1_219BpHwRadioIndication11linkToDeathERKNS_2spINS0_20hidl_death_recipientEEEy
_ZN7android8hardware5radio4V1_219BpHwRadioIndication11newSmsOnSimENS1_4V1_019RadioIndicationTypeEi
_ZN7android8hardware5radio4V1_219BpHwRadioIndication12cellInfoListENS1_4V1_019RadioIndicationTypeERKNS0_8hidl_vecINS4_8CellInfoEEE
_ZN7android8hardware5radio4V1_219BpHwRadioIndication12getDebugInfoENSt3__18functionIFvRKNS_4hidl4base4V1_09DebugInfoEEEE
_ZN7android8hardware5radio4V1_219BpHwRadioIndication12getHashChainENSt3__18functionIFvRKNS0_8hidl_vecINS0_10hidl_arrayIhLj32EJEEEEEEEE
_ZN7android8hardware5radio4V1_219BpHwRadioIndication12rilConnectedENS1_4V1_019RadioIndicationTypeE
_ZN7android8hardware5radio4V1_219BpHwRadioIndication12stkCallSetupENS1_4V1_019RadioIndicationTypeEx
_ZN7android8hardware5radio4V1_219BpHwRadioIndication13stkSessionEndENS1_4V1_019RadioIndicationTypeE
_ZN7android8hardware5radio4V1_219BpHwRadioIndication13suppSvcNotifyENS1_4V1_019RadioIndicationTypeERKNS4_19SuppSvcNotificationE
_ZN7android8hardware5radio4V1_219BpHwRadioIndication13unlinkToDeathERKNS_2spINS0_20hidl_death_recipientEEE
_ZN7android8hardware5radio4V1_219BpHwRadioIndication14cdmaPrlChangedENS1_4V1_019RadioIndicationTypeEi
_ZN7android8hardware5radio4V1_219BpHwRadioIndication14interfaceChainENSt3__18functionIFvRKNS0_8hidl_vecINS0_11hidl_stringEEEEEE
_ZN7android8hardware5radio4V1_219BpHwRadioIndication14stkEventNotifyENS1_4V1_019RadioIndicationTypeERKNS0_11hidl_stringE
_ZN7android8hardware5radio4V1_219BpHwRadioIndication15cdmaCallWaitingENS1_4V1_019RadioIndicationTypeERKNS4_15CdmaCallWaitingE
_ZN7android8hardware5radio4V1_219BpHwRadioIndication15keepaliveStatusENS1_4V1_019RadioIndicationTypeERKNS1_4V1_115KeepaliveStatusE
_ZN7android8hardware5radio4V1_219BpHwRadioIndication15newBroadcastSmsENS1_4V1_019RadioIndicationTypeERKNS0_8hidl_vecIhEE
_ZN7android8hardware5radio4V1_219BpHwRadioIndication16callStateChangedENS1_4V1_019RadioIndicationTypeE
_ZN7android8hardware5radio4V1_219BpHwRadioIndication16cellInfoList_1_2ENS1_4V1_019RadioIndicationTypeERKNS0_8hidl_vecINS2_8CellInfoEEE
_ZN7android8hardware5radio4V1_219BpHwRadioIndication16nitzTimeReceivedENS1_4V1_019RadioIndicationTypeERKNS0_11hidl_stringEy
_ZN7android8hardware5radio4V1_219BpHwRadioIndication16resendIncallMuteENS1_4V1_019RadioIndicationTypeE
_ZN7android8hardware5radio4V1_219BpHwRadioIndication16simStatusChangedENS1_4V1_019RadioIndicationTypeE
_ZN7android8hardware5radio4V1_219BpHwRadioIndication16srvccStateNotifyENS1_4V1_019RadioIndicationTypeENS4_10SrvccStateE
_ZN7android8hardware5radio4V1_219BpHwRadioIndication17networkScanResultENS1_4V1_019RadioIndicationTypeERKNS1_4V1_117NetworkScanResultE
_ZN7android8hardware5radio4V1_219BpHwRadioIndication17radioStateChangedENS1_4V1_019RadioIndicationTypeENS4_10RadioStateE
_ZN7android8hardware5radio4V1_219BpHwRadioIndication17simSmsStorageFullENS1_4V1_019RadioIndicationTypeE
_ZN7android8hardware5radio4V1_219BpHwRadioIndication18newSmsStatusReportENS1_4V1_019RadioIndicationTypeERKNS0_8hidl_vecIhEE
_ZN7android8hardware5radio4V1_219BpHwRadioIndication19dataCallListChangedENS1_4V1_019RadioIndicationTypeERKNS0_8hidl_vecINS4_19SetupDataCallResultEEE
_ZN7android8hardware5radio4V1_219BpHwRadioIndication19interfaceDescriptorENSt3__18functionIFvRKNS0_11hidl_stringEEEE
_ZN7android8hardware5radio4V1_219BpHwRadioIndication19networkStateChangedENS1_4V1_019RadioIndicationTypeE
_ZN7android8hardware5radio4V1_219BpHwRadioIndication19stkProactiveCommandENS1_4V1_019RadioIndicationTypeERKNS0_11hidl_stringE
_ZN7android8hardware5radio4V1_219BpHwRadioIndication20indicateRingbackToneENS1_4V1_019RadioIndicationTypeEb
_ZN7android8hardware5radio4V1_219BpHwRadioIndication21currentSignalStrengthENS1_4V1_019RadioIndicationTypeERKNS4_14SignalStrengthE
_ZN7android8hardware5radio4V1_219BpHwRadioIndication21hardwareConfigChangedENS1_4V1_019RadioIndicationTypeERKNS0_8hidl_vecINS4_14HardwareConfigEEE
_ZN7android8hardware5radio4V1_219BpHwRadioIndication21networkScanResult_1_2ENS1_4V1_019RadioIndicationTypeERKNS2_17NetworkScanResultE
_ZN7android8hardware5radio4V1_219BpHwRadioIndication21notifySyspropsChangedEv
_ZN7android8hardware5radio4V1_219BpHwRadioIndication21setHALInstrumentationEv
_ZN7android8hardware5radio4V1_219BpHwRadioIndication21voiceRadioTechChangedENS1_4V1_019RadioIndicationTypeENS4_15RadioTechnologyE
_ZN7android8hardware5radio4V1_219BpHwRadioIndication22_hidl_cellInfoList_1_2EPNS0_10IInterfaceEPNS0_7details16HidlInstrumentorENS1_4V1_019RadioIndicationTypeERKNS0_8hidl_vecINS2_8CellInfoEEE
_ZN7android8hardware5radio4V1_219BpHwRadioIndication22cdmaOtaProvisionStatusENS1_4V1_019RadioIndicationTypeENS4_22CdmaOtaProvisionStatusE
_ZN7android8hardware5radio4V1_219BpHwRadioIndication22cdmaRuimSmsStorageFullENS1_4V1_019RadioIndicationTypeE
_ZN7android8hardware5radio4V1_219BpHwRadioIndication22imsNetworkStateChangedENS1_4V1_019RadioIndicationTypeE
_ZN7android8hardware5radio4V1_219BpHwRadioIndication22restrictedStateChangedENS1_4V1_019RadioIndicationTypeENS4_20PhoneRestrictedStateE
_ZN7android8hardware5radio4V1_219BpHwRadioIndication25currentSignalStrength_1_2ENS1_4V1_019RadioIndicationTypeERKNS2_14SignalStrengthE
_ZN7android8hardware5radio4V1_219BpHwRadioIndication25exitEmergencyCallbackModeENS1_4V1_019RadioIndicationTypeE
_ZN7android8hardware5radio4V1_219BpHwRadioIndication25radioCapabilityIndicationENS1_4V1_019RadioIndicationTypeERKNS4_15RadioCapabilityE
_ZN7android8hardware5radio4V1_219BpHwRadioIndication25stkCallControlAlphaNotifyENS1_4V1_019RadioIndicationTypeERKNS0_11hidl_stringE
_ZN7android8hardware5radio4V1_219BpHwRadioIndication25subscriptionStatusChangedENS1_4V1_019RadioIndicationTypeEb
_ZN7android8hardware5radio4V1_219BpHwRadioIndication26enterEmergencyCallbackModeENS1_4V1_019RadioIndicationTypeE
_ZN7android8hardware5radio4V1_219BpHwRadioIndication27_hidl_networkScanResult_1_2EPNS0_10IInterfaceEPNS0_7details16HidlInstrumentorENS1_4V1_019RadioIndicationTypeERKNS2_17NetworkScanResultE
_ZN7android8hardware5radio4V1_219BpHwRadioIndication27currentLinkCapacityEstimateENS1_4V1_019RadioIndicationTypeERKNS2_20LinkCapacityEstimateE
_ZN7android8hardware5radio4V1_219BpHwRadioIndication28carrierInfoForImsiEncryptionENS1_4V1_019RadioIndicationTypeE
_ZN7android8hardware5radio4V1_219BpHwRadioIndication29cdmaSubscriptionSourceChangedENS1_4V1_019RadioIndicationTypeENS4_22CdmaSubscriptionSourceE
_ZN7android8hardware5radio4V1_219BpHwRadioIndication29currentPhysicalChannelConfigsENS1_4V1_019RadioIndicationTypeERKNS0_8hidl_vecINS2_21PhysicalChannelConfigEEE
_ZN7android8hardware5radio4V1_219BpHwRadioIndication31_hidl_currentSignalStrength_1_2EPNS0_10IInterfaceEPNS0_7details16HidlInstrumentorENS1_4V1_019RadioIndicationTypeERKNS2_14SignalStrengthE
_ZN7android8hardware5radio4V1_219BpHwRadioIndication32onSupplementaryServiceIndicationENS1_4V1_019RadioIndicationTypeERKNS4_18StkCcUnsolSsResultE
_ZN7android8hardware5radio4V1_219BpHwRadioIndication33_hidl_currentLinkCapacityEstimateEPNS0_10IInterfaceEPNS0_7details16HidlInstrumentorENS1_4V1_019RadioIndicationTypeERKNS2_20LinkCapacityEstimateE
_ZN7android8hardware5radio4V1_219BpHwRadioIndication35_hidl_currentPhysicalChannelConfigsEPNS0_10IInterfaceEPNS0_7details16HidlInstrumentorENS1_4V1_019RadioIndicationTypeERKNS0_8hidl_vecINS2_21PhysicalChannelConfigEEE
_ZN7android8hardware5radio4V1_219BpHwRadioIndication4pingEv
_ZN7android8hardware5radio4V1_219BpHwRadioIndication5debugERKNS0_11hidl_handleERKNS0_8hidl_vecINS0_11hidl_stringEEE
_ZN7android8hardware5radio4V1_219BpHwRadioIndication6newSmsENS1_4V1_019RadioIndicationTypeERKNS0_8hidl_vecIhEE
_ZN7android8hardware5radio4V1_219BpHwRadioIndication6onUssdENS1_4V1_019RadioIndicationTypeENS4_12UssdModeTypeERKNS0_11hidl_stringE
_ZN7android8hardware5radio4V1_219BpHwRadioIndication7lceDataENS1_4V1_019RadioIndicationTypeERKNS4_11LceDataInfoE
_ZN7android8hardware5radio4V1_219BpHwRadioIndication7pcoDataENS1_4V1_019RadioIndicationTypeERKNS4_11PcoDataInfoE
_ZN7android8hardware5radio4V1_219BpHwRadioIndication8callRingENS1_4V1_019RadioIndicationTypeEbRKNS4_20CdmaSignalInfoRecordE
_ZN7android8hardware5radio4V1_219BpHwRadioIndicationC1ERKNS_2spINS0_7IBinderEEE
_ZN7android8hardware5radio4V1_219BpHwRadioIndicationC2ERKNS_2spINS0_7IBinderEEE
_ZN7android8hardware5radio4V1_221writeEmbeddedToParcelERKNS2_10CardStatusEPNS0_6ParcelEjj
_ZN7android8hardware5radio4V1_221writeEmbeddedToParcelERKNS2_11CellInfoGsmEPNS0_6ParcelEjj
_ZN7android8hardware5radio4V1_221writeEmbeddedToParcelERKNS2_11CellInfoLteEPNS0_6ParcelEjj
_ZN7android8hardware5radio4V1_221writeEmbeddedToParcelERKNS2_12CellIdentityEPNS0_6ParcelEjj
_ZN7android8hardware5radio4V1_221writeEmbeddedToParcelERKNS2_12CellInfoCdmaEPNS0_6ParcelEjj
_ZN7android8hardware5radio4V1_221writeEmbeddedToParcelERKNS2_13CellInfoWcdmaEPNS0_6ParcelEjj
_ZN7android8hardware5radio4V1_221writeEmbeddedToParcelERKNS2_15CellIdentityGsmEPNS0_6ParcelEjj
_ZN7android8hardware5radio4V1_221writeEmbeddedToParcelERKNS2_15CellIdentityLteEPNS0_6ParcelEjj
_ZN7android8hardware5radio4V1_221writeEmbeddedToParcelERKNS2_15CellInfoTdscdmaEPNS0_6ParcelEjj
_ZN7android8hardware5radio4V1_221writeEmbeddedToParcelERKNS2_16CellIdentityCdmaEPNS0_6ParcelEjj
_ZN7android8hardware5radio4V1_221writeEmbeddedToParcelERKNS2_17CellIdentityWcdmaEPNS0_6ParcelEjj
_ZN7android8hardware5radio4V1_221writeEmbeddedToParcelERKNS2_17NetworkScanResultEPNS0_6ParcelEjj
_ZN7android8hardware5radio4V1_221writeEmbeddedToParcelERKNS2_18DataRegStateResultEPNS0_6ParcelEjj
_ZN7android8hardware5radio4V1_221writeEmbeddedToParcelERKNS2_18NetworkScanRequestEPNS0_6ParcelEjj
_ZN7android8hardware5radio4V1_221writeEmbeddedToParcelERKNS2_19CellIdentityTdscdmaEPNS0_6ParcelEjj
_ZN7android8hardware5radio4V1_221writeEmbeddedToParcelERKNS2_19VoiceRegStateResultEPNS0_6ParcelEjj
_ZN7android8hardware5radio4V1_221writeEmbeddedToParcelERKNS2_25CellIdentityOperatorNamesEPNS0_6ParcelEjj
_ZN7android8hardware5radio4V1_221writeEmbeddedToParcelERKNS2_4CallEPNS0_6ParcelEjj
_ZN7android8hardware5radio4V1_221writeEmbeddedToParcelERKNS2_8CellInfoEPNS0_6ParcelEjj
_ZN7android8hardware5radio4V1_222readEmbeddedFromParcelERKNS2_10CardStatusERKNS0_6ParcelEjj
_ZN7android8hardware5radio4V1_222readEmbeddedFromParcelERKNS2_11CellInfoGsmERKNS0_6ParcelEjj
_ZN7android8hardware5radio4V1_222readEmbeddedFromParcelERKNS2_11CellInfoLteERKNS0_6ParcelEjj
_ZN7android8hardware5radio4V1_222readEmbeddedFromParcelERKNS2_12CellIdentityERKNS0_6ParcelEjj
_ZN7android8hardware5radio4V1_222readEmbeddedFromParcelERKNS2_12CellInfoCdmaERKNS0_6ParcelEjj
_ZN7android8hardware5radio4V1_222readEmbeddedFromParcelERKNS2_13CellInfoWcdmaERKNS0_6ParcelEjj
_ZN7android8hardware5radio4V1_222readEmbeddedFromParcelERKNS2_15CellIdentityGsmERKNS0_6ParcelEjj
_ZN7android8hardware5radio4V1_222readEmbeddedFromParcelERKNS2_15CellIdentityLteERKNS0_6ParcelEjj
_ZN7android8hardware5radio4V1_222readEmbeddedFromParcelERKNS2_15CellInfoTdscdmaERKNS0_6ParcelEjj
_ZN7android8hardware5radio4V1_222readEmbeddedFromParcelERKNS2_16CellIdentityCdmaERKNS0_6ParcelEjj
_ZN7android8hardware5radio4V1_222readEmbeddedFromParcelERKNS2_17CellIdentityWcdmaERKNS0_6ParcelEjj
_ZN7android8hardware5radio4V1_222readEmbeddedFromParcelERKNS2_17NetworkScanResultERKNS0_6ParcelEjj
_ZN7android8hardware5radio4V1_222readEmbeddedFromParcelERKNS2_18DataRegStateResultERKNS0_6ParcelEjj
_ZN7android8hardware5radio4V1_222readEmbeddedFromParcelERKNS2_18NetworkScanRequestERKNS0_6ParcelEjj
_ZN7android8hardware5radio4V1_222readEmbeddedFromParcelERKNS2_19CellIdentityTdscdmaERKNS0_6ParcelEjj
_ZN7android8hardware5radio4V1_222readEmbeddedFromParcelERKNS2_19VoiceRegStateResultERKNS0_6ParcelEjj
_ZN7android8hardware5radio4V1_222readEmbeddedFromParcelERKNS2_25CellIdentityOperatorNamesERKNS0_6ParcelEjj
_ZN7android8hardware5radio4V1_222readEmbeddedFromParcelERKNS2_4CallERKNS0_6ParcelEjj
_ZN7android8hardware5radio4V1_222readEmbeddedFromParcelERKNS2_8CellInfoERKNS0_6ParcelEjj
_ZN7android8hardware5radio4V1_24ISap10descriptorE
_ZN7android8hardware5radio4V1_24ISap10getServiceERKNSt3__112basic_stringIcNS4_11char_traitsIcEENS4_9allocatorIcEEEEb
_ZN7android8hardware5radio4V1_24ISap11linkToDeathERKNS_2spINS0_20hidl_death_recipientEEEy
_ZN7android8hardware5radio4V1_24ISap12getDebugInfoENSt3__18functionIFvRKNS_4hidl4base4V1_09DebugInfoEEEE
_ZN7android8hardware5radio4V1_24ISap12getHashChainENSt3__18functionIFvRKNS0_8hidl_vecINS0_10hidl_arrayIhLj32EJEEEEEEEE
_ZN7android8hardware5radio4V1_24ISap13tryGetServiceERKNSt3__112basic_stringIcNS4_11char_traitsIcEENS4_9allocatorIcEEEEb
_ZN7android8hardware5radio4V1_24ISap13unlinkToDeathERKNS_2spINS0_20hidl_death_recipientEEE
_ZN7android8hardware5radio4V1_24ISap14interfaceChainENSt3__18functionIFvRKNS0_8hidl_vecINS0_11hidl_stringEEEEEE
_ZN7android8hardware5radio4V1_24ISap17registerAsServiceERKNSt3__112basic_stringIcNS4_11char_traitsIcEENS4_9allocatorIcEEEE
_ZN7android8hardware5radio4V1_24ISap19interfaceDescriptorENSt3__18functionIFvRKNS0_11hidl_stringEEEE
_ZN7android8hardware5radio4V1_24ISap21notifySyspropsChangedEv
_ZN7android8hardware5radio4V1_24ISap21setHALInstrumentationEv
_ZN7android8hardware5radio4V1_24ISap24registerForNotificationsERKNSt3__112basic_stringIcNS4_11char_traitsIcEENS4_9allocatorIcEEEERKNS_2spINS_4hidl7manager4V1_020IServiceNotificationEEE
_ZN7android8hardware5radio4V1_24ISap4pingEv
_ZN7android8hardware5radio4V1_24ISap5debugERKNS0_11hidl_handleERKNS0_8hidl_vecINS0_11hidl_stringEEE
_ZN7android8hardware5radio4V1_24ISap8castFromERKNS_2spINS1_4V1_04ISapEEEb
_ZN7android8hardware5radio4V1_24ISap8castFromERKNS_2spINS1_4V1_14ISapEEEb
_ZN7android8hardware5radio4V1_24ISap8castFromERKNS_2spINS_4hidl4base4V1_05IBaseEEEb
_ZN7android8hardware5radio4V1_24ISap8castFromERKNS_2spIS3_EEb
_ZN7android8hardware5radio4V1_25BsSap13addOnewayTaskENSt3__18functionIFvvEEE
_ZN7android8hardware5radio4V1_25BsSapC1ENS_2spINS2_4ISapEEE
_ZN7android8hardware5radio4V1_25BsSapC2ENS_2spINS2_4ISapEEE
_ZN7android8hardware5radio4V1_26IRadio10descriptorE
_ZN7android8hardware5radio4V1_26IRadio10getServiceERKNSt3__112basic_stringIcNS4_11char_traitsIcEENS4_9allocatorIcEEEEb
_ZN7android8hardware5radio4V1_26IRadio11linkToDeathERKNS_2spINS0_20hidl_death_recipientEEEy
_ZN7android8hardware5radio4V1_26IRadio12getDebugInfoENSt3__18functionIFvRKNS_4hidl4base4V1_09DebugInfoEEEE
_ZN7android8hardware5radio4V1_26IRadio12getHashChainENSt3__18functionIFvRKNS0_8hidl_vecINS0_10hidl_arrayIhLj32EJEEEEEEEE
_ZN7android8hardware5radio4V1_26IRadio13tryGetServiceERKNSt3__112basic_stringIcNS4_11char_traitsIcEENS4_9allocatorIcEEEEb
_ZN7android8hardware5radio4V1_26IRadio13unlinkToDeathERKNS_2spINS0_20hidl_death_recipientEEE
_ZN7android8hardware5radio4V1_26IRadio14interfaceChainENSt3__18functionIFvRKNS0_8hidl_vecINS0_11hidl_stringEEEEEE
_ZN7android8hardware5radio4V1_26IRadio17registerAsServiceERKNSt3__112basic_stringIcNS4_11char_traitsIcEENS4_9allocatorIcEEEE
_ZN7android8hardware5radio4V1_26IRadio19interfaceDescriptorENSt3__18functionIFvRKNS0_11hidl_stringEEEE
_ZN7android8hardware5radio4V1_26IRadio21notifySyspropsChangedEv
_ZN7android8hardware5radio4V1_26IRadio21setHALInstrumentationEv
_ZN7android8hardware5radio4V1_26IRadio24registerForNotificationsERKNSt3__112basic_stringIcNS4_11char_traitsIcEENS4_9allocatorIcEEEERKNS_2spINS_4hidl7manager4V1_020IServiceNotificationEEE
_ZN7android8hardware5radio4V1_26IRadio4pingEv
_ZN7android8hardware5radio4V1_26IRadio5debugERKNS0_11hidl_handleERKNS0_8hidl_vecINS0_11hidl_stringEEE
_ZN7android8hardware5radio4V1_26IRadio8castFromERKNS_2spINS1_4V1_06IRadioEEEb
_ZN7android8hardware5radio4V1_26IRadio8castFromERKNS_2spINS1_4V1_16IRadioEEEb
_ZN7android8hardware5radio4V1_26IRadio8castFromERKNS_2spINS_4hidl4base4V1_05IBaseEEEb
_ZN7android8hardware5radio4V1_26IRadio8castFromERKNS_2spIS3_EEb
_ZN7android8hardware5radio4V1_27BnHwSap10onTransactEjRKNS0_6ParcelEPS4_jNSt3__18functionIFvRS4_EEE
_ZN7android8hardware5radio4V1_27BnHwSap12getDebugInfoENSt3__18functionIFvRKNS_4hidl4base4V1_09DebugInfoEEEE
_ZN7android8hardware5radio4V1_27BnHwSap4pingEv
_ZN7android8hardware5radio4V1_27BnHwSapC1ERKNS_2spINS2_4ISapEEE
_ZN7android8hardware5radio4V1_27BnHwSapC2ERKNS_2spINS2_4ISapEEE
_ZN7android8hardware5radio4V1_27BnHwSapD0Ev
_ZN7android8hardware5radio4V1_27BnHwSapD1Ev
_ZN7android8hardware5radio4V1_27BnHwSapD2Ev
_ZN7android8hardware5radio4V1_27BpHwSap10connectReqEii
_ZN7android8hardware5radio4V1_27BpHwSap11linkToDeathERKNS_2spINS0_20hidl_death_recipientEEEy
_ZN7android8hardware5radio4V1_27BpHwSap11resetSimReqEi
_ZN7android8hardware5radio4V1_27BpHwSap11setCallbackERKNS_2spINS1_4V1_012ISapCallbackEEE
_ZN7android8hardware5radio4V1_27BpHwSap12getDebugInfoENSt3__18functionIFvRKNS_4hidl4base4V1_09DebugInfoEEEE
_ZN7android8hardware5radio4V1_27BpHwSap12getHashChainENSt3__18functionIFvRKNS0_8hidl_vecINS0_10hidl_arrayIhLj32EJEEEEEEEE
_ZN7android8hardware5radio4V1_27BpHwSap13disconnectReqEi
_ZN7android8hardware5radio4V1_27BpHwSap13unlinkToDeathERKNS_2spINS0_20hidl_death_recipientEEE
_ZN7android8hardware5radio4V1_27BpHwSap14interfaceChainENSt3__18functionIFvRKNS0_8hidl_vecINS0_11hidl_stringEEEEEE
_ZN7android8hardware5radio4V1_27BpHwSap14transferAtrReqEi
_ZN7android8hardware5radio4V1_27BpHwSap19interfaceDescriptorENSt3__18functionIFvRKNS0_11hidl_stringEEEE
_ZN7android8hardware5radio4V1_27BpHwSap21notifySyspropsChangedEv
_ZN7android8hardware5radio4V1_27BpHwSap21setHALInstrumentationEv
_ZN7android8hardware5radio4V1_27BpHwSap22setTransferProtocolReqEiNS1_4V1_019SapTransferProtocolE
_ZN7android8hardware5radio4V1_27BpHwSap27transferCardReaderStatusReqEi
_ZN7android8hardware5radio4V1_27BpHwSap4pingEv
_ZN7android8hardware5radio4V1_27BpHwSap5debugERKNS0_11hidl_handleERKNS0_8hidl_vecINS0_11hidl_stringEEE
_ZN7android8hardware5radio4V1_27BpHwSap7apduReqEiNS1_4V1_011SapApduTypeERKNS0_8hidl_vecIhEE
_ZN7android8hardware5radio4V1_27BpHwSap8powerReqEib
_ZN7android8hardware5radio4V1_27BpHwSapC1ERKNS_2spINS0_7IBinderEEE
_ZN7android8hardware5radio4V1_27BpHwSapC2ERKNS_2spINS0_7IBinderEEE
_ZN7android8hardware5radio4V1_27BsRadio13addOnewayTaskENSt3__18functionIFvvEEE
_ZN7android8hardware5radio4V1_27BsRadioC1ENS_2spINS2_6IRadioEEE
_ZN7android8hardware5radio4V1_27BsRadioC2ENS_2spINS2_6IRadioEEE
_ZN7android8hardware5radio4V1_29BnHwRadio10onTransactEjRKNS0_6ParcelEPS4_jNSt3__18functionIFvRS4_EEE
_ZN7android8hardware5radio4V1_29BnHwRadio12getDebugInfoENSt3__18functionIFvRKNS_4hidl4base4V1_09DebugInfoEEEE
_ZN7android8hardware5radio4V1_29BnHwRadio23_hidl_setupDataCall_1_2EPNS_4hidl4base4V1_08BnHwBaseERKNS0_6ParcelEPS9_NSt3__18functionIFvRS9_EEE
_ZN7android8hardware5radio4V1_29BnHwRadio26_hidl_startNetworkScan_1_2EPNS_4hidl4base4V1_08BnHwBaseERKNS0_6ParcelEPS9_NSt3__18functionIFvRS9_EEE
_ZN7android8hardware5radio4V1_29BnHwRadio28_hidl_deactivateDataCall_1_2EPNS_4hidl4base4V1_08BnHwBaseERKNS0_6ParcelEPS9_NSt3__18functionIFvRS9_EEE
_ZN7android8hardware5radio4V1_29BnHwRadio29_hidl_setIndicationFilter_1_2EPNS_4hidl4base4V1_08BnHwBaseERKNS0_6ParcelEPS9_NSt3__18functionIFvRS9_EEE
_ZN7android8hardware5radio4V1_29BnHwRadio38_hidl_setLinkCapacityReportingCriteriaEPNS_4hidl4base4V1_08BnHwBaseERKNS0_6ParcelEPS9_NSt3__18functionIFvRS9_EEE
_ZN7android8hardware5radio4V1_29BnHwRadio40_hidl_setSignalStrengthReportingCriteriaEPNS_4hidl4base4V1_08BnHwBaseERKNS0_6ParcelEPS9_NSt3__18functionIFvRS9_EEE
_ZN7android8hardware5radio4V1_29BnHwRadio4pingEv
_ZN7android8hardware5radio4V1_29BnHwRadioC1ERKNS_2spINS2_6IRadioEEE
_ZN7android8hardware5radio4V1_29BnHwRadioC2ERKNS_2spINS2_6IRadioEEE
_ZN7android8hardware5radio4V1_29BnHwRadioD0Ev
_ZN7android8hardware5radio4V1_29BnHwRadioD1Ev
_ZN7android8hardware5radio4V1_29BnHwRadioD2Ev
_ZN7android8hardware5radio4V1_29BpHwRadio10acceptCallEi
_ZN7android8hardware5radio4V1_29BpHwRadio10conferenceEi
_ZN7android8hardware5radio4V1_29BpHwRadio10getTTYModeEi
_ZN7android8hardware5radio4V1_29BpHwRadio10nvReadItemEiNS1_4V1_06NvItemE
_ZN7android8hardware5radio4V1_29BpHwRadio10rejectCallEi
_ZN7android8hardware5radio4V1_29BpHwRadio10sendImsSmsEiRKNS1_4V1_013ImsSmsMessageE
_ZN7android8hardware5radio4V1_29BpHwRadio10setTTYModeEiNS1_4V1_07TtyModeE
_ZN7android8hardware5radio4V1_29BpHwRadio11getOperatorEi
_ZN7android8hardware5radio4V1_29BpHwRadio11iccIOForAppEiRKNS1_4V1_05IccIoE
_ZN7android8hardware5radio4V1_29BpHwRadio11linkToDeathERKNS_2spINS0_20hidl_death_recipientEEEy
_ZN7android8hardware5radio4V1_29BpHwRadio11nvWriteItemEiRKNS1_4V1_011NvWriteItemE
_ZN7android8hardware5radio4V1_29BpHwRadio11pullLceDataEi
_ZN7android8hardware5radio4V1_29BpHwRadio11sendCdmaSmsEiRKNS1_4V1_014CdmaSmsMessageE
_ZN7android8hardware5radio4V1_29BpHwRadio11setBandModeEiNS1_4V1_013RadioBandModeE
_ZN7android8hardware5radio4V1_29BpHwRadio12getDebugInfoENSt3__18functionIFvRKNS_4hidl4base4V1_09DebugInfoEEEE
_ZN7android8hardware5radio4V1_29BpHwRadio12getHashChainENSt3__18functionIFvRKNS0_8hidl_vecINS0_10hidl_arrayIhLj32EJEEEEEEEE
_ZN7android8hardware5radio4V1_29BpHwRadio12sendEnvelopeEiRKNS0_11hidl_stringE
_ZN7android8hardware5radio4V1_29BpHwRadio13getImsiForAppEiRKNS0_11hidl_stringE
_ZN7android8hardware5radio4V1_29BpHwRadio13nvResetConfigEiNS1_4V1_011ResetNvTypeE
_ZN7android8hardware5radio4V1_29BpHwRadio13sendBurstDtmfEiRKNS0_11hidl_stringEii
_ZN7android8hardware5radio4V1_29BpHwRadio13setRadioPowerEib
_ZN7android8hardware5radio4V1_29BpHwRadio13setupDataCallEiNS1_4V1_015RadioTechnologyERKNS4_15DataProfileInfoEbbb
_ZN7android8hardware5radio4V1_29BpHwRadio13stopKeepaliveEii
_ZN7android8hardware5radio4V1_29BpHwRadio13unlinkToDeathERKNS_2spINS0_20hidl_death_recipientEEE
_ZN7android8hardware5radio4V1_29BpHwRadio13writeSmsToSimEiRKNS1_4V1_012SmsWriteArgsE
_ZN7android8hardware5radio4V1_29BpHwRadio14deleteSmsOnSimEii
_ZN7android8hardware5radio4V1_29BpHwRadio14getCallWaitingEii
_ZN7android8hardware5radio4V1_29BpHwRadio14getSmscAddressEi
_ZN7android8hardware5radio4V1_29BpHwRadio14interfaceChainENSt3__18functionIFvRKNS0_8hidl_vecINS0_11hidl_stringEEEEEE
_ZN7android8hardware5radio4V1_29BpHwRadio14nvWriteCdmaPrlEiRKNS0_8hidl_vecIhEE
_ZN7android8hardware5radio4V1_29BpHwRadio14setCallForwardEiRKNS1_4V1_015CallForwardInfoE
_ZN7android8hardware5radio4V1_29BpHwRadio14setCallWaitingEibi
_ZN7android8hardware5radio4V1_29BpHwRadio14setDataAllowedEib
_ZN7android8hardware5radio4V1_29BpHwRadio14setDataProfileEiRKNS0_8hidl_vecINS1_4V1_015DataProfileInfoEEEb
_ZN7android8hardware5radio4V1_29BpHwRadio14setSmscAddressEiRKNS0_11hidl_stringE
_ZN7android8hardware5radio4V1_29BpHwRadio14startKeepaliveEiRKNS1_4V1_116KeepaliveRequestE
_ZN7android8hardware5radio4V1_29BpHwRadio14stopLceServiceEi
_ZN7android8hardware5radio4V1_29BpHwRadio14writeSmsToRuimEiRKNS1_4V1_016CdmaSmsWriteArgsE
_ZN7android8hardware5radio4V1_29BpHwRadio15deleteSmsOnRuimEii
_ZN7android8hardware5radio4V1_29BpHwRadio15getCellInfoListEi
_ZN7android8hardware5radio4V1_29BpHwRadio15getCurrentCallsEi
_ZN7android8hardware5radio4V1_29BpHwRadio15getDataCallListEi
_ZN7android8hardware5radio4V1_29BpHwRadio15requestShutdownEi
_ZN7android8hardware5radio4V1_29BpHwRadio15sendDeviceStateEiNS1_4V1_015DeviceStateTypeEb
_ZN7android8hardware5radio4V1_29BpHwRadio15setSimCardPowerEib
_ZN7android8hardware5radio4V1_29BpHwRadio15startLceServiceEiib
_ZN7android8hardware5radio4V1_29BpHwRadio15stopNetworkScanEi
_ZN7android8hardware5radio4V1_29BpHwRadio16getIccCardStatusEi
_ZN7android8hardware5radio4V1_29BpHwRadio16startNetworkScanEiRKNS1_4V1_118NetworkScanRequestE
_ZN7android8hardware5radio4V1_29BpHwRadio17cancelPendingUssdEi
_ZN7android8hardware5radio4V1_29BpHwRadio17getDeviceIdentityEi
_ZN7android8hardware5radio4V1_29BpHwRadio17getHardwareConfigEi
_ZN7android8hardware5radio4V1_29BpHwRadio17getSignalStrengthEi
_ZN7android8hardware5radio4V1_29BpHwRadio17sendSMSExpectMoreEiRKNS1_4V1_013GsmSmsMessageE
_ZN7android8hardware5radio4V1_29BpHwRadio17setupDataCall_1_2EiNS2_13AccessNetworkERKNS1_4V1_015DataProfileInfoEbbbNS2_17DataRequestReasonERKNS0_8hidl_vecINS0_11hidl_stringEEESE_
_ZN7android8hardware5radio4V1_29BpHwRadio18changeIccPinForAppEiRKNS0_11hidl_stringES6_S6_
_ZN7android8hardware5radio4V1_29BpHwRadio18deactivateDataCallEiib
_ZN7android8hardware5radio4V1_29BpHwRadio18getAllowedCarriersEi
_ZN7android8hardware5radio4V1_29BpHwRadio18getBasebandVersionEi
_ZN7android8hardware5radio4V1_29BpHwRadio18getNeighboringCidsEi
_ZN7android8hardware5radio4V1_29BpHwRadio18getRadioCapabilityEi
_ZN7android8hardware5radio4V1_29BpHwRadio18separateConnectionEii
_ZN7android8hardware5radio4V1_29BpHwRadio18setAllowedCarriersEibRKNS1_4V1_019CarrierRestrictionsE
_ZN7android8hardware5radio4V1_29BpHwRadio18setBarringPasswordEiRKNS0_11hidl_stringES6_S6_
_ZN7android8hardware5radio4V1_29BpHwRadio18setLocationUpdatesEib
_ZN7android8hardware5radio4V1_29BpHwRadio18setRadioCapabilityEiRKNS1_4V1_015RadioCapabilityE
_ZN7android8hardware5radio4V1_29BpHwRadio18supplyIccPinForAppEiRKNS0_11hidl_stringES6_
_ZN7android8hardware5radio4V1_29BpHwRadio18supplyIccPukForAppEiRKNS0_11hidl_stringES6_S6_
_ZN7android8hardware5radio4V1_29BpHwRadio19changeIccPin2ForAppEiRKNS0_11hidl_stringES6_S6_
_ZN7android8hardware5radio4V1_29BpHwRadio19getCDMASubscriptionEi
_ZN7android8hardware5radio4V1_29BpHwRadio19interfaceDescriptorENSt3__18functionIFvRKNS0_11hidl_stringEEEE
_ZN7android8hardware5radio4V1_29BpHwRadio19sendCDMAFeatureCodeEiRKNS0_11hidl_stringE
_ZN7android8hardware5radio4V1_29BpHwRadio19setCellInfoListRateEii
_ZN7android8hardware5radio4V1_29BpHwRadio19setIndicationFilterEii
_ZN7android8hardware5radio4V1_29BpHwRadio19setInitialAttachApnEiRKNS1_4V1_015DataProfileInfoEbb
_ZN7android8hardware5radio4V1_29BpHwRadio19setSimCardPower_1_1EiNS1_4V1_114CardPowerStateE
_ZN7android8hardware5radio4V1_29BpHwRadio19setUiccSubscriptionEiRKNS1_4V1_013SelectUiccSubE
_ZN7android8hardware5radio4V1_29BpHwRadio19supplyIccPin2ForAppEiRKNS0_11hidl_stringES6_
_ZN7android8hardware5radio4V1_29BpHwRadio19supplyIccPuk2ForAppEiRKNS0_11hidl_stringES6_S6_
_ZN7android8hardware5radio4V1_29BpHwRadio20explicitCallTransferEi
_ZN7android8hardware5radio4V1_29BpHwRadio20getAvailableNetworksEi
_ZN7android8hardware5radio4V1_29BpHwRadio20getCallForwardStatusEiRKNS1_4V1_015CallForwardInfoE
_ZN7android8hardware5radio4V1_29BpHwRadio20getLastCallFailCauseEi
_ZN7android8hardware5radio4V1_29BpHwRadio20getModemActivityInfoEi
_ZN7android8hardware5radio4V1_29BpHwRadio20setResponseFunctionsERKNS_2spINS1_4V1_014IRadioResponseEEERKNS4_INS5_16IRadioIndicationEEE
_ZN7android8hardware5radio4V1_29BpHwRadio20startNetworkScan_1_2EiRKNS2_18NetworkScanRequestE
_ZN7android8hardware5radio4V1_29BpHwRadio21getAvailableBandModesEi
_ZN7android8hardware5radio4V1_29BpHwRadio21getFacilityLockForAppEiRKNS0_11hidl_stringES6_iS6_
_ZN7android8hardware5radio4V1_29BpHwRadio21getGsmBroadcastConfigEi
_ZN7android8hardware5radio4V1_29BpHwRadio21iccOpenLogicalChannelEiRKNS0_11hidl_stringEi
_ZN7android8hardware5radio4V1_29BpHwRadio21notifySyspropsChangedEv
_ZN7android8hardware5radio4V1_29BpHwRadio21reportSmsMemoryStatusEib
_ZN7android8hardware5radio4V1_29BpHwRadio21setFacilityLockForAppEiRKNS0_11hidl_stringEbS6_iS6_
_ZN7android8hardware5radio4V1_29BpHwRadio21setGsmBroadcastConfigEiRKNS0_8hidl_vecINS1_4V1_025GsmBroadcastSmsConfigInfoEEE
_ZN7android8hardware5radio4V1_29BpHwRadio21setHALInstrumentationEv
_ZN7android8hardware5radio4V1_29BpHwRadio22deactivateDataCall_1_2EiiNS2_17DataRequestReasonE
_ZN7android8hardware5radio4V1_29BpHwRadio22getCdmaBroadcastConfigEi
_ZN7android8hardware5radio4V1_29BpHwRadio22iccCloseLogicalChannelEii
_ZN7android8hardware5radio4V1_29BpHwRadio22sendEnvelopeWithStatusEiRKNS0_11hidl_stringE
_ZN7android8hardware5radio4V1_29BpHwRadio22setCdmaBroadcastConfigEiRKNS0_8hidl_vecINS1_4V1_026CdmaBroadcastSmsConfigInfoEEE
_ZN7android8hardware5radio4V1_29BpHwRadio23_hidl_setupDataCall_1_2EPNS0_10IInterfaceEPNS0_7details16HidlInstrumentorEiNS2_13AccessNetworkERKNS1_4V1_015DataProfileInfoEbbbNS2_17DataRequestReasonERKNS0_8hidl_vecINS0_11hidl_stringEEESJ_
_ZN7android8hardware5radio4V1_29BpHwRadio23getImsRegistrationStateEi
_ZN7android8hardware5radio4V1_29BpHwRadio23getNetworkSelectionModeEi
_ZN7android8hardware5radio4V1_29BpHwRadio23getPreferredNetworkTypeEi
_ZN7android8hardware5radio4V1_29BpHwRadio23getVoiceRadioTechnologyEi
_ZN7android8hardware5radio4V1_29BpHwRadio23responseAcknowledgementEv
_ZN7android8hardware5radio4V1_29BpHwRadio23setIndicationFilter_1_2Eii
_ZN7android8hardware5radio4V1_29BpHwRadio23setPreferredNetworkTypeEiNS1_4V1_020PreferredNetworkTypeE
_ZN7android8hardware5radio4V1_29BpHwRadio24getCdmaRoamingPreferenceEi
_ZN7android8hardware5radio4V1_29BpHwRadio24getDataRegistrationStateEi
_ZN7android8hardware5radio4V1_29BpHwRadio24getPreferredVoicePrivacyEi
_ZN7android8hardware5radio4V1_29BpHwRadio24setCdmaRoamingPreferenceEiNS1_4V1_015CdmaRoamingTypeE
_ZN7android8hardware5radio4V1_29BpHwRadio24setPreferredVoicePrivacyEib
_ZN7android8hardware5radio4V1_29BpHwRadio25exitEmergencyCallbackModeEi
_ZN7android8hardware5radio4V1_29BpHwRadio25getCdmaSubscriptionSourceEi
_ZN7android8hardware5radio4V1_29BpHwRadio25getVoiceRegistrationStateEi
_ZN7android8hardware5radio4V1_29BpHwRadio25hangupWaitingOrBackgroundEi
_ZN7android8hardware5radio4V1_29BpHwRadio25reportStkServiceIsRunningEi
_ZN7android8hardware5radio4V1_29BpHwRadio25requestIsimAuthenticationEiRKNS0_11hidl_stringE
_ZN7android8hardware5radio4V1_29BpHwRadio25sendTerminalResponseToSimEiRKNS0_11hidl_stringE
_ZN7android8hardware5radio4V1_29BpHwRadio25setCdmaSubscriptionSourceEiNS1_4V1_022CdmaSubscriptionSourceE
_ZN7android8hardware5radio4V1_29BpHwRadio25setGsmBroadcastActivationEib
_ZN7android8hardware5radio4V1_29BpHwRadio26_hidl_startNetworkScan_1_2EPNS0_10IInterfaceEPNS0_7details16HidlInstrumentorEiRKNS2_18NetworkScanRequestE
_ZN7android8hardware5radio4V1_29BpHwRadio26setCdmaBroadcastActivationEib
_ZN7android8hardware5radio4V1_29BpHwRadio27iccTransmitApduBasicChannelEiRKNS1_4V1_07SimApduE
_ZN7android8hardware5radio4V1_29BpHwRadio27requestIccSimAuthenticationEiiRKNS0_11hidl_stringES6_
_ZN7android8hardware5radio4V1_29BpHwRadio27setSuppServiceNotificationsEib
_ZN7android8hardware5radio4V1_29BpHwRadio28_hidl_deactivateDataCall_1_2EPNS0_10IInterfaceEPNS0_7details16HidlInstrumentorEiiNS2_17DataRequestReasonE
_ZN7android8hardware5radio4V1_29BpHwRadio29_hidl_setIndicationFilter_1_2EPNS0_10IInterfaceEPNS0_7details16HidlInstrumentorEii
_ZN7android8hardware5radio4V1_29BpHwRadio29acknowledgeLastIncomingGsmSmsEibNS1_4V1_023SmsAcknowledgeFailCauseE
_ZN7android8hardware5radio4V1_29BpHwRadio29iccTransmitApduLogicalChannelEiRKNS1_4V1_07SimApduE
_ZN7android8hardware5radio4V1_29BpHwRadio29setNetworkSelectionModeManualEiRKNS0_11hidl_stringE
_ZN7android8hardware5radio4V1_29BpHwRadio30acknowledgeLastIncomingCdmaSmsEiRKNS1_4V1_010CdmaSmsAckE
_ZN7android8hardware5radio4V1_29BpHwRadio30supplyNetworkDepersonalizationEiRKNS0_11hidl_stringE
_ZN7android8hardware5radio4V1_29BpHwRadio31setCarrierInfoForImsiEncryptionEiRKNS1_4V1_118ImsiEncryptionInfoE
_ZN7android8hardware5radio4V1_29BpHwRadio31switchWaitingOrHoldingAndActiveEi
_ZN7android8hardware5radio4V1_29BpHwRadio32acknowledgeIncomingGsmSmsWithPduEibRKNS0_11hidl_stringE
_ZN7android8hardware5radio4V1_29BpHwRadio32handleStkCallSetupRequestFromSimEib
_ZN7android8hardware5radio4V1_29BpHwRadio32hangupForegroundResumeBackgroundEi
_ZN7android8hardware5radio4V1_29BpHwRadio32setLinkCapacityReportingCriteriaEiiiiRKNS0_8hidl_vecIiEES7_NS2_13AccessNetworkE
_ZN7android8hardware5radio4V1_29BpHwRadio32setNetworkSelectionModeAutomaticEi
_ZN7android8hardware5radio4V1_29BpHwRadio34setSignalStrengthReportingCriteriaEiiiRKNS0_8hidl_vecIiEENS2_13AccessNetworkE
_ZN7android8hardware5radio4V1_29BpHwRadio38_hidl_setLinkCapacityReportingCriteriaEPNS0_10IInterfaceEPNS0_7details16HidlInstrumentorEiiiiRKNS0_8hidl_vecIiEESC_NS2_13AccessNetworkE
_ZN7android8hardware5radio4V1_29BpHwRadio40_hidl_setSignalStrengthReportingCriteriaEPNS0_10IInterfaceEPNS0_7details16HidlInstrumentorEiiiRKNS0_8hidl_vecIiEENS2_13AccessNetworkE
_ZN7android8hardware5radio4V1_29BpHwRadio4dialEiRKNS1_4V1_04DialE
_ZN7android8hardware5radio4V1_29BpHwRadio4pingEv
_ZN7android8hardware5radio4V1_29BpHwRadio5debugERKNS0_11hidl_handleERKNS0_8hidl_vecINS0_11hidl_stringEEE
_ZN7android8hardware5radio4V1_29BpHwRadio6hangupEii
_ZN7android8hardware5radio4V1_29BpHwRadio7getClipEi
_ZN7android8hardware5radio4V1_29BpHwRadio7getClirEi
_ZN7android8hardware5radio4V1_29BpHwRadio7getMuteEi
_ZN7android8hardware5radio4V1_29BpHwRadio7sendSmsEiRKNS1_4V1_013GsmSmsMessageE
_ZN7android8hardware5radio4V1_29BpHwRadio7setClirEii
_ZN7android8hardware5radio4V1_29BpHwRadio7setMuteEib
_ZN7android8hardware5radio4V1_29BpHwRadio8sendDtmfEiRKNS0_11hidl_stringE
_ZN7android8hardware5radio4V1_29BpHwRadio8sendUssdEiRKNS0_11hidl_stringE
_ZN7android8hardware5radio4V1_29BpHwRadio8stopDtmfEi
_ZN7android8hardware5radio4V1_29BpHwRadio9startDtmfEiRKNS0_11hidl_stringE
_ZN7android8hardware5radio4V1_29BpHwRadioC1ERKNS_2spINS0_7IBinderEEE
_ZN7android8hardware5radio4V1_29BpHwRadioC2ERKNS_2spINS0_7IBinderEEE
_ZTCN7android8hardware5radio4V1_214IRadioResponseE0_NS1_4V1_014IRadioResponseE
_ZTCN7android8hardware5radio4V1_214IRadioResponseE0_NS1_4V1_114IRadioResponseE
_ZTCN7android8hardware5radio4V1_214IRadioResponseE0_NS_4hidl4base4V1_05IBaseE
_ZTCN7android8hardware5radio4V1_216IRadioIndicationE0_NS1_4V1_016IRadioIndicationE
_ZTCN7android8hardware5radio4V1_216IRadioIndicationE0_NS1_4V1_116IRadioIndicationE
_ZTCN7android8hardware5radio4V1_216IRadioIndicationE0_NS_4hidl4base4V1_05IBaseE
_ZTCN7android8hardware5radio4V1_217BnHwRadioResponseE0_NS0_7IBinderE
_ZTCN7android8hardware5radio4V1_217BnHwRadioResponseE0_NS0_9BHwBinderE
_ZTCN7android8hardware5radio4V1_217BnHwRadioResponseE0_NS_4hidl4base4V1_08BnHwBaseE
_ZTCN7android8hardware5radio4V1_217BpHwRadioResponseE0_NS0_11BpInterfaceINS2_14IRadioResponseEEE
_ZTCN7android8hardware5radio4V1_217BpHwRadioResponseE0_NS1_4V1_014IRadioResponseE
_ZTCN7android8hardware5radio4V1_217BpHwRadioResponseE0_NS1_4V1_114IRadioResponseE
_ZTCN7android8hardware5radio4V1_217BpHwRadioResponseE0_NS2_14IRadioResponseE
_ZTCN7android8hardware5radio4V1_217BpHwRadioResponseE0_NS_4hidl4base4V1_05IBaseE
_ZTCN7android8hardware5radio4V1_217BpHwRadioResponseE4_NS0_10IInterfaceE
_ZTCN7android8hardware5radio4V1_217BpHwRadioResponseE8_NS0_11BpHwRefBaseE
_ZTCN7android8hardware5radio4V1_219BnHwRadioIndicationE0_NS0_7IBinderE
_ZTCN7android8hardware5radio4V1_219BnHwRadioIndicationE0_NS0_9BHwBinderE
_ZTCN7android8hardware5radio4V1_219BnHwRadioIndicationE0_NS_4hidl4base4V1_08BnHwBaseE
_ZTCN7android8hardware5radio4V1_219BpHwRadioIndicationE0_NS0_11BpInterfaceINS2_16IRadioIndicationEEE
_ZTCN7android8hardware5radio4V1_219BpHwRadioIndicationE0_NS1_4V1_016IRadioIndicationE
_ZTCN7android8hardware5radio4V1_219BpHwRadioIndicationE0_NS1_4V1_116IRadioIndicationE
_ZTCN7android8hardware5radio4V1_219BpHwRadioIndicationE0_NS2_16IRadioIndicationE
_ZTCN7android8hardware5radio4V1_219BpHwRadioIndicationE0_NS_4hidl4base4V1_05IBaseE
_ZTCN7android8hardware5radio4V1_219BpHwRadioIndicationE4_NS0_10IInterfaceE
_ZTCN7android8hardware5radio4V1_219BpHwRadioIndicationE8_NS0_11BpHwRefBaseE
_ZTCN7android8hardware5radio4V1_24ISapE0_NS1_4V1_04ISapE
_ZTCN7android8hardware5radio4V1_24ISapE0_NS1_4V1_14ISapE
_ZTCN7android8hardware5radio4V1_24ISapE0_NS_4hidl4base4V1_05IBaseE
_ZTCN7android8hardware5radio4V1_26IRadioE0_NS1_4V1_06IRadioE
_ZTCN7android8hardware5radio4V1_26IRadioE0_NS1_4V1_16IRadioE
_ZTCN7android8hardware5radio4V1_26IRadioE0_NS_4hidl4base4V1_05IBaseE
_ZTCN7android8hardware5radio4V1_27BnHwSapE0_NS0_7IBinderE
_ZTCN7android8hardware5radio4V1_27BnHwSapE0_NS0_9BHwBinderE
_ZTCN7android8hardware5radio4V1_27BnHwSapE0_NS_4hidl4base4V1_08BnHwBaseE
_ZTCN7android8hardware5radio4V1_27BpHwSapE0_NS0_11BpInterfaceINS2_4ISapEEE
_ZTCN7android8hardware5radio4V1_27BpHwSapE0_NS1_4V1_04ISapE
_ZTCN7android8hardware5radio4V1_27BpHwSapE0_NS1_4V1_14ISapE
_ZTCN7android8hardware5radio4V1_27BpHwSapE0_NS2_4ISapE
_ZTCN7android8hardware5radio4V1_27BpHwSapE0_NS_4hidl4base4V1_05IBaseE
_ZTCN7android8hardware5radio4V1_27BpHwSapE4_NS0_10IInterfaceE
_ZTCN7android8hardware5radio4V1_27BpHwSapE8_NS0_11BpHwRefBaseE
_ZTCN7android8hardware5radio4V1_29BnHwRadioE0_NS0_7IBinderE
_ZTCN7android8hardware5radio4V1_29BnHwRadioE0_NS0_9BHwBinderE
_ZTCN7android8hardware5radio4V1_29BnHwRadioE0_NS_4hidl4base4V1_08BnHwBaseE
_ZTCN7android8hardware5radio4V1_29BpHwRadioE0_NS0_11BpInterfaceINS2_6IRadioEEE
_ZTCN7android8hardware5radio4V1_29BpHwRadioE0_NS1_4V1_06IRadioE
_ZTCN7android8hardware5radio4V1_29BpHwRadioE0_NS1_4V1_16IRadioE
_ZTCN7android8hardware5radio4V1_29BpHwRadioE0_NS2_6IRadioE
_ZTCN7android8hardware5radio4V1_29BpHwRadioE0_NS_4hidl4base4V1_05IBaseE
_ZTCN7android8hardware5radio4V1_29BpHwRadioE4_NS0_10IInterfaceE
_ZTCN7android8hardware5radio4V1_29BpHwRadioE8_NS0_11BpHwRefBaseE
_ZTTN7android8hardware5radio4V1_214IRadioResponseE
_ZTTN7android8hardware5radio4V1_216IRadioIndicationE
_ZTTN7android8hardware5radio4V1_217BnHwRadioResponseE
_ZTTN7android8hardware5radio4V1_217BpHwRadioResponseE
_ZTTN7android8hardware5radio4V1_219BnHwRadioIndicationE
_ZTTN7android8hardware5radio4V1_219BpHwRadioIndicationE
_ZTTN7android8hardware5radio4V1_24ISapE
_ZTTN7android8hardware5radio4V1_26IRadioE
_ZTTN7android8hardware5radio4V1_27BnHwSapE
_ZTTN7android8hardware5radio4V1_27BpHwSapE
_ZTTN7android8hardware5radio4V1_29BnHwRadioE
_ZTTN7android8hardware5radio4V1_29BpHwRadioE
_ZTVN7android8hardware5radio4V1_214IRadioResponseE
_ZTVN7android8hardware5radio4V1_216IRadioIndicationE
_ZTVN7android8hardware5radio4V1_217BnHwRadioResponseE
_ZTVN7android8hardware5radio4V1_217BpHwRadioResponseE
_ZTVN7android8hardware5radio4V1_219BnHwRadioIndicationE
_ZTVN7android8hardware5radio4V1_219BpHwRadioIndicationE
_ZTVN7android8hardware5radio4V1_24ISapE
_ZTVN7android8hardware5radio4V1_26IRadioE
_ZTVN7android8hardware5radio4V1_27BnHwSapE
_ZTVN7android8hardware5radio4V1_27BpHwSapE
_ZTVN7android8hardware5radio4V1_29BnHwRadioE
_ZTVN7android8hardware5radio4V1_29BpHwRadioE
_ZThn20_N7android8hardware5radio4V1_217BnHwRadioResponseD0Ev
_ZThn20_N7android8hardware5radio4V1_217BnHwRadioResponseD1Ev
_ZThn20_N7android8hardware5radio4V1_219BnHwRadioIndicationD0Ev
_ZThn20_N7android8hardware5radio4V1_219BnHwRadioIndicationD1Ev
_ZThn20_N7android8hardware5radio4V1_27BnHwSapD0Ev
_ZThn20_N7android8hardware5radio4V1_27BnHwSapD1Ev
_ZThn20_N7android8hardware5radio4V1_29BnHwRadioD0Ev
_ZThn20_N7android8hardware5radio4V1_29BnHwRadioD1Ev
_ZTv0_n12_N7android8hardware5radio4V1_217BnHwRadioResponseD0Ev
_ZTv0_n12_N7android8hardware5radio4V1_217BnHwRadioResponseD1Ev
_ZTv0_n12_N7android8hardware5radio4V1_219BnHwRadioIndicationD0Ev
_ZTv0_n12_N7android8hardware5radio4V1_219BnHwRadioIndicationD1Ev
_ZTv0_n12_N7android8hardware5radio4V1_27BnHwSapD0Ev
_ZTv0_n12_N7android8hardware5radio4V1_27BnHwSapD1Ev
_ZTv0_n12_N7android8hardware5radio4V1_29BnHwRadioD0Ev
_ZTv0_n12_N7android8hardware5radio4V1_29BnHwRadioD1Ev
