_ZN7android8hardware11configstore4V1_021writeEmbeddedToParcelERKNS2_14OptionalStringEPNS0_6ParcelEjj
_ZN7android8hardware11configstore4V1_022ISurfaceFlingerConfigs10descriptorE
_ZN7android8hardware11configstore4V1_022ISurfaceFlingerConfigs10getServiceERKNSt3__112basic_stringIcNS4_11char_traitsIcEENS4_9allocatorIcEEEEb
_ZN7android8hardware11configstore4V1_022ISurfaceFlingerConfigs11linkToDeathERKNS_2spINS0_20hidl_death_recipientEEEy
_ZN7android8hardware11configstore4V1_022ISurfaceFlingerConfigs12getDebugInfoENSt3__18functionIFvRKNS_4hidl4base4V1_09DebugInfoEEEE
_ZN7android8hardware11configstore4V1_022ISurfaceFlingerConfigs12getHashChainENSt3__18functionIFvRKNS0_8hidl_vecINS0_10hidl_arrayIhLj32EJEEEEEEEE
_ZN7android8hardware11configstore4V1_022ISurfaceFlingerConfigs13tryGetServiceERKNSt3__112basic_stringIcNS4_11char_traitsIcEENS4_9allocatorIcEEEEb
_ZN7android8hardware11configstore4V1_022ISurfaceFlingerConfigs13unlinkToDeathERKNS_2spINS0_20hidl_death_recipientEEE
_ZN7android8hardware11configstore4V1_022ISurfaceFlingerConfigs14interfaceChainENSt3__18functionIFvRKNS0_8hidl_vecINS0_11hidl_stringEEEEEE
_ZN7android8hardware11configstore4V1_022ISurfaceFlingerConfigs17registerAsServiceERKNSt3__112basic_stringIcNS4_11char_traitsIcEENS4_9allocatorIcEEEE
_ZN7android8hardware11configstore4V1_022ISurfaceFlingerConfigs19interfaceDescriptorENSt3__18functionIFvRKNS0_11hidl_stringEEEE
_ZN7android8hardware11configstore4V1_022ISurfaceFlingerConfigs21notifySyspropsChangedEv
_ZN7android8hardware11configstore4V1_022ISurfaceFlingerConfigs21setHALInstrumentationEv
_ZN7android8hardware11configstore4V1_022ISurfaceFlingerConfigs24registerForNotificationsERKNSt3__112basic_stringIcNS4_11char_traitsIcEENS4_9allocatorIcEEEERKNS_2spINS_4hidl7manager4V1_020IServiceNotificationEEE
_ZN7android8hardware11configstore4V1_022ISurfaceFlingerConfigs4pingEv
_ZN7android8hardware11configstore4V1_022ISurfaceFlingerConfigs5debugERKNS0_11hidl_handleERKNS0_8hidl_vecINS0_11hidl_stringEEE
_ZN7android8hardware11configstore4V1_022ISurfaceFlingerConfigs8castFromERKNS_2spINS_4hidl4base4V1_05IBaseEEEb
_ZN7android8hardware11configstore4V1_022ISurfaceFlingerConfigs8castFromERKNS_2spIS3_EEb
_ZN7android8hardware11configstore4V1_022readEmbeddedFromParcelERKNS2_14OptionalStringERKNS0_6ParcelEjj
_ZN7android8hardware11configstore4V1_023BsSurfaceFlingerConfigs13addOnewayTaskENSt3__18functionIFvvEEE
_ZN7android8hardware11configstore4V1_023BsSurfaceFlingerConfigsC1ENS_2spINS2_22ISurfaceFlingerConfigsEEE
_ZN7android8hardware11configstore4V1_023BsSurfaceFlingerConfigsC2ENS_2spINS2_22ISurfaceFlingerConfigsEEE
_ZN7android8hardware11configstore4V1_025BnHwSurfaceFlingerConfigs10onTransactEjRKNS0_6ParcelEPS4_jNSt3__18functionIFvRS4_EEE
_ZN7android8hardware11configstore4V1_025BnHwSurfaceFlingerConfigs12getDebugInfoENSt3__18functionIFvRKNS_4hidl4base4V1_09DebugInfoEEEE
_ZN7android8hardware11configstore4V1_025BnHwSurfaceFlingerConfigs18_hidl_useVrFlingerEPNS_4hidl4base4V1_08BnHwBaseERKNS0_6ParcelEPS9_NSt3__18functionIFvRS9_EEE
_ZN7android8hardware11configstore4V1_025BnHwSurfaceFlingerConfigs19_hidl_hasHDRDisplayEPNS_4hidl4base4V1_08BnHwBaseERKNS0_6ParcelEPS9_NSt3__18functionIFvRS9_EEE
_ZN7android8hardware11configstore4V1_025BnHwSurfaceFlingerConfigs22_hidl_hasSyncFrameworkEPNS_4hidl4base4V1_08BnHwBaseERKNS0_6ParcelEPS9_NSt3__18functionIFvRS9_EEE
_ZN7android8hardware11configstore4V1_025BnHwSurfaceFlingerConfigs23_hidl_useHwcForRGBtoYUVEPNS_4hidl4base4V1_08BnHwBaseERKNS0_6ParcelEPS9_NSt3__18functionIFvRS9_EEE
_ZN7android8hardware11configstore4V1_025BnHwSurfaceFlingerConfigs24_hidl_useContextPriorityEPNS_4hidl4base4V1_08BnHwBaseERKNS0_6ParcelEPS9_NSt3__18functionIFvRS9_EEE
_ZN7android8hardware11configstore4V1_025BnHwSurfaceFlingerConfigs25_hidl_hasWideColorDisplayEPNS_4hidl4base4V1_08BnHwBaseERKNS0_6ParcelEPS9_NSt3__18functionIFvRS9_EEE
_ZN7android8hardware11configstore4V1_025BnHwSurfaceFlingerConfigs27_hidl_maxVirtualDisplaySizeEPNS_4hidl4base4V1_08BnHwBaseERKNS0_6ParcelEPS9_NSt3__18functionIFvRS9_EEE
_ZN7android8hardware11configstore4V1_025BnHwSurfaceFlingerConfigs29_hidl_vsyncEventPhaseOffsetNsEPNS_4hidl4base4V1_08BnHwBaseERKNS0_6ParcelEPS9_NSt3__18functionIFvRS9_EEE
_ZN7android8hardware11configstore4V1_025BnHwSurfaceFlingerConfigs31_hidl_vsyncSfEventPhaseOffsetNsEPNS_4hidl4base4V1_08BnHwBaseERKNS0_6ParcelEPS9_NSt3__18functionIFvRS9_EEE
_ZN7android8hardware11configstore4V1_025BnHwSurfaceFlingerConfigs34_hidl_presentTimeOffsetFromVSyncNsEPNS_4hidl4base4V1_08BnHwBaseERKNS0_6ParcelEPS9_NSt3__18functionIFvRS9_EEE
_ZN7android8hardware11configstore4V1_025BnHwSurfaceFlingerConfigs35_hidl_maxFrameBufferAcquiredBuffersEPNS_4hidl4base4V1_08BnHwBaseERKNS0_6ParcelEPS9_NSt3__18functionIFvRS9_EEE
_ZN7android8hardware11configstore4V1_025BnHwSurfaceFlingerConfigs35_hidl_startGraphicsAllocatorServiceEPNS_4hidl4base4V1_08BnHwBaseERKNS0_6ParcelEPS9_NSt3__18functionIFvRS9_EEE
_ZN7android8hardware11configstore4V1_025BnHwSurfaceFlingerConfigs4pingEv
_ZN7android8hardware11configstore4V1_025BnHwSurfaceFlingerConfigsC1ERKNS_2spINS2_22ISurfaceFlingerConfigsEEE
_ZN7android8hardware11configstore4V1_025BnHwSurfaceFlingerConfigsC2ERKNS_2spINS2_22ISurfaceFlingerConfigsEEE
_ZN7android8hardware11configstore4V1_025BnHwSurfaceFlingerConfigsD0Ev
_ZN7android8hardware11configstore4V1_025BnHwSurfaceFlingerConfigsD1Ev
_ZN7android8hardware11configstore4V1_025BnHwSurfaceFlingerConfigsD2Ev
_ZN7android8hardware11configstore4V1_025BpHwSurfaceFlingerConfigs11linkToDeathERKNS_2spINS0_20hidl_death_recipientEEEy
_ZN7android8hardware11configstore4V1_025BpHwSurfaceFlingerConfigs12getDebugInfoENSt3__18functionIFvRKNS_4hidl4base4V1_09DebugInfoEEEE
_ZN7android8hardware11configstore4V1_025BpHwSurfaceFlingerConfigs12getHashChainENSt3__18functionIFvRKNS0_8hidl_vecINS0_10hidl_arrayIhLj32EJEEEEEEEE
_ZN7android8hardware11configstore4V1_025BpHwSurfaceFlingerConfigs12useVrFlingerENSt3__18functionIFvRKNS2_12OptionalBoolEEEE
_ZN7android8hardware11configstore4V1_025BpHwSurfaceFlingerConfigs13hasHDRDisplayENSt3__18functionIFvRKNS2_12OptionalBoolEEEE
_ZN7android8hardware11configstore4V1_025BpHwSurfaceFlingerConfigs13unlinkToDeathERKNS_2spINS0_20hidl_death_recipientEEE
_ZN7android8hardware11configstore4V1_025BpHwSurfaceFlingerConfigs14interfaceChainENSt3__18functionIFvRKNS0_8hidl_vecINS0_11hidl_stringEEEEEE
_ZN7android8hardware11configstore4V1_025BpHwSurfaceFlingerConfigs16hasSyncFrameworkENSt3__18functionIFvRKNS2_12OptionalBoolEEEE
_ZN7android8hardware11configstore4V1_025BpHwSurfaceFlingerConfigs17useHwcForRGBtoYUVENSt3__18functionIFvRKNS2_12OptionalBoolEEEE
_ZN7android8hardware11configstore4V1_025BpHwSurfaceFlingerConfigs18_hidl_useVrFlingerEPNS0_10IInterfaceEPNS0_7details16HidlInstrumentorENSt3__18functionIFvRKNS2_12OptionalBoolEEEE
_ZN7android8hardware11configstore4V1_025BpHwSurfaceFlingerConfigs18useContextPriorityENSt3__18functionIFvRKNS2_12OptionalBoolEEEE
_ZN7android8hardware11configstore4V1_025BpHwSurfaceFlingerConfigs19_hidl_hasHDRDisplayEPNS0_10IInterfaceEPNS0_7details16HidlInstrumentorENSt3__18functionIFvRKNS2_12OptionalBoolEEEE
_ZN7android8hardware11configstore4V1_025BpHwSurfaceFlingerConfigs19hasWideColorDisplayENSt3__18functionIFvRKNS2_12OptionalBoolEEEE
_ZN7android8hardware11configstore4V1_025BpHwSurfaceFlingerConfigs19interfaceDescriptorENSt3__18functionIFvRKNS0_11hidl_stringEEEE
_ZN7android8hardware11configstore4V1_025BpHwSurfaceFlingerConfigs21maxVirtualDisplaySizeENSt3__18functionIFvRKNS2_14OptionalUInt64EEEE
_ZN7android8hardware11configstore4V1_025BpHwSurfaceFlingerConfigs21notifySyspropsChangedEv
_ZN7android8hardware11configstore4V1_025BpHwSurfaceFlingerConfigs21setHALInstrumentationEv
_ZN7android8hardware11configstore4V1_025BpHwSurfaceFlingerConfigs22_hidl_hasSyncFrameworkEPNS0_10IInterfaceEPNS0_7details16HidlInstrumentorENSt3__18functionIFvRKNS2_12OptionalBoolEEEE
_ZN7android8hardware11configstore4V1_025BpHwSurfaceFlingerConfigs23_hidl_useHwcForRGBtoYUVEPNS0_10IInterfaceEPNS0_7details16HidlInstrumentorENSt3__18functionIFvRKNS2_12OptionalBoolEEEE
_ZN7android8hardware11configstore4V1_025BpHwSurfaceFlingerConfigs23vsyncEventPhaseOffsetNsENSt3__18functionIFvRKNS2_13OptionalInt64EEEE
_ZN7android8hardware11configstore4V1_025BpHwSurfaceFlingerConfigs24_hidl_useContextPriorityEPNS0_10IInterfaceEPNS0_7details16HidlInstrumentorENSt3__18functionIFvRKNS2_12OptionalBoolEEEE
_ZN7android8hardware11configstore4V1_025BpHwSurfaceFlingerConfigs25_hidl_hasWideColorDisplayEPNS0_10IInterfaceEPNS0_7details16HidlInstrumentorENSt3__18functionIFvRKNS2_12OptionalBoolEEEE
_ZN7android8hardware11configstore4V1_025BpHwSurfaceFlingerConfigs25vsyncSfEventPhaseOffsetNsENSt3__18functionIFvRKNS2_13OptionalInt64EEEE
_ZN7android8hardware11configstore4V1_025BpHwSurfaceFlingerConfigs27_hidl_maxVirtualDisplaySizeEPNS0_10IInterfaceEPNS0_7details16HidlInstrumentorENSt3__18functionIFvRKNS2_14OptionalUInt64EEEE
_ZN7android8hardware11configstore4V1_025BpHwSurfaceFlingerConfigs28presentTimeOffsetFromVSyncNsENSt3__18functionIFvRKNS2_13OptionalInt64EEEE
_ZN7android8hardware11configstore4V1_025BpHwSurfaceFlingerConfigs29_hidl_vsyncEventPhaseOffsetNsEPNS0_10IInterfaceEPNS0_7details16HidlInstrumentorENSt3__18functionIFvRKNS2_13OptionalInt64EEEE
_ZN7android8hardware11configstore4V1_025BpHwSurfaceFlingerConfigs29maxFrameBufferAcquiredBuffersENSt3__18functionIFvRKNS2_13OptionalInt64EEEE
_ZN7android8hardware11configstore4V1_025BpHwSurfaceFlingerConfigs29startGraphicsAllocatorServiceENSt3__18functionIFvRKNS2_12OptionalBoolEEEE
_ZN7android8hardware11configstore4V1_025BpHwSurfaceFlingerConfigs31_hidl_vsyncSfEventPhaseOffsetNsEPNS0_10IInterfaceEPNS0_7details16HidlInstrumentorENSt3__18functionIFvRKNS2_13OptionalInt64EEEE
_ZN7android8hardware11configstore4V1_025BpHwSurfaceFlingerConfigs34_hidl_presentTimeOffsetFromVSyncNsEPNS0_10IInterfaceEPNS0_7details16HidlInstrumentorENSt3__18functionIFvRKNS2_13OptionalInt64EEEE
_ZN7android8hardware11configstore4V1_025BpHwSurfaceFlingerConfigs35_hidl_maxFrameBufferAcquiredBuffersEPNS0_10IInterfaceEPNS0_7details16HidlInstrumentorENSt3__18functionIFvRKNS2_13OptionalInt64EEEE
_ZN7android8hardware11configstore4V1_025BpHwSurfaceFlingerConfigs35_hidl_startGraphicsAllocatorServiceEPNS0_10IInterfaceEPNS0_7details16HidlInstrumentorENSt3__18functionIFvRKNS2_12OptionalBoolEEEE
_ZN7android8hardware11configstore4V1_025BpHwSurfaceFlingerConfigs4pingEv
_ZN7android8hardware11configstore4V1_025BpHwSurfaceFlingerConfigs5debugERKNS0_11hidl_handleERKNS0_8hidl_vecINS0_11hidl_stringEEE
_ZN7android8hardware11configstore4V1_025BpHwSurfaceFlingerConfigsC1ERKNS_2spINS0_7IBinderEEE
_ZN7android8hardware11configstore4V1_025BpHwSurfaceFlingerConfigsC2ERKNS_2spINS0_7IBinderEEE
_ZTCN7android8hardware11configstore4V1_022ISurfaceFlingerConfigsE0_NS_4hidl4base4V1_05IBaseE
_ZTCN7android8hardware11configstore4V1_025BnHwSurfaceFlingerConfigsE0_NS0_7IBinderE
_ZTCN7android8hardware11configstore4V1_025BnHwSurfaceFlingerConfigsE0_NS0_9BHwBinderE
_ZTCN7android8hardware11configstore4V1_025BnHwSurfaceFlingerConfigsE0_NS_4hidl4base4V1_08BnHwBaseE
_ZTCN7android8hardware11configstore4V1_025BpHwSurfaceFlingerConfigsE0_NS0_11BpInterfaceINS2_22ISurfaceFlingerConfigsEEE
_ZTCN7android8hardware11configstore4V1_025BpHwSurfaceFlingerConfigsE0_NS2_22ISurfaceFlingerConfigsE
_ZTCN7android8hardware11configstore4V1_025BpHwSurfaceFlingerConfigsE0_NS_4hidl4base4V1_05IBaseE
_ZTCN7android8hardware11configstore4V1_025BpHwSurfaceFlingerConfigsE4_NS0_10IInterfaceE
_ZTCN7android8hardware11configstore4V1_025BpHwSurfaceFlingerConfigsE8_NS0_11BpHwRefBaseE
_ZTTN7android8hardware11configstore4V1_022ISurfaceFlingerConfigsE
_ZTTN7android8hardware11configstore4V1_025BnHwSurfaceFlingerConfigsE
_ZTTN7android8hardware11configstore4V1_025BpHwSurfaceFlingerConfigsE
_ZTVN7android8hardware11configstore4V1_022ISurfaceFlingerConfigsE
_ZTVN7android8hardware11configstore4V1_025BnHwSurfaceFlingerConfigsE
_ZTVN7android8hardware11configstore4V1_025BpHwSurfaceFlingerConfigsE
_ZThn20_N7android8hardware11configstore4V1_025BnHwSurfaceFlingerConfigsD0Ev
_ZThn20_N7android8hardware11configstore4V1_025BnHwSurfaceFlingerConfigsD1Ev
_ZTv0_n12_N7android8hardware11configstore4V1_025BnHwSurfaceFlingerConfigsD0Ev
_ZTv0_n12_N7android8hardware11configstore4V1_025BnHwSurfaceFlingerConfigsD1Ev
