_ZN7android8hardware7thermal4V1_111BnHwThermal10onTransactEjRKNS0_6ParcelEPS4_jNSt3__18functionIFvRS4_EEE
_ZN7android8hardware7thermal4V1_111BnHwThermal12getDebugInfoENSt3__18functionIFvRKNS_4hidl4base4V1_09DebugInfoEEEE
_ZN7android8hardware7thermal4V1_111BnHwThermal29_hidl_registerThermalCallbackEPNS_4hidl4base4V1_08BnHwBaseERKNS0_6ParcelEPS9_NSt3__18functionIFvRS9_EEE
_ZN7android8hardware7thermal4V1_111BnHwThermal4pingEv
_ZN7android8hardware7thermal4V1_111BnHwThermalC1ERKNS_2spINS2_8IThermalEEE
_ZN7android8hardware7thermal4V1_111BnHwThermalC2ERKNS_2spINS2_8IThermalEEE
_ZN7android8hardware7thermal4V1_111BnHwThermalD0Ev
_ZN7android8hardware7thermal4V1_111BnHwThermalD1Ev
_ZN7android8hardware7thermal4V1_111BnHwThermalD2Ev
_ZN7android8hardware7thermal4V1_111BpHwThermal11linkToDeathERKNS_2spINS0_20hidl_death_recipientEEEy
_ZN7android8hardware7thermal4V1_111BpHwThermal12getCpuUsagesENSt3__18functionIFvRKNS1_4V1_013ThermalStatusERKNS0_8hidl_vecINS6_8CpuUsageEEEEEE
_ZN7android8hardware7thermal4V1_111BpHwThermal12getDebugInfoENSt3__18functionIFvRKNS_4hidl4base4V1_09DebugInfoEEEE
_ZN7android8hardware7thermal4V1_111BpHwThermal12getHashChainENSt3__18functionIFvRKNS0_8hidl_vecINS0_10hidl_arrayIhLj32EJEEEEEEEE
_ZN7android8hardware7thermal4V1_111BpHwThermal13unlinkToDeathERKNS_2spINS0_20hidl_death_recipientEEE
_ZN7android8hardware7thermal4V1_111BpHwThermal14interfaceChainENSt3__18functionIFvRKNS0_8hidl_vecINS0_11hidl_stringEEEEEE
_ZN7android8hardware7thermal4V1_111BpHwThermal15getTemperaturesENSt3__18functionIFvRKNS1_4V1_013ThermalStatusERKNS0_8hidl_vecINS6_11TemperatureEEEEEE
_ZN7android8hardware7thermal4V1_111BpHwThermal17getCoolingDevicesENSt3__18functionIFvRKNS1_4V1_013ThermalStatusERKNS0_8hidl_vecINS6_13CoolingDeviceEEEEEE
_ZN7android8hardware7thermal4V1_111BpHwThermal19interfaceDescriptorENSt3__18functionIFvRKNS0_11hidl_stringEEEE
_ZN7android8hardware7thermal4V1_111BpHwThermal21notifySyspropsChangedEv
_ZN7android8hardware7thermal4V1_111BpHwThermal21setHALInstrumentationEv
_ZN7android8hardware7thermal4V1_111BpHwThermal23registerThermalCallbackERKNS_2spINS2_16IThermalCallbackEEE
_ZN7android8hardware7thermal4V1_111BpHwThermal29_hidl_registerThermalCallbackEPNS0_10IInterfaceEPNS0_7details16HidlInstrumentorERKNS_2spINS2_16IThermalCallbackEEE
_ZN7android8hardware7thermal4V1_111BpHwThermal4pingEv
_ZN7android8hardware7thermal4V1_111BpHwThermal5debugERKNS0_11hidl_handleERKNS0_8hidl_vecINS0_11hidl_stringEEE
_ZN7android8hardware7thermal4V1_111BpHwThermalC1ERKNS_2spINS0_7IBinderEEE
_ZN7android8hardware7thermal4V1_111BpHwThermalC2ERKNS_2spINS0_7IBinderEEE
_ZN7android8hardware7thermal4V1_116IThermalCallback10descriptorE
_ZN7android8hardware7thermal4V1_116IThermalCallback10getServiceERKNSt3__112basic_stringIcNS4_11char_traitsIcEENS4_9allocatorIcEEEEb
_ZN7android8hardware7thermal4V1_116IThermalCallback11linkToDeathERKNS_2spINS0_20hidl_death_recipientEEEy
_ZN7android8hardware7thermal4V1_116IThermalCallback12getDebugInfoENSt3__18functionIFvRKNS_4hidl4base4V1_09DebugInfoEEEE
_ZN7android8hardware7thermal4V1_116IThermalCallback12getHashChainENSt3__18functionIFvRKNS0_8hidl_vecINS0_10hidl_arrayIhLj32EJEEEEEEEE
_ZN7android8hardware7thermal4V1_116IThermalCallback13tryGetServiceERKNSt3__112basic_stringIcNS4_11char_traitsIcEENS4_9allocatorIcEEEEb
_ZN7android8hardware7thermal4V1_116IThermalCallback13unlinkToDeathERKNS_2spINS0_20hidl_death_recipientEEE
_ZN7android8hardware7thermal4V1_116IThermalCallback14interfaceChainENSt3__18functionIFvRKNS0_8hidl_vecINS0_11hidl_stringEEEEEE
_ZN7android8hardware7thermal4V1_116IThermalCallback17registerAsServiceERKNSt3__112basic_stringIcNS4_11char_traitsIcEENS4_9allocatorIcEEEE
_ZN7android8hardware7thermal4V1_116IThermalCallback19interfaceDescriptorENSt3__18functionIFvRKNS0_11hidl_stringEEEE
_ZN7android8hardware7thermal4V1_116IThermalCallback21notifySyspropsChangedEv
_ZN7android8hardware7thermal4V1_116IThermalCallback21setHALInstrumentationEv
_ZN7android8hardware7thermal4V1_116IThermalCallback24registerForNotificationsERKNSt3__112basic_stringIcNS4_11char_traitsIcEENS4_9allocatorIcEEEERKNS_2spINS_4hidl7manager4V1_020IServiceNotificationEEE
_ZN7android8hardware7thermal4V1_116IThermalCallback4pingEv
_ZN7android8hardware7thermal4V1_116IThermalCallback5debugERKNS0_11hidl_handleERKNS0_8hidl_vecINS0_11hidl_stringEEE
_ZN7android8hardware7thermal4V1_116IThermalCallback8castFromERKNS_2spINS_4hidl4base4V1_05IBaseEEEb
_ZN7android8hardware7thermal4V1_116IThermalCallback8castFromERKNS_2spIS3_EEb
_ZN7android8hardware7thermal4V1_117BsThermalCallback13addOnewayTaskENSt3__18functionIFvvEEE
_ZN7android8hardware7thermal4V1_117BsThermalCallbackC1ENS_2spINS2_16IThermalCallbackEEE
_ZN7android8hardware7thermal4V1_117BsThermalCallbackC2ENS_2spINS2_16IThermalCallbackEEE
_ZN7android8hardware7thermal4V1_119BnHwThermalCallback10onTransactEjRKNS0_6ParcelEPS4_jNSt3__18functionIFvRS4_EEE
_ZN7android8hardware7thermal4V1_119BnHwThermalCallback12getDebugInfoENSt3__18functionIFvRKNS_4hidl4base4V1_09DebugInfoEEEE
_ZN7android8hardware7thermal4V1_119BnHwThermalCallback22_hidl_notifyThrottlingEPNS_4hidl4base4V1_08BnHwBaseERKNS0_6ParcelEPS9_NSt3__18functionIFvRS9_EEE
_ZN7android8hardware7thermal4V1_119BnHwThermalCallback4pingEv
_ZN7android8hardware7thermal4V1_119BnHwThermalCallbackC1ERKNS_2spINS2_16IThermalCallbackEEE
_ZN7android8hardware7thermal4V1_119BnHwThermalCallbackC2ERKNS_2spINS2_16IThermalCallbackEEE
_ZN7android8hardware7thermal4V1_119BnHwThermalCallbackD0Ev
_ZN7android8hardware7thermal4V1_119BnHwThermalCallbackD1Ev
_ZN7android8hardware7thermal4V1_119BnHwThermalCallbackD2Ev
_ZN7android8hardware7thermal4V1_119BpHwThermalCallback11linkToDeathERKNS_2spINS0_20hidl_death_recipientEEEy
_ZN7android8hardware7thermal4V1_119BpHwThermalCallback12getDebugInfoENSt3__18functionIFvRKNS_4hidl4base4V1_09DebugInfoEEEE
_ZN7android8hardware7thermal4V1_119BpHwThermalCallback12getHashChainENSt3__18functionIFvRKNS0_8hidl_vecINS0_10hidl_arrayIhLj32EJEEEEEEEE
_ZN7android8hardware7thermal4V1_119BpHwThermalCallback13unlinkToDeathERKNS_2spINS0_20hidl_death_recipientEEE
_ZN7android8hardware7thermal4V1_119BpHwThermalCallback14interfaceChainENSt3__18functionIFvRKNS0_8hidl_vecINS0_11hidl_stringEEEEEE
_ZN7android8hardware7thermal4V1_119BpHwThermalCallback16notifyThrottlingEbRKNS1_4V1_011TemperatureE
_ZN7android8hardware7thermal4V1_119BpHwThermalCallback19interfaceDescriptorENSt3__18functionIFvRKNS0_11hidl_stringEEEE
_ZN7android8hardware7thermal4V1_119BpHwThermalCallback21notifySyspropsChangedEv
_ZN7android8hardware7thermal4V1_119BpHwThermalCallback21setHALInstrumentationEv
_ZN7android8hardware7thermal4V1_119BpHwThermalCallback22_hidl_notifyThrottlingEPNS0_10IInterfaceEPNS0_7details16HidlInstrumentorEbRKNS1_4V1_011TemperatureE
_ZN7android8hardware7thermal4V1_119BpHwThermalCallback4pingEv
_ZN7android8hardware7thermal4V1_119BpHwThermalCallback5debugERKNS0_11hidl_handleERKNS0_8hidl_vecINS0_11hidl_stringEEE
_ZN7android8hardware7thermal4V1_119BpHwThermalCallbackC1ERKNS_2spINS0_7IBinderEEE
_ZN7android8hardware7thermal4V1_119BpHwThermalCallbackC2ERKNS_2spINS0_7IBinderEEE
_ZN7android8hardware7thermal4V1_18IThermal10descriptorE
_ZN7android8hardware7thermal4V1_18IThermal10getServiceERKNSt3__112basic_stringIcNS4_11char_traitsIcEENS4_9allocatorIcEEEEb
_ZN7android8hardware7thermal4V1_18IThermal11linkToDeathERKNS_2spINS0_20hidl_death_recipientEEEy
_ZN7android8hardware7thermal4V1_18IThermal12getDebugInfoENSt3__18functionIFvRKNS_4hidl4base4V1_09DebugInfoEEEE
_ZN7android8hardware7thermal4V1_18IThermal12getHashChainENSt3__18functionIFvRKNS0_8hidl_vecINS0_10hidl_arrayIhLj32EJEEEEEEEE
_ZN7android8hardware7thermal4V1_18IThermal13tryGetServiceERKNSt3__112basic_stringIcNS4_11char_traitsIcEENS4_9allocatorIcEEEEb
_ZN7android8hardware7thermal4V1_18IThermal13unlinkToDeathERKNS_2spINS0_20hidl_death_recipientEEE
_ZN7android8hardware7thermal4V1_18IThermal14interfaceChainENSt3__18functionIFvRKNS0_8hidl_vecINS0_11hidl_stringEEEEEE
_ZN7android8hardware7thermal4V1_18IThermal17registerAsServiceERKNSt3__112basic_stringIcNS4_11char_traitsIcEENS4_9allocatorIcEEEE
_ZN7android8hardware7thermal4V1_18IThermal19interfaceDescriptorENSt3__18functionIFvRKNS0_11hidl_stringEEEE
_ZN7android8hardware7thermal4V1_18IThermal21notifySyspropsChangedEv
_ZN7android8hardware7thermal4V1_18IThermal21setHALInstrumentationEv
_ZN7android8hardware7thermal4V1_18IThermal24registerForNotificationsERKNSt3__112basic_stringIcNS4_11char_traitsIcEENS4_9allocatorIcEEEERKNS_2spINS_4hidl7manager4V1_020IServiceNotificationEEE
_ZN7android8hardware7thermal4V1_18IThermal4pingEv
_ZN7android8hardware7thermal4V1_18IThermal5debugERKNS0_11hidl_handleERKNS0_8hidl_vecINS0_11hidl_stringEEE
_ZN7android8hardware7thermal4V1_18IThermal8castFromERKNS_2spINS1_4V1_08IThermalEEEb
_ZN7android8hardware7thermal4V1_18IThermal8castFromERKNS_2spINS_4hidl4base4V1_05IBaseEEEb
_ZN7android8hardware7thermal4V1_18IThermal8castFromERKNS_2spIS3_EEb
_ZN7android8hardware7thermal4V1_19BsThermal13addOnewayTaskENSt3__18functionIFvvEEE
_ZN7android8hardware7thermal4V1_19BsThermalC1ENS_2spINS2_8IThermalEEE
_ZN7android8hardware7thermal4V1_19BsThermalC2ENS_2spINS2_8IThermalEEE
_ZTCN7android8hardware7thermal4V1_111BnHwThermalE0_NS0_7IBinderE
_ZTCN7android8hardware7thermal4V1_111BnHwThermalE0_NS0_9BHwBinderE
_ZTCN7android8hardware7thermal4V1_111BnHwThermalE0_NS_4hidl4base4V1_08BnHwBaseE
_ZTCN7android8hardware7thermal4V1_111BpHwThermalE0_NS0_11BpInterfaceINS2_8IThermalEEE
_ZTCN7android8hardware7thermal4V1_111BpHwThermalE0_NS1_4V1_08IThermalE
_ZTCN7android8hardware7thermal4V1_111BpHwThermalE0_NS2_8IThermalE
_ZTCN7android8hardware7thermal4V1_111BpHwThermalE0_NS_4hidl4base4V1_05IBaseE
_ZTCN7android8hardware7thermal4V1_111BpHwThermalE4_NS0_10IInterfaceE
_ZTCN7android8hardware7thermal4V1_111BpHwThermalE8_NS0_11BpHwRefBaseE
_ZTCN7android8hardware7thermal4V1_116IThermalCallbackE0_NS_4hidl4base4V1_05IBaseE
_ZTCN7android8hardware7thermal4V1_119BnHwThermalCallbackE0_NS0_7IBinderE
_ZTCN7android8hardware7thermal4V1_119BnHwThermalCallbackE0_NS0_9BHwBinderE
_ZTCN7android8hardware7thermal4V1_119BnHwThermalCallbackE0_NS_4hidl4base4V1_08BnHwBaseE
_ZTCN7android8hardware7thermal4V1_119BpHwThermalCallbackE0_NS0_11BpInterfaceINS2_16IThermalCallbackEEE
_ZTCN7android8hardware7thermal4V1_119BpHwThermalCallbackE0_NS2_16IThermalCallbackE
_ZTCN7android8hardware7thermal4V1_119BpHwThermalCallbackE0_NS_4hidl4base4V1_05IBaseE
_ZTCN7android8hardware7thermal4V1_119BpHwThermalCallbackE4_NS0_10IInterfaceE
_ZTCN7android8hardware7thermal4V1_119BpHwThermalCallbackE8_NS0_11BpHwRefBaseE
_ZTCN7android8hardware7thermal4V1_18IThermalE0_NS1_4V1_08IThermalE
_ZTCN7android8hardware7thermal4V1_18IThermalE0_NS_4hidl4base4V1_05IBaseE
_ZTTN7android8hardware7thermal4V1_111BnHwThermalE
_ZTTN7android8hardware7thermal4V1_111BpHwThermalE
_ZTTN7android8hardware7thermal4V1_116IThermalCallbackE
_ZTTN7android8hardware7thermal4V1_119BnHwThermalCallbackE
_ZTTN7android8hardware7thermal4V1_119BpHwThermalCallbackE
_ZTTN7android8hardware7thermal4V1_18IThermalE
_ZTVN7android8hardware7thermal4V1_111BnHwThermalE
_ZTVN7android8hardware7thermal4V1_111BpHwThermalE
_ZTVN7android8hardware7thermal4V1_116IThermalCallbackE
_ZTVN7android8hardware7thermal4V1_119BnHwThermalCallbackE
_ZTVN7android8hardware7thermal4V1_119BpHwThermalCallbackE
_ZTVN7android8hardware7thermal4V1_18IThermalE
_ZThn20_N7android8hardware7thermal4V1_111BnHwThermalD0Ev
_ZThn20_N7android8hardware7thermal4V1_111BnHwThermalD1Ev
_ZThn20_N7android8hardware7thermal4V1_119BnHwThermalCallbackD0Ev
_ZThn20_N7android8hardware7thermal4V1_119BnHwThermalCallbackD1Ev
_ZTv0_n12_N7android8hardware7thermal4V1_111BnHwThermalD0Ev
_ZTv0_n12_N7android8hardware7thermal4V1_111BnHwThermalD1Ev
_ZTv0_n12_N7android8hardware7thermal4V1_119BnHwThermalCallbackD0Ev
_ZTv0_n12_N7android8hardware7thermal4V1_119BnHwThermalCallbackD1Ev
