_ZN7android8hardware5radio4V1_012ISapCallback10descriptorE
_ZN7android8hardware5radio4V1_012ISapCallback10getServiceERKNSt3__112basic_stringIcNS4_11char_traitsIcEENS4_9allocatorIcEEEEb
_ZN7android8hardware5radio4V1_012ISapCallback11linkToDeathERKNS_2spINS0_20hidl_death_recipientEEEy
_ZN7android8hardware5radio4V1_012ISapCallback12getDebugInfoENSt3__18functionIFvRKNS_4hidl4base4V1_09DebugInfoEEEE
_ZN7android8hardware5radio4V1_012ISapCallback12getHashChainENSt3__18functionIFvRKNS0_8hidl_vecINS0_10hidl_arrayIhLj32EJEEEEEEEE
_ZN7android8hardware5radio4V1_012ISapCallback13tryGetServiceERKNSt3__112basic_stringIcNS4_11char_traitsIcEENS4_9allocatorIcEEEEb
_ZN7android8hardware5radio4V1_012ISapCallback13unlinkToDeathERKNS_2spINS0_20hidl_death_recipientEEE
_ZN7android8hardware5radio4V1_012ISapCallback14interfaceChainENSt3__18functionIFvRKNS0_8hidl_vecINS0_11hidl_stringEEEEEE
_ZN7android8hardware5radio4V1_012ISapCallback17registerAsServiceERKNSt3__112basic_stringIcNS4_11char_traitsIcEENS4_9allocatorIcEEEE
_ZN7android8hardware5radio4V1_012ISapCallback19interfaceDescriptorENSt3__18functionIFvRKNS0_11hidl_stringEEEE
_ZN7android8hardware5radio4V1_012ISapCallback21notifySyspropsChangedEv
_ZN7android8hardware5radio4V1_012ISapCallback21setHALInstrumentationEv
_ZN7android8hardware5radio4V1_012ISapCallback24registerForNotificationsERKNSt3__112basic_stringIcNS4_11char_traitsIcEENS4_9allocatorIcEEEERKNS_2spINS_4hidl7manager4V1_020IServiceNotificationEEE
_ZN7android8hardware5radio4V1_012ISapCallback4pingEv
_ZN7android8hardware5radio4V1_012ISapCallback5debugERKNS0_11hidl_handleERKNS0_8hidl_vecINS0_11hidl_stringEEE
_ZN7android8hardware5radio4V1_012ISapCallback8castFromERKNS_2spINS_4hidl4base4V1_05IBaseEEEb
_ZN7android8hardware5radio4V1_012ISapCallback8castFromERKNS_2spIS3_EEb
_ZN7android8hardware5radio4V1_013BsSapCallback13addOnewayTaskENSt3__18functionIFvvEEE
_ZN7android8hardware5radio4V1_013BsSapCallbackC1ENS_2spINS2_12ISapCallbackEEE
_ZN7android8hardware5radio4V1_013BsSapCallbackC2ENS_2spINS2_12ISapCallbackEEE
_ZN7android8hardware5radio4V1_014IRadioResponse10descriptorE
_ZN7android8hardware5radio4V1_014IRadioResponse10getServiceERKNSt3__112basic_stringIcNS4_11char_traitsIcEENS4_9allocatorIcEEEEb
_ZN7android8hardware5radio4V1_014IRadioResponse11linkToDeathERKNS_2spINS0_20hidl_death_recipientEEEy
_ZN7android8hardware5radio4V1_014IRadioResponse12getDebugInfoENSt3__18functionIFvRKNS_4hidl4base4V1_09DebugInfoEEEE
_ZN7android8hardware5radio4V1_014IRadioResponse12getHashChainENSt3__18functionIFvRKNS0_8hidl_vecINS0_10hidl_arrayIhLj32EJEEEEEEEE
_ZN7android8hardware5radio4V1_014IRadioResponse13tryGetServiceERKNSt3__112basic_stringIcNS4_11char_traitsIcEENS4_9allocatorIcEEEEb
_ZN7android8hardware5radio4V1_014IRadioResponse13unlinkToDeathERKNS_2spINS0_20hidl_death_recipientEEE
_ZN7android8hardware5radio4V1_014IRadioResponse14interfaceChainENSt3__18functionIFvRKNS0_8hidl_vecINS0_11hidl_stringEEEEEE
_ZN7android8hardware5radio4V1_014IRadioResponse17registerAsServiceERKNSt3__112basic_stringIcNS4_11char_traitsIcEENS4_9allocatorIcEEEE
_ZN7android8hardware5radio4V1_014IRadioResponse19interfaceDescriptorENSt3__18functionIFvRKNS0_11hidl_stringEEEE
_ZN7android8hardware5radio4V1_014IRadioResponse21notifySyspropsChangedEv
_ZN7android8hardware5radio4V1_014IRadioResponse21setHALInstrumentationEv
_ZN7android8hardware5radio4V1_014IRadioResponse24registerForNotificationsERKNSt3__112basic_stringIcNS4_11char_traitsIcEENS4_9allocatorIcEEEERKNS_2spINS_4hidl7manager4V1_020IServiceNotificationEEE
_ZN7android8hardware5radio4V1_014IRadioResponse4pingEv
_ZN7android8hardware5radio4V1_014IRadioResponse5debugERKNS0_11hidl_handleERKNS0_8hidl_vecINS0_11hidl_stringEEE
_ZN7android8hardware5radio4V1_014IRadioResponse8castFromERKNS_2spINS_4hidl4base4V1_05IBaseEEEb
_ZN7android8hardware5radio4V1_014IRadioResponse8castFromERKNS_2spIS3_EEb
_ZN7android8hardware5radio4V1_015BnHwSapCallback10onTransactEjRKNS0_6ParcelEPS4_jNSt3__18functionIFvRS4_EEE
_ZN7android8hardware5radio4V1_015BnHwSapCallback12getDebugInfoENSt3__18functionIFvRKNS_4hidl4base4V1_09DebugInfoEEEE
_ZN7android8hardware5radio4V1_015BnHwSapCallback18_hidl_apduResponseEPNS_4hidl4base4V1_08BnHwBaseERKNS0_6ParcelEPS9_NSt3__18functionIFvRS9_EEE
_ZN7android8hardware5radio4V1_015BnHwSapCallback19_hidl_errorResponseEPNS_4hidl4base4V1_08BnHwBaseERKNS0_6ParcelEPS9_NSt3__18functionIFvRS9_EEE
_ZN7android8hardware5radio4V1_015BnHwSapCallback19_hidl_powerResponseEPNS_4hidl4base4V1_08BnHwBaseERKNS0_6ParcelEPS9_NSt3__18functionIFvRS9_EEE
_ZN7android8hardware5radio4V1_015BnHwSapCallback21_hidl_connectResponseEPNS_4hidl4base4V1_08BnHwBaseERKNS0_6ParcelEPS9_NSt3__18functionIFvRS9_EEE
_ZN7android8hardware5radio4V1_015BnHwSapCallback22_hidl_resetSimResponseEPNS_4hidl4base4V1_08BnHwBaseERKNS0_6ParcelEPS9_NSt3__18functionIFvRS9_EEE
_ZN7android8hardware5radio4V1_015BnHwSapCallback22_hidl_statusIndicationEPNS_4hidl4base4V1_08BnHwBaseERKNS0_6ParcelEPS9_NSt3__18functionIFvRS9_EEE
_ZN7android8hardware5radio4V1_015BnHwSapCallback24_hidl_disconnectResponseEPNS_4hidl4base4V1_08BnHwBaseERKNS0_6ParcelEPS9_NSt3__18functionIFvRS9_EEE
_ZN7android8hardware5radio4V1_015BnHwSapCallback25_hidl_transferAtrResponseEPNS_4hidl4base4V1_08BnHwBaseERKNS0_6ParcelEPS9_NSt3__18functionIFvRS9_EEE
_ZN7android8hardware5radio4V1_015BnHwSapCallback26_hidl_disconnectIndicationEPNS_4hidl4base4V1_08BnHwBaseERKNS0_6ParcelEPS9_NSt3__18functionIFvRS9_EEE
_ZN7android8hardware5radio4V1_015BnHwSapCallback30_hidl_transferProtocolResponseEPNS_4hidl4base4V1_08BnHwBaseERKNS0_6ParcelEPS9_NSt3__18functionIFvRS9_EEE
_ZN7android8hardware5radio4V1_015BnHwSapCallback38_hidl_transferCardReaderStatusResponseEPNS_4hidl4base4V1_08BnHwBaseERKNS0_6ParcelEPS9_NSt3__18functionIFvRS9_EEE
_ZN7android8hardware5radio4V1_015BnHwSapCallback4pingEv
_ZN7android8hardware5radio4V1_015BnHwSapCallbackC1ERKNS_2spINS2_12ISapCallbackEEE
_ZN7android8hardware5radio4V1_015BnHwSapCallbackC2ERKNS_2spINS2_12ISapCallbackEEE
_ZN7android8hardware5radio4V1_015BnHwSapCallbackD0Ev
_ZN7android8hardware5radio4V1_015BnHwSapCallbackD1Ev
_ZN7android8hardware5radio4V1_015BnHwSapCallbackD2Ev
_ZN7android8hardware5radio4V1_015BpHwSapCallback11linkToDeathERKNS_2spINS0_20hidl_death_recipientEEEy
_ZN7android8hardware5radio4V1_015BpHwSapCallback12apduResponseEiNS2_13SapResultCodeERKNS0_8hidl_vecIhEE
_ZN7android8hardware5radio4V1_015BpHwSapCallback12getDebugInfoENSt3__18functionIFvRKNS_4hidl4base4V1_09DebugInfoEEEE
_ZN7android8hardware5radio4V1_015BpHwSapCallback12getHashChainENSt3__18functionIFvRKNS0_8hidl_vecINS0_10hidl_arrayIhLj32EJEEEEEEEE
_ZN7android8hardware5radio4V1_015BpHwSapCallback13errorResponseEi
_ZN7android8hardware5radio4V1_015BpHwSapCallback13powerResponseEiNS2_13SapResultCodeE
_ZN7android8hardware5radio4V1_015BpHwSapCallback13unlinkToDeathERKNS_2spINS0_20hidl_death_recipientEEE
_ZN7android8hardware5radio4V1_015BpHwSapCallback14interfaceChainENSt3__18functionIFvRKNS0_8hidl_vecINS0_11hidl_stringEEEEEE
_ZN7android8hardware5radio4V1_015BpHwSapCallback15connectResponseEiNS2_13SapConnectRspEi
_ZN7android8hardware5radio4V1_015BpHwSapCallback16resetSimResponseEiNS2_13SapResultCodeE
_ZN7android8hardware5radio4V1_015BpHwSapCallback16statusIndicationEiNS2_9SapStatusE
_ZN7android8hardware5radio4V1_015BpHwSapCallback18_hidl_apduResponseEPNS0_10IInterfaceEPNS0_7details16HidlInstrumentorEiNS2_13SapResultCodeERKNS0_8hidl_vecIhEE
_ZN7android8hardware5radio4V1_015BpHwSapCallback18disconnectResponseEi
_ZN7android8hardware5radio4V1_015BpHwSapCallback19_hidl_errorResponseEPNS0_10IInterfaceEPNS0_7details16HidlInstrumentorEi
_ZN7android8hardware5radio4V1_015BpHwSapCallback19_hidl_powerResponseEPNS0_10IInterfaceEPNS0_7details16HidlInstrumentorEiNS2_13SapResultCodeE
_ZN7android8hardware5radio4V1_015BpHwSapCallback19interfaceDescriptorENSt3__18functionIFvRKNS0_11hidl_stringEEEE
_ZN7android8hardware5radio4V1_015BpHwSapCallback19transferAtrResponseEiNS2_13SapResultCodeERKNS0_8hidl_vecIhEE
_ZN7android8hardware5radio4V1_015BpHwSapCallback20disconnectIndicationEiNS2_17SapDisconnectTypeE
_ZN7android8hardware5radio4V1_015BpHwSapCallback21_hidl_connectResponseEPNS0_10IInterfaceEPNS0_7details16HidlInstrumentorEiNS2_13SapConnectRspEi
_ZN7android8hardware5radio4V1_015BpHwSapCallback21notifySyspropsChangedEv
_ZN7android8hardware5radio4V1_015BpHwSapCallback21setHALInstrumentationEv
_ZN7android8hardware5radio4V1_015BpHwSapCallback22_hidl_resetSimResponseEPNS0_10IInterfaceEPNS0_7details16HidlInstrumentorEiNS2_13SapResultCodeE
_ZN7android8hardware5radio4V1_015BpHwSapCallback22_hidl_statusIndicationEPNS0_10IInterfaceEPNS0_7details16HidlInstrumentorEiNS2_9SapStatusE
_ZN7android8hardware5radio4V1_015BpHwSapCallback24_hidl_disconnectResponseEPNS0_10IInterfaceEPNS0_7details16HidlInstrumentorEi
_ZN7android8hardware5radio4V1_015BpHwSapCallback24transferProtocolResponseEiNS2_13SapResultCodeE
_ZN7android8hardware5radio4V1_015BpHwSapCallback25_hidl_transferAtrResponseEPNS0_10IInterfaceEPNS0_7details16HidlInstrumentorEiNS2_13SapResultCodeERKNS0_8hidl_vecIhEE
_ZN7android8hardware5radio4V1_015BpHwSapCallback26_hidl_disconnectIndicationEPNS0_10IInterfaceEPNS0_7details16HidlInstrumentorEiNS2_17SapDisconnectTypeE
_ZN7android8hardware5radio4V1_015BpHwSapCallback30_hidl_transferProtocolResponseEPNS0_10IInterfaceEPNS0_7details16HidlInstrumentorEiNS2_13SapResultCodeE
_ZN7android8hardware5radio4V1_015BpHwSapCallback32transferCardReaderStatusResponseEiNS2_13SapResultCodeEi
_ZN7android8hardware5radio4V1_015BpHwSapCallback38_hidl_transferCardReaderStatusResponseEPNS0_10IInterfaceEPNS0_7details16HidlInstrumentorEiNS2_13SapResultCodeEi
_ZN7android8hardware5radio4V1_015BpHwSapCallback4pingEv
_ZN7android8hardware5radio4V1_015BpHwSapCallback5debugERKNS0_11hidl_handleERKNS0_8hidl_vecINS0_11hidl_stringEEE
_ZN7android8hardware5radio4V1_015BpHwSapCallbackC1ERKNS_2spINS0_7IBinderEEE
_ZN7android8hardware5radio4V1_015BpHwSapCallbackC2ERKNS_2spINS0_7IBinderEEE
_ZN7android8hardware5radio4V1_015BsRadioResponse13addOnewayTaskENSt3__18functionIFvvEEE
_ZN7android8hardware5radio4V1_015BsRadioResponseC1ENS_2spINS2_14IRadioResponseEEE
_ZN7android8hardware5radio4V1_015BsRadioResponseC2ENS_2spINS2_14IRadioResponseEEE
_ZN7android8hardware5radio4V1_016IRadioIndication10descriptorE
_ZN7android8hardware5radio4V1_016IRadioIndication10getServiceERKNSt3__112basic_stringIcNS4_11char_traitsIcEENS4_9allocatorIcEEEEb
_ZN7android8hardware5radio4V1_016IRadioIndication11linkToDeathERKNS_2spINS0_20hidl_death_recipientEEEy
_ZN7android8hardware5radio4V1_016IRadioIndication12getDebugInfoENSt3__18functionIFvRKNS_4hidl4base4V1_09DebugInfoEEEE
_ZN7android8hardware5radio4V1_016IRadioIndication12getHashChainENSt3__18functionIFvRKNS0_8hidl_vecINS0_10hidl_arrayIhLj32EJEEEEEEEE
_ZN7android8hardware5radio4V1_016IRadioIndication13tryGetServiceERKNSt3__112basic_stringIcNS4_11char_traitsIcEENS4_9allocatorIcEEEEb
_ZN7android8hardware5radio4V1_016IRadioIndication13unlinkToDeathERKNS_2spINS0_20hidl_death_recipientEEE
_ZN7android8hardware5radio4V1_016IRadioIndication14interfaceChainENSt3__18functionIFvRKNS0_8hidl_vecINS0_11hidl_stringEEEEEE
_ZN7android8hardware5radio4V1_016IRadioIndication17registerAsServiceERKNSt3__112basic_stringIcNS4_11char_traitsIcEENS4_9allocatorIcEEEE
_ZN7android8hardware5radio4V1_016IRadioIndication19interfaceDescriptorENSt3__18functionIFvRKNS0_11hidl_stringEEEE
_ZN7android8hardware5radio4V1_016IRadioIndication21notifySyspropsChangedEv
_ZN7android8hardware5radio4V1_016IRadioIndication21setHALInstrumentationEv
_ZN7android8hardware5radio4V1_016IRadioIndication24registerForNotificationsERKNSt3__112basic_stringIcNS4_11char_traitsIcEENS4_9allocatorIcEEEERKNS_2spINS_4hidl7manager4V1_020IServiceNotificationEEE
_ZN7android8hardware5radio4V1_016IRadioIndication4pingEv
_ZN7android8hardware5radio4V1_016IRadioIndication5debugERKNS0_11hidl_handleERKNS0_8hidl_vecINS0_11hidl_stringEEE
_ZN7android8hardware5radio4V1_016IRadioIndication8castFromERKNS_2spINS_4hidl4base4V1_05IBaseEEEb
_ZN7android8hardware5radio4V1_016IRadioIndication8castFromERKNS_2spIS3_EEb
_ZN7android8hardware5radio4V1_017BnHwRadioResponse10onTransactEjRKNS0_6ParcelEPS4_jNSt3__18functionIFvRS4_EEE
_ZN7android8hardware5radio4V1_017BnHwRadioResponse12getDebugInfoENSt3__18functionIFvRKNS_4hidl4base4V1_09DebugInfoEEEE
_ZN7android8hardware5radio4V1_017BnHwRadioResponse18_hidl_dialResponseEPNS_4hidl4base4V1_08BnHwBaseERKNS0_6ParcelEPS9_NSt3__18functionIFvRS9_EEE
_ZN7android8hardware5radio4V1_017BnHwRadioResponse21_hidl_getClipResponseEPNS_4hidl4base4V1_08BnHwBaseERKNS0_6ParcelEPS9_NSt3__18functionIFvRS9_EEE
_ZN7android8hardware5radio4V1_017BnHwRadioResponse21_hidl_getClirResponseEPNS_4hidl4base4V1_08BnHwBaseERKNS0_6ParcelEPS9_NSt3__18functionIFvRS9_EEE
_ZN7android8hardware5radio4V1_017BnHwRadioResponse21_hidl_getMuteResponseEPNS_4hidl4base4V1_08BnHwBaseERKNS0_6ParcelEPS9_NSt3__18functionIFvRS9_EEE
_ZN7android8hardware5radio4V1_017BnHwRadioResponse21_hidl_sendSmsResponseEPNS_4hidl4base4V1_08BnHwBaseERKNS0_6ParcelEPS9_NSt3__18functionIFvRS9_EEE
_ZN7android8hardware5radio4V1_017BnHwRadioResponse21_hidl_setClirResponseEPNS_4hidl4base4V1_08BnHwBaseERKNS0_6ParcelEPS9_NSt3__18functionIFvRS9_EEE
_ZN7android8hardware5radio4V1_017BnHwRadioResponse21_hidl_setMuteResponseEPNS_4hidl4base4V1_08BnHwBaseERKNS0_6ParcelEPS9_NSt3__18functionIFvRS9_EEE
_ZN7android8hardware5radio4V1_017BnHwRadioResponse22_hidl_sendDtmfResponseEPNS_4hidl4base4V1_08BnHwBaseERKNS0_6ParcelEPS9_NSt3__18functionIFvRS9_EEE
_ZN7android8hardware5radio4V1_017BnHwRadioResponse22_hidl_sendUssdResponseEPNS_4hidl4base4V1_08BnHwBaseERKNS0_6ParcelEPS9_NSt3__18functionIFvRS9_EEE
_ZN7android8hardware5radio4V1_017BnHwRadioResponse22_hidl_stopDtmfResponseEPNS_4hidl4base4V1_08BnHwBaseERKNS0_6ParcelEPS9_NSt3__18functionIFvRS9_EEE
_ZN7android8hardware5radio4V1_017BnHwRadioResponse23_hidl_startDtmfResponseEPNS_4hidl4base4V1_08BnHwBaseERKNS0_6ParcelEPS9_NSt3__18functionIFvRS9_EEE
_ZN7android8hardware5radio4V1_017BnHwRadioResponse24_hidl_acceptCallResponseEPNS_4hidl4base4V1_08BnHwBaseERKNS0_6ParcelEPS9_NSt3__18functionIFvRS9_EEE
_ZN7android8hardware5radio4V1_017BnHwRadioResponse24_hidl_acknowledgeRequestEPNS_4hidl4base4V1_08BnHwBaseERKNS0_6ParcelEPS9_NSt3__18functionIFvRS9_EEE
_ZN7android8hardware5radio4V1_017BnHwRadioResponse24_hidl_conferenceResponseEPNS_4hidl4base4V1_08BnHwBaseERKNS0_6ParcelEPS9_NSt3__18functionIFvRS9_EEE
_ZN7android8hardware5radio4V1_017BnHwRadioResponse24_hidl_getTTYModeResponseEPNS_4hidl4base4V1_08BnHwBaseERKNS0_6ParcelEPS9_NSt3__18functionIFvRS9_EEE
_ZN7android8hardware5radio4V1_017BnHwRadioResponse24_hidl_nvReadItemResponseEPNS_4hidl4base4V1_08BnHwBaseERKNS0_6ParcelEPS9_NSt3__18functionIFvRS9_EEE
_ZN7android8hardware5radio4V1_017BnHwRadioResponse24_hidl_rejectCallResponseEPNS_4hidl4base4V1_08BnHwBaseERKNS0_6ParcelEPS9_NSt3__18functionIFvRS9_EEE
_ZN7android8hardware5radio4V1_017BnHwRadioResponse24_hidl_sendImsSmsResponseEPNS_4hidl4base4V1_08BnHwBaseERKNS0_6ParcelEPS9_NSt3__18functionIFvRS9_EEE
_ZN7android8hardware5radio4V1_017BnHwRadioResponse24_hidl_setTTYModeResponseEPNS_4hidl4base4V1_08BnHwBaseERKNS0_6ParcelEPS9_NSt3__18functionIFvRS9_EEE
_ZN7android8hardware5radio4V1_017BnHwRadioResponse25_hidl_getOperatorResponseEPNS_4hidl4base4V1_08BnHwBaseERKNS0_6ParcelEPS9_NSt3__18functionIFvRS9_EEE
_ZN7android8hardware5radio4V1_017BnHwRadioResponse25_hidl_iccIOForAppResponseEPNS_4hidl4base4V1_08BnHwBaseERKNS0_6ParcelEPS9_NSt3__18functionIFvRS9_EEE
_ZN7android8hardware5radio4V1_017BnHwRadioResponse25_hidl_nvWriteItemResponseEPNS_4hidl4base4V1_08BnHwBaseERKNS0_6ParcelEPS9_NSt3__18functionIFvRS9_EEE
_ZN7android8hardware5radio4V1_017BnHwRadioResponse25_hidl_pullLceDataResponseEPNS_4hidl4base4V1_08BnHwBaseERKNS0_6ParcelEPS9_NSt3__18functionIFvRS9_EEE
_ZN7android8hardware5radio4V1_017BnHwRadioResponse25_hidl_sendCdmaSmsResponseEPNS_4hidl4base4V1_08BnHwBaseERKNS0_6ParcelEPS9_NSt3__18functionIFvRS9_EEE
_ZN7android8hardware5radio4V1_017BnHwRadioResponse25_hidl_setBandModeResponseEPNS_4hidl4base4V1_08BnHwBaseERKNS0_6ParcelEPS9_NSt3__18functionIFvRS9_EEE
_ZN7android8hardware5radio4V1_017BnHwRadioResponse26_hidl_sendEnvelopeResponseEPNS_4hidl4base4V1_08BnHwBaseERKNS0_6ParcelEPS9_NSt3__18functionIFvRS9_EEE
_ZN7android8hardware5radio4V1_017BnHwRadioResponse27_hidl_getIMSIForAppResponseEPNS_4hidl4base4V1_08BnHwBaseERKNS0_6ParcelEPS9_NSt3__18functionIFvRS9_EEE
_ZN7android8hardware5radio4V1_017BnHwRadioResponse27_hidl_nvResetConfigResponseEPNS_4hidl4base4V1_08BnHwBaseERKNS0_6ParcelEPS9_NSt3__18functionIFvRS9_EEE
_ZN7android8hardware5radio4V1_017BnHwRadioResponse27_hidl_sendBurstDtmfResponseEPNS_4hidl4base4V1_08BnHwBaseERKNS0_6ParcelEPS9_NSt3__18functionIFvRS9_EEE
_ZN7android8hardware5radio4V1_017BnHwRadioResponse27_hidl_setRadioPowerResponseEPNS_4hidl4base4V1_08BnHwBaseERKNS0_6ParcelEPS9_NSt3__18functionIFvRS9_EEE
_ZN7android8hardware5radio4V1_017BnHwRadioResponse27_hidl_setupDataCallResponseEPNS_4hidl4base4V1_08BnHwBaseERKNS0_6ParcelEPS9_NSt3__18functionIFvRS9_EEE
_ZN7android8hardware5radio4V1_017BnHwRadioResponse27_hidl_writeSmsToSimResponseEPNS_4hidl4base4V1_08BnHwBaseERKNS0_6ParcelEPS9_NSt3__18functionIFvRS9_EEE
_ZN7android8hardware5radio4V1_017BnHwRadioResponse28_hidl_deleteSmsOnSimResponseEPNS_4hidl4base4V1_08BnHwBaseERKNS0_6ParcelEPS9_NSt3__18functionIFvRS9_EEE
_ZN7android8hardware5radio4V1_017BnHwRadioResponse28_hidl_getCallWaitingResponseEPNS_4hidl4base4V1_08BnHwBaseERKNS0_6ParcelEPS9_NSt3__18functionIFvRS9_EEE
_ZN7android8hardware5radio4V1_017BnHwRadioResponse28_hidl_getSmscAddressResponseEPNS_4hidl4base4V1_08BnHwBaseERKNS0_6ParcelEPS9_NSt3__18functionIFvRS9_EEE
_ZN7android8hardware5radio4V1_017BnHwRadioResponse28_hidl_nvWriteCdmaPrlResponseEPNS_4hidl4base4V1_08BnHwBaseERKNS0_6ParcelEPS9_NSt3__18functionIFvRS9_EEE
_ZN7android8hardware5radio4V1_017BnHwRadioResponse28_hidl_setCallForwardResponseEPNS_4hidl4base4V1_08BnHwBaseERKNS0_6ParcelEPS9_NSt3__18functionIFvRS9_EEE
_ZN7android8hardware5radio4V1_017BnHwRadioResponse28_hidl_setCallWaitingResponseEPNS_4hidl4base4V1_08BnHwBaseERKNS0_6ParcelEPS9_NSt3__18functionIFvRS9_EEE
_ZN7android8hardware5radio4V1_017BnHwRadioResponse28_hidl_setDataAllowedResponseEPNS_4hidl4base4V1_08BnHwBaseERKNS0_6ParcelEPS9_NSt3__18functionIFvRS9_EEE
_ZN7android8hardware5radio4V1_017BnHwRadioResponse28_hidl_setDataProfileResponseEPNS_4hidl4base4V1_08BnHwBaseERKNS0_6ParcelEPS9_NSt3__18functionIFvRS9_EEE
_ZN7android8hardware5radio4V1_017BnHwRadioResponse28_hidl_setSmscAddressResponseEPNS_4hidl4base4V1_08BnHwBaseERKNS0_6ParcelEPS9_NSt3__18functionIFvRS9_EEE
_ZN7android8hardware5radio4V1_017BnHwRadioResponse28_hidl_stopLceServiceResponseEPNS_4hidl4base4V1_08BnHwBaseERKNS0_6ParcelEPS9_NSt3__18functionIFvRS9_EEE
_ZN7android8hardware5radio4V1_017BnHwRadioResponse28_hidl_writeSmsToRuimResponseEPNS_4hidl4base4V1_08BnHwBaseERKNS0_6ParcelEPS9_NSt3__18functionIFvRS9_EEE
_ZN7android8hardware5radio4V1_017BnHwRadioResponse29_hidl_deleteSmsOnRuimResponseEPNS_4hidl4base4V1_08BnHwBaseERKNS0_6ParcelEPS9_NSt3__18functionIFvRS9_EEE
_ZN7android8hardware5radio4V1_017BnHwRadioResponse29_hidl_getCellInfoListResponseEPNS_4hidl4base4V1_08BnHwBaseERKNS0_6ParcelEPS9_NSt3__18functionIFvRS9_EEE
_ZN7android8hardware5radio4V1_017BnHwRadioResponse29_hidl_getCurrentCallsResponseEPNS_4hidl4base4V1_08BnHwBaseERKNS0_6ParcelEPS9_NSt3__18functionIFvRS9_EEE
_ZN7android8hardware5radio4V1_017BnHwRadioResponse29_hidl_getDataCallListResponseEPNS_4hidl4base4V1_08BnHwBaseERKNS0_6ParcelEPS9_NSt3__18functionIFvRS9_EEE
_ZN7android8hardware5radio4V1_017BnHwRadioResponse29_hidl_requestShutdownResponseEPNS_4hidl4base4V1_08BnHwBaseERKNS0_6ParcelEPS9_NSt3__18functionIFvRS9_EEE
_ZN7android8hardware5radio4V1_017BnHwRadioResponse29_hidl_sendDeviceStateResponseEPNS_4hidl4base4V1_08BnHwBaseERKNS0_6ParcelEPS9_NSt3__18functionIFvRS9_EEE
_ZN7android8hardware5radio4V1_017BnHwRadioResponse29_hidl_setSimCardPowerResponseEPNS_4hidl4base4V1_08BnHwBaseERKNS0_6ParcelEPS9_NSt3__18functionIFvRS9_EEE
_ZN7android8hardware5radio4V1_017BnHwRadioResponse29_hidl_startLceServiceResponseEPNS_4hidl4base4V1_08BnHwBaseERKNS0_6ParcelEPS9_NSt3__18functionIFvRS9_EEE
_ZN7android8hardware5radio4V1_017BnHwRadioResponse30_hidl_getIccCardStatusResponseEPNS_4hidl4base4V1_08BnHwBaseERKNS0_6ParcelEPS9_NSt3__18functionIFvRS9_EEE
_ZN7android8hardware5radio4V1_017BnHwRadioResponse30_hidl_hangupConnectionResponseEPNS_4hidl4base4V1_08BnHwBaseERKNS0_6ParcelEPS9_NSt3__18functionIFvRS9_EEE
_ZN7android8hardware5radio4V1_017BnHwRadioResponse31_hidl_cancelPendingUssdResponseEPNS_4hidl4base4V1_08BnHwBaseERKNS0_6ParcelEPS9_NSt3__18functionIFvRS9_EEE
_ZN7android8hardware5radio4V1_017BnHwRadioResponse31_hidl_getDeviceIdentityResponseEPNS_4hidl4base4V1_08BnHwBaseERKNS0_6ParcelEPS9_NSt3__18functionIFvRS9_EEE
_ZN7android8hardware5radio4V1_017BnHwRadioResponse31_hidl_getHardwareConfigResponseEPNS_4hidl4base4V1_08BnHwBaseERKNS0_6ParcelEPS9_NSt3__18functionIFvRS9_EEE
_ZN7android8hardware5radio4V1_017BnHwRadioResponse31_hidl_getSignalStrengthResponseEPNS_4hidl4base4V1_08BnHwBaseERKNS0_6ParcelEPS9_NSt3__18functionIFvRS9_EEE
_ZN7android8hardware5radio4V1_017BnHwRadioResponse31_hidl_sendSMSExpectMoreResponseEPNS_4hidl4base4V1_08BnHwBaseERKNS0_6ParcelEPS9_NSt3__18functionIFvRS9_EEE
_ZN7android8hardware5radio4V1_017BnHwRadioResponse32_hidl_changeIccPinForAppResponseEPNS_4hidl4base4V1_08BnHwBaseERKNS0_6ParcelEPS9_NSt3__18functionIFvRS9_EEE
_ZN7android8hardware5radio4V1_017BnHwRadioResponse32_hidl_deactivateDataCallResponseEPNS_4hidl4base4V1_08BnHwBaseERKNS0_6ParcelEPS9_NSt3__18functionIFvRS9_EEE
_ZN7android8hardware5radio4V1_017BnHwRadioResponse32_hidl_getAllowedCarriersResponseEPNS_4hidl4base4V1_08BnHwBaseERKNS0_6ParcelEPS9_NSt3__18functionIFvRS9_EEE
_ZN7android8hardware5radio4V1_017BnHwRadioResponse32_hidl_getBasebandVersionResponseEPNS_4hidl4base4V1_08BnHwBaseERKNS0_6ParcelEPS9_NSt3__18functionIFvRS9_EEE
_ZN7android8hardware5radio4V1_017BnHwRadioResponse32_hidl_getNeighboringCidsResponseEPNS_4hidl4base4V1_08BnHwBaseERKNS0_6ParcelEPS9_NSt3__18functionIFvRS9_EEE
_ZN7android8hardware5radio4V1_017BnHwRadioResponse32_hidl_getRadioCapabilityResponseEPNS_4hidl4base4V1_08BnHwBaseERKNS0_6ParcelEPS9_NSt3__18functionIFvRS9_EEE
_ZN7android8hardware5radio4V1_017BnHwRadioResponse32_hidl_separateConnectionResponseEPNS_4hidl4base4V1_08BnHwBaseERKNS0_6ParcelEPS9_NSt3__18functionIFvRS9_EEE
_ZN7android8hardware5radio4V1_017BnHwRadioResponse32_hidl_setAllowedCarriersResponseEPNS_4hidl4base4V1_08BnHwBaseERKNS0_6ParcelEPS9_NSt3__18functionIFvRS9_EEE
_ZN7android8hardware5radio4V1_017BnHwRadioResponse32_hidl_setBarringPasswordResponseEPNS_4hidl4base4V1_08BnHwBaseERKNS0_6ParcelEPS9_NSt3__18functionIFvRS9_EEE
_ZN7android8hardware5radio4V1_017BnHwRadioResponse32_hidl_setLocationUpdatesResponseEPNS_4hidl4base4V1_08BnHwBaseERKNS0_6ParcelEPS9_NSt3__18functionIFvRS9_EEE
_ZN7android8hardware5radio4V1_017BnHwRadioResponse32_hidl_setRadioCapabilityResponseEPNS_4hidl4base4V1_08BnHwBaseERKNS0_6ParcelEPS9_NSt3__18functionIFvRS9_EEE
_ZN7android8hardware5radio4V1_017BnHwRadioResponse32_hidl_supplyIccPinForAppResponseEPNS_4hidl4base4V1_08BnHwBaseERKNS0_6ParcelEPS9_NSt3__18functionIFvRS9_EEE
_ZN7android8hardware5radio4V1_017BnHwRadioResponse32_hidl_supplyIccPukForAppResponseEPNS_4hidl4base4V1_08BnHwBaseERKNS0_6ParcelEPS9_NSt3__18functionIFvRS9_EEE
_ZN7android8hardware5radio4V1_017BnHwRadioResponse33_hidl_changeIccPin2ForAppResponseEPNS_4hidl4base4V1_08BnHwBaseERKNS0_6ParcelEPS9_NSt3__18functionIFvRS9_EEE
_ZN7android8hardware5radio4V1_017BnHwRadioResponse33_hidl_getCDMASubscriptionResponseEPNS_4hidl4base4V1_08BnHwBaseERKNS0_6ParcelEPS9_NSt3__18functionIFvRS9_EEE
_ZN7android8hardware5radio4V1_017BnHwRadioResponse33_hidl_sendCDMAFeatureCodeResponseEPNS_4hidl4base4V1_08BnHwBaseERKNS0_6ParcelEPS9_NSt3__18functionIFvRS9_EEE
_ZN7android8hardware5radio4V1_017BnHwRadioResponse33_hidl_setCellInfoListRateResponseEPNS_4hidl4base4V1_08BnHwBaseERKNS0_6ParcelEPS9_NSt3__18functionIFvRS9_EEE
_ZN7android8hardware5radio4V1_017BnHwRadioResponse33_hidl_setIndicationFilterResponseEPNS_4hidl4base4V1_08BnHwBaseERKNS0_6ParcelEPS9_NSt3__18functionIFvRS9_EEE
_ZN7android8hardware5radio4V1_017BnHwRadioResponse33_hidl_setInitialAttachApnResponseEPNS_4hidl4base4V1_08BnHwBaseERKNS0_6ParcelEPS9_NSt3__18functionIFvRS9_EEE
_ZN7android8hardware5radio4V1_017BnHwRadioResponse33_hidl_setUiccSubscriptionResponseEPNS_4hidl4base4V1_08BnHwBaseERKNS0_6ParcelEPS9_NSt3__18functionIFvRS9_EEE
_ZN7android8hardware5radio4V1_017BnHwRadioResponse33_hidl_supplyIccPin2ForAppResponseEPNS_4hidl4base4V1_08BnHwBaseERKNS0_6ParcelEPS9_NSt3__18functionIFvRS9_EEE
_ZN7android8hardware5radio4V1_017BnHwRadioResponse33_hidl_supplyIccPuk2ForAppResponseEPNS_4hidl4base4V1_08BnHwBaseERKNS0_6ParcelEPS9_NSt3__18functionIFvRS9_EEE
_ZN7android8hardware5radio4V1_017BnHwRadioResponse34_hidl_explicitCallTransferResponseEPNS_4hidl4base4V1_08BnHwBaseERKNS0_6ParcelEPS9_NSt3__18functionIFvRS9_EEE
_ZN7android8hardware5radio4V1_017BnHwRadioResponse34_hidl_getAvailableNetworksResponseEPNS_4hidl4base4V1_08BnHwBaseERKNS0_6ParcelEPS9_NSt3__18functionIFvRS9_EEE
_ZN7android8hardware5radio4V1_017BnHwRadioResponse34_hidl_getCallForwardStatusResponseEPNS_4hidl4base4V1_08BnHwBaseERKNS0_6ParcelEPS9_NSt3__18functionIFvRS9_EEE
_ZN7android8hardware5radio4V1_017BnHwRadioResponse34_hidl_getLastCallFailCauseResponseEPNS_4hidl4base4V1_08BnHwBaseERKNS0_6ParcelEPS9_NSt3__18functionIFvRS9_EEE
_ZN7android8hardware5radio4V1_017BnHwRadioResponse34_hidl_getModemActivityInfoResponseEPNS_4hidl4base4V1_08BnHwBaseERKNS0_6ParcelEPS9_NSt3__18functionIFvRS9_EEE
_ZN7android8hardware5radio4V1_017BnHwRadioResponse35_hidl_getAvailableBandModesResponseEPNS_4hidl4base4V1_08BnHwBaseERKNS0_6ParcelEPS9_NSt3__18functionIFvRS9_EEE
_ZN7android8hardware5radio4V1_017BnHwRadioResponse35_hidl_getFacilityLockForAppResponseEPNS_4hidl4base4V1_08BnHwBaseERKNS0_6ParcelEPS9_NSt3__18functionIFvRS9_EEE
_ZN7android8hardware5radio4V1_017BnHwRadioResponse35_hidl_getGsmBroadcastConfigResponseEPNS_4hidl4base4V1_08BnHwBaseERKNS0_6ParcelEPS9_NSt3__18functionIFvRS9_EEE
_ZN7android8hardware5radio4V1_017BnHwRadioResponse35_hidl_iccOpenLogicalChannelResponseEPNS_4hidl4base4V1_08BnHwBaseERKNS0_6ParcelEPS9_NSt3__18functionIFvRS9_EEE
_ZN7android8hardware5radio4V1_017BnHwRadioResponse35_hidl_reportSmsMemoryStatusResponseEPNS_4hidl4base4V1_08BnHwBaseERKNS0_6ParcelEPS9_NSt3__18functionIFvRS9_EEE
_ZN7android8hardware5radio4V1_017BnHwRadioResponse35_hidl_setFacilityLockForAppResponseEPNS_4hidl4base4V1_08BnHwBaseERKNS0_6ParcelEPS9_NSt3__18functionIFvRS9_EEE
_ZN7android8hardware5radio4V1_017BnHwRadioResponse35_hidl_setGsmBroadcastConfigResponseEPNS_4hidl4base4V1_08BnHwBaseERKNS0_6ParcelEPS9_NSt3__18functionIFvRS9_EEE
_ZN7android8hardware5radio4V1_017BnHwRadioResponse36_hidl_getCdmaBroadcastConfigResponseEPNS_4hidl4base4V1_08BnHwBaseERKNS0_6ParcelEPS9_NSt3__18functionIFvRS9_EEE
_ZN7android8hardware5radio4V1_017BnHwRadioResponse36_hidl_iccCloseLogicalChannelResponseEPNS_4hidl4base4V1_08BnHwBaseERKNS0_6ParcelEPS9_NSt3__18functionIFvRS9_EEE
_ZN7android8hardware5radio4V1_017BnHwRadioResponse36_hidl_sendEnvelopeWithStatusResponseEPNS_4hidl4base4V1_08BnHwBaseERKNS0_6ParcelEPS9_NSt3__18functionIFvRS9_EEE
_ZN7android8hardware5radio4V1_017BnHwRadioResponse36_hidl_setCdmaBroadcastConfigResponseEPNS_4hidl4base4V1_08BnHwBaseERKNS0_6ParcelEPS9_NSt3__18functionIFvRS9_EEE
_ZN7android8hardware5radio4V1_017BnHwRadioResponse37_hidl_getImsRegistrationStateResponseEPNS_4hidl4base4V1_08BnHwBaseERKNS0_6ParcelEPS9_NSt3__18functionIFvRS9_EEE
_ZN7android8hardware5radio4V1_017BnHwRadioResponse37_hidl_getNetworkSelectionModeResponseEPNS_4hidl4base4V1_08BnHwBaseERKNS0_6ParcelEPS9_NSt3__18functionIFvRS9_EEE
_ZN7android8hardware5radio4V1_017BnHwRadioResponse37_hidl_getPreferredNetworkTypeResponseEPNS_4hidl4base4V1_08BnHwBaseERKNS0_6ParcelEPS9_NSt3__18functionIFvRS9_EEE
_ZN7android8hardware5radio4V1_017BnHwRadioResponse37_hidl_getVoiceRadioTechnologyResponseEPNS_4hidl4base4V1_08BnHwBaseERKNS0_6ParcelEPS9_NSt3__18functionIFvRS9_EEE
_ZN7android8hardware5radio4V1_017BnHwRadioResponse37_hidl_setPreferredNetworkTypeResponseEPNS_4hidl4base4V1_08BnHwBaseERKNS0_6ParcelEPS9_NSt3__18functionIFvRS9_EEE
_ZN7android8hardware5radio4V1_017BnHwRadioResponse38_hidl_getCdmaRoamingPreferenceResponseEPNS_4hidl4base4V1_08BnHwBaseERKNS0_6ParcelEPS9_NSt3__18functionIFvRS9_EEE
_ZN7android8hardware5radio4V1_017BnHwRadioResponse38_hidl_getDataRegistrationStateResponseEPNS_4hidl4base4V1_08BnHwBaseERKNS0_6ParcelEPS9_NSt3__18functionIFvRS9_EEE
_ZN7android8hardware5radio4V1_017BnHwRadioResponse38_hidl_getPreferredVoicePrivacyResponseEPNS_4hidl4base4V1_08BnHwBaseERKNS0_6ParcelEPS9_NSt3__18functionIFvRS9_EEE
_ZN7android8hardware5radio4V1_017BnHwRadioResponse38_hidl_setCdmaRoamingPreferenceResponseEPNS_4hidl4base4V1_08BnHwBaseERKNS0_6ParcelEPS9_NSt3__18functionIFvRS9_EEE
_ZN7android8hardware5radio4V1_017BnHwRadioResponse38_hidl_setPreferredVoicePrivacyResponseEPNS_4hidl4base4V1_08BnHwBaseERKNS0_6ParcelEPS9_NSt3__18functionIFvRS9_EEE
_ZN7android8hardware5radio4V1_017BnHwRadioResponse39_hidl_exitEmergencyCallbackModeResponseEPNS_4hidl4base4V1_08BnHwBaseERKNS0_6ParcelEPS9_NSt3__18functionIFvRS9_EEE
_ZN7android8hardware5radio4V1_017BnHwRadioResponse39_hidl_getCdmaSubscriptionSourceResponseEPNS_4hidl4base4V1_08BnHwBaseERKNS0_6ParcelEPS9_NSt3__18functionIFvRS9_EEE
_ZN7android8hardware5radio4V1_017BnHwRadioResponse39_hidl_getVoiceRegistrationStateResponseEPNS_4hidl4base4V1_08BnHwBaseERKNS0_6ParcelEPS9_NSt3__18functionIFvRS9_EEE
_ZN7android8hardware5radio4V1_017BnHwRadioResponse39_hidl_hangupWaitingOrBackgroundResponseEPNS_4hidl4base4V1_08BnHwBaseERKNS0_6ParcelEPS9_NSt3__18functionIFvRS9_EEE
_ZN7android8hardware5radio4V1_017BnHwRadioResponse39_hidl_reportStkServiceIsRunningResponseEPNS_4hidl4base4V1_08BnHwBaseERKNS0_6ParcelEPS9_NSt3__18functionIFvRS9_EEE
_ZN7android8hardware5radio4V1_017BnHwRadioResponse39_hidl_requestIsimAuthenticationResponseEPNS_4hidl4base4V1_08BnHwBaseERKNS0_6ParcelEPS9_NSt3__18functionIFvRS9_EEE
_ZN7android8hardware5radio4V1_017BnHwRadioResponse39_hidl_sendTerminalResponseToSimResponseEPNS_4hidl4base4V1_08BnHwBaseERKNS0_6ParcelEPS9_NSt3__18functionIFvRS9_EEE
_ZN7android8hardware5radio4V1_017BnHwRadioResponse39_hidl_setCdmaSubscriptionSourceResponseEPNS_4hidl4base4V1_08BnHwBaseERKNS0_6ParcelEPS9_NSt3__18functionIFvRS9_EEE
_ZN7android8hardware5radio4V1_017BnHwRadioResponse39_hidl_setGsmBroadcastActivationResponseEPNS_4hidl4base4V1_08BnHwBaseERKNS0_6ParcelEPS9_NSt3__18functionIFvRS9_EEE
_ZN7android8hardware5radio4V1_017BnHwRadioResponse40_hidl_setCdmaBroadcastActivationResponseEPNS_4hidl4base4V1_08BnHwBaseERKNS0_6ParcelEPS9_NSt3__18functionIFvRS9_EEE
_ZN7android8hardware5radio4V1_017BnHwRadioResponse41_hidl_iccTransmitApduBasicChannelResponseEPNS_4hidl4base4V1_08BnHwBaseERKNS0_6ParcelEPS9_NSt3__18functionIFvRS9_EEE
_ZN7android8hardware5radio4V1_017BnHwRadioResponse41_hidl_requestIccSimAuthenticationResponseEPNS_4hidl4base4V1_08BnHwBaseERKNS0_6ParcelEPS9_NSt3__18functionIFvRS9_EEE
_ZN7android8hardware5radio4V1_017BnHwRadioResponse41_hidl_setSuppServiceNotificationsResponseEPNS_4hidl4base4V1_08BnHwBaseERKNS0_6ParcelEPS9_NSt3__18functionIFvRS9_EEE
_ZN7android8hardware5radio4V1_017BnHwRadioResponse43_hidl_acknowledgeLastIncomingGsmSmsResponseEPNS_4hidl4base4V1_08BnHwBaseERKNS0_6ParcelEPS9_NSt3__18functionIFvRS9_EEE
_ZN7android8hardware5radio4V1_017BnHwRadioResponse43_hidl_iccTransmitApduLogicalChannelResponseEPNS_4hidl4base4V1_08BnHwBaseERKNS0_6ParcelEPS9_NSt3__18functionIFvRS9_EEE
_ZN7android8hardware5radio4V1_017BnHwRadioResponse43_hidl_setNetworkSelectionModeManualResponseEPNS_4hidl4base4V1_08BnHwBaseERKNS0_6ParcelEPS9_NSt3__18functionIFvRS9_EEE
_ZN7android8hardware5radio4V1_017BnHwRadioResponse44_hidl_acknowledgeLastIncomingCdmaSmsResponseEPNS_4hidl4base4V1_08BnHwBaseERKNS0_6ParcelEPS9_NSt3__18functionIFvRS9_EEE
_ZN7android8hardware5radio4V1_017BnHwRadioResponse44_hidl_supplyNetworkDepersonalizationResponseEPNS_4hidl4base4V1_08BnHwBaseERKNS0_6ParcelEPS9_NSt3__18functionIFvRS9_EEE
_ZN7android8hardware5radio4V1_017BnHwRadioResponse45_hidl_switchWaitingOrHoldingAndActiveResponseEPNS_4hidl4base4V1_08BnHwBaseERKNS0_6ParcelEPS9_NSt3__18functionIFvRS9_EEE
_ZN7android8hardware5radio4V1_017BnHwRadioResponse46_hidl_acknowledgeIncomingGsmSmsWithPduResponseEPNS_4hidl4base4V1_08BnHwBaseERKNS0_6ParcelEPS9_NSt3__18functionIFvRS9_EEE
_ZN7android8hardware5radio4V1_017BnHwRadioResponse46_hidl_handleStkCallSetupRequestFromSimResponseEPNS_4hidl4base4V1_08BnHwBaseERKNS0_6ParcelEPS9_NSt3__18functionIFvRS9_EEE
_ZN7android8hardware5radio4V1_017BnHwRadioResponse46_hidl_hangupForegroundResumeBackgroundResponseEPNS_4hidl4base4V1_08BnHwBaseERKNS0_6ParcelEPS9_NSt3__18functionIFvRS9_EEE
_ZN7android8hardware5radio4V1_017BnHwRadioResponse46_hidl_setNetworkSelectionModeAutomaticResponseEPNS_4hidl4base4V1_08BnHwBaseERKNS0_6ParcelEPS9_NSt3__18functionIFvRS9_EEE
_ZN7android8hardware5radio4V1_017BnHwRadioResponse4pingEv
_ZN7android8hardware5radio4V1_017BnHwRadioResponseC1ERKNS_2spINS2_14IRadioResponseEEE
_ZN7android8hardware5radio4V1_017BnHwRadioResponseC2ERKNS_2spINS2_14IRadioResponseEEE
_ZN7android8hardware5radio4V1_017BnHwRadioResponseD0Ev
_ZN7android8hardware5radio4V1_017BnHwRadioResponseD1Ev
_ZN7android8hardware5radio4V1_017BnHwRadioResponseD2Ev
_ZN7android8hardware5radio4V1_017BpHwRadioResponse11linkToDeathERKNS_2spINS0_20hidl_death_recipientEEEy
_ZN7android8hardware5radio4V1_017BpHwRadioResponse12dialResponseERKNS2_17RadioResponseInfoE
_ZN7android8hardware5radio4V1_017BpHwRadioResponse12getDebugInfoENSt3__18functionIFvRKNS_4hidl4base4V1_09DebugInfoEEEE
_ZN7android8hardware5radio4V1_017BpHwRadioResponse12getHashChainENSt3__18functionIFvRKNS0_8hidl_vecINS0_10hidl_arrayIhLj32EJEEEEEEEE
_ZN7android8hardware5radio4V1_017BpHwRadioResponse13unlinkToDeathERKNS_2spINS0_20hidl_death_recipientEEE
_ZN7android8hardware5radio4V1_017BpHwRadioResponse14interfaceChainENSt3__18functionIFvRKNS0_8hidl_vecINS0_11hidl_stringEEEEEE
_ZN7android8hardware5radio4V1_017BpHwRadioResponse15getClipResponseERKNS2_17RadioResponseInfoENS2_10ClipStatusE
_ZN7android8hardware5radio4V1_017BpHwRadioResponse15getClirResponseERKNS2_17RadioResponseInfoEii
_ZN7android8hardware5radio4V1_017BpHwRadioResponse15getMuteResponseERKNS2_17RadioResponseInfoEb
_ZN7android8hardware5radio4V1_017BpHwRadioResponse15sendSmsResponseERKNS2_17RadioResponseInfoERKNS2_13SendSmsResultE
_ZN7android8hardware5radio4V1_017BpHwRadioResponse15setClirResponseERKNS2_17RadioResponseInfoE
_ZN7android8hardware5radio4V1_017BpHwRadioResponse15setMuteResponseERKNS2_17RadioResponseInfoE
_ZN7android8hardware5radio4V1_017BpHwRadioResponse16sendDtmfResponseERKNS2_17RadioResponseInfoE
_ZN7android8hardware5radio4V1_017BpHwRadioResponse16sendUssdResponseERKNS2_17RadioResponseInfoE
_ZN7android8hardware5radio4V1_017BpHwRadioResponse16stopDtmfResponseERKNS2_17RadioResponseInfoE
_ZN7android8hardware5radio4V1_017BpHwRadioResponse17startDtmfResponseERKNS2_17RadioResponseInfoE
_ZN7android8hardware5radio4V1_017BpHwRadioResponse18_hidl_dialResponseEPNS0_10IInterfaceEPNS0_7details16HidlInstrumentorERKNS2_17RadioResponseInfoE
_ZN7android8hardware5radio4V1_017BpHwRadioResponse18acceptCallResponseERKNS2_17RadioResponseInfoE
_ZN7android8hardware5radio4V1_017BpHwRadioResponse18acknowledgeRequestEi
_ZN7android8hardware5radio4V1_017BpHwRadioResponse18conferenceResponseERKNS2_17RadioResponseInfoE
_ZN7android8hardware5radio4V1_017BpHwRadioResponse18getTTYModeResponseERKNS2_17RadioResponseInfoENS2_7TtyModeE
_ZN7android8hardware5radio4V1_017BpHwRadioResponse18nvReadItemResponseERKNS2_17RadioResponseInfoERKNS0_11hidl_stringE
_ZN7android8hardware5radio4V1_017BpHwRadioResponse18rejectCallResponseERKNS2_17RadioResponseInfoE
_ZN7android8hardware5radio4V1_017BpHwRadioResponse18sendImsSmsResponseERKNS2_17RadioResponseInfoERKNS2_13SendSmsResultE
_ZN7android8hardware5radio4V1_017BpHwRadioResponse18setTTYModeResponseERKNS2_17RadioResponseInfoE
_ZN7android8hardware5radio4V1_017BpHwRadioResponse19getOperatorResponseERKNS2_17RadioResponseInfoERKNS0_11hidl_stringES9_S9_
_ZN7android8hardware5radio4V1_017BpHwRadioResponse19iccIOForAppResponseERKNS2_17RadioResponseInfoERKNS2_11IccIoResultE
_ZN7android8hardware5radio4V1_017BpHwRadioResponse19interfaceDescriptorENSt3__18functionIFvRKNS0_11hidl_stringEEEE
_ZN7android8hardware5radio4V1_017BpHwRadioResponse19nvWriteItemResponseERKNS2_17RadioResponseInfoE
_ZN7android8hardware5radio4V1_017BpHwRadioResponse19pullLceDataResponseERKNS2_17RadioResponseInfoERKNS2_11LceDataInfoE
_ZN7android8hardware5radio4V1_017BpHwRadioResponse19sendCdmaSmsResponseERKNS2_17RadioResponseInfoERKNS2_13SendSmsResultE
_ZN7android8hardware5radio4V1_017BpHwRadioResponse19setBandModeResponseERKNS2_17RadioResponseInfoE
_ZN7android8hardware5radio4V1_017BpHwRadioResponse20sendEnvelopeResponseERKNS2_17RadioResponseInfoERKNS0_11hidl_stringE
_ZN7android8hardware5radio4V1_017BpHwRadioResponse21_hidl_getClipResponseEPNS0_10IInterfaceEPNS0_7details16HidlInstrumentorERKNS2_17RadioResponseInfoENS2_10ClipStatusE
_ZN7android8hardware5radio4V1_017BpHwRadioResponse21_hidl_getClirResponseEPNS0_10IInterfaceEPNS0_7details16HidlInstrumentorERKNS2_17RadioResponseInfoEii
_ZN7android8hardware5radio4V1_017BpHwRadioResponse21_hidl_getMuteResponseEPNS0_10IInterfaceEPNS0_7details16HidlInstrumentorERKNS2_17RadioResponseInfoEb
_ZN7android8hardware5radio4V1_017BpHwRadioResponse21_hidl_sendSmsResponseEPNS0_10IInterfaceEPNS0_7details16HidlInstrumentorERKNS2_17RadioResponseInfoERKNS2_13SendSmsResultE
_ZN7android8hardware5radio4V1_017BpHwRadioResponse21_hidl_setClirResponseEPNS0_10IInterfaceEPNS0_7details16HidlInstrumentorERKNS2_17RadioResponseInfoE
_ZN7android8hardware5radio4V1_017BpHwRadioResponse21_hidl_setMuteResponseEPNS0_10IInterfaceEPNS0_7details16HidlInstrumentorERKNS2_17RadioResponseInfoE
_ZN7android8hardware5radio4V1_017BpHwRadioResponse21getIMSIForAppResponseERKNS2_17RadioResponseInfoERKNS0_11hidl_stringE
_ZN7android8hardware5radio4V1_017BpHwRadioResponse21notifySyspropsChangedEv
_ZN7android8hardware5radio4V1_017BpHwRadioResponse21nvResetConfigResponseERKNS2_17RadioResponseInfoE
_ZN7android8hardware5radio4V1_017BpHwRadioResponse21sendBurstDtmfResponseERKNS2_17RadioResponseInfoE
_ZN7android8hardware5radio4V1_017BpHwRadioResponse21setHALInstrumentationEv
_ZN7android8hardware5radio4V1_017BpHwRadioResponse21setRadioPowerResponseERKNS2_17RadioResponseInfoE
_ZN7android8hardware5radio4V1_017BpHwRadioResponse21setupDataCallResponseERKNS2_17RadioResponseInfoERKNS2_19SetupDataCallResultE
_ZN7android8hardware5radio4V1_017BpHwRadioResponse21writeSmsToSimResponseERKNS2_17RadioResponseInfoEi
_ZN7android8hardware5radio4V1_017BpHwRadioResponse22_hidl_sendDtmfResponseEPNS0_10IInterfaceEPNS0_7details16HidlInstrumentorERKNS2_17RadioResponseInfoE
_ZN7android8hardware5radio4V1_017BpHwRadioResponse22_hidl_sendUssdResponseEPNS0_10IInterfaceEPNS0_7details16HidlInstrumentorERKNS2_17RadioResponseInfoE
_ZN7android8hardware5radio4V1_017BpHwRadioResponse22_hidl_stopDtmfResponseEPNS0_10IInterfaceEPNS0_7details16HidlInstrumentorERKNS2_17RadioResponseInfoE
_ZN7android8hardware5radio4V1_017BpHwRadioResponse22deleteSmsOnSimResponseERKNS2_17RadioResponseInfoE
_ZN7android8hardware5radio4V1_017BpHwRadioResponse22getCallWaitingResponseERKNS2_17RadioResponseInfoEbi
_ZN7android8hardware5radio4V1_017BpHwRadioResponse22getSmscAddressResponseERKNS2_17RadioResponseInfoERKNS0_11hidl_stringE
_ZN7android8hardware5radio4V1_017BpHwRadioResponse22nvWriteCdmaPrlResponseERKNS2_17RadioResponseInfoE
_ZN7android8hardware5radio4V1_017BpHwRadioResponse22setCallForwardResponseERKNS2_17RadioResponseInfoE
_ZN7android8hardware5radio4V1_017BpHwRadioResponse22setCallWaitingResponseERKNS2_17RadioResponseInfoE
_ZN7android8hardware5radio4V1_017BpHwRadioResponse22setDataAllowedResponseERKNS2_17RadioResponseInfoE
_ZN7android8hardware5radio4V1_017BpHwRadioResponse22setDataProfileResponseERKNS2_17RadioResponseInfoE
_ZN7android8hardware5radio4V1_017BpHwRadioResponse22setSmscAddressResponseERKNS2_17RadioResponseInfoE
_ZN7android8hardware5radio4V1_017BpHwRadioResponse22stopLceServiceResponseERKNS2_17RadioResponseInfoERKNS2_13LceStatusInfoE
_ZN7android8hardware5radio4V1_017BpHwRadioResponse22writeSmsToRuimResponseERKNS2_17RadioResponseInfoEj
_ZN7android8hardware5radio4V1_017BpHwRadioResponse23_hidl_startDtmfResponseEPNS0_10IInterfaceEPNS0_7details16HidlInstrumentorERKNS2_17RadioResponseInfoE
_ZN7android8hardware5radio4V1_017BpHwRadioResponse23deleteSmsOnRuimResponseERKNS2_17RadioResponseInfoE
_ZN7android8hardware5radio4V1_017BpHwRadioResponse23getCellInfoListResponseERKNS2_17RadioResponseInfoERKNS0_8hidl_vecINS2_8CellInfoEEE
_ZN7android8hardware5radio4V1_017BpHwRadioResponse23getCurrentCallsResponseERKNS2_17RadioResponseInfoERKNS0_8hidl_vecINS2_4CallEEE
_ZN7android8hardware5radio4V1_017BpHwRadioResponse23getDataCallListResponseERKNS2_17RadioResponseInfoERKNS0_8hidl_vecINS2_19SetupDataCallResultEEE
_ZN7android8hardware5radio4V1_017BpHwRadioResponse23requestShutdownResponseERKNS2_17RadioResponseInfoE
_ZN7android8hardware5radio4V1_017BpHwRadioResponse23sendDeviceStateResponseERKNS2_17RadioResponseInfoE
_ZN7android8hardware5radio4V1_017BpHwRadioResponse23setSimCardPowerResponseERKNS2_17RadioResponseInfoE
_ZN7android8hardware5radio4V1_017BpHwRadioResponse23startLceServiceResponseERKNS2_17RadioResponseInfoERKNS2_13LceStatusInfoE
_ZN7android8hardware5radio4V1_017BpHwRadioResponse24_hidl_acceptCallResponseEPNS0_10IInterfaceEPNS0_7details16HidlInstrumentorERKNS2_17RadioResponseInfoE
_ZN7android8hardware5radio4V1_017BpHwRadioResponse24_hidl_acknowledgeRequestEPNS0_10IInterfaceEPNS0_7details16HidlInstrumentorEi
_ZN7android8hardware5radio4V1_017BpHwRadioResponse24_hidl_conferenceResponseEPNS0_10IInterfaceEPNS0_7details16HidlInstrumentorERKNS2_17RadioResponseInfoE
_ZN7android8hardware5radio4V1_017BpHwRadioResponse24_hidl_getTTYModeResponseEPNS0_10IInterfaceEPNS0_7details16HidlInstrumentorERKNS2_17RadioResponseInfoENS2_7TtyModeE
_ZN7android8hardware5radio4V1_017BpHwRadioResponse24_hidl_nvReadItemResponseEPNS0_10IInterfaceEPNS0_7details16HidlInstrumentorERKNS2_17RadioResponseInfoERKNS0_11hidl_stringE
_ZN7android8hardware5radio4V1_017BpHwRadioResponse24_hidl_rejectCallResponseEPNS0_10IInterfaceEPNS0_7details16HidlInstrumentorERKNS2_17RadioResponseInfoE
_ZN7android8hardware5radio4V1_017BpHwRadioResponse24_hidl_sendImsSmsResponseEPNS0_10IInterfaceEPNS0_7details16HidlInstrumentorERKNS2_17RadioResponseInfoERKNS2_13SendSmsResultE
_ZN7android8hardware5radio4V1_017BpHwRadioResponse24_hidl_setTTYModeResponseEPNS0_10IInterfaceEPNS0_7details16HidlInstrumentorERKNS2_17RadioResponseInfoE
_ZN7android8hardware5radio4V1_017BpHwRadioResponse24getIccCardStatusResponseERKNS2_17RadioResponseInfoERKNS2_10CardStatusE
_ZN7android8hardware5radio4V1_017BpHwRadioResponse24hangupConnectionResponseERKNS2_17RadioResponseInfoE
_ZN7android8hardware5radio4V1_017BpHwRadioResponse25_hidl_getOperatorResponseEPNS0_10IInterfaceEPNS0_7details16HidlInstrumentorERKNS2_17RadioResponseInfoERKNS0_11hidl_stringESE_SE_
_ZN7android8hardware5radio4V1_017BpHwRadioResponse25_hidl_iccIOForAppResponseEPNS0_10IInterfaceEPNS0_7details16HidlInstrumentorERKNS2_17RadioResponseInfoERKNS2_11IccIoResultE
_ZN7android8hardware5radio4V1_017BpHwRadioResponse25_hidl_nvWriteItemResponseEPNS0_10IInterfaceEPNS0_7details16HidlInstrumentorERKNS2_17RadioResponseInfoE
_ZN7android8hardware5radio4V1_017BpHwRadioResponse25_hidl_pullLceDataResponseEPNS0_10IInterfaceEPNS0_7details16HidlInstrumentorERKNS2_17RadioResponseInfoERKNS2_11LceDataInfoE
_ZN7android8hardware5radio4V1_017BpHwRadioResponse25_hidl_sendCdmaSmsResponseEPNS0_10IInterfaceEPNS0_7details16HidlInstrumentorERKNS2_17RadioResponseInfoERKNS2_13SendSmsResultE
_ZN7android8hardware5radio4V1_017BpHwRadioResponse25_hidl_setBandModeResponseEPNS0_10IInterfaceEPNS0_7details16HidlInstrumentorERKNS2_17RadioResponseInfoE
_ZN7android8hardware5radio4V1_017BpHwRadioResponse25cancelPendingUssdResponseERKNS2_17RadioResponseInfoE
_ZN7android8hardware5radio4V1_017BpHwRadioResponse25getDeviceIdentityResponseERKNS2_17RadioResponseInfoERKNS0_11hidl_stringES9_S9_S9_
_ZN7android8hardware5radio4V1_017BpHwRadioResponse25getHardwareConfigResponseERKNS2_17RadioResponseInfoERKNS0_8hidl_vecINS2_14HardwareConfigEEE
_ZN7android8hardware5radio4V1_017BpHwRadioResponse25getSignalStrengthResponseERKNS2_17RadioResponseInfoERKNS2_14SignalStrengthE
_ZN7android8hardware5radio4V1_017BpHwRadioResponse25sendSMSExpectMoreResponseERKNS2_17RadioResponseInfoERKNS2_13SendSmsResultE
_ZN7android8hardware5radio4V1_017BpHwRadioResponse26_hidl_sendEnvelopeResponseEPNS0_10IInterfaceEPNS0_7details16HidlInstrumentorERKNS2_17RadioResponseInfoERKNS0_11hidl_stringE
_ZN7android8hardware5radio4V1_017BpHwRadioResponse26changeIccPinForAppResponseERKNS2_17RadioResponseInfoEi
_ZN7android8hardware5radio4V1_017BpHwRadioResponse26deactivateDataCallResponseERKNS2_17RadioResponseInfoE
_ZN7android8hardware5radio4V1_017BpHwRadioResponse26getAllowedCarriersResponseERKNS2_17RadioResponseInfoEbRKNS2_19CarrierRestrictionsE
_ZN7android8hardware5radio4V1_017BpHwRadioResponse26getBasebandVersionResponseERKNS2_17RadioResponseInfoERKNS0_11hidl_stringE
_ZN7android8hardware5radio4V1_017BpHwRadioResponse26getNeighboringCidsResponseERKNS2_17RadioResponseInfoERKNS0_8hidl_vecINS2_15NeighboringCellEEE
_ZN7android8hardware5radio4V1_017BpHwRadioResponse26getRadioCapabilityResponseERKNS2_17RadioResponseInfoERKNS2_15RadioCapabilityE
_ZN7android8hardware5radio4V1_017BpHwRadioResponse26separateConnectionResponseERKNS2_17RadioResponseInfoE
_ZN7android8hardware5radio4V1_017BpHwRadioResponse26setAllowedCarriersResponseERKNS2_17RadioResponseInfoEi
_ZN7android8hardware5radio4V1_017BpHwRadioResponse26setBarringPasswordResponseERKNS2_17RadioResponseInfoE
_ZN7android8hardware5radio4V1_017BpHwRadioResponse26setLocationUpdatesResponseERKNS2_17RadioResponseInfoE
_ZN7android8hardware5radio4V1_017BpHwRadioResponse26setRadioCapabilityResponseERKNS2_17RadioResponseInfoERKNS2_15RadioCapabilityE
_ZN7android8hardware5radio4V1_017BpHwRadioResponse26supplyIccPinForAppResponseERKNS2_17RadioResponseInfoEi
_ZN7android8hardware5radio4V1_017BpHwRadioResponse26supplyIccPukForAppResponseERKNS2_17RadioResponseInfoEi
_ZN7android8hardware5radio4V1_017BpHwRadioResponse27_hidl_getIMSIForAppResponseEPNS0_10IInterfaceEPNS0_7details16HidlInstrumentorERKNS2_17RadioResponseInfoERKNS0_11hidl_stringE
_ZN7android8hardware5radio4V1_017BpHwRadioResponse27_hidl_nvResetConfigResponseEPNS0_10IInterfaceEPNS0_7details16HidlInstrumentorERKNS2_17RadioResponseInfoE
_ZN7android8hardware5radio4V1_017BpHwRadioResponse27_hidl_sendBurstDtmfResponseEPNS0_10IInterfaceEPNS0_7details16HidlInstrumentorERKNS2_17RadioResponseInfoE
_ZN7android8hardware5radio4V1_017BpHwRadioResponse27_hidl_setRadioPowerResponseEPNS0_10IInterfaceEPNS0_7details16HidlInstrumentorERKNS2_17RadioResponseInfoE
_ZN7android8hardware5radio4V1_017BpHwRadioResponse27_hidl_setupDataCallResponseEPNS0_10IInterfaceEPNS0_7details16HidlInstrumentorERKNS2_17RadioResponseInfoERKNS2_19SetupDataCallResultE
_ZN7android8hardware5radio4V1_017BpHwRadioResponse27_hidl_writeSmsToSimResponseEPNS0_10IInterfaceEPNS0_7details16HidlInstrumentorERKNS2_17RadioResponseInfoEi
_ZN7android8hardware5radio4V1_017BpHwRadioResponse27changeIccPin2ForAppResponseERKNS2_17RadioResponseInfoEi
_ZN7android8hardware5radio4V1_017BpHwRadioResponse27getCDMASubscriptionResponseERKNS2_17RadioResponseInfoERKNS0_11hidl_stringES9_S9_S9_S9_
_ZN7android8hardware5radio4V1_017BpHwRadioResponse27sendCDMAFeatureCodeResponseERKNS2_17RadioResponseInfoE
_ZN7android8hardware5radio4V1_017BpHwRadioResponse27setCellInfoListRateResponseERKNS2_17RadioResponseInfoE
_ZN7android8hardware5radio4V1_017BpHwRadioResponse27setIndicationFilterResponseERKNS2_17RadioResponseInfoE
_ZN7android8hardware5radio4V1_017BpHwRadioResponse27setInitialAttachApnResponseERKNS2_17RadioResponseInfoE
_ZN7android8hardware5radio4V1_017BpHwRadioResponse27setUiccSubscriptionResponseERKNS2_17RadioResponseInfoE
_ZN7android8hardware5radio4V1_017BpHwRadioResponse27supplyIccPin2ForAppResponseERKNS2_17RadioResponseInfoEi
_ZN7android8hardware5radio4V1_017BpHwRadioResponse27supplyIccPuk2ForAppResponseERKNS2_17RadioResponseInfoEi
_ZN7android8hardware5radio4V1_017BpHwRadioResponse28_hidl_deleteSmsOnSimResponseEPNS0_10IInterfaceEPNS0_7details16HidlInstrumentorERKNS2_17RadioResponseInfoE
_ZN7android8hardware5radio4V1_017BpHwRadioResponse28_hidl_getCallWaitingResponseEPNS0_10IInterfaceEPNS0_7details16HidlInstrumentorERKNS2_17RadioResponseInfoEbi
_ZN7android8hardware5radio4V1_017BpHwRadioResponse28_hidl_getSmscAddressResponseEPNS0_10IInterfaceEPNS0_7details16HidlInstrumentorERKNS2_17RadioResponseInfoERKNS0_11hidl_stringE
_ZN7android8hardware5radio4V1_017BpHwRadioResponse28_hidl_nvWriteCdmaPrlResponseEPNS0_10IInterfaceEPNS0_7details16HidlInstrumentorERKNS2_17RadioResponseInfoE
_ZN7android8hardware5radio4V1_017BpHwRadioResponse28_hidl_setCallForwardResponseEPNS0_10IInterfaceEPNS0_7details16HidlInstrumentorERKNS2_17RadioResponseInfoE
_ZN7android8hardware5radio4V1_017BpHwRadioResponse28_hidl_setCallWaitingResponseEPNS0_10IInterfaceEPNS0_7details16HidlInstrumentorERKNS2_17RadioResponseInfoE
_ZN7android8hardware5radio4V1_017BpHwRadioResponse28_hidl_setDataAllowedResponseEPNS0_10IInterfaceEPNS0_7details16HidlInstrumentorERKNS2_17RadioResponseInfoE
_ZN7android8hardware5radio4V1_017BpHwRadioResponse28_hidl_setDataProfileResponseEPNS0_10IInterfaceEPNS0_7details16HidlInstrumentorERKNS2_17RadioResponseInfoE
_ZN7android8hardware5radio4V1_017BpHwRadioResponse28_hidl_setSmscAddressResponseEPNS0_10IInterfaceEPNS0_7details16HidlInstrumentorERKNS2_17RadioResponseInfoE
_ZN7android8hardware5radio4V1_017BpHwRadioResponse28_hidl_stopLceServiceResponseEPNS0_10IInterfaceEPNS0_7details16HidlInstrumentorERKNS2_17RadioResponseInfoERKNS2_13LceStatusInfoE
_ZN7android8hardware5radio4V1_017BpHwRadioResponse28_hidl_writeSmsToRuimResponseEPNS0_10IInterfaceEPNS0_7details16HidlInstrumentorERKNS2_17RadioResponseInfoEj
_ZN7android8hardware5radio4V1_017BpHwRadioResponse28explicitCallTransferResponseERKNS2_17RadioResponseInfoE
_ZN7android8hardware5radio4V1_017BpHwRadioResponse28getAvailableNetworksResponseERKNS2_17RadioResponseInfoERKNS0_8hidl_vecINS2_12OperatorInfoEEE
_ZN7android8hardware5radio4V1_017BpHwRadioResponse28getCallForwardStatusResponseERKNS2_17RadioResponseInfoERKNS0_8hidl_vecINS2_15CallForwardInfoEEE
_ZN7android8hardware5radio4V1_017BpHwRadioResponse28getLastCallFailCauseResponseERKNS2_17RadioResponseInfoERKNS2_21LastCallFailCauseInfoE
_ZN7android8hardware5radio4V1_017BpHwRadioResponse28getModemActivityInfoResponseERKNS2_17RadioResponseInfoERKNS2_17ActivityStatsInfoE
_ZN7android8hardware5radio4V1_017BpHwRadioResponse29_hidl_deleteSmsOnRuimResponseEPNS0_10IInterfaceEPNS0_7details16HidlInstrumentorERKNS2_17RadioResponseInfoE
_ZN7android8hardware5radio4V1_017BpHwRadioResponse29_hidl_getCellInfoListResponseEPNS0_10IInterfaceEPNS0_7details16HidlInstrumentorERKNS2_17RadioResponseInfoERKNS0_8hidl_vecINS2_8CellInfoEEE
_ZN7android8hardware5radio4V1_017BpHwRadioResponse29_hidl_getCurrentCallsResponseEPNS0_10IInterfaceEPNS0_7details16HidlInstrumentorERKNS2_17RadioResponseInfoERKNS0_8hidl_vecINS2_4CallEEE
_ZN7android8hardware5radio4V1_017BpHwRadioResponse29_hidl_getDataCallListResponseEPNS0_10IInterfaceEPNS0_7details16HidlInstrumentorERKNS2_17RadioResponseInfoERKNS0_8hidl_vecINS2_19SetupDataCallResultEEE
_ZN7android8hardware5radio4V1_017BpHwRadioResponse29_hidl_requestShutdownResponseEPNS0_10IInterfaceEPNS0_7details16HidlInstrumentorERKNS2_17RadioResponseInfoE
_ZN7android8hardware5radio4V1_017BpHwRadioResponse29_hidl_sendDeviceStateResponseEPNS0_10IInterfaceEPNS0_7details16HidlInstrumentorERKNS2_17RadioResponseInfoE
_ZN7android8hardware5radio4V1_017BpHwRadioResponse29_hidl_setSimCardPowerResponseEPNS0_10IInterfaceEPNS0_7details16HidlInstrumentorERKNS2_17RadioResponseInfoE
_ZN7android8hardware5radio4V1_017BpHwRadioResponse29_hidl_startLceServiceResponseEPNS0_10IInterfaceEPNS0_7details16HidlInstrumentorERKNS2_17RadioResponseInfoERKNS2_13LceStatusInfoE
_ZN7android8hardware5radio4V1_017BpHwRadioResponse29getAvailableBandModesResponseERKNS2_17RadioResponseInfoERKNS0_8hidl_vecINS2_13RadioBandModeEEE
_ZN7android8hardware5radio4V1_017BpHwRadioResponse29getFacilityLockForAppResponseERKNS2_17RadioResponseInfoEi
_ZN7android8hardware5radio4V1_017BpHwRadioResponse29getGsmBroadcastConfigResponseERKNS2_17RadioResponseInfoERKNS0_8hidl_vecINS2_25GsmBroadcastSmsConfigInfoEEE
_ZN7android8hardware5radio4V1_017BpHwRadioResponse29iccOpenLogicalChannelResponseERKNS2_17RadioResponseInfoEiRKNS0_8hidl_vecIaEE
_ZN7android8hardware5radio4V1_017BpHwRadioResponse29reportSmsMemoryStatusResponseERKNS2_17RadioResponseInfoE
_ZN7android8hardware5radio4V1_017BpHwRadioResponse29setFacilityLockForAppResponseERKNS2_17RadioResponseInfoEi
_ZN7android8hardware5radio4V1_017BpHwRadioResponse29setGsmBroadcastConfigResponseERKNS2_17RadioResponseInfoE
_ZN7android8hardware5radio4V1_017BpHwRadioResponse30_hidl_getIccCardStatusResponseEPNS0_10IInterfaceEPNS0_7details16HidlInstrumentorERKNS2_17RadioResponseInfoERKNS2_10CardStatusE
_ZN7android8hardware5radio4V1_017BpHwRadioResponse30_hidl_hangupConnectionResponseEPNS0_10IInterfaceEPNS0_7details16HidlInstrumentorERKNS2_17RadioResponseInfoE
_ZN7android8hardware5radio4V1_017BpHwRadioResponse30getCdmaBroadcastConfigResponseERKNS2_17RadioResponseInfoERKNS0_8hidl_vecINS2_26CdmaBroadcastSmsConfigInfoEEE
_ZN7android8hardware5radio4V1_017BpHwRadioResponse30iccCloseLogicalChannelResponseERKNS2_17RadioResponseInfoE
_ZN7android8hardware5radio4V1_017BpHwRadioResponse30sendEnvelopeWithStatusResponseERKNS2_17RadioResponseInfoERKNS2_11IccIoResultE
_ZN7android8hardware5radio4V1_017BpHwRadioResponse30setCdmaBroadcastConfigResponseERKNS2_17RadioResponseInfoE
_ZN7android8hardware5radio4V1_017BpHwRadioResponse31_hidl_cancelPendingUssdResponseEPNS0_10IInterfaceEPNS0_7details16HidlInstrumentorERKNS2_17RadioResponseInfoE
_ZN7android8hardware5radio4V1_017BpHwRadioResponse31_hidl_getDeviceIdentityResponseEPNS0_10IInterfaceEPNS0_7details16HidlInstrumentorERKNS2_17RadioResponseInfoERKNS0_11hidl_stringESE_SE_SE_
_ZN7android8hardware5radio4V1_017BpHwRadioResponse31_hidl_getHardwareConfigResponseEPNS0_10IInterfaceEPNS0_7details16HidlInstrumentorERKNS2_17RadioResponseInfoERKNS0_8hidl_vecINS2_14HardwareConfigEEE
_ZN7android8hardware5radio4V1_017BpHwRadioResponse31_hidl_getSignalStrengthResponseEPNS0_10IInterfaceEPNS0_7details16HidlInstrumentorERKNS2_17RadioResponseInfoERKNS2_14SignalStrengthE
_ZN7android8hardware5radio4V1_017BpHwRadioResponse31_hidl_sendSMSExpectMoreResponseEPNS0_10IInterfaceEPNS0_7details16HidlInstrumentorERKNS2_17RadioResponseInfoERKNS2_13SendSmsResultE
_ZN7android8hardware5radio4V1_017BpHwRadioResponse31getImsRegistrationStateResponseERKNS2_17RadioResponseInfoEbNS2_21RadioTechnologyFamilyE
_ZN7android8hardware5radio4V1_017BpHwRadioResponse31getNetworkSelectionModeResponseERKNS2_17RadioResponseInfoEb
_ZN7android8hardware5radio4V1_017BpHwRadioResponse31getPreferredNetworkTypeResponseERKNS2_17RadioResponseInfoENS2_20PreferredNetworkTypeE
_ZN7android8hardware5radio4V1_017BpHwRadioResponse31getVoiceRadioTechnologyResponseERKNS2_17RadioResponseInfoENS2_15RadioTechnologyE
_ZN7android8hardware5radio4V1_017BpHwRadioResponse31setPreferredNetworkTypeResponseERKNS2_17RadioResponseInfoE
_ZN7android8hardware5radio4V1_017BpHwRadioResponse32_hidl_changeIccPinForAppResponseEPNS0_10IInterfaceEPNS0_7details16HidlInstrumentorERKNS2_17RadioResponseInfoEi
_ZN7android8hardware5radio4V1_017BpHwRadioResponse32_hidl_deactivateDataCallResponseEPNS0_10IInterfaceEPNS0_7details16HidlInstrumentorERKNS2_17RadioResponseInfoE
_ZN7android8hardware5radio4V1_017BpHwRadioResponse32_hidl_getAllowedCarriersResponseEPNS0_10IInterfaceEPNS0_7details16HidlInstrumentorERKNS2_17RadioResponseInfoEbRKNS2_19CarrierRestrictionsE
_ZN7android8hardware5radio4V1_017BpHwRadioResponse32_hidl_getBasebandVersionResponseEPNS0_10IInterfaceEPNS0_7details16HidlInstrumentorERKNS2_17RadioResponseInfoERKNS0_11hidl_stringE
_ZN7android8hardware5radio4V1_017BpHwRadioResponse32_hidl_getNeighboringCidsResponseEPNS0_10IInterfaceEPNS0_7details16HidlInstrumentorERKNS2_17RadioResponseInfoERKNS0_8hidl_vecINS2_15NeighboringCellEEE
_ZN7android8hardware5radio4V1_017BpHwRadioResponse32_hidl_getRadioCapabilityResponseEPNS0_10IInterfaceEPNS0_7details16HidlInstrumentorERKNS2_17RadioResponseInfoERKNS2_15RadioCapabilityE
_ZN7android8hardware5radio4V1_017BpHwRadioResponse32_hidl_separateConnectionResponseEPNS0_10IInterfaceEPNS0_7details16HidlInstrumentorERKNS2_17RadioResponseInfoE
_ZN7android8hardware5radio4V1_017BpHwRadioResponse32_hidl_setAllowedCarriersResponseEPNS0_10IInterfaceEPNS0_7details16HidlInstrumentorERKNS2_17RadioResponseInfoEi
_ZN7android8hardware5radio4V1_017BpHwRadioResponse32_hidl_setBarringPasswordResponseEPNS0_10IInterfaceEPNS0_7details16HidlInstrumentorERKNS2_17RadioResponseInfoE
_ZN7android8hardware5radio4V1_017BpHwRadioResponse32_hidl_setLocationUpdatesResponseEPNS0_10IInterfaceEPNS0_7details16HidlInstrumentorERKNS2_17RadioResponseInfoE
_ZN7android8hardware5radio4V1_017BpHwRadioResponse32_hidl_setRadioCapabilityResponseEPNS0_10IInterfaceEPNS0_7details16HidlInstrumentorERKNS2_17RadioResponseInfoERKNS2_15RadioCapabilityE
_ZN7android8hardware5radio4V1_017BpHwRadioResponse32_hidl_supplyIccPinForAppResponseEPNS0_10IInterfaceEPNS0_7details16HidlInstrumentorERKNS2_17RadioResponseInfoEi
_ZN7android8hardware5radio4V1_017BpHwRadioResponse32_hidl_supplyIccPukForAppResponseEPNS0_10IInterfaceEPNS0_7details16HidlInstrumentorERKNS2_17RadioResponseInfoEi
_ZN7android8hardware5radio4V1_017BpHwRadioResponse32getCdmaRoamingPreferenceResponseERKNS2_17RadioResponseInfoENS2_15CdmaRoamingTypeE
_ZN7android8hardware5radio4V1_017BpHwRadioResponse32getDataRegistrationStateResponseERKNS2_17RadioResponseInfoERKNS2_18DataRegStateResultE
_ZN7android8hardware5radio4V1_017BpHwRadioResponse32getPreferredVoicePrivacyResponseERKNS2_17RadioResponseInfoEb
_ZN7android8hardware5radio4V1_017BpHwRadioResponse32setCdmaRoamingPreferenceResponseERKNS2_17RadioResponseInfoE
_ZN7android8hardware5radio4V1_017BpHwRadioResponse32setPreferredVoicePrivacyResponseERKNS2_17RadioResponseInfoE
_ZN7android8hardware5radio4V1_017BpHwRadioResponse33_hidl_changeIccPin2ForAppResponseEPNS0_10IInterfaceEPNS0_7details16HidlInstrumentorERKNS2_17RadioResponseInfoEi
_ZN7android8hardware5radio4V1_017BpHwRadioResponse33_hidl_getCDMASubscriptionResponseEPNS0_10IInterfaceEPNS0_7details16HidlInstrumentorERKNS2_17RadioResponseInfoERKNS0_11hidl_stringESE_SE_SE_SE_
_ZN7android8hardware5radio4V1_017BpHwRadioResponse33_hidl_sendCDMAFeatureCodeResponseEPNS0_10IInterfaceEPNS0_7details16HidlInstrumentorERKNS2_17RadioResponseInfoE
_ZN7android8hardware5radio4V1_017BpHwRadioResponse33_hidl_setCellInfoListRateResponseEPNS0_10IInterfaceEPNS0_7details16HidlInstrumentorERKNS2_17RadioResponseInfoE
_ZN7android8hardware5radio4V1_017BpHwRadioResponse33_hidl_setIndicationFilterResponseEPNS0_10IInterfaceEPNS0_7details16HidlInstrumentorERKNS2_17RadioResponseInfoE
_ZN7android8hardware5radio4V1_017BpHwRadioResponse33_hidl_setInitialAttachApnResponseEPNS0_10IInterfaceEPNS0_7details16HidlInstrumentorERKNS2_17RadioResponseInfoE
_ZN7android8hardware5radio4V1_017BpHwRadioResponse33_hidl_setUiccSubscriptionResponseEPNS0_10IInterfaceEPNS0_7details16HidlInstrumentorERKNS2_17RadioResponseInfoE
_ZN7android8hardware5radio4V1_017BpHwRadioResponse33_hidl_supplyIccPin2ForAppResponseEPNS0_10IInterfaceEPNS0_7details16HidlInstrumentorERKNS2_17RadioResponseInfoEi
_ZN7android8hardware5radio4V1_017BpHwRadioResponse33_hidl_supplyIccPuk2ForAppResponseEPNS0_10IInterfaceEPNS0_7details16HidlInstrumentorERKNS2_17RadioResponseInfoEi
_ZN7android8hardware5radio4V1_017BpHwRadioResponse33exitEmergencyCallbackModeResponseERKNS2_17RadioResponseInfoE
_ZN7android8hardware5radio4V1_017BpHwRadioResponse33getCdmaSubscriptionSourceResponseERKNS2_17RadioResponseInfoENS2_22CdmaSubscriptionSourceE
_ZN7android8hardware5radio4V1_017BpHwRadioResponse33getVoiceRegistrationStateResponseERKNS2_17RadioResponseInfoERKNS2_19VoiceRegStateResultE
_ZN7android8hardware5radio4V1_017BpHwRadioResponse33hangupWaitingOrBackgroundResponseERKNS2_17RadioResponseInfoE
_ZN7android8hardware5radio4V1_017BpHwRadioResponse33reportStkServiceIsRunningResponseERKNS2_17RadioResponseInfoE
_ZN7android8hardware5radio4V1_017BpHwRadioResponse33requestIsimAuthenticationResponseERKNS2_17RadioResponseInfoERKNS0_11hidl_stringE
_ZN7android8hardware5radio4V1_017BpHwRadioResponse33sendTerminalResponseToSimResponseERKNS2_17RadioResponseInfoE
_ZN7android8hardware5radio4V1_017BpHwRadioResponse33setCdmaSubscriptionSourceResponseERKNS2_17RadioResponseInfoE
_ZN7android8hardware5radio4V1_017BpHwRadioResponse33setGsmBroadcastActivationResponseERKNS2_17RadioResponseInfoE
_ZN7android8hardware5radio4V1_017BpHwRadioResponse34_hidl_explicitCallTransferResponseEPNS0_10IInterfaceEPNS0_7details16HidlInstrumentorERKNS2_17RadioResponseInfoE
_ZN7android8hardware5radio4V1_017BpHwRadioResponse34_hidl_getAvailableNetworksResponseEPNS0_10IInterfaceEPNS0_7details16HidlInstrumentorERKNS2_17RadioResponseInfoERKNS0_8hidl_vecINS2_12OperatorInfoEEE
_ZN7android8hardware5radio4V1_017BpHwRadioResponse34_hidl_getCallForwardStatusResponseEPNS0_10IInterfaceEPNS0_7details16HidlInstrumentorERKNS2_17RadioResponseInfoERKNS0_8hidl_vecINS2_15CallForwardInfoEEE
_ZN7android8hardware5radio4V1_017BpHwRadioResponse34_hidl_getLastCallFailCauseResponseEPNS0_10IInterfaceEPNS0_7details16HidlInstrumentorERKNS2_17RadioResponseInfoERKNS2_21LastCallFailCauseInfoE
_ZN7android8hardware5radio4V1_017BpHwRadioResponse34_hidl_getModemActivityInfoResponseEPNS0_10IInterfaceEPNS0_7details16HidlInstrumentorERKNS2_17RadioResponseInfoERKNS2_17ActivityStatsInfoE
_ZN7android8hardware5radio4V1_017BpHwRadioResponse34setCdmaBroadcastActivationResponseERKNS2_17RadioResponseInfoE
_ZN7android8hardware5radio4V1_017BpHwRadioResponse35_hidl_getAvailableBandModesResponseEPNS0_10IInterfaceEPNS0_7details16HidlInstrumentorERKNS2_17RadioResponseInfoERKNS0_8hidl_vecINS2_13RadioBandModeEEE
_ZN7android8hardware5radio4V1_017BpHwRadioResponse35_hidl_getFacilityLockForAppResponseEPNS0_10IInterfaceEPNS0_7details16HidlInstrumentorERKNS2_17RadioResponseInfoEi
_ZN7android8hardware5radio4V1_017BpHwRadioResponse35_hidl_getGsmBroadcastConfigResponseEPNS0_10IInterfaceEPNS0_7details16HidlInstrumentorERKNS2_17RadioResponseInfoERKNS0_8hidl_vecINS2_25GsmBroadcastSmsConfigInfoEEE
_ZN7android8hardware5radio4V1_017BpHwRadioResponse35_hidl_iccOpenLogicalChannelResponseEPNS0_10IInterfaceEPNS0_7details16HidlInstrumentorERKNS2_17RadioResponseInfoEiRKNS0_8hidl_vecIaEE
_ZN7android8hardware5radio4V1_017BpHwRadioResponse35_hidl_reportSmsMemoryStatusResponseEPNS0_10IInterfaceEPNS0_7details16HidlInstrumentorERKNS2_17RadioResponseInfoE
_ZN7android8hardware5radio4V1_017BpHwRadioResponse35_hidl_setFacilityLockForAppResponseEPNS0_10IInterfaceEPNS0_7details16HidlInstrumentorERKNS2_17RadioResponseInfoEi
_ZN7android8hardware5radio4V1_017BpHwRadioResponse35_hidl_setGsmBroadcastConfigResponseEPNS0_10IInterfaceEPNS0_7details16HidlInstrumentorERKNS2_17RadioResponseInfoE
_ZN7android8hardware5radio4V1_017BpHwRadioResponse35iccTransmitApduBasicChannelResponseERKNS2_17RadioResponseInfoERKNS2_11IccIoResultE
_ZN7android8hardware5radio4V1_017BpHwRadioResponse35requestIccSimAuthenticationResponseERKNS2_17RadioResponseInfoERKNS2_11IccIoResultE
_ZN7android8hardware5radio4V1_017BpHwRadioResponse35setSuppServiceNotificationsResponseERKNS2_17RadioResponseInfoE
_ZN7android8hardware5radio4V1_017BpHwRadioResponse36_hidl_getCdmaBroadcastConfigResponseEPNS0_10IInterfaceEPNS0_7details16HidlInstrumentorERKNS2_17RadioResponseInfoERKNS0_8hidl_vecINS2_26CdmaBroadcastSmsConfigInfoEEE
_ZN7android8hardware5radio4V1_017BpHwRadioResponse36_hidl_iccCloseLogicalChannelResponseEPNS0_10IInterfaceEPNS0_7details16HidlInstrumentorERKNS2_17RadioResponseInfoE
_ZN7android8hardware5radio4V1_017BpHwRadioResponse36_hidl_sendEnvelopeWithStatusResponseEPNS0_10IInterfaceEPNS0_7details16HidlInstrumentorERKNS2_17RadioResponseInfoERKNS2_11IccIoResultE
_ZN7android8hardware5radio4V1_017BpHwRadioResponse36_hidl_setCdmaBroadcastConfigResponseEPNS0_10IInterfaceEPNS0_7details16HidlInstrumentorERKNS2_17RadioResponseInfoE
_ZN7android8hardware5radio4V1_017BpHwRadioResponse37_hidl_getImsRegistrationStateResponseEPNS0_10IInterfaceEPNS0_7details16HidlInstrumentorERKNS2_17RadioResponseInfoEbNS2_21RadioTechnologyFamilyE
_ZN7android8hardware5radio4V1_017BpHwRadioResponse37_hidl_getNetworkSelectionModeResponseEPNS0_10IInterfaceEPNS0_7details16HidlInstrumentorERKNS2_17RadioResponseInfoEb
_ZN7android8hardware5radio4V1_017BpHwRadioResponse37_hidl_getPreferredNetworkTypeResponseEPNS0_10IInterfaceEPNS0_7details16HidlInstrumentorERKNS2_17RadioResponseInfoENS2_20PreferredNetworkTypeE
_ZN7android8hardware5radio4V1_017BpHwRadioResponse37_hidl_getVoiceRadioTechnologyResponseEPNS0_10IInterfaceEPNS0_7details16HidlInstrumentorERKNS2_17RadioResponseInfoENS2_15RadioTechnologyE
_ZN7android8hardware5radio4V1_017BpHwRadioResponse37_hidl_setPreferredNetworkTypeResponseEPNS0_10IInterfaceEPNS0_7details16HidlInstrumentorERKNS2_17RadioResponseInfoE
_ZN7android8hardware5radio4V1_017BpHwRadioResponse37acknowledgeLastIncomingGsmSmsResponseERKNS2_17RadioResponseInfoE
_ZN7android8hardware5radio4V1_017BpHwRadioResponse37iccTransmitApduLogicalChannelResponseERKNS2_17RadioResponseInfoERKNS2_11IccIoResultE
_ZN7android8hardware5radio4V1_017BpHwRadioResponse37setNetworkSelectionModeManualResponseERKNS2_17RadioResponseInfoE
_ZN7android8hardware5radio4V1_017BpHwRadioResponse38_hidl_getCdmaRoamingPreferenceResponseEPNS0_10IInterfaceEPNS0_7details16HidlInstrumentorERKNS2_17RadioResponseInfoENS2_15CdmaRoamingTypeE
_ZN7android8hardware5radio4V1_017BpHwRadioResponse38_hidl_getDataRegistrationStateResponseEPNS0_10IInterfaceEPNS0_7details16HidlInstrumentorERKNS2_17RadioResponseInfoERKNS2_18DataRegStateResultE
_ZN7android8hardware5radio4V1_017BpHwRadioResponse38_hidl_getPreferredVoicePrivacyResponseEPNS0_10IInterfaceEPNS0_7details16HidlInstrumentorERKNS2_17RadioResponseInfoEb
_ZN7android8hardware5radio4V1_017BpHwRadioResponse38_hidl_setCdmaRoamingPreferenceResponseEPNS0_10IInterfaceEPNS0_7details16HidlInstrumentorERKNS2_17RadioResponseInfoE
_ZN7android8hardware5radio4V1_017BpHwRadioResponse38_hidl_setPreferredVoicePrivacyResponseEPNS0_10IInterfaceEPNS0_7details16HidlInstrumentorERKNS2_17RadioResponseInfoE
_ZN7android8hardware5radio4V1_017BpHwRadioResponse38acknowledgeLastIncomingCdmaSmsResponseERKNS2_17RadioResponseInfoE
_ZN7android8hardware5radio4V1_017BpHwRadioResponse38supplyNetworkDepersonalizationResponseERKNS2_17RadioResponseInfoEi
_ZN7android8hardware5radio4V1_017BpHwRadioResponse39_hidl_exitEmergencyCallbackModeResponseEPNS0_10IInterfaceEPNS0_7details16HidlInstrumentorERKNS2_17RadioResponseInfoE
_ZN7android8hardware5radio4V1_017BpHwRadioResponse39_hidl_getCdmaSubscriptionSourceResponseEPNS0_10IInterfaceEPNS0_7details16HidlInstrumentorERKNS2_17RadioResponseInfoENS2_22CdmaSubscriptionSourceE
_ZN7android8hardware5radio4V1_017BpHwRadioResponse39_hidl_getVoiceRegistrationStateResponseEPNS0_10IInterfaceEPNS0_7details16HidlInstrumentorERKNS2_17RadioResponseInfoERKNS2_19VoiceRegStateResultE
_ZN7android8hardware5radio4V1_017BpHwRadioResponse39_hidl_hangupWaitingOrBackgroundResponseEPNS0_10IInterfaceEPNS0_7details16HidlInstrumentorERKNS2_17RadioResponseInfoE
_ZN7android8hardware5radio4V1_017BpHwRadioResponse39_hidl_reportStkServiceIsRunningResponseEPNS0_10IInterfaceEPNS0_7details16HidlInstrumentorERKNS2_17RadioResponseInfoE
_ZN7android8hardware5radio4V1_017BpHwRadioResponse39_hidl_requestIsimAuthenticationResponseEPNS0_10IInterfaceEPNS0_7details16HidlInstrumentorERKNS2_17RadioResponseInfoERKNS0_11hidl_stringE
_ZN7android8hardware5radio4V1_017BpHwRadioResponse39_hidl_sendTerminalResponseToSimResponseEPNS0_10IInterfaceEPNS0_7details16HidlInstrumentorERKNS2_17RadioResponseInfoE
_ZN7android8hardware5radio4V1_017BpHwRadioResponse39_hidl_setCdmaSubscriptionSourceResponseEPNS0_10IInterfaceEPNS0_7details16HidlInstrumentorERKNS2_17RadioResponseInfoE
_ZN7android8hardware5radio4V1_017BpHwRadioResponse39_hidl_setGsmBroadcastActivationResponseEPNS0_10IInterfaceEPNS0_7details16HidlInstrumentorERKNS2_17RadioResponseInfoE
_ZN7android8hardware5radio4V1_017BpHwRadioResponse39switchWaitingOrHoldingAndActiveResponseERKNS2_17RadioResponseInfoE
_ZN7android8hardware5radio4V1_017BpHwRadioResponse40_hidl_setCdmaBroadcastActivationResponseEPNS0_10IInterfaceEPNS0_7details16HidlInstrumentorERKNS2_17RadioResponseInfoE
_ZN7android8hardware5radio4V1_017BpHwRadioResponse40acknowledgeIncomingGsmSmsWithPduResponseERKNS2_17RadioResponseInfoE
_ZN7android8hardware5radio4V1_017BpHwRadioResponse40handleStkCallSetupRequestFromSimResponseERKNS2_17RadioResponseInfoE
_ZN7android8hardware5radio4V1_017BpHwRadioResponse40hangupForegroundResumeBackgroundResponseERKNS2_17RadioResponseInfoE
_ZN7android8hardware5radio4V1_017BpHwRadioResponse40setNetworkSelectionModeAutomaticResponseERKNS2_17RadioResponseInfoE
_ZN7android8hardware5radio4V1_017BpHwRadioResponse41_hidl_iccTransmitApduBasicChannelResponseEPNS0_10IInterfaceEPNS0_7details16HidlInstrumentorERKNS2_17RadioResponseInfoERKNS2_11IccIoResultE
_ZN7android8hardware5radio4V1_017BpHwRadioResponse41_hidl_requestIccSimAuthenticationResponseEPNS0_10IInterfaceEPNS0_7details16HidlInstrumentorERKNS2_17RadioResponseInfoERKNS2_11IccIoResultE
_ZN7android8hardware5radio4V1_017BpHwRadioResponse41_hidl_setSuppServiceNotificationsResponseEPNS0_10IInterfaceEPNS0_7details16HidlInstrumentorERKNS2_17RadioResponseInfoE
_ZN7android8hardware5radio4V1_017BpHwRadioResponse43_hidl_acknowledgeLastIncomingGsmSmsResponseEPNS0_10IInterfaceEPNS0_7details16HidlInstrumentorERKNS2_17RadioResponseInfoE
_ZN7android8hardware5radio4V1_017BpHwRadioResponse43_hidl_iccTransmitApduLogicalChannelResponseEPNS0_10IInterfaceEPNS0_7details16HidlInstrumentorERKNS2_17RadioResponseInfoERKNS2_11IccIoResultE
_ZN7android8hardware5radio4V1_017BpHwRadioResponse43_hidl_setNetworkSelectionModeManualResponseEPNS0_10IInterfaceEPNS0_7details16HidlInstrumentorERKNS2_17RadioResponseInfoE
_ZN7android8hardware5radio4V1_017BpHwRadioResponse44_hidl_acknowledgeLastIncomingCdmaSmsResponseEPNS0_10IInterfaceEPNS0_7details16HidlInstrumentorERKNS2_17RadioResponseInfoE
_ZN7android8hardware5radio4V1_017BpHwRadioResponse44_hidl_supplyNetworkDepersonalizationResponseEPNS0_10IInterfaceEPNS0_7details16HidlInstrumentorERKNS2_17RadioResponseInfoEi
_ZN7android8hardware5radio4V1_017BpHwRadioResponse45_hidl_switchWaitingOrHoldingAndActiveResponseEPNS0_10IInterfaceEPNS0_7details16HidlInstrumentorERKNS2_17RadioResponseInfoE
_ZN7android8hardware5radio4V1_017BpHwRadioResponse46_hidl_acknowledgeIncomingGsmSmsWithPduResponseEPNS0_10IInterfaceEPNS0_7details16HidlInstrumentorERKNS2_17RadioResponseInfoE
_ZN7android8hardware5radio4V1_017BpHwRadioResponse46_hidl_handleStkCallSetupRequestFromSimResponseEPNS0_10IInterfaceEPNS0_7details16HidlInstrumentorERKNS2_17RadioResponseInfoE
_ZN7android8hardware5radio4V1_017BpHwRadioResponse46_hidl_hangupForegroundResumeBackgroundResponseEPNS0_10IInterfaceEPNS0_7details16HidlInstrumentorERKNS2_17RadioResponseInfoE
_ZN7android8hardware5radio4V1_017BpHwRadioResponse46_hidl_setNetworkSelectionModeAutomaticResponseEPNS0_10IInterfaceEPNS0_7details16HidlInstrumentorERKNS2_17RadioResponseInfoE
_ZN7android8hardware5radio4V1_017BpHwRadioResponse4pingEv
_ZN7android8hardware5radio4V1_017BpHwRadioResponse5debugERKNS0_11hidl_handleERKNS0_8hidl_vecINS0_11hidl_stringEEE
_ZN7android8hardware5radio4V1_017BpHwRadioResponseC1ERKNS_2spINS0_7IBinderEEE
_ZN7android8hardware5radio4V1_017BpHwRadioResponseC2ERKNS_2spINS0_7IBinderEEE
_ZN7android8hardware5radio4V1_017BsRadioIndication13addOnewayTaskENSt3__18functionIFvvEEE
_ZN7android8hardware5radio4V1_017BsRadioIndicationC1ENS_2spINS2_16IRadioIndicationEEE
_ZN7android8hardware5radio4V1_017BsRadioIndicationC2ENS_2spINS2_16IRadioIndicationEEE
_ZN7android8hardware5radio4V1_019BnHwRadioIndication10onTransactEjRKNS0_6ParcelEPS4_jNSt3__18functionIFvRS4_EEE
_ZN7android8hardware5radio4V1_019BnHwRadioIndication12_hidl_newSmsEPNS_4hidl4base4V1_08BnHwBaseERKNS0_6ParcelEPS9_NSt3__18functionIFvRS9_EEE
_ZN7android8hardware5radio4V1_019BnHwRadioIndication12_hidl_onUssdEPNS_4hidl4base4V1_08BnHwBaseERKNS0_6ParcelEPS9_NSt3__18functionIFvRS9_EEE
_ZN7android8hardware5radio4V1_019BnHwRadioIndication12getDebugInfoENSt3__18functionIFvRKNS_4hidl4base4V1_09DebugInfoEEEE
_ZN7android8hardware5radio4V1_019BnHwRadioIndication13_hidl_lceDataEPNS_4hidl4base4V1_08BnHwBaseERKNS0_6ParcelEPS9_NSt3__18functionIFvRS9_EEE
_ZN7android8hardware5radio4V1_019BnHwRadioIndication13_hidl_pcoDataEPNS_4hidl4base4V1_08BnHwBaseERKNS0_6ParcelEPS9_NSt3__18functionIFvRS9_EEE
_ZN7android8hardware5radio4V1_019BnHwRadioIndication14_hidl_callRingEPNS_4hidl4base4V1_08BnHwBaseERKNS0_6ParcelEPS9_NSt3__18functionIFvRS9_EEE
_ZN7android8hardware5radio4V1_019BnHwRadioIndication16_hidl_cdmaNewSmsEPNS_4hidl4base4V1_08BnHwBaseERKNS0_6ParcelEPS9_NSt3__18functionIFvRS9_EEE
_ZN7android8hardware5radio4V1_019BnHwRadioIndication16_hidl_modemResetEPNS_4hidl4base4V1_08BnHwBaseERKNS0_6ParcelEPS9_NSt3__18functionIFvRS9_EEE
_ZN7android8hardware5radio4V1_019BnHwRadioIndication16_hidl_simRefreshEPNS_4hidl4base4V1_08BnHwBaseERKNS0_6ParcelEPS9_NSt3__18functionIFvRS9_EEE
_ZN7android8hardware5radio4V1_019BnHwRadioIndication17_hidl_cdmaInfoRecEPNS_4hidl4base4V1_08BnHwBaseERKNS0_6ParcelEPS9_NSt3__18functionIFvRS9_EEE
_ZN7android8hardware5radio4V1_019BnHwRadioIndication17_hidl_newSmsOnSimEPNS_4hidl4base4V1_08BnHwBaseERKNS0_6ParcelEPS9_NSt3__18functionIFvRS9_EEE
_ZN7android8hardware5radio4V1_019BnHwRadioIndication18_hidl_cellInfoListEPNS_4hidl4base4V1_08BnHwBaseERKNS0_6ParcelEPS9_NSt3__18functionIFvRS9_EEE
_ZN7android8hardware5radio4V1_019BnHwRadioIndication18_hidl_rilConnectedEPNS_4hidl4base4V1_08BnHwBaseERKNS0_6ParcelEPS9_NSt3__18functionIFvRS9_EEE
_ZN7android8hardware5radio4V1_019BnHwRadioIndication18_hidl_stkCallSetupEPNS_4hidl4base4V1_08BnHwBaseERKNS0_6ParcelEPS9_NSt3__18functionIFvRS9_EEE
_ZN7android8hardware5radio4V1_019BnHwRadioIndication19_hidl_stkSessionEndEPNS_4hidl4base4V1_08BnHwBaseERKNS0_6ParcelEPS9_NSt3__18functionIFvRS9_EEE
_ZN7android8hardware5radio4V1_019BnHwRadioIndication19_hidl_suppSvcNotifyEPNS_4hidl4base4V1_08BnHwBaseERKNS0_6ParcelEPS9_NSt3__18functionIFvRS9_EEE
_ZN7android8hardware5radio4V1_019BnHwRadioIndication20_hidl_cdmaPrlChangedEPNS_4hidl4base4V1_08BnHwBaseERKNS0_6ParcelEPS9_NSt3__18functionIFvRS9_EEE
_ZN7android8hardware5radio4V1_019BnHwRadioIndication20_hidl_stkEventNotifyEPNS_4hidl4base4V1_08BnHwBaseERKNS0_6ParcelEPS9_NSt3__18functionIFvRS9_EEE
_ZN7android8hardware5radio4V1_019BnHwRadioIndication21_hidl_cdmaCallWaitingEPNS_4hidl4base4V1_08BnHwBaseERKNS0_6ParcelEPS9_NSt3__18functionIFvRS9_EEE
_ZN7android8hardware5radio4V1_019BnHwRadioIndication21_hidl_newBroadcastSmsEPNS_4hidl4base4V1_08BnHwBaseERKNS0_6ParcelEPS9_NSt3__18functionIFvRS9_EEE
_ZN7android8hardware5radio4V1_019BnHwRadioIndication22_hidl_callStateChangedEPNS_4hidl4base4V1_08BnHwBaseERKNS0_6ParcelEPS9_NSt3__18functionIFvRS9_EEE
_ZN7android8hardware5radio4V1_019BnHwRadioIndication22_hidl_nitzTimeReceivedEPNS_4hidl4base4V1_08BnHwBaseERKNS0_6ParcelEPS9_NSt3__18functionIFvRS9_EEE
_ZN7android8hardware5radio4V1_019BnHwRadioIndication22_hidl_resendIncallMuteEPNS_4hidl4base4V1_08BnHwBaseERKNS0_6ParcelEPS9_NSt3__18functionIFvRS9_EEE
_ZN7android8hardware5radio4V1_019BnHwRadioIndication22_hidl_simStatusChangedEPNS_4hidl4base4V1_08BnHwBaseERKNS0_6ParcelEPS9_NSt3__18functionIFvRS9_EEE
_ZN7android8hardware5radio4V1_019BnHwRadioIndication22_hidl_srvccStateNotifyEPNS_4hidl4base4V1_08BnHwBaseERKNS0_6ParcelEPS9_NSt3__18functionIFvRS9_EEE
_ZN7android8hardware5radio4V1_019BnHwRadioIndication23_hidl_radioStateChangedEPNS_4hidl4base4V1_08BnHwBaseERKNS0_6ParcelEPS9_NSt3__18functionIFvRS9_EEE
_ZN7android8hardware5radio4V1_019BnHwRadioIndication23_hidl_simSmsStorageFullEPNS_4hidl4base4V1_08BnHwBaseERKNS0_6ParcelEPS9_NSt3__18functionIFvRS9_EEE
_ZN7android8hardware5radio4V1_019BnHwRadioIndication24_hidl_newSmsStatusReportEPNS_4hidl4base4V1_08BnHwBaseERKNS0_6ParcelEPS9_NSt3__18functionIFvRS9_EEE
_ZN7android8hardware5radio4V1_019BnHwRadioIndication25_hidl_dataCallListChangedEPNS_4hidl4base4V1_08BnHwBaseERKNS0_6ParcelEPS9_NSt3__18functionIFvRS9_EEE
_ZN7android8hardware5radio4V1_019BnHwRadioIndication25_hidl_networkStateChangedEPNS_4hidl4base4V1_08BnHwBaseERKNS0_6ParcelEPS9_NSt3__18functionIFvRS9_EEE
_ZN7android8hardware5radio4V1_019BnHwRadioIndication25_hidl_stkProactiveCommandEPNS_4hidl4base4V1_08BnHwBaseERKNS0_6ParcelEPS9_NSt3__18functionIFvRS9_EEE
_ZN7android8hardware5radio4V1_019BnHwRadioIndication26_hidl_indicateRingbackToneEPNS_4hidl4base4V1_08BnHwBaseERKNS0_6ParcelEPS9_NSt3__18functionIFvRS9_EEE
_ZN7android8hardware5radio4V1_019BnHwRadioIndication27_hidl_currentSignalStrengthEPNS_4hidl4base4V1_08BnHwBaseERKNS0_6ParcelEPS9_NSt3__18functionIFvRS9_EEE
_ZN7android8hardware5radio4V1_019BnHwRadioIndication27_hidl_hardwareConfigChangedEPNS_4hidl4base4V1_08BnHwBaseERKNS0_6ParcelEPS9_NSt3__18functionIFvRS9_EEE
_ZN7android8hardware5radio4V1_019BnHwRadioIndication27_hidl_voiceRadioTechChangedEPNS_4hidl4base4V1_08BnHwBaseERKNS0_6ParcelEPS9_NSt3__18functionIFvRS9_EEE
_ZN7android8hardware5radio4V1_019BnHwRadioIndication28_hidl_cdmaOtaProvisionStatusEPNS_4hidl4base4V1_08BnHwBaseERKNS0_6ParcelEPS9_NSt3__18functionIFvRS9_EEE
_ZN7android8hardware5radio4V1_019BnHwRadioIndication28_hidl_cdmaRuimSmsStorageFullEPNS_4hidl4base4V1_08BnHwBaseERKNS0_6ParcelEPS9_NSt3__18functionIFvRS9_EEE
_ZN7android8hardware5radio4V1_019BnHwRadioIndication28_hidl_imsNetworkStateChangedEPNS_4hidl4base4V1_08BnHwBaseERKNS0_6ParcelEPS9_NSt3__18functionIFvRS9_EEE
_ZN7android8hardware5radio4V1_019BnHwRadioIndication28_hidl_restrictedStateChangedEPNS_4hidl4base4V1_08BnHwBaseERKNS0_6ParcelEPS9_NSt3__18functionIFvRS9_EEE
_ZN7android8hardware5radio4V1_019BnHwRadioIndication31_hidl_exitEmergencyCallbackModeEPNS_4hidl4base4V1_08BnHwBaseERKNS0_6ParcelEPS9_NSt3__18functionIFvRS9_EEE
_ZN7android8hardware5radio4V1_019BnHwRadioIndication31_hidl_radioCapabilityIndicationEPNS_4hidl4base4V1_08BnHwBaseERKNS0_6ParcelEPS9_NSt3__18functionIFvRS9_EEE
_ZN7android8hardware5radio4V1_019BnHwRadioIndication31_hidl_stkCallControlAlphaNotifyEPNS_4hidl4base4V1_08BnHwBaseERKNS0_6ParcelEPS9_NSt3__18functionIFvRS9_EEE
_ZN7android8hardware5radio4V1_019BnHwRadioIndication31_hidl_subscriptionStatusChangedEPNS_4hidl4base4V1_08BnHwBaseERKNS0_6ParcelEPS9_NSt3__18functionIFvRS9_EEE
_ZN7android8hardware5radio4V1_019BnHwRadioIndication32_hidl_enterEmergencyCallbackModeEPNS_4hidl4base4V1_08BnHwBaseERKNS0_6ParcelEPS9_NSt3__18functionIFvRS9_EEE
_ZN7android8hardware5radio4V1_019BnHwRadioIndication35_hidl_cdmaSubscriptionSourceChangedEPNS_4hidl4base4V1_08BnHwBaseERKNS0_6ParcelEPS9_NSt3__18functionIFvRS9_EEE
_ZN7android8hardware5radio4V1_019BnHwRadioIndication38_hidl_onSupplementaryServiceIndicationEPNS_4hidl4base4V1_08BnHwBaseERKNS0_6ParcelEPS9_NSt3__18functionIFvRS9_EEE
_ZN7android8hardware5radio4V1_019BnHwRadioIndication4pingEv
_ZN7android8hardware5radio4V1_019BnHwRadioIndicationC1ERKNS_2spINS2_16IRadioIndicationEEE
_ZN7android8hardware5radio4V1_019BnHwRadioIndicationC2ERKNS_2spINS2_16IRadioIndicationEEE
_ZN7android8hardware5radio4V1_019BnHwRadioIndicationD0Ev
_ZN7android8hardware5radio4V1_019BnHwRadioIndicationD1Ev
_ZN7android8hardware5radio4V1_019BnHwRadioIndicationD2Ev
_ZN7android8hardware5radio4V1_019BpHwRadioIndication10cdmaNewSmsENS2_19RadioIndicationTypeERKNS2_14CdmaSmsMessageE
_ZN7android8hardware5radio4V1_019BpHwRadioIndication10modemResetENS2_19RadioIndicationTypeERKNS0_11hidl_stringE
_ZN7android8hardware5radio4V1_019BpHwRadioIndication10simRefreshENS2_19RadioIndicationTypeERKNS2_16SimRefreshResultE
_ZN7android8hardware5radio4V1_019BpHwRadioIndication11cdmaInfoRecENS2_19RadioIndicationTypeERKNS2_22CdmaInformationRecordsE
_ZN7android8hardware5radio4V1_019BpHwRadioIndication11linkToDeathERKNS_2spINS0_20hidl_death_recipientEEEy
_ZN7android8hardware5radio4V1_019BpHwRadioIndication11newSmsOnSimENS2_19RadioIndicationTypeEi
_ZN7android8hardware5radio4V1_019BpHwRadioIndication12_hidl_newSmsEPNS0_10IInterfaceEPNS0_7details16HidlInstrumentorENS2_19RadioIndicationTypeERKNS0_8hidl_vecIhEE
_ZN7android8hardware5radio4V1_019BpHwRadioIndication12_hidl_onUssdEPNS0_10IInterfaceEPNS0_7details16HidlInstrumentorENS2_19RadioIndicationTypeENS2_12UssdModeTypeERKNS0_11hidl_stringE
_ZN7android8hardware5radio4V1_019BpHwRadioIndication12cellInfoListENS2_19RadioIndicationTypeERKNS0_8hidl_vecINS2_8CellInfoEEE
_ZN7android8hardware5radio4V1_019BpHwRadioIndication12getDebugInfoENSt3__18functionIFvRKNS_4hidl4base4V1_09DebugInfoEEEE
_ZN7android8hardware5radio4V1_019BpHwRadioIndication12getHashChainENSt3__18functionIFvRKNS0_8hidl_vecINS0_10hidl_arrayIhLj32EJEEEEEEEE
_ZN7android8hardware5radio4V1_019BpHwRadioIndication12rilConnectedENS2_19RadioIndicationTypeE
_ZN7android8hardware5radio4V1_019BpHwRadioIndication12stkCallSetupENS2_19RadioIndicationTypeEx
_ZN7android8hardware5radio4V1_019BpHwRadioIndication13_hidl_lceDataEPNS0_10IInterfaceEPNS0_7details16HidlInstrumentorENS2_19RadioIndicationTypeERKNS2_11LceDataInfoE
_ZN7android8hardware5radio4V1_019BpHwRadioIndication13_hidl_pcoDataEPNS0_10IInterfaceEPNS0_7details16HidlInstrumentorENS2_19RadioIndicationTypeERKNS2_11PcoDataInfoE
_ZN7android8hardware5radio4V1_019BpHwRadioIndication13stkSessionEndENS2_19RadioIndicationTypeE
_ZN7android8hardware5radio4V1_019BpHwRadioIndication13suppSvcNotifyENS2_19RadioIndicationTypeERKNS2_19SuppSvcNotificationE
_ZN7android8hardware5radio4V1_019BpHwRadioIndication13unlinkToDeathERKNS_2spINS0_20hidl_death_recipientEEE
_ZN7android8hardware5radio4V1_019BpHwRadioIndication14_hidl_callRingEPNS0_10IInterfaceEPNS0_7details16HidlInstrumentorENS2_19RadioIndicationTypeEbRKNS2_20CdmaSignalInfoRecordE
_ZN7android8hardware5radio4V1_019BpHwRadioIndication14cdmaPrlChangedENS2_19RadioIndicationTypeEi
_ZN7android8hardware5radio4V1_019BpHwRadioIndication14interfaceChainENSt3__18functionIFvRKNS0_8hidl_vecINS0_11hidl_stringEEEEEE
_ZN7android8hardware5radio4V1_019BpHwRadioIndication14stkEventNotifyENS2_19RadioIndicationTypeERKNS0_11hidl_stringE
_ZN7android8hardware5radio4V1_019BpHwRadioIndication15cdmaCallWaitingENS2_19RadioIndicationTypeERKNS2_15CdmaCallWaitingE
_ZN7android8hardware5radio4V1_019BpHwRadioIndication15newBroadcastSmsENS2_19RadioIndicationTypeERKNS0_8hidl_vecIhEE
_ZN7android8hardware5radio4V1_019BpHwRadioIndication16_hidl_cdmaNewSmsEPNS0_10IInterfaceEPNS0_7details16HidlInstrumentorENS2_19RadioIndicationTypeERKNS2_14CdmaSmsMessageE
_ZN7android8hardware5radio4V1_019BpHwRadioIndication16_hidl_modemResetEPNS0_10IInterfaceEPNS0_7details16HidlInstrumentorENS2_19RadioIndicationTypeERKNS0_11hidl_stringE
_ZN7android8hardware5radio4V1_019BpHwRadioIndication16_hidl_simRefreshEPNS0_10IInterfaceEPNS0_7details16HidlInstrumentorENS2_19RadioIndicationTypeERKNS2_16SimRefreshResultE
_ZN7android8hardware5radio4V1_019BpHwRadioIndication16callStateChangedENS2_19RadioIndicationTypeE
_ZN7android8hardware5radio4V1_019BpHwRadioIndication16nitzTimeReceivedENS2_19RadioIndicationTypeERKNS0_11hidl_stringEy
_ZN7android8hardware5radio4V1_019BpHwRadioIndication16resendIncallMuteENS2_19RadioIndicationTypeE
_ZN7android8hardware5radio4V1_019BpHwRadioIndication16simStatusChangedENS2_19RadioIndicationTypeE
_ZN7android8hardware5radio4V1_019BpHwRadioIndication16srvccStateNotifyENS2_19RadioIndicationTypeENS2_10SrvccStateE
_ZN7android8hardware5radio4V1_019BpHwRadioIndication17_hidl_cdmaInfoRecEPNS0_10IInterfaceEPNS0_7details16HidlInstrumentorENS2_19RadioIndicationTypeERKNS2_22CdmaInformationRecordsE
_ZN7android8hardware5radio4V1_019BpHwRadioIndication17_hidl_newSmsOnSimEPNS0_10IInterfaceEPNS0_7details16HidlInstrumentorENS2_19RadioIndicationTypeEi
_ZN7android8hardware5radio4V1_019BpHwRadioIndication17radioStateChangedENS2_19RadioIndicationTypeENS2_10RadioStateE
_ZN7android8hardware5radio4V1_019BpHwRadioIndication17simSmsStorageFullENS2_19RadioIndicationTypeE
_ZN7android8hardware5radio4V1_019BpHwRadioIndication18_hidl_cellInfoListEPNS0_10IInterfaceEPNS0_7details16HidlInstrumentorENS2_19RadioIndicationTypeERKNS0_8hidl_vecINS2_8CellInfoEEE
_ZN7android8hardware5radio4V1_019BpHwRadioIndication18_hidl_rilConnectedEPNS0_10IInterfaceEPNS0_7details16HidlInstrumentorENS2_19RadioIndicationTypeE
_ZN7android8hardware5radio4V1_019BpHwRadioIndication18_hidl_stkCallSetupEPNS0_10IInterfaceEPNS0_7details16HidlInstrumentorENS2_19RadioIndicationTypeEx
_ZN7android8hardware5radio4V1_019BpHwRadioIndication18newSmsStatusReportENS2_19RadioIndicationTypeERKNS0_8hidl_vecIhEE
_ZN7android8hardware5radio4V1_019BpHwRadioIndication19_hidl_stkSessionEndEPNS0_10IInterfaceEPNS0_7details16HidlInstrumentorENS2_19RadioIndicationTypeE
_ZN7android8hardware5radio4V1_019BpHwRadioIndication19_hidl_suppSvcNotifyEPNS0_10IInterfaceEPNS0_7details16HidlInstrumentorENS2_19RadioIndicationTypeERKNS2_19SuppSvcNotificationE
_ZN7android8hardware5radio4V1_019BpHwRadioIndication19dataCallListChangedENS2_19RadioIndicationTypeERKNS0_8hidl_vecINS2_19SetupDataCallResultEEE
_ZN7android8hardware5radio4V1_019BpHwRadioIndication19interfaceDescriptorENSt3__18functionIFvRKNS0_11hidl_stringEEEE
_ZN7android8hardware5radio4V1_019BpHwRadioIndication19networkStateChangedENS2_19RadioIndicationTypeE
_ZN7android8hardware5radio4V1_019BpHwRadioIndication19stkProactiveCommandENS2_19RadioIndicationTypeERKNS0_11hidl_stringE
_ZN7android8hardware5radio4V1_019BpHwRadioIndication20_hidl_cdmaPrlChangedEPNS0_10IInterfaceEPNS0_7details16HidlInstrumentorENS2_19RadioIndicationTypeEi
_ZN7android8hardware5radio4V1_019BpHwRadioIndication20_hidl_stkEventNotifyEPNS0_10IInterfaceEPNS0_7details16HidlInstrumentorENS2_19RadioIndicationTypeERKNS0_11hidl_stringE
_ZN7android8hardware5radio4V1_019BpHwRadioIndication20indicateRingbackToneENS2_19RadioIndicationTypeEb
_ZN7android8hardware5radio4V1_019BpHwRadioIndication21_hidl_cdmaCallWaitingEPNS0_10IInterfaceEPNS0_7details16HidlInstrumentorENS2_19RadioIndicationTypeERKNS2_15CdmaCallWaitingE
_ZN7android8hardware5radio4V1_019BpHwRadioIndication21_hidl_newBroadcastSmsEPNS0_10IInterfaceEPNS0_7details16HidlInstrumentorENS2_19RadioIndicationTypeERKNS0_8hidl_vecIhEE
_ZN7android8hardware5radio4V1_019BpHwRadioIndication21currentSignalStrengthENS2_19RadioIndicationTypeERKNS2_14SignalStrengthE
_ZN7android8hardware5radio4V1_019BpHwRadioIndication21hardwareConfigChangedENS2_19RadioIndicationTypeERKNS0_8hidl_vecINS2_14HardwareConfigEEE
_ZN7android8hardware5radio4V1_019BpHwRadioIndication21notifySyspropsChangedEv
_ZN7android8hardware5radio4V1_019BpHwRadioIndication21setHALInstrumentationEv
_ZN7android8hardware5radio4V1_019BpHwRadioIndication21voiceRadioTechChangedENS2_19RadioIndicationTypeENS2_15RadioTechnologyE
_ZN7android8hardware5radio4V1_019BpHwRadioIndication22_hidl_callStateChangedEPNS0_10IInterfaceEPNS0_7details16HidlInstrumentorENS2_19RadioIndicationTypeE
_ZN7android8hardware5radio4V1_019BpHwRadioIndication22_hidl_nitzTimeReceivedEPNS0_10IInterfaceEPNS0_7details16HidlInstrumentorENS2_19RadioIndicationTypeERKNS0_11hidl_stringEy
_ZN7android8hardware5radio4V1_019BpHwRadioIndication22_hidl_resendIncallMuteEPNS0_10IInterfaceEPNS0_7details16HidlInstrumentorENS2_19RadioIndicationTypeE
_ZN7android8hardware5radio4V1_019BpHwRadioIndication22_hidl_simStatusChangedEPNS0_10IInterfaceEPNS0_7details16HidlInstrumentorENS2_19RadioIndicationTypeE
_ZN7android8hardware5radio4V1_019BpHwRadioIndication22_hidl_srvccStateNotifyEPNS0_10IInterfaceEPNS0_7details16HidlInstrumentorENS2_19RadioIndicationTypeENS2_10SrvccStateE
_ZN7android8hardware5radio4V1_019BpHwRadioIndication22cdmaOtaProvisionStatusENS2_19RadioIndicationTypeENS2_22CdmaOtaProvisionStatusE
_ZN7android8hardware5radio4V1_019BpHwRadioIndication22cdmaRuimSmsStorageFullENS2_19RadioIndicationTypeE
_ZN7android8hardware5radio4V1_019BpHwRadioIndication22imsNetworkStateChangedENS2_19RadioIndicationTypeE
_ZN7android8hardware5radio4V1_019BpHwRadioIndication22restrictedStateChangedENS2_19RadioIndicationTypeENS2_20PhoneRestrictedStateE
_ZN7android8hardware5radio4V1_019BpHwRadioIndication23_hidl_radioStateChangedEPNS0_10IInterfaceEPNS0_7details16HidlInstrumentorENS2_19RadioIndicationTypeENS2_10RadioStateE
_ZN7android8hardware5radio4V1_019BpHwRadioIndication23_hidl_simSmsStorageFullEPNS0_10IInterfaceEPNS0_7details16HidlInstrumentorENS2_19RadioIndicationTypeE
_ZN7android8hardware5radio4V1_019BpHwRadioIndication24_hidl_newSmsStatusReportEPNS0_10IInterfaceEPNS0_7details16HidlInstrumentorENS2_19RadioIndicationTypeERKNS0_8hidl_vecIhEE
_ZN7android8hardware5radio4V1_019BpHwRadioIndication25_hidl_dataCallListChangedEPNS0_10IInterfaceEPNS0_7details16HidlInstrumentorENS2_19RadioIndicationTypeERKNS0_8hidl_vecINS2_19SetupDataCallResultEEE
_ZN7android8hardware5radio4V1_019BpHwRadioIndication25_hidl_networkStateChangedEPNS0_10IInterfaceEPNS0_7details16HidlInstrumentorENS2_19RadioIndicationTypeE
_ZN7android8hardware5radio4V1_019BpHwRadioIndication25_hidl_stkProactiveCommandEPNS0_10IInterfaceEPNS0_7details16HidlInstrumentorENS2_19RadioIndicationTypeERKNS0_11hidl_stringE
_ZN7android8hardware5radio4V1_019BpHwRadioIndication25exitEmergencyCallbackModeENS2_19RadioIndicationTypeE
_ZN7android8hardware5radio4V1_019BpHwRadioIndication25radioCapabilityIndicationENS2_19RadioIndicationTypeERKNS2_15RadioCapabilityE
_ZN7android8hardware5radio4V1_019BpHwRadioIndication25stkCallControlAlphaNotifyENS2_19RadioIndicationTypeERKNS0_11hidl_stringE
_ZN7android8hardware5radio4V1_019BpHwRadioIndication25subscriptionStatusChangedENS2_19RadioIndicationTypeEb
_ZN7android8hardware5radio4V1_019BpHwRadioIndication26_hidl_indicateRingbackToneEPNS0_10IInterfaceEPNS0_7details16HidlInstrumentorENS2_19RadioIndicationTypeEb
_ZN7android8hardware5radio4V1_019BpHwRadioIndication26enterEmergencyCallbackModeENS2_19RadioIndicationTypeE
_ZN7android8hardware5radio4V1_019BpHwRadioIndication27_hidl_currentSignalStrengthEPNS0_10IInterfaceEPNS0_7details16HidlInstrumentorENS2_19RadioIndicationTypeERKNS2_14SignalStrengthE
_ZN7android8hardware5radio4V1_019BpHwRadioIndication27_hidl_hardwareConfigChangedEPNS0_10IInterfaceEPNS0_7details16HidlInstrumentorENS2_19RadioIndicationTypeERKNS0_8hidl_vecINS2_14HardwareConfigEEE
_ZN7android8hardware5radio4V1_019BpHwRadioIndication27_hidl_voiceRadioTechChangedEPNS0_10IInterfaceEPNS0_7details16HidlInstrumentorENS2_19RadioIndicationTypeENS2_15RadioTechnologyE
_ZN7android8hardware5radio4V1_019BpHwRadioIndication28_hidl_cdmaOtaProvisionStatusEPNS0_10IInterfaceEPNS0_7details16HidlInstrumentorENS2_19RadioIndicationTypeENS2_22CdmaOtaProvisionStatusE
_ZN7android8hardware5radio4V1_019BpHwRadioIndication28_hidl_cdmaRuimSmsStorageFullEPNS0_10IInterfaceEPNS0_7details16HidlInstrumentorENS2_19RadioIndicationTypeE
_ZN7android8hardware5radio4V1_019BpHwRadioIndication28_hidl_imsNetworkStateChangedEPNS0_10IInterfaceEPNS0_7details16HidlInstrumentorENS2_19RadioIndicationTypeE
_ZN7android8hardware5radio4V1_019BpHwRadioIndication28_hidl_restrictedStateChangedEPNS0_10IInterfaceEPNS0_7details16HidlInstrumentorENS2_19RadioIndicationTypeENS2_20PhoneRestrictedStateE
_ZN7android8hardware5radio4V1_019BpHwRadioIndication29cdmaSubscriptionSourceChangedENS2_19RadioIndicationTypeENS2_22CdmaSubscriptionSourceE
_ZN7android8hardware5radio4V1_019BpHwRadioIndication31_hidl_exitEmergencyCallbackModeEPNS0_10IInterfaceEPNS0_7details16HidlInstrumentorENS2_19RadioIndicationTypeE
_ZN7android8hardware5radio4V1_019BpHwRadioIndication31_hidl_radioCapabilityIndicationEPNS0_10IInterfaceEPNS0_7details16HidlInstrumentorENS2_19RadioIndicationTypeERKNS2_15RadioCapabilityE
_ZN7android8hardware5radio4V1_019BpHwRadioIndication31_hidl_stkCallControlAlphaNotifyEPNS0_10IInterfaceEPNS0_7details16HidlInstrumentorENS2_19RadioIndicationTypeERKNS0_11hidl_stringE
_ZN7android8hardware5radio4V1_019BpHwRadioIndication31_hidl_subscriptionStatusChangedEPNS0_10IInterfaceEPNS0_7details16HidlInstrumentorENS2_19RadioIndicationTypeEb
_ZN7android8hardware5radio4V1_019BpHwRadioIndication32_hidl_enterEmergencyCallbackModeEPNS0_10IInterfaceEPNS0_7details16HidlInstrumentorENS2_19RadioIndicationTypeE
_ZN7android8hardware5radio4V1_019BpHwRadioIndication32onSupplementaryServiceIndicationENS2_19RadioIndicationTypeERKNS2_18StkCcUnsolSsResultE
_ZN7android8hardware5radio4V1_019BpHwRadioIndication35_hidl_cdmaSubscriptionSourceChangedEPNS0_10IInterfaceEPNS0_7details16HidlInstrumentorENS2_19RadioIndicationTypeENS2_22CdmaSubscriptionSourceE
_ZN7android8hardware5radio4V1_019BpHwRadioIndication38_hidl_onSupplementaryServiceIndicationEPNS0_10IInterfaceEPNS0_7details16HidlInstrumentorENS2_19RadioIndicationTypeERKNS2_18StkCcUnsolSsResultE
_ZN7android8hardware5radio4V1_019BpHwRadioIndication4pingEv
_ZN7android8hardware5radio4V1_019BpHwRadioIndication5debugERKNS0_11hidl_handleERKNS0_8hidl_vecINS0_11hidl_stringEEE
_ZN7android8hardware5radio4V1_019BpHwRadioIndication6newSmsENS2_19RadioIndicationTypeERKNS0_8hidl_vecIhEE
_ZN7android8hardware5radio4V1_019BpHwRadioIndication6onUssdENS2_19RadioIndicationTypeENS2_12UssdModeTypeERKNS0_11hidl_stringE
_ZN7android8hardware5radio4V1_019BpHwRadioIndication7lceDataENS2_19RadioIndicationTypeERKNS2_11LceDataInfoE
_ZN7android8hardware5radio4V1_019BpHwRadioIndication7pcoDataENS2_19RadioIndicationTypeERKNS2_11PcoDataInfoE
_ZN7android8hardware5radio4V1_019BpHwRadioIndication8callRingENS2_19RadioIndicationTypeEbRKNS2_20CdmaSignalInfoRecordE
_ZN7android8hardware5radio4V1_019BpHwRadioIndicationC1ERKNS_2spINS0_7IBinderEEE
_ZN7android8hardware5radio4V1_019BpHwRadioIndicationC2ERKNS_2spINS0_7IBinderEEE
_ZN7android8hardware5radio4V1_021writeEmbeddedToParcelERKNS2_10CardStatusEPNS0_6ParcelEjj
_ZN7android8hardware5radio4V1_021writeEmbeddedToParcelERKNS2_10SsInfoDataEPNS0_6ParcelEjj
_ZN7android8hardware5radio4V1_021writeEmbeddedToParcelERKNS2_11CellInfoGsmEPNS0_6ParcelEjj
_ZN7android8hardware5radio4V1_021writeEmbeddedToParcelERKNS2_11CellInfoLteEPNS0_6ParcelEjj
_ZN7android8hardware5radio4V1_021writeEmbeddedToParcelERKNS2_11IccIoResultEPNS0_6ParcelEjj
_ZN7android8hardware5radio4V1_021writeEmbeddedToParcelERKNS2_11NvWriteItemEPNS0_6ParcelEjj
_ZN7android8hardware5radio4V1_021writeEmbeddedToParcelERKNS2_11PcoDataInfoEPNS0_6ParcelEjj
_ZN7android8hardware5radio4V1_021writeEmbeddedToParcelERKNS2_12CellIdentityEPNS0_6ParcelEjj
_ZN7android8hardware5radio4V1_021writeEmbeddedToParcelERKNS2_12OperatorInfoEPNS0_6ParcelEjj
_ZN7android8hardware5radio4V1_021writeEmbeddedToParcelERKNS2_12SmsWriteArgsEPNS0_6ParcelEjj
_ZN7android8hardware5radio4V1_021writeEmbeddedToParcelERKNS2_13CellInfoWcdmaEPNS0_6ParcelEjj
_ZN7android8hardware5radio4V1_021writeEmbeddedToParcelERKNS2_13GsmSmsMessageEPNS0_6ParcelEjj
_ZN7android8hardware5radio4V1_021writeEmbeddedToParcelERKNS2_13ImsSmsMessageEPNS0_6ParcelEjj
_ZN7android8hardware5radio4V1_021writeEmbeddedToParcelERKNS2_13SendSmsResultEPNS0_6ParcelEjj
_ZN7android8hardware5radio4V1_021writeEmbeddedToParcelERKNS2_14CdmaSmsAddressEPNS0_6ParcelEjj
_ZN7android8hardware5radio4V1_021writeEmbeddedToParcelERKNS2_14CdmaSmsMessageEPNS0_6ParcelEjj
_ZN7android8hardware5radio4V1_021writeEmbeddedToParcelERKNS2_14HardwareConfigEPNS0_6ParcelEjj
_ZN7android8hardware5radio4V1_021writeEmbeddedToParcelERKNS2_15CallForwardInfoEPNS0_6ParcelEjj
_ZN7android8hardware5radio4V1_021writeEmbeddedToParcelERKNS2_15CdmaCallWaitingEPNS0_6ParcelEjj
_ZN7android8hardware5radio4V1_021writeEmbeddedToParcelERKNS2_15CellIdentityGsmEPNS0_6ParcelEjj
_ZN7android8hardware5radio4V1_021writeEmbeddedToParcelERKNS2_15CellIdentityLteEPNS0_6ParcelEjj
_ZN7android8hardware5radio4V1_021writeEmbeddedToParcelERKNS2_15CellInfoTdscdmaEPNS0_6ParcelEjj
_ZN7android8hardware5radio4V1_021writeEmbeddedToParcelERKNS2_15DataProfileInfoEPNS0_6ParcelEjj
_ZN7android8hardware5radio4V1_021writeEmbeddedToParcelERKNS2_15NeighboringCellEPNS0_6ParcelEjj
_ZN7android8hardware5radio4V1_021writeEmbeddedToParcelERKNS2_15RadioCapabilityEPNS0_6ParcelEjj
_ZN7android8hardware5radio4V1_021writeEmbeddedToParcelERKNS2_16CdmaSmsWriteArgsEPNS0_6ParcelEjj
_ZN7android8hardware5radio4V1_021writeEmbeddedToParcelERKNS2_16SimRefreshResultEPNS0_6ParcelEjj
_ZN7android8hardware5radio4V1_021writeEmbeddedToParcelERKNS2_17CdmaSmsSubaddressEPNS0_6ParcelEjj
_ZN7android8hardware5radio4V1_021writeEmbeddedToParcelERKNS2_17CellIdentityWcdmaEPNS0_6ParcelEjj
_ZN7android8hardware5radio4V1_021writeEmbeddedToParcelERKNS2_17HardwareConfigSimEPNS0_6ParcelEjj
_ZN7android8hardware5radio4V1_021writeEmbeddedToParcelERKNS2_18DataRegStateResultEPNS0_6ParcelEjj
_ZN7android8hardware5radio4V1_021writeEmbeddedToParcelERKNS2_18StkCcUnsolSsResultEPNS0_6ParcelEjj
_ZN7android8hardware5radio4V1_021writeEmbeddedToParcelERKNS2_19CarrierRestrictionsEPNS0_6ParcelEjj
_ZN7android8hardware5radio4V1_021writeEmbeddedToParcelERKNS2_19CellIdentityTdscdmaEPNS0_6ParcelEjj
_ZN7android8hardware5radio4V1_021writeEmbeddedToParcelERKNS2_19SetupDataCallResultEPNS0_6ParcelEjj
_ZN7android8hardware5radio4V1_021writeEmbeddedToParcelERKNS2_19SuppSvcNotificationEPNS0_6ParcelEjj
_ZN7android8hardware5radio4V1_021writeEmbeddedToParcelERKNS2_19VoiceRegStateResultEPNS0_6ParcelEjj
_ZN7android8hardware5radio4V1_021writeEmbeddedToParcelERKNS2_20CdmaNumberInfoRecordEPNS0_6ParcelEjj
_ZN7android8hardware5radio4V1_021writeEmbeddedToParcelERKNS2_21CdmaDisplayInfoRecordEPNS0_6ParcelEjj
_ZN7android8hardware5radio4V1_021writeEmbeddedToParcelERKNS2_21CdmaInformationRecordEPNS0_6ParcelEjj
_ZN7android8hardware5radio4V1_021writeEmbeddedToParcelERKNS2_21LastCallFailCauseInfoEPNS0_6ParcelEjj
_ZN7android8hardware5radio4V1_021writeEmbeddedToParcelERKNS2_22CdmaInformationRecordsEPNS0_6ParcelEjj
_ZN7android8hardware5radio4V1_021writeEmbeddedToParcelERKNS2_31CdmaRedirectingNumberInfoRecordEPNS0_6ParcelEjj
_ZN7android8hardware5radio4V1_021writeEmbeddedToParcelERKNS2_4CallEPNS0_6ParcelEjj
_ZN7android8hardware5radio4V1_021writeEmbeddedToParcelERKNS2_4DialEPNS0_6ParcelEjj
_ZN7android8hardware5radio4V1_021writeEmbeddedToParcelERKNS2_5IccIoEPNS0_6ParcelEjj
_ZN7android8hardware5radio4V1_021writeEmbeddedToParcelERKNS2_6CfDataEPNS0_6ParcelEjj
_ZN7android8hardware5radio4V1_021writeEmbeddedToParcelERKNS2_7CarrierEPNS0_6ParcelEjj
_ZN7android8hardware5radio4V1_021writeEmbeddedToParcelERKNS2_7SimApduEPNS0_6ParcelEjj
_ZN7android8hardware5radio4V1_021writeEmbeddedToParcelERKNS2_7UusInfoEPNS0_6ParcelEjj
_ZN7android8hardware5radio4V1_021writeEmbeddedToParcelERKNS2_8CellInfoEPNS0_6ParcelEjj
_ZN7android8hardware5radio4V1_021writeEmbeddedToParcelERKNS2_9AppStatusEPNS0_6ParcelEjj
_ZN7android8hardware5radio4V1_022readEmbeddedFromParcelERKNS2_10CardStatusERKNS0_6ParcelEjj
_ZN7android8hardware5radio4V1_022readEmbeddedFromParcelERKNS2_10SsInfoDataERKNS0_6ParcelEjj
_ZN7android8hardware5radio4V1_022readEmbeddedFromParcelERKNS2_11CellInfoGsmERKNS0_6ParcelEjj
_ZN7android8hardware5radio4V1_022readEmbeddedFromParcelERKNS2_11CellInfoLteERKNS0_6ParcelEjj
_ZN7android8hardware5radio4V1_022readEmbeddedFromParcelERKNS2_11IccIoResultERKNS0_6ParcelEjj
_ZN7android8hardware5radio4V1_022readEmbeddedFromParcelERKNS2_11NvWriteItemERKNS0_6ParcelEjj
_ZN7android8hardware5radio4V1_022readEmbeddedFromParcelERKNS2_11PcoDataInfoERKNS0_6ParcelEjj
_ZN7android8hardware5radio4V1_022readEmbeddedFromParcelERKNS2_12CellIdentityERKNS0_6ParcelEjj
_ZN7android8hardware5radio4V1_022readEmbeddedFromParcelERKNS2_12OperatorInfoERKNS0_6ParcelEjj
_ZN7android8hardware5radio4V1_022readEmbeddedFromParcelERKNS2_12SmsWriteArgsERKNS0_6ParcelEjj
_ZN7android8hardware5radio4V1_022readEmbeddedFromParcelERKNS2_13CellInfoWcdmaERKNS0_6ParcelEjj
_ZN7android8hardware5radio4V1_022readEmbeddedFromParcelERKNS2_13GsmSmsMessageERKNS0_6ParcelEjj
_ZN7android8hardware5radio4V1_022readEmbeddedFromParcelERKNS2_13ImsSmsMessageERKNS0_6ParcelEjj
_ZN7android8hardware5radio4V1_022readEmbeddedFromParcelERKNS2_13SendSmsResultERKNS0_6ParcelEjj
_ZN7android8hardware5radio4V1_022readEmbeddedFromParcelERKNS2_14CdmaSmsAddressERKNS0_6ParcelEjj
_ZN7android8hardware5radio4V1_022readEmbeddedFromParcelERKNS2_14CdmaSmsMessageERKNS0_6ParcelEjj
_ZN7android8hardware5radio4V1_022readEmbeddedFromParcelERKNS2_14HardwareConfigERKNS0_6ParcelEjj
_ZN7android8hardware5radio4V1_022readEmbeddedFromParcelERKNS2_15CallForwardInfoERKNS0_6ParcelEjj
_ZN7android8hardware5radio4V1_022readEmbeddedFromParcelERKNS2_15CdmaCallWaitingERKNS0_6ParcelEjj
_ZN7android8hardware5radio4V1_022readEmbeddedFromParcelERKNS2_15CellIdentityGsmERKNS0_6ParcelEjj
_ZN7android8hardware5radio4V1_022readEmbeddedFromParcelERKNS2_15CellIdentityLteERKNS0_6ParcelEjj
_ZN7android8hardware5radio4V1_022readEmbeddedFromParcelERKNS2_15CellInfoTdscdmaERKNS0_6ParcelEjj
_ZN7android8hardware5radio4V1_022readEmbeddedFromParcelERKNS2_15DataProfileInfoERKNS0_6ParcelEjj
_ZN7android8hardware5radio4V1_022readEmbeddedFromParcelERKNS2_15NeighboringCellERKNS0_6ParcelEjj
_ZN7android8hardware5radio4V1_022readEmbeddedFromParcelERKNS2_15RadioCapabilityERKNS0_6ParcelEjj
_ZN7android8hardware5radio4V1_022readEmbeddedFromParcelERKNS2_16CdmaSmsWriteArgsERKNS0_6ParcelEjj
_ZN7android8hardware5radio4V1_022readEmbeddedFromParcelERKNS2_16SimRefreshResultERKNS0_6ParcelEjj
_ZN7android8hardware5radio4V1_022readEmbeddedFromParcelERKNS2_17CdmaSmsSubaddressERKNS0_6ParcelEjj
_ZN7android8hardware5radio4V1_022readEmbeddedFromParcelERKNS2_17CellIdentityWcdmaERKNS0_6ParcelEjj
_ZN7android8hardware5radio4V1_022readEmbeddedFromParcelERKNS2_17HardwareConfigSimERKNS0_6ParcelEjj
_ZN7android8hardware5radio4V1_022readEmbeddedFromParcelERKNS2_18DataRegStateResultERKNS0_6ParcelEjj
_ZN7android8hardware5radio4V1_022readEmbeddedFromParcelERKNS2_18StkCcUnsolSsResultERKNS0_6ParcelEjj
_ZN7android8hardware5radio4V1_022readEmbeddedFromParcelERKNS2_19CarrierRestrictionsERKNS0_6ParcelEjj
_ZN7android8hardware5radio4V1_022readEmbeddedFromParcelERKNS2_19CellIdentityTdscdmaERKNS0_6ParcelEjj
_ZN7android8hardware5radio4V1_022readEmbeddedFromParcelERKNS2_19SetupDataCallResultERKNS0_6ParcelEjj
_ZN7android8hardware5radio4V1_022readEmbeddedFromParcelERKNS2_19SuppSvcNotificationERKNS0_6ParcelEjj
_ZN7android8hardware5radio4V1_022readEmbeddedFromParcelERKNS2_19VoiceRegStateResultERKNS0_6ParcelEjj
_ZN7android8hardware5radio4V1_022readEmbeddedFromParcelERKNS2_20CdmaNumberInfoRecordERKNS0_6ParcelEjj
_ZN7android8hardware5radio4V1_022readEmbeddedFromParcelERKNS2_21CdmaDisplayInfoRecordERKNS0_6ParcelEjj
_ZN7android8hardware5radio4V1_022readEmbeddedFromParcelERKNS2_21CdmaInformationRecordERKNS0_6ParcelEjj
_ZN7android8hardware5radio4V1_022readEmbeddedFromParcelERKNS2_21LastCallFailCauseInfoERKNS0_6ParcelEjj
_ZN7android8hardware5radio4V1_022readEmbeddedFromParcelERKNS2_22CdmaInformationRecordsERKNS0_6ParcelEjj
_ZN7android8hardware5radio4V1_022readEmbeddedFromParcelERKNS2_31CdmaRedirectingNumberInfoRecordERKNS0_6ParcelEjj
_ZN7android8hardware5radio4V1_022readEmbeddedFromParcelERKNS2_4CallERKNS0_6ParcelEjj
_ZN7android8hardware5radio4V1_022readEmbeddedFromParcelERKNS2_4DialERKNS0_6ParcelEjj
_ZN7android8hardware5radio4V1_022readEmbeddedFromParcelERKNS2_5IccIoERKNS0_6ParcelEjj
_ZN7android8hardware5radio4V1_022readEmbeddedFromParcelERKNS2_6CfDataERKNS0_6ParcelEjj
_ZN7android8hardware5radio4V1_022readEmbeddedFromParcelERKNS2_7CarrierERKNS0_6ParcelEjj
_ZN7android8hardware5radio4V1_022readEmbeddedFromParcelERKNS2_7SimApduERKNS0_6ParcelEjj
_ZN7android8hardware5radio4V1_022readEmbeddedFromParcelERKNS2_7UusInfoERKNS0_6ParcelEjj
_ZN7android8hardware5radio4V1_022readEmbeddedFromParcelERKNS2_8CellInfoERKNS0_6ParcelEjj
_ZN7android8hardware5radio4V1_022readEmbeddedFromParcelERKNS2_9AppStatusERKNS0_6ParcelEjj
_ZN7android8hardware5radio4V1_04ISap10descriptorE
_ZN7android8hardware5radio4V1_04ISap10getServiceERKNSt3__112basic_stringIcNS4_11char_traitsIcEENS4_9allocatorIcEEEEb
_ZN7android8hardware5radio4V1_04ISap11linkToDeathERKNS_2spINS0_20hidl_death_recipientEEEy
_ZN7android8hardware5radio4V1_04ISap12getDebugInfoENSt3__18functionIFvRKNS_4hidl4base4V1_09DebugInfoEEEE
_ZN7android8hardware5radio4V1_04ISap12getHashChainENSt3__18functionIFvRKNS0_8hidl_vecINS0_10hidl_arrayIhLj32EJEEEEEEEE
_ZN7android8hardware5radio4V1_04ISap13tryGetServiceERKNSt3__112basic_stringIcNS4_11char_traitsIcEENS4_9allocatorIcEEEEb
_ZN7android8hardware5radio4V1_04ISap13unlinkToDeathERKNS_2spINS0_20hidl_death_recipientEEE
_ZN7android8hardware5radio4V1_04ISap14interfaceChainENSt3__18functionIFvRKNS0_8hidl_vecINS0_11hidl_stringEEEEEE
_ZN7android8hardware5radio4V1_04ISap17registerAsServiceERKNSt3__112basic_stringIcNS4_11char_traitsIcEENS4_9allocatorIcEEEE
_ZN7android8hardware5radio4V1_04ISap19interfaceDescriptorENSt3__18functionIFvRKNS0_11hidl_stringEEEE
_ZN7android8hardware5radio4V1_04ISap21notifySyspropsChangedEv
_ZN7android8hardware5radio4V1_04ISap21setHALInstrumentationEv
_ZN7android8hardware5radio4V1_04ISap24registerForNotificationsERKNSt3__112basic_stringIcNS4_11char_traitsIcEENS4_9allocatorIcEEEERKNS_2spINS_4hidl7manager4V1_020IServiceNotificationEEE
_ZN7android8hardware5radio4V1_04ISap4pingEv
_ZN7android8hardware5radio4V1_04ISap5debugERKNS0_11hidl_handleERKNS0_8hidl_vecINS0_11hidl_stringEEE
_ZN7android8hardware5radio4V1_04ISap8castFromERKNS_2spINS_4hidl4base4V1_05IBaseEEEb
_ZN7android8hardware5radio4V1_04ISap8castFromERKNS_2spIS3_EEb
_ZN7android8hardware5radio4V1_05BsSap13addOnewayTaskENSt3__18functionIFvvEEE
_ZN7android8hardware5radio4V1_05BsSapC1ENS_2spINS2_4ISapEEE
_ZN7android8hardware5radio4V1_05BsSapC2ENS_2spINS2_4ISapEEE
_ZN7android8hardware5radio4V1_06IRadio10descriptorE
_ZN7android8hardware5radio4V1_06IRadio10getServiceERKNSt3__112basic_stringIcNS4_11char_traitsIcEENS4_9allocatorIcEEEEb
_ZN7android8hardware5radio4V1_06IRadio11linkToDeathERKNS_2spINS0_20hidl_death_recipientEEEy
_ZN7android8hardware5radio4V1_06IRadio12getDebugInfoENSt3__18functionIFvRKNS_4hidl4base4V1_09DebugInfoEEEE
_ZN7android8hardware5radio4V1_06IRadio12getHashChainENSt3__18functionIFvRKNS0_8hidl_vecINS0_10hidl_arrayIhLj32EJEEEEEEEE
_ZN7android8hardware5radio4V1_06IRadio13tryGetServiceERKNSt3__112basic_stringIcNS4_11char_traitsIcEENS4_9allocatorIcEEEEb
_ZN7android8hardware5radio4V1_06IRadio13unlinkToDeathERKNS_2spINS0_20hidl_death_recipientEEE
_ZN7android8hardware5radio4V1_06IRadio14interfaceChainENSt3__18functionIFvRKNS0_8hidl_vecINS0_11hidl_stringEEEEEE
_ZN7android8hardware5radio4V1_06IRadio17registerAsServiceERKNSt3__112basic_stringIcNS4_11char_traitsIcEENS4_9allocatorIcEEEE
_ZN7android8hardware5radio4V1_06IRadio19interfaceDescriptorENSt3__18functionIFvRKNS0_11hidl_stringEEEE
_ZN7android8hardware5radio4V1_06IRadio21notifySyspropsChangedEv
_ZN7android8hardware5radio4V1_06IRadio21setHALInstrumentationEv
_ZN7android8hardware5radio4V1_06IRadio24registerForNotificationsERKNSt3__112basic_stringIcNS4_11char_traitsIcEENS4_9allocatorIcEEEERKNS_2spINS_4hidl7manager4V1_020IServiceNotificationEEE
_ZN7android8hardware5radio4V1_06IRadio4pingEv
_ZN7android8hardware5radio4V1_06IRadio5debugERKNS0_11hidl_handleERKNS0_8hidl_vecINS0_11hidl_stringEEE
_ZN7android8hardware5radio4V1_06IRadio8castFromERKNS_2spINS_4hidl4base4V1_05IBaseEEEb
_ZN7android8hardware5radio4V1_06IRadio8castFromERKNS_2spIS3_EEb
_ZN7android8hardware5radio4V1_07BnHwSap10onTransactEjRKNS0_6ParcelEPS4_jNSt3__18functionIFvRS4_EEE
_ZN7android8hardware5radio4V1_07BnHwSap12getDebugInfoENSt3__18functionIFvRKNS_4hidl4base4V1_09DebugInfoEEEE
_ZN7android8hardware5radio4V1_07BnHwSap13_hidl_apduReqEPNS_4hidl4base4V1_08BnHwBaseERKNS0_6ParcelEPS9_NSt3__18functionIFvRS9_EEE
_ZN7android8hardware5radio4V1_07BnHwSap14_hidl_powerReqEPNS_4hidl4base4V1_08BnHwBaseERKNS0_6ParcelEPS9_NSt3__18functionIFvRS9_EEE
_ZN7android8hardware5radio4V1_07BnHwSap16_hidl_connectReqEPNS_4hidl4base4V1_08BnHwBaseERKNS0_6ParcelEPS9_NSt3__18functionIFvRS9_EEE
_ZN7android8hardware5radio4V1_07BnHwSap17_hidl_resetSimReqEPNS_4hidl4base4V1_08BnHwBaseERKNS0_6ParcelEPS9_NSt3__18functionIFvRS9_EEE
_ZN7android8hardware5radio4V1_07BnHwSap17_hidl_setCallbackEPNS_4hidl4base4V1_08BnHwBaseERKNS0_6ParcelEPS9_NSt3__18functionIFvRS9_EEE
_ZN7android8hardware5radio4V1_07BnHwSap19_hidl_disconnectReqEPNS_4hidl4base4V1_08BnHwBaseERKNS0_6ParcelEPS9_NSt3__18functionIFvRS9_EEE
_ZN7android8hardware5radio4V1_07BnHwSap20_hidl_transferAtrReqEPNS_4hidl4base4V1_08BnHwBaseERKNS0_6ParcelEPS9_NSt3__18functionIFvRS9_EEE
_ZN7android8hardware5radio4V1_07BnHwSap28_hidl_setTransferProtocolReqEPNS_4hidl4base4V1_08BnHwBaseERKNS0_6ParcelEPS9_NSt3__18functionIFvRS9_EEE
_ZN7android8hardware5radio4V1_07BnHwSap33_hidl_transferCardReaderStatusReqEPNS_4hidl4base4V1_08BnHwBaseERKNS0_6ParcelEPS9_NSt3__18functionIFvRS9_EEE
_ZN7android8hardware5radio4V1_07BnHwSap4pingEv
_ZN7android8hardware5radio4V1_07BnHwSapC1ERKNS_2spINS2_4ISapEEE
_ZN7android8hardware5radio4V1_07BnHwSapC2ERKNS_2spINS2_4ISapEEE
_ZN7android8hardware5radio4V1_07BnHwSapD0Ev
_ZN7android8hardware5radio4V1_07BnHwSapD1Ev
_ZN7android8hardware5radio4V1_07BnHwSapD2Ev
_ZN7android8hardware5radio4V1_07BpHwSap10connectReqEii
_ZN7android8hardware5radio4V1_07BpHwSap11linkToDeathERKNS_2spINS0_20hidl_death_recipientEEEy
_ZN7android8hardware5radio4V1_07BpHwSap11resetSimReqEi
_ZN7android8hardware5radio4V1_07BpHwSap11setCallbackERKNS_2spINS2_12ISapCallbackEEE
_ZN7android8hardware5radio4V1_07BpHwSap12getDebugInfoENSt3__18functionIFvRKNS_4hidl4base4V1_09DebugInfoEEEE
_ZN7android8hardware5radio4V1_07BpHwSap12getHashChainENSt3__18functionIFvRKNS0_8hidl_vecINS0_10hidl_arrayIhLj32EJEEEEEEEE
_ZN7android8hardware5radio4V1_07BpHwSap13_hidl_apduReqEPNS0_10IInterfaceEPNS0_7details16HidlInstrumentorEiNS2_11SapApduTypeERKNS0_8hidl_vecIhEE
_ZN7android8hardware5radio4V1_07BpHwSap13disconnectReqEi
_ZN7android8hardware5radio4V1_07BpHwSap13unlinkToDeathERKNS_2spINS0_20hidl_death_recipientEEE
_ZN7android8hardware5radio4V1_07BpHwSap14_hidl_powerReqEPNS0_10IInterfaceEPNS0_7details16HidlInstrumentorEib
_ZN7android8hardware5radio4V1_07BpHwSap14interfaceChainENSt3__18functionIFvRKNS0_8hidl_vecINS0_11hidl_stringEEEEEE
_ZN7android8hardware5radio4V1_07BpHwSap14transferAtrReqEi
_ZN7android8hardware5radio4V1_07BpHwSap16_hidl_connectReqEPNS0_10IInterfaceEPNS0_7details16HidlInstrumentorEii
_ZN7android8hardware5radio4V1_07BpHwSap17_hidl_resetSimReqEPNS0_10IInterfaceEPNS0_7details16HidlInstrumentorEi
_ZN7android8hardware5radio4V1_07BpHwSap17_hidl_setCallbackEPNS0_10IInterfaceEPNS0_7details16HidlInstrumentorERKNS_2spINS2_12ISapCallbackEEE
_ZN7android8hardware5radio4V1_07BpHwSap19_hidl_disconnectReqEPNS0_10IInterfaceEPNS0_7details16HidlInstrumentorEi
_ZN7android8hardware5radio4V1_07BpHwSap19interfaceDescriptorENSt3__18functionIFvRKNS0_11hidl_stringEEEE
_ZN7android8hardware5radio4V1_07BpHwSap20_hidl_transferAtrReqEPNS0_10IInterfaceEPNS0_7details16HidlInstrumentorEi
_ZN7android8hardware5radio4V1_07BpHwSap21notifySyspropsChangedEv
_ZN7android8hardware5radio4V1_07BpHwSap21setHALInstrumentationEv
_ZN7android8hardware5radio4V1_07BpHwSap22setTransferProtocolReqEiNS2_19SapTransferProtocolE
_ZN7android8hardware5radio4V1_07BpHwSap27transferCardReaderStatusReqEi
_ZN7android8hardware5radio4V1_07BpHwSap28_hidl_setTransferProtocolReqEPNS0_10IInterfaceEPNS0_7details16HidlInstrumentorEiNS2_19SapTransferProtocolE
_ZN7android8hardware5radio4V1_07BpHwSap33_hidl_transferCardReaderStatusReqEPNS0_10IInterfaceEPNS0_7details16HidlInstrumentorEi
_ZN7android8hardware5radio4V1_07BpHwSap4pingEv
_ZN7android8hardware5radio4V1_07BpHwSap5debugERKNS0_11hidl_handleERKNS0_8hidl_vecINS0_11hidl_stringEEE
_ZN7android8hardware5radio4V1_07BpHwSap7apduReqEiNS2_11SapApduTypeERKNS0_8hidl_vecIhEE
_ZN7android8hardware5radio4V1_07BpHwSap8powerReqEib
_ZN7android8hardware5radio4V1_07BpHwSapC1ERKNS_2spINS0_7IBinderEEE
_ZN7android8hardware5radio4V1_07BpHwSapC2ERKNS_2spINS0_7IBinderEEE
_ZN7android8hardware5radio4V1_07BsRadio13addOnewayTaskENSt3__18functionIFvvEEE
_ZN7android8hardware5radio4V1_07BsRadioC1ENS_2spINS2_6IRadioEEE
_ZN7android8hardware5radio4V1_07BsRadioC2ENS_2spINS2_6IRadioEEE
_ZN7android8hardware5radio4V1_09BnHwRadio10_hidl_dialEPNS_4hidl4base4V1_08BnHwBaseERKNS0_6ParcelEPS9_NSt3__18functionIFvRS9_EEE
_ZN7android8hardware5radio4V1_09BnHwRadio10onTransactEjRKNS0_6ParcelEPS4_jNSt3__18functionIFvRS4_EEE
_ZN7android8hardware5radio4V1_09BnHwRadio12_hidl_hangupEPNS_4hidl4base4V1_08BnHwBaseERKNS0_6ParcelEPS9_NSt3__18functionIFvRS9_EEE
_ZN7android8hardware5radio4V1_09BnHwRadio12getDebugInfoENSt3__18functionIFvRKNS_4hidl4base4V1_09DebugInfoEEEE
_ZN7android8hardware5radio4V1_09BnHwRadio13_hidl_getClipEPNS_4hidl4base4V1_08BnHwBaseERKNS0_6ParcelEPS9_NSt3__18functionIFvRS9_EEE
_ZN7android8hardware5radio4V1_09BnHwRadio13_hidl_getClirEPNS_4hidl4base4V1_08BnHwBaseERKNS0_6ParcelEPS9_NSt3__18functionIFvRS9_EEE
_ZN7android8hardware5radio4V1_09BnHwRadio13_hidl_getMuteEPNS_4hidl4base4V1_08BnHwBaseERKNS0_6ParcelEPS9_NSt3__18functionIFvRS9_EEE
_ZN7android8hardware5radio4V1_09BnHwRadio13_hidl_sendSmsEPNS_4hidl4base4V1_08BnHwBaseERKNS0_6ParcelEPS9_NSt3__18functionIFvRS9_EEE
_ZN7android8hardware5radio4V1_09BnHwRadio13_hidl_setClirEPNS_4hidl4base4V1_08BnHwBaseERKNS0_6ParcelEPS9_NSt3__18functionIFvRS9_EEE
_ZN7android8hardware5radio4V1_09BnHwRadio13_hidl_setMuteEPNS_4hidl4base4V1_08BnHwBaseERKNS0_6ParcelEPS9_NSt3__18functionIFvRS9_EEE
_ZN7android8hardware5radio4V1_09BnHwRadio14_hidl_sendDtmfEPNS_4hidl4base4V1_08BnHwBaseERKNS0_6ParcelEPS9_NSt3__18functionIFvRS9_EEE
_ZN7android8hardware5radio4V1_09BnHwRadio14_hidl_sendUssdEPNS_4hidl4base4V1_08BnHwBaseERKNS0_6ParcelEPS9_NSt3__18functionIFvRS9_EEE
_ZN7android8hardware5radio4V1_09BnHwRadio14_hidl_stopDtmfEPNS_4hidl4base4V1_08BnHwBaseERKNS0_6ParcelEPS9_NSt3__18functionIFvRS9_EEE
_ZN7android8hardware5radio4V1_09BnHwRadio15_hidl_startDtmfEPNS_4hidl4base4V1_08BnHwBaseERKNS0_6ParcelEPS9_NSt3__18functionIFvRS9_EEE
_ZN7android8hardware5radio4V1_09BnHwRadio16_hidl_acceptCallEPNS_4hidl4base4V1_08BnHwBaseERKNS0_6ParcelEPS9_NSt3__18functionIFvRS9_EEE
_ZN7android8hardware5radio4V1_09BnHwRadio16_hidl_conferenceEPNS_4hidl4base4V1_08BnHwBaseERKNS0_6ParcelEPS9_NSt3__18functionIFvRS9_EEE
_ZN7android8hardware5radio4V1_09BnHwRadio16_hidl_getTTYModeEPNS_4hidl4base4V1_08BnHwBaseERKNS0_6ParcelEPS9_NSt3__18functionIFvRS9_EEE
_ZN7android8hardware5radio4V1_09BnHwRadio16_hidl_nvReadItemEPNS_4hidl4base4V1_08BnHwBaseERKNS0_6ParcelEPS9_NSt3__18functionIFvRS9_EEE
_ZN7android8hardware5radio4V1_09BnHwRadio16_hidl_rejectCallEPNS_4hidl4base4V1_08BnHwBaseERKNS0_6ParcelEPS9_NSt3__18functionIFvRS9_EEE
_ZN7android8hardware5radio4V1_09BnHwRadio16_hidl_sendImsSmsEPNS_4hidl4base4V1_08BnHwBaseERKNS0_6ParcelEPS9_NSt3__18functionIFvRS9_EEE
_ZN7android8hardware5radio4V1_09BnHwRadio16_hidl_setTTYModeEPNS_4hidl4base4V1_08BnHwBaseERKNS0_6ParcelEPS9_NSt3__18functionIFvRS9_EEE
_ZN7android8hardware5radio4V1_09BnHwRadio17_hidl_getOperatorEPNS_4hidl4base4V1_08BnHwBaseERKNS0_6ParcelEPS9_NSt3__18functionIFvRS9_EEE
_ZN7android8hardware5radio4V1_09BnHwRadio17_hidl_iccIOForAppEPNS_4hidl4base4V1_08BnHwBaseERKNS0_6ParcelEPS9_NSt3__18functionIFvRS9_EEE
_ZN7android8hardware5radio4V1_09BnHwRadio17_hidl_nvWriteItemEPNS_4hidl4base4V1_08BnHwBaseERKNS0_6ParcelEPS9_NSt3__18functionIFvRS9_EEE
_ZN7android8hardware5radio4V1_09BnHwRadio17_hidl_pullLceDataEPNS_4hidl4base4V1_08BnHwBaseERKNS0_6ParcelEPS9_NSt3__18functionIFvRS9_EEE
_ZN7android8hardware5radio4V1_09BnHwRadio17_hidl_sendCdmaSmsEPNS_4hidl4base4V1_08BnHwBaseERKNS0_6ParcelEPS9_NSt3__18functionIFvRS9_EEE
_ZN7android8hardware5radio4V1_09BnHwRadio17_hidl_setBandModeEPNS_4hidl4base4V1_08BnHwBaseERKNS0_6ParcelEPS9_NSt3__18functionIFvRS9_EEE
_ZN7android8hardware5radio4V1_09BnHwRadio18_hidl_sendEnvelopeEPNS_4hidl4base4V1_08BnHwBaseERKNS0_6ParcelEPS9_NSt3__18functionIFvRS9_EEE
_ZN7android8hardware5radio4V1_09BnHwRadio19_hidl_getImsiForAppEPNS_4hidl4base4V1_08BnHwBaseERKNS0_6ParcelEPS9_NSt3__18functionIFvRS9_EEE
_ZN7android8hardware5radio4V1_09BnHwRadio19_hidl_nvResetConfigEPNS_4hidl4base4V1_08BnHwBaseERKNS0_6ParcelEPS9_NSt3__18functionIFvRS9_EEE
_ZN7android8hardware5radio4V1_09BnHwRadio19_hidl_sendBurstDtmfEPNS_4hidl4base4V1_08BnHwBaseERKNS0_6ParcelEPS9_NSt3__18functionIFvRS9_EEE
_ZN7android8hardware5radio4V1_09BnHwRadio19_hidl_setRadioPowerEPNS_4hidl4base4V1_08BnHwBaseERKNS0_6ParcelEPS9_NSt3__18functionIFvRS9_EEE
_ZN7android8hardware5radio4V1_09BnHwRadio19_hidl_setupDataCallEPNS_4hidl4base4V1_08BnHwBaseERKNS0_6ParcelEPS9_NSt3__18functionIFvRS9_EEE
_ZN7android8hardware5radio4V1_09BnHwRadio19_hidl_writeSmsToSimEPNS_4hidl4base4V1_08BnHwBaseERKNS0_6ParcelEPS9_NSt3__18functionIFvRS9_EEE
_ZN7android8hardware5radio4V1_09BnHwRadio20_hidl_deleteSmsOnSimEPNS_4hidl4base4V1_08BnHwBaseERKNS0_6ParcelEPS9_NSt3__18functionIFvRS9_EEE
_ZN7android8hardware5radio4V1_09BnHwRadio20_hidl_getCallWaitingEPNS_4hidl4base4V1_08BnHwBaseERKNS0_6ParcelEPS9_NSt3__18functionIFvRS9_EEE
_ZN7android8hardware5radio4V1_09BnHwRadio20_hidl_getSmscAddressEPNS_4hidl4base4V1_08BnHwBaseERKNS0_6ParcelEPS9_NSt3__18functionIFvRS9_EEE
_ZN7android8hardware5radio4V1_09BnHwRadio20_hidl_nvWriteCdmaPrlEPNS_4hidl4base4V1_08BnHwBaseERKNS0_6ParcelEPS9_NSt3__18functionIFvRS9_EEE
_ZN7android8hardware5radio4V1_09BnHwRadio20_hidl_setCallForwardEPNS_4hidl4base4V1_08BnHwBaseERKNS0_6ParcelEPS9_NSt3__18functionIFvRS9_EEE
_ZN7android8hardware5radio4V1_09BnHwRadio20_hidl_setCallWaitingEPNS_4hidl4base4V1_08BnHwBaseERKNS0_6ParcelEPS9_NSt3__18functionIFvRS9_EEE
_ZN7android8hardware5radio4V1_09BnHwRadio20_hidl_setDataAllowedEPNS_4hidl4base4V1_08BnHwBaseERKNS0_6ParcelEPS9_NSt3__18functionIFvRS9_EEE
_ZN7android8hardware5radio4V1_09BnHwRadio20_hidl_setDataProfileEPNS_4hidl4base4V1_08BnHwBaseERKNS0_6ParcelEPS9_NSt3__18functionIFvRS9_EEE
_ZN7android8hardware5radio4V1_09BnHwRadio20_hidl_setSmscAddressEPNS_4hidl4base4V1_08BnHwBaseERKNS0_6ParcelEPS9_NSt3__18functionIFvRS9_EEE
_ZN7android8hardware5radio4V1_09BnHwRadio20_hidl_stopLceServiceEPNS_4hidl4base4V1_08BnHwBaseERKNS0_6ParcelEPS9_NSt3__18functionIFvRS9_EEE
_ZN7android8hardware5radio4V1_09BnHwRadio20_hidl_writeSmsToRuimEPNS_4hidl4base4V1_08BnHwBaseERKNS0_6ParcelEPS9_NSt3__18functionIFvRS9_EEE
_ZN7android8hardware5radio4V1_09BnHwRadio21_hidl_deleteSmsOnRuimEPNS_4hidl4base4V1_08BnHwBaseERKNS0_6ParcelEPS9_NSt3__18functionIFvRS9_EEE
_ZN7android8hardware5radio4V1_09BnHwRadio21_hidl_getCellInfoListEPNS_4hidl4base4V1_08BnHwBaseERKNS0_6ParcelEPS9_NSt3__18functionIFvRS9_EEE
_ZN7android8hardware5radio4V1_09BnHwRadio21_hidl_getCurrentCallsEPNS_4hidl4base4V1_08BnHwBaseERKNS0_6ParcelEPS9_NSt3__18functionIFvRS9_EEE
_ZN7android8hardware5radio4V1_09BnHwRadio21_hidl_getDataCallListEPNS_4hidl4base4V1_08BnHwBaseERKNS0_6ParcelEPS9_NSt3__18functionIFvRS9_EEE
_ZN7android8hardware5radio4V1_09BnHwRadio21_hidl_requestShutdownEPNS_4hidl4base4V1_08BnHwBaseERKNS0_6ParcelEPS9_NSt3__18functionIFvRS9_EEE
_ZN7android8hardware5radio4V1_09BnHwRadio21_hidl_sendDeviceStateEPNS_4hidl4base4V1_08BnHwBaseERKNS0_6ParcelEPS9_NSt3__18functionIFvRS9_EEE
_ZN7android8hardware5radio4V1_09BnHwRadio21_hidl_setSimCardPowerEPNS_4hidl4base4V1_08BnHwBaseERKNS0_6ParcelEPS9_NSt3__18functionIFvRS9_EEE
_ZN7android8hardware5radio4V1_09BnHwRadio21_hidl_startLceServiceEPNS_4hidl4base4V1_08BnHwBaseERKNS0_6ParcelEPS9_NSt3__18functionIFvRS9_EEE
_ZN7android8hardware5radio4V1_09BnHwRadio22_hidl_getIccCardStatusEPNS_4hidl4base4V1_08BnHwBaseERKNS0_6ParcelEPS9_NSt3__18functionIFvRS9_EEE
_ZN7android8hardware5radio4V1_09BnHwRadio23_hidl_cancelPendingUssdEPNS_4hidl4base4V1_08BnHwBaseERKNS0_6ParcelEPS9_NSt3__18functionIFvRS9_EEE
_ZN7android8hardware5radio4V1_09BnHwRadio23_hidl_getDeviceIdentityEPNS_4hidl4base4V1_08BnHwBaseERKNS0_6ParcelEPS9_NSt3__18functionIFvRS9_EEE
_ZN7android8hardware5radio4V1_09BnHwRadio23_hidl_getHardwareConfigEPNS_4hidl4base4V1_08BnHwBaseERKNS0_6ParcelEPS9_NSt3__18functionIFvRS9_EEE
_ZN7android8hardware5radio4V1_09BnHwRadio23_hidl_getSignalStrengthEPNS_4hidl4base4V1_08BnHwBaseERKNS0_6ParcelEPS9_NSt3__18functionIFvRS9_EEE
_ZN7android8hardware5radio4V1_09BnHwRadio23_hidl_sendSMSExpectMoreEPNS_4hidl4base4V1_08BnHwBaseERKNS0_6ParcelEPS9_NSt3__18functionIFvRS9_EEE
_ZN7android8hardware5radio4V1_09BnHwRadio24_hidl_changeIccPinForAppEPNS_4hidl4base4V1_08BnHwBaseERKNS0_6ParcelEPS9_NSt3__18functionIFvRS9_EEE
_ZN7android8hardware5radio4V1_09BnHwRadio24_hidl_deactivateDataCallEPNS_4hidl4base4V1_08BnHwBaseERKNS0_6ParcelEPS9_NSt3__18functionIFvRS9_EEE
_ZN7android8hardware5radio4V1_09BnHwRadio24_hidl_getAllowedCarriersEPNS_4hidl4base4V1_08BnHwBaseERKNS0_6ParcelEPS9_NSt3__18functionIFvRS9_EEE
_ZN7android8hardware5radio4V1_09BnHwRadio24_hidl_getBasebandVersionEPNS_4hidl4base4V1_08BnHwBaseERKNS0_6ParcelEPS9_NSt3__18functionIFvRS9_EEE
_ZN7android8hardware5radio4V1_09BnHwRadio24_hidl_getNeighboringCidsEPNS_4hidl4base4V1_08BnHwBaseERKNS0_6ParcelEPS9_NSt3__18functionIFvRS9_EEE
_ZN7android8hardware5radio4V1_09BnHwRadio24_hidl_getRadioCapabilityEPNS_4hidl4base4V1_08BnHwBaseERKNS0_6ParcelEPS9_NSt3__18functionIFvRS9_EEE
_ZN7android8hardware5radio4V1_09BnHwRadio24_hidl_separateConnectionEPNS_4hidl4base4V1_08BnHwBaseERKNS0_6ParcelEPS9_NSt3__18functionIFvRS9_EEE
_ZN7android8hardware5radio4V1_09BnHwRadio24_hidl_setAllowedCarriersEPNS_4hidl4base4V1_08BnHwBaseERKNS0_6ParcelEPS9_NSt3__18functionIFvRS9_EEE
_ZN7android8hardware5radio4V1_09BnHwRadio24_hidl_setBarringPasswordEPNS_4hidl4base4V1_08BnHwBaseERKNS0_6ParcelEPS9_NSt3__18functionIFvRS9_EEE
_ZN7android8hardware5radio4V1_09BnHwRadio24_hidl_setLocationUpdatesEPNS_4hidl4base4V1_08BnHwBaseERKNS0_6ParcelEPS9_NSt3__18functionIFvRS9_EEE
_ZN7android8hardware5radio4V1_09BnHwRadio24_hidl_setRadioCapabilityEPNS_4hidl4base4V1_08BnHwBaseERKNS0_6ParcelEPS9_NSt3__18functionIFvRS9_EEE
_ZN7android8hardware5radio4V1_09BnHwRadio24_hidl_supplyIccPinForAppEPNS_4hidl4base4V1_08BnHwBaseERKNS0_6ParcelEPS9_NSt3__18functionIFvRS9_EEE
_ZN7android8hardware5radio4V1_09BnHwRadio24_hidl_supplyIccPukForAppEPNS_4hidl4base4V1_08BnHwBaseERKNS0_6ParcelEPS9_NSt3__18functionIFvRS9_EEE
_ZN7android8hardware5radio4V1_09BnHwRadio25_hidl_changeIccPin2ForAppEPNS_4hidl4base4V1_08BnHwBaseERKNS0_6ParcelEPS9_NSt3__18functionIFvRS9_EEE
_ZN7android8hardware5radio4V1_09BnHwRadio25_hidl_getCDMASubscriptionEPNS_4hidl4base4V1_08BnHwBaseERKNS0_6ParcelEPS9_NSt3__18functionIFvRS9_EEE
_ZN7android8hardware5radio4V1_09BnHwRadio25_hidl_sendCDMAFeatureCodeEPNS_4hidl4base4V1_08BnHwBaseERKNS0_6ParcelEPS9_NSt3__18functionIFvRS9_EEE
_ZN7android8hardware5radio4V1_09BnHwRadio25_hidl_setCellInfoListRateEPNS_4hidl4base4V1_08BnHwBaseERKNS0_6ParcelEPS9_NSt3__18functionIFvRS9_EEE
_ZN7android8hardware5radio4V1_09BnHwRadio25_hidl_setIndicationFilterEPNS_4hidl4base4V1_08BnHwBaseERKNS0_6ParcelEPS9_NSt3__18functionIFvRS9_EEE
_ZN7android8hardware5radio4V1_09BnHwRadio25_hidl_setInitialAttachApnEPNS_4hidl4base4V1_08BnHwBaseERKNS0_6ParcelEPS9_NSt3__18functionIFvRS9_EEE
_ZN7android8hardware5radio4V1_09BnHwRadio25_hidl_setUiccSubscriptionEPNS_4hidl4base4V1_08BnHwBaseERKNS0_6ParcelEPS9_NSt3__18functionIFvRS9_EEE
_ZN7android8hardware5radio4V1_09BnHwRadio25_hidl_supplyIccPin2ForAppEPNS_4hidl4base4V1_08BnHwBaseERKNS0_6ParcelEPS9_NSt3__18functionIFvRS9_EEE
_ZN7android8hardware5radio4V1_09BnHwRadio25_hidl_supplyIccPuk2ForAppEPNS_4hidl4base4V1_08BnHwBaseERKNS0_6ParcelEPS9_NSt3__18functionIFvRS9_EEE
_ZN7android8hardware5radio4V1_09BnHwRadio26_hidl_explicitCallTransferEPNS_4hidl4base4V1_08BnHwBaseERKNS0_6ParcelEPS9_NSt3__18functionIFvRS9_EEE
_ZN7android8hardware5radio4V1_09BnHwRadio26_hidl_getAvailableNetworksEPNS_4hidl4base4V1_08BnHwBaseERKNS0_6ParcelEPS9_NSt3__18functionIFvRS9_EEE
_ZN7android8hardware5radio4V1_09BnHwRadio26_hidl_getCallForwardStatusEPNS_4hidl4base4V1_08BnHwBaseERKNS0_6ParcelEPS9_NSt3__18functionIFvRS9_EEE
_ZN7android8hardware5radio4V1_09BnHwRadio26_hidl_getLastCallFailCauseEPNS_4hidl4base4V1_08BnHwBaseERKNS0_6ParcelEPS9_NSt3__18functionIFvRS9_EEE
_ZN7android8hardware5radio4V1_09BnHwRadio26_hidl_getModemActivityInfoEPNS_4hidl4base4V1_08BnHwBaseERKNS0_6ParcelEPS9_NSt3__18functionIFvRS9_EEE
_ZN7android8hardware5radio4V1_09BnHwRadio26_hidl_setResponseFunctionsEPNS_4hidl4base4V1_08BnHwBaseERKNS0_6ParcelEPS9_NSt3__18functionIFvRS9_EEE
_ZN7android8hardware5radio4V1_09BnHwRadio27_hidl_getAvailableBandModesEPNS_4hidl4base4V1_08BnHwBaseERKNS0_6ParcelEPS9_NSt3__18functionIFvRS9_EEE
_ZN7android8hardware5radio4V1_09BnHwRadio27_hidl_getFacilityLockForAppEPNS_4hidl4base4V1_08BnHwBaseERKNS0_6ParcelEPS9_NSt3__18functionIFvRS9_EEE
_ZN7android8hardware5radio4V1_09BnHwRadio27_hidl_getGsmBroadcastConfigEPNS_4hidl4base4V1_08BnHwBaseERKNS0_6ParcelEPS9_NSt3__18functionIFvRS9_EEE
_ZN7android8hardware5radio4V1_09BnHwRadio27_hidl_iccOpenLogicalChannelEPNS_4hidl4base4V1_08BnHwBaseERKNS0_6ParcelEPS9_NSt3__18functionIFvRS9_EEE
_ZN7android8hardware5radio4V1_09BnHwRadio27_hidl_reportSmsMemoryStatusEPNS_4hidl4base4V1_08BnHwBaseERKNS0_6ParcelEPS9_NSt3__18functionIFvRS9_EEE
_ZN7android8hardware5radio4V1_09BnHwRadio27_hidl_setFacilityLockForAppEPNS_4hidl4base4V1_08BnHwBaseERKNS0_6ParcelEPS9_NSt3__18functionIFvRS9_EEE
_ZN7android8hardware5radio4V1_09BnHwRadio27_hidl_setGsmBroadcastConfigEPNS_4hidl4base4V1_08BnHwBaseERKNS0_6ParcelEPS9_NSt3__18functionIFvRS9_EEE
_ZN7android8hardware5radio4V1_09BnHwRadio28_hidl_getCdmaBroadcastConfigEPNS_4hidl4base4V1_08BnHwBaseERKNS0_6ParcelEPS9_NSt3__18functionIFvRS9_EEE
_ZN7android8hardware5radio4V1_09BnHwRadio28_hidl_iccCloseLogicalChannelEPNS_4hidl4base4V1_08BnHwBaseERKNS0_6ParcelEPS9_NSt3__18functionIFvRS9_EEE
_ZN7android8hardware5radio4V1_09BnHwRadio28_hidl_sendEnvelopeWithStatusEPNS_4hidl4base4V1_08BnHwBaseERKNS0_6ParcelEPS9_NSt3__18functionIFvRS9_EEE
_ZN7android8hardware5radio4V1_09BnHwRadio28_hidl_setCdmaBroadcastConfigEPNS_4hidl4base4V1_08BnHwBaseERKNS0_6ParcelEPS9_NSt3__18functionIFvRS9_EEE
_ZN7android8hardware5radio4V1_09BnHwRadio29_hidl_getImsRegistrationStateEPNS_4hidl4base4V1_08BnHwBaseERKNS0_6ParcelEPS9_NSt3__18functionIFvRS9_EEE
_ZN7android8hardware5radio4V1_09BnHwRadio29_hidl_getNetworkSelectionModeEPNS_4hidl4base4V1_08BnHwBaseERKNS0_6ParcelEPS9_NSt3__18functionIFvRS9_EEE
_ZN7android8hardware5radio4V1_09BnHwRadio29_hidl_getPreferredNetworkTypeEPNS_4hidl4base4V1_08BnHwBaseERKNS0_6ParcelEPS9_NSt3__18functionIFvRS9_EEE
_ZN7android8hardware5radio4V1_09BnHwRadio29_hidl_getVoiceRadioTechnologyEPNS_4hidl4base4V1_08BnHwBaseERKNS0_6ParcelEPS9_NSt3__18functionIFvRS9_EEE
_ZN7android8hardware5radio4V1_09BnHwRadio29_hidl_responseAcknowledgementEPNS_4hidl4base4V1_08BnHwBaseERKNS0_6ParcelEPS9_NSt3__18functionIFvRS9_EEE
_ZN7android8hardware5radio4V1_09BnHwRadio29_hidl_setPreferredNetworkTypeEPNS_4hidl4base4V1_08BnHwBaseERKNS0_6ParcelEPS9_NSt3__18functionIFvRS9_EEE
_ZN7android8hardware5radio4V1_09BnHwRadio30_hidl_getCdmaRoamingPreferenceEPNS_4hidl4base4V1_08BnHwBaseERKNS0_6ParcelEPS9_NSt3__18functionIFvRS9_EEE
_ZN7android8hardware5radio4V1_09BnHwRadio30_hidl_getDataRegistrationStateEPNS_4hidl4base4V1_08BnHwBaseERKNS0_6ParcelEPS9_NSt3__18functionIFvRS9_EEE
_ZN7android8hardware5radio4V1_09BnHwRadio30_hidl_getPreferredVoicePrivacyEPNS_4hidl4base4V1_08BnHwBaseERKNS0_6ParcelEPS9_NSt3__18functionIFvRS9_EEE
_ZN7android8hardware5radio4V1_09BnHwRadio30_hidl_setCdmaRoamingPreferenceEPNS_4hidl4base4V1_08BnHwBaseERKNS0_6ParcelEPS9_NSt3__18functionIFvRS9_EEE
_ZN7android8hardware5radio4V1_09BnHwRadio30_hidl_setPreferredVoicePrivacyEPNS_4hidl4base4V1_08BnHwBaseERKNS0_6ParcelEPS9_NSt3__18functionIFvRS9_EEE
_ZN7android8hardware5radio4V1_09BnHwRadio31_hidl_exitEmergencyCallbackModeEPNS_4hidl4base4V1_08BnHwBaseERKNS0_6ParcelEPS9_NSt3__18functionIFvRS9_EEE
_ZN7android8hardware5radio4V1_09BnHwRadio31_hidl_getCdmaSubscriptionSourceEPNS_4hidl4base4V1_08BnHwBaseERKNS0_6ParcelEPS9_NSt3__18functionIFvRS9_EEE
_ZN7android8hardware5radio4V1_09BnHwRadio31_hidl_getVoiceRegistrationStateEPNS_4hidl4base4V1_08BnHwBaseERKNS0_6ParcelEPS9_NSt3__18functionIFvRS9_EEE
_ZN7android8hardware5radio4V1_09BnHwRadio31_hidl_hangupWaitingOrBackgroundEPNS_4hidl4base4V1_08BnHwBaseERKNS0_6ParcelEPS9_NSt3__18functionIFvRS9_EEE
_ZN7android8hardware5radio4V1_09BnHwRadio31_hidl_reportStkServiceIsRunningEPNS_4hidl4base4V1_08BnHwBaseERKNS0_6ParcelEPS9_NSt3__18functionIFvRS9_EEE
_ZN7android8hardware5radio4V1_09BnHwRadio31_hidl_requestIsimAuthenticationEPNS_4hidl4base4V1_08BnHwBaseERKNS0_6ParcelEPS9_NSt3__18functionIFvRS9_EEE
_ZN7android8hardware5radio4V1_09BnHwRadio31_hidl_sendTerminalResponseToSimEPNS_4hidl4base4V1_08BnHwBaseERKNS0_6ParcelEPS9_NSt3__18functionIFvRS9_EEE
_ZN7android8hardware5radio4V1_09BnHwRadio31_hidl_setCdmaSubscriptionSourceEPNS_4hidl4base4V1_08BnHwBaseERKNS0_6ParcelEPS9_NSt3__18functionIFvRS9_EEE
_ZN7android8hardware5radio4V1_09BnHwRadio31_hidl_setGsmBroadcastActivationEPNS_4hidl4base4V1_08BnHwBaseERKNS0_6ParcelEPS9_NSt3__18functionIFvRS9_EEE
_ZN7android8hardware5radio4V1_09BnHwRadio32_hidl_setCdmaBroadcastActivationEPNS_4hidl4base4V1_08BnHwBaseERKNS0_6ParcelEPS9_NSt3__18functionIFvRS9_EEE
_ZN7android8hardware5radio4V1_09BnHwRadio33_hidl_iccTransmitApduBasicChannelEPNS_4hidl4base4V1_08BnHwBaseERKNS0_6ParcelEPS9_NSt3__18functionIFvRS9_EEE
_ZN7android8hardware5radio4V1_09BnHwRadio33_hidl_requestIccSimAuthenticationEPNS_4hidl4base4V1_08BnHwBaseERKNS0_6ParcelEPS9_NSt3__18functionIFvRS9_EEE
_ZN7android8hardware5radio4V1_09BnHwRadio33_hidl_setSuppServiceNotificationsEPNS_4hidl4base4V1_08BnHwBaseERKNS0_6ParcelEPS9_NSt3__18functionIFvRS9_EEE
_ZN7android8hardware5radio4V1_09BnHwRadio35_hidl_acknowledgeLastIncomingGsmSmsEPNS_4hidl4base4V1_08BnHwBaseERKNS0_6ParcelEPS9_NSt3__18functionIFvRS9_EEE
_ZN7android8hardware5radio4V1_09BnHwRadio35_hidl_iccTransmitApduLogicalChannelEPNS_4hidl4base4V1_08BnHwBaseERKNS0_6ParcelEPS9_NSt3__18functionIFvRS9_EEE
_ZN7android8hardware5radio4V1_09BnHwRadio35_hidl_setNetworkSelectionModeManualEPNS_4hidl4base4V1_08BnHwBaseERKNS0_6ParcelEPS9_NSt3__18functionIFvRS9_EEE
_ZN7android8hardware5radio4V1_09BnHwRadio36_hidl_acknowledgeLastIncomingCdmaSmsEPNS_4hidl4base4V1_08BnHwBaseERKNS0_6ParcelEPS9_NSt3__18functionIFvRS9_EEE
_ZN7android8hardware5radio4V1_09BnHwRadio36_hidl_supplyNetworkDepersonalizationEPNS_4hidl4base4V1_08BnHwBaseERKNS0_6ParcelEPS9_NSt3__18functionIFvRS9_EEE
_ZN7android8hardware5radio4V1_09BnHwRadio37_hidl_switchWaitingOrHoldingAndActiveEPNS_4hidl4base4V1_08BnHwBaseERKNS0_6ParcelEPS9_NSt3__18functionIFvRS9_EEE
_ZN7android8hardware5radio4V1_09BnHwRadio38_hidl_acknowledgeIncomingGsmSmsWithPduEPNS_4hidl4base4V1_08BnHwBaseERKNS0_6ParcelEPS9_NSt3__18functionIFvRS9_EEE
_ZN7android8hardware5radio4V1_09BnHwRadio38_hidl_handleStkCallSetupRequestFromSimEPNS_4hidl4base4V1_08BnHwBaseERKNS0_6ParcelEPS9_NSt3__18functionIFvRS9_EEE
_ZN7android8hardware5radio4V1_09BnHwRadio38_hidl_hangupForegroundResumeBackgroundEPNS_4hidl4base4V1_08BnHwBaseERKNS0_6ParcelEPS9_NSt3__18functionIFvRS9_EEE
_ZN7android8hardware5radio4V1_09BnHwRadio38_hidl_setNetworkSelectionModeAutomaticEPNS_4hidl4base4V1_08BnHwBaseERKNS0_6ParcelEPS9_NSt3__18functionIFvRS9_EEE
_ZN7android8hardware5radio4V1_09BnHwRadio4pingEv
_ZN7android8hardware5radio4V1_09BnHwRadioC1ERKNS_2spINS2_6IRadioEEE
_ZN7android8hardware5radio4V1_09BnHwRadioC2ERKNS_2spINS2_6IRadioEEE
_ZN7android8hardware5radio4V1_09BnHwRadioD0Ev
_ZN7android8hardware5radio4V1_09BnHwRadioD1Ev
_ZN7android8hardware5radio4V1_09BnHwRadioD2Ev
_ZN7android8hardware5radio4V1_09BpHwRadio10_hidl_dialEPNS0_10IInterfaceEPNS0_7details16HidlInstrumentorEiRKNS2_4DialE
_ZN7android8hardware5radio4V1_09BpHwRadio10acceptCallEi
_ZN7android8hardware5radio4V1_09BpHwRadio10conferenceEi
_ZN7android8hardware5radio4V1_09BpHwRadio10getTTYModeEi
_ZN7android8hardware5radio4V1_09BpHwRadio10nvReadItemEiNS2_6NvItemE
_ZN7android8hardware5radio4V1_09BpHwRadio10rejectCallEi
_ZN7android8hardware5radio4V1_09BpHwRadio10sendImsSmsEiRKNS2_13ImsSmsMessageE
_ZN7android8hardware5radio4V1_09BpHwRadio10setTTYModeEiNS2_7TtyModeE
_ZN7android8hardware5radio4V1_09BpHwRadio11getOperatorEi
_ZN7android8hardware5radio4V1_09BpHwRadio11iccIOForAppEiRKNS2_5IccIoE
_ZN7android8hardware5radio4V1_09BpHwRadio11linkToDeathERKNS_2spINS0_20hidl_death_recipientEEEy
_ZN7android8hardware5radio4V1_09BpHwRadio11nvWriteItemEiRKNS2_11NvWriteItemE
_ZN7android8hardware5radio4V1_09BpHwRadio11pullLceDataEi
_ZN7android8hardware5radio4V1_09BpHwRadio11sendCdmaSmsEiRKNS2_14CdmaSmsMessageE
_ZN7android8hardware5radio4V1_09BpHwRadio11setBandModeEiNS2_13RadioBandModeE
_ZN7android8hardware5radio4V1_09BpHwRadio12_hidl_hangupEPNS0_10IInterfaceEPNS0_7details16HidlInstrumentorEii
_ZN7android8hardware5radio4V1_09BpHwRadio12getDebugInfoENSt3__18functionIFvRKNS_4hidl4base4V1_09DebugInfoEEEE
_ZN7android8hardware5radio4V1_09BpHwRadio12getHashChainENSt3__18functionIFvRKNS0_8hidl_vecINS0_10hidl_arrayIhLj32EJEEEEEEEE
_ZN7android8hardware5radio4V1_09BpHwRadio12sendEnvelopeEiRKNS0_11hidl_stringE
_ZN7android8hardware5radio4V1_09BpHwRadio13_hidl_getClipEPNS0_10IInterfaceEPNS0_7details16HidlInstrumentorEi
_ZN7android8hardware5radio4V1_09BpHwRadio13_hidl_getClirEPNS0_10IInterfaceEPNS0_7details16HidlInstrumentorEi
_ZN7android8hardware5radio4V1_09BpHwRadio13_hidl_getMuteEPNS0_10IInterfaceEPNS0_7details16HidlInstrumentorEi
_ZN7android8hardware5radio4V1_09BpHwRadio13_hidl_sendSmsEPNS0_10IInterfaceEPNS0_7details16HidlInstrumentorEiRKNS2_13GsmSmsMessageE
_ZN7android8hardware5radio4V1_09BpHwRadio13_hidl_setClirEPNS0_10IInterfaceEPNS0_7details16HidlInstrumentorEii
_ZN7android8hardware5radio4V1_09BpHwRadio13_hidl_setMuteEPNS0_10IInterfaceEPNS0_7details16HidlInstrumentorEib
_ZN7android8hardware5radio4V1_09BpHwRadio13getImsiForAppEiRKNS0_11hidl_stringE
_ZN7android8hardware5radio4V1_09BpHwRadio13nvResetConfigEiNS2_11ResetNvTypeE
_ZN7android8hardware5radio4V1_09BpHwRadio13sendBurstDtmfEiRKNS0_11hidl_stringEii
_ZN7android8hardware5radio4V1_09BpHwRadio13setRadioPowerEib
_ZN7android8hardware5radio4V1_09BpHwRadio13setupDataCallEiNS2_15RadioTechnologyERKNS2_15DataProfileInfoEbbb
_ZN7android8hardware5radio4V1_09BpHwRadio13unlinkToDeathERKNS_2spINS0_20hidl_death_recipientEEE
_ZN7android8hardware5radio4V1_09BpHwRadio13writeSmsToSimEiRKNS2_12SmsWriteArgsE
_ZN7android8hardware5radio4V1_09BpHwRadio14_hidl_sendDtmfEPNS0_10IInterfaceEPNS0_7details16HidlInstrumentorEiRKNS0_11hidl_stringE
_ZN7android8hardware5radio4V1_09BpHwRadio14_hidl_sendUssdEPNS0_10IInterfaceEPNS0_7details16HidlInstrumentorEiRKNS0_11hidl_stringE
_ZN7android8hardware5radio4V1_09BpHwRadio14_hidl_stopDtmfEPNS0_10IInterfaceEPNS0_7details16HidlInstrumentorEi
_ZN7android8hardware5radio4V1_09BpHwRadio14deleteSmsOnSimEii
_ZN7android8hardware5radio4V1_09BpHwRadio14getCallWaitingEii
_ZN7android8hardware5radio4V1_09BpHwRadio14getSmscAddressEi
_ZN7android8hardware5radio4V1_09BpHwRadio14interfaceChainENSt3__18functionIFvRKNS0_8hidl_vecINS0_11hidl_stringEEEEEE
_ZN7android8hardware5radio4V1_09BpHwRadio14nvWriteCdmaPrlEiRKNS0_8hidl_vecIhEE
_ZN7android8hardware5radio4V1_09BpHwRadio14setCallForwardEiRKNS2_15CallForwardInfoE
_ZN7android8hardware5radio4V1_09BpHwRadio14setCallWaitingEibi
_ZN7android8hardware5radio4V1_09BpHwRadio14setDataAllowedEib
_ZN7android8hardware5radio4V1_09BpHwRadio14setDataProfileEiRKNS0_8hidl_vecINS2_15DataProfileInfoEEEb
_ZN7android8hardware5radio4V1_09BpHwRadio14setSmscAddressEiRKNS0_11hidl_stringE
_ZN7android8hardware5radio4V1_09BpHwRadio14stopLceServiceEi
_ZN7android8hardware5radio4V1_09BpHwRadio14writeSmsToRuimEiRKNS2_16CdmaSmsWriteArgsE
_ZN7android8hardware5radio4V1_09BpHwRadio15_hidl_startDtmfEPNS0_10IInterfaceEPNS0_7details16HidlInstrumentorEiRKNS0_11hidl_stringE
_ZN7android8hardware5radio4V1_09BpHwRadio15deleteSmsOnRuimEii
_ZN7android8hardware5radio4V1_09BpHwRadio15getCellInfoListEi
_ZN7android8hardware5radio4V1_09BpHwRadio15getCurrentCallsEi
_ZN7android8hardware5radio4V1_09BpHwRadio15getDataCallListEi
_ZN7android8hardware5radio4V1_09BpHwRadio15requestShutdownEi
_ZN7android8hardware5radio4V1_09BpHwRadio15sendDeviceStateEiNS2_15DeviceStateTypeEb
_ZN7android8hardware5radio4V1_09BpHwRadio15setSimCardPowerEib
_ZN7android8hardware5radio4V1_09BpHwRadio15startLceServiceEiib
_ZN7android8hardware5radio4V1_09BpHwRadio16_hidl_acceptCallEPNS0_10IInterfaceEPNS0_7details16HidlInstrumentorEi
_ZN7android8hardware5radio4V1_09BpHwRadio16_hidl_conferenceEPNS0_10IInterfaceEPNS0_7details16HidlInstrumentorEi
_ZN7android8hardware5radio4V1_09BpHwRadio16_hidl_getTTYModeEPNS0_10IInterfaceEPNS0_7details16HidlInstrumentorEi
_ZN7android8hardware5radio4V1_09BpHwRadio16_hidl_nvReadItemEPNS0_10IInterfaceEPNS0_7details16HidlInstrumentorEiNS2_6NvItemE
_ZN7android8hardware5radio4V1_09BpHwRadio16_hidl_rejectCallEPNS0_10IInterfaceEPNS0_7details16HidlInstrumentorEi
_ZN7android8hardware5radio4V1_09BpHwRadio16_hidl_sendImsSmsEPNS0_10IInterfaceEPNS0_7details16HidlInstrumentorEiRKNS2_13ImsSmsMessageE
_ZN7android8hardware5radio4V1_09BpHwRadio16_hidl_setTTYModeEPNS0_10IInterfaceEPNS0_7details16HidlInstrumentorEiNS2_7TtyModeE
_ZN7android8hardware5radio4V1_09BpHwRadio16getIccCardStatusEi
_ZN7android8hardware5radio4V1_09BpHwRadio17_hidl_getOperatorEPNS0_10IInterfaceEPNS0_7details16HidlInstrumentorEi
_ZN7android8hardware5radio4V1_09BpHwRadio17_hidl_iccIOForAppEPNS0_10IInterfaceEPNS0_7details16HidlInstrumentorEiRKNS2_5IccIoE
_ZN7android8hardware5radio4V1_09BpHwRadio17_hidl_nvWriteItemEPNS0_10IInterfaceEPNS0_7details16HidlInstrumentorEiRKNS2_11NvWriteItemE
_ZN7android8hardware5radio4V1_09BpHwRadio17_hidl_pullLceDataEPNS0_10IInterfaceEPNS0_7details16HidlInstrumentorEi
_ZN7android8hardware5radio4V1_09BpHwRadio17_hidl_sendCdmaSmsEPNS0_10IInterfaceEPNS0_7details16HidlInstrumentorEiRKNS2_14CdmaSmsMessageE
_ZN7android8hardware5radio4V1_09BpHwRadio17_hidl_setBandModeEPNS0_10IInterfaceEPNS0_7details16HidlInstrumentorEiNS2_13RadioBandModeE
_ZN7android8hardware5radio4V1_09BpHwRadio17cancelPendingUssdEi
_ZN7android8hardware5radio4V1_09BpHwRadio17getDeviceIdentityEi
_ZN7android8hardware5radio4V1_09BpHwRadio17getHardwareConfigEi
_ZN7android8hardware5radio4V1_09BpHwRadio17getSignalStrengthEi
_ZN7android8hardware5radio4V1_09BpHwRadio17sendSMSExpectMoreEiRKNS2_13GsmSmsMessageE
_ZN7android8hardware5radio4V1_09BpHwRadio18_hidl_sendEnvelopeEPNS0_10IInterfaceEPNS0_7details16HidlInstrumentorEiRKNS0_11hidl_stringE
_ZN7android8hardware5radio4V1_09BpHwRadio18changeIccPinForAppEiRKNS0_11hidl_stringES6_S6_
_ZN7android8hardware5radio4V1_09BpHwRadio18deactivateDataCallEiib
_ZN7android8hardware5radio4V1_09BpHwRadio18getAllowedCarriersEi
_ZN7android8hardware5radio4V1_09BpHwRadio18getBasebandVersionEi
_ZN7android8hardware5radio4V1_09BpHwRadio18getNeighboringCidsEi
_ZN7android8hardware5radio4V1_09BpHwRadio18getRadioCapabilityEi
_ZN7android8hardware5radio4V1_09BpHwRadio18separateConnectionEii
_ZN7android8hardware5radio4V1_09BpHwRadio18setAllowedCarriersEibRKNS2_19CarrierRestrictionsE
_ZN7android8hardware5radio4V1_09BpHwRadio18setBarringPasswordEiRKNS0_11hidl_stringES6_S6_
_ZN7android8hardware5radio4V1_09BpHwRadio18setLocationUpdatesEib
_ZN7android8hardware5radio4V1_09BpHwRadio18setRadioCapabilityEiRKNS2_15RadioCapabilityE
_ZN7android8hardware5radio4V1_09BpHwRadio18supplyIccPinForAppEiRKNS0_11hidl_stringES6_
_ZN7android8hardware5radio4V1_09BpHwRadio18supplyIccPukForAppEiRKNS0_11hidl_stringES6_S6_
_ZN7android8hardware5radio4V1_09BpHwRadio19_hidl_getImsiForAppEPNS0_10IInterfaceEPNS0_7details16HidlInstrumentorEiRKNS0_11hidl_stringE
_ZN7android8hardware5radio4V1_09BpHwRadio19_hidl_nvResetConfigEPNS0_10IInterfaceEPNS0_7details16HidlInstrumentorEiNS2_11ResetNvTypeE
_ZN7android8hardware5radio4V1_09BpHwRadio19_hidl_sendBurstDtmfEPNS0_10IInterfaceEPNS0_7details16HidlInstrumentorEiRKNS0_11hidl_stringEii
_ZN7android8hardware5radio4V1_09BpHwRadio19_hidl_setRadioPowerEPNS0_10IInterfaceEPNS0_7details16HidlInstrumentorEib
_ZN7android8hardware5radio4V1_09BpHwRadio19_hidl_setupDataCallEPNS0_10IInterfaceEPNS0_7details16HidlInstrumentorEiNS2_15RadioTechnologyERKNS2_15DataProfileInfoEbbb
_ZN7android8hardware5radio4V1_09BpHwRadio19_hidl_writeSmsToSimEPNS0_10IInterfaceEPNS0_7details16HidlInstrumentorEiRKNS2_12SmsWriteArgsE
_ZN7android8hardware5radio4V1_09BpHwRadio19changeIccPin2ForAppEiRKNS0_11hidl_stringES6_S6_
_ZN7android8hardware5radio4V1_09BpHwRadio19getCDMASubscriptionEi
_ZN7android8hardware5radio4V1_09BpHwRadio19interfaceDescriptorENSt3__18functionIFvRKNS0_11hidl_stringEEEE
_ZN7android8hardware5radio4V1_09BpHwRadio19sendCDMAFeatureCodeEiRKNS0_11hidl_stringE
_ZN7android8hardware5radio4V1_09BpHwRadio19setCellInfoListRateEii
_ZN7android8hardware5radio4V1_09BpHwRadio19setIndicationFilterEii
_ZN7android8hardware5radio4V1_09BpHwRadio19setInitialAttachApnEiRKNS2_15DataProfileInfoEbb
_ZN7android8hardware5radio4V1_09BpHwRadio19setUiccSubscriptionEiRKNS2_13SelectUiccSubE
_ZN7android8hardware5radio4V1_09BpHwRadio19supplyIccPin2ForAppEiRKNS0_11hidl_stringES6_
_ZN7android8hardware5radio4V1_09BpHwRadio19supplyIccPuk2ForAppEiRKNS0_11hidl_stringES6_S6_
_ZN7android8hardware5radio4V1_09BpHwRadio20_hidl_deleteSmsOnSimEPNS0_10IInterfaceEPNS0_7details16HidlInstrumentorEii
_ZN7android8hardware5radio4V1_09BpHwRadio20_hidl_getCallWaitingEPNS0_10IInterfaceEPNS0_7details16HidlInstrumentorEii
_ZN7android8hardware5radio4V1_09BpHwRadio20_hidl_getSmscAddressEPNS0_10IInterfaceEPNS0_7details16HidlInstrumentorEi
_ZN7android8hardware5radio4V1_09BpHwRadio20_hidl_nvWriteCdmaPrlEPNS0_10IInterfaceEPNS0_7details16HidlInstrumentorEiRKNS0_8hidl_vecIhEE
_ZN7android8hardware5radio4V1_09BpHwRadio20_hidl_setCallForwardEPNS0_10IInterfaceEPNS0_7details16HidlInstrumentorEiRKNS2_15CallForwardInfoE
_ZN7android8hardware5radio4V1_09BpHwRadio20_hidl_setCallWaitingEPNS0_10IInterfaceEPNS0_7details16HidlInstrumentorEibi
_ZN7android8hardware5radio4V1_09BpHwRadio20_hidl_setDataAllowedEPNS0_10IInterfaceEPNS0_7details16HidlInstrumentorEib
_ZN7android8hardware5radio4V1_09BpHwRadio20_hidl_setDataProfileEPNS0_10IInterfaceEPNS0_7details16HidlInstrumentorEiRKNS0_8hidl_vecINS2_15DataProfileInfoEEEb
_ZN7android8hardware5radio4V1_09BpHwRadio20_hidl_setSmscAddressEPNS0_10IInterfaceEPNS0_7details16HidlInstrumentorEiRKNS0_11hidl_stringE
_ZN7android8hardware5radio4V1_09BpHwRadio20_hidl_stopLceServiceEPNS0_10IInterfaceEPNS0_7details16HidlInstrumentorEi
_ZN7android8hardware5radio4V1_09BpHwRadio20_hidl_writeSmsToRuimEPNS0_10IInterfaceEPNS0_7details16HidlInstrumentorEiRKNS2_16CdmaSmsWriteArgsE
_ZN7android8hardware5radio4V1_09BpHwRadio20explicitCallTransferEi
_ZN7android8hardware5radio4V1_09BpHwRadio20getAvailableNetworksEi
_ZN7android8hardware5radio4V1_09BpHwRadio20getCallForwardStatusEiRKNS2_15CallForwardInfoE
_ZN7android8hardware5radio4V1_09BpHwRadio20getLastCallFailCauseEi
_ZN7android8hardware5radio4V1_09BpHwRadio20getModemActivityInfoEi
_ZN7android8hardware5radio4V1_09BpHwRadio20setResponseFunctionsERKNS_2spINS2_14IRadioResponseEEERKNS4_INS2_16IRadioIndicationEEE
_ZN7android8hardware5radio4V1_09BpHwRadio21_hidl_deleteSmsOnRuimEPNS0_10IInterfaceEPNS0_7details16HidlInstrumentorEii
_ZN7android8hardware5radio4V1_09BpHwRadio21_hidl_getCellInfoListEPNS0_10IInterfaceEPNS0_7details16HidlInstrumentorEi
_ZN7android8hardware5radio4V1_09BpHwRadio21_hidl_getCurrentCallsEPNS0_10IInterfaceEPNS0_7details16HidlInstrumentorEi
_ZN7android8hardware5radio4V1_09BpHwRadio21_hidl_getDataCallListEPNS0_10IInterfaceEPNS0_7details16HidlInstrumentorEi
_ZN7android8hardware5radio4V1_09BpHwRadio21_hidl_requestShutdownEPNS0_10IInterfaceEPNS0_7details16HidlInstrumentorEi
_ZN7android8hardware5radio4V1_09BpHwRadio21_hidl_sendDeviceStateEPNS0_10IInterfaceEPNS0_7details16HidlInstrumentorEiNS2_15DeviceStateTypeEb
_ZN7android8hardware5radio4V1_09BpHwRadio21_hidl_setSimCardPowerEPNS0_10IInterfaceEPNS0_7details16HidlInstrumentorEib
_ZN7android8hardware5radio4V1_09BpHwRadio21_hidl_startLceServiceEPNS0_10IInterfaceEPNS0_7details16HidlInstrumentorEiib
_ZN7android8hardware5radio4V1_09BpHwRadio21getAvailableBandModesEi
_ZN7android8hardware5radio4V1_09BpHwRadio21getFacilityLockForAppEiRKNS0_11hidl_stringES6_iS6_
_ZN7android8hardware5radio4V1_09BpHwRadio21getGsmBroadcastConfigEi
_ZN7android8hardware5radio4V1_09BpHwRadio21iccOpenLogicalChannelEiRKNS0_11hidl_stringEi
_ZN7android8hardware5radio4V1_09BpHwRadio21notifySyspropsChangedEv
_ZN7android8hardware5radio4V1_09BpHwRadio21reportSmsMemoryStatusEib
_ZN7android8hardware5radio4V1_09BpHwRadio21setFacilityLockForAppEiRKNS0_11hidl_stringEbS6_iS6_
_ZN7android8hardware5radio4V1_09BpHwRadio21setGsmBroadcastConfigEiRKNS0_8hidl_vecINS2_25GsmBroadcastSmsConfigInfoEEE
_ZN7android8hardware5radio4V1_09BpHwRadio21setHALInstrumentationEv
_ZN7android8hardware5radio4V1_09BpHwRadio22_hidl_getIccCardStatusEPNS0_10IInterfaceEPNS0_7details16HidlInstrumentorEi
_ZN7android8hardware5radio4V1_09BpHwRadio22getCdmaBroadcastConfigEi
_ZN7android8hardware5radio4V1_09BpHwRadio22iccCloseLogicalChannelEii
_ZN7android8hardware5radio4V1_09BpHwRadio22sendEnvelopeWithStatusEiRKNS0_11hidl_stringE
_ZN7android8hardware5radio4V1_09BpHwRadio22setCdmaBroadcastConfigEiRKNS0_8hidl_vecINS2_26CdmaBroadcastSmsConfigInfoEEE
_ZN7android8hardware5radio4V1_09BpHwRadio23_hidl_cancelPendingUssdEPNS0_10IInterfaceEPNS0_7details16HidlInstrumentorEi
_ZN7android8hardware5radio4V1_09BpHwRadio23_hidl_getDeviceIdentityEPNS0_10IInterfaceEPNS0_7details16HidlInstrumentorEi
_ZN7android8hardware5radio4V1_09BpHwRadio23_hidl_getHardwareConfigEPNS0_10IInterfaceEPNS0_7details16HidlInstrumentorEi
_ZN7android8hardware5radio4V1_09BpHwRadio23_hidl_getSignalStrengthEPNS0_10IInterfaceEPNS0_7details16HidlInstrumentorEi
_ZN7android8hardware5radio4V1_09BpHwRadio23_hidl_sendSMSExpectMoreEPNS0_10IInterfaceEPNS0_7details16HidlInstrumentorEiRKNS2_13GsmSmsMessageE
_ZN7android8hardware5radio4V1_09BpHwRadio23getImsRegistrationStateEi
_ZN7android8hardware5radio4V1_09BpHwRadio23getNetworkSelectionModeEi
_ZN7android8hardware5radio4V1_09BpHwRadio23getPreferredNetworkTypeEi
_ZN7android8hardware5radio4V1_09BpHwRadio23getVoiceRadioTechnologyEi
_ZN7android8hardware5radio4V1_09BpHwRadio23responseAcknowledgementEv
_ZN7android8hardware5radio4V1_09BpHwRadio23setPreferredNetworkTypeEiNS2_20PreferredNetworkTypeE
_ZN7android8hardware5radio4V1_09BpHwRadio24_hidl_changeIccPinForAppEPNS0_10IInterfaceEPNS0_7details16HidlInstrumentorEiRKNS0_11hidl_stringESB_SB_
_ZN7android8hardware5radio4V1_09BpHwRadio24_hidl_deactivateDataCallEPNS0_10IInterfaceEPNS0_7details16HidlInstrumentorEiib
_ZN7android8hardware5radio4V1_09BpHwRadio24_hidl_getAllowedCarriersEPNS0_10IInterfaceEPNS0_7details16HidlInstrumentorEi
_ZN7android8hardware5radio4V1_09BpHwRadio24_hidl_getBasebandVersionEPNS0_10IInterfaceEPNS0_7details16HidlInstrumentorEi
_ZN7android8hardware5radio4V1_09BpHwRadio24_hidl_getNeighboringCidsEPNS0_10IInterfaceEPNS0_7details16HidlInstrumentorEi
_ZN7android8hardware5radio4V1_09BpHwRadio24_hidl_getRadioCapabilityEPNS0_10IInterfaceEPNS0_7details16HidlInstrumentorEi
_ZN7android8hardware5radio4V1_09BpHwRadio24_hidl_separateConnectionEPNS0_10IInterfaceEPNS0_7details16HidlInstrumentorEii
_ZN7android8hardware5radio4V1_09BpHwRadio24_hidl_setAllowedCarriersEPNS0_10IInterfaceEPNS0_7details16HidlInstrumentorEibRKNS2_19CarrierRestrictionsE
_ZN7android8hardware5radio4V1_09BpHwRadio24_hidl_setBarringPasswordEPNS0_10IInterfaceEPNS0_7details16HidlInstrumentorEiRKNS0_11hidl_stringESB_SB_
_ZN7android8hardware5radio4V1_09BpHwRadio24_hidl_setLocationUpdatesEPNS0_10IInterfaceEPNS0_7details16HidlInstrumentorEib
_ZN7android8hardware5radio4V1_09BpHwRadio24_hidl_setRadioCapabilityEPNS0_10IInterfaceEPNS0_7details16HidlInstrumentorEiRKNS2_15RadioCapabilityE
_ZN7android8hardware5radio4V1_09BpHwRadio24_hidl_supplyIccPinForAppEPNS0_10IInterfaceEPNS0_7details16HidlInstrumentorEiRKNS0_11hidl_stringESB_
_ZN7android8hardware5radio4V1_09BpHwRadio24_hidl_supplyIccPukForAppEPNS0_10IInterfaceEPNS0_7details16HidlInstrumentorEiRKNS0_11hidl_stringESB_SB_
_ZN7android8hardware5radio4V1_09BpHwRadio24getCdmaRoamingPreferenceEi
_ZN7android8hardware5radio4V1_09BpHwRadio24getDataRegistrationStateEi
_ZN7android8hardware5radio4V1_09BpHwRadio24getPreferredVoicePrivacyEi
_ZN7android8hardware5radio4V1_09BpHwRadio24setCdmaRoamingPreferenceEiNS2_15CdmaRoamingTypeE
_ZN7android8hardware5radio4V1_09BpHwRadio24setPreferredVoicePrivacyEib
_ZN7android8hardware5radio4V1_09BpHwRadio25_hidl_changeIccPin2ForAppEPNS0_10IInterfaceEPNS0_7details16HidlInstrumentorEiRKNS0_11hidl_stringESB_SB_
_ZN7android8hardware5radio4V1_09BpHwRadio25_hidl_getCDMASubscriptionEPNS0_10IInterfaceEPNS0_7details16HidlInstrumentorEi
_ZN7android8hardware5radio4V1_09BpHwRadio25_hidl_sendCDMAFeatureCodeEPNS0_10IInterfaceEPNS0_7details16HidlInstrumentorEiRKNS0_11hidl_stringE
_ZN7android8hardware5radio4V1_09BpHwRadio25_hidl_setCellInfoListRateEPNS0_10IInterfaceEPNS0_7details16HidlInstrumentorEii
_ZN7android8hardware5radio4V1_09BpHwRadio25_hidl_setIndicationFilterEPNS0_10IInterfaceEPNS0_7details16HidlInstrumentorEii
_ZN7android8hardware5radio4V1_09BpHwRadio25_hidl_setInitialAttachApnEPNS0_10IInterfaceEPNS0_7details16HidlInstrumentorEiRKNS2_15DataProfileInfoEbb
_ZN7android8hardware5radio4V1_09BpHwRadio25_hidl_setUiccSubscriptionEPNS0_10IInterfaceEPNS0_7details16HidlInstrumentorEiRKNS2_13SelectUiccSubE
_ZN7android8hardware5radio4V1_09BpHwRadio25_hidl_supplyIccPin2ForAppEPNS0_10IInterfaceEPNS0_7details16HidlInstrumentorEiRKNS0_11hidl_stringESB_
_ZN7android8hardware5radio4V1_09BpHwRadio25_hidl_supplyIccPuk2ForAppEPNS0_10IInterfaceEPNS0_7details16HidlInstrumentorEiRKNS0_11hidl_stringESB_SB_
_ZN7android8hardware5radio4V1_09BpHwRadio25exitEmergencyCallbackModeEi
_ZN7android8hardware5radio4V1_09BpHwRadio25getCdmaSubscriptionSourceEi
_ZN7android8hardware5radio4V1_09BpHwRadio25getVoiceRegistrationStateEi
_ZN7android8hardware5radio4V1_09BpHwRadio25hangupWaitingOrBackgroundEi
_ZN7android8hardware5radio4V1_09BpHwRadio25reportStkServiceIsRunningEi
_ZN7android8hardware5radio4V1_09BpHwRadio25requestIsimAuthenticationEiRKNS0_11hidl_stringE
_ZN7android8hardware5radio4V1_09BpHwRadio25sendTerminalResponseToSimEiRKNS0_11hidl_stringE
_ZN7android8hardware5radio4V1_09BpHwRadio25setCdmaSubscriptionSourceEiNS2_22CdmaSubscriptionSourceE
_ZN7android8hardware5radio4V1_09BpHwRadio25setGsmBroadcastActivationEib
_ZN7android8hardware5radio4V1_09BpHwRadio26_hidl_explicitCallTransferEPNS0_10IInterfaceEPNS0_7details16HidlInstrumentorEi
_ZN7android8hardware5radio4V1_09BpHwRadio26_hidl_getAvailableNetworksEPNS0_10IInterfaceEPNS0_7details16HidlInstrumentorEi
_ZN7android8hardware5radio4V1_09BpHwRadio26_hidl_getCallForwardStatusEPNS0_10IInterfaceEPNS0_7details16HidlInstrumentorEiRKNS2_15CallForwardInfoE
_ZN7android8hardware5radio4V1_09BpHwRadio26_hidl_getLastCallFailCauseEPNS0_10IInterfaceEPNS0_7details16HidlInstrumentorEi
_ZN7android8hardware5radio4V1_09BpHwRadio26_hidl_getModemActivityInfoEPNS0_10IInterfaceEPNS0_7details16HidlInstrumentorEi
_ZN7android8hardware5radio4V1_09BpHwRadio26_hidl_setResponseFunctionsEPNS0_10IInterfaceEPNS0_7details16HidlInstrumentorERKNS_2spINS2_14IRadioResponseEEERKNS9_INS2_16IRadioIndicationEEE
_ZN7android8hardware5radio4V1_09BpHwRadio26setCdmaBroadcastActivationEib
_ZN7android8hardware5radio4V1_09BpHwRadio27_hidl_getAvailableBandModesEPNS0_10IInterfaceEPNS0_7details16HidlInstrumentorEi
_ZN7android8hardware5radio4V1_09BpHwRadio27_hidl_getFacilityLockForAppEPNS0_10IInterfaceEPNS0_7details16HidlInstrumentorEiRKNS0_11hidl_stringESB_iSB_
_ZN7android8hardware5radio4V1_09BpHwRadio27_hidl_getGsmBroadcastConfigEPNS0_10IInterfaceEPNS0_7details16HidlInstrumentorEi
_ZN7android8hardware5radio4V1_09BpHwRadio27_hidl_iccOpenLogicalChannelEPNS0_10IInterfaceEPNS0_7details16HidlInstrumentorEiRKNS0_11hidl_stringEi
_ZN7android8hardware5radio4V1_09BpHwRadio27_hidl_reportSmsMemoryStatusEPNS0_10IInterfaceEPNS0_7details16HidlInstrumentorEib
_ZN7android8hardware5radio4V1_09BpHwRadio27_hidl_setFacilityLockForAppEPNS0_10IInterfaceEPNS0_7details16HidlInstrumentorEiRKNS0_11hidl_stringEbSB_iSB_
_ZN7android8hardware5radio4V1_09BpHwRadio27_hidl_setGsmBroadcastConfigEPNS0_10IInterfaceEPNS0_7details16HidlInstrumentorEiRKNS0_8hidl_vecINS2_25GsmBroadcastSmsConfigInfoEEE
_ZN7android8hardware5radio4V1_09BpHwRadio27iccTransmitApduBasicChannelEiRKNS2_7SimApduE
_ZN7android8hardware5radio4V1_09BpHwRadio27requestIccSimAuthenticationEiiRKNS0_11hidl_stringES6_
_ZN7android8hardware5radio4V1_09BpHwRadio27setSuppServiceNotificationsEib
_ZN7android8hardware5radio4V1_09BpHwRadio28_hidl_getCdmaBroadcastConfigEPNS0_10IInterfaceEPNS0_7details16HidlInstrumentorEi
_ZN7android8hardware5radio4V1_09BpHwRadio28_hidl_iccCloseLogicalChannelEPNS0_10IInterfaceEPNS0_7details16HidlInstrumentorEii
_ZN7android8hardware5radio4V1_09BpHwRadio28_hidl_sendEnvelopeWithStatusEPNS0_10IInterfaceEPNS0_7details16HidlInstrumentorEiRKNS0_11hidl_stringE
_ZN7android8hardware5radio4V1_09BpHwRadio28_hidl_setCdmaBroadcastConfigEPNS0_10IInterfaceEPNS0_7details16HidlInstrumentorEiRKNS0_8hidl_vecINS2_26CdmaBroadcastSmsConfigInfoEEE
_ZN7android8hardware5radio4V1_09BpHwRadio29_hidl_getImsRegistrationStateEPNS0_10IInterfaceEPNS0_7details16HidlInstrumentorEi
_ZN7android8hardware5radio4V1_09BpHwRadio29_hidl_getNetworkSelectionModeEPNS0_10IInterfaceEPNS0_7details16HidlInstrumentorEi
_ZN7android8hardware5radio4V1_09BpHwRadio29_hidl_getPreferredNetworkTypeEPNS0_10IInterfaceEPNS0_7details16HidlInstrumentorEi
_ZN7android8hardware5radio4V1_09BpHwRadio29_hidl_getVoiceRadioTechnologyEPNS0_10IInterfaceEPNS0_7details16HidlInstrumentorEi
_ZN7android8hardware5radio4V1_09BpHwRadio29_hidl_responseAcknowledgementEPNS0_10IInterfaceEPNS0_7details16HidlInstrumentorE
_ZN7android8hardware5radio4V1_09BpHwRadio29_hidl_setPreferredNetworkTypeEPNS0_10IInterfaceEPNS0_7details16HidlInstrumentorEiNS2_20PreferredNetworkTypeE
_ZN7android8hardware5radio4V1_09BpHwRadio29acknowledgeLastIncomingGsmSmsEibNS2_23SmsAcknowledgeFailCauseE
_ZN7android8hardware5radio4V1_09BpHwRadio29iccTransmitApduLogicalChannelEiRKNS2_7SimApduE
_ZN7android8hardware5radio4V1_09BpHwRadio29setNetworkSelectionModeManualEiRKNS0_11hidl_stringE
_ZN7android8hardware5radio4V1_09BpHwRadio30_hidl_getCdmaRoamingPreferenceEPNS0_10IInterfaceEPNS0_7details16HidlInstrumentorEi
_ZN7android8hardware5radio4V1_09BpHwRadio30_hidl_getDataRegistrationStateEPNS0_10IInterfaceEPNS0_7details16HidlInstrumentorEi
_ZN7android8hardware5radio4V1_09BpHwRadio30_hidl_getPreferredVoicePrivacyEPNS0_10IInterfaceEPNS0_7details16HidlInstrumentorEi
_ZN7android8hardware5radio4V1_09BpHwRadio30_hidl_setCdmaRoamingPreferenceEPNS0_10IInterfaceEPNS0_7details16HidlInstrumentorEiNS2_15CdmaRoamingTypeE
_ZN7android8hardware5radio4V1_09BpHwRadio30_hidl_setPreferredVoicePrivacyEPNS0_10IInterfaceEPNS0_7details16HidlInstrumentorEib
_ZN7android8hardware5radio4V1_09BpHwRadio30acknowledgeLastIncomingCdmaSmsEiRKNS2_10CdmaSmsAckE
_ZN7android8hardware5radio4V1_09BpHwRadio30supplyNetworkDepersonalizationEiRKNS0_11hidl_stringE
_ZN7android8hardware5radio4V1_09BpHwRadio31_hidl_exitEmergencyCallbackModeEPNS0_10IInterfaceEPNS0_7details16HidlInstrumentorEi
_ZN7android8hardware5radio4V1_09BpHwRadio31_hidl_getCdmaSubscriptionSourceEPNS0_10IInterfaceEPNS0_7details16HidlInstrumentorEi
_ZN7android8hardware5radio4V1_09BpHwRadio31_hidl_getVoiceRegistrationStateEPNS0_10IInterfaceEPNS0_7details16HidlInstrumentorEi
_ZN7android8hardware5radio4V1_09BpHwRadio31_hidl_hangupWaitingOrBackgroundEPNS0_10IInterfaceEPNS0_7details16HidlInstrumentorEi
_ZN7android8hardware5radio4V1_09BpHwRadio31_hidl_reportStkServiceIsRunningEPNS0_10IInterfaceEPNS0_7details16HidlInstrumentorEi
_ZN7android8hardware5radio4V1_09BpHwRadio31_hidl_requestIsimAuthenticationEPNS0_10IInterfaceEPNS0_7details16HidlInstrumentorEiRKNS0_11hidl_stringE
_ZN7android8hardware5radio4V1_09BpHwRadio31_hidl_sendTerminalResponseToSimEPNS0_10IInterfaceEPNS0_7details16HidlInstrumentorEiRKNS0_11hidl_stringE
_ZN7android8hardware5radio4V1_09BpHwRadio31_hidl_setCdmaSubscriptionSourceEPNS0_10IInterfaceEPNS0_7details16HidlInstrumentorEiNS2_22CdmaSubscriptionSourceE
_ZN7android8hardware5radio4V1_09BpHwRadio31_hidl_setGsmBroadcastActivationEPNS0_10IInterfaceEPNS0_7details16HidlInstrumentorEib
_ZN7android8hardware5radio4V1_09BpHwRadio31switchWaitingOrHoldingAndActiveEi
_ZN7android8hardware5radio4V1_09BpHwRadio32_hidl_setCdmaBroadcastActivationEPNS0_10IInterfaceEPNS0_7details16HidlInstrumentorEib
_ZN7android8hardware5radio4V1_09BpHwRadio32acknowledgeIncomingGsmSmsWithPduEibRKNS0_11hidl_stringE
_ZN7android8hardware5radio4V1_09BpHwRadio32handleStkCallSetupRequestFromSimEib
_ZN7android8hardware5radio4V1_09BpHwRadio32hangupForegroundResumeBackgroundEi
_ZN7android8hardware5radio4V1_09BpHwRadio32setNetworkSelectionModeAutomaticEi
_ZN7android8hardware5radio4V1_09BpHwRadio33_hidl_iccTransmitApduBasicChannelEPNS0_10IInterfaceEPNS0_7details16HidlInstrumentorEiRKNS2_7SimApduE
_ZN7android8hardware5radio4V1_09BpHwRadio33_hidl_requestIccSimAuthenticationEPNS0_10IInterfaceEPNS0_7details16HidlInstrumentorEiiRKNS0_11hidl_stringESB_
_ZN7android8hardware5radio4V1_09BpHwRadio33_hidl_setSuppServiceNotificationsEPNS0_10IInterfaceEPNS0_7details16HidlInstrumentorEib
_ZN7android8hardware5radio4V1_09BpHwRadio35_hidl_acknowledgeLastIncomingGsmSmsEPNS0_10IInterfaceEPNS0_7details16HidlInstrumentorEibNS2_23SmsAcknowledgeFailCauseE
_ZN7android8hardware5radio4V1_09BpHwRadio35_hidl_iccTransmitApduLogicalChannelEPNS0_10IInterfaceEPNS0_7details16HidlInstrumentorEiRKNS2_7SimApduE
_ZN7android8hardware5radio4V1_09BpHwRadio35_hidl_setNetworkSelectionModeManualEPNS0_10IInterfaceEPNS0_7details16HidlInstrumentorEiRKNS0_11hidl_stringE
_ZN7android8hardware5radio4V1_09BpHwRadio36_hidl_acknowledgeLastIncomingCdmaSmsEPNS0_10IInterfaceEPNS0_7details16HidlInstrumentorEiRKNS2_10CdmaSmsAckE
_ZN7android8hardware5radio4V1_09BpHwRadio36_hidl_supplyNetworkDepersonalizationEPNS0_10IInterfaceEPNS0_7details16HidlInstrumentorEiRKNS0_11hidl_stringE
_ZN7android8hardware5radio4V1_09BpHwRadio37_hidl_switchWaitingOrHoldingAndActiveEPNS0_10IInterfaceEPNS0_7details16HidlInstrumentorEi
_ZN7android8hardware5radio4V1_09BpHwRadio38_hidl_acknowledgeIncomingGsmSmsWithPduEPNS0_10IInterfaceEPNS0_7details16HidlInstrumentorEibRKNS0_11hidl_stringE
_ZN7android8hardware5radio4V1_09BpHwRadio38_hidl_handleStkCallSetupRequestFromSimEPNS0_10IInterfaceEPNS0_7details16HidlInstrumentorEib
_ZN7android8hardware5radio4V1_09BpHwRadio38_hidl_hangupForegroundResumeBackgroundEPNS0_10IInterfaceEPNS0_7details16HidlInstrumentorEi
_ZN7android8hardware5radio4V1_09BpHwRadio38_hidl_setNetworkSelectionModeAutomaticEPNS0_10IInterfaceEPNS0_7details16HidlInstrumentorEi
_ZN7android8hardware5radio4V1_09BpHwRadio4dialEiRKNS2_4DialE
_ZN7android8hardware5radio4V1_09BpHwRadio4pingEv
_ZN7android8hardware5radio4V1_09BpHwRadio5debugERKNS0_11hidl_handleERKNS0_8hidl_vecINS0_11hidl_stringEEE
_ZN7android8hardware5radio4V1_09BpHwRadio6hangupEii
_ZN7android8hardware5radio4V1_09BpHwRadio7getClipEi
_ZN7android8hardware5radio4V1_09BpHwRadio7getClirEi
_ZN7android8hardware5radio4V1_09BpHwRadio7getMuteEi
_ZN7android8hardware5radio4V1_09BpHwRadio7sendSmsEiRKNS2_13GsmSmsMessageE
_ZN7android8hardware5radio4V1_09BpHwRadio7setClirEii
_ZN7android8hardware5radio4V1_09BpHwRadio7setMuteEib
_ZN7android8hardware5radio4V1_09BpHwRadio8sendDtmfEiRKNS0_11hidl_stringE
_ZN7android8hardware5radio4V1_09BpHwRadio8sendUssdEiRKNS0_11hidl_stringE
_ZN7android8hardware5radio4V1_09BpHwRadio8stopDtmfEi
_ZN7android8hardware5radio4V1_09BpHwRadio9startDtmfEiRKNS0_11hidl_stringE
_ZN7android8hardware5radio4V1_09BpHwRadioC1ERKNS_2spINS0_7IBinderEEE
_ZN7android8hardware5radio4V1_09BpHwRadioC2ERKNS_2spINS0_7IBinderEEE
_ZTCN7android8hardware5radio4V1_012ISapCallbackE0_NS_4hidl4base4V1_05IBaseE
_ZTCN7android8hardware5radio4V1_014IRadioResponseE0_NS_4hidl4base4V1_05IBaseE
_ZTCN7android8hardware5radio4V1_015BnHwSapCallbackE0_NS0_7IBinderE
_ZTCN7android8hardware5radio4V1_015BnHwSapCallbackE0_NS0_9BHwBinderE
_ZTCN7android8hardware5radio4V1_015BnHwSapCallbackE0_NS_4hidl4base4V1_08BnHwBaseE
_ZTCN7android8hardware5radio4V1_015BpHwSapCallbackE0_NS0_11BpInterfaceINS2_12ISapCallbackEEE
_ZTCN7android8hardware5radio4V1_015BpHwSapCallbackE0_NS2_12ISapCallbackE
_ZTCN7android8hardware5radio4V1_015BpHwSapCallbackE0_NS_4hidl4base4V1_05IBaseE
_ZTCN7android8hardware5radio4V1_015BpHwSapCallbackE4_NS0_10IInterfaceE
_ZTCN7android8hardware5radio4V1_015BpHwSapCallbackE8_NS0_11BpHwRefBaseE
_ZTCN7android8hardware5radio4V1_016IRadioIndicationE0_NS_4hidl4base4V1_05IBaseE
_ZTCN7android8hardware5radio4V1_017BnHwRadioResponseE0_NS0_7IBinderE
_ZTCN7android8hardware5radio4V1_017BnHwRadioResponseE0_NS0_9BHwBinderE
_ZTCN7android8hardware5radio4V1_017BnHwRadioResponseE0_NS_4hidl4base4V1_08BnHwBaseE
_ZTCN7android8hardware5radio4V1_017BpHwRadioResponseE0_NS0_11BpInterfaceINS2_14IRadioResponseEEE
_ZTCN7android8hardware5radio4V1_017BpHwRadioResponseE0_NS2_14IRadioResponseE
_ZTCN7android8hardware5radio4V1_017BpHwRadioResponseE0_NS_4hidl4base4V1_05IBaseE
_ZTCN7android8hardware5radio4V1_017BpHwRadioResponseE4_NS0_10IInterfaceE
_ZTCN7android8hardware5radio4V1_017BpHwRadioResponseE8_NS0_11BpHwRefBaseE
_ZTCN7android8hardware5radio4V1_019BnHwRadioIndicationE0_NS0_7IBinderE
_ZTCN7android8hardware5radio4V1_019BnHwRadioIndicationE0_NS0_9BHwBinderE
_ZTCN7android8hardware5radio4V1_019BnHwRadioIndicationE0_NS_4hidl4base4V1_08BnHwBaseE
_ZTCN7android8hardware5radio4V1_019BpHwRadioIndicationE0_NS0_11BpInterfaceINS2_16IRadioIndicationEEE
_ZTCN7android8hardware5radio4V1_019BpHwRadioIndicationE0_NS2_16IRadioIndicationE
_ZTCN7android8hardware5radio4V1_019BpHwRadioIndicationE0_NS_4hidl4base4V1_05IBaseE
_ZTCN7android8hardware5radio4V1_019BpHwRadioIndicationE4_NS0_10IInterfaceE
_ZTCN7android8hardware5radio4V1_019BpHwRadioIndicationE8_NS0_11BpHwRefBaseE
_ZTCN7android8hardware5radio4V1_04ISapE0_NS_4hidl4base4V1_05IBaseE
_ZTCN7android8hardware5radio4V1_06IRadioE0_NS_4hidl4base4V1_05IBaseE
_ZTCN7android8hardware5radio4V1_07BnHwSapE0_NS0_7IBinderE
_ZTCN7android8hardware5radio4V1_07BnHwSapE0_NS0_9BHwBinderE
_ZTCN7android8hardware5radio4V1_07BnHwSapE0_NS_4hidl4base4V1_08BnHwBaseE
_ZTCN7android8hardware5radio4V1_07BpHwSapE0_NS0_11BpInterfaceINS2_4ISapEEE
_ZTCN7android8hardware5radio4V1_07BpHwSapE0_NS2_4ISapE
_ZTCN7android8hardware5radio4V1_07BpHwSapE0_NS_4hidl4base4V1_05IBaseE
_ZTCN7android8hardware5radio4V1_07BpHwSapE4_NS0_10IInterfaceE
_ZTCN7android8hardware5radio4V1_07BpHwSapE8_NS0_11BpHwRefBaseE
_ZTCN7android8hardware5radio4V1_09BnHwRadioE0_NS0_7IBinderE
_ZTCN7android8hardware5radio4V1_09BnHwRadioE0_NS0_9BHwBinderE
_ZTCN7android8hardware5radio4V1_09BnHwRadioE0_NS_4hidl4base4V1_08BnHwBaseE
_ZTCN7android8hardware5radio4V1_09BpHwRadioE0_NS0_11BpInterfaceINS2_6IRadioEEE
_ZTCN7android8hardware5radio4V1_09BpHwRadioE0_NS2_6IRadioE
_ZTCN7android8hardware5radio4V1_09BpHwRadioE0_NS_4hidl4base4V1_05IBaseE
_ZTCN7android8hardware5radio4V1_09BpHwRadioE4_NS0_10IInterfaceE
_ZTCN7android8hardware5radio4V1_09BpHwRadioE8_NS0_11BpHwRefBaseE
_ZTTN7android8hardware5radio4V1_012ISapCallbackE
_ZTTN7android8hardware5radio4V1_014IRadioResponseE
_ZTTN7android8hardware5radio4V1_015BnHwSapCallbackE
_ZTTN7android8hardware5radio4V1_015BpHwSapCallbackE
_ZTTN7android8hardware5radio4V1_016IRadioIndicationE
_ZTTN7android8hardware5radio4V1_017BnHwRadioResponseE
_ZTTN7android8hardware5radio4V1_017BpHwRadioResponseE
_ZTTN7android8hardware5radio4V1_019BnHwRadioIndicationE
_ZTTN7android8hardware5radio4V1_019BpHwRadioIndicationE
_ZTTN7android8hardware5radio4V1_04ISapE
_ZTTN7android8hardware5radio4V1_06IRadioE
_ZTTN7android8hardware5radio4V1_07BnHwSapE
_ZTTN7android8hardware5radio4V1_07BpHwSapE
_ZTTN7android8hardware5radio4V1_09BnHwRadioE
_ZTTN7android8hardware5radio4V1_09BpHwRadioE
_ZTVN7android8hardware5radio4V1_012ISapCallbackE
_ZTVN7android8hardware5radio4V1_014IRadioResponseE
_ZTVN7android8hardware5radio4V1_015BnHwSapCallbackE
_ZTVN7android8hardware5radio4V1_015BpHwSapCallbackE
_ZTVN7android8hardware5radio4V1_016IRadioIndicationE
_ZTVN7android8hardware5radio4V1_017BnHwRadioResponseE
_ZTVN7android8hardware5radio4V1_017BpHwRadioResponseE
_ZTVN7android8hardware5radio4V1_019BnHwRadioIndicationE
_ZTVN7android8hardware5radio4V1_019BpHwRadioIndicationE
_ZTVN7android8hardware5radio4V1_04ISapE
_ZTVN7android8hardware5radio4V1_06IRadioE
_ZTVN7android8hardware5radio4V1_07BnHwSapE
_ZTVN7android8hardware5radio4V1_07BpHwSapE
_ZTVN7android8hardware5radio4V1_09BnHwRadioE
_ZTVN7android8hardware5radio4V1_09BpHwRadioE
_ZThn20_N7android8hardware5radio4V1_015BnHwSapCallbackD0Ev
_ZThn20_N7android8hardware5radio4V1_015BnHwSapCallbackD1Ev
_ZThn20_N7android8hardware5radio4V1_017BnHwRadioResponseD0Ev
_ZThn20_N7android8hardware5radio4V1_017BnHwRadioResponseD1Ev
_ZThn20_N7android8hardware5radio4V1_019BnHwRadioIndicationD0Ev
_ZThn20_N7android8hardware5radio4V1_019BnHwRadioIndicationD1Ev
_ZThn20_N7android8hardware5radio4V1_07BnHwSapD0Ev
_ZThn20_N7android8hardware5radio4V1_07BnHwSapD1Ev
_ZThn20_N7android8hardware5radio4V1_09BnHwRadioD0Ev
_ZThn20_N7android8hardware5radio4V1_09BnHwRadioD1Ev
_ZTv0_n12_N7android8hardware5radio4V1_015BnHwSapCallbackD0Ev
_ZTv0_n12_N7android8hardware5radio4V1_015BnHwSapCallbackD1Ev
_ZTv0_n12_N7android8hardware5radio4V1_017BnHwRadioResponseD0Ev
_ZTv0_n12_N7android8hardware5radio4V1_017BnHwRadioResponseD1Ev
_ZTv0_n12_N7android8hardware5radio4V1_019BnHwRadioIndicationD0Ev
_ZTv0_n12_N7android8hardware5radio4V1_019BnHwRadioIndicationD1Ev
_ZTv0_n12_N7android8hardware5radio4V1_07BnHwSapD0Ev
_ZTv0_n12_N7android8hardware5radio4V1_07BnHwSapD1Ev
_ZTv0_n12_N7android8hardware5radio4V1_09BnHwRadioD0Ev
_ZTv0_n12_N7android8hardware5radio4V1_09BnHwRadioD1Ev
