_ZN7android8hardware7sensors4V1_011BnHwSensors10_hidl_pollEPNS_4hidl4base4V1_08BnHwBaseERKNS0_6ParcelEPS9_NSt3__18functionIFvRS9_EEE
_ZN7android8hardware7sensors4V1_011BnHwSensors10onTransactEjRKNS0_6ParcelEPS4_jNSt3__18functionIFvRS4_EEE
_ZN7android8hardware7sensors4V1_011BnHwSensors11_hidl_batchEPNS_4hidl4base4V1_08BnHwBaseERKNS0_6ParcelEPS9_NSt3__18functionIFvRS9_EEE
_ZN7android8hardware7sensors4V1_011BnHwSensors11_hidl_flushEPNS_4hidl4base4V1_08BnHwBaseERKNS0_6ParcelEPS9_NSt3__18functionIFvRS9_EEE
_ZN7android8hardware7sensors4V1_011BnHwSensors12getDebugInfoENSt3__18functionIFvRKNS_4hidl4base4V1_09DebugInfoEEEE
_ZN7android8hardware7sensors4V1_011BnHwSensors14_hidl_activateEPNS_4hidl4base4V1_08BnHwBaseERKNS0_6ParcelEPS9_NSt3__18functionIFvRS9_EEE
_ZN7android8hardware7sensors4V1_011BnHwSensors20_hidl_getSensorsListEPNS_4hidl4base4V1_08BnHwBaseERKNS0_6ParcelEPS9_NSt3__18functionIFvRS9_EEE
_ZN7android8hardware7sensors4V1_011BnHwSensors22_hidl_injectSensorDataEPNS_4hidl4base4V1_08BnHwBaseERKNS0_6ParcelEPS9_NSt3__18functionIFvRS9_EEE
_ZN7android8hardware7sensors4V1_011BnHwSensors22_hidl_setOperationModeEPNS_4hidl4base4V1_08BnHwBaseERKNS0_6ParcelEPS9_NSt3__18functionIFvRS9_EEE
_ZN7android8hardware7sensors4V1_011BnHwSensors24_hidl_configDirectReportEPNS_4hidl4base4V1_08BnHwBaseERKNS0_6ParcelEPS9_NSt3__18functionIFvRS9_EEE
_ZN7android8hardware7sensors4V1_011BnHwSensors27_hidl_registerDirectChannelEPNS_4hidl4base4V1_08BnHwBaseERKNS0_6ParcelEPS9_NSt3__18functionIFvRS9_EEE
_ZN7android8hardware7sensors4V1_011BnHwSensors29_hidl_unregisterDirectChannelEPNS_4hidl4base4V1_08BnHwBaseERKNS0_6ParcelEPS9_NSt3__18functionIFvRS9_EEE
_ZN7android8hardware7sensors4V1_011BnHwSensors4pingEv
_ZN7android8hardware7sensors4V1_011BnHwSensorsC1ERKNS_2spINS2_8ISensorsEEE
_ZN7android8hardware7sensors4V1_011BnHwSensorsC2ERKNS_2spINS2_8ISensorsEEE
_ZN7android8hardware7sensors4V1_011BnHwSensorsD0Ev
_ZN7android8hardware7sensors4V1_011BnHwSensorsD1Ev
_ZN7android8hardware7sensors4V1_011BnHwSensorsD2Ev
_ZN7android8hardware7sensors4V1_011BpHwSensors10_hidl_pollEPNS0_10IInterfaceEPNS0_7details16HidlInstrumentorEiNSt3__18functionIFvNS2_6ResultERKNS0_8hidl_vecINS2_5EventEEERKNSC_INS2_10SensorInfoEEEEEE
_ZN7android8hardware7sensors4V1_011BpHwSensors11_hidl_batchEPNS0_10IInterfaceEPNS0_7details16HidlInstrumentorEixx
_ZN7android8hardware7sensors4V1_011BpHwSensors11_hidl_flushEPNS0_10IInterfaceEPNS0_7details16HidlInstrumentorEi
_ZN7android8hardware7sensors4V1_011BpHwSensors11linkToDeathERKNS_2spINS0_20hidl_death_recipientEEEy
_ZN7android8hardware7sensors4V1_011BpHwSensors12getDebugInfoENSt3__18functionIFvRKNS_4hidl4base4V1_09DebugInfoEEEE
_ZN7android8hardware7sensors4V1_011BpHwSensors12getHashChainENSt3__18functionIFvRKNS0_8hidl_vecINS0_10hidl_arrayIhLj32EJEEEEEEEE
_ZN7android8hardware7sensors4V1_011BpHwSensors13unlinkToDeathERKNS_2spINS0_20hidl_death_recipientEEE
_ZN7android8hardware7sensors4V1_011BpHwSensors14_hidl_activateEPNS0_10IInterfaceEPNS0_7details16HidlInstrumentorEib
_ZN7android8hardware7sensors4V1_011BpHwSensors14getSensorsListENSt3__18functionIFvRKNS0_8hidl_vecINS2_10SensorInfoEEEEEE
_ZN7android8hardware7sensors4V1_011BpHwSensors14interfaceChainENSt3__18functionIFvRKNS0_8hidl_vecINS0_11hidl_stringEEEEEE
_ZN7android8hardware7sensors4V1_011BpHwSensors16injectSensorDataERKNS2_5EventE
_ZN7android8hardware7sensors4V1_011BpHwSensors16setOperationModeENS2_13OperationModeE
_ZN7android8hardware7sensors4V1_011BpHwSensors18configDirectReportEiiNS2_9RateLevelENSt3__18functionIFvNS2_6ResultEiEEE
_ZN7android8hardware7sensors4V1_011BpHwSensors19interfaceDescriptorENSt3__18functionIFvRKNS0_11hidl_stringEEEE
_ZN7android8hardware7sensors4V1_011BpHwSensors20_hidl_getSensorsListEPNS0_10IInterfaceEPNS0_7details16HidlInstrumentorENSt3__18functionIFvRKNS0_8hidl_vecINS2_10SensorInfoEEEEEE
_ZN7android8hardware7sensors4V1_011BpHwSensors21notifySyspropsChangedEv
_ZN7android8hardware7sensors4V1_011BpHwSensors21registerDirectChannelERKNS2_13SharedMemInfoENSt3__18functionIFvNS2_6ResultEiEEE
_ZN7android8hardware7sensors4V1_011BpHwSensors21setHALInstrumentationEv
_ZN7android8hardware7sensors4V1_011BpHwSensors22_hidl_injectSensorDataEPNS0_10IInterfaceEPNS0_7details16HidlInstrumentorERKNS2_5EventE
_ZN7android8hardware7sensors4V1_011BpHwSensors22_hidl_setOperationModeEPNS0_10IInterfaceEPNS0_7details16HidlInstrumentorENS2_13OperationModeE
_ZN7android8hardware7sensors4V1_011BpHwSensors23unregisterDirectChannelEi
_ZN7android8hardware7sensors4V1_011BpHwSensors24_hidl_configDirectReportEPNS0_10IInterfaceEPNS0_7details16HidlInstrumentorEiiNS2_9RateLevelENSt3__18functionIFvNS2_6ResultEiEEE
_ZN7android8hardware7sensors4V1_011BpHwSensors27_hidl_registerDirectChannelEPNS0_10IInterfaceEPNS0_7details16HidlInstrumentorERKNS2_13SharedMemInfoENSt3__18functionIFvNS2_6ResultEiEEE
_ZN7android8hardware7sensors4V1_011BpHwSensors29_hidl_unregisterDirectChannelEPNS0_10IInterfaceEPNS0_7details16HidlInstrumentorEi
_ZN7android8hardware7sensors4V1_011BpHwSensors4pingEv
_ZN7android8hardware7sensors4V1_011BpHwSensors4pollEiNSt3__18functionIFvNS2_6ResultERKNS0_8hidl_vecINS2_5EventEEERKNS7_INS2_10SensorInfoEEEEEE
_ZN7android8hardware7sensors4V1_011BpHwSensors5batchEixx
_ZN7android8hardware7sensors4V1_011BpHwSensors5debugERKNS0_11hidl_handleERKNS0_8hidl_vecINS0_11hidl_stringEEE
_ZN7android8hardware7sensors4V1_011BpHwSensors5flushEi
_ZN7android8hardware7sensors4V1_011BpHwSensors8activateEib
_ZN7android8hardware7sensors4V1_011BpHwSensorsC1ERKNS_2spINS0_7IBinderEEE
_ZN7android8hardware7sensors4V1_011BpHwSensorsC2ERKNS_2spINS0_7IBinderEEE
_ZN7android8hardware7sensors4V1_021writeEmbeddedToParcelERKNS2_10SensorInfoEPNS0_6ParcelEjj
_ZN7android8hardware7sensors4V1_021writeEmbeddedToParcelERKNS2_13SharedMemInfoEPNS0_6ParcelEjj
_ZN7android8hardware7sensors4V1_022readEmbeddedFromParcelERKNS2_10SensorInfoERKNS0_6ParcelEjj
_ZN7android8hardware7sensors4V1_022readEmbeddedFromParcelERKNS2_13SharedMemInfoERKNS0_6ParcelEjj
_ZN7android8hardware7sensors4V1_08ISensors10descriptorE
_ZN7android8hardware7sensors4V1_08ISensors10getServiceERKNSt3__112basic_stringIcNS4_11char_traitsIcEENS4_9allocatorIcEEEEb
_ZN7android8hardware7sensors4V1_08ISensors11linkToDeathERKNS_2spINS0_20hidl_death_recipientEEEy
_ZN7android8hardware7sensors4V1_08ISensors12getDebugInfoENSt3__18functionIFvRKNS_4hidl4base4V1_09DebugInfoEEEE
_ZN7android8hardware7sensors4V1_08ISensors12getHashChainENSt3__18functionIFvRKNS0_8hidl_vecINS0_10hidl_arrayIhLj32EJEEEEEEEE
_ZN7android8hardware7sensors4V1_08ISensors13tryGetServiceERKNSt3__112basic_stringIcNS4_11char_traitsIcEENS4_9allocatorIcEEEEb
_ZN7android8hardware7sensors4V1_08ISensors13unlinkToDeathERKNS_2spINS0_20hidl_death_recipientEEE
_ZN7android8hardware7sensors4V1_08ISensors14interfaceChainENSt3__18functionIFvRKNS0_8hidl_vecINS0_11hidl_stringEEEEEE
_ZN7android8hardware7sensors4V1_08ISensors17registerAsServiceERKNSt3__112basic_stringIcNS4_11char_traitsIcEENS4_9allocatorIcEEEE
_ZN7android8hardware7sensors4V1_08ISensors19interfaceDescriptorENSt3__18functionIFvRKNS0_11hidl_stringEEEE
_ZN7android8hardware7sensors4V1_08ISensors21notifySyspropsChangedEv
_ZN7android8hardware7sensors4V1_08ISensors21setHALInstrumentationEv
_ZN7android8hardware7sensors4V1_08ISensors24registerForNotificationsERKNSt3__112basic_stringIcNS4_11char_traitsIcEENS4_9allocatorIcEEEERKNS_2spINS_4hidl7manager4V1_020IServiceNotificationEEE
_ZN7android8hardware7sensors4V1_08ISensors4pingEv
_ZN7android8hardware7sensors4V1_08ISensors5debugERKNS0_11hidl_handleERKNS0_8hidl_vecINS0_11hidl_stringEEE
_ZN7android8hardware7sensors4V1_08ISensors8castFromERKNS_2spINS_4hidl4base4V1_05IBaseEEEb
_ZN7android8hardware7sensors4V1_08ISensors8castFromERKNS_2spIS3_EEb
_ZN7android8hardware7sensors4V1_09BsSensors13addOnewayTaskENSt3__18functionIFvvEEE
_ZN7android8hardware7sensors4V1_09BsSensorsC1ENS_2spINS2_8ISensorsEEE
_ZN7android8hardware7sensors4V1_09BsSensorsC2ENS_2spINS2_8ISensorsEEE
_ZTCN7android8hardware7sensors4V1_011BnHwSensorsE0_NS0_7IBinderE
_ZTCN7android8hardware7sensors4V1_011BnHwSensorsE0_NS0_9BHwBinderE
_ZTCN7android8hardware7sensors4V1_011BnHwSensorsE0_NS_4hidl4base4V1_08BnHwBaseE
_ZTCN7android8hardware7sensors4V1_011BpHwSensorsE0_NS0_11BpInterfaceINS2_8ISensorsEEE
_ZTCN7android8hardware7sensors4V1_011BpHwSensorsE0_NS2_8ISensorsE
_ZTCN7android8hardware7sensors4V1_011BpHwSensorsE0_NS_4hidl4base4V1_05IBaseE
_ZTCN7android8hardware7sensors4V1_011BpHwSensorsE4_NS0_10IInterfaceE
_ZTCN7android8hardware7sensors4V1_011BpHwSensorsE8_NS0_11BpHwRefBaseE
_ZTCN7android8hardware7sensors4V1_08ISensorsE0_NS_4hidl4base4V1_05IBaseE
_ZTTN7android8hardware7sensors4V1_011BnHwSensorsE
_ZTTN7android8hardware7sensors4V1_011BpHwSensorsE
_ZTTN7android8hardware7sensors4V1_08ISensorsE
_ZTVN7android8hardware7sensors4V1_011BnHwSensorsE
_ZTVN7android8hardware7sensors4V1_011BpHwSensorsE
_ZTVN7android8hardware7sensors4V1_08ISensorsE
_ZThn20_N7android8hardware7sensors4V1_011BnHwSensorsD0Ev
_ZThn20_N7android8hardware7sensors4V1_011BnHwSensorsD1Ev
_ZTv0_n12_N7android8hardware7sensors4V1_011BnHwSensorsD0Ev
_ZTv0_n12_N7android8hardware7sensors4V1_011BnHwSensorsD1Ev
