_ZN7android10frameworks16schedulerservice4V1_024ISchedulingPolicyService10descriptorE
_ZN7android10frameworks16schedulerservice4V1_024ISchedulingPolicyService10getServiceERKNSt3__112basic_stringIcNS4_11char_traitsIcEENS4_9allocatorIcEEEEb
_ZN7android10frameworks16schedulerservice4V1_024ISchedulingPolicyService11linkToDeathERKNS_2spINS_8hardware20hidl_death_recipientEEEy
_ZN7android10frameworks16schedulerservice4V1_024ISchedulingPolicyService12getDebugInfoENSt3__18functionIFvRKNS_4hidl4base4V1_09DebugInfoEEEE
_ZN7android10frameworks16schedulerservice4V1_024ISchedulingPolicyService12getHashChainENSt3__18functionIFvRKNS_8hardware8hidl_vecINS6_10hidl_arrayIhLj32EJEEEEEEEE
_ZN7android10frameworks16schedulerservice4V1_024ISchedulingPolicyService13tryGetServiceERKNSt3__112basic_stringIcNS4_11char_traitsIcEENS4_9allocatorIcEEEEb
_ZN7android10frameworks16schedulerservice4V1_024ISchedulingPolicyService13unlinkToDeathERKNS_2spINS_8hardware20hidl_death_recipientEEE
_ZN7android10frameworks16schedulerservice4V1_024ISchedulingPolicyService14interfaceChainENSt3__18functionIFvRKNS_8hardware8hidl_vecINS6_11hidl_stringEEEEEE
_ZN7android10frameworks16schedulerservice4V1_024ISchedulingPolicyService17registerAsServiceERKNSt3__112basic_stringIcNS4_11char_traitsIcEENS4_9allocatorIcEEEE
_ZN7android10frameworks16schedulerservice4V1_024ISchedulingPolicyService19interfaceDescriptorENSt3__18functionIFvRKNS_8hardware11hidl_stringEEEE
_ZN7android10frameworks16schedulerservice4V1_024ISchedulingPolicyService21notifySyspropsChangedEv
_ZN7android10frameworks16schedulerservice4V1_024ISchedulingPolicyService21setHALInstrumentationEv
_ZN7android10frameworks16schedulerservice4V1_024ISchedulingPolicyService24registerForNotificationsERKNSt3__112basic_stringIcNS4_11char_traitsIcEENS4_9allocatorIcEEEERKNS_2spINS_4hidl7manager4V1_020IServiceNotificationEEE
_ZN7android10frameworks16schedulerservice4V1_024ISchedulingPolicyService4pingEv
_ZN7android10frameworks16schedulerservice4V1_024ISchedulingPolicyService5debugERKNS_8hardware11hidl_handleERKNS4_8hidl_vecINS4_11hidl_stringEEE
_ZN7android10frameworks16schedulerservice4V1_024ISchedulingPolicyService8castFromERKNS_2spINS_4hidl4base4V1_05IBaseEEEb
_ZN7android10frameworks16schedulerservice4V1_024ISchedulingPolicyService8castFromERKNS_2spIS3_EEb
_ZN7android10frameworks16schedulerservice4V1_025BsSchedulingPolicyService13addOnewayTaskENSt3__18functionIFvvEEE
_ZN7android10frameworks16schedulerservice4V1_025BsSchedulingPolicyServiceC1ENS_2spINS2_24ISchedulingPolicyServiceEEE
_ZN7android10frameworks16schedulerservice4V1_025BsSchedulingPolicyServiceC2ENS_2spINS2_24ISchedulingPolicyServiceEEE
_ZN7android10frameworks16schedulerservice4V1_027BnHwSchedulingPolicyService10onTransactEjRKNS_8hardware6ParcelEPS5_jNSt3__18functionIFvRS5_EEE
_ZN7android10frameworks16schedulerservice4V1_027BnHwSchedulingPolicyService12getDebugInfoENSt3__18functionIFvRKNS_4hidl4base4V1_09DebugInfoEEEE
_ZN7android10frameworks16schedulerservice4V1_027BnHwSchedulingPolicyService21_hidl_requestPriorityEPNS_4hidl4base4V1_08BnHwBaseERKNS_8hardware6ParcelEPSA_NSt3__18functionIFvRSA_EEE
_ZN7android10frameworks16schedulerservice4V1_027BnHwSchedulingPolicyService27_hidl_getMaxAllowedPriorityEPNS_4hidl4base4V1_08BnHwBaseERKNS_8hardware6ParcelEPSA_NSt3__18functionIFvRSA_EEE
_ZN7android10frameworks16schedulerservice4V1_027BnHwSchedulingPolicyService4pingEv
_ZN7android10frameworks16schedulerservice4V1_027BnHwSchedulingPolicyServiceC1ERKNS_2spINS2_24ISchedulingPolicyServiceEEE
_ZN7android10frameworks16schedulerservice4V1_027BnHwSchedulingPolicyServiceC2ERKNS_2spINS2_24ISchedulingPolicyServiceEEE
_ZN7android10frameworks16schedulerservice4V1_027BnHwSchedulingPolicyServiceD0Ev
_ZN7android10frameworks16schedulerservice4V1_027BnHwSchedulingPolicyServiceD1Ev
_ZN7android10frameworks16schedulerservice4V1_027BnHwSchedulingPolicyServiceD2Ev
_ZN7android10frameworks16schedulerservice4V1_027BpHwSchedulingPolicyService11linkToDeathERKNS_2spINS_8hardware20hidl_death_recipientEEEy
_ZN7android10frameworks16schedulerservice4V1_027BpHwSchedulingPolicyService12getDebugInfoENSt3__18functionIFvRKNS_4hidl4base4V1_09DebugInfoEEEE
_ZN7android10frameworks16schedulerservice4V1_027BpHwSchedulingPolicyService12getHashChainENSt3__18functionIFvRKNS_8hardware8hidl_vecINS6_10hidl_arrayIhLj32EJEEEEEEEE
_ZN7android10frameworks16schedulerservice4V1_027BpHwSchedulingPolicyService13unlinkToDeathERKNS_2spINS_8hardware20hidl_death_recipientEEE
_ZN7android10frameworks16schedulerservice4V1_027BpHwSchedulingPolicyService14interfaceChainENSt3__18functionIFvRKNS_8hardware8hidl_vecINS6_11hidl_stringEEEEEE
_ZN7android10frameworks16schedulerservice4V1_027BpHwSchedulingPolicyService15requestPriorityEiii
_ZN7android10frameworks16schedulerservice4V1_027BpHwSchedulingPolicyService19interfaceDescriptorENSt3__18functionIFvRKNS_8hardware11hidl_stringEEEE
_ZN7android10frameworks16schedulerservice4V1_027BpHwSchedulingPolicyService21_hidl_requestPriorityEPNS_8hardware10IInterfaceEPNS4_7details16HidlInstrumentorEiii
_ZN7android10frameworks16schedulerservice4V1_027BpHwSchedulingPolicyService21getMaxAllowedPriorityEv
_ZN7android10frameworks16schedulerservice4V1_027BpHwSchedulingPolicyService21notifySyspropsChangedEv
_ZN7android10frameworks16schedulerservice4V1_027BpHwSchedulingPolicyService21setHALInstrumentationEv
_ZN7android10frameworks16schedulerservice4V1_027BpHwSchedulingPolicyService27_hidl_getMaxAllowedPriorityEPNS_8hardware10IInterfaceEPNS4_7details16HidlInstrumentorE
_ZN7android10frameworks16schedulerservice4V1_027BpHwSchedulingPolicyService4pingEv
_ZN7android10frameworks16schedulerservice4V1_027BpHwSchedulingPolicyService5debugERKNS_8hardware11hidl_handleERKNS4_8hidl_vecINS4_11hidl_stringEEE
_ZN7android10frameworks16schedulerservice4V1_027BpHwSchedulingPolicyServiceC1ERKNS_2spINS_8hardware7IBinderEEE
_ZN7android10frameworks16schedulerservice4V1_027BpHwSchedulingPolicyServiceC2ERKNS_2spINS_8hardware7IBinderEEE
_ZTCN7android10frameworks16schedulerservice4V1_024ISchedulingPolicyServiceE0_NS_4hidl4base4V1_05IBaseE
_ZTCN7android10frameworks16schedulerservice4V1_027BnHwSchedulingPolicyServiceE0_NS_4hidl4base4V1_08BnHwBaseE
_ZTCN7android10frameworks16schedulerservice4V1_027BnHwSchedulingPolicyServiceE0_NS_8hardware7IBinderE
_ZTCN7android10frameworks16schedulerservice4V1_027BnHwSchedulingPolicyServiceE0_NS_8hardware9BHwBinderE
_ZTCN7android10frameworks16schedulerservice4V1_027BpHwSchedulingPolicyServiceE0_NS2_24ISchedulingPolicyServiceE
_ZTCN7android10frameworks16schedulerservice4V1_027BpHwSchedulingPolicyServiceE0_NS_4hidl4base4V1_05IBaseE
_ZTCN7android10frameworks16schedulerservice4V1_027BpHwSchedulingPolicyServiceE0_NS_8hardware11BpInterfaceINS2_24ISchedulingPolicyServiceEEE
_ZTCN7android10frameworks16schedulerservice4V1_027BpHwSchedulingPolicyServiceE4_NS_8hardware10IInterfaceE
_ZTCN7android10frameworks16schedulerservice4V1_027BpHwSchedulingPolicyServiceE8_NS_8hardware11BpHwRefBaseE
_ZTTN7android10frameworks16schedulerservice4V1_024ISchedulingPolicyServiceE
_ZTTN7android10frameworks16schedulerservice4V1_027BnHwSchedulingPolicyServiceE
_ZTTN7android10frameworks16schedulerservice4V1_027BpHwSchedulingPolicyServiceE
_ZTVN7android10frameworks16schedulerservice4V1_024ISchedulingPolicyServiceE
_ZTVN7android10frameworks16schedulerservice4V1_027BnHwSchedulingPolicyServiceE
_ZTVN7android10frameworks16schedulerservice4V1_027BpHwSchedulingPolicyServiceE
_ZThn20_N7android10frameworks16schedulerservice4V1_027BnHwSchedulingPolicyServiceD0Ev
_ZThn20_N7android10frameworks16schedulerservice4V1_027BnHwSchedulingPolicyServiceD1Ev
_ZTv0_n12_N7android10frameworks16schedulerservice4V1_027BnHwSchedulingPolicyServiceD0Ev
_ZTv0_n12_N7android10frameworks16schedulerservice4V1_027BnHwSchedulingPolicyServiceD1Ev
