vtable for android::hardware::health::V1_0::BpHwHealth
_ZTVN7android8hardware6health4V1_010BpHwHealthE: 20 entries
16    (int (*)(...)) _ZN7android8hardware6health4V1_010BpHwHealth14interfaceChainENSt3__18functionIFvRKNS0_8hidl_vecINS0_11hidl_stringEEEEEE
20    (int (*)(...)) _ZN7android8hardware6health4V1_010BpHwHealth5debugERKNS0_11hidl_handleERKNS0_8hidl_vecINS0_11hidl_stringEEE
24    (int (*)(...)) _ZN7android8hardware6health4V1_010BpHwHealth19interfaceDescriptorENSt3__18functionIFvRKNS0_11hidl_stringEEEE
28    (int (*)(...)) _ZN7android8hardware6health4V1_010BpHwHealth12getHashChainENSt3__18functionIFvRKNS0_8hidl_vecINS0_10hidl_arrayIhLj32EJEEEEEEEE
32    (int (*)(...)) _ZN7android8hardware6health4V1_010BpHwHealth21setHALInstrumentationEv
36    (int (*)(...)) _ZN7android8hardware6health4V1_010BpHwHealth11linkToDeathERKNS_2spINS0_20hidl_death_recipientEEEy
40    (int (*)(...)) _ZN7android8hardware6health4V1_010BpHwHealth4pingEv
44    (int (*)(...)) _ZN7android8hardware6health4V1_010BpHwHealth12getDebugInfoENSt3__18functionIFvRKNS_4hidl4base4V1_09DebugInfoEEEE
48    (int (*)(...)) _ZN7android8hardware6health4V1_010BpHwHealth21notifySyspropsChangedEv
52    (int (*)(...)) _ZN7android8hardware6health4V1_010BpHwHealth13unlinkToDeathERKNS_2spINS0_20hidl_death_recipientEEE
64    (int (*)(...)) _ZN7android8hardware6health4V1_010BpHwHealth4initERKNS2_12HealthConfigENSt3__18functionIFvS6_EEE
68    (int (*)(...)) _ZN7android8hardware6health4V1_010BpHwHealth6updateERKNS2_10HealthInfoENSt3__18functionIFvbS6_EEE
72    (int (*)(...)) _ZN7android8hardware6health4V1_010BpHwHealth13energyCounterENSt3__18functionIFvNS2_6ResultExEEE
124    (int (*)(...)) _ZN7android8hardware11BpHwRefBase10onFirstRefEv
128    (int (*)(...)) _ZN7android8hardware11BpHwRefBase15onLastStrongRefEPKv
132    (int (*)(...)) _ZN7android8hardware11BpHwRefBase20onIncStrongAttemptedEjPKv
188    (int (*)(...)) _ZTv0_n16_N7android8hardware11BpHwRefBase10onFirstRefEv
192    (int (*)(...)) _ZTv0_n20_N7android8hardware11BpHwRefBase15onLastStrongRefEPKv
196    (int (*)(...)) _ZTv0_n24_N7android8hardware11BpHwRefBase20onIncStrongAttemptedEjPKv
200    (int (*)(...)) _ZN7android7RefBase13onLastWeakRefEPKv


vtable for android::hardware::health::V1_0::BnHwHealth
_ZTVN7android8hardware6health4V1_010BnHwHealthE: 21 entries
12    (int (*)(...)) _ZN7android8hardware9BHwBinder8transactEjRKNS0_6ParcelEPS2_jNSt3__18functionIFvRS2_EEE
16    (int (*)(...)) _ZN7android8hardware9BHwBinder11linkToDeathERKNS_2spINS0_7IBinder14DeathRecipientEEEPvj
20    (int (*)(...)) _ZN7android8hardware9BHwBinder13unlinkToDeathERKNS_2wpINS0_7IBinder14DeathRecipientEEEPvjPS5_
24    (int (*)(...)) _ZNK7android8hardware7IBinder13checkSubclassEPKv
28    (int (*)(...)) _ZN7android8hardware9BHwBinder12attachObjectEPKvPvS4_PFvS3_S4_S4_E
32    (int (*)(...)) _ZNK7android8hardware9BHwBinder10findObjectEPKv
36    (int (*)(...)) _ZN7android8hardware9BHwBinder12detachObjectEPKv
40    (int (*)(...)) _ZN7android8hardware9BHwBinder11localBinderEv
44    (int (*)(...)) _ZN7android8hardware7IBinder12remoteBinderEv
48    (int (*)(...)) _ZN7android8hardware6health4V1_010BnHwHealthD1Ev
52    (int (*)(...)) _ZN7android8hardware6health4V1_010BnHwHealthD0Ev
56    (int (*)(...)) _ZN7android8hardware6health4V1_010BnHwHealth10onTransactEjRKNS0_6ParcelEPS4_jNSt3__18functionIFvRS4_EEE
68    (int (*)(...)) _ZThn20_N7android8hardware6health4V1_010BnHwHealthD1Ev
72    (int (*)(...)) _ZThn20_N7android8hardware6health4V1_010BnHwHealthD0Ev
104    (int (*)(...)) _ZTv0_n12_N7android8hardware6health4V1_010BnHwHealthD1Ev
108    (int (*)(...)) _ZTv0_n12_N7android8hardware6health4V1_010BnHwHealthD0Ev
112    (int (*)(...)) _ZN7android7RefBase10onFirstRefEv
116    (int (*)(...)) _ZN7android7RefBase15onLastStrongRefEPKv
120    (int (*)(...)) _ZN7android7RefBase20onIncStrongAttemptedEjPKv
124    (int (*)(...)) _ZN7android7RefBase13onLastWeakRefEPKv
128    (int (*)(...)) _ZTVN7android8hardware6health4V1_010BnHwHealthE


vtable for android::hardware::health::V1_0::IHealth
_ZTVN7android8hardware6health4V1_07IHealthE: 15 entries
16    (int (*)(...)) _ZN7android8hardware6health4V1_07IHealth14interfaceChainENSt3__18functionIFvRKNS0_8hidl_vecINS0_11hidl_stringEEEEEE
20    (int (*)(...)) _ZN7android8hardware6health4V1_07IHealth5debugERKNS0_11hidl_handleERKNS0_8hidl_vecINS0_11hidl_stringEEE
24    (int (*)(...)) _ZN7android8hardware6health4V1_07IHealth19interfaceDescriptorENSt3__18functionIFvRKNS0_11hidl_stringEEEE
28    (int (*)(...)) _ZN7android8hardware6health4V1_07IHealth12getHashChainENSt3__18functionIFvRKNS0_8hidl_vecINS0_10hidl_arrayIhLj32EJEEEEEEEE
32    (int (*)(...)) _ZN7android8hardware6health4V1_07IHealth21setHALInstrumentationEv
36    (int (*)(...)) _ZN7android8hardware6health4V1_07IHealth11linkToDeathERKNS_2spINS0_20hidl_death_recipientEEEy
40    (int (*)(...)) _ZN7android8hardware6health4V1_07IHealth4pingEv
44    (int (*)(...)) _ZN7android8hardware6health4V1_07IHealth12getDebugInfoENSt3__18functionIFvRKNS_4hidl4base4V1_09DebugInfoEEEE
48    (int (*)(...)) _ZN7android8hardware6health4V1_07IHealth21notifySyspropsChangedEv
52    (int (*)(...)) _ZN7android8hardware6health4V1_07IHealth13unlinkToDeathERKNS_2spINS0_20hidl_death_recipientEEE
112    (int (*)(...)) _ZN7android7RefBase10onFirstRefEv
116    (int (*)(...)) _ZN7android7RefBase15onLastStrongRefEPKv
120    (int (*)(...)) _ZN7android7RefBase20onIncStrongAttemptedEjPKv
124    (int (*)(...)) _ZN7android7RefBase13onLastWeakRefEPKv
128    (int (*)(...)) _ZTVN7android8hardware6health4V1_07IHealthE
