_ZN7android8hardware12soundtrigger4V2_015ISoundTriggerHw10descriptorE
_ZN7android8hardware12soundtrigger4V2_015ISoundTriggerHw10getServiceERKNSt3__112basic_stringIcNS4_11char_traitsIcEENS4_9allocatorIcEEEEb
_ZN7android8hardware12soundtrigger4V2_015ISoundTriggerHw11linkToDeathERKNS_2spINS0_20hidl_death_recipientEEEy
_ZN7android8hardware12soundtrigger4V2_015ISoundTriggerHw12getDebugInfoENSt3__18functionIFvRKNS_4hidl4base4V1_09DebugInfoEEEE
_ZN7android8hardware12soundtrigger4V2_015ISoundTriggerHw12getHashChainENSt3__18functionIFvRKNS0_8hidl_vecINS0_10hidl_arrayIhLj32EJEEEEEEEE
_ZN7android8hardware12soundtrigger4V2_015ISoundTriggerHw13tryGetServiceERKNSt3__112basic_stringIcNS4_11char_traitsIcEENS4_9allocatorIcEEEEb
_ZN7android8hardware12soundtrigger4V2_015ISoundTriggerHw13unlinkToDeathERKNS_2spINS0_20hidl_death_recipientEEE
_ZN7android8hardware12soundtrigger4V2_015ISoundTriggerHw14interfaceChainENSt3__18functionIFvRKNS0_8hidl_vecINS0_11hidl_stringEEEEEE
_ZN7android8hardware12soundtrigger4V2_015ISoundTriggerHw17registerAsServiceERKNSt3__112basic_stringIcNS4_11char_traitsIcEENS4_9allocatorIcEEEE
_ZN7android8hardware12soundtrigger4V2_015ISoundTriggerHw19interfaceDescriptorENSt3__18functionIFvRKNS0_11hidl_stringEEEE
_ZN7android8hardware12soundtrigger4V2_015ISoundTriggerHw21notifySyspropsChangedEv
_ZN7android8hardware12soundtrigger4V2_015ISoundTriggerHw21setHALInstrumentationEv
_ZN7android8hardware12soundtrigger4V2_015ISoundTriggerHw24registerForNotificationsERKNSt3__112basic_stringIcNS4_11char_traitsIcEENS4_9allocatorIcEEEERKNS_2spINS_4hidl7manager4V1_020IServiceNotificationEEE
_ZN7android8hardware12soundtrigger4V2_015ISoundTriggerHw4pingEv
_ZN7android8hardware12soundtrigger4V2_015ISoundTriggerHw5debugERKNS0_11hidl_handleERKNS0_8hidl_vecINS0_11hidl_stringEEE
_ZN7android8hardware12soundtrigger4V2_015ISoundTriggerHw8castFromERKNS_2spINS_4hidl4base4V1_05IBaseEEEb
_ZN7android8hardware12soundtrigger4V2_015ISoundTriggerHw8castFromERKNS_2spIS3_EEb
_ZN7android8hardware12soundtrigger4V2_016BsSoundTriggerHw13addOnewayTaskENSt3__18functionIFvvEEE
_ZN7android8hardware12soundtrigger4V2_016BsSoundTriggerHwC1ENS_2spINS2_15ISoundTriggerHwEEE
_ZN7android8hardware12soundtrigger4V2_016BsSoundTriggerHwC2ENS_2spINS2_15ISoundTriggerHwEEE
_ZN7android8hardware12soundtrigger4V2_018BnHwSoundTriggerHw10onTransactEjRKNS0_6ParcelEPS4_jNSt3__18functionIFvRS4_EEE
_ZN7android8hardware12soundtrigger4V2_018BnHwSoundTriggerHw12getDebugInfoENSt3__18functionIFvRKNS_4hidl4base4V1_09DebugInfoEEEE
_ZN7android8hardware12soundtrigger4V2_018BnHwSoundTriggerHw19_hidl_getPropertiesEPNS_4hidl4base4V1_08BnHwBaseERKNS0_6ParcelEPS9_NSt3__18functionIFvRS9_EEE
_ZN7android8hardware12soundtrigger4V2_018BnHwSoundTriggerHw20_hidl_loadSoundModelEPNS_4hidl4base4V1_08BnHwBaseERKNS0_6ParcelEPS9_NSt3__18functionIFvRS9_EEE
_ZN7android8hardware12soundtrigger4V2_018BnHwSoundTriggerHw21_hidl_stopRecognitionEPNS_4hidl4base4V1_08BnHwBaseERKNS0_6ParcelEPS9_NSt3__18functionIFvRS9_EEE
_ZN7android8hardware12soundtrigger4V2_018BnHwSoundTriggerHw22_hidl_startRecognitionEPNS_4hidl4base4V1_08BnHwBaseERKNS0_6ParcelEPS9_NSt3__18functionIFvRS9_EEE
_ZN7android8hardware12soundtrigger4V2_018BnHwSoundTriggerHw22_hidl_unloadSoundModelEPNS_4hidl4base4V1_08BnHwBaseERKNS0_6ParcelEPS9_NSt3__18functionIFvRS9_EEE
_ZN7android8hardware12soundtrigger4V2_018BnHwSoundTriggerHw25_hidl_stopAllRecognitionsEPNS_4hidl4base4V1_08BnHwBaseERKNS0_6ParcelEPS9_NSt3__18functionIFvRS9_EEE
_ZN7android8hardware12soundtrigger4V2_018BnHwSoundTriggerHw26_hidl_loadPhraseSoundModelEPNS_4hidl4base4V1_08BnHwBaseERKNS0_6ParcelEPS9_NSt3__18functionIFvRS9_EEE
_ZN7android8hardware12soundtrigger4V2_018BnHwSoundTriggerHw4pingEv
_ZN7android8hardware12soundtrigger4V2_018BnHwSoundTriggerHwC1ERKNS_2spINS2_15ISoundTriggerHwEEE
_ZN7android8hardware12soundtrigger4V2_018BnHwSoundTriggerHwC2ERKNS_2spINS2_15ISoundTriggerHwEEE
_ZN7android8hardware12soundtrigger4V2_018BnHwSoundTriggerHwD0Ev
_ZN7android8hardware12soundtrigger4V2_018BnHwSoundTriggerHwD1Ev
_ZN7android8hardware12soundtrigger4V2_018BnHwSoundTriggerHwD2Ev
_ZN7android8hardware12soundtrigger4V2_018BpHwSoundTriggerHw11linkToDeathERKNS_2spINS0_20hidl_death_recipientEEEy
_ZN7android8hardware12soundtrigger4V2_018BpHwSoundTriggerHw12getDebugInfoENSt3__18functionIFvRKNS_4hidl4base4V1_09DebugInfoEEEE
_ZN7android8hardware12soundtrigger4V2_018BpHwSoundTriggerHw12getHashChainENSt3__18functionIFvRKNS0_8hidl_vecINS0_10hidl_arrayIhLj32EJEEEEEEEE
_ZN7android8hardware12soundtrigger4V2_018BpHwSoundTriggerHw13getPropertiesENSt3__18functionIFviRKNS2_15ISoundTriggerHw10PropertiesEEEE
_ZN7android8hardware12soundtrigger4V2_018BpHwSoundTriggerHw13unlinkToDeathERKNS_2spINS0_20hidl_death_recipientEEE
_ZN7android8hardware12soundtrigger4V2_018BpHwSoundTriggerHw14interfaceChainENSt3__18functionIFvRKNS0_8hidl_vecINS0_11hidl_stringEEEEEE
_ZN7android8hardware12soundtrigger4V2_018BpHwSoundTriggerHw14loadSoundModelERKNS2_15ISoundTriggerHw10SoundModelERKNS_2spINS2_23ISoundTriggerHwCallbackEEEiNSt3__18functionIFviiEEE
_ZN7android8hardware12soundtrigger4V2_018BpHwSoundTriggerHw15stopRecognitionEi
_ZN7android8hardware12soundtrigger4V2_018BpHwSoundTriggerHw16startRecognitionEiRKNS2_15ISoundTriggerHw17RecognitionConfigERKNS_2spINS2_23ISoundTriggerHwCallbackEEEi
_ZN7android8hardware12soundtrigger4V2_018BpHwSoundTriggerHw16unloadSoundModelEi
_ZN7android8hardware12soundtrigger4V2_018BpHwSoundTriggerHw19_hidl_getPropertiesEPNS0_10IInterfaceEPNS0_7details16HidlInstrumentorENSt3__18functionIFviRKNS2_15ISoundTriggerHw10PropertiesEEEE
_ZN7android8hardware12soundtrigger4V2_018BpHwSoundTriggerHw19interfaceDescriptorENSt3__18functionIFvRKNS0_11hidl_stringEEEE
_ZN7android8hardware12soundtrigger4V2_018BpHwSoundTriggerHw19stopAllRecognitionsEv
_ZN7android8hardware12soundtrigger4V2_018BpHwSoundTriggerHw20_hidl_loadSoundModelEPNS0_10IInterfaceEPNS0_7details16HidlInstrumentorERKNS2_15ISoundTriggerHw10SoundModelERKNS_2spINS2_23ISoundTriggerHwCallbackEEEiNSt3__18functionIFviiEEE
_ZN7android8hardware12soundtrigger4V2_018BpHwSoundTriggerHw20loadPhraseSoundModelERKNS2_15ISoundTriggerHw16PhraseSoundModelERKNS_2spINS2_23ISoundTriggerHwCallbackEEEiNSt3__18functionIFviiEEE
_ZN7android8hardware12soundtrigger4V2_018BpHwSoundTriggerHw21_hidl_stopRecognitionEPNS0_10IInterfaceEPNS0_7details16HidlInstrumentorEi
_ZN7android8hardware12soundtrigger4V2_018BpHwSoundTriggerHw21notifySyspropsChangedEv
_ZN7android8hardware12soundtrigger4V2_018BpHwSoundTriggerHw21setHALInstrumentationEv
_ZN7android8hardware12soundtrigger4V2_018BpHwSoundTriggerHw22_hidl_startRecognitionEPNS0_10IInterfaceEPNS0_7details16HidlInstrumentorEiRKNS2_15ISoundTriggerHw17RecognitionConfigERKNS_2spINS2_23ISoundTriggerHwCallbackEEEi
_ZN7android8hardware12soundtrigger4V2_018BpHwSoundTriggerHw22_hidl_unloadSoundModelEPNS0_10IInterfaceEPNS0_7details16HidlInstrumentorEi
_ZN7android8hardware12soundtrigger4V2_018BpHwSoundTriggerHw25_hidl_stopAllRecognitionsEPNS0_10IInterfaceEPNS0_7details16HidlInstrumentorE
_ZN7android8hardware12soundtrigger4V2_018BpHwSoundTriggerHw26_hidl_loadPhraseSoundModelEPNS0_10IInterfaceEPNS0_7details16HidlInstrumentorERKNS2_15ISoundTriggerHw16PhraseSoundModelERKNS_2spINS2_23ISoundTriggerHwCallbackEEEiNSt3__18functionIFviiEEE
_ZN7android8hardware12soundtrigger4V2_018BpHwSoundTriggerHw4pingEv
_ZN7android8hardware12soundtrigger4V2_018BpHwSoundTriggerHw5debugERKNS0_11hidl_handleERKNS0_8hidl_vecINS0_11hidl_stringEEE
_ZN7android8hardware12soundtrigger4V2_018BpHwSoundTriggerHwC1ERKNS_2spINS0_7IBinderEEE
_ZN7android8hardware12soundtrigger4V2_018BpHwSoundTriggerHwC2ERKNS_2spINS0_7IBinderEEE
_ZN7android8hardware12soundtrigger4V2_021writeEmbeddedToParcelERKNS2_15ISoundTriggerHw10PropertiesEPNS0_6ParcelEjj
_ZN7android8hardware12soundtrigger4V2_021writeEmbeddedToParcelERKNS2_15ISoundTriggerHw10SoundModelEPNS0_6ParcelEjj
_ZN7android8hardware12soundtrigger4V2_021writeEmbeddedToParcelERKNS2_15ISoundTriggerHw16PhraseSoundModelEPNS0_6ParcelEjj
_ZN7android8hardware12soundtrigger4V2_021writeEmbeddedToParcelERKNS2_15ISoundTriggerHw17RecognitionConfigEPNS0_6ParcelEjj
_ZN7android8hardware12soundtrigger4V2_021writeEmbeddedToParcelERKNS2_15ISoundTriggerHw6PhraseEPNS0_6ParcelEjj
_ZN7android8hardware12soundtrigger4V2_021writeEmbeddedToParcelERKNS2_22PhraseRecognitionExtraEPNS0_6ParcelEjj
_ZN7android8hardware12soundtrigger4V2_021writeEmbeddedToParcelERKNS2_23ISoundTriggerHwCallback10ModelEventEPNS0_6ParcelEjj
_ZN7android8hardware12soundtrigger4V2_021writeEmbeddedToParcelERKNS2_23ISoundTriggerHwCallback16RecognitionEventEPNS0_6ParcelEjj
_ZN7android8hardware12soundtrigger4V2_021writeEmbeddedToParcelERKNS2_23ISoundTriggerHwCallback22PhraseRecognitionEventEPNS0_6ParcelEjj
_ZN7android8hardware12soundtrigger4V2_022readEmbeddedFromParcelERKNS2_15ISoundTriggerHw10PropertiesERKNS0_6ParcelEjj
_ZN7android8hardware12soundtrigger4V2_022readEmbeddedFromParcelERKNS2_15ISoundTriggerHw10SoundModelERKNS0_6ParcelEjj
_ZN7android8hardware12soundtrigger4V2_022readEmbeddedFromParcelERKNS2_15ISoundTriggerHw16PhraseSoundModelERKNS0_6ParcelEjj
_ZN7android8hardware12soundtrigger4V2_022readEmbeddedFromParcelERKNS2_15ISoundTriggerHw17RecognitionConfigERKNS0_6ParcelEjj
_ZN7android8hardware12soundtrigger4V2_022readEmbeddedFromParcelERKNS2_15ISoundTriggerHw6PhraseERKNS0_6ParcelEjj
_ZN7android8hardware12soundtrigger4V2_022readEmbeddedFromParcelERKNS2_22PhraseRecognitionExtraERKNS0_6ParcelEjj
_ZN7android8hardware12soundtrigger4V2_022readEmbeddedFromParcelERKNS2_23ISoundTriggerHwCallback10ModelEventERKNS0_6ParcelEjj
_ZN7android8hardware12soundtrigger4V2_022readEmbeddedFromParcelERKNS2_23ISoundTriggerHwCallback16RecognitionEventERKNS0_6ParcelEjj
_ZN7android8hardware12soundtrigger4V2_022readEmbeddedFromParcelERKNS2_23ISoundTriggerHwCallback22PhraseRecognitionEventERKNS0_6ParcelEjj
_ZN7android8hardware12soundtrigger4V2_023ISoundTriggerHwCallback10descriptorE
_ZN7android8hardware12soundtrigger4V2_023ISoundTriggerHwCallback10getServiceERKNSt3__112basic_stringIcNS4_11char_traitsIcEENS4_9allocatorIcEEEEb
_ZN7android8hardware12soundtrigger4V2_023ISoundTriggerHwCallback11linkToDeathERKNS_2spINS0_20hidl_death_recipientEEEy
_ZN7android8hardware12soundtrigger4V2_023ISoundTriggerHwCallback12getDebugInfoENSt3__18functionIFvRKNS_4hidl4base4V1_09DebugInfoEEEE
_ZN7android8hardware12soundtrigger4V2_023ISoundTriggerHwCallback12getHashChainENSt3__18functionIFvRKNS0_8hidl_vecINS0_10hidl_arrayIhLj32EJEEEEEEEE
_ZN7android8hardware12soundtrigger4V2_023ISoundTriggerHwCallback13tryGetServiceERKNSt3__112basic_stringIcNS4_11char_traitsIcEENS4_9allocatorIcEEEEb
_ZN7android8hardware12soundtrigger4V2_023ISoundTriggerHwCallback13unlinkToDeathERKNS_2spINS0_20hidl_death_recipientEEE
_ZN7android8hardware12soundtrigger4V2_023ISoundTriggerHwCallback14interfaceChainENSt3__18functionIFvRKNS0_8hidl_vecINS0_11hidl_stringEEEEEE
_ZN7android8hardware12soundtrigger4V2_023ISoundTriggerHwCallback17registerAsServiceERKNSt3__112basic_stringIcNS4_11char_traitsIcEENS4_9allocatorIcEEEE
_ZN7android8hardware12soundtrigger4V2_023ISoundTriggerHwCallback19interfaceDescriptorENSt3__18functionIFvRKNS0_11hidl_stringEEEE
_ZN7android8hardware12soundtrigger4V2_023ISoundTriggerHwCallback21notifySyspropsChangedEv
_ZN7android8hardware12soundtrigger4V2_023ISoundTriggerHwCallback21setHALInstrumentationEv
_ZN7android8hardware12soundtrigger4V2_023ISoundTriggerHwCallback24registerForNotificationsERKNSt3__112basic_stringIcNS4_11char_traitsIcEENS4_9allocatorIcEEEERKNS_2spINS_4hidl7manager4V1_020IServiceNotificationEEE
_ZN7android8hardware12soundtrigger4V2_023ISoundTriggerHwCallback4pingEv
_ZN7android8hardware12soundtrigger4V2_023ISoundTriggerHwCallback5debugERKNS0_11hidl_handleERKNS0_8hidl_vecINS0_11hidl_stringEEE
_ZN7android8hardware12soundtrigger4V2_023ISoundTriggerHwCallback8castFromERKNS_2spINS_4hidl4base4V1_05IBaseEEEb
_ZN7android8hardware12soundtrigger4V2_023ISoundTriggerHwCallback8castFromERKNS_2spIS3_EEb
_ZN7android8hardware12soundtrigger4V2_024BsSoundTriggerHwCallback13addOnewayTaskENSt3__18functionIFvvEEE
_ZN7android8hardware12soundtrigger4V2_024BsSoundTriggerHwCallbackC1ENS_2spINS2_23ISoundTriggerHwCallbackEEE
_ZN7android8hardware12soundtrigger4V2_024BsSoundTriggerHwCallbackC2ENS_2spINS2_23ISoundTriggerHwCallbackEEE
_ZN7android8hardware12soundtrigger4V2_026BnHwSoundTriggerHwCallback10onTransactEjRKNS0_6ParcelEPS4_jNSt3__18functionIFvRS4_EEE
_ZN7android8hardware12soundtrigger4V2_026BnHwSoundTriggerHwCallback12getDebugInfoENSt3__18functionIFvRKNS_4hidl4base4V1_09DebugInfoEEEE
_ZN7android8hardware12soundtrigger4V2_026BnHwSoundTriggerHwCallback24_hidl_soundModelCallbackEPNS_4hidl4base4V1_08BnHwBaseERKNS0_6ParcelEPS9_NSt3__18functionIFvRS9_EEE
_ZN7android8hardware12soundtrigger4V2_026BnHwSoundTriggerHwCallback25_hidl_recognitionCallbackEPNS_4hidl4base4V1_08BnHwBaseERKNS0_6ParcelEPS9_NSt3__18functionIFvRS9_EEE
_ZN7android8hardware12soundtrigger4V2_026BnHwSoundTriggerHwCallback31_hidl_phraseRecognitionCallbackEPNS_4hidl4base4V1_08BnHwBaseERKNS0_6ParcelEPS9_NSt3__18functionIFvRS9_EEE
_ZN7android8hardware12soundtrigger4V2_026BnHwSoundTriggerHwCallback4pingEv
_ZN7android8hardware12soundtrigger4V2_026BnHwSoundTriggerHwCallbackC1ERKNS_2spINS2_23ISoundTriggerHwCallbackEEE
_ZN7android8hardware12soundtrigger4V2_026BnHwSoundTriggerHwCallbackC2ERKNS_2spINS2_23ISoundTriggerHwCallbackEEE
_ZN7android8hardware12soundtrigger4V2_026BnHwSoundTriggerHwCallbackD0Ev
_ZN7android8hardware12soundtrigger4V2_026BnHwSoundTriggerHwCallbackD1Ev
_ZN7android8hardware12soundtrigger4V2_026BnHwSoundTriggerHwCallbackD2Ev
_ZN7android8hardware12soundtrigger4V2_026BpHwSoundTriggerHwCallback11linkToDeathERKNS_2spINS0_20hidl_death_recipientEEEy
_ZN7android8hardware12soundtrigger4V2_026BpHwSoundTriggerHwCallback12getDebugInfoENSt3__18functionIFvRKNS_4hidl4base4V1_09DebugInfoEEEE
_ZN7android8hardware12soundtrigger4V2_026BpHwSoundTriggerHwCallback12getHashChainENSt3__18functionIFvRKNS0_8hidl_vecINS0_10hidl_arrayIhLj32EJEEEEEEEE
_ZN7android8hardware12soundtrigger4V2_026BpHwSoundTriggerHwCallback13unlinkToDeathERKNS_2spINS0_20hidl_death_recipientEEE
_ZN7android8hardware12soundtrigger4V2_026BpHwSoundTriggerHwCallback14interfaceChainENSt3__18functionIFvRKNS0_8hidl_vecINS0_11hidl_stringEEEEEE
_ZN7android8hardware12soundtrigger4V2_026BpHwSoundTriggerHwCallback18soundModelCallbackERKNS2_23ISoundTriggerHwCallback10ModelEventEi
_ZN7android8hardware12soundtrigger4V2_026BpHwSoundTriggerHwCallback19interfaceDescriptorENSt3__18functionIFvRKNS0_11hidl_stringEEEE
_ZN7android8hardware12soundtrigger4V2_026BpHwSoundTriggerHwCallback19recognitionCallbackERKNS2_23ISoundTriggerHwCallback16RecognitionEventEi
_ZN7android8hardware12soundtrigger4V2_026BpHwSoundTriggerHwCallback21notifySyspropsChangedEv
_ZN7android8hardware12soundtrigger4V2_026BpHwSoundTriggerHwCallback21setHALInstrumentationEv
_ZN7android8hardware12soundtrigger4V2_026BpHwSoundTriggerHwCallback24_hidl_soundModelCallbackEPNS0_10IInterfaceEPNS0_7details16HidlInstrumentorERKNS2_23ISoundTriggerHwCallback10ModelEventEi
_ZN7android8hardware12soundtrigger4V2_026BpHwSoundTriggerHwCallback25_hidl_recognitionCallbackEPNS0_10IInterfaceEPNS0_7details16HidlInstrumentorERKNS2_23ISoundTriggerHwCallback16RecognitionEventEi
_ZN7android8hardware12soundtrigger4V2_026BpHwSoundTriggerHwCallback25phraseRecognitionCallbackERKNS2_23ISoundTriggerHwCallback22PhraseRecognitionEventEi
_ZN7android8hardware12soundtrigger4V2_026BpHwSoundTriggerHwCallback31_hidl_phraseRecognitionCallbackEPNS0_10IInterfaceEPNS0_7details16HidlInstrumentorERKNS2_23ISoundTriggerHwCallback22PhraseRecognitionEventEi
_ZN7android8hardware12soundtrigger4V2_026BpHwSoundTriggerHwCallback4pingEv
_ZN7android8hardware12soundtrigger4V2_026BpHwSoundTriggerHwCallback5debugERKNS0_11hidl_handleERKNS0_8hidl_vecINS0_11hidl_stringEEE
_ZN7android8hardware12soundtrigger4V2_026BpHwSoundTriggerHwCallbackC1ERKNS_2spINS0_7IBinderEEE
_ZN7android8hardware12soundtrigger4V2_026BpHwSoundTriggerHwCallbackC2ERKNS_2spINS0_7IBinderEEE
_ZTCN7android8hardware12soundtrigger4V2_015ISoundTriggerHwE0_NS_4hidl4base4V1_05IBaseE
_ZTCN7android8hardware12soundtrigger4V2_018BnHwSoundTriggerHwE0_NS0_7IBinderE
_ZTCN7android8hardware12soundtrigger4V2_018BnHwSoundTriggerHwE0_NS0_9BHwBinderE
_ZTCN7android8hardware12soundtrigger4V2_018BnHwSoundTriggerHwE0_NS_4hidl4base4V1_08BnHwBaseE
_ZTCN7android8hardware12soundtrigger4V2_018BpHwSoundTriggerHwE0_NS0_11BpInterfaceINS2_15ISoundTriggerHwEEE
_ZTCN7android8hardware12soundtrigger4V2_018BpHwSoundTriggerHwE0_NS2_15ISoundTriggerHwE
_ZTCN7android8hardware12soundtrigger4V2_018BpHwSoundTriggerHwE0_NS_4hidl4base4V1_05IBaseE
_ZTCN7android8hardware12soundtrigger4V2_018BpHwSoundTriggerHwE4_NS0_10IInterfaceE
_ZTCN7android8hardware12soundtrigger4V2_018BpHwSoundTriggerHwE8_NS0_11BpHwRefBaseE
_ZTCN7android8hardware12soundtrigger4V2_023ISoundTriggerHwCallbackE0_NS_4hidl4base4V1_05IBaseE
_ZTCN7android8hardware12soundtrigger4V2_026BnHwSoundTriggerHwCallbackE0_NS0_7IBinderE
_ZTCN7android8hardware12soundtrigger4V2_026BnHwSoundTriggerHwCallbackE0_NS0_9BHwBinderE
_ZTCN7android8hardware12soundtrigger4V2_026BnHwSoundTriggerHwCallbackE0_NS_4hidl4base4V1_08BnHwBaseE
_ZTCN7android8hardware12soundtrigger4V2_026BpHwSoundTriggerHwCallbackE0_NS0_11BpInterfaceINS2_23ISoundTriggerHwCallbackEEE
_ZTCN7android8hardware12soundtrigger4V2_026BpHwSoundTriggerHwCallbackE0_NS2_23ISoundTriggerHwCallbackE
_ZTCN7android8hardware12soundtrigger4V2_026BpHwSoundTriggerHwCallbackE0_NS_4hidl4base4V1_05IBaseE
_ZTCN7android8hardware12soundtrigger4V2_026BpHwSoundTriggerHwCallbackE4_NS0_10IInterfaceE
_ZTCN7android8hardware12soundtrigger4V2_026BpHwSoundTriggerHwCallbackE8_NS0_11BpHwRefBaseE
_ZTTN7android8hardware12soundtrigger4V2_015ISoundTriggerHwE
_ZTTN7android8hardware12soundtrigger4V2_018BnHwSoundTriggerHwE
_ZTTN7android8hardware12soundtrigger4V2_018BpHwSoundTriggerHwE
_ZTTN7android8hardware12soundtrigger4V2_023ISoundTriggerHwCallbackE
_ZTTN7android8hardware12soundtrigger4V2_026BnHwSoundTriggerHwCallbackE
_ZTTN7android8hardware12soundtrigger4V2_026BpHwSoundTriggerHwCallbackE
_ZTVN7android8hardware12soundtrigger4V2_015ISoundTriggerHwE
_ZTVN7android8hardware12soundtrigger4V2_018BnHwSoundTriggerHwE
_ZTVN7android8hardware12soundtrigger4V2_018BpHwSoundTriggerHwE
_ZTVN7android8hardware12soundtrigger4V2_023ISoundTriggerHwCallbackE
_ZTVN7android8hardware12soundtrigger4V2_026BnHwSoundTriggerHwCallbackE
_ZTVN7android8hardware12soundtrigger4V2_026BpHwSoundTriggerHwCallbackE
_ZThn20_N7android8hardware12soundtrigger4V2_018BnHwSoundTriggerHwD0Ev
_ZThn20_N7android8hardware12soundtrigger4V2_018BnHwSoundTriggerHwD1Ev
_ZThn20_N7android8hardware12soundtrigger4V2_026BnHwSoundTriggerHwCallbackD0Ev
_ZThn20_N7android8hardware12soundtrigger4V2_026BnHwSoundTriggerHwCallbackD1Ev
_ZTv0_n12_N7android8hardware12soundtrigger4V2_018BnHwSoundTriggerHwD0Ev
_ZTv0_n12_N7android8hardware12soundtrigger4V2_018BnHwSoundTriggerHwD1Ev
_ZTv0_n12_N7android8hardware12soundtrigger4V2_026BnHwSoundTriggerHwCallbackD0Ev
_ZTv0_n12_N7android8hardware12soundtrigger4V2_026BnHwSoundTriggerHwCallbackD1Ev
