_ZN7android8hardware6camera6device4V1_013ICameraDevice10descriptorE
_ZN7android8hardware6camera6device4V1_013ICameraDevice10getServiceERKNSt3__112basic_stringIcNS5_11char_traitsIcEENS5_9allocatorIcEEEEb
_ZN7android8hardware6camera6device4V1_013ICameraDevice11linkToDeathERKNS_2spINS0_20hidl_death_recipientEEEy
_ZN7android8hardware6camera6device4V1_013ICameraDevice12getDebugInfoENSt3__18functionIFvRKNS_4hidl4base4V1_09DebugInfoEEEE
_ZN7android8hardware6camera6device4V1_013ICameraDevice12getHashChainENSt3__18functionIFvRKNS0_8hidl_vecINS0_10hidl_arrayIhLj32EJEEEEEEEE
_ZN7android8hardware6camera6device4V1_013ICameraDevice13tryGetServiceERKNSt3__112basic_stringIcNS5_11char_traitsIcEENS5_9allocatorIcEEEEb
_ZN7android8hardware6camera6device4V1_013ICameraDevice13unlinkToDeathERKNS_2spINS0_20hidl_death_recipientEEE
_ZN7android8hardware6camera6device4V1_013ICameraDevice14interfaceChainENSt3__18functionIFvRKNS0_8hidl_vecINS0_11hidl_stringEEEEEE
_ZN7android8hardware6camera6device4V1_013ICameraDevice17registerAsServiceERKNSt3__112basic_stringIcNS5_11char_traitsIcEENS5_9allocatorIcEEEE
_ZN7android8hardware6camera6device4V1_013ICameraDevice19interfaceDescriptorENSt3__18functionIFvRKNS0_11hidl_stringEEEE
_ZN7android8hardware6camera6device4V1_013ICameraDevice21notifySyspropsChangedEv
_ZN7android8hardware6camera6device4V1_013ICameraDevice21setHALInstrumentationEv
_ZN7android8hardware6camera6device4V1_013ICameraDevice24registerForNotificationsERKNSt3__112basic_stringIcNS5_11char_traitsIcEENS5_9allocatorIcEEEERKNS_2spINS_4hidl7manager4V1_020IServiceNotificationEEE
_ZN7android8hardware6camera6device4V1_013ICameraDevice4pingEv
_ZN7android8hardware6camera6device4V1_013ICameraDevice5debugERKNS0_11hidl_handleERKNS0_8hidl_vecINS0_11hidl_stringEEE
_ZN7android8hardware6camera6device4V1_013ICameraDevice8castFromERKNS_2spINS_4hidl4base4V1_05IBaseEEEb
_ZN7android8hardware6camera6device4V1_013ICameraDevice8castFromERKNS_2spIS4_EEb
_ZN7android8hardware6camera6device4V1_014BsCameraDevice13addOnewayTaskENSt3__18functionIFvvEEE
_ZN7android8hardware6camera6device4V1_014BsCameraDeviceC1ENS_2spINS3_13ICameraDeviceEEE
_ZN7android8hardware6camera6device4V1_014BsCameraDeviceC2ENS_2spINS3_13ICameraDeviceEEE
_ZN7android8hardware6camera6device4V1_016BnHwCameraDevice10_hidl_openEPNS_4hidl4base4V1_08BnHwBaseERKNS0_6ParcelEPSA_NSt3__18functionIFvRSA_EEE
_ZN7android8hardware6camera6device4V1_016BnHwCameraDevice10onTransactEjRKNS0_6ParcelEPS5_jNSt3__18functionIFvRS5_EEE
_ZN7android8hardware6camera6device4V1_016BnHwCameraDevice11_hidl_closeEPNS_4hidl4base4V1_08BnHwBaseERKNS0_6ParcelEPSA_NSt3__18functionIFvRSA_EEE
_ZN7android8hardware6camera6device4V1_016BnHwCameraDevice12getDebugInfoENSt3__18functionIFvRKNS_4hidl4base4V1_09DebugInfoEEEE
_ZN7android8hardware6camera6device4V1_016BnHwCameraDevice15_hidl_autoFocusEPNS_4hidl4base4V1_08BnHwBaseERKNS0_6ParcelEPSA_NSt3__18functionIFvRSA_EEE
_ZN7android8hardware6camera6device4V1_016BnHwCameraDevice15_hidl_dumpStateEPNS_4hidl4base4V1_08BnHwBaseERKNS0_6ParcelEPSA_NSt3__18functionIFvRSA_EEE
_ZN7android8hardware6camera6device4V1_016BnHwCameraDevice17_hidl_sendCommandEPNS_4hidl4base4V1_08BnHwBaseERKNS0_6ParcelEPSA_NSt3__18functionIFvRSA_EEE
_ZN7android8hardware6camera6device4V1_016BnHwCameraDevice17_hidl_stopPreviewEPNS_4hidl4base4V1_08BnHwBaseERKNS0_6ParcelEPSA_NSt3__18functionIFvRSA_EEE
_ZN7android8hardware6camera6device4V1_016BnHwCameraDevice17_hidl_takePictureEPNS_4hidl4base4V1_08BnHwBaseERKNS0_6ParcelEPSA_NSt3__18functionIFvRSA_EEE
_ZN7android8hardware6camera6device4V1_016BnHwCameraDevice18_hidl_setTorchModeEPNS_4hidl4base4V1_08BnHwBaseERKNS0_6ParcelEPSA_NSt3__18functionIFvRSA_EEE
_ZN7android8hardware6camera6device4V1_016BnHwCameraDevice18_hidl_startPreviewEPNS_4hidl4base4V1_08BnHwBaseERKNS0_6ParcelEPSA_NSt3__18functionIFvRSA_EEE
_ZN7android8hardware6camera6device4V1_016BnHwCameraDevice19_hidl_cancelPictureEPNS_4hidl4base4V1_08BnHwBaseERKNS0_6ParcelEPSA_NSt3__18functionIFvRSA_EEE
_ZN7android8hardware6camera6device4V1_016BnHwCameraDevice19_hidl_enableMsgTypeEPNS_4hidl4base4V1_08BnHwBaseERKNS0_6ParcelEPSA_NSt3__18functionIFvRSA_EEE
_ZN7android8hardware6camera6device4V1_016BnHwCameraDevice19_hidl_getCameraInfoEPNS_4hidl4base4V1_08BnHwBaseERKNS0_6ParcelEPSA_NSt3__18functionIFvRSA_EEE
_ZN7android8hardware6camera6device4V1_016BnHwCameraDevice19_hidl_getParametersEPNS_4hidl4base4V1_08BnHwBaseERKNS0_6ParcelEPSA_NSt3__18functionIFvRSA_EEE
_ZN7android8hardware6camera6device4V1_016BnHwCameraDevice19_hidl_setParametersEPNS_4hidl4base4V1_08BnHwBaseERKNS0_6ParcelEPSA_NSt3__18functionIFvRSA_EEE
_ZN7android8hardware6camera6device4V1_016BnHwCameraDevice19_hidl_stopRecordingEPNS_4hidl4base4V1_08BnHwBaseERKNS0_6ParcelEPSA_NSt3__18functionIFvRSA_EEE
_ZN7android8hardware6camera6device4V1_016BnHwCameraDevice20_hidl_disableMsgTypeEPNS_4hidl4base4V1_08BnHwBaseERKNS0_6ParcelEPSA_NSt3__18functionIFvRSA_EEE
_ZN7android8hardware6camera6device4V1_016BnHwCameraDevice20_hidl_msgTypeEnabledEPNS_4hidl4base4V1_08BnHwBaseERKNS0_6ParcelEPSA_NSt3__18functionIFvRSA_EEE
_ZN7android8hardware6camera6device4V1_016BnHwCameraDevice20_hidl_previewEnabledEPNS_4hidl4base4V1_08BnHwBaseERKNS0_6ParcelEPSA_NSt3__18functionIFvRSA_EEE
_ZN7android8hardware6camera6device4V1_016BnHwCameraDevice20_hidl_startRecordingEPNS_4hidl4base4V1_08BnHwBaseERKNS0_6ParcelEPSA_NSt3__18functionIFvRSA_EEE
_ZN7android8hardware6camera6device4V1_016BnHwCameraDevice21_hidl_cancelAutoFocusEPNS_4hidl4base4V1_08BnHwBaseERKNS0_6ParcelEPSA_NSt3__18functionIFvRSA_EEE
_ZN7android8hardware6camera6device4V1_016BnHwCameraDevice21_hidl_getResourceCostEPNS_4hidl4base4V1_08BnHwBaseERKNS0_6ParcelEPSA_NSt3__18functionIFvRSA_EEE
_ZN7android8hardware6camera6device4V1_016BnHwCameraDevice22_hidl_recordingEnabledEPNS_4hidl4base4V1_08BnHwBaseERKNS0_6ParcelEPSA_NSt3__18functionIFvRSA_EEE
_ZN7android8hardware6camera6device4V1_016BnHwCameraDevice22_hidl_setPreviewWindowEPNS_4hidl4base4V1_08BnHwBaseERKNS0_6ParcelEPSA_NSt3__18functionIFvRSA_EEE
_ZN7android8hardware6camera6device4V1_016BnHwCameraDevice27_hidl_releaseRecordingFrameEPNS_4hidl4base4V1_08BnHwBaseERKNS0_6ParcelEPSA_NSt3__18functionIFvRSA_EEE
_ZN7android8hardware6camera6device4V1_016BnHwCameraDevice28_hidl_storeMetaDataInBuffersEPNS_4hidl4base4V1_08BnHwBaseERKNS0_6ParcelEPSA_NSt3__18functionIFvRSA_EEE
_ZN7android8hardware6camera6device4V1_016BnHwCameraDevice33_hidl_releaseRecordingFrameHandleEPNS_4hidl4base4V1_08BnHwBaseERKNS0_6ParcelEPSA_NSt3__18functionIFvRSA_EEE
_ZN7android8hardware6camera6device4V1_016BnHwCameraDevice38_hidl_releaseRecordingFrameHandleBatchEPNS_4hidl4base4V1_08BnHwBaseERKNS0_6ParcelEPSA_NSt3__18functionIFvRSA_EEE
_ZN7android8hardware6camera6device4V1_016BnHwCameraDevice4pingEv
_ZN7android8hardware6camera6device4V1_016BnHwCameraDeviceC1ERKNS_2spINS3_13ICameraDeviceEEE
_ZN7android8hardware6camera6device4V1_016BnHwCameraDeviceC2ERKNS_2spINS3_13ICameraDeviceEEE
_ZN7android8hardware6camera6device4V1_016BnHwCameraDeviceD0Ev
_ZN7android8hardware6camera6device4V1_016BnHwCameraDeviceD1Ev
_ZN7android8hardware6camera6device4V1_016BnHwCameraDeviceD2Ev
_ZN7android8hardware6camera6device4V1_016BpHwCameraDevice10_hidl_openEPNS0_10IInterfaceEPNS0_7details16HidlInstrumentorERKNS_2spINS3_21ICameraDeviceCallbackEEE
_ZN7android8hardware6camera6device4V1_016BpHwCameraDevice11_hidl_closeEPNS0_10IInterfaceEPNS0_7details16HidlInstrumentorE
_ZN7android8hardware6camera6device4V1_016BpHwCameraDevice11linkToDeathERKNS_2spINS0_20hidl_death_recipientEEEy
_ZN7android8hardware6camera6device4V1_016BpHwCameraDevice11sendCommandENS3_11CommandTypeEii
_ZN7android8hardware6camera6device4V1_016BpHwCameraDevice11stopPreviewEv
_ZN7android8hardware6camera6device4V1_016BpHwCameraDevice11takePictureEv
_ZN7android8hardware6camera6device4V1_016BpHwCameraDevice12getDebugInfoENSt3__18functionIFvRKNS_4hidl4base4V1_09DebugInfoEEEE
_ZN7android8hardware6camera6device4V1_016BpHwCameraDevice12getHashChainENSt3__18functionIFvRKNS0_8hidl_vecINS0_10hidl_arrayIhLj32EJEEEEEEEE
_ZN7android8hardware6camera6device4V1_016BpHwCameraDevice12setTorchModeENS1_6common4V1_09TorchModeE
_ZN7android8hardware6camera6device4V1_016BpHwCameraDevice12startPreviewEv
_ZN7android8hardware6camera6device4V1_016BpHwCameraDevice13cancelPictureEv
_ZN7android8hardware6camera6device4V1_016BpHwCameraDevice13enableMsgTypeEj
_ZN7android8hardware6camera6device4V1_016BpHwCameraDevice13getCameraInfoENSt3__18functionIFvNS1_6common4V1_06StatusERKNS3_10CameraInfoEEEE
_ZN7android8hardware6camera6device4V1_016BpHwCameraDevice13getParametersENSt3__18functionIFvRKNS0_11hidl_stringEEEE
_ZN7android8hardware6camera6device4V1_016BpHwCameraDevice13setParametersERKNS0_11hidl_stringE
_ZN7android8hardware6camera6device4V1_016BpHwCameraDevice13stopRecordingEv
_ZN7android8hardware6camera6device4V1_016BpHwCameraDevice13unlinkToDeathERKNS_2spINS0_20hidl_death_recipientEEE
_ZN7android8hardware6camera6device4V1_016BpHwCameraDevice14disableMsgTypeEj
_ZN7android8hardware6camera6device4V1_016BpHwCameraDevice14interfaceChainENSt3__18functionIFvRKNS0_8hidl_vecINS0_11hidl_stringEEEEEE
_ZN7android8hardware6camera6device4V1_016BpHwCameraDevice14msgTypeEnabledEj
_ZN7android8hardware6camera6device4V1_016BpHwCameraDevice14previewEnabledEv
_ZN7android8hardware6camera6device4V1_016BpHwCameraDevice14startRecordingEv
_ZN7android8hardware6camera6device4V1_016BpHwCameraDevice15_hidl_autoFocusEPNS0_10IInterfaceEPNS0_7details16HidlInstrumentorE
_ZN7android8hardware6camera6device4V1_016BpHwCameraDevice15_hidl_dumpStateEPNS0_10IInterfaceEPNS0_7details16HidlInstrumentorERKNS0_11hidl_handleE
_ZN7android8hardware6camera6device4V1_016BpHwCameraDevice15cancelAutoFocusEv
_ZN7android8hardware6camera6device4V1_016BpHwCameraDevice15getResourceCostENSt3__18functionIFvNS1_6common4V1_06StatusERKNS8_18CameraResourceCostEEEE
_ZN7android8hardware6camera6device4V1_016BpHwCameraDevice16recordingEnabledEv
_ZN7android8hardware6camera6device4V1_016BpHwCameraDevice16setPreviewWindowERKNS_2spINS3_28ICameraDevicePreviewCallbackEEE
_ZN7android8hardware6camera6device4V1_016BpHwCameraDevice17_hidl_sendCommandEPNS0_10IInterfaceEPNS0_7details16HidlInstrumentorENS3_11CommandTypeEii
_ZN7android8hardware6camera6device4V1_016BpHwCameraDevice17_hidl_stopPreviewEPNS0_10IInterfaceEPNS0_7details16HidlInstrumentorE
_ZN7android8hardware6camera6device4V1_016BpHwCameraDevice17_hidl_takePictureEPNS0_10IInterfaceEPNS0_7details16HidlInstrumentorE
_ZN7android8hardware6camera6device4V1_016BpHwCameraDevice18_hidl_setTorchModeEPNS0_10IInterfaceEPNS0_7details16HidlInstrumentorENS1_6common4V1_09TorchModeE
_ZN7android8hardware6camera6device4V1_016BpHwCameraDevice18_hidl_startPreviewEPNS0_10IInterfaceEPNS0_7details16HidlInstrumentorE
_ZN7android8hardware6camera6device4V1_016BpHwCameraDevice19_hidl_cancelPictureEPNS0_10IInterfaceEPNS0_7details16HidlInstrumentorE
_ZN7android8hardware6camera6device4V1_016BpHwCameraDevice19_hidl_enableMsgTypeEPNS0_10IInterfaceEPNS0_7details16HidlInstrumentorEj
_ZN7android8hardware6camera6device4V1_016BpHwCameraDevice19_hidl_getCameraInfoEPNS0_10IInterfaceEPNS0_7details16HidlInstrumentorENSt3__18functionIFvNS1_6common4V1_06StatusERKNS3_10CameraInfoEEEE
_ZN7android8hardware6camera6device4V1_016BpHwCameraDevice19_hidl_getParametersEPNS0_10IInterfaceEPNS0_7details16HidlInstrumentorENSt3__18functionIFvRKNS0_11hidl_stringEEEE
_ZN7android8hardware6camera6device4V1_016BpHwCameraDevice19_hidl_setParametersEPNS0_10IInterfaceEPNS0_7details16HidlInstrumentorERKNS0_11hidl_stringE
_ZN7android8hardware6camera6device4V1_016BpHwCameraDevice19_hidl_stopRecordingEPNS0_10IInterfaceEPNS0_7details16HidlInstrumentorE
_ZN7android8hardware6camera6device4V1_016BpHwCameraDevice19interfaceDescriptorENSt3__18functionIFvRKNS0_11hidl_stringEEEE
_ZN7android8hardware6camera6device4V1_016BpHwCameraDevice20_hidl_disableMsgTypeEPNS0_10IInterfaceEPNS0_7details16HidlInstrumentorEj
_ZN7android8hardware6camera6device4V1_016BpHwCameraDevice20_hidl_msgTypeEnabledEPNS0_10IInterfaceEPNS0_7details16HidlInstrumentorEj
_ZN7android8hardware6camera6device4V1_016BpHwCameraDevice20_hidl_previewEnabledEPNS0_10IInterfaceEPNS0_7details16HidlInstrumentorE
_ZN7android8hardware6camera6device4V1_016BpHwCameraDevice20_hidl_startRecordingEPNS0_10IInterfaceEPNS0_7details16HidlInstrumentorE
_ZN7android8hardware6camera6device4V1_016BpHwCameraDevice21_hidl_cancelAutoFocusEPNS0_10IInterfaceEPNS0_7details16HidlInstrumentorE
_ZN7android8hardware6camera6device4V1_016BpHwCameraDevice21_hidl_getResourceCostEPNS0_10IInterfaceEPNS0_7details16HidlInstrumentorENSt3__18functionIFvNS1_6common4V1_06StatusERKNSD_18CameraResourceCostEEEE
_ZN7android8hardware6camera6device4V1_016BpHwCameraDevice21notifySyspropsChangedEv
_ZN7android8hardware6camera6device4V1_016BpHwCameraDevice21releaseRecordingFrameEjj
_ZN7android8hardware6camera6device4V1_016BpHwCameraDevice21setHALInstrumentationEv
_ZN7android8hardware6camera6device4V1_016BpHwCameraDevice22_hidl_recordingEnabledEPNS0_10IInterfaceEPNS0_7details16HidlInstrumentorE
_ZN7android8hardware6camera6device4V1_016BpHwCameraDevice22_hidl_setPreviewWindowEPNS0_10IInterfaceEPNS0_7details16HidlInstrumentorERKNS_2spINS3_28ICameraDevicePreviewCallbackEEE
_ZN7android8hardware6camera6device4V1_016BpHwCameraDevice22storeMetaDataInBuffersEb
_ZN7android8hardware6camera6device4V1_016BpHwCameraDevice27_hidl_releaseRecordingFrameEPNS0_10IInterfaceEPNS0_7details16HidlInstrumentorEjj
_ZN7android8hardware6camera6device4V1_016BpHwCameraDevice27releaseRecordingFrameHandleEjjRKNS0_11hidl_handleE
_ZN7android8hardware6camera6device4V1_016BpHwCameraDevice28_hidl_storeMetaDataInBuffersEPNS0_10IInterfaceEPNS0_7details16HidlInstrumentorEb
_ZN7android8hardware6camera6device4V1_016BpHwCameraDevice32releaseRecordingFrameHandleBatchERKNS0_8hidl_vecINS3_17VideoFrameMessageEEE
_ZN7android8hardware6camera6device4V1_016BpHwCameraDevice33_hidl_releaseRecordingFrameHandleEPNS0_10IInterfaceEPNS0_7details16HidlInstrumentorEjjRKNS0_11hidl_handleE
_ZN7android8hardware6camera6device4V1_016BpHwCameraDevice38_hidl_releaseRecordingFrameHandleBatchEPNS0_10IInterfaceEPNS0_7details16HidlInstrumentorERKNS0_8hidl_vecINS3_17VideoFrameMessageEEE
_ZN7android8hardware6camera6device4V1_016BpHwCameraDevice4openERKNS_2spINS3_21ICameraDeviceCallbackEEE
_ZN7android8hardware6camera6device4V1_016BpHwCameraDevice4pingEv
_ZN7android8hardware6camera6device4V1_016BpHwCameraDevice5closeEv
_ZN7android8hardware6camera6device4V1_016BpHwCameraDevice5debugERKNS0_11hidl_handleERKNS0_8hidl_vecINS0_11hidl_stringEEE
_ZN7android8hardware6camera6device4V1_016BpHwCameraDevice9autoFocusEv
_ZN7android8hardware6camera6device4V1_016BpHwCameraDevice9dumpStateERKNS0_11hidl_handleE
_ZN7android8hardware6camera6device4V1_016BpHwCameraDeviceC1ERKNS_2spINS0_7IBinderEEE
_ZN7android8hardware6camera6device4V1_016BpHwCameraDeviceC2ERKNS_2spINS0_7IBinderEEE
_ZN7android8hardware6camera6device4V1_021ICameraDeviceCallback10descriptorE
_ZN7android8hardware6camera6device4V1_021ICameraDeviceCallback10getServiceERKNSt3__112basic_stringIcNS5_11char_traitsIcEENS5_9allocatorIcEEEEb
_ZN7android8hardware6camera6device4V1_021ICameraDeviceCallback11linkToDeathERKNS_2spINS0_20hidl_death_recipientEEEy
_ZN7android8hardware6camera6device4V1_021ICameraDeviceCallback12getDebugInfoENSt3__18functionIFvRKNS_4hidl4base4V1_09DebugInfoEEEE
_ZN7android8hardware6camera6device4V1_021ICameraDeviceCallback12getHashChainENSt3__18functionIFvRKNS0_8hidl_vecINS0_10hidl_arrayIhLj32EJEEEEEEEE
_ZN7android8hardware6camera6device4V1_021ICameraDeviceCallback13tryGetServiceERKNSt3__112basic_stringIcNS5_11char_traitsIcEENS5_9allocatorIcEEEEb
_ZN7android8hardware6camera6device4V1_021ICameraDeviceCallback13unlinkToDeathERKNS_2spINS0_20hidl_death_recipientEEE
_ZN7android8hardware6camera6device4V1_021ICameraDeviceCallback14interfaceChainENSt3__18functionIFvRKNS0_8hidl_vecINS0_11hidl_stringEEEEEE
_ZN7android8hardware6camera6device4V1_021ICameraDeviceCallback17registerAsServiceERKNSt3__112basic_stringIcNS5_11char_traitsIcEENS5_9allocatorIcEEEE
_ZN7android8hardware6camera6device4V1_021ICameraDeviceCallback19interfaceDescriptorENSt3__18functionIFvRKNS0_11hidl_stringEEEE
_ZN7android8hardware6camera6device4V1_021ICameraDeviceCallback21notifySyspropsChangedEv
_ZN7android8hardware6camera6device4V1_021ICameraDeviceCallback21setHALInstrumentationEv
_ZN7android8hardware6camera6device4V1_021ICameraDeviceCallback24registerForNotificationsERKNSt3__112basic_stringIcNS5_11char_traitsIcEENS5_9allocatorIcEEEERKNS_2spINS_4hidl7manager4V1_020IServiceNotificationEEE
_ZN7android8hardware6camera6device4V1_021ICameraDeviceCallback4pingEv
_ZN7android8hardware6camera6device4V1_021ICameraDeviceCallback5debugERKNS0_11hidl_handleERKNS0_8hidl_vecINS0_11hidl_stringEEE
_ZN7android8hardware6camera6device4V1_021ICameraDeviceCallback8castFromERKNS_2spINS_4hidl4base4V1_05IBaseEEEb
_ZN7android8hardware6camera6device4V1_021ICameraDeviceCallback8castFromERKNS_2spIS4_EEb
_ZN7android8hardware6camera6device4V1_021writeEmbeddedToParcelERKNS3_17VideoFrameMessageEPNS0_6ParcelEjj
_ZN7android8hardware6camera6device4V1_021writeEmbeddedToParcelERKNS3_19CameraFrameMetadataEPNS0_6ParcelEjj
_ZN7android8hardware6camera6device4V1_021writeEmbeddedToParcelERKNS3_22HandleTimestampMessageEPNS0_6ParcelEjj
_ZN7android8hardware6camera6device4V1_022BsCameraDeviceCallback13addOnewayTaskENSt3__18functionIFvvEEE
_ZN7android8hardware6camera6device4V1_022BsCameraDeviceCallbackC1ENS_2spINS3_21ICameraDeviceCallbackEEE
_ZN7android8hardware6camera6device4V1_022BsCameraDeviceCallbackC2ENS_2spINS3_21ICameraDeviceCallbackEEE
_ZN7android8hardware6camera6device4V1_022readEmbeddedFromParcelERKNS3_17VideoFrameMessageERKNS0_6ParcelEjj
_ZN7android8hardware6camera6device4V1_022readEmbeddedFromParcelERKNS3_19CameraFrameMetadataERKNS0_6ParcelEjj
_ZN7android8hardware6camera6device4V1_022readEmbeddedFromParcelERKNS3_22HandleTimestampMessageERKNS0_6ParcelEjj
_ZN7android8hardware6camera6device4V1_024BnHwCameraDeviceCallback10onTransactEjRKNS0_6ParcelEPS5_jNSt3__18functionIFvRS5_EEE
_ZN7android8hardware6camera6device4V1_024BnHwCameraDeviceCallback12getDebugInfoENSt3__18functionIFvRKNS_4hidl4base4V1_09DebugInfoEEEE
_ZN7android8hardware6camera6device4V1_024BnHwCameraDeviceCallback18_hidl_dataCallbackEPNS_4hidl4base4V1_08BnHwBaseERKNS0_6ParcelEPSA_NSt3__18functionIFvRSA_EEE
_ZN7android8hardware6camera6device4V1_024BnHwCameraDeviceCallback20_hidl_notifyCallbackEPNS_4hidl4base4V1_08BnHwBaseERKNS0_6ParcelEPSA_NSt3__18functionIFvRSA_EEE
_ZN7android8hardware6camera6device4V1_024BnHwCameraDeviceCallback20_hidl_registerMemoryEPNS_4hidl4base4V1_08BnHwBaseERKNS0_6ParcelEPSA_NSt3__18functionIFvRSA_EEE
_ZN7android8hardware6camera6device4V1_024BnHwCameraDeviceCallback22_hidl_unregisterMemoryEPNS_4hidl4base4V1_08BnHwBaseERKNS0_6ParcelEPSA_NSt3__18functionIFvRSA_EEE
_ZN7android8hardware6camera6device4V1_024BnHwCameraDeviceCallback27_hidl_dataCallbackTimestampEPNS_4hidl4base4V1_08BnHwBaseERKNS0_6ParcelEPSA_NSt3__18functionIFvRSA_EEE
_ZN7android8hardware6camera6device4V1_024BnHwCameraDeviceCallback29_hidl_handleCallbackTimestampEPNS_4hidl4base4V1_08BnHwBaseERKNS0_6ParcelEPSA_NSt3__18functionIFvRSA_EEE
_ZN7android8hardware6camera6device4V1_024BnHwCameraDeviceCallback34_hidl_handleCallbackTimestampBatchEPNS_4hidl4base4V1_08BnHwBaseERKNS0_6ParcelEPSA_NSt3__18functionIFvRSA_EEE
_ZN7android8hardware6camera6device4V1_024BnHwCameraDeviceCallback4pingEv
_ZN7android8hardware6camera6device4V1_024BnHwCameraDeviceCallbackC1ERKNS_2spINS3_21ICameraDeviceCallbackEEE
_ZN7android8hardware6camera6device4V1_024BnHwCameraDeviceCallbackC2ERKNS_2spINS3_21ICameraDeviceCallbackEEE
_ZN7android8hardware6camera6device4V1_024BnHwCameraDeviceCallbackD0Ev
_ZN7android8hardware6camera6device4V1_024BnHwCameraDeviceCallbackD1Ev
_ZN7android8hardware6camera6device4V1_024BnHwCameraDeviceCallbackD2Ev
_ZN7android8hardware6camera6device4V1_024BpHwCameraDeviceCallback11linkToDeathERKNS_2spINS0_20hidl_death_recipientEEEy
_ZN7android8hardware6camera6device4V1_024BpHwCameraDeviceCallback12dataCallbackENS3_15DataCallbackMsgEjjRKNS3_19CameraFrameMetadataE
_ZN7android8hardware6camera6device4V1_024BpHwCameraDeviceCallback12getDebugInfoENSt3__18functionIFvRKNS_4hidl4base4V1_09DebugInfoEEEE
_ZN7android8hardware6camera6device4V1_024BpHwCameraDeviceCallback12getHashChainENSt3__18functionIFvRKNS0_8hidl_vecINS0_10hidl_arrayIhLj32EJEEEEEEEE
_ZN7android8hardware6camera6device4V1_024BpHwCameraDeviceCallback13unlinkToDeathERKNS_2spINS0_20hidl_death_recipientEEE
_ZN7android8hardware6camera6device4V1_024BpHwCameraDeviceCallback14interfaceChainENSt3__18functionIFvRKNS0_8hidl_vecINS0_11hidl_stringEEEEEE
_ZN7android8hardware6camera6device4V1_024BpHwCameraDeviceCallback14notifyCallbackENS3_17NotifyCallbackMsgEii
_ZN7android8hardware6camera6device4V1_024BpHwCameraDeviceCallback14registerMemoryERKNS0_11hidl_handleEjj
_ZN7android8hardware6camera6device4V1_024BpHwCameraDeviceCallback16unregisterMemoryEj
_ZN7android8hardware6camera6device4V1_024BpHwCameraDeviceCallback18_hidl_dataCallbackEPNS0_10IInterfaceEPNS0_7details16HidlInstrumentorENS3_15DataCallbackMsgEjjRKNS3_19CameraFrameMetadataE
_ZN7android8hardware6camera6device4V1_024BpHwCameraDeviceCallback19interfaceDescriptorENSt3__18functionIFvRKNS0_11hidl_stringEEEE
_ZN7android8hardware6camera6device4V1_024BpHwCameraDeviceCallback20_hidl_notifyCallbackEPNS0_10IInterfaceEPNS0_7details16HidlInstrumentorENS3_17NotifyCallbackMsgEii
_ZN7android8hardware6camera6device4V1_024BpHwCameraDeviceCallback20_hidl_registerMemoryEPNS0_10IInterfaceEPNS0_7details16HidlInstrumentorERKNS0_11hidl_handleEjj
_ZN7android8hardware6camera6device4V1_024BpHwCameraDeviceCallback21dataCallbackTimestampENS3_15DataCallbackMsgEjjx
_ZN7android8hardware6camera6device4V1_024BpHwCameraDeviceCallback21notifySyspropsChangedEv
_ZN7android8hardware6camera6device4V1_024BpHwCameraDeviceCallback21setHALInstrumentationEv
_ZN7android8hardware6camera6device4V1_024BpHwCameraDeviceCallback22_hidl_unregisterMemoryEPNS0_10IInterfaceEPNS0_7details16HidlInstrumentorEj
_ZN7android8hardware6camera6device4V1_024BpHwCameraDeviceCallback23handleCallbackTimestampENS3_15DataCallbackMsgERKNS0_11hidl_handleEjjx
_ZN7android8hardware6camera6device4V1_024BpHwCameraDeviceCallback27_hidl_dataCallbackTimestampEPNS0_10IInterfaceEPNS0_7details16HidlInstrumentorENS3_15DataCallbackMsgEjjx
_ZN7android8hardware6camera6device4V1_024BpHwCameraDeviceCallback28handleCallbackTimestampBatchENS3_15DataCallbackMsgERKNS0_8hidl_vecINS3_22HandleTimestampMessageEEE
_ZN7android8hardware6camera6device4V1_024BpHwCameraDeviceCallback29_hidl_handleCallbackTimestampEPNS0_10IInterfaceEPNS0_7details16HidlInstrumentorENS3_15DataCallbackMsgERKNS0_11hidl_handleEjjx
_ZN7android8hardware6camera6device4V1_024BpHwCameraDeviceCallback34_hidl_handleCallbackTimestampBatchEPNS0_10IInterfaceEPNS0_7details16HidlInstrumentorENS3_15DataCallbackMsgERKNS0_8hidl_vecINS3_22HandleTimestampMessageEEE
_ZN7android8hardware6camera6device4V1_024BpHwCameraDeviceCallback4pingEv
_ZN7android8hardware6camera6device4V1_024BpHwCameraDeviceCallback5debugERKNS0_11hidl_handleERKNS0_8hidl_vecINS0_11hidl_stringEEE
_ZN7android8hardware6camera6device4V1_024BpHwCameraDeviceCallbackC1ERKNS_2spINS0_7IBinderEEE
_ZN7android8hardware6camera6device4V1_024BpHwCameraDeviceCallbackC2ERKNS_2spINS0_7IBinderEEE
_ZN7android8hardware6camera6device4V1_028ICameraDevicePreviewCallback10descriptorE
_ZN7android8hardware6camera6device4V1_028ICameraDevicePreviewCallback10getServiceERKNSt3__112basic_stringIcNS5_11char_traitsIcEENS5_9allocatorIcEEEEb
_ZN7android8hardware6camera6device4V1_028ICameraDevicePreviewCallback11linkToDeathERKNS_2spINS0_20hidl_death_recipientEEEy
_ZN7android8hardware6camera6device4V1_028ICameraDevicePreviewCallback12getDebugInfoENSt3__18functionIFvRKNS_4hidl4base4V1_09DebugInfoEEEE
_ZN7android8hardware6camera6device4V1_028ICameraDevicePreviewCallback12getHashChainENSt3__18functionIFvRKNS0_8hidl_vecINS0_10hidl_arrayIhLj32EJEEEEEEEE
_ZN7android8hardware6camera6device4V1_028ICameraDevicePreviewCallback13tryGetServiceERKNSt3__112basic_stringIcNS5_11char_traitsIcEENS5_9allocatorIcEEEEb
_ZN7android8hardware6camera6device4V1_028ICameraDevicePreviewCallback13unlinkToDeathERKNS_2spINS0_20hidl_death_recipientEEE
_ZN7android8hardware6camera6device4V1_028ICameraDevicePreviewCallback14interfaceChainENSt3__18functionIFvRKNS0_8hidl_vecINS0_11hidl_stringEEEEEE
_ZN7android8hardware6camera6device4V1_028ICameraDevicePreviewCallback17registerAsServiceERKNSt3__112basic_stringIcNS5_11char_traitsIcEENS5_9allocatorIcEEEE
_ZN7android8hardware6camera6device4V1_028ICameraDevicePreviewCallback19interfaceDescriptorENSt3__18functionIFvRKNS0_11hidl_stringEEEE
_ZN7android8hardware6camera6device4V1_028ICameraDevicePreviewCallback21notifySyspropsChangedEv
_ZN7android8hardware6camera6device4V1_028ICameraDevicePreviewCallback21setHALInstrumentationEv
_ZN7android8hardware6camera6device4V1_028ICameraDevicePreviewCallback24registerForNotificationsERKNSt3__112basic_stringIcNS5_11char_traitsIcEENS5_9allocatorIcEEEERKNS_2spINS_4hidl7manager4V1_020IServiceNotificationEEE
_ZN7android8hardware6camera6device4V1_028ICameraDevicePreviewCallback4pingEv
_ZN7android8hardware6camera6device4V1_028ICameraDevicePreviewCallback5debugERKNS0_11hidl_handleERKNS0_8hidl_vecINS0_11hidl_stringEEE
_ZN7android8hardware6camera6device4V1_028ICameraDevicePreviewCallback8castFromERKNS_2spINS_4hidl4base4V1_05IBaseEEEb
_ZN7android8hardware6camera6device4V1_028ICameraDevicePreviewCallback8castFromERKNS_2spIS4_EEb
_ZN7android8hardware6camera6device4V1_029BsCameraDevicePreviewCallback13addOnewayTaskENSt3__18functionIFvvEEE
_ZN7android8hardware6camera6device4V1_029BsCameraDevicePreviewCallbackC1ENS_2spINS3_28ICameraDevicePreviewCallbackEEE
_ZN7android8hardware6camera6device4V1_029BsCameraDevicePreviewCallbackC2ENS_2spINS3_28ICameraDevicePreviewCallbackEEE
_ZN7android8hardware6camera6device4V1_031BnHwCameraDevicePreviewCallback10onTransactEjRKNS0_6ParcelEPS5_jNSt3__18functionIFvRS5_EEE
_ZN7android8hardware6camera6device4V1_031BnHwCameraDevicePreviewCallback12getDebugInfoENSt3__18functionIFvRKNS_4hidl4base4V1_09DebugInfoEEEE
_ZN7android8hardware6camera6device4V1_031BnHwCameraDevicePreviewCallback13_hidl_setCropEPNS_4hidl4base4V1_08BnHwBaseERKNS0_6ParcelEPSA_NSt3__18functionIFvRSA_EEE
_ZN7android8hardware6camera6device4V1_031BnHwCameraDevicePreviewCallback14_hidl_setUsageEPNS_4hidl4base4V1_08BnHwBaseERKNS0_6ParcelEPSA_NSt3__18functionIFvRSA_EEE
_ZN7android8hardware6camera6device4V1_031BnHwCameraDevicePreviewCallback18_hidl_cancelBufferEPNS_4hidl4base4V1_08BnHwBaseERKNS0_6ParcelEPSA_NSt3__18functionIFvRSA_EEE
_ZN7android8hardware6camera6device4V1_031BnHwCameraDevicePreviewCallback18_hidl_setTimestampEPNS_4hidl4base4V1_08BnHwBaseERKNS0_6ParcelEPSA_NSt3__18functionIFvRSA_EEE
_ZN7android8hardware6camera6device4V1_031BnHwCameraDevicePreviewCallback19_hidl_dequeueBufferEPNS_4hidl4base4V1_08BnHwBaseERKNS0_6ParcelEPSA_NSt3__18functionIFvRSA_EEE
_ZN7android8hardware6camera6device4V1_031BnHwCameraDevicePreviewCallback19_hidl_enqueueBufferEPNS_4hidl4base4V1_08BnHwBaseERKNS0_6ParcelEPSA_NSt3__18functionIFvRSA_EEE
_ZN7android8hardware6camera6device4V1_031BnHwCameraDevicePreviewCallback20_hidl_setBufferCountEPNS_4hidl4base4V1_08BnHwBaseERKNS0_6ParcelEPSA_NSt3__18functionIFvRSA_EEE
_ZN7android8hardware6camera6device4V1_031BnHwCameraDevicePreviewCallback21_hidl_setSwapIntervalEPNS_4hidl4base4V1_08BnHwBaseERKNS0_6ParcelEPSA_NSt3__18functionIFvRSA_EEE
_ZN7android8hardware6camera6device4V1_031BnHwCameraDevicePreviewCallback24_hidl_setBuffersGeometryEPNS_4hidl4base4V1_08BnHwBaseERKNS0_6ParcelEPSA_NSt3__18functionIFvRSA_EEE
_ZN7android8hardware6camera6device4V1_031BnHwCameraDevicePreviewCallback33_hidl_getMinUndequeuedBufferCountEPNS_4hidl4base4V1_08BnHwBaseERKNS0_6ParcelEPSA_NSt3__18functionIFvRSA_EEE
_ZN7android8hardware6camera6device4V1_031BnHwCameraDevicePreviewCallback4pingEv
_ZN7android8hardware6camera6device4V1_031BnHwCameraDevicePreviewCallbackC1ERKNS_2spINS3_28ICameraDevicePreviewCallbackEEE
_ZN7android8hardware6camera6device4V1_031BnHwCameraDevicePreviewCallbackC2ERKNS_2spINS3_28ICameraDevicePreviewCallbackEEE
_ZN7android8hardware6camera6device4V1_031BnHwCameraDevicePreviewCallbackD0Ev
_ZN7android8hardware6camera6device4V1_031BnHwCameraDevicePreviewCallbackD1Ev
_ZN7android8hardware6camera6device4V1_031BnHwCameraDevicePreviewCallbackD2Ev
_ZN7android8hardware6camera6device4V1_031BpHwCameraDevicePreviewCallback11linkToDeathERKNS_2spINS0_20hidl_death_recipientEEEy
_ZN7android8hardware6camera6device4V1_031BpHwCameraDevicePreviewCallback12cancelBufferEy
_ZN7android8hardware6camera6device4V1_031BpHwCameraDevicePreviewCallback12getDebugInfoENSt3__18functionIFvRKNS_4hidl4base4V1_09DebugInfoEEEE
_ZN7android8hardware6camera6device4V1_031BpHwCameraDevicePreviewCallback12getHashChainENSt3__18functionIFvRKNS0_8hidl_vecINS0_10hidl_arrayIhLj32EJEEEEEEEE
_ZN7android8hardware6camera6device4V1_031BpHwCameraDevicePreviewCallback12setTimestampEx
_ZN7android8hardware6camera6device4V1_031BpHwCameraDevicePreviewCallback13_hidl_setCropEPNS0_10IInterfaceEPNS0_7details16HidlInstrumentorEiiii
_ZN7android8hardware6camera6device4V1_031BpHwCameraDevicePreviewCallback13dequeueBufferENSt3__18functionIFvNS1_6common4V1_06StatusEyRKNS0_11hidl_handleEjEEE
_ZN7android8hardware6camera6device4V1_031BpHwCameraDevicePreviewCallback13enqueueBufferEy
_ZN7android8hardware6camera6device4V1_031BpHwCameraDevicePreviewCallback13unlinkToDeathERKNS_2spINS0_20hidl_death_recipientEEE
_ZN7android8hardware6camera6device4V1_031BpHwCameraDevicePreviewCallback14_hidl_setUsageEPNS0_10IInterfaceEPNS0_7details16HidlInstrumentorENS0_8graphics6common4V1_011BufferUsageE
_ZN7android8hardware6camera6device4V1_031BpHwCameraDevicePreviewCallback14interfaceChainENSt3__18functionIFvRKNS0_8hidl_vecINS0_11hidl_stringEEEEEE
_ZN7android8hardware6camera6device4V1_031BpHwCameraDevicePreviewCallback14setBufferCountEj
_ZN7android8hardware6camera6device4V1_031BpHwCameraDevicePreviewCallback15setSwapIntervalEi
_ZN7android8hardware6camera6device4V1_031BpHwCameraDevicePreviewCallback18_hidl_cancelBufferEPNS0_10IInterfaceEPNS0_7details16HidlInstrumentorEy
_ZN7android8hardware6camera6device4V1_031BpHwCameraDevicePreviewCallback18_hidl_setTimestampEPNS0_10IInterfaceEPNS0_7details16HidlInstrumentorEx
_ZN7android8hardware6camera6device4V1_031BpHwCameraDevicePreviewCallback18setBuffersGeometryEjjNS0_8graphics6common4V1_011PixelFormatE
_ZN7android8hardware6camera6device4V1_031BpHwCameraDevicePreviewCallback19_hidl_dequeueBufferEPNS0_10IInterfaceEPNS0_7details16HidlInstrumentorENSt3__18functionIFvNS1_6common4V1_06StatusEyRKNS0_11hidl_handleEjEEE
_ZN7android8hardware6camera6device4V1_031BpHwCameraDevicePreviewCallback19_hidl_enqueueBufferEPNS0_10IInterfaceEPNS0_7details16HidlInstrumentorEy
_ZN7android8hardware6camera6device4V1_031BpHwCameraDevicePreviewCallback19interfaceDescriptorENSt3__18functionIFvRKNS0_11hidl_stringEEEE
_ZN7android8hardware6camera6device4V1_031BpHwCameraDevicePreviewCallback20_hidl_setBufferCountEPNS0_10IInterfaceEPNS0_7details16HidlInstrumentorEj
_ZN7android8hardware6camera6device4V1_031BpHwCameraDevicePreviewCallback21_hidl_setSwapIntervalEPNS0_10IInterfaceEPNS0_7details16HidlInstrumentorEi
_ZN7android8hardware6camera6device4V1_031BpHwCameraDevicePreviewCallback21notifySyspropsChangedEv
_ZN7android8hardware6camera6device4V1_031BpHwCameraDevicePreviewCallback21setHALInstrumentationEv
_ZN7android8hardware6camera6device4V1_031BpHwCameraDevicePreviewCallback24_hidl_setBuffersGeometryEPNS0_10IInterfaceEPNS0_7details16HidlInstrumentorEjjNS0_8graphics6common4V1_011PixelFormatE
_ZN7android8hardware6camera6device4V1_031BpHwCameraDevicePreviewCallback27getMinUndequeuedBufferCountENSt3__18functionIFvNS1_6common4V1_06StatusEjEEE
_ZN7android8hardware6camera6device4V1_031BpHwCameraDevicePreviewCallback33_hidl_getMinUndequeuedBufferCountEPNS0_10IInterfaceEPNS0_7details16HidlInstrumentorENSt3__18functionIFvNS1_6common4V1_06StatusEjEEE
_ZN7android8hardware6camera6device4V1_031BpHwCameraDevicePreviewCallback4pingEv
_ZN7android8hardware6camera6device4V1_031BpHwCameraDevicePreviewCallback5debugERKNS0_11hidl_handleERKNS0_8hidl_vecINS0_11hidl_stringEEE
_ZN7android8hardware6camera6device4V1_031BpHwCameraDevicePreviewCallback7setCropEiiii
_ZN7android8hardware6camera6device4V1_031BpHwCameraDevicePreviewCallback8setUsageENS0_8graphics6common4V1_011BufferUsageE
_ZN7android8hardware6camera6device4V1_031BpHwCameraDevicePreviewCallbackC1ERKNS_2spINS0_7IBinderEEE
_ZN7android8hardware6camera6device4V1_031BpHwCameraDevicePreviewCallbackC2ERKNS_2spINS0_7IBinderEEE
_ZTCN7android8hardware6camera6device4V1_013ICameraDeviceE0_NS_4hidl4base4V1_05IBaseE
_ZTCN7android8hardware6camera6device4V1_016BnHwCameraDeviceE0_NS0_7IBinderE
_ZTCN7android8hardware6camera6device4V1_016BnHwCameraDeviceE0_NS0_9BHwBinderE
_ZTCN7android8hardware6camera6device4V1_016BnHwCameraDeviceE0_NS_4hidl4base4V1_08BnHwBaseE
_ZTCN7android8hardware6camera6device4V1_016BpHwCameraDeviceE0_NS0_11BpInterfaceINS3_13ICameraDeviceEEE
_ZTCN7android8hardware6camera6device4V1_016BpHwCameraDeviceE0_NS3_13ICameraDeviceE
_ZTCN7android8hardware6camera6device4V1_016BpHwCameraDeviceE0_NS_4hidl4base4V1_05IBaseE
_ZTCN7android8hardware6camera6device4V1_016BpHwCameraDeviceE4_NS0_10IInterfaceE
_ZTCN7android8hardware6camera6device4V1_016BpHwCameraDeviceE8_NS0_11BpHwRefBaseE
_ZTCN7android8hardware6camera6device4V1_021ICameraDeviceCallbackE0_NS_4hidl4base4V1_05IBaseE
_ZTCN7android8hardware6camera6device4V1_024BnHwCameraDeviceCallbackE0_NS0_7IBinderE
_ZTCN7android8hardware6camera6device4V1_024BnHwCameraDeviceCallbackE0_NS0_9BHwBinderE
_ZTCN7android8hardware6camera6device4V1_024BnHwCameraDeviceCallbackE0_NS_4hidl4base4V1_08BnHwBaseE
_ZTCN7android8hardware6camera6device4V1_024BpHwCameraDeviceCallbackE0_NS0_11BpInterfaceINS3_21ICameraDeviceCallbackEEE
_ZTCN7android8hardware6camera6device4V1_024BpHwCameraDeviceCallbackE0_NS3_21ICameraDeviceCallbackE
_ZTCN7android8hardware6camera6device4V1_024BpHwCameraDeviceCallbackE0_NS_4hidl4base4V1_05IBaseE
_ZTCN7android8hardware6camera6device4V1_024BpHwCameraDeviceCallbackE4_NS0_10IInterfaceE
_ZTCN7android8hardware6camera6device4V1_024BpHwCameraDeviceCallbackE8_NS0_11BpHwRefBaseE
_ZTCN7android8hardware6camera6device4V1_028ICameraDevicePreviewCallbackE0_NS_4hidl4base4V1_05IBaseE
_ZTCN7android8hardware6camera6device4V1_031BnHwCameraDevicePreviewCallbackE0_NS0_7IBinderE
_ZTCN7android8hardware6camera6device4V1_031BnHwCameraDevicePreviewCallbackE0_NS0_9BHwBinderE
_ZTCN7android8hardware6camera6device4V1_031BnHwCameraDevicePreviewCallbackE0_NS_4hidl4base4V1_08BnHwBaseE
_ZTCN7android8hardware6camera6device4V1_031BpHwCameraDevicePreviewCallbackE0_NS0_11BpInterfaceINS3_28ICameraDevicePreviewCallbackEEE
_ZTCN7android8hardware6camera6device4V1_031BpHwCameraDevicePreviewCallbackE0_NS3_28ICameraDevicePreviewCallbackE
_ZTCN7android8hardware6camera6device4V1_031BpHwCameraDevicePreviewCallbackE0_NS_4hidl4base4V1_05IBaseE
_ZTCN7android8hardware6camera6device4V1_031BpHwCameraDevicePreviewCallbackE4_NS0_10IInterfaceE
_ZTCN7android8hardware6camera6device4V1_031BpHwCameraDevicePreviewCallbackE8_NS0_11BpHwRefBaseE
_ZTTN7android8hardware6camera6device4V1_013ICameraDeviceE
_ZTTN7android8hardware6camera6device4V1_016BnHwCameraDeviceE
_ZTTN7android8hardware6camera6device4V1_016BpHwCameraDeviceE
_ZTTN7android8hardware6camera6device4V1_021ICameraDeviceCallbackE
_ZTTN7android8hardware6camera6device4V1_024BnHwCameraDeviceCallbackE
_ZTTN7android8hardware6camera6device4V1_024BpHwCameraDeviceCallbackE
_ZTTN7android8hardware6camera6device4V1_028ICameraDevicePreviewCallbackE
_ZTTN7android8hardware6camera6device4V1_031BnHwCameraDevicePreviewCallbackE
_ZTTN7android8hardware6camera6device4V1_031BpHwCameraDevicePreviewCallbackE
_ZTVN7android8hardware6camera6device4V1_013ICameraDeviceE
_ZTVN7android8hardware6camera6device4V1_016BnHwCameraDeviceE
_ZTVN7android8hardware6camera6device4V1_016BpHwCameraDeviceE
_ZTVN7android8hardware6camera6device4V1_021ICameraDeviceCallbackE
_ZTVN7android8hardware6camera6device4V1_024BnHwCameraDeviceCallbackE
_ZTVN7android8hardware6camera6device4V1_024BpHwCameraDeviceCallbackE
_ZTVN7android8hardware6camera6device4V1_028ICameraDevicePreviewCallbackE
_ZTVN7android8hardware6camera6device4V1_031BnHwCameraDevicePreviewCallbackE
_ZTVN7android8hardware6camera6device4V1_031BpHwCameraDevicePreviewCallbackE
_ZThn20_N7android8hardware6camera6device4V1_016BnHwCameraDeviceD0Ev
_ZThn20_N7android8hardware6camera6device4V1_016BnHwCameraDeviceD1Ev
_ZThn20_N7android8hardware6camera6device4V1_024BnHwCameraDeviceCallbackD0Ev
_ZThn20_N7android8hardware6camera6device4V1_024BnHwCameraDeviceCallbackD1Ev
_ZThn20_N7android8hardware6camera6device4V1_031BnHwCameraDevicePreviewCallbackD0Ev
_ZThn20_N7android8hardware6camera6device4V1_031BnHwCameraDevicePreviewCallbackD1Ev
_ZTv0_n12_N7android8hardware6camera6device4V1_016BnHwCameraDeviceD0Ev
_ZTv0_n12_N7android8hardware6camera6device4V1_016BnHwCameraDeviceD1Ev
_ZTv0_n12_N7android8hardware6camera6device4V1_024BnHwCameraDeviceCallbackD0Ev
_ZTv0_n12_N7android8hardware6camera6device4V1_024BnHwCameraDeviceCallbackD1Ev
_ZTv0_n12_N7android8hardware6camera6device4V1_031BnHwCameraDevicePreviewCallbackD0Ev
_ZTv0_n12_N7android8hardware6camera6device4V1_031BnHwCameraDevicePreviewCallbackD1Ev
