BitStreamCreateEnc
BitstreamAppendEnc
BitstreamAppendPacket
BitstreamAppendPacketNoOffset
BitstreamCloseEnc
BitstreamEncReset
BitstreamFlushBits
BitstreamGetPos
BitstreamMpeg4ByteAlignStuffing
BitstreamPrependPacket
BitstreamPutBits
BitstreamPutGT16Bits
BitstreamRepos
BitstreamSavePartial
BitstreamSaveWord
BitstreamSetOverrunBuffer
BitstreamShortHeaderByteAlignStuffing
BitstreamUseOverrunBuffer
Block1x1DCTIntra
Block1x1DCTwSub
Block2x2DCT_AANIntra
Block2x2DCT_AANwSub
Block4x4DCT_AANIntra
Block4x4DCT_AANwSub
BlockCodeCoeff_Normal
BlockCodeCoeff_RVLC
BlockCodeCoeff_ShortHeader
BlockDCT_AANIntra
BlockDCT_AANwSub
BlockIDCTMotionComp
BlockQuantDequantH263DCInter
BlockQuantDequantH263DCIntra
BlockQuantDequantH263Inter
BlockQuantDequantH263Intra
BlockQuantDequantMPEGDCInter
BlockQuantDequantMPEGDCIntra
BlockQuantDequantMPEGInter
BlockQuantDequantMPEGIntra
CalcThreshold
CandidateSelection
ChooseMode_C
CodeMB_H263
CodeMB_MPEG
ComputeMBSum_C
Copy_B_from_Vop
Copy_B_into_Vop
Copy_MB_from_Vop
Copy_MB_into_Vop
DCACPred
EncGetPredOutside
EncPrediction_Chrom
EncPrediction_INTER
EncPrediction_INTER4V
EncodeFrameCombinedMode
EncodeFrameDataPartMode
EncodeSlice
EncodeSliceCombinedMode
EncodeSliceDataPartMode
EncodeVideoPacketHeader
EncodeVop
FindHalfPelBlk
FindHalfPelMB
FindMin
GetHalfPelBlkRegion
GetHalfPelMBRegion_C
GetPredAdvBy0x0
GetPredAdvBy0x1
GetPredAdvBy1x0
GetPredAdvBy1x1
HTFMPrepareCurMB
HalfPel1_SAD_Blk
HalfPel1_SAD_MB
HalfPel2_SAD_Blk
HalfPel2_SAD_MB
InitHTFM
IntraDC_dpcm
MBMotionSearch
MBVlcEncodeCombined_I_VOP
MBVlcEncodeCombined_P_VOP
MBVlcEncodeDataPar_I_VOP
MBVlcEncodeDataPar_P_VOP
MotionEstimation
MoveNeighborSAD
PVCleanUpVideoEncoder
PVEncodeFrameSet
PVEncodeSlice
PVEncodeVideoFrame
PVGetDefaultEncOption
PVGetEncMemoryUsage
PVGetH263ProfileLevelID
PVGetHintTrack
PVGetMPEG4ProfileLevelID
PVGetMaxVideoFrameSize
PVGetOverrunBuffer
PVGetVBVSize
PVGetVolHeader
PVIFrameRequest
PVInitVideoEncoder
PVUpdateBitRate
PVUpdateEncFrameRate
PVUpdateIFrameInterval
PVUpdateNumIntraMBRefresh
PaddingEdge
PrepareCurMB
PutCBPY
PutCoeff_Inter
PutCoeff_Inter_Last
PutCoeff_Inter_RVLC
PutCoeff_Inter_RVLC_Last
PutCoeff_Intra
PutCoeff_Intra_Last
PutCoeff_Intra_RVLC
PutCoeff_Intra_RVLC_Last
PutDCsize_chrom
PutDCsize_lum
PutLevelCoeff_Inter
PutLevelCoeff_Inter_Last
PutLevelCoeff_Intra
PutLevelCoeff_Intra_Last
PutMCBPC_Inter
PutMCBPC_Intra
PutMV
PutRunCoeff_Inter
PutRunCoeff_Inter_Last
PutRunCoeff_Intra
PutRunCoeff_Intra_Last
PutSkippedBlock
RC_Cleanup
RC_GetSkipNextFrame
RC_Initialize
RC_ResetSkipNextFrame
RC_UpdateBXRCParams
RC_UpdateBuffer
RC_VopQPSetting
RC_VopUpdateStat
RasterIntraUpdate
ResetIntraUpdate
ResetIntraUpdateRegion
RunLevel
SAD_Blk_HalfPel_C
SAD_Block_C
SAD_MB_HP_HTFM_Collectxh
SAD_MB_HP_HTFM_Collectxhyh
SAD_MB_HP_HTFM_Collectyh
SAD_MB_HP_HTFMxh
SAD_MB_HP_HTFMxhyh
SAD_MB_HP_HTFMyh
SAD_MB_HTFM
SAD_MB_HTFM_Collect
SAD_MB_HalfPel_Cxh
SAD_MB_HalfPel_Cxhyh
SAD_MB_HalfPel_Cyh
SAD_Macroblock_C
Sad8x8
ScaleMVD
UpdateHTFM
WriteMVcomponent
_Z13SaveRDSamplesP12tagMultiPassi
_Z14EncodeVop_NoMEP15tagVideoEncData
_Z15EncodeGOBHeaderP15tagVideoEncDataiii
_Z15EncodeGOVHeaderP12tagBitstreamj
_Z15EncodeVOPHeaderP12tagBitstreamP6tagVolP6tagVOP
_Z15EncodeVOS_StartP19tagvideoEncControls
_Z16DetermineVopTypeP15tagVideoEncDatai
_Z16PVUpdateVBVDelayP19tagvideoEncControlsf
_Z17EncodeShortHeaderP12tagBitstreamP6tagVOP
_Z17updateRC_PostProcP11rateControlP15tagVideoEncData
_Z17updateRateControlP11rateControlP15tagVideoEncData
_Z19UpdateSkipNextFrameP15tagVideoEncDataPjPi9PV_STATUS
_Z20DetermineCodingLayerP15tagVideoEncDataPij
_Z20targetBitCalculationPv
_Z21SetProfile_BufferSizeP15tagVideoEncDatafi
_Z22createSoftOMXComponentPKcPK16OMX_CALLBACKTYPEPvPP17OMX_COMPONENTTYPE
_Z28calculateQuantizer_MultipassPv
_Z7VOS_EndP19tagvideoEncControls
_Z8idct_colPs
_ZN7android16SoftMPEG4Encoder11initEncoderEv
_ZN7android16SoftMPEG4Encoder13initEncParamsEv
_ZN7android16SoftMPEG4Encoder13onQueueFilledEj
_ZN7android16SoftMPEG4Encoder14releaseEncoderEv
_ZN7android16SoftMPEG4Encoder20internalGetParameterE13OMX_INDEXTYPEPv
_ZN7android16SoftMPEG4Encoder20internalSetParameterE13OMX_INDEXTYPEPv
_ZN7android16SoftMPEG4Encoder7onResetEv
_ZN7android16SoftMPEG4EncoderC1EPKcS2_20OMX_VIDEO_CODINGTYPES2_PKNS_17CodecProfileLevelEjPK16OMX_CALLBACKTYPEPvPP17OMX_COMPONENTTYPE
_ZN7android16SoftMPEG4EncoderC2EPKcS2_20OMX_VIDEO_CODINGTYPES2_PKNS_17CodecProfileLevelEjPK16OMX_CALLBACKTYPEPvPP17OMX_COMPONENTTYPE
_ZN7android16SoftMPEG4EncoderD0Ev
_ZN7android16SoftMPEG4EncoderD1Ev
_ZN7android16SoftMPEG4EncoderD2Ev
_ZTVN7android16SoftMPEG4EncoderE
cal_dc_scalerENC
find_pmvs
fullsearch
fullsearchBlk
getBlockSAV
getBlockSum
getMotionCompensatedMB
get_MB
idct_col0
idct_col0x10
idct_col0x20
idct_col0x40
idct_col1
idct_col2
idct_col3
idct_col4
idct_row0Inter
idct_row0Intra
idct_row0x10Inter
idct_row0x10Intra
idct_row0x10zmv
idct_row0x20Inter
idct_row0x20Intra
idct_row0x20zmv
idct_row0x40Inter
idct_row0x40Intra
idct_row0x40zmv
idct_row0zmv
idct_row1Inter
idct_row1Intra
idct_row1zmv
idct_row2Inter
idct_row2Intra
idct_row2zmv
idct_row3Inter
idct_row3Intra
idct_row3zmv
idct_row4Inter
idct_row4Intra
idct_row4zmv
idct_rowInter
idct_rowIntra
idct_rowzmv
